
Ctrl_Stepper_Motor.elf:     file format elf32-littleriscv
Ctrl_Stepper_Motor.elf
architecture: riscv:rv32, flags 0x00000112:
EXEC_P, HAS_SYMS, D_PAGED
start address 0x00000000

Program Header:
    LOAD off    0x00001000 vaddr 0x00000000 paddr 0x00000000 align 2**12
         filesz 0x0000a6e4 memsz 0x0000a6e4 flags r-x
    LOAD off    0x0000c000 vaddr 0x20000000 paddr 0x0000a6e4 align 2**12
         filesz 0x00000248 memsz 0x00000320 flags rw-
    LOAD off    0x0000c800 vaddr 0x2000f800 paddr 0x2000f800 align 2**12
         filesz 0x00000000 memsz 0x00000800 flags rw-

Sections:
Idx Name           Size      VMA       LMA       File off  Algn  Flags
  0 .init          00000038  00000000  00000000  00001000  2**1  CONTENTS, ALLOC, LOAD, READONLY, CODE
  1 .vector        000001c8  00000038  00000038  00001038  2**1  CONTENTS, ALLOC, LOAD, READONLY, CODE
  2 .text          0000a4e4  00000200  00000200  00001200  2**3  CONTENTS, ALLOC, LOAD, READONLY, CODE
  3 .fini          00000000  0000a6e4  0000a6e4  0000c248  2**0  CONTENTS, ALLOC, LOAD, CODE
  4 .dalign        00000000  20000000  20000000  0000c248  2**0  CONTENTS
  5 .dlalign       00000000  0000a6e4  0000a6e4  0000c248  2**0  CONTENTS
  6 .data          00000248  20000000  0000a6e4  0000c000  2**2  CONTENTS, ALLOC, LOAD, DATA
  7 .bss           000000d8  20000248  0000a92c  0000c248  2**2  ALLOC
  8 .stack         00000800  2000f800  2000f800  0000c800  2**0  ALLOC
  9 .debug_info    00017935  00000000  00000000  0000c248  2**0  CONTENTS, READONLY, DEBUGGING
 10 .debug_abbrev  00003bdc  00000000  00000000  00023b7d  2**0  CONTENTS, READONLY, DEBUGGING
 11 .debug_aranges 00000d48  00000000  00000000  00027760  2**3  CONTENTS, READONLY, DEBUGGING
 12 .debug_ranges  00000b80  00000000  00000000  000284a8  2**3  CONTENTS, READONLY, DEBUGGING
 13 .debug_line    0000fa8b  00000000  00000000  00029028  2**0  CONTENTS, READONLY, DEBUGGING
 14 .debug_str     00005423  00000000  00000000  00038ab3  2**0  CONTENTS, READONLY, DEBUGGING
 15 .comment       00000033  00000000  00000000  0003ded6  2**0  CONTENTS, READONLY
 16 .debug_frame   00004028  00000000  00000000  0003df0c  2**2  CONTENTS, READONLY, DEBUGGING
 17 .stab          00000084  00000000  00000000  00041f34  2**2  CONTENTS, READONLY, DEBUGGING
 18 .stabstr       00000117  00000000  00000000  00041fb8  2**0  CONTENTS, READONLY, DEBUGGING
SYMBOL TABLE:
00000000 l    d  .init	00000000 .init
00000038 l    d  .vector	00000000 .vector
00000200 l    d  .text	00000000 .text
0000a6e4 l    d  .fini	00000000 .fini
20000000 l    d  .dalign	00000000 .dalign
0000a6e4 l    d  .dlalign	00000000 .dlalign
20000000 l    d  .data	00000000 .data
20000248 l    d  .bss	00000000 .bss
2000f800 l    d  .stack	00000000 .stack
00000000 l    d  .debug_info	00000000 .debug_info
00000000 l    d  .debug_abbrev	00000000 .debug_abbrev
00000000 l    d  .debug_aranges	00000000 .debug_aranges
00000000 l    d  .debug_ranges	00000000 .debug_ranges
00000000 l    d  .debug_line	00000000 .debug_line
00000000 l    d  .debug_str	00000000 .debug_str
00000000 l    d  .comment	00000000 .comment
00000000 l    d  .debug_frame	00000000 .debug_frame
00000000 l    d  .stab	00000000 .stab
00000000 l    d  .stabstr	00000000 .stabstr
00000000 l    df *ABS*	00000000 ./sdk/Startup/startup_ch32v30x.o
00000038 l       .vector	00000000 _vector_base
00000000 l    df *ABS*	00000000 zf_driver_delay.c
00000000 l    df *ABS*	00000000 zf_driver_gpio.c
00000000 l    df *ABS*	00000000 zf_driver_pwm.c
00000000 l    df *ABS*	00000000 zf_driver_timer.c
200002a4 l     O .bss	00000028 timer_function_state
00000000 l    df *ABS*	00000000 zf_driver_uart.c
00000000 l    df *ABS*	00000000 zf_device_bluetooth_ch9141.c
200002cc l     O .bss	00000014 bluetooth_ch9141_fifo
20000248 l     O .bss	00000001 bluetooth_ch9141_data
00000000 l    df *ABS*	00000000 zf_device_bluetooth_ch9141_ch2.c
200002e0 l     O .bss	00000014 bluetooth_ch9141_fifo_ch2
20000249 l     O .bss	00000001 bluetooth_ch9141_data_ch2
00000000 l    df *ABS*	00000000 zf_device_camera.c
00000000 l    df *ABS*	00000000 zf_device_mt9v03x_dvp.c
2000024c l     O .bss	00000003 receive_dvp
2000024f l     O .bss	00000001 receive_num_dvp
20000250 l     O .bss	00000001 uart_receive_flag_dvp
00000000 l    df *ABS*	00000000 zf_device_scc8660_dvp.c
00000000 l    df *ABS*	00000000 zf_device_wireless_ch573.c
200002f4 l     O .bss	00000014 wireless_ch573_fifo
20000264 l     O .bss	00000001 wireless_ch573_data
00000000 l    df *ABS*	00000000 zf_device_wireless_uart.c
20000308 l     O .bss	00000014 wireless_uart_fifo
20000265 l     O .bss	00000001 wireless_uart_data
00000000 l    df *ABS*	00000000 zf_common_clock.c
00001be4 l     F .text	00000076 clock_reset
00001c5a l     F .text	00000260 clock_set_freq
00000000 l    df *ABS*	00000000 zf_common_debug.c
00001eba l     F .text	00000010 __NOP
00000000 l    df *ABS*	00000000 zf_common_fifo.c
00000000 l    df *ABS*	00000000 zf_common_interrupt.c
0000210c l     F .text	00000032 NVIC_EnableIRQ
0000213e l     F .text	00000032 NVIC_DisableIRQ
20000270 l     O .bss	00000004 interrupt_nest_count
00000000 l    df *ABS*	00000000 isr.c
00000000 l    df *ABS*	00000000 main.c
20000274 l     O .bss	00000004 i.6878
00000000 l    df *ABS*	00000000 system_ch32v30x.c
00002b84 l     F .text	00000014 SetSysClock
00002b98 l     F .text	00000162 SetSysClockTo144
00000000 l    df *ABS*	00000000 ch32v30x_exti.c
00000000 l    df *ABS*	00000000 ch32v30x_gpio.c
00000000 l    df *ABS*	00000000 ch32v30x_rcc.c
20000000 l     O .data	00000010 APBAHBPrescTable
20000224 l     O .data	00000004 ADCPrescTable
00000000 l    df *ABS*	00000000 ch32v30x_tim.c
00000000 l    df *ABS*	00000000 ch32v30x_usart.c
00000000 l    df *ABS*	00000000 ch32v30x_usbotg_device.c
00000000 l    df *ABS*	00000000 adddf3.c
00000000 l    df *ABS*	00000000 divdf3.c
00000000 l    df *ABS*	00000000 eqdf2.c
00000000 l    df *ABS*	00000000 ledf2.c
00000000 l    df *ABS*	00000000 muldf3.c
00000000 l    df *ABS*	00000000 subdf3.c
00000000 l    df *ABS*	00000000 fixdfsi.c
00000000 l    df *ABS*	00000000 floatsidf.c
00000000 l    df *ABS*	00000000 libgcc2.c
00000000 l    df *ABS*	00000000 memcpy.c
00000000 l    df *ABS*	00000000 nano-vfprintf_float.c
00000000 l    df *ABS*	00000000 nano-vfprintf_i.c
00000000 l    df *ABS*	00000000 printf.c
00000000 l    df *ABS*	00000000 strlen.c
00000000 l    df *ABS*	00000000 wbuf.c
00000000 l    df *ABS*	00000000 wsetup.c
00000000 l    df *ABS*	00000000 dtoa.c
00007b88 l     F .text	0000013a quorem
00000000 l    df *ABS*	00000000 fflush.c
00000000 l    df *ABS*	00000000 findfp.c
00008a84 l     F .text	0000006a std
00000000 l    df *ABS*	00000000 fwalk.c
00000000 l    df *ABS*	00000000 localeconv.c
00000000 l    df *ABS*	00000000 makebuf.c
00000000 l    df *ABS*	00000000 malloc.c
00000000 l    df *ABS*	00000000 memchr.c
00000000 l    df *ABS*	00000000 mprec.c
0000a5b0 l     O .text	0000000c p05.3319
00000000 l    df *ABS*	00000000 nano-mallocr.c
00000000 l    df *ABS*	00000000 nano-mallocr.c
00000000 l    df *ABS*	00000000 nano-mallocr.c
00000000 l    df *ABS*	00000000 nano-vfprintf.c
00009682 l     F .text	0000002a __sfputc_r
00000000 l    df *ABS*	00000000 sbrkr.c
00000000 l    df *ABS*	00000000 stdio.c
00000000 l    df *ABS*	00000000 writer.c
00000000 l    df *ABS*	00000000 closer.c
00000000 l    df *ABS*	00000000 fstatr.c
00000000 l    df *ABS*	00000000 isattyr.c
00000000 l    df *ABS*	00000000 lseekr.c
00000000 l    df *ABS*	00000000 mbtowc_r.c
00000000 l    df *ABS*	00000000 mlock.c
00000000 l    df *ABS*	00000000 readr.c
00000000 l    df *ABS*	00000000 wctomb_r.c
00000000 l    df *ABS*	00000000 gedf2.c
00000000 l    df *ABS*	00000000 unorddf2.c
00000000 l    df *ABS*	00000000 floatunsidf.c
00000000 l    df *ABS*	00000000 trunctfdf2.c
00000000 l    df *ABS*	00000000 close.c
00000000 l    df *ABS*	00000000 fstat.c
00000000 l    df *ABS*	00000000 isatty.c
00000000 l    df *ABS*	00000000 lseek.c
00000000 l    df *ABS*	00000000 read.c
00000000 l    df *ABS*	00000000 sbrk.c
200002a0 l     O .bss	00000004 heap_end.1518
00000000 l    df *ABS*	00000000 libgcc2.c
00000000 l    df *ABS*	00000000 locale.c
00000000 l    df *ABS*	00000000 ctype_.c
00000000 l    df *ABS*	00000000 impure.c
20000054 l     O .data	00000060 impure_data
00000000 l    df *ABS*	00000000 zf_device_type.c
00000000 l    df *ABS*	00000000 reent.c
00006f66 g     F .text	000000ee __cvt
0000246c g     F .text	00000024 EXTI2_IRQHandler
20000260 g     O .bss	00000004 wireless_type
00002a24  w      .text	00000000 TIM8_TRG_COM_IRQHandler
00002a26  w      .text	00000000 TIM8_CC_IRQHandler
00001efe g     F .text	00000044 debug_assert_handler
000016bc g     F .text	0000005e uart_query_byte
20000292 g     O .bss	00000001 USBHD_Dev_SleepStatus
00009af2 g     F .text	00000028 _isatty_r
000045b4 g     F .text	0000003e DevEP1_IN_Deal
00009b1a g     F .text	0000002c _lseek_r
20000258 g     O .bss	00000001 scc8660_uart_receive_flag_dvp
000023ba g     F .text	0000002c UART8_IRQHandler
00006050 g     F .text	0000006a .hidden __eqdf2
0000795c g     F .text	00000042 printf
20000a20 g       .data	00000000 __global_pointer$
00002a00  w      .text	00000000 TIM1_CC_IRQHandler
0000038c g     F .text	00000066 gpio_toggle_level
00009a36 g     F .text	00000036 __sseek
00008b40 g     F .text	0000006c __sinit
000079b0 g     F .text	000000c6 __swbuf_r
0000200c g     F .text	00000100 fifo_write_buffer
000027d4 g     F .text	00000008 HardFault_Handler
00008af8 g     F .text	00000048 __sfmoreglue
00009b82 g     F .text	00000002 __malloc_unlock
00001a18 g     F .text	00000036 camera_uart_handler
00001b6c g     F .text	00000028 wireless_ch573_callback
000026e4 g     F .text	00000028 TIM6_IRQHandler
00003d6a g     F .text	0000004c TIM_OC1PreloadConfig
000029c6  w      .text	00000000 SysTick_Handler
000029cc  w      .text	00000000 PVD_IRQHandler
00002a2c  w      .text	00000000 SDIO_IRQHandler
00002a5e  w      .text	00000000 TIM9_BRK_IRQHandler
00001af2 g     F .text	00000066 scc8660_uart_callback_dvp
00002a72  w      .text	00000000 DMA2_Channel8_IRQHandler
000027c4 g     F .text	00000010 NMI_Handler
00008df2 g     F .text	00000088 _Balloc
00002a4c  w      .text	00000000 CAN2_RX1_IRQHandler
00002490 g     F .text	00000024 EXTI3_IRQHandler
2000025c g     O .bss	00000004 camera_type
00009bd0 g     F .text	000000ae .hidden __gtdf2
00002a54  w      .text	00000000 USBHS_IRQHandler
000029c8  w      .text	00000000 SW_handler
0000441e g     F .text	00000046 USART_GetFlagStatus
00002a74  w      .text	00000000 DMA2_Channel9_IRQHandler
00009ac8 g     F .text	0000002a _fstat_r
0000a130 g     O .text	00000014 MyReportDescHD
00002a6c  w      .text	00000000 TIM10_CC_IRQHandler
2000031c g     O .bss	00000004 errno
20000010 g     O .data	00000043 TAB_USB_FS_OSC_DESC
20000248 g       .bss	00000000 _sbss
00000800 g       *ABS*	00000000 __stack_size
00000206 g       .text	00000000 en_interrupt
20000293 g     O .bss	00000001 DevConfig
0000218c g     F .text	0000001c interrupt_disable
00003d0a g     F .text	00000060 TIM_CtrlPWMOutputs
000019cc g     F .text	00000026 bluetooth_ch9141_uart_callback_ch1
00006eb0 g     F .text	000000b6 memcpy
20000238 g     O .data	00000008 uart_irq
00008aee g     F .text	0000000a _cleanup_r
00002fd2 g     F .text	0000013c GPIO_PinRemapConfig
00006dca g     F .text	00000070 .hidden __floatsidf
20000259 g     O .bss	00000001 scc8660_finish_flag_dvp
000060ba g     F .text	000000b6 .hidden __ltdf2
00002424 g     F .text	00000024 EXTI0_IRQHandler
00002a0c  w      .text	00000000 I2C2_EV_IRQHandler
00002a6a  w      .text	00000000 TIM10_TRG_COM_IRQHandler
20000296 g     O .bss	00000002 SetupReqLen
00003cb2 g     F .text	00000058 TIM_Cmd
00003e5c g     F .text	0000005a TIM_OC4PreloadConfig
0000a160 g     O .text	00000016 MySerNumInfoHD
20000220 g     O .data	00000004 SystemCoreClock
0000a090 g     O .text	00000028 tim_index
00008dcc g     F .text	0000000c malloc
00009f4c g     F .text	0000000c _fstat
0000a4e8 g     O .text	000000c8 __mprec_tens
00000038 g       .init	00000000 _einit
0000406a g     F .text	0000002e TIM_ClearITPendingBit
0000a178 g     O .text	0000000a MyUSBQUADescHD
000021a8 g     F .text	0000000e interrupt_init
000033d8 g     F .text	00000046 RCC_APB2PeriphClockCmd
00002a4e  w      .text	00000000 CAN2_SCE_IRQHandler
000029ee  w      .text	00000000 ADC1_2_IRQHandler
00002d70 g     F .text	0000022a GPIO_Init
000029c4  w      .text	00000000 Break_Point_Handler
20000294 g     O .bss	00000001 SetupReqCode
00008cb8 g     F .text	00000018 _localeconv_r
00009006 g     F .text	0000001c __i2b
00001fbe g     F .text	0000004e fifo_head_offset
00002a10  w      .text	00000000 SPI1_IRQHandler
000042cc g     F .text	00000060 USART_Cmd
00009990 g     F .text	00000028 _sbrk_r
000029ce  w      .text	00000000 TAMPER_IRQHandler
00003960 g     F .text	000001dc TIM_OC3Init
00009b84 g     F .text	0000002c _read_r
00004566 g     F .text	0000004e USART_ClearITPendingBit
00002a4a  w      .text	00000000 CAN2_RX0_IRQHandler
0000273c g     F .text	00000030 TIM8_UP_IRQHandler
0000341e g     F .text	00000046 RCC_APB1PeriphClockCmd
0000536c g     F .text	00000730 .hidden __adddf3
000029c0  w      .text	00000000 Ecall_M_Mode_Handler
0000114a g     F .text	000000e2 timer_clock_enable
00001b58 g     F .text	00000014 scc8660_vsync_dvp
00009f58 g     F .text	0000000c _isatty
00000318 g     F .text	00000074 gpio_set_level
20000244 g     O .data	00000004 _global_impure_ptr
00002a3c  w      .text	00000000 DMA2_Channel2_IRQHandler
000029e6  w      .text	00000000 DMA1_Channel4_IRQHandler
00003f58 g     F .text	0000004c TIM_OC3FastConfig
0000a4c0 g     O .text	00000028 __mprec_bigtens
00009cba g     F .text	00000068 .hidden __floatunsidf
00009f7c g     F .text	00000020 _sbrk
000092f2 g     F .text	00000032 __mcmp
00001a7a g     F .text	00000064 mt9v03x_uart_callback_dvp
0000276c g     F .text	00000030 TIM9_UP_IRQHandler
000022a2 g     F .text	00000034 USART3_IRQHandler
00002d50 g     F .text	00000020 EXTI_ClearITPendingBit
000029d0  w      .text	00000000 RTC_IRQHandler
20000320 g       .bss	00000000 _ebss
00004464 g     F .text	00000102 USART_GetITStatus
000029ec  w      .text	00000000 DMA1_Channel7_IRQHandler
000035e2 g     F .text	0000019c TIM_OC1Init
00003e10 g     F .text	0000004c TIM_OC3PreloadConfig
0000a154 g     O .text	0000000c MyProdInfoHD
00008f56 g     F .text	00000046 __hi0bits
000029f4  w      .text	00000000 CAN1_RX1_IRQHandler
00006d62 g     F .text	00000068 .hidden __fixdfsi
000023e6 g     F .text	0000003e DVP_IRQHandler
0000230a g     F .text	00000030 UART5_IRQHandler
2000028c g     O .bss	00000004 pDescr
20000240 g     O .data	00000004 MyLangDescrHD
20000268 g     O .bss	00000004 system_clock
00000cdc g     F .text	00000416 pwm_init
00002684 g     F .text	00000030 TIM4_IRQHandler
000060ba g     F .text	000000b6 .hidden __ledf2
00002f9a g     F .text	00000038 GPIO_WriteBit
00001bbc g     F .text	00000028 clock_init
00002a3a  w      .text	00000000 DMA2_Channel1_IRQHandler
00009166 g     F .text	000000be __pow5mult
0000a460 g     O .text	00000020 __sf_fake_stderr
20000320 g       .bss	00000000 end
2000022c g     O .data	00000007 LineCoding
00002a08  w      .text	00000000 I2C1_EV_IRQHandler
00003ffa g     F .text	00000070 TIM_GetITStatus
0000310e g     F .text	000002ca RCC_GetClocksFreq
000029ea  w      .text	00000000 DMA1_Channel6_IRQHandler
00006e3a g     F .text	00000076 .hidden __clzsi2
000096ac g     F .text	00000044 __sfputs_r
0000171a g     F .text	000002b2 uart_init
000022d6 g     F .text	00000034 UART4_IRQHandler
00002a40  w      .text	00000000 DMA2_Channel4_IRQHandler
00008dd8 g     F .text	0000001a memchr
000070e0  w    F .text	000004c4 _printf_float
00004098 g     F .text	00000234 USART_Init
00009510 g     F .text	000000a4 _free_r
00002654 g     F .text	00000030 TIM3_IRQHandler
000029d4  w      .text	00000000 RCC_IRQHandler
0000122c g     F .text	0000040a uart_gpio_init
000029fe  w      .text	00000000 TIM1_TRG_COM_IRQHandler
000029e0  w      .text	00000000 DMA1_Channel1_IRQHandler
00003eb6 g     F .text	0000004c TIM_OC1FastConfig
00000000 g       .init	00000000 _start
00002a70  w      .text	00000000 DMA2_Channel7_IRQHandler
00009f64 g     F .text	0000000c _lseek
00009224 g     F .text	000000ce __lshift
00003db6 g     F .text	0000005a TIM_OC2PreloadConfig
00002560 g     F .text	00000094 EXTI15_10_IRQHandler
0000377e g     F .text	000001e2 TIM_OC2Init
00000200 g       .text	00000000 dis_interrupt
00001636 g     F .text	00000086 uart_rx_interrupt
0000432c g     F .text	000000c4 USART_ITConfig
20000288 g     O .bss	00000004 pEP2_RAM_Addr
00009022 g     F .text	00000144 __multiply
00009416 g     F .text	000000d4 __d2b
000019f2 g     F .text	00000026 bluetooth_ch9141_uart_callback_ch2
000002bc g     F .text	0000005c system_delay
0000270c g     F .text	00000030 TIM7_IRQHandler
00009aa0 g     F .text	00000028 _close_r
00002a48  w      .text	00000000 CAN2_TX_IRQHandler
20000000 g       .dalign	00000000 _data_vma
000026b4 g     F .text	00000030 TIM5_IRQHandler
00003b3c g     F .text	00000176 TIM_OC4Init
00004694 g     F .text	00000064 DevEP2_OUT_Deal
00007a76 g     F .text	00000112 __swsetup_r
000024d8 g     F .text	00000088 EXTI9_5_IRQHandler
00005a9c g     F .text	000005b4 .hidden __divdf3
00008bac g     F .text	000000a0 __sfp
000010f2 g     F .text	00000058 timer_funciton_check
00006170 g     F .text	000004b8 .hidden __muldf3
000099b8 g     F .text	00000030 __sread
00002a46  w      .text	00000000 ETH_WKUP_IRQHandler
00004630 g     F .text	00000064 DevEP1_OUT_Deal
00009b80 g     F .text	00000002 __malloc_lock
00008a1e g     F .text	00000066 _fflush_r
000094ea g     F .text	00000026 _calloc_r
00002cfa g     F .text	00000056 EXTI_GetITStatus
20000280 g     O .bss	00000004 pEP0_RAM_Addr
2000024a g     O .bss	00000001 mt9v03x_finish_flag_dvp
00002a12  w      .text	00000000 SPI2_IRQHandler
0000a480 g     O .text	00000020 __sf_fake_stdin
0000a0d8 g     O .text	00000012 MyDevDescrHD
00000214 g     F .text	000000a8 memset
00002812 g     F .text	000001aa main
00002a66  w      .text	00000000 TIM10_BRK_IRQHandler
00002a64  w      .text	00000000 TIM9_CC_IRQHandler
00009a6c g     F .text	00000006 __sclose
00002a42  w      .text	00000000 DMA2_Channel5_IRQHandler
20000228 g     O .data	00000001 USBHD_Dev_Speed
20000257 g     O .bss	00000001 scc8660_uart_receive_num_dvp
00007cc2 g     F .text	00000c1e _dtoa_r
000095b4 g     F .text	000000ce _malloc_r
00009bb0 g     F .text	00000020 __ascii_wctomb
00003f02 g     F .text	00000056 TIM_OC2FastConfig
0000a144 g     O .text	0000000e MyManuInfoHD
20000254 g     O .bss	00000003 scc8660_uart_receive_dvp
000029e8  w      .text	00000000 DMA1_Channel5_IRQHandler
2000026c g     O .bss	00000001 zf_debug_init_flag
0000a0b8 g     O .text	00000020 uart_index
000024b4 g     F .text	00000024 EXTI4_IRQHandler
000029f2  w      .text	00000000 USB_LP_CAN1_RX0_IRQHandler
00001ade g     F .text	00000014 mt9v03x_handler_dvp
00001eca g     F .text	00000034 debug_init
00002b08 g     F .text	0000007c SystemInit
00002a28  w      .text	00000000 RNG_IRQHandler
00006050 g     F .text	0000006a .hidden __nedf2
0000795c g     F .text	00000042 iprintf
20000278 g     O .bss	00000008 EP0_DatabufHD
000029f0  w      .text	00000000 USB_HP_CAN1_TX_IRQHandler
0000a2c0 g     O .text	00000100 .hidden __clz_tab
00007054 g     F .text	0000008c __exponent
00000000 g       .init	00000000 _sinit
000045f2 g     F .text	0000003e DevEP2_IN_Deal
00009a72 g     F .text	0000002e _write_r
000029e4  w      .text	00000000 DMA1_Channel3_IRQHandler
00002a2a  w      .text	00000000 FSMC_IRQHandler
00002a44  w      .text	00000000 ETH_IRQHandler
000075a4 g     F .text	0000010c _printf_common
20000234 g     O .data	00000004 _impure_ptr
000025f4 g     F .text	00000030 TIM1_UP_IRQHandler
000088e0 g     F .text	0000013e __sflush_r
000029ca  w      .text	00000000 WWDG_IRQHandler
000027dc g     F .text	00000036 Blink
00002a52  w      .text	00000000 USBHSWakeup_IRQHandler
00002a78  w      .text	00000000 DMA2_Channel11_IRQHandler
00009b46 g     F .text	0000003a __ascii_mbtowc
000029c2  w      .text	00000000 Ecall_U_Mode_Handler
00002a6e  w      .text	00000000 DMA2_Channel6_IRQHandler
00002624 g     F .text	00000030 TIM2_IRQHandler
20010000 g       .stack	00000000 _eusrstack
0000a0ec g     O .text	00000043 MyCfgDescrHD
000029fa  w      .text	00000000 TIM1_BRK_IRQHandler
00008cd0 g     F .text	0000005a __swhatbuf_r
000043f0 g     F .text	0000002e USART_SendData
00002a76  w      .text	00000000 DMA2_Channel10_IRQHandler
00002448 g     F .text	00000024 EXTI1_IRQHandler
00001f42 g     F .text	0000007c _write
20000248 g       .data	00000000 _edata
00001b94 g     F .text	00000028 wireless_uart_callback
20000290 g     O .bss	00000002 USBHD_Dev_SetupReqLen
00003464 g     F .text	0000017e TIM_TimeBaseInit
00002a1c  w      .text	00000000 RTCAlarm_IRQHandler
0000a6e4 g       .dlalign	00000000 _data_lma
0000279c g     F .text	00000028 TIM10_UP_IRQHandler
00002a62  w      .text	00000000 TIM9_TRG_COM_IRQHandler
0000236e g     F .text	0000004c UART7_IRQHandler
00002240 g     F .text	00000062 USART2_IRQHandler
0000233a g     F .text	00000034 UART6_IRQHandler
000099e8 g     F .text	0000004e __swrite
000096f0 g     F .text	000002a0 _vfiprintf_r
00008c4c g     F .text	0000006c _fwalk_reent
00009324 g     F .text	000000f2 __mdiff
000021b6 g     F .text	0000002e interrupt_global_enable
00002a0e  w      .text	00000000 I2C2_ER_IRQHandler
000029e2  w      .text	00000000 DMA1_Channel2_IRQHandler
0000a4a0 g     O .text	00000020 __sf_fake_stdout
00002a20  w      .text	00000000 TIM8_BRK_IRQHandler
0000a5e0 g     O .text	00000101 _ctype_
00009f70 g     F .text	0000000c _read
00009c7e g     F .text	0000003c .hidden __unorddf2
00002a7a  w      .text	00000000 handle_reset
000029f6  w      .text	00000000 CAN1_SCE_IRQHandler
0000a07c g     O .text	00000014 gpio_group
000029d2  w      .text	00000000 FLASH_IRQHandler
00000588 g     F .text	00000754 pwm_gpio_init
0000220c g     F .text	00000034 USART1_IRQHandler
00008d2a g     F .text	000000a2 __smakebuf_r
00002170 g     F .text	0000001c interrupt_enable
0000799e g     F .text	00000012 strlen
000046f8 g     F .text	00000c74 OTG_FS_IRQHandler
000076b0 g     F .text	000002ac _printf_i
00002a30  w      .text	00000000 SPI3_IRQHandler
00001a4e g     F .text	0000002c camera_dvp_handler
00009bd0 g     F .text	000000ae .hidden __gedf2
2000029c g     O .bss	00000004 __malloc_sbrk_start
00002a0a  w      .text	00000000 I2C1_ER_IRQHandler
000003f2 g     F .text	00000196 gpio_init
20000298 g     O .bss	00000004 __malloc_free_list
00006628 g     F .text	0000073a .hidden __subdf3
000096f0 g     F .text	000002a0 _vfprintf_r
00008f9c g     F .text	0000006a __lo0bits
20000284 g     O .bss	00000004 pEP1_RAM_Addr
00003fa4 g     F .text	00000056 TIM_OC4FastConfig
200000b4 g     O .data	0000016c __global_locale
00002a1e  w      .text	00000000 USBWakeUp_IRQHandler
00009d22 g     F .text	0000021e .hidden __trunctfdf2
00009f40 g     F .text	0000000c _close
00002a3e  w      .text	00000000 DMA2_Channel3_IRQHandler
00008ebe g     F .text	00000098 __multadd
000021e4 g     F .text	00000028 interrupt_global_disable
00008e7a g     F .text	00000044 _Bfree



Disassembly of section .init:

00000000 <_sinit>:
_start():
D:/projects/mechanical_arm/Ctrl_Stepper_Motor/libraries/sdk/Startup/startup_ch32v30x.S:13

	.section	.init,"ax",@progbits
	.global	_start
	.align	1
_start:
	j	handle_reset
   0:	27b0206f          	j	2a7a <handle_reset>
   4:	00000013          	nop
   8:	00000013          	nop
   c:	00000013          	nop
  10:	00000013          	nop
  14:	00000013          	nop
  18:	00000013          	nop
  1c:	00000013          	nop
  20:	00000013          	nop
  24:	00000013          	nop
  28:	00000013          	nop
  2c:	00000013          	nop
  30:	00000013          	nop
  34:	00100073          	ebreak

Disassembly of section .vector:

00000038 <_vector_base>:
	...
_vector_base():
  40:	27c4                	fld	fs1,136(a5)
  42:	0000                	unimp
  44:	27d4                	fld	fa3,136(a5)
  46:	0000                	unimp
  48:	0000                	unimp
  4a:	0000                	unimp
  4c:	29c0                	fld	fs0,144(a1)
	...
  56:	0000                	unimp
  58:	29c2                	fld	fs3,16(sp)
  5a:	0000                	unimp
  5c:	29c4                	fld	fs1,144(a1)
	...
  66:	0000                	unimp
  68:	29c6                	fld	fs3,80(sp)
  6a:	0000                	unimp
  6c:	0000                	unimp
  6e:	0000                	unimp
  70:	29c8                	fld	fa0,144(a1)
  72:	0000                	unimp
  74:	0000                	unimp
  76:	0000                	unimp
  78:	29ca                	fld	fs3,144(sp)
  7a:	0000                	unimp
  7c:	29cc                	fld	fa1,144(a1)
  7e:	0000                	unimp
  80:	29ce                	fld	fs3,208(sp)
  82:	0000                	unimp
  84:	29d0                	fld	fa2,144(a1)
  86:	0000                	unimp
  88:	29d2                	fld	fs3,272(sp)
  8a:	0000                	unimp
  8c:	29d4                	fld	fa3,144(a1)
  8e:	0000                	unimp
  90:	2424                	fld	fs1,72(s0)
  92:	0000                	unimp
  94:	2448                	fld	fa0,136(s0)
  96:	0000                	unimp
  98:	246c                	fld	fa1,200(s0)
  9a:	0000                	unimp
  9c:	2490                	fld	fa2,8(s1)
  9e:	0000                	unimp
  a0:	24b4                	fld	fa3,72(s1)
  a2:	0000                	unimp
  a4:	29e0                	fld	fs0,208(a1)
  a6:	0000                	unimp
  a8:	29e2                	fld	fs3,24(sp)
  aa:	0000                	unimp
  ac:	29e4                	fld	fs1,208(a1)
  ae:	0000                	unimp
  b0:	29e6                	fld	fs3,88(sp)
  b2:	0000                	unimp
  b4:	29e8                	fld	fa0,208(a1)
  b6:	0000                	unimp
  b8:	29ea                	fld	fs3,152(sp)
  ba:	0000                	unimp
  bc:	29ec                	fld	fa1,208(a1)
  be:	0000                	unimp
  c0:	29ee                	fld	fs3,216(sp)
  c2:	0000                	unimp
  c4:	29f0                	fld	fa2,208(a1)
  c6:	0000                	unimp
  c8:	29f2                	fld	fs3,280(sp)
  ca:	0000                	unimp
  cc:	29f4                	fld	fa3,208(a1)
  ce:	0000                	unimp
  d0:	29f6                	fld	fs3,344(sp)
  d2:	0000                	unimp
  d4:	24d8                	fld	fa4,136(s1)
  d6:	0000                	unimp
  d8:	29fa                	fld	fs3,408(sp)
  da:	0000                	unimp
  dc:	25f4                	fld	fa3,200(a1)
  de:	0000                	unimp
  e0:	29fe                	fld	fs3,472(sp)
  e2:	0000                	unimp
  e4:	2a00                	fld	fs0,16(a2)
  e6:	0000                	unimp
  e8:	2624                	fld	fs1,72(a2)
  ea:	0000                	unimp
  ec:	2654                	fld	fa3,136(a2)
  ee:	0000                	unimp
  f0:	2684                	fld	fs1,8(a3)
  f2:	0000                	unimp
  f4:	2a08                	fld	fa0,16(a2)
  f6:	0000                	unimp
  f8:	2a0a                	fld	fs4,128(sp)
  fa:	0000                	unimp
  fc:	2a0c                	fld	fa1,16(a2)
  fe:	0000                	unimp
 100:	2a0e                	fld	fs4,192(sp)
 102:	0000                	unimp
 104:	2a10                	fld	fa2,16(a2)
 106:	0000                	unimp
 108:	2a12                	fld	fs4,256(sp)
 10a:	0000                	unimp
 10c:	220c                	fld	fa1,0(a2)
 10e:	0000                	unimp
 110:	2240                	fld	fs0,128(a2)
 112:	0000                	unimp
 114:	22a2                	fld	ft5,8(sp)
 116:	0000                	unimp
 118:	2560                	fld	fs0,200(a0)
 11a:	0000                	unimp
 11c:	2a1c                	fld	fa5,16(a2)
 11e:	0000                	unimp
 120:	2a1e                	fld	fs4,448(sp)
 122:	0000                	unimp
 124:	2a20                	fld	fs0,80(a2)
 126:	0000                	unimp
 128:	273c                	fld	fa5,72(a4)
 12a:	0000                	unimp
 12c:	2a24                	fld	fs1,80(a2)
 12e:	0000                	unimp
 130:	2a26                	fld	fs4,72(sp)
 132:	0000                	unimp
 134:	2a28                	fld	fa0,80(a2)
 136:	0000                	unimp
 138:	2a2a                	fld	fs4,136(sp)
 13a:	0000                	unimp
 13c:	2a2c                	fld	fa1,80(a2)
 13e:	0000                	unimp
 140:	26b4                	fld	fa3,72(a3)
 142:	0000                	unimp
 144:	2a30                	fld	fa2,80(a2)
 146:	0000                	unimp
 148:	22d6                	fld	ft5,336(sp)
 14a:	0000                	unimp
 14c:	230a                	fld	ft6,128(sp)
 14e:	0000                	unimp
 150:	26e4                	fld	fs1,200(a3)
 152:	0000                	unimp
 154:	270c                	fld	fa1,8(a4)
 156:	0000                	unimp
 158:	2a3a                	fld	fs4,392(sp)
 15a:	0000                	unimp
 15c:	2a3c                	fld	fa5,80(a2)
 15e:	0000                	unimp
 160:	2a3e                	fld	fs4,456(sp)
 162:	0000                	unimp
 164:	2a40                	fld	fs0,144(a2)
 166:	0000                	unimp
 168:	2a42                	fld	fs4,16(sp)
 16a:	0000                	unimp
 16c:	2a44                	fld	fs1,144(a2)
 16e:	0000                	unimp
 170:	2a46                	fld	fs4,80(sp)
 172:	0000                	unimp
 174:	2a48                	fld	fa0,144(a2)
 176:	0000                	unimp
 178:	2a4a                	fld	fs4,144(sp)
 17a:	0000                	unimp
 17c:	2a4c                	fld	fa1,144(a2)
 17e:	0000                	unimp
 180:	2a4e                	fld	fs4,208(sp)
 182:	0000                	unimp
 184:	46f8                	lw	a4,76(a3)
 186:	0000                	unimp
 188:	2a52                	fld	fs4,272(sp)
 18a:	0000                	unimp
 18c:	2a54                	fld	fa3,144(a2)
 18e:	0000                	unimp
 190:	23e6                	fld	ft7,88(sp)
 192:	0000                	unimp
 194:	233a                	fld	ft6,392(sp)
 196:	0000                	unimp
 198:	236e                	fld	ft6,216(sp)
 19a:	0000                	unimp
 19c:	23ba                	fld	ft7,392(sp)
 19e:	0000                	unimp
 1a0:	2a5e                	fld	fs4,464(sp)
 1a2:	0000                	unimp
 1a4:	276c                	fld	fa1,200(a4)
 1a6:	0000                	unimp
 1a8:	2a62                	fld	fs4,24(sp)
 1aa:	0000                	unimp
 1ac:	2a64                	fld	fs1,208(a2)
 1ae:	0000                	unimp
 1b0:	2a66                	fld	fs4,88(sp)
 1b2:	0000                	unimp
 1b4:	279c                	fld	fa5,8(a5)
 1b6:	0000                	unimp
 1b8:	2a6a                	fld	fs4,152(sp)
 1ba:	0000                	unimp
 1bc:	2a6c                	fld	fa1,208(a2)
 1be:	0000                	unimp
 1c0:	2a6e                	fld	fs4,216(sp)
 1c2:	0000                	unimp
 1c4:	2a70                	fld	fa2,208(a2)
 1c6:	0000                	unimp
 1c8:	2a72                	fld	fs4,280(sp)
 1ca:	0000                	unimp
 1cc:	2a74                	fld	fa3,208(a2)
 1ce:	0000                	unimp
 1d0:	2a76                	fld	fs4,344(sp)
 1d2:	0000                	unimp
 1d4:	2a78                	fld	fa4,208(a2)
	...

Disassembly of section .text:

00000200 <dis_interrupt>:
dis_interrupt():
D:/projects/mechanical_arm/Ctrl_Stepper_Motor/libraries/zf_driver/zf_driver_irq.S:39
#a0 = 0x7888
#mstatus中的第11 12位MPP
#00 用户模式  (U)
#01 监管者模式(S)
#11 机器模式  (M) 只有该模式允许使用SCR指令
    csrrci a0, mstatus, 0x8
     200:	30047573          	csrrci	a0,mstatus,8
D:/projects/mechanical_arm/Ctrl_Stepper_Motor/libraries/zf_driver/zf_driver_irq.S:40
    ret
     204:	8082                	ret

00000206 <en_interrupt>:
en_interrupt():
D:/projects/mechanical_arm/Ctrl_Stepper_Motor/libraries/zf_driver/zf_driver_irq.S:57

#	li t0, 0x1f
#	csrw 0x804, t0

#mstatus寄存器中的MIE位置1，切换为用户模式
   	li t0, 0x6088
     206:	000062b7          	lui	t0,0x6
     20a:	08828293          	addi	t0,t0,136 # 6088 <__eqdf2+0x38>
D:/projects/mechanical_arm/Ctrl_Stepper_Motor/libraries/zf_driver/zf_driver_irq.S:58
   	csrs mstatus, t0
     20e:	3002a073          	csrs	mstatus,t0
D:/projects/mechanical_arm/Ctrl_Stepper_Motor/libraries/zf_driver/zf_driver_irq.S:59
    ret
     212:	8082                	ret

00000214 <memset>:
memset():
     214:	433d                	li	t1,15
     216:	872a                	mv	a4,a0
     218:	02c37363          	bgeu	t1,a2,23e <memset+0x2a>
     21c:	00f77793          	andi	a5,a4,15
     220:	efbd                	bnez	a5,29e <memset+0x8a>
     222:	e5ad                	bnez	a1,28c <memset+0x78>
     224:	ff067693          	andi	a3,a2,-16
     228:	8a3d                	andi	a2,a2,15
     22a:	96ba                	add	a3,a3,a4
     22c:	c30c                	sw	a1,0(a4)
     22e:	c34c                	sw	a1,4(a4)
     230:	c70c                	sw	a1,8(a4)
     232:	c74c                	sw	a1,12(a4)
     234:	0741                	addi	a4,a4,16
     236:	fed76be3          	bltu	a4,a3,22c <memset+0x18>
     23a:	e211                	bnez	a2,23e <memset+0x2a>
     23c:	8082                	ret
     23e:	40c306b3          	sub	a3,t1,a2
     242:	068a                	slli	a3,a3,0x2
     244:	00000297          	auipc	t0,0x0
     248:	9696                	add	a3,a3,t0
     24a:	00a68067          	jr	10(a3)
     24e:	00b70723          	sb	a1,14(a4)
     252:	00b706a3          	sb	a1,13(a4)
     256:	00b70623          	sb	a1,12(a4)
     25a:	00b705a3          	sb	a1,11(a4)
     25e:	00b70523          	sb	a1,10(a4)
     262:	00b704a3          	sb	a1,9(a4)
     266:	00b70423          	sb	a1,8(a4)
     26a:	00b703a3          	sb	a1,7(a4)
     26e:	00b70323          	sb	a1,6(a4)
     272:	00b702a3          	sb	a1,5(a4)
     276:	00b70223          	sb	a1,4(a4)
     27a:	00b701a3          	sb	a1,3(a4)
     27e:	00b70123          	sb	a1,2(a4)
     282:	00b700a3          	sb	a1,1(a4)
     286:	00b70023          	sb	a1,0(a4)
     28a:	8082                	ret
     28c:	0ff5f593          	andi	a1,a1,255
     290:	00859693          	slli	a3,a1,0x8
     294:	8dd5                	or	a1,a1,a3
     296:	01059693          	slli	a3,a1,0x10
     29a:	8dd5                	or	a1,a1,a3
     29c:	b761                	j	224 <memset+0x10>
     29e:	00279693          	slli	a3,a5,0x2
     2a2:	00000297          	auipc	t0,0x0
     2a6:	9696                	add	a3,a3,t0
     2a8:	8286                	mv	t0,ra
     2aa:	fa8680e7          	jalr	-88(a3)
     2ae:	8096                	mv	ra,t0
     2b0:	17c1                	addi	a5,a5,-16
     2b2:	8f1d                	sub	a4,a4,a5
     2b4:	963e                	add	a2,a2,a5
     2b6:	f8c374e3          	bgeu	t1,a2,23e <memset+0x2a>
     2ba:	b7a5                	j	222 <memset+0xe>

000002bc <system_delay>:
system_delay():
D:/projects/mechanical_arm/Ctrl_Stepper_Motor/libraries/zf_driver/zf_driver_delay.c:28
//  @param      time                us
//  @return     void
//  Sample usage:                   内部使用，用户无需关心
//-------------------------------------------------------------------------------------------------------------------
void system_delay(uint64_t time)
{
     2bc:	1101                	addi	sp,sp,-32
     2be:	ce22                	sw	s0,28(sp)
     2c0:	1000                	addi	s0,sp,32
     2c2:	fea42423          	sw	a0,-24(s0)
     2c6:	feb42623          	sw	a1,-20(s0)
D:/projects/mechanical_arm/Ctrl_Stepper_Motor/libraries/zf_driver/zf_driver_delay.c:29
    SysTick->CTLR = 0;
     2ca:	e000f7b7          	lui	a5,0xe000f
     2ce:	0007a023          	sw	zero,0(a5) # e000f000 <_eusrstack+0xbffff000>
D:/projects/mechanical_arm/Ctrl_Stepper_Motor/libraries/zf_driver/zf_driver_delay.c:30
    SysTick->CNT  = 0;
     2d2:	e000f7b7          	lui	a5,0xe000f
     2d6:	4681                	li	a3,0
     2d8:	4701                	li	a4,0
     2da:	c794                	sw	a3,8(a5)
     2dc:	c7d8                	sw	a4,12(a5)
D:/projects/mechanical_arm/Ctrl_Stepper_Motor/libraries/zf_driver/zf_driver_delay.c:31
    SysTick->CTLR = 1;          //启动系统计数器 systick（HCLK/8 时基） us
     2de:	e000f7b7          	lui	a5,0xe000f
     2e2:	4705                	li	a4,1
     2e4:	c398                	sw	a4,0(a5)
D:/projects/mechanical_arm/Ctrl_Stepper_Motor/libraries/zf_driver/zf_driver_delay.c:34

    //while((*(volatile uint32*)0xE000F004) <= time);
    while(SysTick->CNT <= time);
     2e6:	0001                	nop
D:/projects/mechanical_arm/Ctrl_Stepper_Motor/libraries/zf_driver/zf_driver_delay.c:34 (discriminator 1)
     2e8:	e000f7b7          	lui	a5,0xe000f
     2ec:	00c7a803          	lw	a6,12(a5) # e000f00c <_eusrstack+0xbffff00c>
     2f0:	479c                	lw	a5,8(a5)
     2f2:	fec42703          	lw	a4,-20(s0)
     2f6:	86c2                	mv	a3,a6
     2f8:	00d76c63          	bltu	a4,a3,310 <system_delay+0x54>
     2fc:	fec42703          	lw	a4,-20(s0)
     300:	86c2                	mv	a3,a6
     302:	fed713e3          	bne	a4,a3,2e8 <system_delay+0x2c>
     306:	fe842703          	lw	a4,-24(s0)
     30a:	00f76363          	bltu	a4,a5,310 <system_delay+0x54>
     30e:	bfe9                	j	2e8 <system_delay+0x2c>
D:/projects/mechanical_arm/Ctrl_Stepper_Motor/libraries/zf_driver/zf_driver_delay.c:36

}
     310:	0001                	nop
     312:	4472                	lw	s0,28(sp)
     314:	6105                	addi	sp,sp,32
     316:	8082                	ret

00000318 <gpio_set_level>:
gpio_set_level():
D:/projects/mechanical_arm/Ctrl_Stepper_Motor/libraries/zf_driver/zf_driver_gpio.c:35
//  @param      dat         引脚的电平状态，输出时有效 0：低电平 1：高电平
//  @return     void
//  Sample usage:           gpio_set_level(D0, 0);//D0输出低电平
//-------------------------------------------------------------------------------------------------------------------
void gpio_set_level(gpio_pin_enum pin, uint8 dat)
{
     318:	1101                	addi	sp,sp,-32
     31a:	ce22                	sw	s0,28(sp)
     31c:	1000                	addi	s0,sp,32
     31e:	fea42623          	sw	a0,-20(s0)
     322:	87ae                	mv	a5,a1
     324:	fef405a3          	sb	a5,-21(s0)
D:/projects/mechanical_arm/Ctrl_Stepper_Motor/libraries/zf_driver/zf_driver_gpio.c:36
    if(dat)
     328:	feb44783          	lbu	a5,-21(s0)
     32c:	c79d                	beqz	a5,35a <gpio_set_level+0x42>
D:/projects/mechanical_arm/Ctrl_Stepper_Motor/libraries/zf_driver/zf_driver_gpio.c:37
        gpio_high(pin);                                                         // 输出高电平
     32e:	fec42783          	lw	a5,-20(s0)
     332:	8bbd                	andi	a5,a5,15
     334:	4705                	li	a4,1
     336:	00f717b3          	sll	a5,a4,a5
     33a:	01079693          	slli	a3,a5,0x10
     33e:	82c1                	srli	a3,a3,0x10
     340:	fec42783          	lw	a5,-20(s0)
     344:	0057d713          	srli	a4,a5,0x5
     348:	67a9                	lui	a5,0xa
     34a:	070a                	slli	a4,a4,0x2
     34c:	07c78793          	addi	a5,a5,124 # a07c <gpio_group>
     350:	97ba                	add	a5,a5,a4
     352:	439c                	lw	a5,0(a5)
     354:	8736                	mv	a4,a3
     356:	cb98                	sw	a4,16(a5)
D:/projects/mechanical_arm/Ctrl_Stepper_Motor/libraries/zf_driver/zf_driver_gpio.c:40
    else
        gpio_low(pin);                                                          // 输出低电平
}
     358:	a035                	j	384 <gpio_set_level+0x6c>
D:/projects/mechanical_arm/Ctrl_Stepper_Motor/libraries/zf_driver/zf_driver_gpio.c:39
        gpio_low(pin);                                                          // 输出低电平
     35a:	fec42783          	lw	a5,-20(s0)
     35e:	8bbd                	andi	a5,a5,15
     360:	4705                	li	a4,1
     362:	00f717b3          	sll	a5,a4,a5
     366:	01079693          	slli	a3,a5,0x10
     36a:	82c1                	srli	a3,a3,0x10
     36c:	fec42783          	lw	a5,-20(s0)
     370:	0057d713          	srli	a4,a5,0x5
     374:	67a9                	lui	a5,0xa
     376:	070a                	slli	a4,a4,0x2
     378:	07c78793          	addi	a5,a5,124 # a07c <gpio_group>
     37c:	97ba                	add	a5,a5,a4
     37e:	439c                	lw	a5,0(a5)
     380:	8736                	mv	a4,a3
     382:	cbd8                	sw	a4,20(a5)
D:/projects/mechanical_arm/Ctrl_Stepper_Motor/libraries/zf_driver/zf_driver_gpio.c:40
}
     384:	0001                	nop
     386:	4472                	lw	s0,28(sp)
     388:	6105                	addi	sp,sp,32
     38a:	8082                	ret

0000038c <gpio_toggle_level>:
gpio_toggle_level():
D:/projects/mechanical_arm/Ctrl_Stepper_Motor/libraries/zf_driver/zf_driver_gpio.c:63
//  @param      pin         选择的引脚 (可选择范围由 common.h 内GPIO_PIN_enum枚举值确定)
//  @return     void        
//  Sample usage:           gpio_toggle_level(D5);//D5引脚电平翻转
//-------------------------------------------------------------------------------------------------------------------
void gpio_toggle_level(gpio_pin_enum pin)
{
     38c:	7179                	addi	sp,sp,-48
     38e:	d622                	sw	s0,44(sp)
     390:	1800                	addi	s0,sp,48
     392:	fca42e23          	sw	a0,-36(s0)
D:/projects/mechanical_arm/Ctrl_Stepper_Motor/libraries/zf_driver/zf_driver_gpio.c:64
    uint8 io_group = (pin & 0xF0) >> 5;
     396:	fdc42783          	lw	a5,-36(s0)
     39a:	8395                	srli	a5,a5,0x5
     39c:	0ff7f793          	andi	a5,a5,255
     3a0:	8b9d                	andi	a5,a5,7
     3a2:	fef407a3          	sb	a5,-17(s0)
D:/projects/mechanical_arm/Ctrl_Stepper_Motor/libraries/zf_driver/zf_driver_gpio.c:65
    uint8 io_pin = pin & 0x0F;
     3a6:	fdc42783          	lw	a5,-36(s0)
     3aa:	0ff7f793          	andi	a5,a5,255
     3ae:	8bbd                	andi	a5,a5,15
     3b0:	fef40723          	sb	a5,-18(s0)
D:/projects/mechanical_arm/Ctrl_Stepper_Motor/libraries/zf_driver/zf_driver_gpio.c:67

    ((GPIO_TypeDef*)(gpio_group[io_group]))->OUTDR ^= (uint16)(1 << io_pin);
     3b4:	fef44703          	lbu	a4,-17(s0)
     3b8:	67a9                	lui	a5,0xa
     3ba:	070a                	slli	a4,a4,0x2
     3bc:	07c78793          	addi	a5,a5,124 # a07c <gpio_group>
     3c0:	97ba                	add	a5,a5,a4
     3c2:	439c                	lw	a5,0(a5)
     3c4:	47dc                	lw	a5,12(a5)
     3c6:	fee44703          	lbu	a4,-18(s0)
     3ca:	4685                	li	a3,1
     3cc:	00e69733          	sll	a4,a3,a4
     3d0:	0742                	slli	a4,a4,0x10
     3d2:	8341                	srli	a4,a4,0x10
     3d4:	863a                	mv	a2,a4
     3d6:	fef44683          	lbu	a3,-17(s0)
     3da:	6729                	lui	a4,0xa
     3dc:	068a                	slli	a3,a3,0x2
     3de:	07c70713          	addi	a4,a4,124 # a07c <gpio_group>
     3e2:	9736                	add	a4,a4,a3
     3e4:	4318                	lw	a4,0(a4)
     3e6:	8fb1                	xor	a5,a5,a2
     3e8:	c75c                	sw	a5,12(a4)
D:/projects/mechanical_arm/Ctrl_Stepper_Motor/libraries/zf_driver/zf_driver_gpio.c:68
}
     3ea:	0001                	nop
     3ec:	5432                	lw	s0,44(sp)
     3ee:	6145                	addi	sp,sp,48
     3f0:	8082                	ret

000003f2 <gpio_init>:
gpio_init():
D:/projects/mechanical_arm/Ctrl_Stepper_Motor/libraries/zf_driver/zf_driver_gpio.c:80
//  @param      pinconf     引脚配置（可设置参数由zf_gpio.h文件内GPIOSPEED_enum与GPIOMODE_enum枚举值确定，多个条件使用 | 相或）
//  @return     void
//  Sample usage:           gpio_init(D0, GPO, 1, GPIO_PIN_CONFIG);//D0初始化为GPIO功能、输出模式、输出高电平、速度100MHZ 推挽输出
//-------------------------------------------------------------------------------------------------------------------
void gpio_init(gpio_pin_enum gpio_pin, gpio_dir_enum gpio_dir, gpio_level_enum dat, uint32 pinconf)
{
     3f2:	7179                	addi	sp,sp,-48
     3f4:	d606                	sw	ra,44(sp)
     3f6:	d422                	sw	s0,40(sp)
     3f8:	1800                	addi	s0,sp,48
     3fa:	fca42e23          	sw	a0,-36(s0)
     3fe:	fcb42c23          	sw	a1,-40(s0)
     402:	fcc42a23          	sw	a2,-44(s0)
     406:	fcd42823          	sw	a3,-48(s0)
D:/projects/mechanical_arm/Ctrl_Stepper_Motor/libraries/zf_driver/zf_driver_gpio.c:82
    GPIO_InitTypeDef GPIO_InitStructure;
    uint8 io_group = (gpio_pin & 0xF0) >> 5;
     40a:	fdc42783          	lw	a5,-36(s0)
     40e:	8395                	srli	a5,a5,0x5
     410:	0ff7f793          	andi	a5,a5,255
     414:	8b9d                	andi	a5,a5,7
     416:	fef407a3          	sb	a5,-17(s0)
D:/projects/mechanical_arm/Ctrl_Stepper_Motor/libraries/zf_driver/zf_driver_gpio.c:83
    uint8 io_pin = gpio_pin & 0x0F;
     41a:	fdc42783          	lw	a5,-36(s0)
     41e:	0ff7f793          	andi	a5,a5,255
     422:	8bbd                	andi	a5,a5,15
     424:	fef40723          	sb	a5,-18(s0)
D:/projects/mechanical_arm/Ctrl_Stepper_Motor/libraries/zf_driver/zf_driver_gpio.c:87

    //GPIO_DeInit((GPIO_TypeDef *)(GPION[io_group]));
    //  空引脚则返回
    if(PIN_NULL == gpio_pin) return;
     428:	fdc42703          	lw	a4,-36(s0)
     42c:	0ff00793          	li	a5,255
     430:	14f70563          	beq	a4,a5,57a <gpio_init+0x188>
D:/projects/mechanical_arm/Ctrl_Stepper_Motor/libraries/zf_driver/zf_driver_gpio.c:88
    if(SPI_CS_NULL == gpio_pin) return;
     434:	fdc42703          	lw	a4,-36(s0)
     438:	0ff00793          	li	a5,255
     43c:	14f70163          	beq	a4,a5,57e <gpio_init+0x18c>
D:/projects/mechanical_arm/Ctrl_Stepper_Motor/libraries/zf_driver/zf_driver_gpio.c:91

    //  GPIO总线使能
    if(0 == io_group)      RCC_APB2PeriphClockCmd(RCC_APB2Periph_GPIOA, ENABLE);
     440:	fef44783          	lbu	a5,-17(s0)
     444:	e791                	bnez	a5,450 <gpio_init+0x5e>
D:/projects/mechanical_arm/Ctrl_Stepper_Motor/libraries/zf_driver/zf_driver_gpio.c:91 (discriminator 1)
     446:	4585                	li	a1,1
     448:	4511                	li	a0,4
     44a:	78f020ef          	jal	ra,33d8 <RCC_APB2PeriphClockCmd>
     44e:	a041                	j	4ce <gpio_init+0xdc>
D:/projects/mechanical_arm/Ctrl_Stepper_Motor/libraries/zf_driver/zf_driver_gpio.c:92
    else if(1 == io_group) RCC_APB2PeriphClockCmd(RCC_APB2Periph_GPIOB, ENABLE);
     450:	fef44703          	lbu	a4,-17(s0)
     454:	4785                	li	a5,1
     456:	00f71763          	bne	a4,a5,464 <gpio_init+0x72>
D:/projects/mechanical_arm/Ctrl_Stepper_Motor/libraries/zf_driver/zf_driver_gpio.c:92 (discriminator 1)
     45a:	4585                	li	a1,1
     45c:	4521                	li	a0,8
     45e:	77b020ef          	jal	ra,33d8 <RCC_APB2PeriphClockCmd>
     462:	a0b5                	j	4ce <gpio_init+0xdc>
D:/projects/mechanical_arm/Ctrl_Stepper_Motor/libraries/zf_driver/zf_driver_gpio.c:93
    else if(2 == io_group) RCC_APB2PeriphClockCmd(RCC_APB2Periph_GPIOC, ENABLE);
     464:	fef44703          	lbu	a4,-17(s0)
     468:	4789                	li	a5,2
     46a:	00f71763          	bne	a4,a5,478 <gpio_init+0x86>
D:/projects/mechanical_arm/Ctrl_Stepper_Motor/libraries/zf_driver/zf_driver_gpio.c:93 (discriminator 1)
     46e:	4585                	li	a1,1
     470:	4541                	li	a0,16
     472:	767020ef          	jal	ra,33d8 <RCC_APB2PeriphClockCmd>
     476:	a8a1                	j	4ce <gpio_init+0xdc>
D:/projects/mechanical_arm/Ctrl_Stepper_Motor/libraries/zf_driver/zf_driver_gpio.c:94
    else if(3 == io_group) RCC_APB2PeriphClockCmd(RCC_APB2Periph_GPIOD, ENABLE);
     478:	fef44703          	lbu	a4,-17(s0)
     47c:	478d                	li	a5,3
     47e:	00f71863          	bne	a4,a5,48e <gpio_init+0x9c>
D:/projects/mechanical_arm/Ctrl_Stepper_Motor/libraries/zf_driver/zf_driver_gpio.c:94 (discriminator 1)
     482:	4585                	li	a1,1
     484:	02000513          	li	a0,32
     488:	751020ef          	jal	ra,33d8 <RCC_APB2PeriphClockCmd>
     48c:	a089                	j	4ce <gpio_init+0xdc>
D:/projects/mechanical_arm/Ctrl_Stepper_Motor/libraries/zf_driver/zf_driver_gpio.c:95
    else if(4 == io_group) RCC_APB2PeriphClockCmd(RCC_APB2Periph_GPIOE, ENABLE);
     48e:	fef44703          	lbu	a4,-17(s0)
     492:	4791                	li	a5,4
     494:	00f71863          	bne	a4,a5,4a4 <gpio_init+0xb2>
D:/projects/mechanical_arm/Ctrl_Stepper_Motor/libraries/zf_driver/zf_driver_gpio.c:95 (discriminator 1)
     498:	4585                	li	a1,1
     49a:	04000513          	li	a0,64
     49e:	73b020ef          	jal	ra,33d8 <RCC_APB2PeriphClockCmd>
     4a2:	a035                	j	4ce <gpio_init+0xdc>
D:/projects/mechanical_arm/Ctrl_Stepper_Motor/libraries/zf_driver/zf_driver_gpio.c:96
    else if(5 == io_group) RCC_APB2PeriphClockCmd(RCC_APB2Periph_GPIOF, ENABLE);
     4a4:	fef44703          	lbu	a4,-17(s0)
     4a8:	4795                	li	a5,5
     4aa:	00f71863          	bne	a4,a5,4ba <gpio_init+0xc8>
D:/projects/mechanical_arm/Ctrl_Stepper_Motor/libraries/zf_driver/zf_driver_gpio.c:96 (discriminator 1)
     4ae:	4585                	li	a1,1
     4b0:	08000513          	li	a0,128
     4b4:	725020ef          	jal	ra,33d8 <RCC_APB2PeriphClockCmd>
     4b8:	a819                	j	4ce <gpio_init+0xdc>
D:/projects/mechanical_arm/Ctrl_Stepper_Motor/libraries/zf_driver/zf_driver_gpio.c:97
    else if(6 == io_group) RCC_APB2PeriphClockCmd(RCC_APB2Periph_GPIOG, ENABLE);
     4ba:	fef44703          	lbu	a4,-17(s0)
     4be:	4799                	li	a5,6
     4c0:	00f71763          	bne	a4,a5,4ce <gpio_init+0xdc>
D:/projects/mechanical_arm/Ctrl_Stepper_Motor/libraries/zf_driver/zf_driver_gpio.c:97 (discriminator 1)
     4c4:	4585                	li	a1,1
     4c6:	10000513          	li	a0,256
     4ca:	70f020ef          	jal	ra,33d8 <RCC_APB2PeriphClockCmd>
D:/projects/mechanical_arm/Ctrl_Stepper_Motor/libraries/zf_driver/zf_driver_gpio.c:100

    //  设置引脚号
    GPIO_InitStructure.GPIO_Pin = (uint16)(1 << io_pin);
     4ce:	fee44783          	lbu	a5,-18(s0)
     4d2:	4705                	li	a4,1
     4d4:	00f717b3          	sll	a5,a4,a5
     4d8:	07c2                	slli	a5,a5,0x10
     4da:	83c1                	srli	a5,a5,0x10
     4dc:	fef41023          	sh	a5,-32(s0)
D:/projects/mechanical_arm/Ctrl_Stepper_Motor/libraries/zf_driver/zf_driver_gpio.c:103

    //  只有输出需要设置速度
    if(GPO == gpio_dir)
     4e0:	fd842703          	lw	a4,-40(s0)
     4e4:	4785                	li	a5,1
     4e6:	02f71763          	bne	a4,a5,514 <gpio_init+0x122>
D:/projects/mechanical_arm/Ctrl_Stepper_Motor/libraries/zf_driver/zf_driver_gpio.c:105
    {
        if((uint16)pinconf >> 8 == 0) GPIO_InitStructure.GPIO_Speed = (GPIOSpeed_TypeDef)(GPIO_Speed_50MHz);            //防止没有填写这个参数,默认设置50Mhz
     4ea:	fd042783          	lw	a5,-48(s0)
     4ee:	07c2                	slli	a5,a5,0x10
     4f0:	83c1                	srli	a5,a5,0x10
     4f2:	83a1                	srli	a5,a5,0x8
     4f4:	07c2                	slli	a5,a5,0x10
     4f6:	83c1                	srli	a5,a5,0x10
     4f8:	e789                	bnez	a5,502 <gpio_init+0x110>
D:/projects/mechanical_arm/Ctrl_Stepper_Motor/libraries/zf_driver/zf_driver_gpio.c:105 (discriminator 1)
     4fa:	478d                	li	a5,3
     4fc:	fef42223          	sw	a5,-28(s0)
     500:	a811                	j	514 <gpio_init+0x122>
D:/projects/mechanical_arm/Ctrl_Stepper_Motor/libraries/zf_driver/zf_driver_gpio.c:106
        else GPIO_InitStructure.GPIO_Speed = (gpio_speed_enum)((uint16)pinconf >> 8);         //已经填写了该参数。根据值来设置
     502:	fd042783          	lw	a5,-48(s0)
     506:	07c2                	slli	a5,a5,0x10
     508:	83c1                	srli	a5,a5,0x10
     50a:	83a1                	srli	a5,a5,0x8
     50c:	07c2                	slli	a5,a5,0x10
     50e:	83c1                	srli	a5,a5,0x10
     510:	fef42223          	sw	a5,-28(s0)
D:/projects/mechanical_arm/Ctrl_Stepper_Motor/libraries/zf_driver/zf_driver_gpio.c:110
    }

    //  设置模式
    GPIO_InitStructure.GPIO_Mode = (GPIOMode_TypeDef)((uint16)pinconf & 0xFF);
     514:	fd042783          	lw	a5,-48(s0)
     518:	07c2                	slli	a5,a5,0x10
     51a:	83c1                	srli	a5,a5,0x10
     51c:	0ff7f793          	andi	a5,a5,255
     520:	fef42423          	sw	a5,-24(s0)
D:/projects/mechanical_arm/Ctrl_Stepper_Motor/libraries/zf_driver/zf_driver_gpio.c:111
    GPIO_Init((GPIO_TypeDef*)gpio_group[io_group], &GPIO_InitStructure);
     524:	fef44703          	lbu	a4,-17(s0)
     528:	67a9                	lui	a5,0xa
     52a:	070a                	slli	a4,a4,0x2
     52c:	07c78793          	addi	a5,a5,124 # a07c <gpio_group>
     530:	97ba                	add	a5,a5,a4
     532:	439c                	lw	a5,0(a5)
     534:	873e                	mv	a4,a5
     536:	fe040793          	addi	a5,s0,-32
     53a:	85be                	mv	a1,a5
     53c:	853a                	mv	a0,a4
     53e:	033020ef          	jal	ra,2d70 <GPIO_Init>
D:/projects/mechanical_arm/Ctrl_Stepper_Motor/libraries/zf_driver/zf_driver_gpio.c:114

    //  只有输出需要设置引脚状态
    if(GPO == gpio_dir)
     542:	fd842703          	lw	a4,-40(s0)
     546:	4785                	li	a5,1
     548:	02f71c63          	bne	a4,a5,580 <gpio_init+0x18e>
D:/projects/mechanical_arm/Ctrl_Stepper_Motor/libraries/zf_driver/zf_driver_gpio.c:116
    {
        GPIO_WriteBit((GPIO_TypeDef*)gpio_group[io_group], (uint16)(1 << io_pin), dat);
     54c:	fef44703          	lbu	a4,-17(s0)
     550:	67a9                	lui	a5,0xa
     552:	070a                	slli	a4,a4,0x2
     554:	07c78793          	addi	a5,a5,124 # a07c <gpio_group>
     558:	97ba                	add	a5,a5,a4
     55a:	439c                	lw	a5,0(a5)
     55c:	86be                	mv	a3,a5
     55e:	fee44783          	lbu	a5,-18(s0)
     562:	4705                	li	a4,1
     564:	00f717b3          	sll	a5,a4,a5
     568:	07c2                	slli	a5,a5,0x10
     56a:	83c1                	srli	a5,a5,0x10
     56c:	fd442603          	lw	a2,-44(s0)
     570:	85be                	mv	a1,a5
     572:	8536                	mv	a0,a3
     574:	227020ef          	jal	ra,2f9a <GPIO_WriteBit>
     578:	a021                	j	580 <gpio_init+0x18e>
D:/projects/mechanical_arm/Ctrl_Stepper_Motor/libraries/zf_driver/zf_driver_gpio.c:87
    if(PIN_NULL == gpio_pin) return;
     57a:	0001                	nop
     57c:	a011                	j	580 <gpio_init+0x18e>
D:/projects/mechanical_arm/Ctrl_Stepper_Motor/libraries/zf_driver/zf_driver_gpio.c:88
    if(SPI_CS_NULL == gpio_pin) return;
     57e:	0001                	nop
D:/projects/mechanical_arm/Ctrl_Stepper_Motor/libraries/zf_driver/zf_driver_gpio.c:118
    }
}
     580:	50b2                	lw	ra,44(sp)
     582:	5422                	lw	s0,40(sp)
     584:	6145                	addi	sp,sp,48
     586:	8082                	ret

00000588 <pwm_gpio_init>:
pwm_gpio_init():
D:/projects/mechanical_arm/Ctrl_Stepper_Motor/libraries/zf_driver/zf_driver_pwm.c:32
//  @param      pwmch       PWM通道(可选择范围由zf_pwm.h内PWMCH_enum枚举值确定)
//  @return     void
//  Sample usage:           内部使用  用户无需关心
//-------------------------------------------------------------------------------------------------------------------
void pwm_gpio_init(pwm_channel_enum pin)
{
     588:	1101                	addi	sp,sp,-32
     58a:	ce06                	sw	ra,28(sp)
     58c:	cc22                	sw	s0,24(sp)
     58e:	1000                	addi	s0,sp,32
     590:	fea42623          	sw	a0,-20(s0)
D:/projects/mechanical_arm/Ctrl_Stepper_Motor/libraries/zf_driver/zf_driver_pwm.c:34
    //-------------------------------PWM1-------------------------------//
         if(pin == TIM1_PWM_CH1_A8 )   gpio_init(A8 , GPO, 0, SPEED_50MHZ|GPO_AF_PUSH_PULL);
     594:	fec42783          	lw	a5,-20(s0)
     598:	eb89                	bnez	a5,5aa <pwm_gpio_init+0x22>
D:/projects/mechanical_arm/Ctrl_Stepper_Motor/libraries/zf_driver/zf_driver_pwm.c:34 (discriminator 1)
     59a:	31800693          	li	a3,792
     59e:	4601                	li	a2,0
     5a0:	4585                	li	a1,1
     5a2:	4521                	li	a0,8
     5a4:	35b9                	jal	3f2 <gpio_init>
D:/projects/mechanical_arm/Ctrl_Stepper_Motor/libraries/zf_driver/zf_driver_pwm.c:117 (discriminator 1)
    else if(pin == TIM10_PWM_CH1_B3 ) 	gpio_init(B3 , GPO, 0, SPEED_50MHZ|GPO_AF_PUSH_PULL);
    else if(pin == TIM10_PWM_CH2_B4 ) 	gpio_init(B4 , GPO, 0, SPEED_50MHZ|GPO_AF_PUSH_PULL);
    else if(pin == TIM10_PWM_CH3_B5 ) 	gpio_init(B5 , GPO, 0, SPEED_50MHZ|GPO_AF_PUSH_PULL);
    else if(pin == TIM10_PWM_CH4_C15) 	gpio_init(C15, GPO, 0, SPEED_50MHZ|GPO_AF_PUSH_PULL);

}
     5a6:	72c0006f          	j	cd2 <__stack_size+0x4d2>
D:/projects/mechanical_arm/Ctrl_Stepper_Motor/libraries/zf_driver/zf_driver_pwm.c:35
    else if(pin == TIM1_PWM_CH2_A9 )   gpio_init(A9 , GPO, 0, SPEED_50MHZ|GPO_AF_PUSH_PULL);
     5aa:	fec42703          	lw	a4,-20(s0)
     5ae:	4785                	li	a5,1
     5b0:	00f71a63          	bne	a4,a5,5c4 <pwm_gpio_init+0x3c>
D:/projects/mechanical_arm/Ctrl_Stepper_Motor/libraries/zf_driver/zf_driver_pwm.c:35 (discriminator 1)
     5b4:	31800693          	li	a3,792
     5b8:	4601                	li	a2,0
     5ba:	4585                	li	a1,1
     5bc:	4525                	li	a0,9
     5be:	3d15                	jal	3f2 <gpio_init>
D:/projects/mechanical_arm/Ctrl_Stepper_Motor/libraries/zf_driver/zf_driver_pwm.c:117 (discriminator 1)
}
     5c0:	7120006f          	j	cd2 <__stack_size+0x4d2>
D:/projects/mechanical_arm/Ctrl_Stepper_Motor/libraries/zf_driver/zf_driver_pwm.c:36
    else if(pin == TIM1_PWM_CH3_A10)   gpio_init(A10, GPO, 0, SPEED_50MHZ|GPO_AF_PUSH_PULL);
     5c4:	fec42703          	lw	a4,-20(s0)
     5c8:	4789                	li	a5,2
     5ca:	00f71a63          	bne	a4,a5,5de <pwm_gpio_init+0x56>
D:/projects/mechanical_arm/Ctrl_Stepper_Motor/libraries/zf_driver/zf_driver_pwm.c:36 (discriminator 1)
     5ce:	31800693          	li	a3,792
     5d2:	4601                	li	a2,0
     5d4:	4585                	li	a1,1
     5d6:	4529                	li	a0,10
     5d8:	3d29                	jal	3f2 <gpio_init>
D:/projects/mechanical_arm/Ctrl_Stepper_Motor/libraries/zf_driver/zf_driver_pwm.c:117 (discriminator 1)
}
     5da:	6f80006f          	j	cd2 <__stack_size+0x4d2>
D:/projects/mechanical_arm/Ctrl_Stepper_Motor/libraries/zf_driver/zf_driver_pwm.c:37
    else if(pin == TIM1_PWM_CH4_A11)   gpio_init(A11, GPO, 0, SPEED_50MHZ|GPO_AF_PUSH_PULL);
     5de:	fec42703          	lw	a4,-20(s0)
     5e2:	478d                	li	a5,3
     5e4:	00f71a63          	bne	a4,a5,5f8 <pwm_gpio_init+0x70>
D:/projects/mechanical_arm/Ctrl_Stepper_Motor/libraries/zf_driver/zf_driver_pwm.c:37 (discriminator 1)
     5e8:	31800693          	li	a3,792
     5ec:	4601                	li	a2,0
     5ee:	4585                	li	a1,1
     5f0:	452d                	li	a0,11
     5f2:	3501                	jal	3f2 <gpio_init>
D:/projects/mechanical_arm/Ctrl_Stepper_Motor/libraries/zf_driver/zf_driver_pwm.c:117 (discriminator 1)
}
     5f4:	6de0006f          	j	cd2 <__stack_size+0x4d2>
D:/projects/mechanical_arm/Ctrl_Stepper_Motor/libraries/zf_driver/zf_driver_pwm.c:39
    else if(pin == TIM1_PWM_CH1_E9 )   gpio_init(E9 , GPO, 0, SPEED_50MHZ|GPO_AF_PUSH_PULL);
     5f8:	fec42703          	lw	a4,-20(s0)
     5fc:	47c1                	li	a5,16
     5fe:	00f71b63          	bne	a4,a5,614 <pwm_gpio_init+0x8c>
D:/projects/mechanical_arm/Ctrl_Stepper_Motor/libraries/zf_driver/zf_driver_pwm.c:39 (discriminator 1)
     602:	31800693          	li	a3,792
     606:	4601                	li	a2,0
     608:	4585                	li	a1,1
     60a:	08900513          	li	a0,137
     60e:	33d5                	jal	3f2 <gpio_init>
D:/projects/mechanical_arm/Ctrl_Stepper_Motor/libraries/zf_driver/zf_driver_pwm.c:117 (discriminator 1)
}
     610:	6c20006f          	j	cd2 <__stack_size+0x4d2>
D:/projects/mechanical_arm/Ctrl_Stepper_Motor/libraries/zf_driver/zf_driver_pwm.c:40
    else if(pin == TIM1_PWM_CH2_E11)   gpio_init(E11, GPO, 0, SPEED_50MHZ|GPO_AF_PUSH_PULL);
     614:	fec42703          	lw	a4,-20(s0)
     618:	47c5                	li	a5,17
     61a:	00f71a63          	bne	a4,a5,62e <pwm_gpio_init+0xa6>
D:/projects/mechanical_arm/Ctrl_Stepper_Motor/libraries/zf_driver/zf_driver_pwm.c:40 (discriminator 1)
     61e:	31800693          	li	a3,792
     622:	4601                	li	a2,0
     624:	4585                	li	a1,1
     626:	08b00513          	li	a0,139
     62a:	33e1                	jal	3f2 <gpio_init>
D:/projects/mechanical_arm/Ctrl_Stepper_Motor/libraries/zf_driver/zf_driver_pwm.c:117 (discriminator 1)
}
     62c:	a55d                	j	cd2 <__stack_size+0x4d2>
D:/projects/mechanical_arm/Ctrl_Stepper_Motor/libraries/zf_driver/zf_driver_pwm.c:41
    else if(pin == TIM1_PWM_CH3_E13)   gpio_init(E13, GPO, 0, SPEED_50MHZ|GPO_AF_PUSH_PULL);
     62e:	fec42703          	lw	a4,-20(s0)
     632:	47c9                	li	a5,18
     634:	00f71a63          	bne	a4,a5,648 <pwm_gpio_init+0xc0>
D:/projects/mechanical_arm/Ctrl_Stepper_Motor/libraries/zf_driver/zf_driver_pwm.c:41 (discriminator 1)
     638:	31800693          	li	a3,792
     63c:	4601                	li	a2,0
     63e:	4585                	li	a1,1
     640:	08d00513          	li	a0,141
     644:	337d                	jal	3f2 <gpio_init>
D:/projects/mechanical_arm/Ctrl_Stepper_Motor/libraries/zf_driver/zf_driver_pwm.c:117 (discriminator 1)
}
     646:	a571                	j	cd2 <__stack_size+0x4d2>
D:/projects/mechanical_arm/Ctrl_Stepper_Motor/libraries/zf_driver/zf_driver_pwm.c:42
    else if(pin == TIM1_PWM_CH4_E14)   gpio_init(E14, GPO, 0, SPEED_50MHZ|GPO_AF_PUSH_PULL);
     648:	fec42703          	lw	a4,-20(s0)
     64c:	47cd                	li	a5,19
     64e:	00f71a63          	bne	a4,a5,662 <pwm_gpio_init+0xda>
D:/projects/mechanical_arm/Ctrl_Stepper_Motor/libraries/zf_driver/zf_driver_pwm.c:42 (discriminator 1)
     652:	31800693          	li	a3,792
     656:	4601                	li	a2,0
     658:	4585                	li	a1,1
     65a:	08e00513          	li	a0,142
     65e:	3b51                	jal	3f2 <gpio_init>
D:/projects/mechanical_arm/Ctrl_Stepper_Motor/libraries/zf_driver/zf_driver_pwm.c:117 (discriminator 1)
}
     660:	ad8d                	j	cd2 <__stack_size+0x4d2>
D:/projects/mechanical_arm/Ctrl_Stepper_Motor/libraries/zf_driver/zf_driver_pwm.c:44
    else if(pin == TIM2_PWM_CH1_A0 ) 	gpio_init(A0 , GPO, 0, SPEED_50MHZ|GPO_AF_PUSH_PULL);
     662:	fec42703          	lw	a4,-20(s0)
     666:	10000793          	li	a5,256
     66a:	00f71963          	bne	a4,a5,67c <pwm_gpio_init+0xf4>
D:/projects/mechanical_arm/Ctrl_Stepper_Motor/libraries/zf_driver/zf_driver_pwm.c:44 (discriminator 1)
     66e:	31800693          	li	a3,792
     672:	4601                	li	a2,0
     674:	4585                	li	a1,1
     676:	4501                	li	a0,0
     678:	3bad                	jal	3f2 <gpio_init>
D:/projects/mechanical_arm/Ctrl_Stepper_Motor/libraries/zf_driver/zf_driver_pwm.c:117 (discriminator 1)
}
     67a:	ada1                	j	cd2 <__stack_size+0x4d2>
D:/projects/mechanical_arm/Ctrl_Stepper_Motor/libraries/zf_driver/zf_driver_pwm.c:45
    else if(pin == TIM2_PWM_CH2_A1 ) 	gpio_init(A1 , GPO, 0, SPEED_50MHZ|GPO_AF_PUSH_PULL);
     67c:	fec42703          	lw	a4,-20(s0)
     680:	10100793          	li	a5,257
     684:	00f71963          	bne	a4,a5,696 <pwm_gpio_init+0x10e>
D:/projects/mechanical_arm/Ctrl_Stepper_Motor/libraries/zf_driver/zf_driver_pwm.c:45 (discriminator 1)
     688:	31800693          	li	a3,792
     68c:	4601                	li	a2,0
     68e:	4585                	li	a1,1
     690:	4505                	li	a0,1
     692:	3385                	jal	3f2 <gpio_init>
D:/projects/mechanical_arm/Ctrl_Stepper_Motor/libraries/zf_driver/zf_driver_pwm.c:117 (discriminator 1)
}
     694:	ad3d                	j	cd2 <__stack_size+0x4d2>
D:/projects/mechanical_arm/Ctrl_Stepper_Motor/libraries/zf_driver/zf_driver_pwm.c:46
    else if(pin == TIM2_PWM_CH3_A2 ) 	gpio_init(A2 , GPO, 0, SPEED_50MHZ|GPO_AF_PUSH_PULL);
     696:	fec42703          	lw	a4,-20(s0)
     69a:	10200793          	li	a5,258
     69e:	00f71963          	bne	a4,a5,6b0 <pwm_gpio_init+0x128>
D:/projects/mechanical_arm/Ctrl_Stepper_Motor/libraries/zf_driver/zf_driver_pwm.c:46 (discriminator 1)
     6a2:	31800693          	li	a3,792
     6a6:	4601                	li	a2,0
     6a8:	4585                	li	a1,1
     6aa:	4509                	li	a0,2
     6ac:	3399                	jal	3f2 <gpio_init>
D:/projects/mechanical_arm/Ctrl_Stepper_Motor/libraries/zf_driver/zf_driver_pwm.c:117 (discriminator 1)
}
     6ae:	a515                	j	cd2 <__stack_size+0x4d2>
D:/projects/mechanical_arm/Ctrl_Stepper_Motor/libraries/zf_driver/zf_driver_pwm.c:47
    else if(pin == TIM2_PWM_CH4_A3 ) 	gpio_init(A3 , GPO, 0, SPEED_50MHZ|GPO_AF_PUSH_PULL);
     6b0:	fec42703          	lw	a4,-20(s0)
     6b4:	10300793          	li	a5,259
     6b8:	00f71963          	bne	a4,a5,6ca <pwm_gpio_init+0x142>
D:/projects/mechanical_arm/Ctrl_Stepper_Motor/libraries/zf_driver/zf_driver_pwm.c:47 (discriminator 1)
     6bc:	31800693          	li	a3,792
     6c0:	4601                	li	a2,0
     6c2:	4585                	li	a1,1
     6c4:	450d                	li	a0,3
     6c6:	3335                	jal	3f2 <gpio_init>
D:/projects/mechanical_arm/Ctrl_Stepper_Motor/libraries/zf_driver/zf_driver_pwm.c:117 (discriminator 1)
}
     6c8:	a529                	j	cd2 <__stack_size+0x4d2>
D:/projects/mechanical_arm/Ctrl_Stepper_Motor/libraries/zf_driver/zf_driver_pwm.c:49
    else if(pin == TIM2_PWM_CH1_A15) 	gpio_init(A15, GPO, 0, SPEED_50MHZ|GPO_AF_PUSH_PULL);
     6ca:	fec42703          	lw	a4,-20(s0)
     6ce:	11000793          	li	a5,272
     6d2:	00f71963          	bne	a4,a5,6e4 <pwm_gpio_init+0x15c>
D:/projects/mechanical_arm/Ctrl_Stepper_Motor/libraries/zf_driver/zf_driver_pwm.c:49 (discriminator 1)
     6d6:	31800693          	li	a3,792
     6da:	4601                	li	a2,0
     6dc:	4585                	li	a1,1
     6de:	453d                	li	a0,15
     6e0:	3b09                	jal	3f2 <gpio_init>
D:/projects/mechanical_arm/Ctrl_Stepper_Motor/libraries/zf_driver/zf_driver_pwm.c:117 (discriminator 1)
}
     6e2:	abc5                	j	cd2 <__stack_size+0x4d2>
D:/projects/mechanical_arm/Ctrl_Stepper_Motor/libraries/zf_driver/zf_driver_pwm.c:50
    else if(pin == TIM2_PWM_CH2_B3 ) 	gpio_init(B3 , GPO, 0, SPEED_50MHZ|GPO_AF_PUSH_PULL);
     6e4:	fec42703          	lw	a4,-20(s0)
     6e8:	11100793          	li	a5,273
     6ec:	00f71a63          	bne	a4,a5,700 <pwm_gpio_init+0x178>
D:/projects/mechanical_arm/Ctrl_Stepper_Motor/libraries/zf_driver/zf_driver_pwm.c:50 (discriminator 1)
     6f0:	31800693          	li	a3,792
     6f4:	4601                	li	a2,0
     6f6:	4585                	li	a1,1
     6f8:	02300513          	li	a0,35
     6fc:	39dd                	jal	3f2 <gpio_init>
D:/projects/mechanical_arm/Ctrl_Stepper_Motor/libraries/zf_driver/zf_driver_pwm.c:117 (discriminator 1)
}
     6fe:	abd1                	j	cd2 <__stack_size+0x4d2>
D:/projects/mechanical_arm/Ctrl_Stepper_Motor/libraries/zf_driver/zf_driver_pwm.c:51
    else if(pin == TIM2_PWM_CH3_B10) 	gpio_init(B10, GPO, 0, SPEED_50MHZ|GPO_AF_PUSH_PULL);
     700:	fec42703          	lw	a4,-20(s0)
     704:	11200793          	li	a5,274
     708:	00f71a63          	bne	a4,a5,71c <pwm_gpio_init+0x194>
D:/projects/mechanical_arm/Ctrl_Stepper_Motor/libraries/zf_driver/zf_driver_pwm.c:51 (discriminator 1)
     70c:	31800693          	li	a3,792
     710:	4601                	li	a2,0
     712:	4585                	li	a1,1
     714:	02a00513          	li	a0,42
     718:	39e9                	jal	3f2 <gpio_init>
D:/projects/mechanical_arm/Ctrl_Stepper_Motor/libraries/zf_driver/zf_driver_pwm.c:117 (discriminator 1)
}
     71a:	ab65                	j	cd2 <__stack_size+0x4d2>
D:/projects/mechanical_arm/Ctrl_Stepper_Motor/libraries/zf_driver/zf_driver_pwm.c:52
    else if(pin == TIM2_PWM_CH4_B11) 	gpio_init(B11, GPO, 0, SPEED_50MHZ|GPO_AF_PUSH_PULL);
     71c:	fec42703          	lw	a4,-20(s0)
     720:	11300793          	li	a5,275
     724:	00f71a63          	bne	a4,a5,738 <pwm_gpio_init+0x1b0>
D:/projects/mechanical_arm/Ctrl_Stepper_Motor/libraries/zf_driver/zf_driver_pwm.c:52 (discriminator 1)
     728:	31800693          	li	a3,792
     72c:	4601                	li	a2,0
     72e:	4585                	li	a1,1
     730:	02b00513          	li	a0,43
     734:	397d                	jal	3f2 <gpio_init>
D:/projects/mechanical_arm/Ctrl_Stepper_Motor/libraries/zf_driver/zf_driver_pwm.c:117 (discriminator 1)
}
     736:	ab71                	j	cd2 <__stack_size+0x4d2>
D:/projects/mechanical_arm/Ctrl_Stepper_Motor/libraries/zf_driver/zf_driver_pwm.c:54
    else if(pin == TIM3_PWM_CH1_A6 ) 	gpio_init(A6,  GPO, 0, SPEED_50MHZ|GPO_AF_PUSH_PULL);
     738:	fec42703          	lw	a4,-20(s0)
     73c:	20000793          	li	a5,512
     740:	00f71963          	bne	a4,a5,752 <pwm_gpio_init+0x1ca>
D:/projects/mechanical_arm/Ctrl_Stepper_Motor/libraries/zf_driver/zf_driver_pwm.c:54 (discriminator 1)
     744:	31800693          	li	a3,792
     748:	4601                	li	a2,0
     74a:	4585                	li	a1,1
     74c:	4519                	li	a0,6
     74e:	3155                	jal	3f2 <gpio_init>
D:/projects/mechanical_arm/Ctrl_Stepper_Motor/libraries/zf_driver/zf_driver_pwm.c:117 (discriminator 1)
}
     750:	a349                	j	cd2 <__stack_size+0x4d2>
D:/projects/mechanical_arm/Ctrl_Stepper_Motor/libraries/zf_driver/zf_driver_pwm.c:55
    else if(pin == TIM3_PWM_CH2_A7 ) 	gpio_init(A7,  GPO, 0, SPEED_50MHZ|GPO_AF_PUSH_PULL);
     752:	fec42703          	lw	a4,-20(s0)
     756:	20100793          	li	a5,513
     75a:	00f71963          	bne	a4,a5,76c <pwm_gpio_init+0x1e4>
D:/projects/mechanical_arm/Ctrl_Stepper_Motor/libraries/zf_driver/zf_driver_pwm.c:55 (discriminator 1)
     75e:	31800693          	li	a3,792
     762:	4601                	li	a2,0
     764:	4585                	li	a1,1
     766:	451d                	li	a0,7
     768:	3169                	jal	3f2 <gpio_init>
D:/projects/mechanical_arm/Ctrl_Stepper_Motor/libraries/zf_driver/zf_driver_pwm.c:117 (discriminator 1)
}
     76a:	a3a5                	j	cd2 <__stack_size+0x4d2>
D:/projects/mechanical_arm/Ctrl_Stepper_Motor/libraries/zf_driver/zf_driver_pwm.c:56
    else if(pin == TIM3_PWM_CH3_B0 ) 	gpio_init(B0,  GPO, 0, SPEED_50MHZ|GPO_AF_PUSH_PULL);
     76c:	fec42703          	lw	a4,-20(s0)
     770:	20200793          	li	a5,514
     774:	00f71a63          	bne	a4,a5,788 <pwm_gpio_init+0x200>
D:/projects/mechanical_arm/Ctrl_Stepper_Motor/libraries/zf_driver/zf_driver_pwm.c:56 (discriminator 1)
     778:	31800693          	li	a3,792
     77c:	4601                	li	a2,0
     77e:	4585                	li	a1,1
     780:	02000513          	li	a0,32
     784:	31bd                	jal	3f2 <gpio_init>
D:/projects/mechanical_arm/Ctrl_Stepper_Motor/libraries/zf_driver/zf_driver_pwm.c:117 (discriminator 1)
}
     786:	a3b1                	j	cd2 <__stack_size+0x4d2>
D:/projects/mechanical_arm/Ctrl_Stepper_Motor/libraries/zf_driver/zf_driver_pwm.c:57
    else if(pin == TIM3_PWM_CH4_B1 ) 	gpio_init(B1,  GPO, 0, SPEED_50MHZ|GPO_AF_PUSH_PULL);
     788:	fec42703          	lw	a4,-20(s0)
     78c:	20300793          	li	a5,515
     790:	00f71a63          	bne	a4,a5,7a4 <pwm_gpio_init+0x21c>
D:/projects/mechanical_arm/Ctrl_Stepper_Motor/libraries/zf_driver/zf_driver_pwm.c:57 (discriminator 1)
     794:	31800693          	li	a3,792
     798:	4601                	li	a2,0
     79a:	4585                	li	a1,1
     79c:	02100513          	li	a0,33
     7a0:	3989                	jal	3f2 <gpio_init>
D:/projects/mechanical_arm/Ctrl_Stepper_Motor/libraries/zf_driver/zf_driver_pwm.c:117 (discriminator 1)
}
     7a2:	ab05                	j	cd2 <__stack_size+0x4d2>
D:/projects/mechanical_arm/Ctrl_Stepper_Motor/libraries/zf_driver/zf_driver_pwm.c:59
    else if(pin == TIM3_PWM_CH1_C6 ) 	gpio_init(C6,  GPO, 0, SPEED_50MHZ|GPO_AF_PUSH_PULL);
     7a4:	fec42703          	lw	a4,-20(s0)
     7a8:	21000793          	li	a5,528
     7ac:	00f71a63          	bne	a4,a5,7c0 <pwm_gpio_init+0x238>
D:/projects/mechanical_arm/Ctrl_Stepper_Motor/libraries/zf_driver/zf_driver_pwm.c:59 (discriminator 1)
     7b0:	31800693          	li	a3,792
     7b4:	4601                	li	a2,0
     7b6:	4585                	li	a1,1
     7b8:	04600513          	li	a0,70
     7bc:	391d                	jal	3f2 <gpio_init>
D:/projects/mechanical_arm/Ctrl_Stepper_Motor/libraries/zf_driver/zf_driver_pwm.c:117 (discriminator 1)
}
     7be:	ab11                	j	cd2 <__stack_size+0x4d2>
D:/projects/mechanical_arm/Ctrl_Stepper_Motor/libraries/zf_driver/zf_driver_pwm.c:60
    else if(pin == TIM3_PWM_CH2_C7 ) 	gpio_init(C7,  GPO, 0, SPEED_50MHZ|GPO_AF_PUSH_PULL);
     7c0:	fec42703          	lw	a4,-20(s0)
     7c4:	21100793          	li	a5,529
     7c8:	00f71a63          	bne	a4,a5,7dc <pwm_gpio_init+0x254>
D:/projects/mechanical_arm/Ctrl_Stepper_Motor/libraries/zf_driver/zf_driver_pwm.c:60 (discriminator 1)
     7cc:	31800693          	li	a3,792
     7d0:	4601                	li	a2,0
     7d2:	4585                	li	a1,1
     7d4:	04700513          	li	a0,71
     7d8:	3929                	jal	3f2 <gpio_init>
D:/projects/mechanical_arm/Ctrl_Stepper_Motor/libraries/zf_driver/zf_driver_pwm.c:117 (discriminator 1)
}
     7da:	a9e5                	j	cd2 <__stack_size+0x4d2>
D:/projects/mechanical_arm/Ctrl_Stepper_Motor/libraries/zf_driver/zf_driver_pwm.c:61
    else if(pin == TIM3_PWM_CH3_C8 ) 	gpio_init(C8,  GPO, 0, SPEED_50MHZ|GPO_AF_PUSH_PULL);
     7dc:	fec42703          	lw	a4,-20(s0)
     7e0:	21200793          	li	a5,530
     7e4:	00f71a63          	bne	a4,a5,7f8 <pwm_gpio_init+0x270>
D:/projects/mechanical_arm/Ctrl_Stepper_Motor/libraries/zf_driver/zf_driver_pwm.c:61 (discriminator 1)
     7e8:	31800693          	li	a3,792
     7ec:	4601                	li	a2,0
     7ee:	4585                	li	a1,1
     7f0:	04800513          	li	a0,72
     7f4:	3efd                	jal	3f2 <gpio_init>
D:/projects/mechanical_arm/Ctrl_Stepper_Motor/libraries/zf_driver/zf_driver_pwm.c:117 (discriminator 1)
}
     7f6:	a9f1                	j	cd2 <__stack_size+0x4d2>
D:/projects/mechanical_arm/Ctrl_Stepper_Motor/libraries/zf_driver/zf_driver_pwm.c:62
    else if(pin == TIM3_PWM_CH4_C9 ) 	gpio_init(C9,  GPO, 0, SPEED_50MHZ|GPO_AF_PUSH_PULL);
     7f8:	fec42703          	lw	a4,-20(s0)
     7fc:	21300793          	li	a5,531
     800:	00f71a63          	bne	a4,a5,814 <__stack_size+0x14>
D:/projects/mechanical_arm/Ctrl_Stepper_Motor/libraries/zf_driver/zf_driver_pwm.c:62 (discriminator 1)
     804:	31800693          	li	a3,792
     808:	4601                	li	a2,0
     80a:	4585                	li	a1,1
     80c:	04900513          	li	a0,73
     810:	36cd                	jal	3f2 <gpio_init>
D:/projects/mechanical_arm/Ctrl_Stepper_Motor/libraries/zf_driver/zf_driver_pwm.c:117 (discriminator 1)
}
     812:	a1c1                	j	cd2 <__stack_size+0x4d2>
D:/projects/mechanical_arm/Ctrl_Stepper_Motor/libraries/zf_driver/zf_driver_pwm.c:64
    else if(pin == TIM3_PWM_CH1_B4 ) 	gpio_init(B4,  GPO, 0, SPEED_50MHZ|GPO_AF_PUSH_PULL);
     814:	fec42703          	lw	a4,-20(s0)
     818:	22000793          	li	a5,544
     81c:	00f71a63          	bne	a4,a5,830 <__stack_size+0x30>
D:/projects/mechanical_arm/Ctrl_Stepper_Motor/libraries/zf_driver/zf_driver_pwm.c:64 (discriminator 1)
     820:	31800693          	li	a3,792
     824:	4601                	li	a2,0
     826:	4585                	li	a1,1
     828:	02400513          	li	a0,36
     82c:	36d9                	jal	3f2 <gpio_init>
D:/projects/mechanical_arm/Ctrl_Stepper_Motor/libraries/zf_driver/zf_driver_pwm.c:117 (discriminator 1)
}
     82e:	a155                	j	cd2 <__stack_size+0x4d2>
D:/projects/mechanical_arm/Ctrl_Stepper_Motor/libraries/zf_driver/zf_driver_pwm.c:65
    else if(pin == TIM3_PWM_CH2_B5 ) 	gpio_init(B5,  GPO, 0, SPEED_50MHZ|GPO_AF_PUSH_PULL);
     830:	fec42703          	lw	a4,-20(s0)
     834:	22100793          	li	a5,545
     838:	00f71a63          	bne	a4,a5,84c <__stack_size+0x4c>
D:/projects/mechanical_arm/Ctrl_Stepper_Motor/libraries/zf_driver/zf_driver_pwm.c:65 (discriminator 1)
     83c:	31800693          	li	a3,792
     840:	4601                	li	a2,0
     842:	4585                	li	a1,1
     844:	02500513          	li	a0,37
     848:	366d                	jal	3f2 <gpio_init>
D:/projects/mechanical_arm/Ctrl_Stepper_Motor/libraries/zf_driver/zf_driver_pwm.c:117 (discriminator 1)
}
     84a:	a161                	j	cd2 <__stack_size+0x4d2>
D:/projects/mechanical_arm/Ctrl_Stepper_Motor/libraries/zf_driver/zf_driver_pwm.c:67
    else if(pin == TIM4_PWM_CH1_B6 ) 	gpio_init(B6,  GPO, 0, SPEED_50MHZ|GPO_AF_PUSH_PULL);
     84c:	fec42703          	lw	a4,-20(s0)
     850:	30000793          	li	a5,768
     854:	00f71a63          	bne	a4,a5,868 <__stack_size+0x68>
D:/projects/mechanical_arm/Ctrl_Stepper_Motor/libraries/zf_driver/zf_driver_pwm.c:67 (discriminator 1)
     858:	31800693          	li	a3,792
     85c:	4601                	li	a2,0
     85e:	4585                	li	a1,1
     860:	02600513          	li	a0,38
     864:	3679                	jal	3f2 <gpio_init>
D:/projects/mechanical_arm/Ctrl_Stepper_Motor/libraries/zf_driver/zf_driver_pwm.c:117 (discriminator 1)
}
     866:	a1b5                	j	cd2 <__stack_size+0x4d2>
D:/projects/mechanical_arm/Ctrl_Stepper_Motor/libraries/zf_driver/zf_driver_pwm.c:68
    else if(pin == TIM4_PWM_CH2_B7 ) 	gpio_init(B7,  GPO, 0, SPEED_50MHZ|GPO_AF_PUSH_PULL);
     868:	fec42703          	lw	a4,-20(s0)
     86c:	30100793          	li	a5,769
     870:	00f71a63          	bne	a4,a5,884 <__stack_size+0x84>
D:/projects/mechanical_arm/Ctrl_Stepper_Motor/libraries/zf_driver/zf_driver_pwm.c:68 (discriminator 1)
     874:	31800693          	li	a3,792
     878:	4601                	li	a2,0
     87a:	4585                	li	a1,1
     87c:	02700513          	li	a0,39
     880:	3e8d                	jal	3f2 <gpio_init>
D:/projects/mechanical_arm/Ctrl_Stepper_Motor/libraries/zf_driver/zf_driver_pwm.c:117 (discriminator 1)
}
     882:	a981                	j	cd2 <__stack_size+0x4d2>
D:/projects/mechanical_arm/Ctrl_Stepper_Motor/libraries/zf_driver/zf_driver_pwm.c:69
    else if(pin == TIM4_PWM_CH3_B8 ) 	gpio_init(B8,  GPO, 0, SPEED_50MHZ|GPO_AF_PUSH_PULL);
     884:	fec42703          	lw	a4,-20(s0)
     888:	30200793          	li	a5,770
     88c:	00f71a63          	bne	a4,a5,8a0 <__stack_size+0xa0>
D:/projects/mechanical_arm/Ctrl_Stepper_Motor/libraries/zf_driver/zf_driver_pwm.c:69 (discriminator 1)
     890:	31800693          	li	a3,792
     894:	4601                	li	a2,0
     896:	4585                	li	a1,1
     898:	02800513          	li	a0,40
     89c:	3e99                	jal	3f2 <gpio_init>
D:/projects/mechanical_arm/Ctrl_Stepper_Motor/libraries/zf_driver/zf_driver_pwm.c:117 (discriminator 1)
}
     89e:	a915                	j	cd2 <__stack_size+0x4d2>
D:/projects/mechanical_arm/Ctrl_Stepper_Motor/libraries/zf_driver/zf_driver_pwm.c:70
    else if(pin == TIM4_PWM_CH4_B9 ) 	gpio_init(B9,  GPO, 0, SPEED_50MHZ|GPO_AF_PUSH_PULL);
     8a0:	fec42703          	lw	a4,-20(s0)
     8a4:	30300793          	li	a5,771
     8a8:	00f71a63          	bne	a4,a5,8bc <__stack_size+0xbc>
D:/projects/mechanical_arm/Ctrl_Stepper_Motor/libraries/zf_driver/zf_driver_pwm.c:70 (discriminator 1)
     8ac:	31800693          	li	a3,792
     8b0:	4601                	li	a2,0
     8b2:	4585                	li	a1,1
     8b4:	02900513          	li	a0,41
     8b8:	3e2d                	jal	3f2 <gpio_init>
D:/projects/mechanical_arm/Ctrl_Stepper_Motor/libraries/zf_driver/zf_driver_pwm.c:117 (discriminator 1)
}
     8ba:	a921                	j	cd2 <__stack_size+0x4d2>
D:/projects/mechanical_arm/Ctrl_Stepper_Motor/libraries/zf_driver/zf_driver_pwm.c:72
    else if(pin == TIM4_PWM_CH1_D12) 	gpio_init(D12, GPO, 0, SPEED_50MHZ|GPO_AF_PUSH_PULL);
     8bc:	fec42703          	lw	a4,-20(s0)
     8c0:	31000793          	li	a5,784
     8c4:	00f71a63          	bne	a4,a5,8d8 <__stack_size+0xd8>
D:/projects/mechanical_arm/Ctrl_Stepper_Motor/libraries/zf_driver/zf_driver_pwm.c:72 (discriminator 1)
     8c8:	31800693          	li	a3,792
     8cc:	4601                	li	a2,0
     8ce:	4585                	li	a1,1
     8d0:	06c00513          	li	a0,108
     8d4:	3e39                	jal	3f2 <gpio_init>
D:/projects/mechanical_arm/Ctrl_Stepper_Motor/libraries/zf_driver/zf_driver_pwm.c:117 (discriminator 1)
}
     8d6:	aef5                	j	cd2 <__stack_size+0x4d2>
D:/projects/mechanical_arm/Ctrl_Stepper_Motor/libraries/zf_driver/zf_driver_pwm.c:73
    else if(pin == TIM4_PWM_CH2_D13) 	gpio_init(D13, GPO, 0, SPEED_50MHZ|GPO_AF_PUSH_PULL);
     8d8:	fec42703          	lw	a4,-20(s0)
     8dc:	31100793          	li	a5,785
     8e0:	00f71a63          	bne	a4,a5,8f4 <__stack_size+0xf4>
D:/projects/mechanical_arm/Ctrl_Stepper_Motor/libraries/zf_driver/zf_driver_pwm.c:73 (discriminator 1)
     8e4:	31800693          	li	a3,792
     8e8:	4601                	li	a2,0
     8ea:	4585                	li	a1,1
     8ec:	06d00513          	li	a0,109
     8f0:	3609                	jal	3f2 <gpio_init>
D:/projects/mechanical_arm/Ctrl_Stepper_Motor/libraries/zf_driver/zf_driver_pwm.c:117 (discriminator 1)
}
     8f2:	a6c5                	j	cd2 <__stack_size+0x4d2>
D:/projects/mechanical_arm/Ctrl_Stepper_Motor/libraries/zf_driver/zf_driver_pwm.c:74
    else if(pin == TIM4_PWM_CH3_D14) 	gpio_init(D14, GPO, 0, SPEED_50MHZ|GPO_AF_PUSH_PULL);
     8f4:	fec42703          	lw	a4,-20(s0)
     8f8:	31200793          	li	a5,786
     8fc:	00f71a63          	bne	a4,a5,910 <__stack_size+0x110>
D:/projects/mechanical_arm/Ctrl_Stepper_Motor/libraries/zf_driver/zf_driver_pwm.c:74 (discriminator 1)
     900:	31800693          	li	a3,792
     904:	4601                	li	a2,0
     906:	4585                	li	a1,1
     908:	06e00513          	li	a0,110
     90c:	34dd                	jal	3f2 <gpio_init>
D:/projects/mechanical_arm/Ctrl_Stepper_Motor/libraries/zf_driver/zf_driver_pwm.c:117 (discriminator 1)
}
     90e:	a6d1                	j	cd2 <__stack_size+0x4d2>
D:/projects/mechanical_arm/Ctrl_Stepper_Motor/libraries/zf_driver/zf_driver_pwm.c:75
    else if(pin == TIM4_PWM_CH4_D15) 	gpio_init(D15, GPO, 0, SPEED_50MHZ|GPO_AF_PUSH_PULL);
     910:	fec42703          	lw	a4,-20(s0)
     914:	31300793          	li	a5,787
     918:	00f71a63          	bne	a4,a5,92c <__stack_size+0x12c>
D:/projects/mechanical_arm/Ctrl_Stepper_Motor/libraries/zf_driver/zf_driver_pwm.c:75 (discriminator 1)
     91c:	31800693          	li	a3,792
     920:	4601                	li	a2,0
     922:	4585                	li	a1,1
     924:	06f00513          	li	a0,111
     928:	34e9                	jal	3f2 <gpio_init>
D:/projects/mechanical_arm/Ctrl_Stepper_Motor/libraries/zf_driver/zf_driver_pwm.c:117 (discriminator 1)
}
     92a:	a665                	j	cd2 <__stack_size+0x4d2>
D:/projects/mechanical_arm/Ctrl_Stepper_Motor/libraries/zf_driver/zf_driver_pwm.c:77
    else if(pin == TIM5_PWM_CH1_A0 ) 	gpio_init(A0 , GPO, 0, SPEED_50MHZ|GPO_AF_PUSH_PULL);
     92c:	fec42703          	lw	a4,-20(s0)
     930:	40000793          	li	a5,1024
     934:	00f71963          	bne	a4,a5,946 <__stack_size+0x146>
D:/projects/mechanical_arm/Ctrl_Stepper_Motor/libraries/zf_driver/zf_driver_pwm.c:77 (discriminator 1)
     938:	31800693          	li	a3,792
     93c:	4601                	li	a2,0
     93e:	4585                	li	a1,1
     940:	4501                	li	a0,0
     942:	3c45                	jal	3f2 <gpio_init>
D:/projects/mechanical_arm/Ctrl_Stepper_Motor/libraries/zf_driver/zf_driver_pwm.c:117 (discriminator 1)
}
     944:	a679                	j	cd2 <__stack_size+0x4d2>
D:/projects/mechanical_arm/Ctrl_Stepper_Motor/libraries/zf_driver/zf_driver_pwm.c:78
    else if(pin == TIM5_PWM_CH2_A1 ) 	gpio_init(A1 , GPO, 0, SPEED_50MHZ|GPO_AF_PUSH_PULL);
     946:	fec42703          	lw	a4,-20(s0)
     94a:	40100793          	li	a5,1025
     94e:	00f71963          	bne	a4,a5,960 <__stack_size+0x160>
D:/projects/mechanical_arm/Ctrl_Stepper_Motor/libraries/zf_driver/zf_driver_pwm.c:78 (discriminator 1)
     952:	31800693          	li	a3,792
     956:	4601                	li	a2,0
     958:	4585                	li	a1,1
     95a:	4505                	li	a0,1
     95c:	3c59                	jal	3f2 <gpio_init>
D:/projects/mechanical_arm/Ctrl_Stepper_Motor/libraries/zf_driver/zf_driver_pwm.c:117 (discriminator 1)
}
     95e:	ae95                	j	cd2 <__stack_size+0x4d2>
D:/projects/mechanical_arm/Ctrl_Stepper_Motor/libraries/zf_driver/zf_driver_pwm.c:79
    else if(pin == TIM5_PWM_CH3_A2 ) 	gpio_init(A2 , GPO, 0, SPEED_50MHZ|GPO_AF_PUSH_PULL);
     960:	fec42703          	lw	a4,-20(s0)
     964:	40200793          	li	a5,1026
     968:	00f71963          	bne	a4,a5,97a <__stack_size+0x17a>
D:/projects/mechanical_arm/Ctrl_Stepper_Motor/libraries/zf_driver/zf_driver_pwm.c:79 (discriminator 1)
     96c:	31800693          	li	a3,792
     970:	4601                	li	a2,0
     972:	4585                	li	a1,1
     974:	4509                	li	a0,2
     976:	3cb5                	jal	3f2 <gpio_init>
D:/projects/mechanical_arm/Ctrl_Stepper_Motor/libraries/zf_driver/zf_driver_pwm.c:117 (discriminator 1)
}
     978:	aea9                	j	cd2 <__stack_size+0x4d2>
D:/projects/mechanical_arm/Ctrl_Stepper_Motor/libraries/zf_driver/zf_driver_pwm.c:80
    else if(pin == TIM5_PWM_CH4_A3 ) 	gpio_init(A3 , GPO, 0, SPEED_50MHZ|GPO_AF_PUSH_PULL);
     97a:	fec42703          	lw	a4,-20(s0)
     97e:	40300793          	li	a5,1027
     982:	00f71963          	bne	a4,a5,994 <__stack_size+0x194>
D:/projects/mechanical_arm/Ctrl_Stepper_Motor/libraries/zf_driver/zf_driver_pwm.c:80 (discriminator 1)
     986:	31800693          	li	a3,792
     98a:	4601                	li	a2,0
     98c:	4585                	li	a1,1
     98e:	450d                	li	a0,3
     990:	348d                	jal	3f2 <gpio_init>
D:/projects/mechanical_arm/Ctrl_Stepper_Motor/libraries/zf_driver/zf_driver_pwm.c:117 (discriminator 1)
}
     992:	a681                	j	cd2 <__stack_size+0x4d2>
D:/projects/mechanical_arm/Ctrl_Stepper_Motor/libraries/zf_driver/zf_driver_pwm.c:82
    else if(pin == TIM8_PWM_CH1_C6 ) 	gpio_init(C6 , GPO, 0, SPEED_50MHZ|GPO_AF_PUSH_PULL);
     994:	fec42703          	lw	a4,-20(s0)
     998:	70000793          	li	a5,1792
     99c:	00f71a63          	bne	a4,a5,9b0 <__stack_size+0x1b0>
D:/projects/mechanical_arm/Ctrl_Stepper_Motor/libraries/zf_driver/zf_driver_pwm.c:82 (discriminator 1)
     9a0:	31800693          	li	a3,792
     9a4:	4601                	li	a2,0
     9a6:	4585                	li	a1,1
     9a8:	04600513          	li	a0,70
     9ac:	3499                	jal	3f2 <gpio_init>
D:/projects/mechanical_arm/Ctrl_Stepper_Motor/libraries/zf_driver/zf_driver_pwm.c:117 (discriminator 1)
}
     9ae:	a615                	j	cd2 <__stack_size+0x4d2>
D:/projects/mechanical_arm/Ctrl_Stepper_Motor/libraries/zf_driver/zf_driver_pwm.c:83
    else if(pin == TIM8_PWM_CH2_C7 ) 	gpio_init(C7 , GPO, 0, SPEED_50MHZ|GPO_AF_PUSH_PULL);
     9b0:	fec42703          	lw	a4,-20(s0)
     9b4:	70100793          	li	a5,1793
     9b8:	00f71a63          	bne	a4,a5,9cc <__stack_size+0x1cc>
D:/projects/mechanical_arm/Ctrl_Stepper_Motor/libraries/zf_driver/zf_driver_pwm.c:83 (discriminator 1)
     9bc:	31800693          	li	a3,792
     9c0:	4601                	li	a2,0
     9c2:	4585                	li	a1,1
     9c4:	04700513          	li	a0,71
     9c8:	342d                	jal	3f2 <gpio_init>
D:/projects/mechanical_arm/Ctrl_Stepper_Motor/libraries/zf_driver/zf_driver_pwm.c:117 (discriminator 1)
}
     9ca:	a621                	j	cd2 <__stack_size+0x4d2>
D:/projects/mechanical_arm/Ctrl_Stepper_Motor/libraries/zf_driver/zf_driver_pwm.c:84
    else if(pin == TIM8_PWM_CH3_C8 ) 	gpio_init(C8 , GPO, 0, SPEED_50MHZ|GPO_AF_PUSH_PULL);
     9cc:	fec42703          	lw	a4,-20(s0)
     9d0:	70200793          	li	a5,1794
     9d4:	00f71a63          	bne	a4,a5,9e8 <__stack_size+0x1e8>
D:/projects/mechanical_arm/Ctrl_Stepper_Motor/libraries/zf_driver/zf_driver_pwm.c:84 (discriminator 1)
     9d8:	31800693          	li	a3,792
     9dc:	4601                	li	a2,0
     9de:	4585                	li	a1,1
     9e0:	04800513          	li	a0,72
     9e4:	3439                	jal	3f2 <gpio_init>
D:/projects/mechanical_arm/Ctrl_Stepper_Motor/libraries/zf_driver/zf_driver_pwm.c:117 (discriminator 1)
}
     9e6:	a4f5                	j	cd2 <__stack_size+0x4d2>
D:/projects/mechanical_arm/Ctrl_Stepper_Motor/libraries/zf_driver/zf_driver_pwm.c:85
    else if(pin == TIM8_PWM_CH4_C9 ) 	gpio_init(C9 , GPO, 0, SPEED_50MHZ|GPO_AF_PUSH_PULL);
     9e8:	fec42703          	lw	a4,-20(s0)
     9ec:	70300793          	li	a5,1795
     9f0:	00f71a63          	bne	a4,a5,a04 <__stack_size+0x204>
D:/projects/mechanical_arm/Ctrl_Stepper_Motor/libraries/zf_driver/zf_driver_pwm.c:85 (discriminator 1)
     9f4:	31800693          	li	a3,792
     9f8:	4601                	li	a2,0
     9fa:	4585                	li	a1,1
     9fc:	04900513          	li	a0,73
     a00:	3acd                	jal	3f2 <gpio_init>
D:/projects/mechanical_arm/Ctrl_Stepper_Motor/libraries/zf_driver/zf_driver_pwm.c:117 (discriminator 1)
}
     a02:	acc1                	j	cd2 <__stack_size+0x4d2>
D:/projects/mechanical_arm/Ctrl_Stepper_Motor/libraries/zf_driver/zf_driver_pwm.c:87
    else if(pin == TIM8_PWM_CH1_B6 ) 	gpio_init(B6 , GPO, 0, SPEED_50MHZ|GPO_AF_PUSH_PULL);
     a04:	fec42703          	lw	a4,-20(s0)
     a08:	71000793          	li	a5,1808
     a0c:	00f71a63          	bne	a4,a5,a20 <__stack_size+0x220>
D:/projects/mechanical_arm/Ctrl_Stepper_Motor/libraries/zf_driver/zf_driver_pwm.c:87 (discriminator 1)
     a10:	31800693          	li	a3,792
     a14:	4601                	li	a2,0
     a16:	4585                	li	a1,1
     a18:	02600513          	li	a0,38
     a1c:	3ad9                	jal	3f2 <gpio_init>
D:/projects/mechanical_arm/Ctrl_Stepper_Motor/libraries/zf_driver/zf_driver_pwm.c:117 (discriminator 1)
}
     a1e:	ac55                	j	cd2 <__stack_size+0x4d2>
D:/projects/mechanical_arm/Ctrl_Stepper_Motor/libraries/zf_driver/zf_driver_pwm.c:88
    else if(pin == TIM8_PWM_CH2_B7 ) 	gpio_init(B7 , GPO, 0, SPEED_50MHZ|GPO_AF_PUSH_PULL);
     a20:	fec42703          	lw	a4,-20(s0)
     a24:	71100793          	li	a5,1809
     a28:	00f71a63          	bne	a4,a5,a3c <__stack_size+0x23c>
D:/projects/mechanical_arm/Ctrl_Stepper_Motor/libraries/zf_driver/zf_driver_pwm.c:88 (discriminator 1)
     a2c:	31800693          	li	a3,792
     a30:	4601                	li	a2,0
     a32:	4585                	li	a1,1
     a34:	02700513          	li	a0,39
     a38:	3a6d                	jal	3f2 <gpio_init>
D:/projects/mechanical_arm/Ctrl_Stepper_Motor/libraries/zf_driver/zf_driver_pwm.c:117 (discriminator 1)
}
     a3a:	ac61                	j	cd2 <__stack_size+0x4d2>
D:/projects/mechanical_arm/Ctrl_Stepper_Motor/libraries/zf_driver/zf_driver_pwm.c:89
    else if(pin == TIM8_PWM_CH3_B8 ) 	gpio_init(B8 , GPO, 0, SPEED_50MHZ|GPO_AF_PUSH_PULL);
     a3c:	fec42703          	lw	a4,-20(s0)
     a40:	71200793          	li	a5,1810
     a44:	00f71a63          	bne	a4,a5,a58 <__stack_size+0x258>
D:/projects/mechanical_arm/Ctrl_Stepper_Motor/libraries/zf_driver/zf_driver_pwm.c:89 (discriminator 1)
     a48:	31800693          	li	a3,792
     a4c:	4601                	li	a2,0
     a4e:	4585                	li	a1,1
     a50:	02800513          	li	a0,40
     a54:	3a79                	jal	3f2 <gpio_init>
D:/projects/mechanical_arm/Ctrl_Stepper_Motor/libraries/zf_driver/zf_driver_pwm.c:117 (discriminator 1)
}
     a56:	acb5                	j	cd2 <__stack_size+0x4d2>
D:/projects/mechanical_arm/Ctrl_Stepper_Motor/libraries/zf_driver/zf_driver_pwm.c:90
    else if(pin == TIM8_PWM_CH4_C13) 	gpio_init(C13, GPO, 0, SPEED_50MHZ|GPO_AF_PUSH_PULL);
     a58:	fec42703          	lw	a4,-20(s0)
     a5c:	71300793          	li	a5,1811
     a60:	00f71a63          	bne	a4,a5,a74 <__stack_size+0x274>
D:/projects/mechanical_arm/Ctrl_Stepper_Motor/libraries/zf_driver/zf_driver_pwm.c:90 (discriminator 1)
     a64:	31800693          	li	a3,792
     a68:	4601                	li	a2,0
     a6a:	4585                	li	a1,1
     a6c:	04d00513          	li	a0,77
     a70:	3249                	jal	3f2 <gpio_init>
D:/projects/mechanical_arm/Ctrl_Stepper_Motor/libraries/zf_driver/zf_driver_pwm.c:117 (discriminator 1)
}
     a72:	a485                	j	cd2 <__stack_size+0x4d2>
D:/projects/mechanical_arm/Ctrl_Stepper_Motor/libraries/zf_driver/zf_driver_pwm.c:92
    else if(pin == TIM9_PWM_CH1_A2 ) 	gpio_init(A2 , GPO, 0, SPEED_50MHZ|GPO_AF_PUSH_PULL);
     a74:	fec42783          	lw	a5,-20(s0)
     a78:	80078793          	addi	a5,a5,-2048
     a7c:	eb81                	bnez	a5,a8c <__stack_size+0x28c>
D:/projects/mechanical_arm/Ctrl_Stepper_Motor/libraries/zf_driver/zf_driver_pwm.c:92 (discriminator 1)
     a7e:	31800693          	li	a3,792
     a82:	4601                	li	a2,0
     a84:	4585                	li	a1,1
     a86:	4509                	li	a0,2
     a88:	32ad                	jal	3f2 <gpio_init>
D:/projects/mechanical_arm/Ctrl_Stepper_Motor/libraries/zf_driver/zf_driver_pwm.c:117 (discriminator 1)
}
     a8a:	a4a1                	j	cd2 <__stack_size+0x4d2>
D:/projects/mechanical_arm/Ctrl_Stepper_Motor/libraries/zf_driver/zf_driver_pwm.c:93
    else if(pin == TIM9_PWM_CH2_A3 ) 	gpio_init(A3 , GPO, 0, SPEED_50MHZ|GPO_AF_PUSH_PULL);
     a8c:	fec42703          	lw	a4,-20(s0)
     a90:	6785                	lui	a5,0x1
     a92:	80178793          	addi	a5,a5,-2047 # 801 <__stack_size+0x1>
     a96:	00f71963          	bne	a4,a5,aa8 <__stack_size+0x2a8>
D:/projects/mechanical_arm/Ctrl_Stepper_Motor/libraries/zf_driver/zf_driver_pwm.c:93 (discriminator 1)
     a9a:	31800693          	li	a3,792
     a9e:	4601                	li	a2,0
     aa0:	4585                	li	a1,1
     aa2:	450d                	li	a0,3
     aa4:	32b9                	jal	3f2 <gpio_init>
D:/projects/mechanical_arm/Ctrl_Stepper_Motor/libraries/zf_driver/zf_driver_pwm.c:117 (discriminator 1)
}
     aa6:	a435                	j	cd2 <__stack_size+0x4d2>
D:/projects/mechanical_arm/Ctrl_Stepper_Motor/libraries/zf_driver/zf_driver_pwm.c:94
    else if(pin == TIM9_PWM_CH3_A4 ) 	gpio_init(A4 , GPO, 0, SPEED_50MHZ|GPO_AF_PUSH_PULL);
     aa8:	fec42703          	lw	a4,-20(s0)
     aac:	6785                	lui	a5,0x1
     aae:	80278793          	addi	a5,a5,-2046 # 802 <__stack_size+0x2>
     ab2:	00f71963          	bne	a4,a5,ac4 <__stack_size+0x2c4>
D:/projects/mechanical_arm/Ctrl_Stepper_Motor/libraries/zf_driver/zf_driver_pwm.c:94 (discriminator 1)
     ab6:	31800693          	li	a3,792
     aba:	4601                	li	a2,0
     abc:	4585                	li	a1,1
     abe:	4511                	li	a0,4
     ac0:	3a0d                	jal	3f2 <gpio_init>
D:/projects/mechanical_arm/Ctrl_Stepper_Motor/libraries/zf_driver/zf_driver_pwm.c:117 (discriminator 1)
}
     ac2:	ac01                	j	cd2 <__stack_size+0x4d2>
D:/projects/mechanical_arm/Ctrl_Stepper_Motor/libraries/zf_driver/zf_driver_pwm.c:95
    else if(pin == TIM9_PWM_CH4_C4 ) 	gpio_init(C4 , GPO, 0, SPEED_50MHZ|GPO_AF_PUSH_PULL);
     ac4:	fec42703          	lw	a4,-20(s0)
     ac8:	6785                	lui	a5,0x1
     aca:	80378793          	addi	a5,a5,-2045 # 803 <__stack_size+0x3>
     ace:	00f71a63          	bne	a4,a5,ae2 <__stack_size+0x2e2>
D:/projects/mechanical_arm/Ctrl_Stepper_Motor/libraries/zf_driver/zf_driver_pwm.c:95 (discriminator 1)
     ad2:	31800693          	li	a3,792
     ad6:	4601                	li	a2,0
     ad8:	4585                	li	a1,1
     ada:	04400513          	li	a0,68
     ade:	3a11                	jal	3f2 <gpio_init>
D:/projects/mechanical_arm/Ctrl_Stepper_Motor/libraries/zf_driver/zf_driver_pwm.c:117 (discriminator 1)
}
     ae0:	aacd                	j	cd2 <__stack_size+0x4d2>
D:/projects/mechanical_arm/Ctrl_Stepper_Motor/libraries/zf_driver/zf_driver_pwm.c:97
    else if(pin == TIM9_PWM_CH1_D9 ) 	gpio_init(D9 , GPO, 0, SPEED_50MHZ|GPO_AF_PUSH_PULL);
     ae2:	fec42703          	lw	a4,-20(s0)
     ae6:	6785                	lui	a5,0x1
     ae8:	81078793          	addi	a5,a5,-2032 # 810 <__stack_size+0x10>
     aec:	00f71a63          	bne	a4,a5,b00 <__stack_size+0x300>
D:/projects/mechanical_arm/Ctrl_Stepper_Motor/libraries/zf_driver/zf_driver_pwm.c:97 (discriminator 1)
     af0:	31800693          	li	a3,792
     af4:	4601                	li	a2,0
     af6:	4585                	li	a1,1
     af8:	06900513          	li	a0,105
     afc:	38dd                	jal	3f2 <gpio_init>
D:/projects/mechanical_arm/Ctrl_Stepper_Motor/libraries/zf_driver/zf_driver_pwm.c:117 (discriminator 1)
}
     afe:	aad1                	j	cd2 <__stack_size+0x4d2>
D:/projects/mechanical_arm/Ctrl_Stepper_Motor/libraries/zf_driver/zf_driver_pwm.c:98
    else if(pin == TIM9_PWM_CH2_D11) 	gpio_init(D11, GPO, 0, SPEED_50MHZ|GPO_AF_PUSH_PULL);
     b00:	fec42703          	lw	a4,-20(s0)
     b04:	6785                	lui	a5,0x1
     b06:	81178793          	addi	a5,a5,-2031 # 811 <__stack_size+0x11>
     b0a:	00f71a63          	bne	a4,a5,b1e <__stack_size+0x31e>
D:/projects/mechanical_arm/Ctrl_Stepper_Motor/libraries/zf_driver/zf_driver_pwm.c:98 (discriminator 1)
     b0e:	31800693          	li	a3,792
     b12:	4601                	li	a2,0
     b14:	4585                	li	a1,1
     b16:	06b00513          	li	a0,107
     b1a:	38e1                	jal	3f2 <gpio_init>
D:/projects/mechanical_arm/Ctrl_Stepper_Motor/libraries/zf_driver/zf_driver_pwm.c:117 (discriminator 1)
}
     b1c:	aa5d                	j	cd2 <__stack_size+0x4d2>
D:/projects/mechanical_arm/Ctrl_Stepper_Motor/libraries/zf_driver/zf_driver_pwm.c:99
    else if(pin == TIM9_PWM_CH3_D13) 	gpio_init(D13, GPO, 0, SPEED_50MHZ|GPO_AF_PUSH_PULL);
     b1e:	fec42703          	lw	a4,-20(s0)
     b22:	6785                	lui	a5,0x1
     b24:	81278793          	addi	a5,a5,-2030 # 812 <__stack_size+0x12>
     b28:	00f71a63          	bne	a4,a5,b3c <__stack_size+0x33c>
D:/projects/mechanical_arm/Ctrl_Stepper_Motor/libraries/zf_driver/zf_driver_pwm.c:99 (discriminator 1)
     b2c:	31800693          	li	a3,792
     b30:	4601                	li	a2,0
     b32:	4585                	li	a1,1
     b34:	06d00513          	li	a0,109
     b38:	386d                	jal	3f2 <gpio_init>
D:/projects/mechanical_arm/Ctrl_Stepper_Motor/libraries/zf_driver/zf_driver_pwm.c:117 (discriminator 1)
}
     b3a:	aa61                	j	cd2 <__stack_size+0x4d2>
D:/projects/mechanical_arm/Ctrl_Stepper_Motor/libraries/zf_driver/zf_driver_pwm.c:100
    else if(pin == TIM9_PWM_CH4_D15) 	gpio_init(D15, GPO, 0, SPEED_50MHZ|GPO_AF_PUSH_PULL);
     b3c:	fec42703          	lw	a4,-20(s0)
     b40:	6785                	lui	a5,0x1
     b42:	81378793          	addi	a5,a5,-2029 # 813 <__stack_size+0x13>
     b46:	00f71a63          	bne	a4,a5,b5a <__stack_size+0x35a>
D:/projects/mechanical_arm/Ctrl_Stepper_Motor/libraries/zf_driver/zf_driver_pwm.c:100 (discriminator 1)
     b4a:	31800693          	li	a3,792
     b4e:	4601                	li	a2,0
     b50:	4585                	li	a1,1
     b52:	06f00513          	li	a0,111
     b56:	3871                	jal	3f2 <gpio_init>
D:/projects/mechanical_arm/Ctrl_Stepper_Motor/libraries/zf_driver/zf_driver_pwm.c:117 (discriminator 1)
}
     b58:	aaad                	j	cd2 <__stack_size+0x4d2>
D:/projects/mechanical_arm/Ctrl_Stepper_Motor/libraries/zf_driver/zf_driver_pwm.c:102
    else if(pin == TIM10_PWM_CH1_B8 ) 	gpio_init(B8 , GPO, 0, SPEED_50MHZ|GPO_AF_PUSH_PULL);
     b5a:	fec42703          	lw	a4,-20(s0)
     b5e:	6785                	lui	a5,0x1
     b60:	90078793          	addi	a5,a5,-1792 # 900 <__stack_size+0x100>
     b64:	00f71a63          	bne	a4,a5,b78 <__stack_size+0x378>
D:/projects/mechanical_arm/Ctrl_Stepper_Motor/libraries/zf_driver/zf_driver_pwm.c:102 (discriminator 1)
     b68:	31800693          	li	a3,792
     b6c:	4601                	li	a2,0
     b6e:	4585                	li	a1,1
     b70:	02800513          	li	a0,40
     b74:	38bd                	jal	3f2 <gpio_init>
D:/projects/mechanical_arm/Ctrl_Stepper_Motor/libraries/zf_driver/zf_driver_pwm.c:117 (discriminator 1)
}
     b76:	aab1                	j	cd2 <__stack_size+0x4d2>
D:/projects/mechanical_arm/Ctrl_Stepper_Motor/libraries/zf_driver/zf_driver_pwm.c:103
    else if(pin == TIM10_PWM_CH2_B9 ) 	gpio_init(B9 , GPO, 0, SPEED_50MHZ|GPO_AF_PUSH_PULL);
     b78:	fec42703          	lw	a4,-20(s0)
     b7c:	6785                	lui	a5,0x1
     b7e:	90178793          	addi	a5,a5,-1791 # 901 <__stack_size+0x101>
     b82:	00f71a63          	bne	a4,a5,b96 <__stack_size+0x396>
D:/projects/mechanical_arm/Ctrl_Stepper_Motor/libraries/zf_driver/zf_driver_pwm.c:103 (discriminator 1)
     b86:	31800693          	li	a3,792
     b8a:	4601                	li	a2,0
     b8c:	4585                	li	a1,1
     b8e:	02900513          	li	a0,41
     b92:	3085                	jal	3f2 <gpio_init>
D:/projects/mechanical_arm/Ctrl_Stepper_Motor/libraries/zf_driver/zf_driver_pwm.c:117 (discriminator 1)
}
     b94:	aa3d                	j	cd2 <__stack_size+0x4d2>
D:/projects/mechanical_arm/Ctrl_Stepper_Motor/libraries/zf_driver/zf_driver_pwm.c:104
    else if(pin == TIM10_PWM_CH3_C3 ) 	gpio_init(C3 , GPO, 0, SPEED_50MHZ|GPO_AF_PUSH_PULL);
     b96:	fec42703          	lw	a4,-20(s0)
     b9a:	6785                	lui	a5,0x1
     b9c:	90278793          	addi	a5,a5,-1790 # 902 <__stack_size+0x102>
     ba0:	00f71a63          	bne	a4,a5,bb4 <__stack_size+0x3b4>
D:/projects/mechanical_arm/Ctrl_Stepper_Motor/libraries/zf_driver/zf_driver_pwm.c:104 (discriminator 1)
     ba4:	31800693          	li	a3,792
     ba8:	4601                	li	a2,0
     baa:	4585                	li	a1,1
     bac:	04300513          	li	a0,67
     bb0:	3089                	jal	3f2 <gpio_init>
D:/projects/mechanical_arm/Ctrl_Stepper_Motor/libraries/zf_driver/zf_driver_pwm.c:117 (discriminator 1)
}
     bb2:	a205                	j	cd2 <__stack_size+0x4d2>
D:/projects/mechanical_arm/Ctrl_Stepper_Motor/libraries/zf_driver/zf_driver_pwm.c:105
    else if(pin == TIM10_PWM_CH4_C11) 	gpio_init(C11, GPO, 0, SPEED_50MHZ|GPO_AF_PUSH_PULL);
     bb4:	fec42703          	lw	a4,-20(s0)
     bb8:	6785                	lui	a5,0x1
     bba:	90378793          	addi	a5,a5,-1789 # 903 <__stack_size+0x103>
     bbe:	00f71b63          	bne	a4,a5,bd4 <__stack_size+0x3d4>
D:/projects/mechanical_arm/Ctrl_Stepper_Motor/libraries/zf_driver/zf_driver_pwm.c:105 (discriminator 1)
     bc2:	31800693          	li	a3,792
     bc6:	4601                	li	a2,0
     bc8:	4585                	li	a1,1
     bca:	04b00513          	li	a0,75
     bce:	825ff0ef          	jal	ra,3f2 <gpio_init>
D:/projects/mechanical_arm/Ctrl_Stepper_Motor/libraries/zf_driver/zf_driver_pwm.c:117 (discriminator 1)
}
     bd2:	a201                	j	cd2 <__stack_size+0x4d2>
D:/projects/mechanical_arm/Ctrl_Stepper_Motor/libraries/zf_driver/zf_driver_pwm.c:107
    else if(pin == TIM10_PWM_CH1_D1 ) 	gpio_init(D1 , GPO, 0, SPEED_50MHZ|GPO_AF_PUSH_PULL);
     bd4:	fec42703          	lw	a4,-20(s0)
     bd8:	6785                	lui	a5,0x1
     bda:	91078793          	addi	a5,a5,-1776 # 910 <__stack_size+0x110>
     bde:	00f71b63          	bne	a4,a5,bf4 <__stack_size+0x3f4>
D:/projects/mechanical_arm/Ctrl_Stepper_Motor/libraries/zf_driver/zf_driver_pwm.c:107 (discriminator 1)
     be2:	31800693          	li	a3,792
     be6:	4601                	li	a2,0
     be8:	4585                	li	a1,1
     bea:	06100513          	li	a0,97
     bee:	805ff0ef          	jal	ra,3f2 <gpio_init>
D:/projects/mechanical_arm/Ctrl_Stepper_Motor/libraries/zf_driver/zf_driver_pwm.c:117 (discriminator 1)
}
     bf2:	a0c5                	j	cd2 <__stack_size+0x4d2>
D:/projects/mechanical_arm/Ctrl_Stepper_Motor/libraries/zf_driver/zf_driver_pwm.c:108
    else if(pin == TIM10_PWM_CH2_D3 ) 	gpio_init(D3 , GPO, 0, SPEED_50MHZ|GPO_AF_PUSH_PULL);
     bf4:	fec42703          	lw	a4,-20(s0)
     bf8:	6785                	lui	a5,0x1
     bfa:	91178793          	addi	a5,a5,-1775 # 911 <__stack_size+0x111>
     bfe:	00f71b63          	bne	a4,a5,c14 <__stack_size+0x414>
D:/projects/mechanical_arm/Ctrl_Stepper_Motor/libraries/zf_driver/zf_driver_pwm.c:108 (discriminator 1)
     c02:	31800693          	li	a3,792
     c06:	4601                	li	a2,0
     c08:	4585                	li	a1,1
     c0a:	06300513          	li	a0,99
     c0e:	fe4ff0ef          	jal	ra,3f2 <gpio_init>
D:/projects/mechanical_arm/Ctrl_Stepper_Motor/libraries/zf_driver/zf_driver_pwm.c:117 (discriminator 1)
}
     c12:	a0c1                	j	cd2 <__stack_size+0x4d2>
D:/projects/mechanical_arm/Ctrl_Stepper_Motor/libraries/zf_driver/zf_driver_pwm.c:109
    else if(pin == TIM10_PWM_CH3_D5 ) 	gpio_init(D5 , GPO, 0, SPEED_50MHZ|GPO_AF_PUSH_PULL);
     c14:	fec42703          	lw	a4,-20(s0)
     c18:	6785                	lui	a5,0x1
     c1a:	91278793          	addi	a5,a5,-1774 # 912 <__stack_size+0x112>
     c1e:	00f71b63          	bne	a4,a5,c34 <__stack_size+0x434>
D:/projects/mechanical_arm/Ctrl_Stepper_Motor/libraries/zf_driver/zf_driver_pwm.c:109 (discriminator 1)
     c22:	31800693          	li	a3,792
     c26:	4601                	li	a2,0
     c28:	4585                	li	a1,1
     c2a:	06500513          	li	a0,101
     c2e:	fc4ff0ef          	jal	ra,3f2 <gpio_init>
D:/projects/mechanical_arm/Ctrl_Stepper_Motor/libraries/zf_driver/zf_driver_pwm.c:117 (discriminator 1)
}
     c32:	a045                	j	cd2 <__stack_size+0x4d2>
D:/projects/mechanical_arm/Ctrl_Stepper_Motor/libraries/zf_driver/zf_driver_pwm.c:110
    else if(pin == TIM10_PWM_CH4_D7 ) 	gpio_init(D7 , GPO, 0, SPEED_50MHZ|GPO_AF_PUSH_PULL);
     c34:	fec42703          	lw	a4,-20(s0)
     c38:	6785                	lui	a5,0x1
     c3a:	91378793          	addi	a5,a5,-1773 # 913 <__stack_size+0x113>
     c3e:	00f71b63          	bne	a4,a5,c54 <__stack_size+0x454>
D:/projects/mechanical_arm/Ctrl_Stepper_Motor/libraries/zf_driver/zf_driver_pwm.c:110 (discriminator 1)
     c42:	31800693          	li	a3,792
     c46:	4601                	li	a2,0
     c48:	4585                	li	a1,1
     c4a:	06700513          	li	a0,103
     c4e:	fa4ff0ef          	jal	ra,3f2 <gpio_init>
D:/projects/mechanical_arm/Ctrl_Stepper_Motor/libraries/zf_driver/zf_driver_pwm.c:117 (discriminator 1)
}
     c52:	a041                	j	cd2 <__stack_size+0x4d2>
D:/projects/mechanical_arm/Ctrl_Stepper_Motor/libraries/zf_driver/zf_driver_pwm.c:112
    else if(pin == TIM10_PWM_CH1_B3 ) 	gpio_init(B3 , GPO, 0, SPEED_50MHZ|GPO_AF_PUSH_PULL);
     c54:	fec42703          	lw	a4,-20(s0)
     c58:	6785                	lui	a5,0x1
     c5a:	92078793          	addi	a5,a5,-1760 # 920 <__stack_size+0x120>
     c5e:	00f71b63          	bne	a4,a5,c74 <__stack_size+0x474>
D:/projects/mechanical_arm/Ctrl_Stepper_Motor/libraries/zf_driver/zf_driver_pwm.c:112 (discriminator 1)
     c62:	31800693          	li	a3,792
     c66:	4601                	li	a2,0
     c68:	4585                	li	a1,1
     c6a:	02300513          	li	a0,35
     c6e:	f84ff0ef          	jal	ra,3f2 <gpio_init>
D:/projects/mechanical_arm/Ctrl_Stepper_Motor/libraries/zf_driver/zf_driver_pwm.c:117 (discriminator 1)
}
     c72:	a085                	j	cd2 <__stack_size+0x4d2>
D:/projects/mechanical_arm/Ctrl_Stepper_Motor/libraries/zf_driver/zf_driver_pwm.c:113
    else if(pin == TIM10_PWM_CH2_B4 ) 	gpio_init(B4 , GPO, 0, SPEED_50MHZ|GPO_AF_PUSH_PULL);
     c74:	fec42703          	lw	a4,-20(s0)
     c78:	6785                	lui	a5,0x1
     c7a:	92178793          	addi	a5,a5,-1759 # 921 <__stack_size+0x121>
     c7e:	00f71b63          	bne	a4,a5,c94 <__stack_size+0x494>
D:/projects/mechanical_arm/Ctrl_Stepper_Motor/libraries/zf_driver/zf_driver_pwm.c:113 (discriminator 1)
     c82:	31800693          	li	a3,792
     c86:	4601                	li	a2,0
     c88:	4585                	li	a1,1
     c8a:	02400513          	li	a0,36
     c8e:	f64ff0ef          	jal	ra,3f2 <gpio_init>
D:/projects/mechanical_arm/Ctrl_Stepper_Motor/libraries/zf_driver/zf_driver_pwm.c:117 (discriminator 1)
}
     c92:	a081                	j	cd2 <__stack_size+0x4d2>
D:/projects/mechanical_arm/Ctrl_Stepper_Motor/libraries/zf_driver/zf_driver_pwm.c:114
    else if(pin == TIM10_PWM_CH3_B5 ) 	gpio_init(B5 , GPO, 0, SPEED_50MHZ|GPO_AF_PUSH_PULL);
     c94:	fec42703          	lw	a4,-20(s0)
     c98:	6785                	lui	a5,0x1
     c9a:	92278793          	addi	a5,a5,-1758 # 922 <__stack_size+0x122>
     c9e:	00f71b63          	bne	a4,a5,cb4 <__stack_size+0x4b4>
D:/projects/mechanical_arm/Ctrl_Stepper_Motor/libraries/zf_driver/zf_driver_pwm.c:114 (discriminator 1)
     ca2:	31800693          	li	a3,792
     ca6:	4601                	li	a2,0
     ca8:	4585                	li	a1,1
     caa:	02500513          	li	a0,37
     cae:	f44ff0ef          	jal	ra,3f2 <gpio_init>
D:/projects/mechanical_arm/Ctrl_Stepper_Motor/libraries/zf_driver/zf_driver_pwm.c:117 (discriminator 1)
}
     cb2:	a005                	j	cd2 <__stack_size+0x4d2>
D:/projects/mechanical_arm/Ctrl_Stepper_Motor/libraries/zf_driver/zf_driver_pwm.c:115
    else if(pin == TIM10_PWM_CH4_C15) 	gpio_init(C15, GPO, 0, SPEED_50MHZ|GPO_AF_PUSH_PULL);
     cb4:	fec42703          	lw	a4,-20(s0)
     cb8:	6785                	lui	a5,0x1
     cba:	92378793          	addi	a5,a5,-1757 # 923 <__stack_size+0x123>
     cbe:	00f71a63          	bne	a4,a5,cd2 <__stack_size+0x4d2>
D:/projects/mechanical_arm/Ctrl_Stepper_Motor/libraries/zf_driver/zf_driver_pwm.c:115 (discriminator 1)
     cc2:	31800693          	li	a3,792
     cc6:	4601                	li	a2,0
     cc8:	4585                	li	a1,1
     cca:	04f00513          	li	a0,79
     cce:	f24ff0ef          	jal	ra,3f2 <gpio_init>
D:/projects/mechanical_arm/Ctrl_Stepper_Motor/libraries/zf_driver/zf_driver_pwm.c:117
}
     cd2:	0001                	nop
     cd4:	40f2                	lw	ra,28(sp)
     cd6:	4462                	lw	s0,24(sp)
     cd8:	6105                	addi	sp,sp,32
     cda:	8082                	ret

00000cdc <pwm_init>:
pwm_init():
D:/projects/mechanical_arm/Ctrl_Stepper_Motor/libraries/zf_driver/zf_driver_pwm.c:178
//  @return     void
//  Sample usage:               pwm_init(PWM1_CH1_A8, 50, 5000);   //初始化PWM1 通道1 使用引脚A8  输出PWM频率50HZ   占空比为百分之 5000/PWM_DUTY_MAX*100
//                              PWM_DUTY_MAX在zf_pwm.h文件中 默认为10000
//-------------------------------------------------------------------------------------------------------------------
void pwm_init(pwm_channel_enum pin, uint32 freq, uint32 duty)
{
     cdc:	7139                	addi	sp,sp,-64
     cde:	de06                	sw	ra,60(sp)
     ce0:	dc22                	sw	s0,56(sp)
     ce2:	0080                	addi	s0,sp,64
     ce4:	fca42623          	sw	a0,-52(s0)
     ce8:	fcb42423          	sw	a1,-56(s0)
     cec:	fcc42223          	sw	a2,-60(s0)
D:/projects/mechanical_arm/Ctrl_Stepper_Motor/libraries/zf_driver/zf_driver_pwm.c:183
    TIM_TimeBaseInitTypeDef  TIM_TimeBaseStructure;
    TIM_OCInitTypeDef  TIM_OCInitStructure;
    uint16 match_temp;                                          //占空比值
    uint16 period_temp;                                         //周期值
    uint16 freq_div = 0;                                        //分频值
     cf0:	fe041723          	sh	zero,-18(s0)
D:/projects/mechanical_arm/Ctrl_Stepper_Motor/libraries/zf_driver/zf_driver_pwm.c:185

    zf_assert(timer_funciton_check((timer_index_enum)(pin>>8), TIMER_FUNCTION_PWM));
     cf4:	fcc42783          	lw	a5,-52(s0)
     cf8:	83a1                	srli	a5,a5,0x8
     cfa:	458d                	li	a1,3
     cfc:	853e                	mv	a0,a5
     cfe:	2ed5                	jal	10f2 <timer_funciton_check>
     d00:	87aa                	mv	a5,a0
     d02:	873e                	mv	a4,a5
     d04:	0b900613          	li	a2,185
     d08:	67a9                	lui	a5,0xa
     d0a:	f9c78593          	addi	a1,a5,-100 # 9f9c <_sbrk+0x20>
     d0e:	853a                	mv	a0,a4
     d10:	1ee010ef          	jal	ra,1efe <debug_assert_handler>
D:/projects/mechanical_arm/Ctrl_Stepper_Motor/libraries/zf_driver/zf_driver_pwm.c:188

    //开启时钟总线
    timer_clock_enable(pin >> 8);
     d14:	fcc42783          	lw	a5,-52(s0)
     d18:	83a1                	srli	a5,a5,0x8
     d1a:	853e                	mv	a0,a5
     d1c:	213d                	jal	114a <timer_clock_enable>
D:/projects/mechanical_arm/Ctrl_Stepper_Motor/libraries/zf_driver/zf_driver_pwm.c:191

    //PWM引脚初始化
    pwm_gpio_init(pin);
     d1e:	fcc42503          	lw	a0,-52(s0)
     d22:	867ff0ef          	jal	ra,588 <pwm_gpio_init>
D:/projects/mechanical_arm/Ctrl_Stepper_Motor/libraries/zf_driver/zf_driver_pwm.c:194

    //使能AFIO复用功能模块时钟
    RCC_APB2PeriphClockCmd(RCC_APB2Periph_AFIO, ENABLE);
     d26:	4585                	li	a1,1
     d28:	4505                	li	a0,1
     d2a:	6ae020ef          	jal	ra,33d8 <RCC_APB2PeriphClockCmd>
D:/projects/mechanical_arm/Ctrl_Stepper_Motor/libraries/zf_driver/zf_driver_pwm.c:199

    //引脚重映射


    if((pin >> 4) == 0x01)      GPIO_PinRemapConfig(GPIO_FullRemap_TIM1, ENABLE);
     d2e:	fcc42783          	lw	a5,-52(s0)
     d32:	0047d713          	srli	a4,a5,0x4
     d36:	4785                	li	a5,1
     d38:	00f71a63          	bne	a4,a5,d4c <pwm_init+0x70>
D:/projects/mechanical_arm/Ctrl_Stepper_Motor/libraries/zf_driver/zf_driver_pwm.c:199 (discriminator 1)
     d3c:	4585                	li	a1,1
     d3e:	001607b7          	lui	a5,0x160
     d42:	0c078513          	addi	a0,a5,192 # 1600c0 <_data_lma+0x1559dc>
     d46:	28c020ef          	jal	ra,2fd2 <GPIO_PinRemapConfig>
     d4a:	a201                	j	e4a <pwm_init+0x16e>
D:/projects/mechanical_arm/Ctrl_Stepper_Motor/libraries/zf_driver/zf_driver_pwm.c:200
    else if((pin >> 4) == 0x11) GPIO_PinRemapConfig(GPIO_FullRemap_TIM2, ENABLE);
     d4c:	fcc42783          	lw	a5,-52(s0)
     d50:	0047d713          	srli	a4,a5,0x4
     d54:	47c5                	li	a5,17
     d56:	00f71a63          	bne	a4,a5,d6a <pwm_init+0x8e>
D:/projects/mechanical_arm/Ctrl_Stepper_Motor/libraries/zf_driver/zf_driver_pwm.c:200 (discriminator 1)
     d5a:	4585                	li	a1,1
     d5c:	001807b7          	lui	a5,0x180
     d60:	30078513          	addi	a0,a5,768 # 180300 <_data_lma+0x175c1c>
     d64:	26e020ef          	jal	ra,2fd2 <GPIO_PinRemapConfig>
     d68:	a0cd                	j	e4a <pwm_init+0x16e>
D:/projects/mechanical_arm/Ctrl_Stepper_Motor/libraries/zf_driver/zf_driver_pwm.c:201
    else if((pin >> 4) == 0x21) GPIO_PinRemapConfig(GPIO_FullRemap_TIM3, ENABLE);
     d6a:	fcc42783          	lw	a5,-52(s0)
     d6e:	0047d713          	srli	a4,a5,0x4
     d72:	02100793          	li	a5,33
     d76:	00f71a63          	bne	a4,a5,d8a <pwm_init+0xae>
D:/projects/mechanical_arm/Ctrl_Stepper_Motor/libraries/zf_driver/zf_driver_pwm.c:201 (discriminator 1)
     d7a:	4585                	li	a1,1
     d7c:	001a17b7          	lui	a5,0x1a1
     d80:	c0078513          	addi	a0,a5,-1024 # 1a0c00 <_data_lma+0x19651c>
     d84:	24e020ef          	jal	ra,2fd2 <GPIO_PinRemapConfig>
     d88:	a0c9                	j	e4a <pwm_init+0x16e>
D:/projects/mechanical_arm/Ctrl_Stepper_Motor/libraries/zf_driver/zf_driver_pwm.c:202
    else if((pin >> 4) == 0x22) GPIO_PinRemapConfig(GPIO_PartialRemap_TIM3, ENABLE);
     d8a:	fcc42783          	lw	a5,-52(s0)
     d8e:	0047d713          	srli	a4,a5,0x4
     d92:	02200793          	li	a5,34
     d96:	00f71a63          	bne	a4,a5,daa <pwm_init+0xce>
D:/projects/mechanical_arm/Ctrl_Stepper_Motor/libraries/zf_driver/zf_driver_pwm.c:202 (discriminator 1)
     d9a:	4585                	li	a1,1
     d9c:	001a17b7          	lui	a5,0x1a1
     da0:	80078513          	addi	a0,a5,-2048 # 1a0800 <_data_lma+0x19611c>
     da4:	22e020ef          	jal	ra,2fd2 <GPIO_PinRemapConfig>
     da8:	a04d                	j	e4a <pwm_init+0x16e>
D:/projects/mechanical_arm/Ctrl_Stepper_Motor/libraries/zf_driver/zf_driver_pwm.c:203
    else if((pin >> 4) == 0x31) GPIO_PinRemapConfig(GPIO_Remap_TIM4, ENABLE);
     daa:	fcc42783          	lw	a5,-52(s0)
     dae:	0047d713          	srli	a4,a5,0x4
     db2:	03100793          	li	a5,49
     db6:	00f71763          	bne	a4,a5,dc4 <pwm_init+0xe8>
D:/projects/mechanical_arm/Ctrl_Stepper_Motor/libraries/zf_driver/zf_driver_pwm.c:203 (discriminator 1)
     dba:	4585                	li	a1,1
     dbc:	6505                	lui	a0,0x1
     dbe:	214020ef          	jal	ra,2fd2 <GPIO_PinRemapConfig>
     dc2:	a061                	j	e4a <pwm_init+0x16e>
D:/projects/mechanical_arm/Ctrl_Stepper_Motor/libraries/zf_driver/zf_driver_pwm.c:204
    else if((pin >> 4) == 0x71) AFIO->PCFR2 |= 0x01<<2;
     dc4:	fcc42783          	lw	a5,-52(s0)
     dc8:	0047d713          	srli	a4,a5,0x4
     dcc:	07100793          	li	a5,113
     dd0:	00f71b63          	bne	a4,a5,de6 <pwm_init+0x10a>
D:/projects/mechanical_arm/Ctrl_Stepper_Motor/libraries/zf_driver/zf_driver_pwm.c:204 (discriminator 1)
     dd4:	400107b7          	lui	a5,0x40010
     dd8:	4fd8                	lw	a4,28(a5)
     dda:	400107b7          	lui	a5,0x40010
     dde:	00476713          	ori	a4,a4,4
     de2:	cfd8                	sw	a4,28(a5)
     de4:	a09d                	j	e4a <pwm_init+0x16e>
D:/projects/mechanical_arm/Ctrl_Stepper_Motor/libraries/zf_driver/zf_driver_pwm.c:205
    else if((pin >> 4) == 0x81) AFIO->PCFR2 |= 0x02<<3;
     de6:	fcc42783          	lw	a5,-52(s0)
     dea:	0047d713          	srli	a4,a5,0x4
     dee:	08100793          	li	a5,129
     df2:	00f71b63          	bne	a4,a5,e08 <pwm_init+0x12c>
D:/projects/mechanical_arm/Ctrl_Stepper_Motor/libraries/zf_driver/zf_driver_pwm.c:205 (discriminator 1)
     df6:	400107b7          	lui	a5,0x40010
     dfa:	4fd8                	lw	a4,28(a5)
     dfc:	400107b7          	lui	a5,0x40010
     e00:	01076713          	ori	a4,a4,16
     e04:	cfd8                	sw	a4,28(a5)
     e06:	a091                	j	e4a <pwm_init+0x16e>
D:/projects/mechanical_arm/Ctrl_Stepper_Motor/libraries/zf_driver/zf_driver_pwm.c:206
    else if((pin >> 4) == 0x91) AFIO->PCFR2 |= 0x02<<5;
     e08:	fcc42783          	lw	a5,-52(s0)
     e0c:	0047d713          	srli	a4,a5,0x4
     e10:	09100793          	li	a5,145
     e14:	00f71b63          	bne	a4,a5,e2a <pwm_init+0x14e>
D:/projects/mechanical_arm/Ctrl_Stepper_Motor/libraries/zf_driver/zf_driver_pwm.c:206 (discriminator 1)
     e18:	400107b7          	lui	a5,0x40010
     e1c:	4fd8                	lw	a4,28(a5)
     e1e:	400107b7          	lui	a5,0x40010
     e22:	04076713          	ori	a4,a4,64
     e26:	cfd8                	sw	a4,28(a5)
     e28:	a00d                	j	e4a <pwm_init+0x16e>
D:/projects/mechanical_arm/Ctrl_Stepper_Motor/libraries/zf_driver/zf_driver_pwm.c:207
    else if((pin >> 4) == 0x92) AFIO->PCFR2 |= 0x01<<5;
     e2a:	fcc42783          	lw	a5,-52(s0)
     e2e:	0047d713          	srli	a4,a5,0x4
     e32:	09200793          	li	a5,146
     e36:	00f71a63          	bne	a4,a5,e4a <pwm_init+0x16e>
D:/projects/mechanical_arm/Ctrl_Stepper_Motor/libraries/zf_driver/zf_driver_pwm.c:207 (discriminator 1)
     e3a:	400107b7          	lui	a5,0x40010
     e3e:	4fd8                	lw	a4,28(a5)
     e40:	400107b7          	lui	a5,0x40010
     e44:	02076713          	ori	a4,a4,32
     e48:	cfd8                	sw	a4,28(a5)
D:/projects/mechanical_arm/Ctrl_Stepper_Motor/libraries/zf_driver/zf_driver_pwm.c:210


    freq_div = (uint16)((SystemCoreClock / freq) >> 16);                            //多少分频
     e4a:	200007b7          	lui	a5,0x20000
     e4e:	2207a703          	lw	a4,544(a5) # 20000220 <SystemCoreClock>
     e52:	fc842783          	lw	a5,-56(s0)
     e56:	02f757b3          	divu	a5,a4,a5
     e5a:	83c1                	srli	a5,a5,0x10
     e5c:	fef41723          	sh	a5,-18(s0)
D:/projects/mechanical_arm/Ctrl_Stepper_Motor/libraries/zf_driver/zf_driver_pwm.c:211
    period_temp = (uint16)(SystemCoreClock/(freq*(freq_div + 1)));                  //周期
     e60:	200007b7          	lui	a5,0x20000
     e64:	2207a703          	lw	a4,544(a5) # 20000220 <SystemCoreClock>
     e68:	fee45783          	lhu	a5,-18(s0)
     e6c:	0785                	addi	a5,a5,1
     e6e:	86be                	mv	a3,a5
     e70:	fc842783          	lw	a5,-56(s0)
     e74:	02f687b3          	mul	a5,a3,a5
     e78:	02f757b3          	divu	a5,a4,a5
     e7c:	fef41623          	sh	a5,-20(s0)
D:/projects/mechanical_arm/Ctrl_Stepper_Motor/libraries/zf_driver/zf_driver_pwm.c:212
    match_temp = period_temp * duty / PWM_DUTY_MAX;                         //占空比
     e80:	fec45703          	lhu	a4,-20(s0)
     e84:	fc442783          	lw	a5,-60(s0)
     e88:	02f70733          	mul	a4,a4,a5
     e8c:	6789                	lui	a5,0x2
     e8e:	71078793          	addi	a5,a5,1808 # 2710 <TIM7_IRQHandler+0x4>
     e92:	02f757b3          	divu	a5,a4,a5
     e96:	fef41523          	sh	a5,-22(s0)
D:/projects/mechanical_arm/Ctrl_Stepper_Motor/libraries/zf_driver/zf_driver_pwm.c:215

    //初始化TIM
    TIM_TimeBaseStructure.TIM_Period = period_temp - 1;                     //设置在下一个更新事件装入活动的自动重装载寄存器周期的值
     e9a:	fec45783          	lhu	a5,-20(s0)
     e9e:	17fd                	addi	a5,a5,-1
     ea0:	07c2                	slli	a5,a5,0x10
     ea2:	83c1                	srli	a5,a5,0x10
     ea4:	fef41223          	sh	a5,-28(s0)
D:/projects/mechanical_arm/Ctrl_Stepper_Motor/libraries/zf_driver/zf_driver_pwm.c:216
    TIM_TimeBaseStructure.TIM_Prescaler = freq_div;                         //设置用来作为TIMx时钟频率除数的预分频值
     ea8:	fee45783          	lhu	a5,-18(s0)
     eac:	fef41023          	sh	a5,-32(s0)
D:/projects/mechanical_arm/Ctrl_Stepper_Motor/libraries/zf_driver/zf_driver_pwm.c:217
    TIM_TimeBaseStructure.TIM_ClockDivision = TIM_CKD_DIV1;                 //设置时钟分割:TDTS = Tck_tim
     eb0:	fe041323          	sh	zero,-26(s0)
D:/projects/mechanical_arm/Ctrl_Stepper_Motor/libraries/zf_driver/zf_driver_pwm.c:218
    TIM_TimeBaseStructure.TIM_CounterMode = TIM_CounterMode_Up;             //TIM向上计数模式
     eb4:	fe041123          	sh	zero,-30(s0)
D:/projects/mechanical_arm/Ctrl_Stepper_Motor/libraries/zf_driver/zf_driver_pwm.c:219
    TIM_TimeBaseStructure.TIM_RepetitionCounter = 0;
     eb8:	fe040423          	sb	zero,-24(s0)
D:/projects/mechanical_arm/Ctrl_Stepper_Motor/libraries/zf_driver/zf_driver_pwm.c:220
    TIM_TimeBaseInit(((TIM_TypeDef *) tim_index[pin>>8]), &TIM_TimeBaseStructure);  //根据TIM_TimeBaseInitStruct中指定的参数初始化TIMx的时间基数单位
     ebc:	fcc42783          	lw	a5,-52(s0)
     ec0:	0087d713          	srli	a4,a5,0x8
     ec4:	67a9                	lui	a5,0xa
     ec6:	070a                	slli	a4,a4,0x2
     ec8:	09078793          	addi	a5,a5,144 # a090 <tim_index>
     ecc:	97ba                	add	a5,a5,a4
     ece:	439c                	lw	a5,0(a5)
     ed0:	873e                	mv	a4,a5
     ed2:	fe040793          	addi	a5,s0,-32
     ed6:	85be                	mv	a1,a5
     ed8:	853a                	mv	a0,a4
     eda:	58a020ef          	jal	ra,3464 <TIM_TimeBaseInit>
D:/projects/mechanical_arm/Ctrl_Stepper_Motor/libraries/zf_driver/zf_driver_pwm.c:223

    //初始化TIM
    TIM_OCInitStructure.TIM_OCMode = TIM_OCMode_PWM2;                       //选择定时器模式:TIM脉冲宽度调制模式2
     ede:	07000793          	li	a5,112
     ee2:	fcf41823          	sh	a5,-48(s0)
D:/projects/mechanical_arm/Ctrl_Stepper_Motor/libraries/zf_driver/zf_driver_pwm.c:224
    TIM_OCInitStructure.TIM_OutputState = TIM_OutputState_Enable;           //比较输出使能
     ee6:	4785                	li	a5,1
     ee8:	fcf41923          	sh	a5,-46(s0)
D:/projects/mechanical_arm/Ctrl_Stepper_Motor/libraries/zf_driver/zf_driver_pwm.c:225
    TIM_OCInitStructure.TIM_OutputNState = TIM_OutputState_Disable;
     eec:	fc041a23          	sh	zero,-44(s0)
D:/projects/mechanical_arm/Ctrl_Stepper_Motor/libraries/zf_driver/zf_driver_pwm.c:226
    TIM_OCInitStructure.TIM_Pulse = match_temp;
     ef0:	fea45783          	lhu	a5,-22(s0)
     ef4:	fcf41b23          	sh	a5,-42(s0)
D:/projects/mechanical_arm/Ctrl_Stepper_Motor/libraries/zf_driver/zf_driver_pwm.c:227
    TIM_OCInitStructure.TIM_OCPolarity = TIM_OCPolarity_Low;                //输出极性:TIM输出比较极性高
     ef8:	4789                	li	a5,2
     efa:	fcf41c23          	sh	a5,-40(s0)
D:/projects/mechanical_arm/Ctrl_Stepper_Motor/libraries/zf_driver/zf_driver_pwm.c:228
    TIM_OCInitStructure.TIM_OCNPolarity = TIM_OCPolarity_Low;               //输出极性:TIM输出比较极性高
     efe:	4789                	li	a5,2
     f00:	fcf41d23          	sh	a5,-38(s0)
D:/projects/mechanical_arm/Ctrl_Stepper_Motor/libraries/zf_driver/zf_driver_pwm.c:229
    TIM_OCInitStructure.TIM_OCIdleState = TIM_OCIdleState_Reset;
     f04:	fc041e23          	sh	zero,-36(s0)
D:/projects/mechanical_arm/Ctrl_Stepper_Motor/libraries/zf_driver/zf_driver_pwm.c:230
    TIM_OCInitStructure.TIM_OCNIdleState = TIM_OCIdleState_Reset;
     f08:	fc041f23          	sh	zero,-34(s0)
D:/projects/mechanical_arm/Ctrl_Stepper_Motor/libraries/zf_driver/zf_driver_pwm.c:233


    if((pin & 0x03) == 0x00)                                          //通道选择
     f0c:	fcc42783          	lw	a5,-52(s0)
     f10:	8b8d                	andi	a5,a5,3
     f12:	efb9                	bnez	a5,f70 <pwm_init+0x294>
D:/projects/mechanical_arm/Ctrl_Stepper_Motor/libraries/zf_driver/zf_driver_pwm.c:235
    {
        TIM_OC1Init(((TIM_TypeDef *) tim_index[pin>>8]), &TIM_OCInitStructure );                       //定时器通道1初始化
     f14:	fcc42783          	lw	a5,-52(s0)
     f18:	0087d713          	srli	a4,a5,0x8
     f1c:	67a9                	lui	a5,0xa
     f1e:	070a                	slli	a4,a4,0x2
     f20:	09078793          	addi	a5,a5,144 # a090 <tim_index>
     f24:	97ba                	add	a5,a5,a4
     f26:	439c                	lw	a5,0(a5)
     f28:	873e                	mv	a4,a5
     f2a:	fd040793          	addi	a5,s0,-48
     f2e:	85be                	mv	a1,a5
     f30:	853a                	mv	a0,a4
     f32:	6b0020ef          	jal	ra,35e2 <TIM_OC1Init>
D:/projects/mechanical_arm/Ctrl_Stepper_Motor/libraries/zf_driver/zf_driver_pwm.c:236
        TIM_OC1PreloadConfig(((TIM_TypeDef *) tim_index[pin>>8]), TIM_OCPreload_Enable);               //定时器预装载配置
     f36:	fcc42783          	lw	a5,-52(s0)
     f3a:	0087d713          	srli	a4,a5,0x8
     f3e:	67a9                	lui	a5,0xa
     f40:	070a                	slli	a4,a4,0x2
     f42:	09078793          	addi	a5,a5,144 # a090 <tim_index>
     f46:	97ba                	add	a5,a5,a4
     f48:	439c                	lw	a5,0(a5)
     f4a:	45a1                	li	a1,8
     f4c:	853e                	mv	a0,a5
     f4e:	61d020ef          	jal	ra,3d6a <TIM_OC1PreloadConfig>
D:/projects/mechanical_arm/Ctrl_Stepper_Motor/libraries/zf_driver/zf_driver_pwm.c:237
        TIM_OC1FastConfig(((TIM_TypeDef *) tim_index[pin>>8]), TIM_OC1FE);                             //比较捕获通道快速使能
     f52:	fcc42783          	lw	a5,-52(s0)
     f56:	0087d713          	srli	a4,a5,0x8
     f5a:	67a9                	lui	a5,0xa
     f5c:	070a                	slli	a4,a4,0x2
     f5e:	09078793          	addi	a5,a5,144 # a090 <tim_index>
     f62:	97ba                	add	a5,a5,a4
     f64:	439c                	lw	a5,0(a5)
     f66:	4591                	li	a1,4
     f68:	853e                	mv	a0,a5
     f6a:	74d020ef          	jal	ra,3eb6 <TIM_OC1FastConfig>
     f6e:	a289                	j	10b0 <pwm_init+0x3d4>
D:/projects/mechanical_arm/Ctrl_Stepper_Motor/libraries/zf_driver/zf_driver_pwm.c:239
    }
    else if((pin & 0x03) == 0x01)
     f70:	fcc42783          	lw	a5,-52(s0)
     f74:	0037f713          	andi	a4,a5,3
     f78:	4785                	li	a5,1
     f7a:	06f71163          	bne	a4,a5,fdc <pwm_init+0x300>
D:/projects/mechanical_arm/Ctrl_Stepper_Motor/libraries/zf_driver/zf_driver_pwm.c:241
    {
        TIM_OC2Init(((TIM_TypeDef *) tim_index[pin>>8]), &TIM_OCInitStructure );
     f7e:	fcc42783          	lw	a5,-52(s0)
     f82:	0087d713          	srli	a4,a5,0x8
     f86:	67a9                	lui	a5,0xa
     f88:	070a                	slli	a4,a4,0x2
     f8a:	09078793          	addi	a5,a5,144 # a090 <tim_index>
     f8e:	97ba                	add	a5,a5,a4
     f90:	439c                	lw	a5,0(a5)
     f92:	873e                	mv	a4,a5
     f94:	fd040793          	addi	a5,s0,-48
     f98:	85be                	mv	a1,a5
     f9a:	853a                	mv	a0,a4
     f9c:	7e2020ef          	jal	ra,377e <TIM_OC2Init>
D:/projects/mechanical_arm/Ctrl_Stepper_Motor/libraries/zf_driver/zf_driver_pwm.c:242
        TIM_OC2PreloadConfig(((TIM_TypeDef *) tim_index[pin>>8]), TIM_OCPreload_Enable);
     fa0:	fcc42783          	lw	a5,-52(s0)
     fa4:	0087d713          	srli	a4,a5,0x8
     fa8:	67a9                	lui	a5,0xa
     faa:	070a                	slli	a4,a4,0x2
     fac:	09078793          	addi	a5,a5,144 # a090 <tim_index>
     fb0:	97ba                	add	a5,a5,a4
     fb2:	439c                	lw	a5,0(a5)
     fb4:	45a1                	li	a1,8
     fb6:	853e                	mv	a0,a5
     fb8:	5ff020ef          	jal	ra,3db6 <TIM_OC2PreloadConfig>
D:/projects/mechanical_arm/Ctrl_Stepper_Motor/libraries/zf_driver/zf_driver_pwm.c:243
        TIM_OC2FastConfig(((TIM_TypeDef *) tim_index[pin>>8]), TIM_OC2FE);                             //比较捕获通道快速使能
     fbc:	fcc42783          	lw	a5,-52(s0)
     fc0:	0087d713          	srli	a4,a5,0x8
     fc4:	67a9                	lui	a5,0xa
     fc6:	070a                	slli	a4,a4,0x2
     fc8:	09078793          	addi	a5,a5,144 # a090 <tim_index>
     fcc:	97ba                	add	a5,a5,a4
     fce:	439c                	lw	a5,0(a5)
     fd0:	40000593          	li	a1,1024
     fd4:	853e                	mv	a0,a5
     fd6:	72d020ef          	jal	ra,3f02 <TIM_OC2FastConfig>
     fda:	a8d9                	j	10b0 <pwm_init+0x3d4>
D:/projects/mechanical_arm/Ctrl_Stepper_Motor/libraries/zf_driver/zf_driver_pwm.c:245
    }
    else if((pin & 0x03) == 0x02)
     fdc:	fcc42783          	lw	a5,-52(s0)
     fe0:	0037f713          	andi	a4,a5,3
     fe4:	4789                	li	a5,2
     fe6:	06f71063          	bne	a4,a5,1046 <pwm_init+0x36a>
D:/projects/mechanical_arm/Ctrl_Stepper_Motor/libraries/zf_driver/zf_driver_pwm.c:247
    {
        TIM_OC3Init(((TIM_TypeDef *) tim_index[pin>>8]), &TIM_OCInitStructure );
     fea:	fcc42783          	lw	a5,-52(s0)
     fee:	0087d713          	srli	a4,a5,0x8
     ff2:	67a9                	lui	a5,0xa
     ff4:	070a                	slli	a4,a4,0x2
     ff6:	09078793          	addi	a5,a5,144 # a090 <tim_index>
     ffa:	97ba                	add	a5,a5,a4
     ffc:	439c                	lw	a5,0(a5)
     ffe:	873e                	mv	a4,a5
    1000:	fd040793          	addi	a5,s0,-48
    1004:	85be                	mv	a1,a5
    1006:	853a                	mv	a0,a4
    1008:	159020ef          	jal	ra,3960 <TIM_OC3Init>
D:/projects/mechanical_arm/Ctrl_Stepper_Motor/libraries/zf_driver/zf_driver_pwm.c:248
        TIM_OC3PreloadConfig(((TIM_TypeDef *) tim_index[pin>>8]), TIM_OCPreload_Enable);
    100c:	fcc42783          	lw	a5,-52(s0)
    1010:	0087d713          	srli	a4,a5,0x8
    1014:	67a9                	lui	a5,0xa
    1016:	070a                	slli	a4,a4,0x2
    1018:	09078793          	addi	a5,a5,144 # a090 <tim_index>
    101c:	97ba                	add	a5,a5,a4
    101e:	439c                	lw	a5,0(a5)
    1020:	45a1                	li	a1,8
    1022:	853e                	mv	a0,a5
    1024:	5ed020ef          	jal	ra,3e10 <TIM_OC3PreloadConfig>
D:/projects/mechanical_arm/Ctrl_Stepper_Motor/libraries/zf_driver/zf_driver_pwm.c:249
        TIM_OC3FastConfig(((TIM_TypeDef *) tim_index[pin>>8]), TIM_OC3FE);                             //比较捕获通道快速使能
    1028:	fcc42783          	lw	a5,-52(s0)
    102c:	0087d713          	srli	a4,a5,0x8
    1030:	67a9                	lui	a5,0xa
    1032:	070a                	slli	a4,a4,0x2
    1034:	09078793          	addi	a5,a5,144 # a090 <tim_index>
    1038:	97ba                	add	a5,a5,a4
    103a:	439c                	lw	a5,0(a5)
    103c:	4591                	li	a1,4
    103e:	853e                	mv	a0,a5
    1040:	719020ef          	jal	ra,3f58 <TIM_OC3FastConfig>
    1044:	a0b5                	j	10b0 <pwm_init+0x3d4>
D:/projects/mechanical_arm/Ctrl_Stepper_Motor/libraries/zf_driver/zf_driver_pwm.c:251
    }
    else if((pin & 0x03) == 0x03)
    1046:	fcc42783          	lw	a5,-52(s0)
    104a:	0037f713          	andi	a4,a5,3
    104e:	478d                	li	a5,3
    1050:	06f71063          	bne	a4,a5,10b0 <pwm_init+0x3d4>
D:/projects/mechanical_arm/Ctrl_Stepper_Motor/libraries/zf_driver/zf_driver_pwm.c:253
    {
        TIM_OC4Init(((TIM_TypeDef *) tim_index[pin>>8]), &TIM_OCInitStructure );
    1054:	fcc42783          	lw	a5,-52(s0)
    1058:	0087d713          	srli	a4,a5,0x8
    105c:	67a9                	lui	a5,0xa
    105e:	070a                	slli	a4,a4,0x2
    1060:	09078793          	addi	a5,a5,144 # a090 <tim_index>
    1064:	97ba                	add	a5,a5,a4
    1066:	439c                	lw	a5,0(a5)
    1068:	873e                	mv	a4,a5
    106a:	fd040793          	addi	a5,s0,-48
    106e:	85be                	mv	a1,a5
    1070:	853a                	mv	a0,a4
    1072:	2cb020ef          	jal	ra,3b3c <TIM_OC4Init>
D:/projects/mechanical_arm/Ctrl_Stepper_Motor/libraries/zf_driver/zf_driver_pwm.c:254
        TIM_OC4PreloadConfig(((TIM_TypeDef *) tim_index[pin>>8]), TIM_OCPreload_Enable);
    1076:	fcc42783          	lw	a5,-52(s0)
    107a:	0087d713          	srli	a4,a5,0x8
    107e:	67a9                	lui	a5,0xa
    1080:	070a                	slli	a4,a4,0x2
    1082:	09078793          	addi	a5,a5,144 # a090 <tim_index>
    1086:	97ba                	add	a5,a5,a4
    1088:	439c                	lw	a5,0(a5)
    108a:	45a1                	li	a1,8
    108c:	853e                	mv	a0,a5
    108e:	5cf020ef          	jal	ra,3e5c <TIM_OC4PreloadConfig>
D:/projects/mechanical_arm/Ctrl_Stepper_Motor/libraries/zf_driver/zf_driver_pwm.c:255
        TIM_OC4FastConfig(((TIM_TypeDef *) tim_index[pin>>8]), TIM_OC4FE);                             //比较捕获通道快速使能
    1092:	fcc42783          	lw	a5,-52(s0)
    1096:	0087d713          	srli	a4,a5,0x8
    109a:	67a9                	lui	a5,0xa
    109c:	070a                	slli	a4,a4,0x2
    109e:	09078793          	addi	a5,a5,144 # a090 <tim_index>
    10a2:	97ba                	add	a5,a5,a4
    10a4:	439c                	lw	a5,0(a5)
    10a6:	40000593          	li	a1,1024
    10aa:	853e                	mv	a0,a5
    10ac:	6f9020ef          	jal	ra,3fa4 <TIM_OC4FastConfig>
D:/projects/mechanical_arm/Ctrl_Stepper_Motor/libraries/zf_driver/zf_driver_pwm.c:257
    }
    TIM_CtrlPWMOutputs(((TIM_TypeDef *) tim_index[pin>>8]), ENABLE );
    10b0:	fcc42783          	lw	a5,-52(s0)
    10b4:	0087d713          	srli	a4,a5,0x8
    10b8:	67a9                	lui	a5,0xa
    10ba:	070a                	slli	a4,a4,0x2
    10bc:	09078793          	addi	a5,a5,144 # a090 <tim_index>
    10c0:	97ba                	add	a5,a5,a4
    10c2:	439c                	lw	a5,0(a5)
    10c4:	4585                	li	a1,1
    10c6:	853e                	mv	a0,a5
    10c8:	443020ef          	jal	ra,3d0a <TIM_CtrlPWMOutputs>
D:/projects/mechanical_arm/Ctrl_Stepper_Motor/libraries/zf_driver/zf_driver_pwm.c:258
    TIM_Cmd(((TIM_TypeDef *) tim_index[pin>>8]), ENABLE);                                              //定时器使能
    10cc:	fcc42783          	lw	a5,-52(s0)
    10d0:	0087d713          	srli	a4,a5,0x8
    10d4:	67a9                	lui	a5,0xa
    10d6:	070a                	slli	a4,a4,0x2
    10d8:	09078793          	addi	a5,a5,144 # a090 <tim_index>
    10dc:	97ba                	add	a5,a5,a4
    10de:	439c                	lw	a5,0(a5)
    10e0:	4585                	li	a1,1
    10e2:	853e                	mv	a0,a5
    10e4:	3cf020ef          	jal	ra,3cb2 <TIM_Cmd>
D:/projects/mechanical_arm/Ctrl_Stepper_Motor/libraries/zf_driver/zf_driver_pwm.c:260
    //TIM_ARRPreloadConfig( TIM1, ENABLE );
}
    10e8:	0001                	nop
    10ea:	50f2                	lw	ra,60(sp)
    10ec:	5462                	lw	s0,56(sp)
    10ee:	6121                	addi	sp,sp,64
    10f0:	8082                	ret

000010f2 <timer_funciton_check>:
timer_funciton_check():
D:/projects/mechanical_arm/Ctrl_Stepper_Motor/libraries/zf_driver/zf_driver_timer.c:58
// @param       mode            需要确的功能模块
// @return      uint8         1-可以使用 0-不可以使用
// Sample usage:                zf_assert(timer_funciton_check(TIM_1, TIMER_FUNCTION_PWM);
//-------------------------------------------------------------------------------------------------------------------
uint8 timer_funciton_check (timer_index_enum index, timer_function_enum mode)
{
    10f2:	1101                	addi	sp,sp,-32
    10f4:	ce22                	sw	s0,28(sp)
    10f6:	1000                	addi	s0,sp,32
    10f8:	fea42623          	sw	a0,-20(s0)
    10fc:	feb42423          	sw	a1,-24(s0)
D:/projects/mechanical_arm/Ctrl_Stepper_Motor/libraries/zf_driver/zf_driver_timer.c:59
    if(timer_function_state[index] == TIMER_FUNCTION_INIT)
    1100:	fec42703          	lw	a4,-20(s0)
    1104:	070a                	slli	a4,a4,0x2
    1106:	88418793          	addi	a5,gp,-1916 # 200002a4 <timer_function_state>
    110a:	97ba                	add	a5,a5,a4
    110c:	439c                	lw	a5,0(a5)
    110e:	ef81                	bnez	a5,1126 <timer_funciton_check+0x34>
D:/projects/mechanical_arm/Ctrl_Stepper_Motor/libraries/zf_driver/zf_driver_timer.c:60
        timer_function_state[index] = mode;
    1110:	fec42703          	lw	a4,-20(s0)
    1114:	070a                	slli	a4,a4,0x2
    1116:	88418793          	addi	a5,gp,-1916 # 200002a4 <timer_function_state>
    111a:	97ba                	add	a5,a5,a4
    111c:	fe842703          	lw	a4,-24(s0)
    1120:	c398                	sw	a4,0(a5)
D:/projects/mechanical_arm/Ctrl_Stepper_Motor/libraries/zf_driver/zf_driver_timer.c:65
    else if(timer_function_state[index] == mode)
        return 1;
    else
        return 0;
    return 1;
    1122:	4785                	li	a5,1
    1124:	a839                	j	1142 <timer_funciton_check+0x50>
D:/projects/mechanical_arm/Ctrl_Stepper_Motor/libraries/zf_driver/zf_driver_timer.c:61
    else if(timer_function_state[index] == mode)
    1126:	fec42703          	lw	a4,-20(s0)
    112a:	070a                	slli	a4,a4,0x2
    112c:	88418793          	addi	a5,gp,-1916 # 200002a4 <timer_function_state>
    1130:	97ba                	add	a5,a5,a4
    1132:	439c                	lw	a5,0(a5)
    1134:	fe842703          	lw	a4,-24(s0)
    1138:	00f71463          	bne	a4,a5,1140 <timer_funciton_check+0x4e>
D:/projects/mechanical_arm/Ctrl_Stepper_Motor/libraries/zf_driver/zf_driver_timer.c:62
        return 1;
    113c:	4785                	li	a5,1
    113e:	a011                	j	1142 <timer_funciton_check+0x50>
D:/projects/mechanical_arm/Ctrl_Stepper_Motor/libraries/zf_driver/zf_driver_timer.c:64
        return 0;
    1140:	4781                	li	a5,0
D:/projects/mechanical_arm/Ctrl_Stepper_Motor/libraries/zf_driver/zf_driver_timer.c:66
}
    1142:	853e                	mv	a0,a5
    1144:	4472                	lw	s0,28(sp)
    1146:	6105                	addi	sp,sp,32
    1148:	8082                	ret

0000114a <timer_clock_enable>:
timer_clock_enable():
D:/projects/mechanical_arm/Ctrl_Stepper_Motor/libraries/zf_driver/zf_driver_timer.c:75
//  @param      timer_ch      定时器通道
//  @return     void
//  Sample usage:          内部使用，用户无需关心
//-------------------------------------------------------------------------------------------------------------------
void timer_clock_enable(timer_index_enum index)
{
    114a:	1101                	addi	sp,sp,-32
    114c:	ce06                	sw	ra,28(sp)
    114e:	cc22                	sw	s0,24(sp)
    1150:	1000                	addi	s0,sp,32
    1152:	fea42623          	sw	a0,-20(s0)
D:/projects/mechanical_arm/Ctrl_Stepper_Motor/libraries/zf_driver/zf_driver_timer.c:76
    if(TIM_1 == index)        RCC_APB2PeriphClockCmd(RCC_APB2Periph_TIM1, ENABLE);//使能定时器1的时钟
    1156:	fec42783          	lw	a5,-20(s0)
    115a:	eb81                	bnez	a5,116a <timer_clock_enable+0x20>
D:/projects/mechanical_arm/Ctrl_Stepper_Motor/libraries/zf_driver/zf_driver_timer.c:76 (discriminator 1)
    115c:	4585                	li	a1,1
    115e:	6785                	lui	a5,0x1
    1160:	80078513          	addi	a0,a5,-2048 # 800 <__stack_size>
    1164:	274020ef          	jal	ra,33d8 <RCC_APB2PeriphClockCmd>
D:/projects/mechanical_arm/Ctrl_Stepper_Motor/libraries/zf_driver/zf_driver_timer.c:86 (discriminator 1)
    else  if(TIM_6 == index)  RCC_APB1PeriphClockCmd(RCC_APB1Periph_TIM6, ENABLE);//使能定时器6的时钟
    else  if(TIM_7 == index)  RCC_APB1PeriphClockCmd(RCC_APB1Periph_TIM7, ENABLE);//使能定时器7的时钟
    else  if(TIM_8 == index)  RCC_APB2PeriphClockCmd(RCC_APB2Periph_TIM8, ENABLE);//使能定时器8的时钟
    else  if(TIM_9 == index)  RCC_APB2PeriphClockCmd(RCC_APB2Periph_TIM9, ENABLE);//使能定时器9的时钟
    else  if(TIM_10== index)  RCC_APB2PeriphClockCmd(RCC_APB2Periph_TIM10,ENABLE);//使能定时器10的时钟
}
    1168:	a86d                	j	1222 <timer_clock_enable+0xd8>
D:/projects/mechanical_arm/Ctrl_Stepper_Motor/libraries/zf_driver/zf_driver_timer.c:77
    else  if(TIM_2 == index)  RCC_APB1PeriphClockCmd(RCC_APB1Periph_TIM2, ENABLE);//使能定时器2的时钟
    116a:	fec42703          	lw	a4,-20(s0)
    116e:	4785                	li	a5,1
    1170:	00f71763          	bne	a4,a5,117e <timer_clock_enable+0x34>
D:/projects/mechanical_arm/Ctrl_Stepper_Motor/libraries/zf_driver/zf_driver_timer.c:77 (discriminator 1)
    1174:	4585                	li	a1,1
    1176:	4505                	li	a0,1
    1178:	2a6020ef          	jal	ra,341e <RCC_APB1PeriphClockCmd>
D:/projects/mechanical_arm/Ctrl_Stepper_Motor/libraries/zf_driver/zf_driver_timer.c:86 (discriminator 1)
}
    117c:	a05d                	j	1222 <timer_clock_enable+0xd8>
D:/projects/mechanical_arm/Ctrl_Stepper_Motor/libraries/zf_driver/zf_driver_timer.c:78
    else  if(TIM_3 == index)  RCC_APB1PeriphClockCmd(RCC_APB1Periph_TIM3, ENABLE);//使能定时器3的时钟
    117e:	fec42703          	lw	a4,-20(s0)
    1182:	4789                	li	a5,2
    1184:	00f71763          	bne	a4,a5,1192 <timer_clock_enable+0x48>
D:/projects/mechanical_arm/Ctrl_Stepper_Motor/libraries/zf_driver/zf_driver_timer.c:78 (discriminator 1)
    1188:	4585                	li	a1,1
    118a:	4509                	li	a0,2
    118c:	292020ef          	jal	ra,341e <RCC_APB1PeriphClockCmd>
D:/projects/mechanical_arm/Ctrl_Stepper_Motor/libraries/zf_driver/zf_driver_timer.c:86 (discriminator 1)
}
    1190:	a849                	j	1222 <timer_clock_enable+0xd8>
D:/projects/mechanical_arm/Ctrl_Stepper_Motor/libraries/zf_driver/zf_driver_timer.c:79
    else  if(TIM_4 == index)  RCC_APB1PeriphClockCmd(RCC_APB1Periph_TIM4, ENABLE);//使能定时器4的时钟
    1192:	fec42703          	lw	a4,-20(s0)
    1196:	478d                	li	a5,3
    1198:	00f71763          	bne	a4,a5,11a6 <timer_clock_enable+0x5c>
D:/projects/mechanical_arm/Ctrl_Stepper_Motor/libraries/zf_driver/zf_driver_timer.c:79 (discriminator 1)
    119c:	4585                	li	a1,1
    119e:	4511                	li	a0,4
    11a0:	27e020ef          	jal	ra,341e <RCC_APB1PeriphClockCmd>
D:/projects/mechanical_arm/Ctrl_Stepper_Motor/libraries/zf_driver/zf_driver_timer.c:86 (discriminator 1)
}
    11a4:	a8bd                	j	1222 <timer_clock_enable+0xd8>
D:/projects/mechanical_arm/Ctrl_Stepper_Motor/libraries/zf_driver/zf_driver_timer.c:80
    else  if(TIM_5 == index)  RCC_APB1PeriphClockCmd(RCC_APB1Periph_TIM5, ENABLE);//使能定时器5的时钟
    11a6:	fec42703          	lw	a4,-20(s0)
    11aa:	4791                	li	a5,4
    11ac:	00f71763          	bne	a4,a5,11ba <timer_clock_enable+0x70>
D:/projects/mechanical_arm/Ctrl_Stepper_Motor/libraries/zf_driver/zf_driver_timer.c:80 (discriminator 1)
    11b0:	4585                	li	a1,1
    11b2:	4521                	li	a0,8
    11b4:	26a020ef          	jal	ra,341e <RCC_APB1PeriphClockCmd>
D:/projects/mechanical_arm/Ctrl_Stepper_Motor/libraries/zf_driver/zf_driver_timer.c:86 (discriminator 1)
}
    11b8:	a0ad                	j	1222 <timer_clock_enable+0xd8>
D:/projects/mechanical_arm/Ctrl_Stepper_Motor/libraries/zf_driver/zf_driver_timer.c:81
    else  if(TIM_6 == index)  RCC_APB1PeriphClockCmd(RCC_APB1Periph_TIM6, ENABLE);//使能定时器6的时钟
    11ba:	fec42703          	lw	a4,-20(s0)
    11be:	4795                	li	a5,5
    11c0:	00f71763          	bne	a4,a5,11ce <timer_clock_enable+0x84>
D:/projects/mechanical_arm/Ctrl_Stepper_Motor/libraries/zf_driver/zf_driver_timer.c:81 (discriminator 1)
    11c4:	4585                	li	a1,1
    11c6:	4541                	li	a0,16
    11c8:	256020ef          	jal	ra,341e <RCC_APB1PeriphClockCmd>
D:/projects/mechanical_arm/Ctrl_Stepper_Motor/libraries/zf_driver/zf_driver_timer.c:86 (discriminator 1)
}
    11cc:	a899                	j	1222 <timer_clock_enable+0xd8>
D:/projects/mechanical_arm/Ctrl_Stepper_Motor/libraries/zf_driver/zf_driver_timer.c:82
    else  if(TIM_7 == index)  RCC_APB1PeriphClockCmd(RCC_APB1Periph_TIM7, ENABLE);//使能定时器7的时钟
    11ce:	fec42703          	lw	a4,-20(s0)
    11d2:	4799                	li	a5,6
    11d4:	00f71863          	bne	a4,a5,11e4 <timer_clock_enable+0x9a>
D:/projects/mechanical_arm/Ctrl_Stepper_Motor/libraries/zf_driver/zf_driver_timer.c:82 (discriminator 1)
    11d8:	4585                	li	a1,1
    11da:	02000513          	li	a0,32
    11de:	240020ef          	jal	ra,341e <RCC_APB1PeriphClockCmd>
D:/projects/mechanical_arm/Ctrl_Stepper_Motor/libraries/zf_driver/zf_driver_timer.c:86 (discriminator 1)
}
    11e2:	a081                	j	1222 <timer_clock_enable+0xd8>
D:/projects/mechanical_arm/Ctrl_Stepper_Motor/libraries/zf_driver/zf_driver_timer.c:83
    else  if(TIM_8 == index)  RCC_APB2PeriphClockCmd(RCC_APB2Periph_TIM8, ENABLE);//使能定时器8的时钟
    11e4:	fec42703          	lw	a4,-20(s0)
    11e8:	479d                	li	a5,7
    11ea:	00f71763          	bne	a4,a5,11f8 <timer_clock_enable+0xae>
D:/projects/mechanical_arm/Ctrl_Stepper_Motor/libraries/zf_driver/zf_driver_timer.c:83 (discriminator 1)
    11ee:	4585                	li	a1,1
    11f0:	6509                	lui	a0,0x2
    11f2:	1e6020ef          	jal	ra,33d8 <RCC_APB2PeriphClockCmd>
D:/projects/mechanical_arm/Ctrl_Stepper_Motor/libraries/zf_driver/zf_driver_timer.c:86 (discriminator 1)
}
    11f6:	a035                	j	1222 <timer_clock_enable+0xd8>
D:/projects/mechanical_arm/Ctrl_Stepper_Motor/libraries/zf_driver/zf_driver_timer.c:84
    else  if(TIM_9 == index)  RCC_APB2PeriphClockCmd(RCC_APB2Periph_TIM9, ENABLE);//使能定时器9的时钟
    11f8:	fec42703          	lw	a4,-20(s0)
    11fc:	47a1                	li	a5,8
    11fe:	00f71863          	bne	a4,a5,120e <timer_clock_enable+0xc4>
D:/projects/mechanical_arm/Ctrl_Stepper_Motor/libraries/zf_driver/zf_driver_timer.c:84 (discriminator 1)
    1202:	4585                	li	a1,1
    1204:	00080537          	lui	a0,0x80
    1208:	1d0020ef          	jal	ra,33d8 <RCC_APB2PeriphClockCmd>
D:/projects/mechanical_arm/Ctrl_Stepper_Motor/libraries/zf_driver/zf_driver_timer.c:86 (discriminator 1)
}
    120c:	a819                	j	1222 <timer_clock_enable+0xd8>
D:/projects/mechanical_arm/Ctrl_Stepper_Motor/libraries/zf_driver/zf_driver_timer.c:85
    else  if(TIM_10== index)  RCC_APB2PeriphClockCmd(RCC_APB2Periph_TIM10,ENABLE);//使能定时器10的时钟
    120e:	fec42703          	lw	a4,-20(s0)
    1212:	47a5                	li	a5,9
    1214:	00f71763          	bne	a4,a5,1222 <timer_clock_enable+0xd8>
D:/projects/mechanical_arm/Ctrl_Stepper_Motor/libraries/zf_driver/zf_driver_timer.c:85 (discriminator 1)
    1218:	4585                	li	a1,1
    121a:	00100537          	lui	a0,0x100
    121e:	1ba020ef          	jal	ra,33d8 <RCC_APB2PeriphClockCmd>
D:/projects/mechanical_arm/Ctrl_Stepper_Motor/libraries/zf_driver/zf_driver_timer.c:86
}
    1222:	0001                	nop
    1224:	40f2                	lw	ra,28(sp)
    1226:	4462                	lw	s0,24(sp)
    1228:	6105                	addi	sp,sp,32
    122a:	8082                	ret

0000122c <uart_gpio_init>:
uart_gpio_init():
D:/projects/mechanical_arm/Ctrl_Stepper_Motor/libraries/zf_driver/zf_driver_uart.c:40
//  @param      rx_pin      串口接收引脚号
//  @return     void
//  Sample usage:           内部使用，用户无需关心
//-------------------------------------------------------------------------------------------------------------------
void uart_gpio_init(uart_pin_enum tx_pin, uart_pin_enum rx_pin)
{
    122c:	1101                	addi	sp,sp,-32
    122e:	ce06                	sw	ra,28(sp)
    1230:	cc22                	sw	s0,24(sp)
    1232:	1000                	addi	s0,sp,32
    1234:	fea42623          	sw	a0,-20(s0)
    1238:	feb42423          	sw	a1,-24(s0)
D:/projects/mechanical_arm/Ctrl_Stepper_Motor/libraries/zf_driver/zf_driver_uart.c:41
    if     (tx_pin == UART1_TX_A9 )     gpio_init(A9,  GPO, 0, GPO_AF_PUSH_PULL);
    123c:	fec42783          	lw	a5,-20(s0)
    1240:	eb81                	bnez	a5,1250 <uart_gpio_init+0x24>
D:/projects/mechanical_arm/Ctrl_Stepper_Motor/libraries/zf_driver/zf_driver_uart.c:41 (discriminator 1)
    1242:	46e1                	li	a3,24
    1244:	4601                	li	a2,0
    1246:	4585                	li	a1,1
    1248:	4525                	li	a0,9
    124a:	9a8ff0ef          	jal	ra,3f2 <gpio_init>
    124e:	aac9                	j	1420 <uart_gpio_init+0x1f4>
D:/projects/mechanical_arm/Ctrl_Stepper_Motor/libraries/zf_driver/zf_driver_uart.c:42
    else if(tx_pin == UART1_TX_B6 )     gpio_init(B6,  GPO, 0, GPO_AF_PUSH_PULL);
    1250:	fec42703          	lw	a4,-20(s0)
    1254:	4789                	li	a5,2
    1256:	00f71a63          	bne	a4,a5,126a <uart_gpio_init+0x3e>
D:/projects/mechanical_arm/Ctrl_Stepper_Motor/libraries/zf_driver/zf_driver_uart.c:42 (discriminator 1)
    125a:	46e1                	li	a3,24
    125c:	4601                	li	a2,0
    125e:	4585                	li	a1,1
    1260:	02600513          	li	a0,38
    1264:	98eff0ef          	jal	ra,3f2 <gpio_init>
    1268:	aa65                	j	1420 <uart_gpio_init+0x1f4>
D:/projects/mechanical_arm/Ctrl_Stepper_Motor/libraries/zf_driver/zf_driver_uart.c:43
    else if(tx_pin == UART2_TX_A2 )     gpio_init(A2,  GPO, 0, GPO_AF_PUSH_PULL);
    126a:	fec42703          	lw	a4,-20(s0)
    126e:	47c1                	li	a5,16
    1270:	00f71963          	bne	a4,a5,1282 <uart_gpio_init+0x56>
D:/projects/mechanical_arm/Ctrl_Stepper_Motor/libraries/zf_driver/zf_driver_uart.c:43 (discriminator 1)
    1274:	46e1                	li	a3,24
    1276:	4601                	li	a2,0
    1278:	4585                	li	a1,1
    127a:	4509                	li	a0,2
    127c:	976ff0ef          	jal	ra,3f2 <gpio_init>
    1280:	a245                	j	1420 <uart_gpio_init+0x1f4>
D:/projects/mechanical_arm/Ctrl_Stepper_Motor/libraries/zf_driver/zf_driver_uart.c:44
    else if(tx_pin == UART2_TX_D5 )     gpio_init(D5,  GPO, 0, GPO_AF_PUSH_PULL);
    1282:	fec42703          	lw	a4,-20(s0)
    1286:	47c9                	li	a5,18
    1288:	00f71a63          	bne	a4,a5,129c <uart_gpio_init+0x70>
D:/projects/mechanical_arm/Ctrl_Stepper_Motor/libraries/zf_driver/zf_driver_uart.c:44 (discriminator 1)
    128c:	46e1                	li	a3,24
    128e:	4601                	li	a2,0
    1290:	4585                	li	a1,1
    1292:	06500513          	li	a0,101
    1296:	95cff0ef          	jal	ra,3f2 <gpio_init>
    129a:	a259                	j	1420 <uart_gpio_init+0x1f4>
D:/projects/mechanical_arm/Ctrl_Stepper_Motor/libraries/zf_driver/zf_driver_uart.c:45
    else if(tx_pin == UART3_TX_B10)     gpio_init(B10, GPO, 0, GPO_AF_PUSH_PULL);
    129c:	fec42703          	lw	a4,-20(s0)
    12a0:	02000793          	li	a5,32
    12a4:	00f71a63          	bne	a4,a5,12b8 <uart_gpio_init+0x8c>
D:/projects/mechanical_arm/Ctrl_Stepper_Motor/libraries/zf_driver/zf_driver_uart.c:45 (discriminator 1)
    12a8:	46e1                	li	a3,24
    12aa:	4601                	li	a2,0
    12ac:	4585                	li	a1,1
    12ae:	02a00513          	li	a0,42
    12b2:	940ff0ef          	jal	ra,3f2 <gpio_init>
    12b6:	a2ad                	j	1420 <uart_gpio_init+0x1f4>
D:/projects/mechanical_arm/Ctrl_Stepper_Motor/libraries/zf_driver/zf_driver_uart.c:46
    else if(tx_pin == UART3_TX_C10)     gpio_init(C10, GPO, 0, GPO_AF_PUSH_PULL);
    12b8:	fec42703          	lw	a4,-20(s0)
    12bc:	02200793          	li	a5,34
    12c0:	00f71a63          	bne	a4,a5,12d4 <uart_gpio_init+0xa8>
D:/projects/mechanical_arm/Ctrl_Stepper_Motor/libraries/zf_driver/zf_driver_uart.c:46 (discriminator 1)
    12c4:	46e1                	li	a3,24
    12c6:	4601                	li	a2,0
    12c8:	4585                	li	a1,1
    12ca:	04a00513          	li	a0,74
    12ce:	924ff0ef          	jal	ra,3f2 <gpio_init>
    12d2:	a2b9                	j	1420 <uart_gpio_init+0x1f4>
D:/projects/mechanical_arm/Ctrl_Stepper_Motor/libraries/zf_driver/zf_driver_uart.c:47
    else if(tx_pin == UART3_TX_D8 )     gpio_init(D8,  GPO, 0, GPO_AF_PUSH_PULL);
    12d4:	fec42703          	lw	a4,-20(s0)
    12d8:	02400793          	li	a5,36
    12dc:	00f71a63          	bne	a4,a5,12f0 <uart_gpio_init+0xc4>
D:/projects/mechanical_arm/Ctrl_Stepper_Motor/libraries/zf_driver/zf_driver_uart.c:47 (discriminator 1)
    12e0:	46e1                	li	a3,24
    12e2:	4601                	li	a2,0
    12e4:	4585                	li	a1,1
    12e6:	06800513          	li	a0,104
    12ea:	908ff0ef          	jal	ra,3f2 <gpio_init>
    12ee:	aa0d                	j	1420 <uart_gpio_init+0x1f4>
D:/projects/mechanical_arm/Ctrl_Stepper_Motor/libraries/zf_driver/zf_driver_uart.c:48
    else if(tx_pin == UART4_TX_C10)     gpio_init(C10, GPO, 0, GPO_AF_PUSH_PULL);
    12f0:	fec42703          	lw	a4,-20(s0)
    12f4:	04000793          	li	a5,64
    12f8:	00f71a63          	bne	a4,a5,130c <uart_gpio_init+0xe0>
D:/projects/mechanical_arm/Ctrl_Stepper_Motor/libraries/zf_driver/zf_driver_uart.c:48 (discriminator 1)
    12fc:	46e1                	li	a3,24
    12fe:	4601                	li	a2,0
    1300:	4585                	li	a1,1
    1302:	04a00513          	li	a0,74
    1306:	8ecff0ef          	jal	ra,3f2 <gpio_init>
    130a:	aa19                	j	1420 <uart_gpio_init+0x1f4>
D:/projects/mechanical_arm/Ctrl_Stepper_Motor/libraries/zf_driver/zf_driver_uart.c:49
    else if(tx_pin == UART4_TX_B0)      gpio_init(B0, GPO, 0, GPO_AF_PUSH_PULL);
    130c:	fec42703          	lw	a4,-20(s0)
    1310:	04200793          	li	a5,66
    1314:	00f71a63          	bne	a4,a5,1328 <uart_gpio_init+0xfc>
D:/projects/mechanical_arm/Ctrl_Stepper_Motor/libraries/zf_driver/zf_driver_uart.c:49 (discriminator 1)
    1318:	46e1                	li	a3,24
    131a:	4601                	li	a2,0
    131c:	4585                	li	a1,1
    131e:	02000513          	li	a0,32
    1322:	8d0ff0ef          	jal	ra,3f2 <gpio_init>
    1326:	a8ed                	j	1420 <uart_gpio_init+0x1f4>
D:/projects/mechanical_arm/Ctrl_Stepper_Motor/libraries/zf_driver/zf_driver_uart.c:50
    else if(tx_pin == UART5_TX_C12)     gpio_init(C12, GPO, 0, GPO_AF_PUSH_PULL);
    1328:	fec42703          	lw	a4,-20(s0)
    132c:	05000793          	li	a5,80
    1330:	00f71a63          	bne	a4,a5,1344 <uart_gpio_init+0x118>
D:/projects/mechanical_arm/Ctrl_Stepper_Motor/libraries/zf_driver/zf_driver_uart.c:50 (discriminator 1)
    1334:	46e1                	li	a3,24
    1336:	4601                	li	a2,0
    1338:	4585                	li	a1,1
    133a:	04c00513          	li	a0,76
    133e:	8b4ff0ef          	jal	ra,3f2 <gpio_init>
    1342:	a8f9                	j	1420 <uart_gpio_init+0x1f4>
D:/projects/mechanical_arm/Ctrl_Stepper_Motor/libraries/zf_driver/zf_driver_uart.c:51
    else if(tx_pin == UART5_TX_E8)      gpio_init(E8, GPO, 0, GPO_AF_PUSH_PULL);
    1344:	fec42703          	lw	a4,-20(s0)
    1348:	05200793          	li	a5,82
    134c:	00f71a63          	bne	a4,a5,1360 <uart_gpio_init+0x134>
D:/projects/mechanical_arm/Ctrl_Stepper_Motor/libraries/zf_driver/zf_driver_uart.c:51 (discriminator 1)
    1350:	46e1                	li	a3,24
    1352:	4601                	li	a2,0
    1354:	4585                	li	a1,1
    1356:	08800513          	li	a0,136
    135a:	898ff0ef          	jal	ra,3f2 <gpio_init>
    135e:	a0c9                	j	1420 <uart_gpio_init+0x1f4>
D:/projects/mechanical_arm/Ctrl_Stepper_Motor/libraries/zf_driver/zf_driver_uart.c:52
    else if(tx_pin == UART6_TX_C0 )     gpio_init(C0,  GPO, 0, GPO_AF_PUSH_PULL);
    1360:	fec42703          	lw	a4,-20(s0)
    1364:	06000793          	li	a5,96
    1368:	00f71a63          	bne	a4,a5,137c <uart_gpio_init+0x150>
D:/projects/mechanical_arm/Ctrl_Stepper_Motor/libraries/zf_driver/zf_driver_uart.c:52 (discriminator 1)
    136c:	46e1                	li	a3,24
    136e:	4601                	li	a2,0
    1370:	4585                	li	a1,1
    1372:	04000513          	li	a0,64
    1376:	87cff0ef          	jal	ra,3f2 <gpio_init>
    137a:	a05d                	j	1420 <uart_gpio_init+0x1f4>
D:/projects/mechanical_arm/Ctrl_Stepper_Motor/libraries/zf_driver/zf_driver_uart.c:53
    else if(tx_pin == UART6_TX_E10 )    gpio_init(C0,  GPO, 0, GPO_AF_PUSH_PULL);
    137c:	fec42703          	lw	a4,-20(s0)
    1380:	06200793          	li	a5,98
    1384:	00f71a63          	bne	a4,a5,1398 <uart_gpio_init+0x16c>
D:/projects/mechanical_arm/Ctrl_Stepper_Motor/libraries/zf_driver/zf_driver_uart.c:53 (discriminator 1)
    1388:	46e1                	li	a3,24
    138a:	4601                	li	a2,0
    138c:	4585                	li	a1,1
    138e:	04000513          	li	a0,64
    1392:	860ff0ef          	jal	ra,3f2 <gpio_init>
    1396:	a069                	j	1420 <uart_gpio_init+0x1f4>
D:/projects/mechanical_arm/Ctrl_Stepper_Motor/libraries/zf_driver/zf_driver_uart.c:54
    else if(tx_pin == UART7_TX_C2 )     gpio_init(C2,  GPO, 0, GPO_AF_PUSH_PULL);
    1398:	fec42703          	lw	a4,-20(s0)
    139c:	07000793          	li	a5,112
    13a0:	00f71a63          	bne	a4,a5,13b4 <uart_gpio_init+0x188>
D:/projects/mechanical_arm/Ctrl_Stepper_Motor/libraries/zf_driver/zf_driver_uart.c:54 (discriminator 1)
    13a4:	46e1                	li	a3,24
    13a6:	4601                	li	a2,0
    13a8:	4585                	li	a1,1
    13aa:	04200513          	li	a0,66
    13ae:	844ff0ef          	jal	ra,3f2 <gpio_init>
    13b2:	a0bd                	j	1420 <uart_gpio_init+0x1f4>
D:/projects/mechanical_arm/Ctrl_Stepper_Motor/libraries/zf_driver/zf_driver_uart.c:55
    else if(tx_pin == UART7_TX_A6 )     gpio_init(A6,  GPO, 0, GPO_AF_PUSH_PULL);
    13b4:	fec42703          	lw	a4,-20(s0)
    13b8:	07200793          	li	a5,114
    13bc:	00f71963          	bne	a4,a5,13ce <uart_gpio_init+0x1a2>
D:/projects/mechanical_arm/Ctrl_Stepper_Motor/libraries/zf_driver/zf_driver_uart.c:55 (discriminator 1)
    13c0:	46e1                	li	a3,24
    13c2:	4601                	li	a2,0
    13c4:	4585                	li	a1,1
    13c6:	4519                	li	a0,6
    13c8:	82aff0ef          	jal	ra,3f2 <gpio_init>
    13cc:	a891                	j	1420 <uart_gpio_init+0x1f4>
D:/projects/mechanical_arm/Ctrl_Stepper_Motor/libraries/zf_driver/zf_driver_uart.c:56
    else if(tx_pin == UART7_TX_E12 )    gpio_init(E12,  GPO, 0, GPO_AF_PUSH_PULL);
    13ce:	fec42703          	lw	a4,-20(s0)
    13d2:	07400793          	li	a5,116
    13d6:	00f71a63          	bne	a4,a5,13ea <uart_gpio_init+0x1be>
D:/projects/mechanical_arm/Ctrl_Stepper_Motor/libraries/zf_driver/zf_driver_uart.c:56 (discriminator 1)
    13da:	46e1                	li	a3,24
    13dc:	4601                	li	a2,0
    13de:	4585                	li	a1,1
    13e0:	08c00513          	li	a0,140
    13e4:	80eff0ef          	jal	ra,3f2 <gpio_init>
    13e8:	a825                	j	1420 <uart_gpio_init+0x1f4>
D:/projects/mechanical_arm/Ctrl_Stepper_Motor/libraries/zf_driver/zf_driver_uart.c:57
    else if(tx_pin == UART8_TX_C4 )     gpio_init(C4,  GPO, 0, GPO_AF_PUSH_PULL);
    13ea:	fec42703          	lw	a4,-20(s0)
    13ee:	08000793          	li	a5,128
    13f2:	00f71a63          	bne	a4,a5,1406 <uart_gpio_init+0x1da>
D:/projects/mechanical_arm/Ctrl_Stepper_Motor/libraries/zf_driver/zf_driver_uart.c:57 (discriminator 1)
    13f6:	46e1                	li	a3,24
    13f8:	4601                	li	a2,0
    13fa:	4585                	li	a1,1
    13fc:	04400513          	li	a0,68
    1400:	ff3fe0ef          	jal	ra,3f2 <gpio_init>
    1404:	a831                	j	1420 <uart_gpio_init+0x1f4>
D:/projects/mechanical_arm/Ctrl_Stepper_Motor/libraries/zf_driver/zf_driver_uart.c:58
    else if(tx_pin == UART8_TX_E14 )    gpio_init(E14,  GPO, 0, GPO_AF_PUSH_PULL);
    1406:	fec42703          	lw	a4,-20(s0)
    140a:	08200793          	li	a5,130
    140e:	00f71963          	bne	a4,a5,1420 <uart_gpio_init+0x1f4>
D:/projects/mechanical_arm/Ctrl_Stepper_Motor/libraries/zf_driver/zf_driver_uart.c:58 (discriminator 1)
    1412:	46e1                	li	a3,24
    1414:	4601                	li	a2,0
    1416:	4585                	li	a1,1
    1418:	08e00513          	li	a0,142
    141c:	fd7fe0ef          	jal	ra,3f2 <gpio_init>
D:/projects/mechanical_arm/Ctrl_Stepper_Motor/libraries/zf_driver/zf_driver_uart.c:60

    if     (rx_pin == UART1_RX_A10)     gpio_init(A10, GPI, 0, GPI_PULL_UP);
    1420:	fe842703          	lw	a4,-24(s0)
    1424:	4785                	li	a5,1
    1426:	00f71a63          	bne	a4,a5,143a <uart_gpio_init+0x20e>
D:/projects/mechanical_arm/Ctrl_Stepper_Motor/libraries/zf_driver/zf_driver_uart.c:60 (discriminator 1)
    142a:	04800693          	li	a3,72
    142e:	4601                	li	a2,0
    1430:	4581                	li	a1,0
    1432:	4529                	li	a0,10
    1434:	fbffe0ef          	jal	ra,3f2 <gpio_init>
D:/projects/mechanical_arm/Ctrl_Stepper_Motor/libraries/zf_driver/zf_driver_uart.c:78 (discriminator 1)
    else if(rx_pin == UART7_RX_C3 )     gpio_init(C3,  GPI, 0, GPI_PULL_UP);
    else if(rx_pin == UART7_RX_A7 )     gpio_init(A7,  GPI, 0, GPI_PULL_UP);
    else if(rx_pin == UART7_RX_E13 )    gpio_init(E13,  GPI, 0, GPI_PULL_UP);
    else if(rx_pin == UART8_RX_C5 )     gpio_init(C5,  GPI, 0, GPI_PULL_UP);
    else if(rx_pin == UART8_RX_E15 )    gpio_init(E15,  GPI, 0, GPI_PULL_UP);
}
    1438:	aad5                	j	162c <uart_gpio_init+0x400>
D:/projects/mechanical_arm/Ctrl_Stepper_Motor/libraries/zf_driver/zf_driver_uart.c:61
    else if(rx_pin == UART1_RX_B7 )     gpio_init(B7,  GPI, 0, GPI_PULL_UP);
    143a:	fe842703          	lw	a4,-24(s0)
    143e:	478d                	li	a5,3
    1440:	00f71b63          	bne	a4,a5,1456 <uart_gpio_init+0x22a>
D:/projects/mechanical_arm/Ctrl_Stepper_Motor/libraries/zf_driver/zf_driver_uart.c:61 (discriminator 1)
    1444:	04800693          	li	a3,72
    1448:	4601                	li	a2,0
    144a:	4581                	li	a1,0
    144c:	02700513          	li	a0,39
    1450:	fa3fe0ef          	jal	ra,3f2 <gpio_init>
D:/projects/mechanical_arm/Ctrl_Stepper_Motor/libraries/zf_driver/zf_driver_uart.c:78 (discriminator 1)
}
    1454:	aae1                	j	162c <uart_gpio_init+0x400>
D:/projects/mechanical_arm/Ctrl_Stepper_Motor/libraries/zf_driver/zf_driver_uart.c:62
    else if(rx_pin == UART2_RX_A3 )     gpio_init(A3,  GPI, 0, GPI_PULL_UP);
    1456:	fe842703          	lw	a4,-24(s0)
    145a:	47c5                	li	a5,17
    145c:	00f71a63          	bne	a4,a5,1470 <uart_gpio_init+0x244>
D:/projects/mechanical_arm/Ctrl_Stepper_Motor/libraries/zf_driver/zf_driver_uart.c:62 (discriminator 1)
    1460:	04800693          	li	a3,72
    1464:	4601                	li	a2,0
    1466:	4581                	li	a1,0
    1468:	450d                	li	a0,3
    146a:	f89fe0ef          	jal	ra,3f2 <gpio_init>
D:/projects/mechanical_arm/Ctrl_Stepper_Motor/libraries/zf_driver/zf_driver_uart.c:78 (discriminator 1)
}
    146e:	aa7d                	j	162c <uart_gpio_init+0x400>
D:/projects/mechanical_arm/Ctrl_Stepper_Motor/libraries/zf_driver/zf_driver_uart.c:63
    else if(rx_pin == UART2_RX_D6 )     gpio_init(D6,  GPI, 0, GPI_PULL_UP);
    1470:	fe842703          	lw	a4,-24(s0)
    1474:	47cd                	li	a5,19
    1476:	00f71b63          	bne	a4,a5,148c <uart_gpio_init+0x260>
D:/projects/mechanical_arm/Ctrl_Stepper_Motor/libraries/zf_driver/zf_driver_uart.c:63 (discriminator 1)
    147a:	04800693          	li	a3,72
    147e:	4601                	li	a2,0
    1480:	4581                	li	a1,0
    1482:	06600513          	li	a0,102
    1486:	f6dfe0ef          	jal	ra,3f2 <gpio_init>
D:/projects/mechanical_arm/Ctrl_Stepper_Motor/libraries/zf_driver/zf_driver_uart.c:78 (discriminator 1)
}
    148a:	a24d                	j	162c <uart_gpio_init+0x400>
D:/projects/mechanical_arm/Ctrl_Stepper_Motor/libraries/zf_driver/zf_driver_uart.c:64
    else if(rx_pin == UART3_RX_B11)     gpio_init(B11, GPI, 0, GPI_PULL_UP);
    148c:	fe842703          	lw	a4,-24(s0)
    1490:	02100793          	li	a5,33
    1494:	00f71b63          	bne	a4,a5,14aa <uart_gpio_init+0x27e>
D:/projects/mechanical_arm/Ctrl_Stepper_Motor/libraries/zf_driver/zf_driver_uart.c:64 (discriminator 1)
    1498:	04800693          	li	a3,72
    149c:	4601                	li	a2,0
    149e:	4581                	li	a1,0
    14a0:	02b00513          	li	a0,43
    14a4:	f4ffe0ef          	jal	ra,3f2 <gpio_init>
D:/projects/mechanical_arm/Ctrl_Stepper_Motor/libraries/zf_driver/zf_driver_uart.c:78 (discriminator 1)
}
    14a8:	a251                	j	162c <uart_gpio_init+0x400>
D:/projects/mechanical_arm/Ctrl_Stepper_Motor/libraries/zf_driver/zf_driver_uart.c:65
    else if(rx_pin == UART3_RX_C11)     gpio_init(C11, GPI, 0, GPI_PULL_UP);
    14aa:	fe842703          	lw	a4,-24(s0)
    14ae:	02300793          	li	a5,35
    14b2:	00f71b63          	bne	a4,a5,14c8 <uart_gpio_init+0x29c>
D:/projects/mechanical_arm/Ctrl_Stepper_Motor/libraries/zf_driver/zf_driver_uart.c:65 (discriminator 1)
    14b6:	04800693          	li	a3,72
    14ba:	4601                	li	a2,0
    14bc:	4581                	li	a1,0
    14be:	04b00513          	li	a0,75
    14c2:	f31fe0ef          	jal	ra,3f2 <gpio_init>
D:/projects/mechanical_arm/Ctrl_Stepper_Motor/libraries/zf_driver/zf_driver_uart.c:78 (discriminator 1)
}
    14c6:	a29d                	j	162c <uart_gpio_init+0x400>
D:/projects/mechanical_arm/Ctrl_Stepper_Motor/libraries/zf_driver/zf_driver_uart.c:66
    else if(rx_pin == UART3_RX_D9 )     gpio_init(D9,  GPI, 0, GPI_PULL_UP);
    14c8:	fe842703          	lw	a4,-24(s0)
    14cc:	02500793          	li	a5,37
    14d0:	00f71b63          	bne	a4,a5,14e6 <uart_gpio_init+0x2ba>
D:/projects/mechanical_arm/Ctrl_Stepper_Motor/libraries/zf_driver/zf_driver_uart.c:66 (discriminator 1)
    14d4:	04800693          	li	a3,72
    14d8:	4601                	li	a2,0
    14da:	4581                	li	a1,0
    14dc:	06900513          	li	a0,105
    14e0:	f13fe0ef          	jal	ra,3f2 <gpio_init>
D:/projects/mechanical_arm/Ctrl_Stepper_Motor/libraries/zf_driver/zf_driver_uart.c:78 (discriminator 1)
}
    14e4:	a2a1                	j	162c <uart_gpio_init+0x400>
D:/projects/mechanical_arm/Ctrl_Stepper_Motor/libraries/zf_driver/zf_driver_uart.c:67
    else if(rx_pin == UART4_RX_C11)     gpio_init(C11, GPI, 0, GPI_PULL_UP);
    14e6:	fe842703          	lw	a4,-24(s0)
    14ea:	04100793          	li	a5,65
    14ee:	00f71b63          	bne	a4,a5,1504 <uart_gpio_init+0x2d8>
D:/projects/mechanical_arm/Ctrl_Stepper_Motor/libraries/zf_driver/zf_driver_uart.c:67 (discriminator 1)
    14f2:	04800693          	li	a3,72
    14f6:	4601                	li	a2,0
    14f8:	4581                	li	a1,0
    14fa:	04b00513          	li	a0,75
    14fe:	ef5fe0ef          	jal	ra,3f2 <gpio_init>
D:/projects/mechanical_arm/Ctrl_Stepper_Motor/libraries/zf_driver/zf_driver_uart.c:78 (discriminator 1)
}
    1502:	a22d                	j	162c <uart_gpio_init+0x400>
D:/projects/mechanical_arm/Ctrl_Stepper_Motor/libraries/zf_driver/zf_driver_uart.c:68
    else if(rx_pin == UART4_RX_B1)      gpio_init(B1, GPI, 0, GPI_PULL_UP);
    1504:	fe842703          	lw	a4,-24(s0)
    1508:	04300793          	li	a5,67
    150c:	00f71b63          	bne	a4,a5,1522 <uart_gpio_init+0x2f6>
D:/projects/mechanical_arm/Ctrl_Stepper_Motor/libraries/zf_driver/zf_driver_uart.c:68 (discriminator 1)
    1510:	04800693          	li	a3,72
    1514:	4601                	li	a2,0
    1516:	4581                	li	a1,0
    1518:	02100513          	li	a0,33
    151c:	ed7fe0ef          	jal	ra,3f2 <gpio_init>
D:/projects/mechanical_arm/Ctrl_Stepper_Motor/libraries/zf_driver/zf_driver_uart.c:78 (discriminator 1)
}
    1520:	a231                	j	162c <uart_gpio_init+0x400>
D:/projects/mechanical_arm/Ctrl_Stepper_Motor/libraries/zf_driver/zf_driver_uart.c:69
    else if(rx_pin == UART5_RX_D2 )     gpio_init(D2,  GPI, 0, GPI_PULL_UP);
    1522:	fe842703          	lw	a4,-24(s0)
    1526:	05100793          	li	a5,81
    152a:	00f71b63          	bne	a4,a5,1540 <uart_gpio_init+0x314>
D:/projects/mechanical_arm/Ctrl_Stepper_Motor/libraries/zf_driver/zf_driver_uart.c:69 (discriminator 1)
    152e:	04800693          	li	a3,72
    1532:	4601                	li	a2,0
    1534:	4581                	li	a1,0
    1536:	06200513          	li	a0,98
    153a:	eb9fe0ef          	jal	ra,3f2 <gpio_init>
D:/projects/mechanical_arm/Ctrl_Stepper_Motor/libraries/zf_driver/zf_driver_uart.c:78 (discriminator 1)
}
    153e:	a0fd                	j	162c <uart_gpio_init+0x400>
D:/projects/mechanical_arm/Ctrl_Stepper_Motor/libraries/zf_driver/zf_driver_uart.c:70
    else if(rx_pin == UART5_RX_E9 )     gpio_init(E9,  GPI, 0, GPI_PULL_UP);
    1540:	fe842703          	lw	a4,-24(s0)
    1544:	05300793          	li	a5,83
    1548:	00f71b63          	bne	a4,a5,155e <uart_gpio_init+0x332>
D:/projects/mechanical_arm/Ctrl_Stepper_Motor/libraries/zf_driver/zf_driver_uart.c:70 (discriminator 1)
    154c:	04800693          	li	a3,72
    1550:	4601                	li	a2,0
    1552:	4581                	li	a1,0
    1554:	08900513          	li	a0,137
    1558:	e9bfe0ef          	jal	ra,3f2 <gpio_init>
D:/projects/mechanical_arm/Ctrl_Stepper_Motor/libraries/zf_driver/zf_driver_uart.c:78 (discriminator 1)
}
    155c:	a8c1                	j	162c <uart_gpio_init+0x400>
D:/projects/mechanical_arm/Ctrl_Stepper_Motor/libraries/zf_driver/zf_driver_uart.c:71
    else if(rx_pin == UART6_RX_C1 )     gpio_init(C1,  GPI, 0, GPI_PULL_UP);
    155e:	fe842703          	lw	a4,-24(s0)
    1562:	06100793          	li	a5,97
    1566:	00f71b63          	bne	a4,a5,157c <uart_gpio_init+0x350>
D:/projects/mechanical_arm/Ctrl_Stepper_Motor/libraries/zf_driver/zf_driver_uart.c:71 (discriminator 1)
    156a:	04800693          	li	a3,72
    156e:	4601                	li	a2,0
    1570:	4581                	li	a1,0
    1572:	04100513          	li	a0,65
    1576:	e7dfe0ef          	jal	ra,3f2 <gpio_init>
D:/projects/mechanical_arm/Ctrl_Stepper_Motor/libraries/zf_driver/zf_driver_uart.c:78 (discriminator 1)
}
    157a:	a84d                	j	162c <uart_gpio_init+0x400>
D:/projects/mechanical_arm/Ctrl_Stepper_Motor/libraries/zf_driver/zf_driver_uart.c:72
    else if(rx_pin == UART6_RX_E11 )    gpio_init(E11,  GPI, 0, GPI_PULL_UP);
    157c:	fe842703          	lw	a4,-24(s0)
    1580:	06300793          	li	a5,99
    1584:	00f71b63          	bne	a4,a5,159a <uart_gpio_init+0x36e>
D:/projects/mechanical_arm/Ctrl_Stepper_Motor/libraries/zf_driver/zf_driver_uart.c:72 (discriminator 1)
    1588:	04800693          	li	a3,72
    158c:	4601                	li	a2,0
    158e:	4581                	li	a1,0
    1590:	08b00513          	li	a0,139
    1594:	e5ffe0ef          	jal	ra,3f2 <gpio_init>
D:/projects/mechanical_arm/Ctrl_Stepper_Motor/libraries/zf_driver/zf_driver_uart.c:78 (discriminator 1)
}
    1598:	a851                	j	162c <uart_gpio_init+0x400>
D:/projects/mechanical_arm/Ctrl_Stepper_Motor/libraries/zf_driver/zf_driver_uart.c:73
    else if(rx_pin == UART7_RX_C3 )     gpio_init(C3,  GPI, 0, GPI_PULL_UP);
    159a:	fe842703          	lw	a4,-24(s0)
    159e:	07100793          	li	a5,113
    15a2:	00f71b63          	bne	a4,a5,15b8 <uart_gpio_init+0x38c>
D:/projects/mechanical_arm/Ctrl_Stepper_Motor/libraries/zf_driver/zf_driver_uart.c:73 (discriminator 1)
    15a6:	04800693          	li	a3,72
    15aa:	4601                	li	a2,0
    15ac:	4581                	li	a1,0
    15ae:	04300513          	li	a0,67
    15b2:	e41fe0ef          	jal	ra,3f2 <gpio_init>
D:/projects/mechanical_arm/Ctrl_Stepper_Motor/libraries/zf_driver/zf_driver_uart.c:78 (discriminator 1)
}
    15b6:	a89d                	j	162c <uart_gpio_init+0x400>
D:/projects/mechanical_arm/Ctrl_Stepper_Motor/libraries/zf_driver/zf_driver_uart.c:74
    else if(rx_pin == UART7_RX_A7 )     gpio_init(A7,  GPI, 0, GPI_PULL_UP);
    15b8:	fe842703          	lw	a4,-24(s0)
    15bc:	07300793          	li	a5,115
    15c0:	00f71a63          	bne	a4,a5,15d4 <uart_gpio_init+0x3a8>
D:/projects/mechanical_arm/Ctrl_Stepper_Motor/libraries/zf_driver/zf_driver_uart.c:74 (discriminator 1)
    15c4:	04800693          	li	a3,72
    15c8:	4601                	li	a2,0
    15ca:	4581                	li	a1,0
    15cc:	451d                	li	a0,7
    15ce:	e25fe0ef          	jal	ra,3f2 <gpio_init>
D:/projects/mechanical_arm/Ctrl_Stepper_Motor/libraries/zf_driver/zf_driver_uart.c:78 (discriminator 1)
}
    15d2:	a8a9                	j	162c <uart_gpio_init+0x400>
D:/projects/mechanical_arm/Ctrl_Stepper_Motor/libraries/zf_driver/zf_driver_uart.c:75
    else if(rx_pin == UART7_RX_E13 )    gpio_init(E13,  GPI, 0, GPI_PULL_UP);
    15d4:	fe842703          	lw	a4,-24(s0)
    15d8:	07500793          	li	a5,117
    15dc:	00f71b63          	bne	a4,a5,15f2 <uart_gpio_init+0x3c6>
D:/projects/mechanical_arm/Ctrl_Stepper_Motor/libraries/zf_driver/zf_driver_uart.c:75 (discriminator 1)
    15e0:	04800693          	li	a3,72
    15e4:	4601                	li	a2,0
    15e6:	4581                	li	a1,0
    15e8:	08d00513          	li	a0,141
    15ec:	e07fe0ef          	jal	ra,3f2 <gpio_init>
D:/projects/mechanical_arm/Ctrl_Stepper_Motor/libraries/zf_driver/zf_driver_uart.c:78 (discriminator 1)
}
    15f0:	a835                	j	162c <uart_gpio_init+0x400>
D:/projects/mechanical_arm/Ctrl_Stepper_Motor/libraries/zf_driver/zf_driver_uart.c:76
    else if(rx_pin == UART8_RX_C5 )     gpio_init(C5,  GPI, 0, GPI_PULL_UP);
    15f2:	fe842703          	lw	a4,-24(s0)
    15f6:	08100793          	li	a5,129
    15fa:	00f71b63          	bne	a4,a5,1610 <uart_gpio_init+0x3e4>
D:/projects/mechanical_arm/Ctrl_Stepper_Motor/libraries/zf_driver/zf_driver_uart.c:76 (discriminator 1)
    15fe:	04800693          	li	a3,72
    1602:	4601                	li	a2,0
    1604:	4581                	li	a1,0
    1606:	04500513          	li	a0,69
    160a:	de9fe0ef          	jal	ra,3f2 <gpio_init>
D:/projects/mechanical_arm/Ctrl_Stepper_Motor/libraries/zf_driver/zf_driver_uart.c:78 (discriminator 1)
}
    160e:	a839                	j	162c <uart_gpio_init+0x400>
D:/projects/mechanical_arm/Ctrl_Stepper_Motor/libraries/zf_driver/zf_driver_uart.c:77
    else if(rx_pin == UART8_RX_E15 )    gpio_init(E15,  GPI, 0, GPI_PULL_UP);
    1610:	fe842703          	lw	a4,-24(s0)
    1614:	08300793          	li	a5,131
    1618:	00f71a63          	bne	a4,a5,162c <uart_gpio_init+0x400>
D:/projects/mechanical_arm/Ctrl_Stepper_Motor/libraries/zf_driver/zf_driver_uart.c:77 (discriminator 1)
    161c:	04800693          	li	a3,72
    1620:	4601                	li	a2,0
    1622:	4581                	li	a1,0
    1624:	08f00513          	li	a0,143
    1628:	dcbfe0ef          	jal	ra,3f2 <gpio_init>
D:/projects/mechanical_arm/Ctrl_Stepper_Motor/libraries/zf_driver/zf_driver_uart.c:78
}
    162c:	0001                	nop
    162e:	40f2                	lw	ra,28(sp)
    1630:	4462                	lw	s0,24(sp)
    1632:	6105                	addi	sp,sp,32
    1634:	8082                	ret

00001636 <uart_rx_interrupt>:
uart_rx_interrupt():
D:/projects/mechanical_arm/Ctrl_Stepper_Motor/libraries/zf_driver/zf_driver_uart.c:153
//  @param      status      使能或者失能
//  @return     void
//  Sample usage:           uart_rx_irq(UART_1, ENABLE);        //打开串口1接收中断
//-------------------------------------------------------------------------------------------------------------------
void uart_rx_interrupt(uart_index_enum uartn, uint8 status)
{
    1636:	1101                	addi	sp,sp,-32
    1638:	ce06                	sw	ra,28(sp)
    163a:	cc22                	sw	s0,24(sp)
    163c:	1000                	addi	s0,sp,32
    163e:	fea42623          	sw	a0,-20(s0)
    1642:	87ae                	mv	a5,a1
    1644:	fef405a3          	sb	a5,-21(s0)
D:/projects/mechanical_arm/Ctrl_Stepper_Motor/libraries/zf_driver/zf_driver_uart.c:154
    USART_ITConfig(((USART_TypeDef*)uart_index[uartn]), USART_IT_RXNE, status);
    1648:	67a9                	lui	a5,0xa
    164a:	fec42703          	lw	a4,-20(s0)
    164e:	070a                	slli	a4,a4,0x2
    1650:	0b878793          	addi	a5,a5,184 # a0b8 <uart_index>
    1654:	97ba                	add	a5,a5,a4
    1656:	439c                	lw	a5,0(a5)
    1658:	873e                	mv	a4,a5
    165a:	feb44783          	lbu	a5,-21(s0)
    165e:	863e                	mv	a2,a5
    1660:	52500593          	li	a1,1317
    1664:	853a                	mv	a0,a4
    1666:	4c7020ef          	jal	ra,432c <USART_ITConfig>
D:/projects/mechanical_arm/Ctrl_Stepper_Motor/libraries/zf_driver/zf_driver_uart.c:156

    NVIC->IPRIOR[(uint32)((IRQn_Type)uart_irq[uartn])] = 0;
    166a:	e000e7b7          	lui	a5,0xe000e
    166e:	81818693          	addi	a3,gp,-2024 # 20000238 <uart_irq>
    1672:	fec42703          	lw	a4,-20(s0)
    1676:	9736                	add	a4,a4,a3
    1678:	00074703          	lbu	a4,0(a4)
    167c:	97ba                	add	a5,a5,a4
    167e:	40078023          	sb	zero,1024(a5) # e000e400 <_eusrstack+0xbfffe400>
D:/projects/mechanical_arm/Ctrl_Stepper_Motor/libraries/zf_driver/zf_driver_uart.c:158

    if(status)  interrupt_enable((IRQn_Type)uart_irq[uartn]);
    1682:	feb44783          	lbu	a5,-21(s0)
    1686:	cf81                	beqz	a5,169e <uart_rx_interrupt+0x68>
D:/projects/mechanical_arm/Ctrl_Stepper_Motor/libraries/zf_driver/zf_driver_uart.c:158 (discriminator 1)
    1688:	81818713          	addi	a4,gp,-2024 # 20000238 <uart_irq>
    168c:	fec42783          	lw	a5,-20(s0)
    1690:	97ba                	add	a5,a5,a4
    1692:	0007c783          	lbu	a5,0(a5)
    1696:	853e                	mv	a0,a5
    1698:	2d9000ef          	jal	ra,2170 <interrupt_enable>
D:/projects/mechanical_arm/Ctrl_Stepper_Motor/libraries/zf_driver/zf_driver_uart.c:162 (discriminator 1)
    else        interrupt_disable((IRQn_Type)uart_irq[uartn]);

    //nvic_init((IRQn_Type)uart_irq[uartn], 1, 0, status);
}
    169c:	a819                	j	16b2 <uart_rx_interrupt+0x7c>
D:/projects/mechanical_arm/Ctrl_Stepper_Motor/libraries/zf_driver/zf_driver_uart.c:159
    else        interrupt_disable((IRQn_Type)uart_irq[uartn]);
    169e:	81818713          	addi	a4,gp,-2024 # 20000238 <uart_irq>
    16a2:	fec42783          	lw	a5,-20(s0)
    16a6:	97ba                	add	a5,a5,a4
    16a8:	0007c783          	lbu	a5,0(a5)
    16ac:	853e                	mv	a0,a5
    16ae:	2df000ef          	jal	ra,218c <interrupt_disable>
D:/projects/mechanical_arm/Ctrl_Stepper_Motor/libraries/zf_driver/zf_driver_uart.c:162
}
    16b2:	0001                	nop
    16b4:	40f2                	lw	ra,28(sp)
    16b6:	4462                	lw	s0,24(sp)
    16b8:	6105                	addi	sp,sp,32
    16ba:	8082                	ret

000016bc <uart_query_byte>:
uart_query_byte():
D:/projects/mechanical_arm/Ctrl_Stepper_Motor/libraries/zf_driver/zf_driver_uart.c:203
//  @param      *dat            接收数据的地址
//  @return     uint8           1：接收成功   0：未接收到数据
//  Sample usage:               uint8 dat; uart_query_byte(USART_1,&dat);       // 接收串口1数据  存在在dat变量里
//-------------------------------------------------------------------------------------------------------------------
uint8 uart_query_byte(uart_index_enum uartn, uint8 *dat)
{
    16bc:	1101                	addi	sp,sp,-32
    16be:	ce22                	sw	s0,28(sp)
    16c0:	1000                	addi	s0,sp,32
    16c2:	fea42623          	sw	a0,-20(s0)
    16c6:	feb42423          	sw	a1,-24(s0)
D:/projects/mechanical_arm/Ctrl_Stepper_Motor/libraries/zf_driver/zf_driver_uart.c:204
    if((((USART_TypeDef*)uart_index[uartn])->STATR & USART_FLAG_RXNE) != 0)
    16ca:	67a9                	lui	a5,0xa
    16cc:	fec42703          	lw	a4,-20(s0)
    16d0:	070a                	slli	a4,a4,0x2
    16d2:	0b878793          	addi	a5,a5,184 # a0b8 <uart_index>
    16d6:	97ba                	add	a5,a5,a4
    16d8:	439c                	lw	a5,0(a5)
    16da:	0007d783          	lhu	a5,0(a5)
    16de:	07c2                	slli	a5,a5,0x10
    16e0:	83c1                	srli	a5,a5,0x10
    16e2:	0207f793          	andi	a5,a5,32
    16e6:	c78d                	beqz	a5,1710 <uart_query_byte+0x54>
D:/projects/mechanical_arm/Ctrl_Stepper_Motor/libraries/zf_driver/zf_driver_uart.c:206
    {
        *dat = (((USART_TypeDef*)uart_index[uartn])->DATAR & 0xFF);
    16e8:	67a9                	lui	a5,0xa
    16ea:	fec42703          	lw	a4,-20(s0)
    16ee:	070a                	slli	a4,a4,0x2
    16f0:	0b878793          	addi	a5,a5,184 # a0b8 <uart_index>
    16f4:	97ba                	add	a5,a5,a4
    16f6:	439c                	lw	a5,0(a5)
    16f8:	0047d783          	lhu	a5,4(a5)
    16fc:	07c2                	slli	a5,a5,0x10
    16fe:	83c1                	srli	a5,a5,0x10
    1700:	0ff7f713          	andi	a4,a5,255
    1704:	fe842783          	lw	a5,-24(s0)
    1708:	00e78023          	sb	a4,0(a5)
D:/projects/mechanical_arm/Ctrl_Stepper_Motor/libraries/zf_driver/zf_driver_uart.c:207
        return 1;
    170c:	4785                	li	a5,1
    170e:	a011                	j	1712 <uart_query_byte+0x56>
D:/projects/mechanical_arm/Ctrl_Stepper_Motor/libraries/zf_driver/zf_driver_uart.c:209
    }
    return 0;
    1710:	4781                	li	a5,0
D:/projects/mechanical_arm/Ctrl_Stepper_Motor/libraries/zf_driver/zf_driver_uart.c:210
}
    1712:	853e                	mv	a0,a5
    1714:	4472                	lw	s0,28(sp)
    1716:	6105                	addi	sp,sp,32
    1718:	8082                	ret

0000171a <uart_init>:
uart_init():
D:/projects/mechanical_arm/Ctrl_Stepper_Motor/libraries/zf_driver/zf_driver_uart.c:222
//  @param      rx_pin      串口接收引脚号
//  @return     void
//  Sample usage:           uart_init(UART_1, 115200, UART1_TX_A9, UART1_RX_A10); //串口1初始化引脚号,TX为A9,RX为A10
//-------------------------------------------------------------------------------------------------------------------
void uart_init(uart_index_enum uart_num, uint32 baud, uart_pin_enum tx_pin, uart_pin_enum rx_pin)
{
    171a:	7179                	addi	sp,sp,-48
    171c:	d606                	sw	ra,44(sp)
    171e:	d422                	sw	s0,40(sp)
    1720:	1800                	addi	s0,sp,48
    1722:	fca42e23          	sw	a0,-36(s0)
    1726:	fcb42c23          	sw	a1,-40(s0)
    172a:	fcc42a23          	sw	a2,-44(s0)
    172e:	fcd42823          	sw	a3,-48(s0)
D:/projects/mechanical_arm/Ctrl_Stepper_Motor/libraries/zf_driver/zf_driver_uart.c:226
    USART_InitTypeDef USART_InitStructure;

    // AFIO总线开启
    RCC_APB2PeriphClockCmd(RCC_APB2Periph_AFIO, ENABLE);
    1732:	4585                	li	a1,1
    1734:	4505                	li	a0,1
    1736:	4a3010ef          	jal	ra,33d8 <RCC_APB2PeriphClockCmd>
D:/projects/mechanical_arm/Ctrl_Stepper_Motor/libraries/zf_driver/zf_driver_uart.c:233

    // RX引脚和TX引脚必须组传入
//    zf_assert(((rx_pin - 1) == tx_pin) || (tx_pin == UART5_TX_C12 && UART5_RX_D2 == rx_pin));

    // 引脚初始化
    uart_gpio_init(tx_pin, rx_pin);
    173a:	fd042583          	lw	a1,-48(s0)
    173e:	fd442503          	lw	a0,-44(s0)
    1742:	aebff0ef          	jal	ra,122c <uart_gpio_init>
D:/projects/mechanical_arm/Ctrl_Stepper_Motor/libraries/zf_driver/zf_driver_uart.c:236

    // 端口重映射
    if(UART1_TX_B6 == tx_pin && UART1_RX_B7 == rx_pin)
    1746:	fd442703          	lw	a4,-44(s0)
    174a:	4789                	li	a5,2
    174c:	00f71c63          	bne	a4,a5,1764 <uart_init+0x4a>
D:/projects/mechanical_arm/Ctrl_Stepper_Motor/libraries/zf_driver/zf_driver_uart.c:236 (discriminator 1)
    1750:	fd042703          	lw	a4,-48(s0)
    1754:	478d                	li	a5,3
    1756:	00f71763          	bne	a4,a5,1764 <uart_init+0x4a>
D:/projects/mechanical_arm/Ctrl_Stepper_Motor/libraries/zf_driver/zf_driver_uart.c:237
        GPIO_PinRemapConfig(GPIO_Remap_USART1, ENABLE);
    175a:	4585                	li	a1,1
    175c:	4511                	li	a0,4
    175e:	075010ef          	jal	ra,2fd2 <GPIO_PinRemapConfig>
    1762:	a295                	j	18c6 <uart_init+0x1ac>
D:/projects/mechanical_arm/Ctrl_Stepper_Motor/libraries/zf_driver/zf_driver_uart.c:238
    else if(UART2_TX_D5 == tx_pin && UART2_RX_D6 == rx_pin)
    1764:	fd442703          	lw	a4,-44(s0)
    1768:	47c9                	li	a5,18
    176a:	00f71c63          	bne	a4,a5,1782 <uart_init+0x68>
D:/projects/mechanical_arm/Ctrl_Stepper_Motor/libraries/zf_driver/zf_driver_uart.c:238 (discriminator 1)
    176e:	fd042703          	lw	a4,-48(s0)
    1772:	47cd                	li	a5,19
    1774:	00f71763          	bne	a4,a5,1782 <uart_init+0x68>
D:/projects/mechanical_arm/Ctrl_Stepper_Motor/libraries/zf_driver/zf_driver_uart.c:239
        GPIO_PinRemapConfig(GPIO_Remap_USART2, ENABLE);
    1778:	4585                	li	a1,1
    177a:	4521                	li	a0,8
    177c:	057010ef          	jal	ra,2fd2 <GPIO_PinRemapConfig>
    1780:	a299                	j	18c6 <uart_init+0x1ac>
D:/projects/mechanical_arm/Ctrl_Stepper_Motor/libraries/zf_driver/zf_driver_uart.c:240
    else if(UART3_TX_C10 == tx_pin && UART3_RX_C11 == rx_pin)
    1782:	fd442703          	lw	a4,-44(s0)
    1786:	02200793          	li	a5,34
    178a:	02f71063          	bne	a4,a5,17aa <uart_init+0x90>
D:/projects/mechanical_arm/Ctrl_Stepper_Motor/libraries/zf_driver/zf_driver_uart.c:240 (discriminator 1)
    178e:	fd042703          	lw	a4,-48(s0)
    1792:	02300793          	li	a5,35
    1796:	00f71a63          	bne	a4,a5,17aa <uart_init+0x90>
D:/projects/mechanical_arm/Ctrl_Stepper_Motor/libraries/zf_driver/zf_driver_uart.c:241
        GPIO_PinRemapConfig(GPIO_PartialRemap_USART3, ENABLE);
    179a:	4585                	li	a1,1
    179c:	001407b7          	lui	a5,0x140
    17a0:	01078513          	addi	a0,a5,16 # 140010 <_data_lma+0x13592c>
    17a4:	02f010ef          	jal	ra,2fd2 <GPIO_PinRemapConfig>
    17a8:	aa39                	j	18c6 <uart_init+0x1ac>
D:/projects/mechanical_arm/Ctrl_Stepper_Motor/libraries/zf_driver/zf_driver_uart.c:242
    else if(UART3_TX_D8 == tx_pin && UART3_RX_D9 == rx_pin)
    17aa:	fd442703          	lw	a4,-44(s0)
    17ae:	02400793          	li	a5,36
    17b2:	02f71063          	bne	a4,a5,17d2 <uart_init+0xb8>
D:/projects/mechanical_arm/Ctrl_Stepper_Motor/libraries/zf_driver/zf_driver_uart.c:242 (discriminator 1)
    17b6:	fd042703          	lw	a4,-48(s0)
    17ba:	02500793          	li	a5,37
    17be:	00f71a63          	bne	a4,a5,17d2 <uart_init+0xb8>
D:/projects/mechanical_arm/Ctrl_Stepper_Motor/libraries/zf_driver/zf_driver_uart.c:243
        GPIO_PinRemapConfig(GPIO_FullRemap_USART3, ENABLE);
    17c2:	4585                	li	a1,1
    17c4:	001407b7          	lui	a5,0x140
    17c8:	03078513          	addi	a0,a5,48 # 140030 <_data_lma+0x13594c>
    17cc:	007010ef          	jal	ra,2fd2 <GPIO_PinRemapConfig>
    17d0:	a8dd                	j	18c6 <uart_init+0x1ac>
D:/projects/mechanical_arm/Ctrl_Stepper_Motor/libraries/zf_driver/zf_driver_uart.c:244
    else if(UART4_TX_B0 == tx_pin && UART4_RX_B1 == rx_pin)
    17d2:	fd442703          	lw	a4,-44(s0)
    17d6:	04200793          	li	a5,66
    17da:	00f71d63          	bne	a4,a5,17f4 <uart_init+0xda>
D:/projects/mechanical_arm/Ctrl_Stepper_Motor/libraries/zf_driver/zf_driver_uart.c:244 (discriminator 1)
    17de:	fd042703          	lw	a4,-48(s0)
    17e2:	04300793          	li	a5,67
    17e6:	00f71763          	bne	a4,a5,17f4 <uart_init+0xda>
D:/projects/mechanical_arm/Ctrl_Stepper_Motor/libraries/zf_driver/zf_driver_uart.c:245
        GPIO_PinRemapConfig(GPIO_Remap_TIM4, ENABLE);
    17ea:	4585                	li	a1,1
    17ec:	6505                	lui	a0,0x1
    17ee:	7e4010ef          	jal	ra,2fd2 <GPIO_PinRemapConfig>
    17f2:	a8d1                	j	18c6 <uart_init+0x1ac>
D:/projects/mechanical_arm/Ctrl_Stepper_Motor/libraries/zf_driver/zf_driver_uart.c:246
    else if(UART5_TX_E8 == tx_pin && UART5_RX_E9 == rx_pin)
    17f4:	fd442703          	lw	a4,-44(s0)
    17f8:	05200793          	li	a5,82
    17fc:	02f71063          	bne	a4,a5,181c <uart_init+0x102>
D:/projects/mechanical_arm/Ctrl_Stepper_Motor/libraries/zf_driver/zf_driver_uart.c:246 (discriminator 1)
    1800:	fd042703          	lw	a4,-48(s0)
    1804:	05300793          	li	a5,83
    1808:	00f71a63          	bne	a4,a5,181c <uart_init+0x102>
D:/projects/mechanical_arm/Ctrl_Stepper_Motor/libraries/zf_driver/zf_driver_uart.c:247
        GPIO_PinRemapConfig(GPIO_Remap_TIM5CH4_LSI, ENABLE);
    180c:	4585                	li	a1,1
    180e:	002007b7          	lui	a5,0x200
    1812:	00178513          	addi	a0,a5,1 # 200001 <_data_lma+0x1f591d>
    1816:	7bc010ef          	jal	ra,2fd2 <GPIO_PinRemapConfig>
    181a:	a075                	j	18c6 <uart_init+0x1ac>
D:/projects/mechanical_arm/Ctrl_Stepper_Motor/libraries/zf_driver/zf_driver_uart.c:248
    else if(UART6_TX_E10 == tx_pin && UART6_RX_E11 == rx_pin)
    181c:	fd442703          	lw	a4,-44(s0)
    1820:	06200793          	li	a5,98
    1824:	02f71063          	bne	a4,a5,1844 <uart_init+0x12a>
D:/projects/mechanical_arm/Ctrl_Stepper_Motor/libraries/zf_driver/zf_driver_uart.c:248 (discriminator 1)
    1828:	fd042703          	lw	a4,-48(s0)
    182c:	06300793          	li	a5,99
    1830:	00f71a63          	bne	a4,a5,1844 <uart_init+0x12a>
D:/projects/mechanical_arm/Ctrl_Stepper_Motor/libraries/zf_driver/zf_driver_uart.c:249
        GPIO_PinRemapConfig(GPIO_Remap_TIM67_DAC_DMA, ENABLE);
    1834:	4585                	li	a1,1
    1836:	800017b7          	lui	a5,0x80001
    183a:	80078513          	addi	a0,a5,-2048 # 80000800 <_eusrstack+0x5fff0800>
    183e:	794010ef          	jal	ra,2fd2 <GPIO_PinRemapConfig>
    1842:	a051                	j	18c6 <uart_init+0x1ac>
D:/projects/mechanical_arm/Ctrl_Stepper_Motor/libraries/zf_driver/zf_driver_uart.c:251

    else if(UART7_TX_A6 == tx_pin && UART7_RX_A7 == rx_pin)
    1844:	fd442703          	lw	a4,-44(s0)
    1848:	07200793          	li	a5,114
    184c:	02f71263          	bne	a4,a5,1870 <uart_init+0x156>
D:/projects/mechanical_arm/Ctrl_Stepper_Motor/libraries/zf_driver/zf_driver_uart.c:251 (discriminator 1)
    1850:	fd042703          	lw	a4,-48(s0)
    1854:	07300793          	li	a5,115
    1858:	00f71c63          	bne	a4,a5,1870 <uart_init+0x156>
D:/projects/mechanical_arm/Ctrl_Stepper_Motor/libraries/zf_driver/zf_driver_uart.c:252
        AFIO->PCFR2 |= 0x01<<22;                       //[23:22]
    185c:	400107b7          	lui	a5,0x40010
    1860:	4fd4                	lw	a3,28(a5)
    1862:	400107b7          	lui	a5,0x40010
    1866:	00400737          	lui	a4,0x400
    186a:	8f55                	or	a4,a4,a3
    186c:	cfd8                	sw	a4,28(a5)
    186e:	a8a1                	j	18c6 <uart_init+0x1ac>
D:/projects/mechanical_arm/Ctrl_Stepper_Motor/libraries/zf_driver/zf_driver_uart.c:253
    else if(UART7_TX_E12 == tx_pin && UART7_RX_E13 == rx_pin)
    1870:	fd442703          	lw	a4,-44(s0)
    1874:	07400793          	li	a5,116
    1878:	02f71263          	bne	a4,a5,189c <uart_init+0x182>
D:/projects/mechanical_arm/Ctrl_Stepper_Motor/libraries/zf_driver/zf_driver_uart.c:253 (discriminator 1)
    187c:	fd042703          	lw	a4,-48(s0)
    1880:	07500793          	li	a5,117
    1884:	00f71c63          	bne	a4,a5,189c <uart_init+0x182>
D:/projects/mechanical_arm/Ctrl_Stepper_Motor/libraries/zf_driver/zf_driver_uart.c:254
        AFIO->PCFR2 |= 0x01<<23;                       //[23:22]
    1888:	400107b7          	lui	a5,0x40010
    188c:	4fd4                	lw	a3,28(a5)
    188e:	400107b7          	lui	a5,0x40010
    1892:	00800737          	lui	a4,0x800
    1896:	8f55                	or	a4,a4,a3
    1898:	cfd8                	sw	a4,28(a5)
    189a:	a035                	j	18c6 <uart_init+0x1ac>
D:/projects/mechanical_arm/Ctrl_Stepper_Motor/libraries/zf_driver/zf_driver_uart.c:256

    else if(UART8_TX_E14 == tx_pin && UART8_RX_E15 == rx_pin)
    189c:	fd442703          	lw	a4,-44(s0)
    18a0:	08200793          	li	a5,130
    18a4:	02f71163          	bne	a4,a5,18c6 <uart_init+0x1ac>
D:/projects/mechanical_arm/Ctrl_Stepper_Motor/libraries/zf_driver/zf_driver_uart.c:256 (discriminator 1)
    18a8:	fd042703          	lw	a4,-48(s0)
    18ac:	08300793          	li	a5,131
    18b0:	00f71b63          	bne	a4,a5,18c6 <uart_init+0x1ac>
D:/projects/mechanical_arm/Ctrl_Stepper_Motor/libraries/zf_driver/zf_driver_uart.c:257
        AFIO->PCFR2 |= 1<<25;    //[25:24]
    18b4:	400107b7          	lui	a5,0x40010
    18b8:	4fd4                	lw	a3,28(a5)
    18ba:	400107b7          	lui	a5,0x40010
    18be:	02000737          	lui	a4,0x2000
    18c2:	8f55                	or	a4,a4,a3
    18c4:	cfd8                	sw	a4,28(a5)
D:/projects/mechanical_arm/Ctrl_Stepper_Motor/libraries/zf_driver/zf_driver_uart.c:260

    //  串口总线使能
    if(UART_1 == uart_num) RCC_APB2PeriphClockCmd(RCC_APB2Periph_USART1, ENABLE);
    18c6:	fdc42783          	lw	a5,-36(s0)
    18ca:	e791                	bnez	a5,18d6 <uart_init+0x1bc>
D:/projects/mechanical_arm/Ctrl_Stepper_Motor/libraries/zf_driver/zf_driver_uart.c:260 (discriminator 1)
    18cc:	4585                	li	a1,1
    18ce:	6511                	lui	a0,0x4
    18d0:	309010ef          	jal	ra,33d8 <RCC_APB2PeriphClockCmd>
    18d4:	a869                	j	196e <uart_init+0x254>
D:/projects/mechanical_arm/Ctrl_Stepper_Motor/libraries/zf_driver/zf_driver_uart.c:261
    else if(UART_2 == uart_num) RCC_APB1PeriphClockCmd(RCC_APB1Periph_USART2, ENABLE);
    18d6:	fdc42703          	lw	a4,-36(s0)
    18da:	4785                	li	a5,1
    18dc:	00f71863          	bne	a4,a5,18ec <uart_init+0x1d2>
D:/projects/mechanical_arm/Ctrl_Stepper_Motor/libraries/zf_driver/zf_driver_uart.c:261 (discriminator 1)
    18e0:	4585                	li	a1,1
    18e2:	00020537          	lui	a0,0x20
    18e6:	339010ef          	jal	ra,341e <RCC_APB1PeriphClockCmd>
    18ea:	a051                	j	196e <uart_init+0x254>
D:/projects/mechanical_arm/Ctrl_Stepper_Motor/libraries/zf_driver/zf_driver_uart.c:262
    else if(UART_3 == uart_num) RCC_APB1PeriphClockCmd(RCC_APB1Periph_USART3, ENABLE);
    18ec:	fdc42703          	lw	a4,-36(s0)
    18f0:	4789                	li	a5,2
    18f2:	00f71863          	bne	a4,a5,1902 <uart_init+0x1e8>
D:/projects/mechanical_arm/Ctrl_Stepper_Motor/libraries/zf_driver/zf_driver_uart.c:262 (discriminator 1)
    18f6:	4585                	li	a1,1
    18f8:	00040537          	lui	a0,0x40
    18fc:	323010ef          	jal	ra,341e <RCC_APB1PeriphClockCmd>
    1900:	a0bd                	j	196e <uart_init+0x254>
D:/projects/mechanical_arm/Ctrl_Stepper_Motor/libraries/zf_driver/zf_driver_uart.c:263
    else if(UART_4 == uart_num) RCC_APB1PeriphClockCmd(RCC_APB1Periph_UART4, ENABLE);
    1902:	fdc42703          	lw	a4,-36(s0)
    1906:	478d                	li	a5,3
    1908:	00f71863          	bne	a4,a5,1918 <uart_init+0x1fe>
D:/projects/mechanical_arm/Ctrl_Stepper_Motor/libraries/zf_driver/zf_driver_uart.c:263 (discriminator 1)
    190c:	4585                	li	a1,1
    190e:	00080537          	lui	a0,0x80
    1912:	30d010ef          	jal	ra,341e <RCC_APB1PeriphClockCmd>
    1916:	a8a1                	j	196e <uart_init+0x254>
D:/projects/mechanical_arm/Ctrl_Stepper_Motor/libraries/zf_driver/zf_driver_uart.c:264
    else if(UART_5 == uart_num) RCC_APB1PeriphClockCmd(RCC_APB1Periph_UART5, ENABLE);
    1918:	fdc42703          	lw	a4,-36(s0)
    191c:	4791                	li	a5,4
    191e:	00f71863          	bne	a4,a5,192e <uart_init+0x214>
D:/projects/mechanical_arm/Ctrl_Stepper_Motor/libraries/zf_driver/zf_driver_uart.c:264 (discriminator 1)
    1922:	4585                	li	a1,1
    1924:	00100537          	lui	a0,0x100
    1928:	2f7010ef          	jal	ra,341e <RCC_APB1PeriphClockCmd>
    192c:	a089                	j	196e <uart_init+0x254>
D:/projects/mechanical_arm/Ctrl_Stepper_Motor/libraries/zf_driver/zf_driver_uart.c:265
    else if(UART_6 == uart_num) RCC_APB1PeriphClockCmd(RCC_APB1Periph_UART6, ENABLE);
    192e:	fdc42703          	lw	a4,-36(s0)
    1932:	4795                	li	a5,5
    1934:	00f71863          	bne	a4,a5,1944 <uart_init+0x22a>
D:/projects/mechanical_arm/Ctrl_Stepper_Motor/libraries/zf_driver/zf_driver_uart.c:265 (discriminator 1)
    1938:	4585                	li	a1,1
    193a:	04000513          	li	a0,64
    193e:	2e1010ef          	jal	ra,341e <RCC_APB1PeriphClockCmd>
    1942:	a035                	j	196e <uart_init+0x254>
D:/projects/mechanical_arm/Ctrl_Stepper_Motor/libraries/zf_driver/zf_driver_uart.c:266
    else if(UART_7 == uart_num) RCC_APB1PeriphClockCmd(RCC_APB1Periph_UART7, ENABLE);
    1944:	fdc42703          	lw	a4,-36(s0)
    1948:	4799                	li	a5,6
    194a:	00f71863          	bne	a4,a5,195a <uart_init+0x240>
D:/projects/mechanical_arm/Ctrl_Stepper_Motor/libraries/zf_driver/zf_driver_uart.c:266 (discriminator 1)
    194e:	4585                	li	a1,1
    1950:	08000513          	li	a0,128
    1954:	2cb010ef          	jal	ra,341e <RCC_APB1PeriphClockCmd>
    1958:	a819                	j	196e <uart_init+0x254>
D:/projects/mechanical_arm/Ctrl_Stepper_Motor/libraries/zf_driver/zf_driver_uart.c:267
    else if(UART_8 == uart_num) RCC_APB1PeriphClockCmd(RCC_APB1Periph_UART8, ENABLE);
    195a:	fdc42703          	lw	a4,-36(s0)
    195e:	479d                	li	a5,7
    1960:	00f71763          	bne	a4,a5,196e <uart_init+0x254>
D:/projects/mechanical_arm/Ctrl_Stepper_Motor/libraries/zf_driver/zf_driver_uart.c:267 (discriminator 1)
    1964:	4585                	li	a1,1
    1966:	10000513          	li	a0,256
    196a:	2b5010ef          	jal	ra,341e <RCC_APB1PeriphClockCmd>
D:/projects/mechanical_arm/Ctrl_Stepper_Motor/libraries/zf_driver/zf_driver_uart.c:271


    //  串口参数配置
    USART_InitStructure.USART_BaudRate = baud;
    196e:	fd842783          	lw	a5,-40(s0)
    1972:	fef42023          	sw	a5,-32(s0)
D:/projects/mechanical_arm/Ctrl_Stepper_Motor/libraries/zf_driver/zf_driver_uart.c:272
    USART_InitStructure.USART_WordLength = USART_WordLength_8b;
    1976:	fe041223          	sh	zero,-28(s0)
D:/projects/mechanical_arm/Ctrl_Stepper_Motor/libraries/zf_driver/zf_driver_uart.c:273
    USART_InitStructure.USART_StopBits = USART_StopBits_1;
    197a:	fe041323          	sh	zero,-26(s0)
D:/projects/mechanical_arm/Ctrl_Stepper_Motor/libraries/zf_driver/zf_driver_uart.c:274
    USART_InitStructure.USART_Parity = USART_Parity_No;
    197e:	fe041423          	sh	zero,-24(s0)
D:/projects/mechanical_arm/Ctrl_Stepper_Motor/libraries/zf_driver/zf_driver_uart.c:275
    USART_InitStructure.USART_HardwareFlowControl = USART_HardwareFlowControl_None;
    1982:	fe041623          	sh	zero,-20(s0)
D:/projects/mechanical_arm/Ctrl_Stepper_Motor/libraries/zf_driver/zf_driver_uart.c:276
    USART_InitStructure.USART_Mode = USART_Mode_Tx | USART_Mode_Rx;
    1986:	47b1                	li	a5,12
    1988:	fef41523          	sh	a5,-22(s0)
D:/projects/mechanical_arm/Ctrl_Stepper_Motor/libraries/zf_driver/zf_driver_uart.c:279

    //  使能串口
    USART_Init((USART_TypeDef*)uart_index[uart_num], &USART_InitStructure);
    198c:	67a9                	lui	a5,0xa
    198e:	fdc42703          	lw	a4,-36(s0)
    1992:	070a                	slli	a4,a4,0x2
    1994:	0b878793          	addi	a5,a5,184 # a0b8 <uart_index>
    1998:	97ba                	add	a5,a5,a4
    199a:	439c                	lw	a5,0(a5)
    199c:	873e                	mv	a4,a5
    199e:	fe040793          	addi	a5,s0,-32
    19a2:	85be                	mv	a1,a5
    19a4:	853a                	mv	a0,a4
    19a6:	6f2020ef          	jal	ra,4098 <USART_Init>
D:/projects/mechanical_arm/Ctrl_Stepper_Motor/libraries/zf_driver/zf_driver_uart.c:280
    USART_Cmd((USART_TypeDef*)uart_index[uart_num], ENABLE);
    19aa:	67a9                	lui	a5,0xa
    19ac:	fdc42703          	lw	a4,-36(s0)
    19b0:	070a                	slli	a4,a4,0x2
    19b2:	0b878793          	addi	a5,a5,184 # a0b8 <uart_index>
    19b6:	97ba                	add	a5,a5,a4
    19b8:	439c                	lw	a5,0(a5)
    19ba:	4585                	li	a1,1
    19bc:	853e                	mv	a0,a5
    19be:	10f020ef          	jal	ra,42cc <USART_Cmd>
D:/projects/mechanical_arm/Ctrl_Stepper_Motor/libraries/zf_driver/zf_driver_uart.c:282

}
    19c2:	0001                	nop
    19c4:	50b2                	lw	ra,44(sp)
    19c6:	5422                	lw	s0,40(sp)
    19c8:	6145                	addi	sp,sp,48
    19ca:	8082                	ret

000019cc <bluetooth_ch9141_uart_callback_ch1>:
bluetooth_ch9141_uart_callback_ch1():
D:/projects/mechanical_arm/Ctrl_Stepper_Motor/libraries/zf_device/zf_device_bluetooth_ch9141.c:39
//  @since      v1.0
//  Sample usage:
//  @note       该函数在ISR文件 串口8中断程序被调用
//-------------------------------------------------------------------------------------------------------------------
void bluetooth_ch9141_uart_callback_ch1 (void)
{
    19cc:	1141                	addi	sp,sp,-16
    19ce:	c606                	sw	ra,12(sp)
    19d0:	c422                	sw	s0,8(sp)
    19d2:	0800                	addi	s0,sp,16
D:/projects/mechanical_arm/Ctrl_Stepper_Motor/libraries/zf_device/zf_device_bluetooth_ch9141.c:40
    uart_query_byte(BLUETOOTH_CH9141_INDEX, &bluetooth_ch9141_data);                // 读取串口数据
    19d4:	82818593          	addi	a1,gp,-2008 # 20000248 <_edata>
    19d8:	4519                	li	a0,6
    19da:	31cd                	jal	16bc <uart_query_byte>
D:/projects/mechanical_arm/Ctrl_Stepper_Motor/libraries/zf_device/zf_device_bluetooth_ch9141.c:41
    fifo_write_buffer(&bluetooth_ch9141_fifo, &bluetooth_ch9141_data, 1);           // 存入 FIFO
    19dc:	4605                	li	a2,1
    19de:	82818593          	addi	a1,gp,-2008 # 20000248 <_edata>
    19e2:	8ac18513          	addi	a0,gp,-1876 # 200002cc <bluetooth_ch9141_fifo>
    19e6:	251d                	jal	200c <fifo_write_buffer>
D:/projects/mechanical_arm/Ctrl_Stepper_Motor/libraries/zf_device/zf_device_bluetooth_ch9141.c:42
}
    19e8:	0001                	nop
    19ea:	40b2                	lw	ra,12(sp)
    19ec:	4422                	lw	s0,8(sp)
    19ee:	0141                	addi	sp,sp,16
    19f0:	8082                	ret

000019f2 <bluetooth_ch9141_uart_callback_ch2>:
bluetooth_ch9141_uart_callback_ch2():
D:/projects/mechanical_arm/Ctrl_Stepper_Motor/libraries/zf_device/zf_device_bluetooth_ch9141_ch2.c:41
//  @since      v1.0
//  Sample usage:
//  @note       该函数在ISR文件 串口8中断程序被调用
//-------------------------------------------------------------------------------------------------------------------
void bluetooth_ch9141_uart_callback_ch2 (void)
{
    19f2:	1141                	addi	sp,sp,-16
    19f4:	c606                	sw	ra,12(sp)
    19f6:	c422                	sw	s0,8(sp)
    19f8:	0800                	addi	s0,sp,16
D:/projects/mechanical_arm/Ctrl_Stepper_Motor/libraries/zf_device/zf_device_bluetooth_ch9141_ch2.c:42
    uart_query_byte(BLUETOOTH_CH9141_INDEX_CH2, &bluetooth_ch9141_data_ch2);                // 读取串口数据
    19fa:	82918593          	addi	a1,gp,-2007 # 20000249 <bluetooth_ch9141_data_ch2>
    19fe:	4505                	li	a0,1
    1a00:	3975                	jal	16bc <uart_query_byte>
D:/projects/mechanical_arm/Ctrl_Stepper_Motor/libraries/zf_device/zf_device_bluetooth_ch9141_ch2.c:43
    fifo_write_buffer(&bluetooth_ch9141_fifo_ch2, &bluetooth_ch9141_data_ch2, 1);           // 存入 FIFO
    1a02:	4605                	li	a2,1
    1a04:	82918593          	addi	a1,gp,-2007 # 20000249 <bluetooth_ch9141_data_ch2>
    1a08:	8c018513          	addi	a0,gp,-1856 # 200002e0 <bluetooth_ch9141_fifo_ch2>
    1a0c:	2501                	jal	200c <fifo_write_buffer>
D:/projects/mechanical_arm/Ctrl_Stepper_Motor/libraries/zf_device/zf_device_bluetooth_ch9141_ch2.c:45

}
    1a0e:	0001                	nop
    1a10:	40b2                	lw	ra,12(sp)
    1a12:	4422                	lw	s0,8(sp)
    1a14:	0141                	addi	sp,sp,16
    1a16:	8082                	ret

00001a18 <camera_uart_handler>:
camera_uart_handler():
D:/projects/mechanical_arm/Ctrl_Stepper_Motor/libraries/zf_device/zf_device_camera.c:35
// @param       void
// @return      void
// Sample usage:
//-------------------------------------------------------------------------------------------------------------------
void camera_uart_handler (void)
{
    1a18:	1141                	addi	sp,sp,-16
    1a1a:	c606                	sw	ra,12(sp)
    1a1c:	c422                	sw	s0,8(sp)
    1a1e:	0800                	addi	s0,sp,16
D:/projects/mechanical_arm/Ctrl_Stepper_Motor/libraries/zf_device/zf_device_camera.c:36
    if(camera_type == CAMERA_BIN_UART)
    1a20:	83c1a703          	lw	a4,-1988(gp) # 2000025c <camera_type>
    1a24:	4789                	li	a5,2
    1a26:	00f70f63          	beq	a4,a5,1a44 <camera_uart_handler+0x2c>
D:/projects/mechanical_arm/Ctrl_Stepper_Motor/libraries/zf_device/zf_device_camera.c:41
    {
        // 小钻风暂不支持
        //ov7725_cof_uart_interrupt();
    }
    else if(camera_type == CAMERA_GRAYSCALE)
    1a2a:	83c1a703          	lw	a4,-1988(gp) # 2000025c <camera_type>
    1a2e:	478d                	li	a5,3
    1a30:	00f71463          	bne	a4,a5,1a38 <camera_uart_handler+0x20>
D:/projects/mechanical_arm/Ctrl_Stepper_Motor/libraries/zf_device/zf_device_camera.c:44
    {
        // 总钻风串口回调函数
        mt9v03x_uart_callback_dvp();
    1a34:	2099                	jal	1a7a <mt9v03x_uart_callback_dvp>
D:/projects/mechanical_arm/Ctrl_Stepper_Motor/libraries/zf_device/zf_device_camera.c:51
    else if(camera_type == CAMERA_COLOR)
    {
        //凌瞳串口回调函数
        scc8660_uart_callback_dvp();
    }
}
    1a36:	a039                	j	1a44 <camera_uart_handler+0x2c>
D:/projects/mechanical_arm/Ctrl_Stepper_Motor/libraries/zf_device/zf_device_camera.c:46
    else if(camera_type == CAMERA_COLOR)
    1a38:	83c1a703          	lw	a4,-1988(gp) # 2000025c <camera_type>
    1a3c:	4791                	li	a5,4
    1a3e:	00f71363          	bne	a4,a5,1a44 <camera_uart_handler+0x2c>
D:/projects/mechanical_arm/Ctrl_Stepper_Motor/libraries/zf_device/zf_device_camera.c:49
        scc8660_uart_callback_dvp();
    1a42:	2845                	jal	1af2 <scc8660_uart_callback_dvp>
D:/projects/mechanical_arm/Ctrl_Stepper_Motor/libraries/zf_device/zf_device_camera.c:51
}
    1a44:	0001                	nop
    1a46:	40b2                	lw	ra,12(sp)
    1a48:	4422                	lw	s0,8(sp)
    1a4a:	0141                	addi	sp,sp,16
    1a4c:	8082                	ret

00001a4e <camera_dvp_handler>:
camera_dvp_handler():
D:/projects/mechanical_arm/Ctrl_Stepper_Motor/libraries/zf_device/zf_device_camera.c:82
// @param       void
// @return      void
// Sample usage:
//-------------------------------------------------------------------------------------------------------------------
void camera_dvp_handler(void)
{
    1a4e:	1141                	addi	sp,sp,-16
    1a50:	c606                	sw	ra,12(sp)
    1a52:	c422                	sw	s0,8(sp)
    1a54:	0800                	addi	s0,sp,16
D:/projects/mechanical_arm/Ctrl_Stepper_Motor/libraries/zf_device/zf_device_camera.c:83
    if(camera_type == CAMERA_COLOR)
    1a56:	83c1a703          	lw	a4,-1988(gp) # 2000025c <camera_type>
    1a5a:	4791                	li	a5,4
    1a5c:	00f71463          	bne	a4,a5,1a64 <camera_dvp_handler+0x16>
D:/projects/mechanical_arm/Ctrl_Stepper_Motor/libraries/zf_device/zf_device_camera.c:85
    {
        scc8660_vsync_dvp();
    1a60:	28e5                	jal	1b58 <scc8660_vsync_dvp>
D:/projects/mechanical_arm/Ctrl_Stepper_Motor/libraries/zf_device/zf_device_camera.c:95
    }
    else if(camera_type == CAMERA_BIN_UART)
    {
        //小钻风不支持
    }
}
    1a62:	a039                	j	1a70 <camera_dvp_handler+0x22>
D:/projects/mechanical_arm/Ctrl_Stepper_Motor/libraries/zf_device/zf_device_camera.c:87
    else if(camera_type == CAMERA_GRAYSCALE)
    1a64:	83c1a703          	lw	a4,-1988(gp) # 2000025c <camera_type>
    1a68:	478d                	li	a5,3
    1a6a:	00f71363          	bne	a4,a5,1a70 <camera_dvp_handler+0x22>
D:/projects/mechanical_arm/Ctrl_Stepper_Motor/libraries/zf_device/zf_device_camera.c:89
        mt9v03x_handler_dvp();
    1a6e:	2885                	jal	1ade <mt9v03x_handler_dvp>
D:/projects/mechanical_arm/Ctrl_Stepper_Motor/libraries/zf_device/zf_device_camera.c:95
}
    1a70:	0001                	nop
    1a72:	40b2                	lw	ra,12(sp)
    1a74:	4422                	lw	s0,8(sp)
    1a76:	0141                	addi	sp,sp,16
    1a78:	8082                	ret

00001a7a <mt9v03x_uart_callback_dvp>:
mt9v03x_uart_callback_dvp():
D:/projects/mechanical_arm/Ctrl_Stepper_Motor/libraries/zf_device/zf_device_mt9v03x_dvp.c:177
// @param       void
// @return      void
// Sample usage:
//-------------------------------------------------------------------------------------------------------------------
void mt9v03x_uart_callback_dvp (void)
{
    1a7a:	1141                	addi	sp,sp,-16
    1a7c:	c606                	sw	ra,12(sp)
    1a7e:	c422                	sw	s0,8(sp)
    1a80:	0800                	addi	s0,sp,16
D:/projects/mechanical_arm/Ctrl_Stepper_Motor/libraries/zf_device/zf_device_mt9v03x_dvp.c:181
//    receive_dvp[receive_num_dvp] = ((USART_TypeDef*)uart_index[MT9V03X_COF_UART_DVP])->DATAR & 0xFF;
//    receive_num_dvp++;

    if(uart_query_byte(MT9V03X_COF_UART_DVP, &receive_dvp[receive_num_dvp]))
    1a82:	82f1c783          	lbu	a5,-2001(gp) # 2000024f <receive_num_dvp>
    1a86:	873e                	mv	a4,a5
    1a88:	82c18793          	addi	a5,gp,-2004 # 2000024c <receive_dvp>
    1a8c:	97ba                	add	a5,a5,a4
    1a8e:	85be                	mv	a1,a5
    1a90:	4511                	li	a0,4
    1a92:	312d                	jal	16bc <uart_query_byte>
    1a94:	87aa                	mv	a5,a0
    1a96:	cb81                	beqz	a5,1aa6 <mt9v03x_uart_callback_dvp+0x2c>
D:/projects/mechanical_arm/Ctrl_Stepper_Motor/libraries/zf_device/zf_device_mt9v03x_dvp.c:182
        receive_num_dvp++;
    1a98:	82f1c783          	lbu	a5,-2001(gp) # 2000024f <receive_num_dvp>
    1a9c:	0785                	addi	a5,a5,1
    1a9e:	0ff7f713          	andi	a4,a5,255
    1aa2:	82e187a3          	sb	a4,-2001(gp) # 2000024f <receive_num_dvp>
D:/projects/mechanical_arm/Ctrl_Stepper_Motor/libraries/zf_device/zf_device_mt9v03x_dvp.c:184

    if(1 == receive_num_dvp && 0XA5!=receive_dvp[0])
    1aa6:	82f1c703          	lbu	a4,-2001(gp) # 2000024f <receive_num_dvp>
    1aaa:	4785                	li	a5,1
    1aac:	00f71a63          	bne	a4,a5,1ac0 <mt9v03x_uart_callback_dvp+0x46>
D:/projects/mechanical_arm/Ctrl_Stepper_Motor/libraries/zf_device/zf_device_mt9v03x_dvp.c:184 (discriminator 1)
    1ab0:	82c1c703          	lbu	a4,-2004(gp) # 2000024c <receive_dvp>
    1ab4:	0a500793          	li	a5,165
    1ab8:	00f70463          	beq	a4,a5,1ac0 <mt9v03x_uart_callback_dvp+0x46>
D:/projects/mechanical_arm/Ctrl_Stepper_Motor/libraries/zf_device/zf_device_mt9v03x_dvp.c:185
        receive_num_dvp = 0;
    1abc:	820187a3          	sb	zero,-2001(gp) # 2000024f <receive_num_dvp>
D:/projects/mechanical_arm/Ctrl_Stepper_Motor/libraries/zf_device/zf_device_mt9v03x_dvp.c:186
    if(3 == receive_num_dvp)
    1ac0:	82f1c703          	lbu	a4,-2001(gp) # 2000024f <receive_num_dvp>
    1ac4:	478d                	li	a5,3
    1ac6:	00f71763          	bne	a4,a5,1ad4 <mt9v03x_uart_callback_dvp+0x5a>
D:/projects/mechanical_arm/Ctrl_Stepper_Motor/libraries/zf_device/zf_device_mt9v03x_dvp.c:188
    {
        receive_num_dvp = 0;
    1aca:	820187a3          	sb	zero,-2001(gp) # 2000024f <receive_num_dvp>
D:/projects/mechanical_arm/Ctrl_Stepper_Motor/libraries/zf_device/zf_device_mt9v03x_dvp.c:189
        uart_receive_flag_dvp = 1;
    1ace:	4705                	li	a4,1
    1ad0:	82e18823          	sb	a4,-2000(gp) # 20000250 <uart_receive_flag_dvp>
D:/projects/mechanical_arm/Ctrl_Stepper_Motor/libraries/zf_device/zf_device_mt9v03x_dvp.c:191
    }
}
    1ad4:	0001                	nop
    1ad6:	40b2                	lw	ra,12(sp)
    1ad8:	4422                	lw	s0,8(sp)
    1ada:	0141                	addi	sp,sp,16
    1adc:	8082                	ret

00001ade <mt9v03x_handler_dvp>:
mt9v03x_handler_dvp():
D:/projects/mechanical_arm/Ctrl_Stepper_Motor/libraries/zf_device/zf_device_mt9v03x_dvp.c:306
//  @return     void
//  @since      v1.0
//  Sample usage:               在isr.c里面先创建对应的中断函数，然后调用该函数(之后别忘记清除中断标志位)
//-------------------------------------------------------------------------------------------------------------------
void mt9v03x_handler_dvp(void)
{
    1ade:	1141                	addi	sp,sp,-16
    1ae0:	c622                	sw	s0,12(sp)
    1ae2:	0800                	addi	s0,sp,16
D:/projects/mechanical_arm/Ctrl_Stepper_Motor/libraries/zf_device/zf_device_mt9v03x_dvp.c:309
    //已经修改为循环采集模式。不需要设置地址和开启DVP
    //DVP->DMA_BUF0 = (uint32)camera_buffer_addr;       // 恢复DMA地址
    mt9v03x_finish_flag_dvp = 1;                        // 摄像头采集完成标志位置1
    1ae4:	4705                	li	a4,1
    1ae6:	82e18523          	sb	a4,-2006(gp) # 2000024a <mt9v03x_finish_flag_dvp>
D:/projects/mechanical_arm/Ctrl_Stepper_Motor/libraries/zf_device/zf_device_mt9v03x_dvp.c:312
    //已经修改为循环采集模式。不需要设置地址和开启DVP
    //DVP->CR0 |= RB_DVP_ENABLE;                          // 重新打开DVP，采集下一副图像
}
    1aea:	0001                	nop
    1aec:	4432                	lw	s0,12(sp)
    1aee:	0141                	addi	sp,sp,16
    1af0:	8082                	ret

00001af2 <scc8660_uart_callback_dvp>:
scc8660_uart_callback_dvp():
D:/projects/mechanical_arm/Ctrl_Stepper_Motor/libraries/zf_device/zf_device_scc8660_dvp.c:106
//  @since      v1.0
//  Sample usage:	
//  @note       该函数在SDK底层fsl_lpuart文件中的串口3中断函数内调用
//-------------------------------------------------------------------------------------------------------------------
void scc8660_uart_callback_dvp(void)
{
    1af2:	1141                	addi	sp,sp,-16
    1af4:	c606                	sw	ra,12(sp)
    1af6:	c422                	sw	s0,8(sp)
    1af8:	0800                	addi	s0,sp,16
D:/projects/mechanical_arm/Ctrl_Stepper_Motor/libraries/zf_device/zf_device_scc8660_dvp.c:107
    if(uart_query_byte(SCC8660_COF_UART_DVP, &scc8660_uart_receive_dvp[scc8660_uart_receive_num_dvp]))
    1afa:	8371c783          	lbu	a5,-1993(gp) # 20000257 <scc8660_uart_receive_num_dvp>
    1afe:	873e                	mv	a4,a5
    1b00:	83418793          	addi	a5,gp,-1996 # 20000254 <scc8660_uart_receive_dvp>
    1b04:	97ba                	add	a5,a5,a4
    1b06:	85be                	mv	a1,a5
    1b08:	4511                	li	a0,4
    1b0a:	bb3ff0ef          	jal	ra,16bc <uart_query_byte>
    1b0e:	87aa                	mv	a5,a0
    1b10:	cb81                	beqz	a5,1b20 <scc8660_uart_callback_dvp+0x2e>
D:/projects/mechanical_arm/Ctrl_Stepper_Motor/libraries/zf_device/zf_device_scc8660_dvp.c:108
        scc8660_uart_receive_num_dvp++;
    1b12:	8371c783          	lbu	a5,-1993(gp) # 20000257 <scc8660_uart_receive_num_dvp>
    1b16:	0785                	addi	a5,a5,1
    1b18:	0ff7f713          	andi	a4,a5,255
    1b1c:	82e18ba3          	sb	a4,-1993(gp) # 20000257 <scc8660_uart_receive_num_dvp>
D:/projects/mechanical_arm/Ctrl_Stepper_Motor/libraries/zf_device/zf_device_scc8660_dvp.c:110

    if(1==scc8660_uart_receive_num_dvp && 0XA5!=scc8660_uart_receive_dvp[0])  scc8660_uart_receive_num_dvp = 0;
    1b20:	8371c703          	lbu	a4,-1993(gp) # 20000257 <scc8660_uart_receive_num_dvp>
    1b24:	4785                	li	a5,1
    1b26:	00f71a63          	bne	a4,a5,1b3a <scc8660_uart_callback_dvp+0x48>
D:/projects/mechanical_arm/Ctrl_Stepper_Motor/libraries/zf_device/zf_device_scc8660_dvp.c:110 (discriminator 1)
    1b2a:	8341c703          	lbu	a4,-1996(gp) # 20000254 <scc8660_uart_receive_dvp>
    1b2e:	0a500793          	li	a5,165
    1b32:	00f70463          	beq	a4,a5,1b3a <scc8660_uart_callback_dvp+0x48>
D:/projects/mechanical_arm/Ctrl_Stepper_Motor/libraries/zf_device/zf_device_scc8660_dvp.c:110 (discriminator 2)
    1b36:	82018ba3          	sb	zero,-1993(gp) # 20000257 <scc8660_uart_receive_num_dvp>
D:/projects/mechanical_arm/Ctrl_Stepper_Motor/libraries/zf_device/zf_device_scc8660_dvp.c:111
    if(3 == scc8660_uart_receive_num_dvp)
    1b3a:	8371c703          	lbu	a4,-1993(gp) # 20000257 <scc8660_uart_receive_num_dvp>
    1b3e:	478d                	li	a5,3
    1b40:	00f71763          	bne	a4,a5,1b4e <scc8660_uart_callback_dvp+0x5c>
D:/projects/mechanical_arm/Ctrl_Stepper_Motor/libraries/zf_device/zf_device_scc8660_dvp.c:113
    {
        scc8660_uart_receive_num_dvp = 0;
    1b44:	82018ba3          	sb	zero,-1993(gp) # 20000257 <scc8660_uart_receive_num_dvp>
D:/projects/mechanical_arm/Ctrl_Stepper_Motor/libraries/zf_device/zf_device_scc8660_dvp.c:114
        scc8660_uart_receive_flag_dvp = 1;
    1b48:	4705                	li	a4,1
    1b4a:	82e18c23          	sb	a4,-1992(gp) # 20000258 <scc8660_uart_receive_flag_dvp>
D:/projects/mechanical_arm/Ctrl_Stepper_Motor/libraries/zf_device/zf_device_scc8660_dvp.c:116
    }
}
    1b4e:	0001                	nop
    1b50:	40b2                	lw	ra,12(sp)
    1b52:	4422                	lw	s0,8(sp)
    1b54:	0141                	addi	sp,sp,16
    1b56:	8082                	ret

00001b58 <scc8660_vsync_dvp>:
scc8660_vsync_dvp():
D:/projects/mechanical_arm/Ctrl_Stepper_Motor/libraries/zf_device/zf_device_scc8660_dvp.c:452
//  @return     void
//  @since      v1.0
//  Sample usage:               在isr.c里面先创建对应的中断函数，然后调用该函数(之后别忘记清除中断标志位)
//-------------------------------------------------------------------------------------------------------------------
void scc8660_vsync_dvp(void)
{
    1b58:	1141                	addi	sp,sp,-16
    1b5a:	c622                	sw	s0,12(sp)
    1b5c:	0800                	addi	s0,sp,16
D:/projects/mechanical_arm/Ctrl_Stepper_Motor/libraries/zf_device/zf_device_scc8660_dvp.c:458
    //已经修改为循环采集模式。不需要设置地址和开启DVP
    //恢复DMA地址
    //DVP->DMA_BUF0 = (uint32)camera_buffer_addr;

    //采集完成标志位置1
    scc8660_finish_flag_dvp = 1;
    1b5e:	4705                	li	a4,1
    1b60:	82e18ca3          	sb	a4,-1991(gp) # 20000259 <scc8660_finish_flag_dvp>
D:/projects/mechanical_arm/Ctrl_Stepper_Motor/libraries/zf_device/zf_device_scc8660_dvp.c:463

    //已经修改为循环采集模式。不需要设置地址和开启DVP
    //开启DVP
    //DVP->CR0 |= RB_DVP_ENABLE;
}
    1b64:	0001                	nop
    1b66:	4432                	lw	s0,12(sp)
    1b68:	0141                	addi	sp,sp,16
    1b6a:	8082                	ret

00001b6c <wireless_ch573_callback>:
wireless_ch573_callback():
D:/projects/mechanical_arm/Ctrl_Stepper_Motor/libraries/zf_device/zf_device_wireless_ch573.c:37
// @return      void
// Sample usage:
// @note
//-------------------------------------------------------------------------------------------------------------------
void wireless_ch573_callback (void)
{
    1b6c:	1141                	addi	sp,sp,-16
    1b6e:	c606                	sw	ra,12(sp)
    1b70:	c422                	sw	s0,8(sp)
    1b72:	0800                	addi	s0,sp,16
D:/projects/mechanical_arm/Ctrl_Stepper_Motor/libraries/zf_device/zf_device_wireless_ch573.c:38
    uart_query_byte(WIRELESS_CH573_INDEX, &wireless_ch573_data);
    1b74:	84418593          	addi	a1,gp,-1980 # 20000264 <wireless_ch573_data>
    1b78:	4505                	li	a0,1
    1b7a:	b43ff0ef          	jal	ra,16bc <uart_query_byte>
D:/projects/mechanical_arm/Ctrl_Stepper_Motor/libraries/zf_device/zf_device_wireless_ch573.c:39
    fifo_write_buffer(&wireless_ch573_fifo, &wireless_ch573_data, 1);
    1b7e:	4605                	li	a2,1
    1b80:	84418593          	addi	a1,gp,-1980 # 20000264 <wireless_ch573_data>
    1b84:	8d418513          	addi	a0,gp,-1836 # 200002f4 <wireless_ch573_fifo>
    1b88:	2151                	jal	200c <fifo_write_buffer>
D:/projects/mechanical_arm/Ctrl_Stepper_Motor/libraries/zf_device/zf_device_wireless_ch573.c:41

}
    1b8a:	0001                	nop
    1b8c:	40b2                	lw	ra,12(sp)
    1b8e:	4422                	lw	s0,8(sp)
    1b90:	0141                	addi	sp,sp,16
    1b92:	8082                	ret

00001b94 <wireless_uart_callback>:
wireless_uart_callback():
D:/projects/mechanical_arm/Ctrl_Stepper_Motor/libraries/zf_device/zf_device_wireless_uart.c:41
// @return      void
// Sample usage:
// @note
//-------------------------------------------------------------------------------------------------------------------
void wireless_uart_callback (void)
{
    1b94:	1141                	addi	sp,sp,-16
    1b96:	c606                	sw	ra,12(sp)
    1b98:	c422                	sw	s0,8(sp)
    1b9a:	0800                	addi	s0,sp,16
D:/projects/mechanical_arm/Ctrl_Stepper_Motor/libraries/zf_device/zf_device_wireless_uart.c:42
    uart_query_byte(WIRELESS_UART_INDEX, &wireless_uart_data);
    1b9c:	84518593          	addi	a1,gp,-1979 # 20000265 <wireless_uart_data>
    1ba0:	4505                	li	a0,1
    1ba2:	b1bff0ef          	jal	ra,16bc <uart_query_byte>
D:/projects/mechanical_arm/Ctrl_Stepper_Motor/libraries/zf_device/zf_device_wireless_uart.c:43
    fifo_write_buffer(&wireless_uart_fifo, &wireless_uart_data, 1);
    1ba6:	4605                	li	a2,1
    1ba8:	84518593          	addi	a1,gp,-1979 # 20000265 <wireless_uart_data>
    1bac:	8e818513          	addi	a0,gp,-1816 # 20000308 <wireless_uart_fifo>
    1bb0:	29b1                	jal	200c <fifo_write_buffer>
D:/projects/mechanical_arm/Ctrl_Stepper_Motor/libraries/zf_device/zf_device_wireless_uart.c:51
    {
        wireless_auto_baud_flag = 3;
        fifo_read_buffer(&wireless_uart_fifo, (uint8 *)wireless_auto_baud_data, (uint32 *)&wireless_auto_baud_flag, FIFO_READ_AND_CLEAN);
    }
#endif
}
    1bb2:	0001                	nop
    1bb4:	40b2                	lw	ra,12(sp)
    1bb6:	4422                	lw	s0,8(sp)
    1bb8:	0141                	addi	sp,sp,16
    1bba:	8082                	ret

00001bbc <clock_init>:
clock_init():
D:/projects/mechanical_arm/Ctrl_Stepper_Motor/libraries/zf_common/zf_common_clock.c:36
// @param       clock           时钟频率 推荐使用 zf_common_clock.h 中 system_clock_enum 定义的选项
// @return      void
// Sample usage:                clock_init(SYSTEM_CLOCK_144M);                   // 初始化核心时钟为 144MHz
//-------------------------------------------------------------------------------------------------------------------
void clock_init (uint32 clock)
{
    1bbc:	1101                	addi	sp,sp,-32
    1bbe:	ce06                	sw	ra,28(sp)
    1bc0:	cc22                	sw	s0,24(sp)
    1bc2:	1000                	addi	s0,sp,32
    1bc4:	fea42623          	sw	a0,-20(s0)
D:/projects/mechanical_arm/Ctrl_Stepper_Motor/libraries/zf_common/zf_common_clock.c:37
    system_clock = clock;                                                       // 记录核心时钟频率
    1bc8:	fec42703          	lw	a4,-20(s0)
    1bcc:	84e1a423          	sw	a4,-1976(gp) # 20000268 <system_clock>
D:/projects/mechanical_arm/Ctrl_Stepper_Motor/libraries/zf_common/zf_common_clock.c:38
    clock_reset();
    1bd0:	2811                	jal	1be4 <clock_reset>
D:/projects/mechanical_arm/Ctrl_Stepper_Motor/libraries/zf_common/zf_common_clock.c:39
    clock_set_freq(clock);
    1bd2:	fec42503          	lw	a0,-20(s0)
    1bd6:	2051                	jal	1c5a <clock_set_freq>
D:/projects/mechanical_arm/Ctrl_Stepper_Motor/libraries/zf_common/zf_common_clock.c:40
    interrupt_init();
    1bd8:	2bc1                	jal	21a8 <interrupt_init>
D:/projects/mechanical_arm/Ctrl_Stepper_Motor/libraries/zf_common/zf_common_clock.c:41
}
    1bda:	0001                	nop
    1bdc:	40f2                	lw	ra,28(sp)
    1bde:	4462                	lw	s0,24(sp)
    1be0:	6105                	addi	sp,sp,32
    1be2:	8082                	ret

00001be4 <clock_reset>:
clock_reset():
D:/projects/mechanical_arm/Ctrl_Stepper_Motor/libraries/zf_common/zf_common_clock.c:49
// @brief       核心时钟恢复初始设置 内部调用
// @param       void
// @return      void
//-------------------------------------------------------------------------------------------------------------------
static void clock_reset (void)
{
    1be4:	1141                	addi	sp,sp,-16
    1be6:	c622                	sw	s0,12(sp)
    1be8:	0800                	addi	s0,sp,16
D:/projects/mechanical_arm/Ctrl_Stepper_Motor/libraries/zf_common/zf_common_clock.c:50
    RCC->CTLR |= (uint32)0x00000001;      //使能HSI振荡器
    1bea:	400217b7          	lui	a5,0x40021
    1bee:	4398                	lw	a4,0(a5)
    1bf0:	400217b7          	lui	a5,0x40021
    1bf4:	00176713          	ori	a4,a4,1
    1bf8:	c398                	sw	a4,0(a5)
D:/projects/mechanical_arm/Ctrl_Stepper_Motor/libraries/zf_common/zf_common_clock.c:51
    RCC->CFGR0 &= (uint32)0xF8FF0000;
    1bfa:	400217b7          	lui	a5,0x40021
    1bfe:	43d4                	lw	a3,4(a5)
    1c00:	400217b7          	lui	a5,0x40021
    1c04:	f8ff0737          	lui	a4,0xf8ff0
    1c08:	8f75                	and	a4,a4,a3
    1c0a:	c3d8                	sw	a4,4(a5)
D:/projects/mechanical_arm/Ctrl_Stepper_Motor/libraries/zf_common/zf_common_clock.c:52
    RCC->CTLR &= (uint32)0xFEF6FFFF;
    1c0c:	400217b7          	lui	a5,0x40021
    1c10:	4394                	lw	a3,0(a5)
    1c12:	400217b7          	lui	a5,0x40021
    1c16:	fef70737          	lui	a4,0xfef70
    1c1a:	177d                	addi	a4,a4,-1
    1c1c:	8f75                	and	a4,a4,a3
    1c1e:	c398                	sw	a4,0(a5)
D:/projects/mechanical_arm/Ctrl_Stepper_Motor/libraries/zf_common/zf_common_clock.c:53
    RCC->CTLR &= (uint32)0xFFFBFFFF;
    1c20:	400217b7          	lui	a5,0x40021
    1c24:	4394                	lw	a3,0(a5)
    1c26:	400217b7          	lui	a5,0x40021
    1c2a:	fffc0737          	lui	a4,0xfffc0
    1c2e:	177d                	addi	a4,a4,-1
    1c30:	8f75                	and	a4,a4,a3
    1c32:	c398                	sw	a4,0(a5)
D:/projects/mechanical_arm/Ctrl_Stepper_Motor/libraries/zf_common/zf_common_clock.c:54
    RCC->CFGR0 &= (uint32)0xFF80FFFF;
    1c34:	400217b7          	lui	a5,0x40021
    1c38:	43d4                	lw	a3,4(a5)
    1c3a:	400217b7          	lui	a5,0x40021
    1c3e:	ff810737          	lui	a4,0xff810
    1c42:	177d                	addi	a4,a4,-1
    1c44:	8f75                	and	a4,a4,a3
    1c46:	c3d8                	sw	a4,4(a5)
D:/projects/mechanical_arm/Ctrl_Stepper_Motor/libraries/zf_common/zf_common_clock.c:55
    RCC->INTR = 0x009F0000;                 // 禁用所有中断并清除挂起位
    1c48:	400217b7          	lui	a5,0x40021
    1c4c:	009f0737          	lui	a4,0x9f0
    1c50:	c798                	sw	a4,8(a5)
D:/projects/mechanical_arm/Ctrl_Stepper_Motor/libraries/zf_common/zf_common_clock.c:56
}
    1c52:	0001                	nop
    1c54:	4432                	lw	s0,12(sp)
    1c56:	0141                	addi	sp,sp,16
    1c58:	8082                	ret

00001c5a <clock_set_freq>:
clock_set_freq():
D:/projects/mechanical_arm/Ctrl_Stepper_Motor/libraries/zf_common/zf_common_clock.c:66
// @brief       核心时钟设置
// @param       clock           时钟频率 推荐使用 zf_common_clock.h 中 system_clock_enum 定义的选项
// @return      void
//-------------------------------------------------------------------------------------------------------------------
static void clock_set_freq (uint32 clock)
{
    1c5a:	7179                	addi	sp,sp,-48
    1c5c:	d622                	sw	s0,44(sp)
    1c5e:	1800                	addi	s0,sp,48
    1c60:	fca42e23          	sw	a0,-36(s0)
D:/projects/mechanical_arm/Ctrl_Stepper_Motor/libraries/zf_common/zf_common_clock.c:67
    __IO uint32 StartUpCounter = 0, HSEStatus = 0;
    1c64:	fe042623          	sw	zero,-20(s0)
    1c68:	fe042423          	sw	zero,-24(s0)
D:/projects/mechanical_arm/Ctrl_Stepper_Motor/libraries/zf_common/zf_common_clock.c:69

    RCC->CTLR |= ((uint32)RCC_HSEON);
    1c6c:	400217b7          	lui	a5,0x40021
    1c70:	4394                	lw	a3,0(a5)
    1c72:	400217b7          	lui	a5,0x40021
    1c76:	6741                	lui	a4,0x10
    1c78:	8f55                	or	a4,a4,a3
    1c7a:	c398                	sw	a4,0(a5)
D:/projects/mechanical_arm/Ctrl_Stepper_Motor/libraries/zf_common/zf_common_clock.c:74 (discriminator 2)

    /* Wait till HSE is ready and if Time out is reached exit */
    do
    {
        HSEStatus = RCC->CTLR & RCC_HSERDY;
    1c7c:	400217b7          	lui	a5,0x40021
    1c80:	4398                	lw	a4,0(a5)
    1c82:	000207b7          	lui	a5,0x20
    1c86:	8ff9                	and	a5,a5,a4
    1c88:	fef42423          	sw	a5,-24(s0)
D:/projects/mechanical_arm/Ctrl_Stepper_Motor/libraries/zf_common/zf_common_clock.c:75 (discriminator 2)
        StartUpCounter++;
    1c8c:	fec42783          	lw	a5,-20(s0)
    1c90:	0785                	addi	a5,a5,1
    1c92:	fef42623          	sw	a5,-20(s0)
D:/projects/mechanical_arm/Ctrl_Stepper_Motor/libraries/zf_common/zf_common_clock.c:76 (discriminator 2)
    } while((HSEStatus == 0) && (StartUpCounter != HSE_STARTUP_TIMEOUT));
    1c96:	fe842783          	lw	a5,-24(s0)
    1c9a:	e799                	bnez	a5,1ca8 <clock_set_freq+0x4e>
D:/projects/mechanical_arm/Ctrl_Stepper_Motor/libraries/zf_common/zf_common_clock.c:76 (discriminator 1)
    1c9c:	fec42703          	lw	a4,-20(s0)
    1ca0:	50000793          	li	a5,1280
    1ca4:	fcf71ce3          	bne	a4,a5,1c7c <clock_set_freq+0x22>
D:/projects/mechanical_arm/Ctrl_Stepper_Motor/libraries/zf_common/zf_common_clock.c:78

    if ((RCC->CTLR & RCC_HSERDY) != RESET)
    1ca8:	400217b7          	lui	a5,0x40021
    1cac:	4398                	lw	a4,0(a5)
    1cae:	000207b7          	lui	a5,0x20
    1cb2:	8ff9                	and	a5,a5,a4
    1cb4:	c789                	beqz	a5,1cbe <clock_set_freq+0x64>
D:/projects/mechanical_arm/Ctrl_Stepper_Motor/libraries/zf_common/zf_common_clock.c:80
    {
        HSEStatus = (uint32)0x01;
    1cb6:	4785                	li	a5,1
    1cb8:	fef42423          	sw	a5,-24(s0)
    1cbc:	a019                	j	1cc2 <clock_set_freq+0x68>
D:/projects/mechanical_arm/Ctrl_Stepper_Motor/libraries/zf_common/zf_common_clock.c:84
    }
    else
    {
        HSEStatus = (uint32)0x00;
    1cbe:	fe042423          	sw	zero,-24(s0)
D:/projects/mechanical_arm/Ctrl_Stepper_Motor/libraries/zf_common/zf_common_clock.c:87
    }

    if (HSEStatus == (uint32)0x01)
    1cc2:	fe842703          	lw	a4,-24(s0)
    1cc6:	4785                	li	a5,1
    1cc8:	1ef71563          	bne	a4,a5,1eb2 <clock_set_freq+0x258>
D:/projects/mechanical_arm/Ctrl_Stepper_Motor/libraries/zf_common/zf_common_clock.c:90
    {
        /* Enable Prefetch Buffer */
        FLASH->ACTLR |= FLASH_ACTLR_PRFTBE;
    1ccc:	400227b7          	lui	a5,0x40022
    1cd0:	4398                	lw	a4,0(a5)
    1cd2:	400227b7          	lui	a5,0x40022
    1cd6:	01076713          	ori	a4,a4,16
    1cda:	c398                	sw	a4,0(a5)
D:/projects/mechanical_arm/Ctrl_Stepper_Motor/libraries/zf_common/zf_common_clock.c:93

        /* Flash wait state */
        FLASH->ACTLR &= (uint32)((uint32)~FLASH_ACTLR_LATENCY);
    1cdc:	400227b7          	lui	a5,0x40022
    1ce0:	4398                	lw	a4,0(a5)
    1ce2:	400227b7          	lui	a5,0x40022
    1ce6:	9b71                	andi	a4,a4,-4
    1ce8:	c398                	sw	a4,0(a5)
D:/projects/mechanical_arm/Ctrl_Stepper_Motor/libraries/zf_common/zf_common_clock.c:95

        FLASH->ACTLR |= (((clock-1)/24000000)&0x07);
    1cea:	400227b7          	lui	a5,0x40022
    1cee:	4394                	lw	a3,0(a5)
    1cf0:	fdc42783          	lw	a5,-36(s0)
    1cf4:	fff78713          	addi	a4,a5,-1 # 40021fff <_eusrstack+0x20011fff>
    1cf8:	016e37b7          	lui	a5,0x16e3
    1cfc:	60078793          	addi	a5,a5,1536 # 16e3600 <_data_lma+0x16d8f1c>
    1d00:	02f757b3          	divu	a5,a4,a5
    1d04:	0077f713          	andi	a4,a5,7
    1d08:	400227b7          	lui	a5,0x40022
    1d0c:	8f55                	or	a4,a4,a3
    1d0e:	c398                	sw	a4,0(a5)
D:/projects/mechanical_arm/Ctrl_Stepper_Motor/libraries/zf_common/zf_common_clock.c:98

        /* HCLK = SYSCLK */
        RCC->CFGR0 |= (uint32)RCC_HPRE_DIV1;
    1d10:	40021737          	lui	a4,0x40021
    1d14:	400217b7          	lui	a5,0x40021
    1d18:	4358                	lw	a4,4(a4)
    1d1a:	c3d8                	sw	a4,4(a5)
D:/projects/mechanical_arm/Ctrl_Stepper_Motor/libraries/zf_common/zf_common_clock.c:100
        /* PCLK2 = HCLK */
        RCC->CFGR0 |= (uint32)RCC_PPRE2_DIV1;
    1d1c:	40021737          	lui	a4,0x40021
    1d20:	400217b7          	lui	a5,0x40021
    1d24:	4358                	lw	a4,4(a4)
    1d26:	c3d8                	sw	a4,4(a5)
D:/projects/mechanical_arm/Ctrl_Stepper_Motor/libraries/zf_common/zf_common_clock.c:102
        /* PCLK1 = HCLK */
        RCC->CFGR0 |= (uint32)RCC_PPRE1_DIV1;
    1d28:	40021737          	lui	a4,0x40021
    1d2c:	400217b7          	lui	a5,0x40021
    1d30:	4358                	lw	a4,4(a4)
    1d32:	c3d8                	sw	a4,4(a5)
D:/projects/mechanical_arm/Ctrl_Stepper_Motor/libraries/zf_common/zf_common_clock.c:105


        if(clock == SYSTEM_CLOCK_XTAL)
    1d34:	fdc42703          	lw	a4,-36(s0)
    1d38:	007a17b7          	lui	a5,0x7a1
    1d3c:	20078793          	addi	a5,a5,512 # 7a1200 <_data_lma+0x796b1c>
    1d40:	02f71b63          	bne	a4,a5,1d76 <clock_set_freq+0x11c>
D:/projects/mechanical_arm/Ctrl_Stepper_Motor/libraries/zf_common/zf_common_clock.c:108
        {
            /* Select HSE as system clock source */
            RCC->CFGR0 &= (uint32)((uint32)~(RCC_SW));
    1d44:	400217b7          	lui	a5,0x40021
    1d48:	43d8                	lw	a4,4(a5)
    1d4a:	400217b7          	lui	a5,0x40021
    1d4e:	9b71                	andi	a4,a4,-4
    1d50:	c3d8                	sw	a4,4(a5)
D:/projects/mechanical_arm/Ctrl_Stepper_Motor/libraries/zf_common/zf_common_clock.c:109
            RCC->CFGR0 |= (uint32)RCC_SW_HSE;
    1d52:	400217b7          	lui	a5,0x40021
    1d56:	43d8                	lw	a4,4(a5)
    1d58:	400217b7          	lui	a5,0x40021
    1d5c:	00176713          	ori	a4,a4,1
    1d60:	c3d8                	sw	a4,4(a5)
D:/projects/mechanical_arm/Ctrl_Stepper_Motor/libraries/zf_common/zf_common_clock.c:111
            /* Wait till HSE is used as system clock source */
            while ((RCC->CFGR0 & (uint32)RCC_SWS) != (uint32)0x04)
    1d62:	0001                	nop
D:/projects/mechanical_arm/Ctrl_Stepper_Motor/libraries/zf_common/zf_common_clock.c:111 (discriminator 1)
    1d64:	400217b7          	lui	a5,0x40021
    1d68:	43dc                	lw	a5,4(a5)
    1d6a:	00c7f713          	andi	a4,a5,12
    1d6e:	4791                	li	a5,4
    1d70:	fef71ae3          	bne	a4,a5,1d64 <clock_set_freq+0x10a>
D:/projects/mechanical_arm/Ctrl_Stepper_Motor/libraries/zf_common/zf_common_clock.c:161
        /*
        * If HSE fails to start-up, the application will have wrong clock
        * configuration. User can add here some code to deal with this error
        */
    }
}
    1d74:	a281                	j	1eb4 <clock_set_freq+0x25a>
D:/projects/mechanical_arm/Ctrl_Stepper_Motor/libraries/zf_common/zf_common_clock.c:118
            RCC->CFGR0 &= (uint32)((uint32)~(RCC_PLLSRC | RCC_PLLXTPRE | RCC_PLLMULL));
    1d76:	400217b7          	lui	a5,0x40021
    1d7a:	43d4                	lw	a3,4(a5)
    1d7c:	400217b7          	lui	a5,0x40021
    1d80:	ffc10737          	lui	a4,0xffc10
    1d84:	177d                	addi	a4,a4,-1
    1d86:	8f75                	and	a4,a4,a3
    1d88:	c3d8                	sw	a4,4(a5)
D:/projects/mechanical_arm/Ctrl_Stepper_Motor/libraries/zf_common/zf_common_clock.c:120
            if(clock == SYSTEM_CLOCK_144M)
    1d8a:	fdc42703          	lw	a4,-36(s0)
    1d8e:	089547b7          	lui	a5,0x8954
    1d92:	40078793          	addi	a5,a5,1024 # 8954400 <_data_lma+0x8949d1c>
    1d96:	00f71b63          	bne	a4,a5,1dac <clock_set_freq+0x152>
D:/projects/mechanical_arm/Ctrl_Stepper_Motor/libraries/zf_common/zf_common_clock.c:121
            RCC->CFGR0 |= (uint32)(RCC_PLLSRC_HSE | RCC_PLLXTPRE_HSE | RCC_PLLMULL18_EXTEN);
    1d9a:	400217b7          	lui	a5,0x40021
    1d9e:	43d4                	lw	a3,4(a5)
    1da0:	400217b7          	lui	a5,0x40021
    1da4:	6741                	lui	a4,0x10
    1da6:	8f55                	or	a4,a4,a3
    1da8:	c3d8                	sw	a4,4(a5)
    1daa:	a855                	j	1e5e <clock_set_freq+0x204>
D:/projects/mechanical_arm/Ctrl_Stepper_Motor/libraries/zf_common/zf_common_clock.c:122
            else if(clock == SYSTEM_CLOCK_120M)
    1dac:	fdc42703          	lw	a4,-36(s0)
    1db0:	072717b7          	lui	a5,0x7271
    1db4:	e0078793          	addi	a5,a5,-512 # 7270e00 <_data_lma+0x726671c>
    1db8:	00f71c63          	bne	a4,a5,1dd0 <clock_set_freq+0x176>
D:/projects/mechanical_arm/Ctrl_Stepper_Motor/libraries/zf_common/zf_common_clock.c:123
            RCC->CFGR0 |= (uint32)(RCC_PLLSRC_HSE | RCC_PLLXTPRE_HSE | RCC_PLLMULL15_EXTEN);
    1dbc:	400217b7          	lui	a5,0x40021
    1dc0:	43d4                	lw	a3,4(a5)
    1dc2:	400217b7          	lui	a5,0x40021
    1dc6:	00390737          	lui	a4,0x390
    1dca:	8f55                	or	a4,a4,a3
    1dcc:	c3d8                	sw	a4,4(a5)
    1dce:	a841                	j	1e5e <clock_set_freq+0x204>
D:/projects/mechanical_arm/Ctrl_Stepper_Motor/libraries/zf_common/zf_common_clock.c:124
            else if(clock == SYSTEM_CLOCK_96M)
    1dd0:	fdc42703          	lw	a4,-36(s0)
    1dd4:	05b8e7b7          	lui	a5,0x5b8e
    1dd8:	80078793          	addi	a5,a5,-2048 # 5b8d800 <_data_lma+0x5b8311c>
    1ddc:	00f71c63          	bne	a4,a5,1df4 <clock_set_freq+0x19a>
D:/projects/mechanical_arm/Ctrl_Stepper_Motor/libraries/zf_common/zf_common_clock.c:125
            RCC->CFGR0 |= (uint32)(RCC_PLLSRC_HSE | RCC_PLLXTPRE_HSE | RCC_PLLMULL12_EXTEN);
    1de0:	400217b7          	lui	a5,0x40021
    1de4:	43d4                	lw	a3,4(a5)
    1de6:	400217b7          	lui	a5,0x40021
    1dea:	00290737          	lui	a4,0x290
    1dee:	8f55                	or	a4,a4,a3
    1df0:	c3d8                	sw	a4,4(a5)
    1df2:	a0b5                	j	1e5e <clock_set_freq+0x204>
D:/projects/mechanical_arm/Ctrl_Stepper_Motor/libraries/zf_common/zf_common_clock.c:126
            else if(clock == SYSTEM_CLOCK_72M)
    1df4:	fdc42703          	lw	a4,-36(s0)
    1df8:	044aa7b7          	lui	a5,0x44aa
    1dfc:	20078793          	addi	a5,a5,512 # 44aa200 <_data_lma+0x449fb1c>
    1e00:	00f71c63          	bne	a4,a5,1e18 <clock_set_freq+0x1be>
D:/projects/mechanical_arm/Ctrl_Stepper_Motor/libraries/zf_common/zf_common_clock.c:127
            RCC->CFGR0 |= (uint32)(RCC_PLLSRC_HSE | RCC_PLLXTPRE_HSE | RCC_PLLMULL9_EXTEN);
    1e04:	400217b7          	lui	a5,0x40021
    1e08:	43d4                	lw	a3,4(a5)
    1e0a:	400217b7          	lui	a5,0x40021
    1e0e:	001d0737          	lui	a4,0x1d0
    1e12:	8f55                	or	a4,a4,a3
    1e14:	c3d8                	sw	a4,4(a5)
    1e16:	a0a1                	j	1e5e <clock_set_freq+0x204>
D:/projects/mechanical_arm/Ctrl_Stepper_Motor/libraries/zf_common/zf_common_clock.c:128
            else if(clock == SYSTEM_CLOCK_48M)
    1e18:	fdc42703          	lw	a4,-36(s0)
    1e1c:	02dc77b7          	lui	a5,0x2dc7
    1e20:	c0078793          	addi	a5,a5,-1024 # 2dc6c00 <_data_lma+0x2dbc51c>
    1e24:	00f71c63          	bne	a4,a5,1e3c <clock_set_freq+0x1e2>
D:/projects/mechanical_arm/Ctrl_Stepper_Motor/libraries/zf_common/zf_common_clock.c:129
            RCC->CFGR0 |= (uint32)(RCC_PLLSRC_HSE | RCC_PLLXTPRE_HSE | RCC_PLLMULL6_EXTEN);
    1e28:	400217b7          	lui	a5,0x40021
    1e2c:	43d4                	lw	a3,4(a5)
    1e2e:	400217b7          	lui	a5,0x40021
    1e32:	00110737          	lui	a4,0x110
    1e36:	8f55                	or	a4,a4,a3
    1e38:	c3d8                	sw	a4,4(a5)
    1e3a:	a015                	j	1e5e <clock_set_freq+0x204>
D:/projects/mechanical_arm/Ctrl_Stepper_Motor/libraries/zf_common/zf_common_clock.c:130
            else if(clock == SYSTEM_CLOCK_24M)
    1e3c:	fdc42703          	lw	a4,-36(s0)
    1e40:	016e37b7          	lui	a5,0x16e3
    1e44:	60078793          	addi	a5,a5,1536 # 16e3600 <_data_lma+0x16d8f1c>
    1e48:	00f71b63          	bne	a4,a5,1e5e <clock_set_freq+0x204>
D:/projects/mechanical_arm/Ctrl_Stepper_Motor/libraries/zf_common/zf_common_clock.c:131
            RCC->CFGR0 |= (uint32)(RCC_PLLSRC_HSE | RCC_PLLXTPRE_HSE | RCC_PLLMULL3_EXTEN);
    1e4c:	400217b7          	lui	a5,0x40021
    1e50:	43d4                	lw	a3,4(a5)
    1e52:	400217b7          	lui	a5,0x40021
    1e56:	00050737          	lui	a4,0x50
    1e5a:	8f55                	or	a4,a4,a3
    1e5c:	c3d8                	sw	a4,4(a5)
D:/projects/mechanical_arm/Ctrl_Stepper_Motor/libraries/zf_common/zf_common_clock.c:138
            RCC->CTLR |= RCC_PLLON;
    1e5e:	400217b7          	lui	a5,0x40021
    1e62:	4394                	lw	a3,0(a5)
    1e64:	400217b7          	lui	a5,0x40021
    1e68:	01000737          	lui	a4,0x1000
    1e6c:	8f55                	or	a4,a4,a3
    1e6e:	c398                	sw	a4,0(a5)
D:/projects/mechanical_arm/Ctrl_Stepper_Motor/libraries/zf_common/zf_common_clock.c:140
            while((RCC->CTLR & RCC_PLLRDY) == 0)
    1e70:	0001                	nop
D:/projects/mechanical_arm/Ctrl_Stepper_Motor/libraries/zf_common/zf_common_clock.c:140 (discriminator 1)
    1e72:	400217b7          	lui	a5,0x40021
    1e76:	4398                	lw	a4,0(a5)
    1e78:	020007b7          	lui	a5,0x2000
    1e7c:	8ff9                	and	a5,a5,a4
    1e7e:	dbf5                	beqz	a5,1e72 <clock_set_freq+0x218>
D:/projects/mechanical_arm/Ctrl_Stepper_Motor/libraries/zf_common/zf_common_clock.c:144
            RCC->CFGR0 &= (uint32)((uint32)~(RCC_SW));
    1e80:	400217b7          	lui	a5,0x40021
    1e84:	43d8                	lw	a4,4(a5)
    1e86:	400217b7          	lui	a5,0x40021
    1e8a:	9b71                	andi	a4,a4,-4
    1e8c:	c3d8                	sw	a4,4(a5)
D:/projects/mechanical_arm/Ctrl_Stepper_Motor/libraries/zf_common/zf_common_clock.c:145
            RCC->CFGR0 |= (uint32)RCC_SW_PLL;
    1e8e:	400217b7          	lui	a5,0x40021
    1e92:	43d8                	lw	a4,4(a5)
    1e94:	400217b7          	lui	a5,0x40021
    1e98:	00276713          	ori	a4,a4,2
    1e9c:	c3d8                	sw	a4,4(a5)
D:/projects/mechanical_arm/Ctrl_Stepper_Motor/libraries/zf_common/zf_common_clock.c:147
            while ((RCC->CFGR0 & (uint32)RCC_SWS) != (uint32)0x08)
    1e9e:	0001                	nop
D:/projects/mechanical_arm/Ctrl_Stepper_Motor/libraries/zf_common/zf_common_clock.c:147 (discriminator 1)
    1ea0:	400217b7          	lui	a5,0x40021
    1ea4:	43dc                	lw	a5,4(a5)
    1ea6:	00c7f713          	andi	a4,a5,12
    1eaa:	47a1                	li	a5,8
    1eac:	fef71ae3          	bne	a4,a5,1ea0 <clock_set_freq+0x246>
D:/projects/mechanical_arm/Ctrl_Stepper_Motor/libraries/zf_common/zf_common_clock.c:161
}
    1eb0:	a011                	j	1eb4 <clock_set_freq+0x25a>
D:/projects/mechanical_arm/Ctrl_Stepper_Motor/libraries/zf_common/zf_common_clock.c:155 (discriminator 2)
        while(1);           // 外部晶振不稳定或缺失 时钟设置失败
    1eb2:	a001                	j	1eb2 <clock_set_freq+0x258>
D:/projects/mechanical_arm/Ctrl_Stepper_Motor/libraries/zf_common/zf_common_clock.c:161
}
    1eb4:	5432                	lw	s0,44(sp)
    1eb6:	6145                	addi	sp,sp,48
    1eb8:	8082                	ret

00001eba <__NOP>:
__NOP():
D:\projects\mechanical_arm\Ctrl_Stepper_Motor\libraries\sdk\Core/core_riscv.h:117
#define SysTick         ((SysTick_Type *) 0xE000F000)

/* risc-v specific functions */
RV_STATIC_INLINE void __enable_irq() { __asm volatile ("csrw 0x800, %0" : : "r" (0x6088) ); }
RV_STATIC_INLINE void __disable_irq() { __asm volatile ("csrw 0x800, %0" : : "r" (0x6000) ); }
RV_STATIC_INLINE void __NOP() { __asm volatile ("nop"); }
    1eba:	1141                	addi	sp,sp,-16
    1ebc:	c622                	sw	s0,12(sp)
    1ebe:	0800                	addi	s0,sp,16
    1ec0:	0001                	nop
    1ec2:	0001                	nop
    1ec4:	4432                	lw	s0,12(sp)
    1ec6:	0141                	addi	sp,sp,16
    1ec8:	8082                	ret

00001eca <debug_init>:
debug_init():
D:/projects/mechanical_arm/Ctrl_Stepper_Motor/libraries/zf_common/zf_common_debug.c:41
// @param       void
// @return      void
// Sample usage:
//-------------------------------------------------------------------------------------------------------------------
void debug_init (void)
{
    1eca:	1141                	addi	sp,sp,-16
    1ecc:	c606                	sw	ra,12(sp)
    1ece:	c422                	sw	s0,8(sp)
    1ed0:	0800                	addi	s0,sp,16
D:/projects/mechanical_arm/Ctrl_Stepper_Motor/libraries/zf_common/zf_common_debug.c:48
//    GPIO_DeInit(GPIOB);
//    GPIO_DeInit(GPIOC);
//    GPIO_DeInit(GPIOD);
//    GPIO_DeInit(GPIOE);

    uart_init(
    1ed2:	02100693          	li	a3,33
    1ed6:	02000613          	li	a2,32
    1eda:	67f1                	lui	a5,0x1c
    1edc:	20078593          	addi	a1,a5,512 # 1c200 <_data_lma+0x11b1c>
    1ee0:	4509                	li	a0,2
    1ee2:	839ff0ef          	jal	ra,171a <uart_init>
D:/projects/mechanical_arm/Ctrl_Stepper_Motor/libraries/zf_common/zf_common_debug.c:56
        DEBUG_UART_TX_PIN,                                                      // 在 zf_common_debug.h 中查看对应值
        DEBUG_UART_RX_PIN);                                                     // 在 zf_common_debug.h 中查看对应值

    if(DEBUG_UART_USE_INTERRUPT)                                                // 如果启用串口中断
    {
        uart_rx_interrupt(DEBUG_UART_INDEX, 1);                                 // 使能对应串口接收中断
    1ee6:	4585                	li	a1,1
    1ee8:	4509                	li	a0,2
    1eea:	f4cff0ef          	jal	ra,1636 <uart_rx_interrupt>
D:/projects/mechanical_arm/Ctrl_Stepper_Motor/libraries/zf_common/zf_common_debug.c:58
    }
    zf_debug_init_flag = 1;
    1eee:	4705                	li	a4,1
    1ef0:	84e18623          	sb	a4,-1972(gp) # 2000026c <zf_debug_init_flag>
D:/projects/mechanical_arm/Ctrl_Stepper_Motor/libraries/zf_common/zf_common_debug.c:59
}
    1ef4:	0001                	nop
    1ef6:	40b2                	lw	ra,12(sp)
    1ef8:	4422                	lw	s0,8(sp)
    1efa:	0141                	addi	sp,sp,16
    1efc:	8082                	ret

00001efe <debug_assert_handler>:
debug_assert_handler():
D:/projects/mechanical_arm/Ctrl_Stepper_Motor/libraries/zf_common/zf_common_debug.c:70
// @param       line        目标行数
// @return      void
// Sample usage:            这个函数不是直接调用的 使用 zf_commmon_debug.h 中的 zf_assert(x) 接口
//-------------------------------------------------------------------------------------------------------------------
void debug_assert_handler (uint8 pass, char *file, uint32 line)
{
    1efe:	1101                	addi	sp,sp,-32
    1f00:	ce06                	sw	ra,28(sp)
    1f02:	cc22                	sw	s0,24(sp)
    1f04:	1000                	addi	s0,sp,32
    1f06:	87aa                	mv	a5,a0
    1f08:	feb42423          	sw	a1,-24(s0)
    1f0c:	fec42223          	sw	a2,-28(s0)
    1f10:	fef407a3          	sb	a5,-17(s0)
D:/projects/mechanical_arm/Ctrl_Stepper_Motor/libraries/zf_common/zf_common_debug.c:71
    if(pass)
    1f14:	fef44783          	lbu	a5,-17(s0)
    1f18:	e385                	bnez	a5,1f38 <debug_assert_handler+0x3a>
D:/projects/mechanical_arm/Ctrl_Stepper_Motor/libraries/zf_common/zf_common_debug.c:73
        return;
    if(zf_debug_init_flag)
    1f1a:	84c1c783          	lbu	a5,-1972(gp) # 2000026c <zf_debug_init_flag>
    1f1e:	cb91                	beqz	a5,1f32 <debug_assert_handler+0x34>
D:/projects/mechanical_arm/Ctrl_Stepper_Motor/libraries/zf_common/zf_common_debug.c:75
    {
        printf("Assert error in %s line %d.\r\n", file, line);
    1f20:	fe442603          	lw	a2,-28(s0)
    1f24:	fe842583          	lw	a1,-24(s0)
    1f28:	67a9                	lui	a5,0xa
    1f2a:	ff078513          	addi	a0,a5,-16 # 9ff0 <_sbrk+0x74>
    1f2e:	22f050ef          	jal	ra,795c <iprintf>
D:/projects/mechanical_arm/Ctrl_Stepper_Motor/libraries/zf_common/zf_common_debug.c:77
    }
    interrupt_global_disable();
    1f32:	2c4d                	jal	21e4 <interrupt_global_disable>
D:/projects/mechanical_arm/Ctrl_Stepper_Motor/libraries/zf_common/zf_common_debug.c:92 (discriminator 1)
        // 如果没有初始化 debug
        // 那就看看这个 file 的字符串值和 line 的行数
        // 那代表报错的文件路径名称和对应报错行数

        // 再去调试看看是为什么参数出错
        __NOP();
    1f34:	3759                	jal	1eba <__NOP>
    1f36:	bffd                	j	1f34 <debug_assert_handler+0x36>
D:/projects/mechanical_arm/Ctrl_Stepper_Motor/libraries/zf_common/zf_common_debug.c:72
        return;
    1f38:	0001                	nop
D:/projects/mechanical_arm/Ctrl_Stepper_Motor/libraries/zf_common/zf_common_debug.c:94
    }
}
    1f3a:	40f2                	lw	ra,28(sp)
    1f3c:	4462                	lw	s0,24(sp)
    1f3e:	6105                	addi	sp,sp,32
    1f40:	8082                	ret

00001f42 <_write>:
_write():
D:/projects/mechanical_arm/Ctrl_Stepper_Motor/libraries/zf_common/zf_common_debug.c:159
//  @since      v1.0
//  Sample usage:              重定向printf到DEBUG串口上
//-------------------------------------------------------------------------------------------------------------------
#if (1 == PRINTF_ENABLE)
int _write(int fd, char *buf, int size)
{
    1f42:	7179                	addi	sp,sp,-48
    1f44:	d606                	sw	ra,44(sp)
    1f46:	d422                	sw	s0,40(sp)
    1f48:	1800                	addi	s0,sp,48
    1f4a:	fca42e23          	sw	a0,-36(s0)
    1f4e:	fcb42c23          	sw	a1,-40(s0)
    1f52:	fcc42a23          	sw	a2,-44(s0)
D:/projects/mechanical_arm/Ctrl_Stepper_Motor/libraries/zf_common/zf_common_debug.c:161
    int i;
    for(i=0; i<size; i++)
    1f56:	fe042623          	sw	zero,-20(s0)
    1f5a:	a0a9                	j	1fa4 <_write+0x62>
D:/projects/mechanical_arm/Ctrl_Stepper_Motor/libraries/zf_common/zf_common_debug.c:163
    {
        while (USART_GetFlagStatus((USART_TypeDef*)uart_index[DEBUG_UART_INDEX], USART_FLAG_TC) == RESET);
    1f5c:	0001                	nop
D:/projects/mechanical_arm/Ctrl_Stepper_Motor/libraries/zf_common/zf_common_debug.c:163 (discriminator 1)
    1f5e:	67a9                	lui	a5,0xa
    1f60:	0b878793          	addi	a5,a5,184 # a0b8 <uart_index>
    1f64:	479c                	lw	a5,8(a5)
    1f66:	04000593          	li	a1,64
    1f6a:	853e                	mv	a0,a5
    1f6c:	4b2020ef          	jal	ra,441e <USART_GetFlagStatus>
    1f70:	87aa                	mv	a5,a0
    1f72:	d7f5                	beqz	a5,1f5e <_write+0x1c>
D:/projects/mechanical_arm/Ctrl_Stepper_Motor/libraries/zf_common/zf_common_debug.c:164 (discriminator 2)
        USART_SendData((USART_TypeDef*)uart_index[DEBUG_UART_INDEX], *buf++);
    1f74:	67a9                	lui	a5,0xa
    1f76:	0b878793          	addi	a5,a5,184 # a0b8 <uart_index>
    1f7a:	479c                	lw	a5,8(a5)
    1f7c:	86be                	mv	a3,a5
    1f7e:	fd842783          	lw	a5,-40(s0)
    1f82:	00178713          	addi	a4,a5,1
    1f86:	fce42c23          	sw	a4,-40(s0)
    1f8a:	00078783          	lb	a5,0(a5)
    1f8e:	07c2                	slli	a5,a5,0x10
    1f90:	83c1                	srli	a5,a5,0x10
    1f92:	85be                	mv	a1,a5
    1f94:	8536                	mv	a0,a3
    1f96:	45a020ef          	jal	ra,43f0 <USART_SendData>
D:/projects/mechanical_arm/Ctrl_Stepper_Motor/libraries/zf_common/zf_common_debug.c:161 (discriminator 2)
    for(i=0; i<size; i++)
    1f9a:	fec42783          	lw	a5,-20(s0)
    1f9e:	0785                	addi	a5,a5,1
    1fa0:	fef42623          	sw	a5,-20(s0)
D:/projects/mechanical_arm/Ctrl_Stepper_Motor/libraries/zf_common/zf_common_debug.c:161 (discriminator 1)
    1fa4:	fec42703          	lw	a4,-20(s0)
    1fa8:	fd442783          	lw	a5,-44(s0)
    1fac:	faf748e3          	blt	a4,a5,1f5c <_write+0x1a>
D:/projects/mechanical_arm/Ctrl_Stepper_Motor/libraries/zf_common/zf_common_debug.c:167

    }
    return size;
    1fb0:	fd442783          	lw	a5,-44(s0)
D:/projects/mechanical_arm/Ctrl_Stepper_Motor/libraries/zf_common/zf_common_debug.c:168
}
    1fb4:	853e                	mv	a0,a5
    1fb6:	50b2                	lw	ra,44(sp)
    1fb8:	5422                	lw	s0,40(sp)
    1fba:	6145                	addi	sp,sp,48
    1fbc:	8082                	ret

00001fbe <fifo_head_offset>:
fifo_head_offset():
D:/projects/mechanical_arm/Ctrl_Stepper_Motor/libraries/zf_common/zf_common_fifo.c:53
// @param       offset          偏移量
// @return      void
// Sample usage:
//-------------------------------------------------------------------------------------------------------------------
void fifo_head_offset (fifo_struct *fifo, uint32 offset)
{
    1fbe:	1101                	addi	sp,sp,-32
    1fc0:	ce22                	sw	s0,28(sp)
    1fc2:	1000                	addi	s0,sp,32
    1fc4:	fea42623          	sw	a0,-20(s0)
    1fc8:	feb42423          	sw	a1,-24(s0)
D:/projects/mechanical_arm/Ctrl_Stepper_Motor/libraries/zf_common/zf_common_fifo.c:54
    fifo->head += offset;
    1fcc:	fec42783          	lw	a5,-20(s0)
    1fd0:	43d8                	lw	a4,4(a5)
    1fd2:	fe842783          	lw	a5,-24(s0)
    1fd6:	973e                	add	a4,a4,a5
    1fd8:	fec42783          	lw	a5,-20(s0)
    1fdc:	c3d8                	sw	a4,4(a5)
D:/projects/mechanical_arm/Ctrl_Stepper_Motor/libraries/zf_common/zf_common_fifo.c:56
    
    while(fifo->max <= fifo->head)                                              // 如果范围超过则减缓冲区大小 直到小于最大缓冲区大小
    1fde:	a819                	j	1ff4 <fifo_head_offset+0x36>
D:/projects/mechanical_arm/Ctrl_Stepper_Motor/libraries/zf_common/zf_common_fifo.c:58
    {
        fifo->head -= fifo->max;
    1fe0:	fec42783          	lw	a5,-20(s0)
    1fe4:	43d8                	lw	a4,4(a5)
    1fe6:	fec42783          	lw	a5,-20(s0)
    1fea:	4b9c                	lw	a5,16(a5)
    1fec:	8f1d                	sub	a4,a4,a5
    1fee:	fec42783          	lw	a5,-20(s0)
    1ff2:	c3d8                	sw	a4,4(a5)
D:/projects/mechanical_arm/Ctrl_Stepper_Motor/libraries/zf_common/zf_common_fifo.c:56
    while(fifo->max <= fifo->head)                                              // 如果范围超过则减缓冲区大小 直到小于最大缓冲区大小
    1ff4:	fec42783          	lw	a5,-20(s0)
    1ff8:	4b98                	lw	a4,16(a5)
    1ffa:	fec42783          	lw	a5,-20(s0)
    1ffe:	43dc                	lw	a5,4(a5)
    2000:	fee7f0e3          	bgeu	a5,a4,1fe0 <fifo_head_offset+0x22>
D:/projects/mechanical_arm/Ctrl_Stepper_Motor/libraries/zf_common/zf_common_fifo.c:60
    }
}
    2004:	0001                	nop
    2006:	4472                	lw	s0,28(sp)
    2008:	6105                	addi	sp,sp,32
    200a:	8082                	ret

0000200c <fifo_write_buffer>:
fifo_write_buffer():
D:/projects/mechanical_arm/Ctrl_Stepper_Motor/libraries/zf_common/zf_common_fifo.c:112
// @param       length          需要写入的数据长度
// @return      fifo_state_enum 操作状态
// Sample usage:                if(fifo_write(&fifo,data,32)!=FIFO_SUCCESS) while(1);
//-------------------------------------------------------------------------------------------------------------------
fifo_state_enum fifo_write_buffer (fifo_struct *fifo, uint8 *dat, uint32 length)
{
    200c:	7179                	addi	sp,sp,-48
    200e:	d606                	sw	ra,44(sp)
    2010:	d422                	sw	s0,40(sp)
    2012:	1800                	addi	s0,sp,48
    2014:	fca42e23          	sw	a0,-36(s0)
    2018:	fcb42c23          	sw	a1,-40(s0)
    201c:	fcc42a23          	sw	a2,-44(s0)
D:/projects/mechanical_arm/Ctrl_Stepper_Motor/libraries/zf_common/zf_common_fifo.c:115
    uint32 temp_length;
    
    if(length < fifo->size)                                                     // 剩余空间足够装下本次数据
    2020:	fdc42783          	lw	a5,-36(s0)
    2024:	47dc                	lw	a5,12(a5)
    2026:	fd442703          	lw	a4,-44(s0)
    202a:	0cf77b63          	bgeu	a4,a5,2100 <fifo_write_buffer+0xf4>
D:/projects/mechanical_arm/Ctrl_Stepper_Motor/libraries/zf_common/zf_common_fifo.c:117
    {
        interrupt_global_disable();
    202e:	2a5d                	jal	21e4 <interrupt_global_disable>
D:/projects/mechanical_arm/Ctrl_Stepper_Motor/libraries/zf_common/zf_common_fifo.c:118
        temp_length = fifo->max - fifo->head;                                   // 计算头指针距离缓冲区尾还有多少空间
    2030:	fdc42783          	lw	a5,-36(s0)
    2034:	4b98                	lw	a4,16(a5)
    2036:	fdc42783          	lw	a5,-36(s0)
    203a:	43dc                	lw	a5,4(a5)
    203c:	40f707b3          	sub	a5,a4,a5
    2040:	fef42623          	sw	a5,-20(s0)
D:/projects/mechanical_arm/Ctrl_Stepper_Motor/libraries/zf_common/zf_common_fifo.c:120

        if(length > temp_length)                                                // 距离缓冲区尾长度不足写入数据 环形缓冲区分段操作
    2044:	fd442703          	lw	a4,-44(s0)
    2048:	fec42783          	lw	a5,-20(s0)
    204c:	06e7fb63          	bgeu	a5,a4,20c2 <fifo_write_buffer+0xb6>
D:/projects/mechanical_arm/Ctrl_Stepper_Motor/libraries/zf_common/zf_common_fifo.c:122
        {
            memcpy(&fifo->buffer[fifo->head], dat, temp_length);                // 拷贝第一段数据
    2050:	fdc42783          	lw	a5,-36(s0)
    2054:	4398                	lw	a4,0(a5)
    2056:	fdc42783          	lw	a5,-36(s0)
    205a:	43dc                	lw	a5,4(a5)
    205c:	97ba                	add	a5,a5,a4
    205e:	fec42603          	lw	a2,-20(s0)
    2062:	fd842583          	lw	a1,-40(s0)
    2066:	853e                	mv	a0,a5
    2068:	649040ef          	jal	ra,6eb0 <memcpy>
D:/projects/mechanical_arm/Ctrl_Stepper_Motor/libraries/zf_common/zf_common_fifo.c:123
            fifo_head_offset(fifo, temp_length);                                // 头指针偏移
    206c:	fec42583          	lw	a1,-20(s0)
    2070:	fdc42503          	lw	a0,-36(s0)
    2074:	37a9                	jal	1fbe <fifo_head_offset>
D:/projects/mechanical_arm/Ctrl_Stepper_Motor/libraries/zf_common/zf_common_fifo.c:124
            dat += temp_length;                                                 // 读取缓冲偏移
    2076:	fd842703          	lw	a4,-40(s0)
    207a:	fec42783          	lw	a5,-20(s0)
    207e:	97ba                	add	a5,a5,a4
    2080:	fcf42c23          	sw	a5,-40(s0)
D:/projects/mechanical_arm/Ctrl_Stepper_Motor/libraries/zf_common/zf_common_fifo.c:125
            memcpy(&fifo->buffer[fifo->head], dat, length - temp_length);       // 拷贝第一段数据
    2084:	fdc42783          	lw	a5,-36(s0)
    2088:	4398                	lw	a4,0(a5)
    208a:	fdc42783          	lw	a5,-36(s0)
    208e:	43dc                	lw	a5,4(a5)
    2090:	00f706b3          	add	a3,a4,a5
    2094:	fd442703          	lw	a4,-44(s0)
    2098:	fec42783          	lw	a5,-20(s0)
    209c:	40f707b3          	sub	a5,a4,a5
    20a0:	863e                	mv	a2,a5
    20a2:	fd842583          	lw	a1,-40(s0)
    20a6:	8536                	mv	a0,a3
    20a8:	609040ef          	jal	ra,6eb0 <memcpy>
D:/projects/mechanical_arm/Ctrl_Stepper_Motor/libraries/zf_common/zf_common_fifo.c:126
            fifo_head_offset(fifo, length - temp_length);                       // 头指针偏移
    20ac:	fd442703          	lw	a4,-44(s0)
    20b0:	fec42783          	lw	a5,-20(s0)
    20b4:	40f707b3          	sub	a5,a4,a5
    20b8:	85be                	mv	a1,a5
    20ba:	fdc42503          	lw	a0,-36(s0)
    20be:	3701                	jal	1fbe <fifo_head_offset>
    20c0:	a025                	j	20e8 <fifo_write_buffer+0xdc>
D:/projects/mechanical_arm/Ctrl_Stepper_Motor/libraries/zf_common/zf_common_fifo.c:130
        }
        else
        {
            memcpy(&fifo->buffer[fifo->head], dat, length);                     // 一次完整写入
    20c2:	fdc42783          	lw	a5,-36(s0)
    20c6:	4398                	lw	a4,0(a5)
    20c8:	fdc42783          	lw	a5,-36(s0)
    20cc:	43dc                	lw	a5,4(a5)
    20ce:	97ba                	add	a5,a5,a4
    20d0:	fd442603          	lw	a2,-44(s0)
    20d4:	fd842583          	lw	a1,-40(s0)
    20d8:	853e                	mv	a0,a5
    20da:	5d7040ef          	jal	ra,6eb0 <memcpy>
D:/projects/mechanical_arm/Ctrl_Stepper_Motor/libraries/zf_common/zf_common_fifo.c:131
            fifo_head_offset(fifo, length);                                     // 头指针偏移
    20de:	fd442583          	lw	a1,-44(s0)
    20e2:	fdc42503          	lw	a0,-36(s0)
    20e6:	3de1                	jal	1fbe <fifo_head_offset>
D:/projects/mechanical_arm/Ctrl_Stepper_Motor/libraries/zf_common/zf_common_fifo.c:134
        }

        fifo->size -= length;                                                   // 缓冲区剩余长度减小
    20e8:	fdc42783          	lw	a5,-36(s0)
    20ec:	47d8                	lw	a4,12(a5)
    20ee:	fd442783          	lw	a5,-44(s0)
    20f2:	8f1d                	sub	a4,a4,a5
    20f4:	fdc42783          	lw	a5,-36(s0)
    20f8:	c7d8                	sw	a4,12(a5)
D:/projects/mechanical_arm/Ctrl_Stepper_Motor/libraries/zf_common/zf_common_fifo.c:135
        interrupt_global_enable();
    20fa:	2875                	jal	21b6 <interrupt_global_enable>
D:/projects/mechanical_arm/Ctrl_Stepper_Motor/libraries/zf_common/zf_common_fifo.c:142
    else
    {
        return FIFO_SPACE_NO_ENOUGH;
    }
    
    return FIFO_SUCCESS;
    20fc:	4781                	li	a5,0
    20fe:	a011                	j	2102 <fifo_write_buffer+0xf6>
D:/projects/mechanical_arm/Ctrl_Stepper_Motor/libraries/zf_common/zf_common_fifo.c:139
        return FIFO_SPACE_NO_ENOUGH;
    2100:	4789                	li	a5,2
D:/projects/mechanical_arm/Ctrl_Stepper_Motor/libraries/zf_common/zf_common_fifo.c:143
}
    2102:	853e                	mv	a0,a5
    2104:	50b2                	lw	ra,44(sp)
    2106:	5422                	lw	s0,40(sp)
    2108:	6145                	addi	sp,sp,48
    210a:	8082                	ret

0000210c <NVIC_EnableIRQ>:
NVIC_EnableIRQ():
D:\projects\mechanical_arm\Ctrl_Stepper_Motor\libraries\sdk\Core/core_riscv.h:129
* Function Name  : NVIC_EnableIRQ
* Description    : Enable Interrupt
* Input          : IRQn: Interrupt Numbers
* Return         : None
*******************************************************************************/
RV_STATIC_INLINE void NVIC_EnableIRQ(IRQn_Type IRQn){
    210c:	1101                	addi	sp,sp,-32
    210e:	ce22                	sw	s0,28(sp)
    2110:	1000                	addi	s0,sp,32
    2112:	fea42623          	sw	a0,-20(s0)
D:\projects\mechanical_arm\Ctrl_Stepper_Motor\libraries\sdk\Core/core_riscv.h:130
  NVIC->IENR[((uint32_t)(IRQn) >> 5)] = (1 << ((uint32_t)(IRQn) & 0x1F));
    2116:	fec42783          	lw	a5,-20(s0)
    211a:	8bfd                	andi	a5,a5,31
    211c:	4705                	li	a4,1
    211e:	00f716b3          	sll	a3,a4,a5
    2122:	e000e737          	lui	a4,0xe000e
    2126:	fec42783          	lw	a5,-20(s0)
    212a:	8395                	srli	a5,a5,0x5
    212c:	04078793          	addi	a5,a5,64
    2130:	078a                	slli	a5,a5,0x2
    2132:	97ba                	add	a5,a5,a4
    2134:	c394                	sw	a3,0(a5)
D:\projects\mechanical_arm\Ctrl_Stepper_Motor\libraries\sdk\Core/core_riscv.h:131
}
    2136:	0001                	nop
    2138:	4472                	lw	s0,28(sp)
    213a:	6105                	addi	sp,sp,32
    213c:	8082                	ret

0000213e <NVIC_DisableIRQ>:
NVIC_DisableIRQ():
D:\projects\mechanical_arm\Ctrl_Stepper_Motor\libraries\sdk\Core/core_riscv.h:140
* Description    : Disable Interrupt
* Input          : IRQn: Interrupt Numbers
* Return         : None
*******************************************************************************/
RV_STATIC_INLINE void NVIC_DisableIRQ(IRQn_Type IRQn)
{
    213e:	1101                	addi	sp,sp,-32
    2140:	ce22                	sw	s0,28(sp)
    2142:	1000                	addi	s0,sp,32
    2144:	fea42623          	sw	a0,-20(s0)
D:\projects\mechanical_arm\Ctrl_Stepper_Motor\libraries\sdk\Core/core_riscv.h:141
  NVIC->IRER[((uint32_t)(IRQn) >> 5)] = (1 << ((uint32_t)(IRQn) & 0x1F));
    2148:	fec42783          	lw	a5,-20(s0)
    214c:	8bfd                	andi	a5,a5,31
    214e:	4705                	li	a4,1
    2150:	00f716b3          	sll	a3,a4,a5
    2154:	e000e737          	lui	a4,0xe000e
    2158:	fec42783          	lw	a5,-20(s0)
    215c:	8395                	srli	a5,a5,0x5
    215e:	06078793          	addi	a5,a5,96
    2162:	078a                	slli	a5,a5,0x2
    2164:	97ba                	add	a5,a5,a4
    2166:	c394                	sw	a3,0(a5)
D:\projects\mechanical_arm\Ctrl_Stepper_Motor\libraries\sdk\Core/core_riscv.h:142
}
    2168:	0001                	nop
    216a:	4472                	lw	s0,28(sp)
    216c:	6105                	addi	sp,sp,32
    216e:	8082                	ret

00002170 <interrupt_enable>:
interrupt_enable():
D:/projects/mechanical_arm/Ctrl_Stepper_Motor/libraries/zf_common/zf_common_interrupt.c:34
// @param       irqn            指定中断号 可查看 isr.c 对应中断服务函数的标注
// @return      void
// Sample usage:                interrupt_enable(UART1_IRQn);
//-------------------------------------------------------------------------------------------------------------------
void interrupt_enable (IRQn_Type irqn)
{
    2170:	1101                	addi	sp,sp,-32
    2172:	ce06                	sw	ra,28(sp)
    2174:	cc22                	sw	s0,24(sp)
    2176:	1000                	addi	s0,sp,32
    2178:	fea42623          	sw	a0,-20(s0)
D:/projects/mechanical_arm/Ctrl_Stepper_Motor/libraries/zf_common/zf_common_interrupt.c:35
    NVIC_EnableIRQ(irqn);
    217c:	fec42503          	lw	a0,-20(s0)
    2180:	3771                	jal	210c <NVIC_EnableIRQ>
D:/projects/mechanical_arm/Ctrl_Stepper_Motor/libraries/zf_common/zf_common_interrupt.c:36
}
    2182:	0001                	nop
    2184:	40f2                	lw	ra,28(sp)
    2186:	4462                	lw	s0,24(sp)
    2188:	6105                	addi	sp,sp,32
    218a:	8082                	ret

0000218c <interrupt_disable>:
interrupt_disable():
D:/projects/mechanical_arm/Ctrl_Stepper_Motor/libraries/zf_common/zf_common_interrupt.c:45
// @param       irqn            指定中断号 可查看 isr.c 对应中断服务函数的标注
// @return      void
// Sample usage:                interrupt_disable(UART1_IRQn);
//-------------------------------------------------------------------------------------------------------------------
void interrupt_disable (IRQn_Type irqn)
{
    218c:	1101                	addi	sp,sp,-32
    218e:	ce06                	sw	ra,28(sp)
    2190:	cc22                	sw	s0,24(sp)
    2192:	1000                	addi	s0,sp,32
    2194:	fea42623          	sw	a0,-20(s0)
D:/projects/mechanical_arm/Ctrl_Stepper_Motor/libraries/zf_common/zf_common_interrupt.c:46
    NVIC_DisableIRQ(irqn);
    2198:	fec42503          	lw	a0,-20(s0)
    219c:	374d                	jal	213e <NVIC_DisableIRQ>
D:/projects/mechanical_arm/Ctrl_Stepper_Motor/libraries/zf_common/zf_common_interrupt.c:47
}
    219e:	0001                	nop
    21a0:	40f2                	lw	ra,28(sp)
    21a2:	4462                	lw	s0,24(sp)
    21a4:	6105                	addi	sp,sp,32
    21a6:	8082                	ret

000021a8 <interrupt_init>:
interrupt_init():
D:/projects/mechanical_arm/Ctrl_Stepper_Motor/libraries/zf_common/zf_common_interrupt.c:69
// @param       void
// @return      void
// Sample usage:                interrupt_init();
//-------------------------------------------------------------------------------------------------------------------
void interrupt_init (void)
{
    21a8:	1141                	addi	sp,sp,-16
    21aa:	c622                	sw	s0,12(sp)
    21ac:	0800                	addi	s0,sp,16
D:/projects/mechanical_arm/Ctrl_Stepper_Motor/libraries/zf_common/zf_common_interrupt.c:72
    //NVIC_SetPriorityGrouping(4);

}
    21ae:	0001                	nop
    21b0:	4432                	lw	s0,12(sp)
    21b2:	0141                	addi	sp,sp,16
    21b4:	8082                	ret

000021b6 <interrupt_global_enable>:
interrupt_global_enable():
D:/projects/mechanical_arm/Ctrl_Stepper_Motor/libraries/zf_common/zf_common_interrupt.c:81
// @param       void            还原的嵌套层 如果传入 0 则直接清空嵌套层数开启总中断
// @return      void
// Sample usage:                interrupt_global_enable();
//-------------------------------------------------------------------------------------------------------------------
void interrupt_global_enable (void)
{
    21b6:	1141                	addi	sp,sp,-16
    21b8:	c606                	sw	ra,12(sp)
    21ba:	c422                	sw	s0,8(sp)
    21bc:	0800                	addi	s0,sp,16
D:/projects/mechanical_arm/Ctrl_Stepper_Motor/libraries/zf_common/zf_common_interrupt.c:82
    if(interrupt_nest_count)
    21be:	8501a783          	lw	a5,-1968(gp) # 20000270 <interrupt_nest_count>
    21c2:	c799                	beqz	a5,21d0 <interrupt_global_enable+0x1a>
D:/projects/mechanical_arm/Ctrl_Stepper_Motor/libraries/zf_common/zf_common_interrupt.c:83
        interrupt_nest_count--;
    21c4:	8501a783          	lw	a5,-1968(gp) # 20000270 <interrupt_nest_count>
    21c8:	fff78713          	addi	a4,a5,-1
    21cc:	84e1a823          	sw	a4,-1968(gp) # 20000270 <interrupt_nest_count>
D:/projects/mechanical_arm/Ctrl_Stepper_Motor/libraries/zf_common/zf_common_interrupt.c:85

    if(interrupt_nest_count == 0)
    21d0:	8501a783          	lw	a5,-1968(gp) # 20000270 <interrupt_nest_count>
    21d4:	e399                	bnez	a5,21da <interrupt_global_enable+0x24>
D:/projects/mechanical_arm/Ctrl_Stepper_Motor/libraries/zf_common/zf_common_interrupt.c:88
    {
        extern void en_interrupt();
        en_interrupt();
    21d6:	830fe0ef          	jal	ra,206 <en_interrupt>
D:/projects/mechanical_arm/Ctrl_Stepper_Motor/libraries/zf_common/zf_common_interrupt.c:90
    }
}
    21da:	0001                	nop
    21dc:	40b2                	lw	ra,12(sp)
    21de:	4422                	lw	s0,8(sp)
    21e0:	0141                	addi	sp,sp,16
    21e2:	8082                	ret

000021e4 <interrupt_global_disable>:
interrupt_global_disable():
D:/projects/mechanical_arm/Ctrl_Stepper_Motor/libraries/zf_common/zf_common_interrupt.c:99
// @param       void
// @return      void
// Sample usage:                interrupt_disable_all();
//-------------------------------------------------------------------------------------------------------------------
void interrupt_global_disable (void)
{
    21e4:	1141                	addi	sp,sp,-16
    21e6:	c606                	sw	ra,12(sp)
    21e8:	c422                	sw	s0,8(sp)
    21ea:	0800                	addi	s0,sp,16
D:/projects/mechanical_arm/Ctrl_Stepper_Motor/libraries/zf_common/zf_common_interrupt.c:100
    if(!interrupt_nest_count)
    21ec:	8501a783          	lw	a5,-1968(gp) # 20000270 <interrupt_nest_count>
    21f0:	e399                	bnez	a5,21f6 <interrupt_global_disable+0x12>
D:/projects/mechanical_arm/Ctrl_Stepper_Motor/libraries/zf_common/zf_common_interrupt.c:103
    {
        extern void dis_interrupt();
        dis_interrupt();
    21f2:	80efe0ef          	jal	ra,200 <dis_interrupt>
D:/projects/mechanical_arm/Ctrl_Stepper_Motor/libraries/zf_common/zf_common_interrupt.c:105
    }
    interrupt_nest_count++;
    21f6:	8501a783          	lw	a5,-1968(gp) # 20000270 <interrupt_nest_count>
    21fa:	00178713          	addi	a4,a5,1
    21fe:	84e1a823          	sw	a4,-1968(gp) # 20000270 <interrupt_nest_count>
D:/projects/mechanical_arm/Ctrl_Stepper_Motor/libraries/zf_common/zf_common_interrupt.c:110
    //返回当前mstatus寄存器的值
//    uint32 temp;
//    temp = __get_MSTATUS();
//    return temp;
}
    2202:	0001                	nop
    2204:	40b2                	lw	ra,12(sp)
    2206:	4422                	lw	s0,8(sp)
    2208:	0141                	addi	sp,sp,16
    220a:	8082                	ret

0000220c <USART1_IRQHandler>:
USART1_IRQHandler():
D:/projects/mechanical_arm/Ctrl_Stepper_Motor/project/user/src/isr.c:65
void EXTI4_IRQHandler(void) __attribute__((interrupt("WCH-Interrupt-fast")));
void EXTI9_5_IRQHandler(void) __attribute__((interrupt("WCH-Interrupt-fast")));
void EXTI15_10_IRQHandler(void) __attribute__((interrupt("WCH-Interrupt-fast")));

void USART1_IRQHandler(void)
{
    220c:	1141                	addi	sp,sp,-16
    220e:	c622                	sw	s0,12(sp)
    2210:	0800                	addi	s0,sp,16
D:/projects/mechanical_arm/Ctrl_Stepper_Motor/project/user/src/isr.c:66
    if(USART_GetITStatus(USART1, USART_IT_RXNE) != RESET)
    2212:	52500593          	li	a1,1317
    2216:	400147b7          	lui	a5,0x40014
    221a:	80078513          	addi	a0,a5,-2048 # 40013800 <_eusrstack+0x20003800>
    221e:	246020ef          	jal	ra,4464 <USART_GetITStatus>
    2222:	87aa                	mv	a5,a0
    2224:	cb89                	beqz	a5,2236 <USART1_IRQHandler+0x2a>
D:/projects/mechanical_arm/Ctrl_Stepper_Motor/project/user/src/isr.c:69
    {

        USART_ClearITPendingBit(USART1, USART_IT_RXNE);
    2226:	52500593          	li	a1,1317
    222a:	400147b7          	lui	a5,0x40014
    222e:	80078513          	addi	a0,a5,-2048 # 40013800 <_eusrstack+0x20003800>
    2232:	334020ef          	jal	ra,4566 <USART_ClearITPendingBit>
D:/projects/mechanical_arm/Ctrl_Stepper_Motor/project/user/src/isr.c:71
    }
}
    2236:	0001                	nop
    2238:	4432                	lw	s0,12(sp)
    223a:	0141                	addi	sp,sp,16
    223c:	30200073          	mret

00002240 <USART2_IRQHandler>:
USART2_IRQHandler():
D:/projects/mechanical_arm/Ctrl_Stepper_Motor/project/user/src/isr.c:73
void USART2_IRQHandler(void)
{
    2240:	1141                	addi	sp,sp,-16
    2242:	c622                	sw	s0,12(sp)
    2244:	0800                	addi	s0,sp,16
D:/projects/mechanical_arm/Ctrl_Stepper_Motor/project/user/src/isr.c:74
    if(USART_GetITStatus(USART2, USART_IT_RXNE) != RESET)
    2246:	52500593          	li	a1,1317
    224a:	400047b7          	lui	a5,0x40004
    224e:	40078513          	addi	a0,a5,1024 # 40004400 <_eusrstack+0x1fff4400>
    2252:	212020ef          	jal	ra,4464 <USART_GetITStatus>
    2256:	87aa                	mv	a5,a0
    2258:	c3a1                	beqz	a5,2298 <USART2_IRQHandler+0x58>
D:/projects/mechanical_arm/Ctrl_Stepper_Motor/project/user/src/isr.c:76
    {
        if(wireless_type == WIRELESS_UART)
    225a:	8401a703          	lw	a4,-1984(gp) # 20000260 <wireless_type>
    225e:	4785                	li	a5,1
    2260:	00f71563          	bne	a4,a5,226a <USART2_IRQHandler+0x2a>
D:/projects/mechanical_arm/Ctrl_Stepper_Motor/project/user/src/isr.c:78
        {
            wireless_uart_callback();
    2264:	931ff0ef          	jal	ra,1b94 <wireless_uart_callback>
    2268:	a005                	j	2288 <USART2_IRQHandler+0x48>
D:/projects/mechanical_arm/Ctrl_Stepper_Motor/project/user/src/isr.c:80
        }
        else if(wireless_type == BLUETOOTH_CH9141)
    226a:	8401a703          	lw	a4,-1984(gp) # 20000260 <wireless_type>
    226e:	4789                	li	a5,2
    2270:	00f71563          	bne	a4,a5,227a <USART2_IRQHandler+0x3a>
D:/projects/mechanical_arm/Ctrl_Stepper_Motor/project/user/src/isr.c:82
        {
            bluetooth_ch9141_uart_callback_ch2();
    2274:	f7eff0ef          	jal	ra,19f2 <bluetooth_ch9141_uart_callback_ch2>
    2278:	a801                	j	2288 <USART2_IRQHandler+0x48>
D:/projects/mechanical_arm/Ctrl_Stepper_Motor/project/user/src/isr.c:84
        }
        else if(wireless_type == WIRELESS_CH573)
    227a:	8401a703          	lw	a4,-1984(gp) # 20000260 <wireless_type>
    227e:	478d                	li	a5,3
    2280:	00f71463          	bne	a4,a5,2288 <USART2_IRQHandler+0x48>
D:/projects/mechanical_arm/Ctrl_Stepper_Motor/project/user/src/isr.c:86
        {
            wireless_ch573_callback();
    2284:	8e9ff0ef          	jal	ra,1b6c <wireless_ch573_callback>
D:/projects/mechanical_arm/Ctrl_Stepper_Motor/project/user/src/isr.c:88
        }
        USART_ClearITPendingBit(USART2, USART_IT_RXNE);
    2288:	52500593          	li	a1,1317
    228c:	400047b7          	lui	a5,0x40004
    2290:	40078513          	addi	a0,a5,1024 # 40004400 <_eusrstack+0x1fff4400>
    2294:	2d2020ef          	jal	ra,4566 <USART_ClearITPendingBit>
D:/projects/mechanical_arm/Ctrl_Stepper_Motor/project/user/src/isr.c:90
    }
}
    2298:	0001                	nop
    229a:	4432                	lw	s0,12(sp)
    229c:	0141                	addi	sp,sp,16
    229e:	30200073          	mret

000022a2 <USART3_IRQHandler>:
USART3_IRQHandler():
D:/projects/mechanical_arm/Ctrl_Stepper_Motor/project/user/src/isr.c:92
void USART3_IRQHandler(void)
{
    22a2:	1141                	addi	sp,sp,-16
    22a4:	c622                	sw	s0,12(sp)
    22a6:	0800                	addi	s0,sp,16
D:/projects/mechanical_arm/Ctrl_Stepper_Motor/project/user/src/isr.c:93
    if(USART_GetITStatus(USART3, USART_IT_RXNE) != RESET)
    22a8:	52500593          	li	a1,1317
    22ac:	400057b7          	lui	a5,0x40005
    22b0:	80078513          	addi	a0,a5,-2048 # 40004800 <_eusrstack+0x1fff4800>
    22b4:	1b0020ef          	jal	ra,4464 <USART_GetITStatus>
    22b8:	87aa                	mv	a5,a0
    22ba:	cb89                	beqz	a5,22cc <USART3_IRQHandler+0x2a>
D:/projects/mechanical_arm/Ctrl_Stepper_Motor/project/user/src/isr.c:96
    {

        USART_ClearITPendingBit(USART3, USART_IT_RXNE);
    22bc:	52500593          	li	a1,1317
    22c0:	400057b7          	lui	a5,0x40005
    22c4:	80078513          	addi	a0,a5,-2048 # 40004800 <_eusrstack+0x1fff4800>
    22c8:	29e020ef          	jal	ra,4566 <USART_ClearITPendingBit>
D:/projects/mechanical_arm/Ctrl_Stepper_Motor/project/user/src/isr.c:98
    }
}
    22cc:	0001                	nop
    22ce:	4432                	lw	s0,12(sp)
    22d0:	0141                	addi	sp,sp,16
    22d2:	30200073          	mret

000022d6 <UART4_IRQHandler>:
UART4_IRQHandler():
D:/projects/mechanical_arm/Ctrl_Stepper_Motor/project/user/src/isr.c:100
void UART4_IRQHandler (void)
{
    22d6:	1141                	addi	sp,sp,-16
    22d8:	c622                	sw	s0,12(sp)
    22da:	0800                	addi	s0,sp,16
D:/projects/mechanical_arm/Ctrl_Stepper_Motor/project/user/src/isr.c:101
    if(USART_GetITStatus(UART4, USART_IT_RXNE) != RESET)
    22dc:	52500593          	li	a1,1317
    22e0:	400057b7          	lui	a5,0x40005
    22e4:	c0078513          	addi	a0,a5,-1024 # 40004c00 <_eusrstack+0x1fff4c00>
    22e8:	17c020ef          	jal	ra,4464 <USART_GetITStatus>
    22ec:	87aa                	mv	a5,a0
    22ee:	cb89                	beqz	a5,2300 <UART4_IRQHandler+0x2a>
D:/projects/mechanical_arm/Ctrl_Stepper_Motor/project/user/src/isr.c:104
    {

        USART_ClearITPendingBit(UART4, USART_IT_RXNE);
    22f0:	52500593          	li	a1,1317
    22f4:	400057b7          	lui	a5,0x40005
    22f8:	c0078513          	addi	a0,a5,-1024 # 40004c00 <_eusrstack+0x1fff4c00>
    22fc:	26a020ef          	jal	ra,4566 <USART_ClearITPendingBit>
D:/projects/mechanical_arm/Ctrl_Stepper_Motor/project/user/src/isr.c:106
    }
}
    2300:	0001                	nop
    2302:	4432                	lw	s0,12(sp)
    2304:	0141                	addi	sp,sp,16
    2306:	30200073          	mret

0000230a <UART5_IRQHandler>:
UART5_IRQHandler():
D:/projects/mechanical_arm/Ctrl_Stepper_Motor/project/user/src/isr.c:108
void UART5_IRQHandler (void)
{
    230a:	1141                	addi	sp,sp,-16
    230c:	c622                	sw	s0,12(sp)
    230e:	0800                	addi	s0,sp,16
D:/projects/mechanical_arm/Ctrl_Stepper_Motor/project/user/src/isr.c:109
    if(USART_GetITStatus(UART5, USART_IT_RXNE) != RESET)
    2310:	52500593          	li	a1,1317
    2314:	40005537          	lui	a0,0x40005
    2318:	14c020ef          	jal	ra,4464 <USART_GetITStatus>
    231c:	87aa                	mv	a5,a0
    231e:	cb89                	beqz	a5,2330 <UART5_IRQHandler+0x26>
D:/projects/mechanical_arm/Ctrl_Stepper_Motor/project/user/src/isr.c:111
    {
        camera_uart_handler();
    2320:	ef8ff0ef          	jal	ra,1a18 <camera_uart_handler>
D:/projects/mechanical_arm/Ctrl_Stepper_Motor/project/user/src/isr.c:112
        USART_ClearITPendingBit(UART5, USART_IT_RXNE);
    2324:	52500593          	li	a1,1317
    2328:	40005537          	lui	a0,0x40005
    232c:	23a020ef          	jal	ra,4566 <USART_ClearITPendingBit>
D:/projects/mechanical_arm/Ctrl_Stepper_Motor/project/user/src/isr.c:114
    }
}
    2330:	0001                	nop
    2332:	4432                	lw	s0,12(sp)
    2334:	0141                	addi	sp,sp,16
    2336:	30200073          	mret

0000233a <UART6_IRQHandler>:
UART6_IRQHandler():
D:/projects/mechanical_arm/Ctrl_Stepper_Motor/project/user/src/isr.c:116
void UART6_IRQHandler (void)
{
    233a:	1141                	addi	sp,sp,-16
    233c:	c622                	sw	s0,12(sp)
    233e:	0800                	addi	s0,sp,16
D:/projects/mechanical_arm/Ctrl_Stepper_Motor/project/user/src/isr.c:117
    if(USART_GetITStatus(UART6, USART_IT_RXNE) != RESET)
    2340:	52500593          	li	a1,1317
    2344:	400027b7          	lui	a5,0x40002
    2348:	80078513          	addi	a0,a5,-2048 # 40001800 <_eusrstack+0x1fff1800>
    234c:	118020ef          	jal	ra,4464 <USART_GetITStatus>
    2350:	87aa                	mv	a5,a0
    2352:	cb89                	beqz	a5,2364 <UART6_IRQHandler+0x2a>
D:/projects/mechanical_arm/Ctrl_Stepper_Motor/project/user/src/isr.c:120
    {

        USART_ClearITPendingBit(UART6, USART_IT_RXNE);
    2354:	52500593          	li	a1,1317
    2358:	400027b7          	lui	a5,0x40002
    235c:	80078513          	addi	a0,a5,-2048 # 40001800 <_eusrstack+0x1fff1800>
    2360:	206020ef          	jal	ra,4566 <USART_ClearITPendingBit>
D:/projects/mechanical_arm/Ctrl_Stepper_Motor/project/user/src/isr.c:122
    }
}
    2364:	0001                	nop
    2366:	4432                	lw	s0,12(sp)
    2368:	0141                	addi	sp,sp,16
    236a:	30200073          	mret

0000236e <UART7_IRQHandler>:
UART7_IRQHandler():
D:/projects/mechanical_arm/Ctrl_Stepper_Motor/project/user/src/isr.c:124
void UART7_IRQHandler (void)
{
    236e:	1141                	addi	sp,sp,-16
    2370:	c622                	sw	s0,12(sp)
    2372:	0800                	addi	s0,sp,16
D:/projects/mechanical_arm/Ctrl_Stepper_Motor/project/user/src/isr.c:125
    if(USART_GetITStatus(UART7, USART_IT_RXNE) != RESET)
    2374:	52500593          	li	a1,1317
    2378:	400027b7          	lui	a5,0x40002
    237c:	c0078513          	addi	a0,a5,-1024 # 40001c00 <_eusrstack+0x1fff1c00>
    2380:	0e4020ef          	jal	ra,4464 <USART_GetITStatus>
    2384:	87aa                	mv	a5,a0
    2386:	c78d                	beqz	a5,23b0 <UART7_IRQHandler+0x42>
D:/projects/mechanical_arm/Ctrl_Stepper_Motor/project/user/src/isr.c:127
    {
        if(wireless_type == WIRELESS_UART)
    2388:	8401a703          	lw	a4,-1984(gp) # 20000260 <wireless_type>
    238c:	4785                	li	a5,1
    238e:	00f70963          	beq	a4,a5,23a0 <UART7_IRQHandler+0x32>
D:/projects/mechanical_arm/Ctrl_Stepper_Motor/project/user/src/isr.c:131
        {

        }
        else if(wireless_type == BLUETOOTH_CH9141)
    2392:	8401a703          	lw	a4,-1984(gp) # 20000260 <wireless_type>
    2396:	4789                	li	a5,2
    2398:	00f71463          	bne	a4,a5,23a0 <UART7_IRQHandler+0x32>
D:/projects/mechanical_arm/Ctrl_Stepper_Motor/project/user/src/isr.c:133
        {
            bluetooth_ch9141_uart_callback_ch1();
    239c:	e30ff0ef          	jal	ra,19cc <bluetooth_ch9141_uart_callback_ch1>
D:/projects/mechanical_arm/Ctrl_Stepper_Motor/project/user/src/isr.c:135
        }
        USART_ClearITPendingBit(UART7, USART_IT_RXNE);
    23a0:	52500593          	li	a1,1317
    23a4:	400027b7          	lui	a5,0x40002
    23a8:	c0078513          	addi	a0,a5,-1024 # 40001c00 <_eusrstack+0x1fff1c00>
    23ac:	1ba020ef          	jal	ra,4566 <USART_ClearITPendingBit>
D:/projects/mechanical_arm/Ctrl_Stepper_Motor/project/user/src/isr.c:137
    }
}
    23b0:	0001                	nop
    23b2:	4432                	lw	s0,12(sp)
    23b4:	0141                	addi	sp,sp,16
    23b6:	30200073          	mret

000023ba <UART8_IRQHandler>:
UART8_IRQHandler():
D:/projects/mechanical_arm/Ctrl_Stepper_Motor/project/user/src/isr.c:139
void UART8_IRQHandler (void)
{
    23ba:	1141                	addi	sp,sp,-16
    23bc:	c622                	sw	s0,12(sp)
    23be:	0800                	addi	s0,sp,16
D:/projects/mechanical_arm/Ctrl_Stepper_Motor/project/user/src/isr.c:140
    if(USART_GetITStatus(UART8, USART_IT_RXNE) != RESET)
    23c0:	52500593          	li	a1,1317
    23c4:	40002537          	lui	a0,0x40002
    23c8:	09c020ef          	jal	ra,4464 <USART_GetITStatus>
    23cc:	87aa                	mv	a5,a0
    23ce:	c799                	beqz	a5,23dc <UART8_IRQHandler+0x22>
D:/projects/mechanical_arm/Ctrl_Stepper_Motor/project/user/src/isr.c:144
    {
//        extern void uart_handler (void);
//        uart_handler();
        USART_ClearITPendingBit(UART8, USART_IT_RXNE);
    23d0:	52500593          	li	a1,1317
    23d4:	40002537          	lui	a0,0x40002
    23d8:	18e020ef          	jal	ra,4566 <USART_ClearITPendingBit>
D:/projects/mechanical_arm/Ctrl_Stepper_Motor/project/user/src/isr.c:146
    }
}
    23dc:	0001                	nop
    23de:	4432                	lw	s0,12(sp)
    23e0:	0141                	addi	sp,sp,16
    23e2:	30200073          	mret

000023e6 <DVP_IRQHandler>:
DVP_IRQHandler():
D:/projects/mechanical_arm/Ctrl_Stepper_Motor/project/user/src/isr.c:151



void DVP_IRQHandler(void)
{
    23e6:	1141                	addi	sp,sp,-16
    23e8:	c622                	sw	s0,12(sp)
    23ea:	0800                	addi	s0,sp,16
D:/projects/mechanical_arm/Ctrl_Stepper_Motor/project/user/src/isr.c:152
    if (DVP->IFR & RB_DVP_IF_FRM_DONE)
    23ec:	500507b7          	lui	a5,0x50050
    23f0:	0107c783          	lbu	a5,16(a5) # 50050010 <_eusrstack+0x30040010>
    23f4:	0ff7f793          	andi	a5,a5,255
    23f8:	8b91                	andi	a5,a5,4
    23fa:	c385                	beqz	a5,241a <DVP_IRQHandler+0x34>
D:/projects/mechanical_arm/Ctrl_Stepper_Motor/project/user/src/isr.c:154
    {
        camera_dvp_handler();
    23fc:	e52ff0ef          	jal	ra,1a4e <camera_dvp_handler>
D:/projects/mechanical_arm/Ctrl_Stepper_Motor/project/user/src/isr.c:155
        DVP->IFR &= ~RB_DVP_IF_FRM_DONE;
    2400:	500507b7          	lui	a5,0x50050
    2404:	0107c783          	lbu	a5,16(a5) # 50050010 <_eusrstack+0x30040010>
    2408:	0ff7f713          	andi	a4,a5,255
    240c:	500507b7          	lui	a5,0x50050
    2410:	9b6d                	andi	a4,a4,-5
    2412:	0ff77713          	andi	a4,a4,255
    2416:	00e78823          	sb	a4,16(a5) # 50050010 <_eusrstack+0x30040010>
D:/projects/mechanical_arm/Ctrl_Stepper_Motor/project/user/src/isr.c:157
    }
}
    241a:	0001                	nop
    241c:	4432                	lw	s0,12(sp)
    241e:	0141                	addi	sp,sp,16
    2420:	30200073          	mret

00002424 <EXTI0_IRQHandler>:
EXTI0_IRQHandler():
D:/projects/mechanical_arm/Ctrl_Stepper_Motor/project/user/src/isr.c:159
void EXTI0_IRQHandler(void)
{
    2424:	1141                	addi	sp,sp,-16
    2426:	c622                	sw	s0,12(sp)
    2428:	0800                	addi	s0,sp,16
D:/projects/mechanical_arm/Ctrl_Stepper_Motor/project/user/src/isr.c:160
    if(SET == EXTI_GetITStatus(EXTI_Line0))
    242a:	4505                	li	a0,1
    242c:	0cf000ef          	jal	ra,2cfa <EXTI_GetITStatus>
    2430:	872a                	mv	a4,a0
    2432:	4785                	li	a5,1
    2434:	00f71563          	bne	a4,a5,243e <EXTI0_IRQHandler+0x1a>
D:/projects/mechanical_arm/Ctrl_Stepper_Motor/project/user/src/isr.c:162
    {
        EXTI_ClearITPendingBit(EXTI_Line0);
    2438:	4505                	li	a0,1
    243a:	117000ef          	jal	ra,2d50 <EXTI_ClearITPendingBit>
D:/projects/mechanical_arm/Ctrl_Stepper_Motor/project/user/src/isr.c:165

    }
}
    243e:	0001                	nop
    2440:	4432                	lw	s0,12(sp)
    2442:	0141                	addi	sp,sp,16
    2444:	30200073          	mret

00002448 <EXTI1_IRQHandler>:
EXTI1_IRQHandler():
D:/projects/mechanical_arm/Ctrl_Stepper_Motor/project/user/src/isr.c:168

void EXTI1_IRQHandler(void)
{
    2448:	1141                	addi	sp,sp,-16
    244a:	c622                	sw	s0,12(sp)
    244c:	0800                	addi	s0,sp,16
D:/projects/mechanical_arm/Ctrl_Stepper_Motor/project/user/src/isr.c:169
    if(SET == EXTI_GetITStatus(EXTI_Line1))
    244e:	4509                	li	a0,2
    2450:	0ab000ef          	jal	ra,2cfa <EXTI_GetITStatus>
    2454:	872a                	mv	a4,a0
    2456:	4785                	li	a5,1
    2458:	00f71563          	bne	a4,a5,2462 <EXTI1_IRQHandler+0x1a>
D:/projects/mechanical_arm/Ctrl_Stepper_Motor/project/user/src/isr.c:171
    {
        EXTI_ClearITPendingBit(EXTI_Line1);
    245c:	4509                	li	a0,2
    245e:	0f3000ef          	jal	ra,2d50 <EXTI_ClearITPendingBit>
D:/projects/mechanical_arm/Ctrl_Stepper_Motor/project/user/src/isr.c:174

    }
}
    2462:	0001                	nop
    2464:	4432                	lw	s0,12(sp)
    2466:	0141                	addi	sp,sp,16
    2468:	30200073          	mret

0000246c <EXTI2_IRQHandler>:
EXTI2_IRQHandler():
D:/projects/mechanical_arm/Ctrl_Stepper_Motor/project/user/src/isr.c:177

void EXTI2_IRQHandler(void)
{
    246c:	1141                	addi	sp,sp,-16
    246e:	c622                	sw	s0,12(sp)
    2470:	0800                	addi	s0,sp,16
D:/projects/mechanical_arm/Ctrl_Stepper_Motor/project/user/src/isr.c:178
    if(SET == EXTI_GetITStatus(EXTI_Line2))
    2472:	4511                	li	a0,4
    2474:	087000ef          	jal	ra,2cfa <EXTI_GetITStatus>
    2478:	872a                	mv	a4,a0
    247a:	4785                	li	a5,1
    247c:	00f71563          	bne	a4,a5,2486 <EXTI2_IRQHandler+0x1a>
D:/projects/mechanical_arm/Ctrl_Stepper_Motor/project/user/src/isr.c:180
    {
        EXTI_ClearITPendingBit(EXTI_Line2);
    2480:	4511                	li	a0,4
    2482:	0cf000ef          	jal	ra,2d50 <EXTI_ClearITPendingBit>
D:/projects/mechanical_arm/Ctrl_Stepper_Motor/project/user/src/isr.c:183

    }
}
    2486:	0001                	nop
    2488:	4432                	lw	s0,12(sp)
    248a:	0141                	addi	sp,sp,16
    248c:	30200073          	mret

00002490 <EXTI3_IRQHandler>:
EXTI3_IRQHandler():
D:/projects/mechanical_arm/Ctrl_Stepper_Motor/project/user/src/isr.c:186

void EXTI3_IRQHandler(void)
{
    2490:	1141                	addi	sp,sp,-16
    2492:	c622                	sw	s0,12(sp)
    2494:	0800                	addi	s0,sp,16
D:/projects/mechanical_arm/Ctrl_Stepper_Motor/project/user/src/isr.c:187
    if(SET == EXTI_GetITStatus(EXTI_Line3))
    2496:	4521                	li	a0,8
    2498:	063000ef          	jal	ra,2cfa <EXTI_GetITStatus>
    249c:	872a                	mv	a4,a0
    249e:	4785                	li	a5,1
    24a0:	00f71563          	bne	a4,a5,24aa <EXTI3_IRQHandler+0x1a>
D:/projects/mechanical_arm/Ctrl_Stepper_Motor/project/user/src/isr.c:189
    {
        EXTI_ClearITPendingBit(EXTI_Line3);
    24a4:	4521                	li	a0,8
    24a6:	0ab000ef          	jal	ra,2d50 <EXTI_ClearITPendingBit>
D:/projects/mechanical_arm/Ctrl_Stepper_Motor/project/user/src/isr.c:192

    }
}
    24aa:	0001                	nop
    24ac:	4432                	lw	s0,12(sp)
    24ae:	0141                	addi	sp,sp,16
    24b0:	30200073          	mret

000024b4 <EXTI4_IRQHandler>:
EXTI4_IRQHandler():
D:/projects/mechanical_arm/Ctrl_Stepper_Motor/project/user/src/isr.c:195

void EXTI4_IRQHandler(void)
{
    24b4:	1141                	addi	sp,sp,-16
    24b6:	c622                	sw	s0,12(sp)
    24b8:	0800                	addi	s0,sp,16
D:/projects/mechanical_arm/Ctrl_Stepper_Motor/project/user/src/isr.c:196
    if(SET == EXTI_GetITStatus(EXTI_Line4))
    24ba:	4541                	li	a0,16
    24bc:	03f000ef          	jal	ra,2cfa <EXTI_GetITStatus>
    24c0:	872a                	mv	a4,a0
    24c2:	4785                	li	a5,1
    24c4:	00f71563          	bne	a4,a5,24ce <EXTI4_IRQHandler+0x1a>
D:/projects/mechanical_arm/Ctrl_Stepper_Motor/project/user/src/isr.c:198
    {
        EXTI_ClearITPendingBit(EXTI_Line4);
    24c8:	4541                	li	a0,16
    24ca:	087000ef          	jal	ra,2d50 <EXTI_ClearITPendingBit>
D:/projects/mechanical_arm/Ctrl_Stepper_Motor/project/user/src/isr.c:201

    }
}
    24ce:	0001                	nop
    24d0:	4432                	lw	s0,12(sp)
    24d2:	0141                	addi	sp,sp,16
    24d4:	30200073          	mret

000024d8 <EXTI9_5_IRQHandler>:
EXTI9_5_IRQHandler():
D:/projects/mechanical_arm/Ctrl_Stepper_Motor/project/user/src/isr.c:203
void EXTI9_5_IRQHandler(void)
{
    24d8:	1141                	addi	sp,sp,-16
    24da:	c622                	sw	s0,12(sp)
    24dc:	0800                	addi	s0,sp,16
D:/projects/mechanical_arm/Ctrl_Stepper_Motor/project/user/src/isr.c:204
    if(SET == EXTI_GetITStatus(EXTI_Line5))
    24de:	02000513          	li	a0,32
    24e2:	019000ef          	jal	ra,2cfa <EXTI_GetITStatus>
    24e6:	872a                	mv	a4,a0
    24e8:	4785                	li	a5,1
    24ea:	00f71663          	bne	a4,a5,24f6 <EXTI9_5_IRQHandler+0x1e>
D:/projects/mechanical_arm/Ctrl_Stepper_Motor/project/user/src/isr.c:206
    {
        EXTI_ClearITPendingBit(EXTI_Line5);
    24ee:	02000513          	li	a0,32
    24f2:	05f000ef          	jal	ra,2d50 <EXTI_ClearITPendingBit>
D:/projects/mechanical_arm/Ctrl_Stepper_Motor/project/user/src/isr.c:209

    }
    if(SET == EXTI_GetITStatus(EXTI_Line6))
    24f6:	04000513          	li	a0,64
    24fa:	001000ef          	jal	ra,2cfa <EXTI_GetITStatus>
    24fe:	872a                	mv	a4,a0
    2500:	4785                	li	a5,1
    2502:	00f71663          	bne	a4,a5,250e <EXTI9_5_IRQHandler+0x36>
D:/projects/mechanical_arm/Ctrl_Stepper_Motor/project/user/src/isr.c:211
    {
        EXTI_ClearITPendingBit(EXTI_Line6);
    2506:	04000513          	li	a0,64
    250a:	047000ef          	jal	ra,2d50 <EXTI_ClearITPendingBit>
D:/projects/mechanical_arm/Ctrl_Stepper_Motor/project/user/src/isr.c:214

    }
    if(SET == EXTI_GetITStatus(EXTI_Line7))
    250e:	08000513          	li	a0,128
    2512:	7e8000ef          	jal	ra,2cfa <EXTI_GetITStatus>
    2516:	872a                	mv	a4,a0
    2518:	4785                	li	a5,1
    251a:	00f71663          	bne	a4,a5,2526 <EXTI9_5_IRQHandler+0x4e>
D:/projects/mechanical_arm/Ctrl_Stepper_Motor/project/user/src/isr.c:216
    {
        EXTI_ClearITPendingBit(EXTI_Line7);
    251e:	08000513          	li	a0,128
    2522:	02f000ef          	jal	ra,2d50 <EXTI_ClearITPendingBit>
D:/projects/mechanical_arm/Ctrl_Stepper_Motor/project/user/src/isr.c:219

    }
    if(SET == EXTI_GetITStatus(EXTI_Line8))
    2526:	10000513          	li	a0,256
    252a:	7d0000ef          	jal	ra,2cfa <EXTI_GetITStatus>
    252e:	872a                	mv	a4,a0
    2530:	4785                	li	a5,1
    2532:	00f71663          	bne	a4,a5,253e <EXTI9_5_IRQHandler+0x66>
D:/projects/mechanical_arm/Ctrl_Stepper_Motor/project/user/src/isr.c:221
    {
        EXTI_ClearITPendingBit(EXTI_Line8);
    2536:	10000513          	li	a0,256
    253a:	017000ef          	jal	ra,2d50 <EXTI_ClearITPendingBit>
D:/projects/mechanical_arm/Ctrl_Stepper_Motor/project/user/src/isr.c:224

    }
    if(SET == EXTI_GetITStatus(EXTI_Line9))
    253e:	20000513          	li	a0,512
    2542:	7b8000ef          	jal	ra,2cfa <EXTI_GetITStatus>
    2546:	872a                	mv	a4,a0
    2548:	4785                	li	a5,1
    254a:	00f71663          	bne	a4,a5,2556 <EXTI9_5_IRQHandler+0x7e>
D:/projects/mechanical_arm/Ctrl_Stepper_Motor/project/user/src/isr.c:226
    {
        EXTI_ClearITPendingBit(EXTI_Line9);
    254e:	20000513          	li	a0,512
    2552:	7fe000ef          	jal	ra,2d50 <EXTI_ClearITPendingBit>
D:/projects/mechanical_arm/Ctrl_Stepper_Motor/project/user/src/isr.c:230

    }

}
    2556:	0001                	nop
    2558:	4432                	lw	s0,12(sp)
    255a:	0141                	addi	sp,sp,16
    255c:	30200073          	mret

00002560 <EXTI15_10_IRQHandler>:
EXTI15_10_IRQHandler():
D:/projects/mechanical_arm/Ctrl_Stepper_Motor/project/user/src/isr.c:233

void EXTI15_10_IRQHandler(void)
{
    2560:	1141                	addi	sp,sp,-16
    2562:	c622                	sw	s0,12(sp)
    2564:	0800                	addi	s0,sp,16
D:/projects/mechanical_arm/Ctrl_Stepper_Motor/project/user/src/isr.c:234
    if(SET == EXTI_GetITStatus(EXTI_Line10))
    2566:	40000513          	li	a0,1024
    256a:	790000ef          	jal	ra,2cfa <EXTI_GetITStatus>
    256e:	872a                	mv	a4,a0
    2570:	4785                	li	a5,1
    2572:	00f71663          	bne	a4,a5,257e <EXTI15_10_IRQHandler+0x1e>
D:/projects/mechanical_arm/Ctrl_Stepper_Motor/project/user/src/isr.c:236
    {
        EXTI_ClearITPendingBit(EXTI_Line10);
    2576:	40000513          	li	a0,1024
    257a:	7d6000ef          	jal	ra,2d50 <EXTI_ClearITPendingBit>
D:/projects/mechanical_arm/Ctrl_Stepper_Motor/project/user/src/isr.c:239

    }
    if(SET == EXTI_GetITStatus(EXTI_Line11))
    257e:	6785                	lui	a5,0x1
    2580:	80078513          	addi	a0,a5,-2048 # 800 <__stack_size>
    2584:	776000ef          	jal	ra,2cfa <EXTI_GetITStatus>
    2588:	872a                	mv	a4,a0
    258a:	4785                	li	a5,1
    258c:	00f71763          	bne	a4,a5,259a <EXTI15_10_IRQHandler+0x3a>
D:/projects/mechanical_arm/Ctrl_Stepper_Motor/project/user/src/isr.c:241
    {
        EXTI_ClearITPendingBit(EXTI_Line11);
    2590:	6785                	lui	a5,0x1
    2592:	80078513          	addi	a0,a5,-2048 # 800 <__stack_size>
    2596:	7ba000ef          	jal	ra,2d50 <EXTI_ClearITPendingBit>
D:/projects/mechanical_arm/Ctrl_Stepper_Motor/project/user/src/isr.c:244

    }
    if(SET == EXTI_GetITStatus(EXTI_Line12))
    259a:	6505                	lui	a0,0x1
    259c:	75e000ef          	jal	ra,2cfa <EXTI_GetITStatus>
    25a0:	872a                	mv	a4,a0
    25a2:	4785                	li	a5,1
    25a4:	00f71563          	bne	a4,a5,25ae <EXTI15_10_IRQHandler+0x4e>
D:/projects/mechanical_arm/Ctrl_Stepper_Motor/project/user/src/isr.c:246
    {
        EXTI_ClearITPendingBit(EXTI_Line12);
    25a8:	6505                	lui	a0,0x1
    25aa:	7a6000ef          	jal	ra,2d50 <EXTI_ClearITPendingBit>
D:/projects/mechanical_arm/Ctrl_Stepper_Motor/project/user/src/isr.c:249

    }
    if(SET == EXTI_GetITStatus(EXTI_Line13))
    25ae:	6509                	lui	a0,0x2
    25b0:	74a000ef          	jal	ra,2cfa <EXTI_GetITStatus>
    25b4:	872a                	mv	a4,a0
    25b6:	4785                	li	a5,1
    25b8:	00f71563          	bne	a4,a5,25c2 <EXTI15_10_IRQHandler+0x62>
D:/projects/mechanical_arm/Ctrl_Stepper_Motor/project/user/src/isr.c:251
    {
        EXTI_ClearITPendingBit(EXTI_Line13);
    25bc:	6509                	lui	a0,0x2
    25be:	792000ef          	jal	ra,2d50 <EXTI_ClearITPendingBit>
D:/projects/mechanical_arm/Ctrl_Stepper_Motor/project/user/src/isr.c:254

    }
    if(SET == EXTI_GetITStatus(EXTI_Line14))
    25c2:	6511                	lui	a0,0x4
    25c4:	736000ef          	jal	ra,2cfa <EXTI_GetITStatus>
    25c8:	872a                	mv	a4,a0
    25ca:	4785                	li	a5,1
    25cc:	00f71563          	bne	a4,a5,25d6 <EXTI15_10_IRQHandler+0x76>
D:/projects/mechanical_arm/Ctrl_Stepper_Motor/project/user/src/isr.c:256
    {
        EXTI_ClearITPendingBit(EXTI_Line14);
    25d0:	6511                	lui	a0,0x4
    25d2:	77e000ef          	jal	ra,2d50 <EXTI_ClearITPendingBit>
D:/projects/mechanical_arm/Ctrl_Stepper_Motor/project/user/src/isr.c:259

    }
    if(SET == EXTI_GetITStatus(EXTI_Line15))
    25d6:	6521                	lui	a0,0x8
    25d8:	722000ef          	jal	ra,2cfa <EXTI_GetITStatus>
    25dc:	872a                	mv	a4,a0
    25de:	4785                	li	a5,1
    25e0:	00f71563          	bne	a4,a5,25ea <EXTI15_10_IRQHandler+0x8a>
D:/projects/mechanical_arm/Ctrl_Stepper_Motor/project/user/src/isr.c:261
    {
        EXTI_ClearITPendingBit(EXTI_Line15);
    25e4:	6521                	lui	a0,0x8
    25e6:	76a000ef          	jal	ra,2d50 <EXTI_ClearITPendingBit>
D:/projects/mechanical_arm/Ctrl_Stepper_Motor/project/user/src/isr.c:264

    }
}
    25ea:	0001                	nop
    25ec:	4432                	lw	s0,12(sp)
    25ee:	0141                	addi	sp,sp,16
    25f0:	30200073          	mret

000025f4 <TIM1_UP_IRQHandler>:
TIM1_UP_IRQHandler():
D:/projects/mechanical_arm/Ctrl_Stepper_Motor/project/user/src/isr.c:267

void TIM1_UP_IRQHandler(void)
{
    25f4:	1141                	addi	sp,sp,-16
    25f6:	c622                	sw	s0,12(sp)
    25f8:	0800                	addi	s0,sp,16
D:/projects/mechanical_arm/Ctrl_Stepper_Motor/project/user/src/isr.c:268
    if(TIM_GetITStatus(TIM1, TIM_IT_Update) != RESET)
    25fa:	4585                	li	a1,1
    25fc:	400137b7          	lui	a5,0x40013
    2600:	c0078513          	addi	a0,a5,-1024 # 40012c00 <_eusrstack+0x20002c00>
    2604:	1f7010ef          	jal	ra,3ffa <TIM_GetITStatus>
    2608:	87aa                	mv	a5,a0
    260a:	cb81                	beqz	a5,261a <TIM1_UP_IRQHandler+0x26>
D:/projects/mechanical_arm/Ctrl_Stepper_Motor/project/user/src/isr.c:270
    {
        TIM_ClearITPendingBit(TIM1, TIM_IT_Update);
    260c:	4585                	li	a1,1
    260e:	400137b7          	lui	a5,0x40013
    2612:	c0078513          	addi	a0,a5,-1024 # 40012c00 <_eusrstack+0x20002c00>
    2616:	255010ef          	jal	ra,406a <TIM_ClearITPendingBit>
D:/projects/mechanical_arm/Ctrl_Stepper_Motor/project/user/src/isr.c:273

    }
}
    261a:	0001                	nop
    261c:	4432                	lw	s0,12(sp)
    261e:	0141                	addi	sp,sp,16
    2620:	30200073          	mret

00002624 <TIM2_IRQHandler>:
TIM2_IRQHandler():
D:/projects/mechanical_arm/Ctrl_Stepper_Motor/project/user/src/isr.c:277


void TIM2_IRQHandler(void)
{
    2624:	1141                	addi	sp,sp,-16
    2626:	c622                	sw	s0,12(sp)
    2628:	0800                	addi	s0,sp,16
D:/projects/mechanical_arm/Ctrl_Stepper_Motor/project/user/src/isr.c:278
    if(TIM_GetITStatus(TIM2, TIM_IT_Update) != RESET)
    262a:	4585                	li	a1,1
    262c:	40000537          	lui	a0,0x40000
    2630:	1cb010ef          	jal	ra,3ffa <TIM_GetITStatus>
    2634:	87aa                	mv	a5,a0
    2636:	cb91                	beqz	a5,264a <TIM2_IRQHandler+0x26>
D:/projects/mechanical_arm/Ctrl_Stepper_Motor/project/user/src/isr.c:280
    {
       TIM_ClearITPendingBit(TIM2, TIM_IT_Update );
    2638:	4585                	li	a1,1
    263a:	40000537          	lui	a0,0x40000
    263e:	22d010ef          	jal	ra,406a <TIM_ClearITPendingBit>
D:/projects/mechanical_arm/Ctrl_Stepper_Motor/project/user/src/isr.c:281
       gpio_toggle_level(E2);
    2642:	08200513          	li	a0,130
    2646:	d47fd0ef          	jal	ra,38c <gpio_toggle_level>
D:/projects/mechanical_arm/Ctrl_Stepper_Motor/project/user/src/isr.c:284

    }
}
    264a:	0001                	nop
    264c:	4432                	lw	s0,12(sp)
    264e:	0141                	addi	sp,sp,16
    2650:	30200073          	mret

00002654 <TIM3_IRQHandler>:
TIM3_IRQHandler():
D:/projects/mechanical_arm/Ctrl_Stepper_Motor/project/user/src/isr.c:287

void TIM3_IRQHandler(void)
{
    2654:	1141                	addi	sp,sp,-16
    2656:	c622                	sw	s0,12(sp)
    2658:	0800                	addi	s0,sp,16
D:/projects/mechanical_arm/Ctrl_Stepper_Motor/project/user/src/isr.c:288
    if(TIM_GetITStatus(TIM3, TIM_IT_Update) != RESET)
    265a:	4585                	li	a1,1
    265c:	400007b7          	lui	a5,0x40000
    2660:	40078513          	addi	a0,a5,1024 # 40000400 <_eusrstack+0x1fff0400>
    2664:	197010ef          	jal	ra,3ffa <TIM_GetITStatus>
    2668:	87aa                	mv	a5,a0
    266a:	cb81                	beqz	a5,267a <TIM3_IRQHandler+0x26>
D:/projects/mechanical_arm/Ctrl_Stepper_Motor/project/user/src/isr.c:290
    {
       TIM_ClearITPendingBit(TIM3, TIM_IT_Update );
    266c:	4585                	li	a1,1
    266e:	400007b7          	lui	a5,0x40000
    2672:	40078513          	addi	a0,a5,1024 # 40000400 <_eusrstack+0x1fff0400>
    2676:	1f5010ef          	jal	ra,406a <TIM_ClearITPendingBit>
D:/projects/mechanical_arm/Ctrl_Stepper_Motor/project/user/src/isr.c:294


    }
}
    267a:	0001                	nop
    267c:	4432                	lw	s0,12(sp)
    267e:	0141                	addi	sp,sp,16
    2680:	30200073          	mret

00002684 <TIM4_IRQHandler>:
TIM4_IRQHandler():
D:/projects/mechanical_arm/Ctrl_Stepper_Motor/project/user/src/isr.c:297

void TIM4_IRQHandler(void)
{
    2684:	1141                	addi	sp,sp,-16
    2686:	c622                	sw	s0,12(sp)
    2688:	0800                	addi	s0,sp,16
D:/projects/mechanical_arm/Ctrl_Stepper_Motor/project/user/src/isr.c:298
    if(TIM_GetITStatus(TIM4, TIM_IT_Update) != RESET)
    268a:	4585                	li	a1,1
    268c:	400017b7          	lui	a5,0x40001
    2690:	80078513          	addi	a0,a5,-2048 # 40000800 <_eusrstack+0x1fff0800>
    2694:	167010ef          	jal	ra,3ffa <TIM_GetITStatus>
    2698:	87aa                	mv	a5,a0
    269a:	cb81                	beqz	a5,26aa <TIM4_IRQHandler+0x26>
D:/projects/mechanical_arm/Ctrl_Stepper_Motor/project/user/src/isr.c:300
    {
       TIM_ClearITPendingBit(TIM4, TIM_IT_Update );
    269c:	4585                	li	a1,1
    269e:	400017b7          	lui	a5,0x40001
    26a2:	80078513          	addi	a0,a5,-2048 # 40000800 <_eusrstack+0x1fff0800>
    26a6:	1c5010ef          	jal	ra,406a <TIM_ClearITPendingBit>
D:/projects/mechanical_arm/Ctrl_Stepper_Motor/project/user/src/isr.c:304


    }
}
    26aa:	0001                	nop
    26ac:	4432                	lw	s0,12(sp)
    26ae:	0141                	addi	sp,sp,16
    26b0:	30200073          	mret

000026b4 <TIM5_IRQHandler>:
TIM5_IRQHandler():
D:/projects/mechanical_arm/Ctrl_Stepper_Motor/project/user/src/isr.c:307

void TIM5_IRQHandler(void)
{
    26b4:	1141                	addi	sp,sp,-16
    26b6:	c622                	sw	s0,12(sp)
    26b8:	0800                	addi	s0,sp,16
D:/projects/mechanical_arm/Ctrl_Stepper_Motor/project/user/src/isr.c:308
    if(TIM_GetITStatus(TIM5, TIM_IT_Update) != RESET)
    26ba:	4585                	li	a1,1
    26bc:	400017b7          	lui	a5,0x40001
    26c0:	c0078513          	addi	a0,a5,-1024 # 40000c00 <_eusrstack+0x1fff0c00>
    26c4:	137010ef          	jal	ra,3ffa <TIM_GetITStatus>
    26c8:	87aa                	mv	a5,a0
    26ca:	cb81                	beqz	a5,26da <TIM5_IRQHandler+0x26>
D:/projects/mechanical_arm/Ctrl_Stepper_Motor/project/user/src/isr.c:310
    {
       TIM_ClearITPendingBit(TIM5, TIM_IT_Update );
    26cc:	4585                	li	a1,1
    26ce:	400017b7          	lui	a5,0x40001
    26d2:	c0078513          	addi	a0,a5,-1024 # 40000c00 <_eusrstack+0x1fff0c00>
    26d6:	195010ef          	jal	ra,406a <TIM_ClearITPendingBit>
D:/projects/mechanical_arm/Ctrl_Stepper_Motor/project/user/src/isr.c:314


    }
}
    26da:	0001                	nop
    26dc:	4432                	lw	s0,12(sp)
    26de:	0141                	addi	sp,sp,16
    26e0:	30200073          	mret

000026e4 <TIM6_IRQHandler>:
TIM6_IRQHandler():
D:/projects/mechanical_arm/Ctrl_Stepper_Motor/project/user/src/isr.c:317

void TIM6_IRQHandler(void)
{
    26e4:	1141                	addi	sp,sp,-16
    26e6:	c622                	sw	s0,12(sp)
    26e8:	0800                	addi	s0,sp,16
D:/projects/mechanical_arm/Ctrl_Stepper_Motor/project/user/src/isr.c:318
    if(TIM_GetITStatus(TIM6, TIM_IT_Update) != RESET)
    26ea:	4585                	li	a1,1
    26ec:	40001537          	lui	a0,0x40001
    26f0:	10b010ef          	jal	ra,3ffa <TIM_GetITStatus>
    26f4:	87aa                	mv	a5,a0
    26f6:	c791                	beqz	a5,2702 <TIM6_IRQHandler+0x1e>
D:/projects/mechanical_arm/Ctrl_Stepper_Motor/project/user/src/isr.c:320
    {
       TIM_ClearITPendingBit(TIM6, TIM_IT_Update );
    26f8:	4585                	li	a1,1
    26fa:	40001537          	lui	a0,0x40001
    26fe:	16d010ef          	jal	ra,406a <TIM_ClearITPendingBit>
D:/projects/mechanical_arm/Ctrl_Stepper_Motor/project/user/src/isr.c:324


    }
}
    2702:	0001                	nop
    2704:	4432                	lw	s0,12(sp)
    2706:	0141                	addi	sp,sp,16
    2708:	30200073          	mret

0000270c <TIM7_IRQHandler>:
TIM7_IRQHandler():
D:/projects/mechanical_arm/Ctrl_Stepper_Motor/project/user/src/isr.c:327

void TIM7_IRQHandler(void)
{
    270c:	1141                	addi	sp,sp,-16
    270e:	c622                	sw	s0,12(sp)
    2710:	0800                	addi	s0,sp,16
D:/projects/mechanical_arm/Ctrl_Stepper_Motor/project/user/src/isr.c:328
    if(TIM_GetITStatus(TIM7, TIM_IT_Update) != RESET)
    2712:	4585                	li	a1,1
    2714:	400017b7          	lui	a5,0x40001
    2718:	40078513          	addi	a0,a5,1024 # 40001400 <_eusrstack+0x1fff1400>
    271c:	0df010ef          	jal	ra,3ffa <TIM_GetITStatus>
    2720:	87aa                	mv	a5,a0
    2722:	cb81                	beqz	a5,2732 <TIM7_IRQHandler+0x26>
D:/projects/mechanical_arm/Ctrl_Stepper_Motor/project/user/src/isr.c:330
    {
       TIM_ClearITPendingBit(TIM7, TIM_IT_Update );
    2724:	4585                	li	a1,1
    2726:	400017b7          	lui	a5,0x40001
    272a:	40078513          	addi	a0,a5,1024 # 40001400 <_eusrstack+0x1fff1400>
    272e:	13d010ef          	jal	ra,406a <TIM_ClearITPendingBit>
D:/projects/mechanical_arm/Ctrl_Stepper_Motor/project/user/src/isr.c:334


    }
}
    2732:	0001                	nop
    2734:	4432                	lw	s0,12(sp)
    2736:	0141                	addi	sp,sp,16
    2738:	30200073          	mret

0000273c <TIM8_UP_IRQHandler>:
TIM8_UP_IRQHandler():
D:/projects/mechanical_arm/Ctrl_Stepper_Motor/project/user/src/isr.c:338


void TIM8_UP_IRQHandler(void)
{
    273c:	1141                	addi	sp,sp,-16
    273e:	c622                	sw	s0,12(sp)
    2740:	0800                	addi	s0,sp,16
D:/projects/mechanical_arm/Ctrl_Stepper_Motor/project/user/src/isr.c:339
    if(TIM_GetITStatus(TIM8, TIM_IT_Update) != RESET)
    2742:	4585                	li	a1,1
    2744:	400137b7          	lui	a5,0x40013
    2748:	40078513          	addi	a0,a5,1024 # 40013400 <_eusrstack+0x20003400>
    274c:	0af010ef          	jal	ra,3ffa <TIM_GetITStatus>
    2750:	87aa                	mv	a5,a0
    2752:	cb81                	beqz	a5,2762 <TIM8_UP_IRQHandler+0x26>
D:/projects/mechanical_arm/Ctrl_Stepper_Motor/project/user/src/isr.c:341
    {
        TIM_ClearITPendingBit(TIM8, TIM_IT_Update);
    2754:	4585                	li	a1,1
    2756:	400137b7          	lui	a5,0x40013
    275a:	40078513          	addi	a0,a5,1024 # 40013400 <_eusrstack+0x20003400>
    275e:	10d010ef          	jal	ra,406a <TIM_ClearITPendingBit>
D:/projects/mechanical_arm/Ctrl_Stepper_Motor/project/user/src/isr.c:344

    }
}
    2762:	0001                	nop
    2764:	4432                	lw	s0,12(sp)
    2766:	0141                	addi	sp,sp,16
    2768:	30200073          	mret

0000276c <TIM9_UP_IRQHandler>:
TIM9_UP_IRQHandler():
D:/projects/mechanical_arm/Ctrl_Stepper_Motor/project/user/src/isr.c:348


void TIM9_UP_IRQHandler(void)
{
    276c:	1141                	addi	sp,sp,-16
    276e:	c622                	sw	s0,12(sp)
    2770:	0800                	addi	s0,sp,16
D:/projects/mechanical_arm/Ctrl_Stepper_Motor/project/user/src/isr.c:349
    if(TIM_GetITStatus(TIM9, TIM_IT_Update) != RESET)
    2772:	4585                	li	a1,1
    2774:	400157b7          	lui	a5,0x40015
    2778:	c0078513          	addi	a0,a5,-1024 # 40014c00 <_eusrstack+0x20004c00>
    277c:	07f010ef          	jal	ra,3ffa <TIM_GetITStatus>
    2780:	87aa                	mv	a5,a0
    2782:	cb81                	beqz	a5,2792 <TIM9_UP_IRQHandler+0x26>
D:/projects/mechanical_arm/Ctrl_Stepper_Motor/project/user/src/isr.c:351
    {
        TIM_ClearITPendingBit(TIM9, TIM_IT_Update);
    2784:	4585                	li	a1,1
    2786:	400157b7          	lui	a5,0x40015
    278a:	c0078513          	addi	a0,a5,-1024 # 40014c00 <_eusrstack+0x20004c00>
    278e:	0dd010ef          	jal	ra,406a <TIM_ClearITPendingBit>
D:/projects/mechanical_arm/Ctrl_Stepper_Motor/project/user/src/isr.c:354

    }
}
    2792:	0001                	nop
    2794:	4432                	lw	s0,12(sp)
    2796:	0141                	addi	sp,sp,16
    2798:	30200073          	mret

0000279c <TIM10_UP_IRQHandler>:
TIM10_UP_IRQHandler():
D:/projects/mechanical_arm/Ctrl_Stepper_Motor/project/user/src/isr.c:358


void TIM10_UP_IRQHandler(void)
{
    279c:	1141                	addi	sp,sp,-16
    279e:	c622                	sw	s0,12(sp)
    27a0:	0800                	addi	s0,sp,16
D:/projects/mechanical_arm/Ctrl_Stepper_Motor/project/user/src/isr.c:359
    if(TIM_GetITStatus(TIM10, TIM_IT_Update) != RESET)
    27a2:	4585                	li	a1,1
    27a4:	40015537          	lui	a0,0x40015
    27a8:	053010ef          	jal	ra,3ffa <TIM_GetITStatus>
    27ac:	87aa                	mv	a5,a0
    27ae:	c791                	beqz	a5,27ba <TIM10_UP_IRQHandler+0x1e>
D:/projects/mechanical_arm/Ctrl_Stepper_Motor/project/user/src/isr.c:361
    {
        TIM_ClearITPendingBit(TIM10, TIM_IT_Update);
    27b0:	4585                	li	a1,1
    27b2:	40015537          	lui	a0,0x40015
    27b6:	0b5010ef          	jal	ra,406a <TIM_ClearITPendingBit>
D:/projects/mechanical_arm/Ctrl_Stepper_Motor/project/user/src/isr.c:364

    }
}
    27ba:	0001                	nop
    27bc:	4432                	lw	s0,12(sp)
    27be:	0141                	addi	sp,sp,16
    27c0:	30200073          	mret

000027c4 <NMI_Handler>:
NMI_Handler():
D:/projects/mechanical_arm/Ctrl_Stepper_Motor/project/user/src/isr.c:460
* Description    : This function handles NMI exception.
* Input          : None
* Return         : None
*******************************************************************************/
void NMI_Handler(void)
{
    27c4:	1141                	addi	sp,sp,-16
    27c6:	c622                	sw	s0,12(sp)
    27c8:	0800                	addi	s0,sp,16
D:/projects/mechanical_arm/Ctrl_Stepper_Motor/project/user/src/isr.c:461
}
    27ca:	0001                	nop
    27cc:	4432                	lw	s0,12(sp)
    27ce:	0141                	addi	sp,sp,16
    27d0:	30200073          	mret

000027d4 <HardFault_Handler>:
HardFault_Handler():
D:/projects/mechanical_arm/Ctrl_Stepper_Motor/project/user/src/isr.c:470
* Description    : This function handles Hard Fault exception.
* Input          : None
* Return         : None
*******************************************************************************/
void HardFault_Handler(void)
{
    27d4:	1141                	addi	sp,sp,-16
    27d6:	c622                	sw	s0,12(sp)
    27d8:	0800                	addi	s0,sp,16
D:/projects/mechanical_arm/Ctrl_Stepper_Motor/project/user/src/isr.c:471 (discriminator 1)
  while (1)
    27da:	a001                	j	27da <HardFault_Handler+0x6>

000027dc <Blink>:
Blink():
D:/projects/mechanical_arm/Ctrl_Stepper_Motor/project/user/src/main.c:32

/*
 * @note:控制驱动板上的LED闪烁
*/
void Blink()
{
    27dc:	1141                	addi	sp,sp,-16
    27de:	c606                	sw	ra,12(sp)
    27e0:	c422                	sw	s0,8(sp)
    27e2:	0800                	addi	s0,sp,16
D:/projects/mechanical_arm/Ctrl_Stepper_Motor/project/user/src/main.c:34
    static int i = 0;
    if (i >= 100)
    27e4:	8541a703          	lw	a4,-1964(gp) # 20000274 <i.6878>
    27e8:	06300793          	li	a5,99
    27ec:	00e7d863          	bge	a5,a4,27fc <Blink+0x20>
D:/projects/mechanical_arm/Ctrl_Stepper_Motor/project/user/src/main.c:36
    {
        gpio_toggle_level(E2);
    27f0:	08200513          	li	a0,130
    27f4:	b99fd0ef          	jal	ra,38c <gpio_toggle_level>
D:/projects/mechanical_arm/Ctrl_Stepper_Motor/project/user/src/main.c:37
        i = 0;
    27f8:	8401aa23          	sw	zero,-1964(gp) # 20000274 <i.6878>
D:/projects/mechanical_arm/Ctrl_Stepper_Motor/project/user/src/main.c:39
    }
    i++;
    27fc:	8541a783          	lw	a5,-1964(gp) # 20000274 <i.6878>
    2800:	00178713          	addi	a4,a5,1
    2804:	84e1aa23          	sw	a4,-1964(gp) # 20000274 <i.6878>
D:/projects/mechanical_arm/Ctrl_Stepper_Motor/project/user/src/main.c:40
}
    2808:	0001                	nop
    280a:	40b2                	lw	ra,12(sp)
    280c:	4422                	lw	s0,8(sp)
    280e:	0141                	addi	sp,sp,16
    2810:	8082                	ret

00002812 <main>:
main():
D:/projects/mechanical_arm/Ctrl_Stepper_Motor/project/user/src/main.c:44


int main(void)
{
    2812:	7179                	addi	sp,sp,-48
    2814:	d606                	sw	ra,44(sp)
    2816:	d422                	sw	s0,40(sp)
    2818:	d24a                	sw	s2,36(sp)
    281a:	d04e                	sw	s3,32(sp)
    281c:	ce52                	sw	s4,28(sp)
    281e:	cc56                	sw	s5,24(sp)
    2820:	ca5a                	sw	s6,20(sp)
    2822:	c85e                	sw	s7,16(sp)
    2824:	c662                	sw	s8,12(sp)
    2826:	c466                	sw	s9,8(sp)
    2828:	1800                	addi	s0,sp,48
D:/projects/mechanical_arm/Ctrl_Stepper_Motor/project/user/src/main.c:45
    interrupt_global_disable();             // 关闭总中断
    282a:	9bbff0ef          	jal	ra,21e4 <interrupt_global_disable>
D:/projects/mechanical_arm/Ctrl_Stepper_Motor/project/user/src/main.c:46
    clock_init(SYSTEM_CLOCK_144M);          // 务必保留，设置系统时钟。
    282e:	089547b7          	lui	a5,0x8954
    2832:	40078513          	addi	a0,a5,1024 # 8954400 <_data_lma+0x8949d1c>
    2836:	b86ff0ef          	jal	ra,1bbc <clock_init>
D:/projects/mechanical_arm/Ctrl_Stepper_Motor/project/user/src/main.c:47
    debug_init();                           // 务必保留，本函数用于初始化MPU 时钟 调试串口
    283a:	e90ff0ef          	jal	ra,1eca <debug_init>
D:/projects/mechanical_arm/Ctrl_Stepper_Motor/project/user/src/main.c:50

    // 初始化步进电机驱动GPIO输出引脚
    gpio_init(E2, GPO, GPIO_LOW, GPO_PUSH_PULL);
    283e:	46c1                	li	a3,16
    2840:	4601                	li	a2,0
    2842:	4585                	li	a1,1
    2844:	08200513          	li	a0,130
    2848:	babfd0ef          	jal	ra,3f2 <gpio_init>
D:/projects/mechanical_arm/Ctrl_Stepper_Motor/project/user/src/main.c:51
    gpio_init(AP_STEP, GPO, GPIO_LOW, GPO_PUSH_PULL);
    284c:	46c1                	li	a3,16
    284e:	4601                	li	a2,0
    2850:	4585                	li	a1,1
    2852:	06b00513          	li	a0,107
    2856:	b9dfd0ef          	jal	ra,3f2 <gpio_init>
D:/projects/mechanical_arm/Ctrl_Stepper_Motor/project/user/src/main.c:52
    gpio_init(AN_STEP, GPO, GPIO_LOW, GPO_PUSH_PULL);
    285a:	46c1                	li	a3,16
    285c:	4601                	li	a2,0
    285e:	4585                	li	a1,1
    2860:	06900513          	li	a0,105
    2864:	b8ffd0ef          	jal	ra,3f2 <gpio_init>
D:/projects/mechanical_arm/Ctrl_Stepper_Motor/project/user/src/main.c:53
    gpio_init(BP_STEP, GPO, GPIO_LOW, GPO_PUSH_PULL);
    2868:	46c1                	li	a3,16
    286a:	4601                	li	a2,0
    286c:	4585                	li	a1,1
    286e:	06f00513          	li	a0,111
    2872:	b81fd0ef          	jal	ra,3f2 <gpio_init>
D:/projects/mechanical_arm/Ctrl_Stepper_Motor/project/user/src/main.c:54
    gpio_init(BN_STEP, GPO, GPIO_LOW, GPO_PUSH_PULL);
    2876:	46c1                	li	a3,16
    2878:	4601                	li	a2,0
    287a:	4585                	li	a1,1
    287c:	06d00513          	li	a0,109
    2880:	b73fd0ef          	jal	ra,3f2 <gpio_init>
D:/projects/mechanical_arm/Ctrl_Stepper_Motor/project/user/src/main.c:56
    // 初始化步进电机驱动芯片PWM输出引脚，输出频率2M
    pwm_init(TIM2_PWM_CH1_A0, 20000, 4000);
    2884:	6785                	lui	a5,0x1
    2886:	fa078613          	addi	a2,a5,-96 # fa0 <pwm_init+0x2c4>
    288a:	6795                	lui	a5,0x5
    288c:	e2078593          	addi	a1,a5,-480 # 4e20 <OTG_FS_IRQHandler+0x728>
    2890:	10000513          	li	a0,256
    2894:	c48fe0ef          	jal	ra,cdc <pwm_init>
D:/projects/mechanical_arm/Ctrl_Stepper_Motor/project/user/src/main.c:57
    pwm_init(TIM1_PWM_CH1_A8, 20000, 4000);
    2898:	6785                	lui	a5,0x1
    289a:	fa078613          	addi	a2,a5,-96 # fa0 <pwm_init+0x2c4>
    289e:	6795                	lui	a5,0x5
    28a0:	e2078593          	addi	a1,a5,-480 # 4e20 <OTG_FS_IRQHandler+0x728>
    28a4:	4501                	li	a0,0
    28a6:	c36fe0ef          	jal	ra,cdc <pwm_init>
D:/projects/mechanical_arm/Ctrl_Stepper_Motor/project/user/src/main.c:59
    //MT6816_Init();
    interrupt_global_enable();              // 总中断最后开启
    28aa:	90dff0ef          	jal	ra,21b6 <interrupt_global_enable>
D:/projects/mechanical_arm/Ctrl_Stepper_Motor/project/user/src/main.c:67 (discriminator 1)
    while(1)
    {

        //gpio_set_level(E2, GPIO_HIGH);

        gpio_set_level(AP_STEP, GPIO_HIGH);
    28ae:	4585                	li	a1,1
    28b0:	06b00513          	li	a0,107
    28b4:	a65fd0ef          	jal	ra,318 <gpio_set_level>
D:/projects/mechanical_arm/Ctrl_Stepper_Motor/project/user/src/main.c:68 (discriminator 1)
        gpio_set_level(BP_STEP, GPIO_HIGH);
    28b8:	4585                	li	a1,1
    28ba:	06f00513          	li	a0,111
    28be:	a5bfd0ef          	jal	ra,318 <gpio_set_level>
D:/projects/mechanical_arm/Ctrl_Stepper_Motor/project/user/src/main.c:69 (discriminator 1)
        gpio_set_level(AN_STEP, GPIO_LOW);
    28c2:	4581                	li	a1,0
    28c4:	06900513          	li	a0,105
    28c8:	a51fd0ef          	jal	ra,318 <gpio_set_level>
D:/projects/mechanical_arm/Ctrl_Stepper_Motor/project/user/src/main.c:70 (discriminator 1)
        gpio_set_level(BN_STEP, GPIO_LOW);
    28cc:	4581                	li	a1,0
    28ce:	06d00513          	li	a0,109
    28d2:	a47fd0ef          	jal	ra,318 <gpio_set_level>
D:/projects/mechanical_arm/Ctrl_Stepper_Motor/project/user/src/main.c:71 (discriminator 1)
        system_delay_ms(1);
    28d6:	8481a703          	lw	a4,-1976(gp) # 20000268 <system_clock>
    28da:	6789                	lui	a5,0x2
    28dc:	f4078793          	addi	a5,a5,-192 # 1f40 <debug_assert_handler+0x42>
    28e0:	02f757b3          	divu	a5,a4,a5
    28e4:	8c3e                	mv	s8,a5
    28e6:	4c81                	li	s9,0
    28e8:	8562                	mv	a0,s8
    28ea:	85e6                	mv	a1,s9
    28ec:	9d1fd0ef          	jal	ra,2bc <system_delay>
D:/projects/mechanical_arm/Ctrl_Stepper_Motor/project/user/src/main.c:73 (discriminator 1)

        gpio_set_level(AP_STEP, GPIO_LOW);
    28f0:	4581                	li	a1,0
    28f2:	06b00513          	li	a0,107
    28f6:	a23fd0ef          	jal	ra,318 <gpio_set_level>
D:/projects/mechanical_arm/Ctrl_Stepper_Motor/project/user/src/main.c:74 (discriminator 1)
        gpio_set_level(BP_STEP, GPIO_HIGH);
    28fa:	4585                	li	a1,1
    28fc:	06f00513          	li	a0,111
    2900:	a19fd0ef          	jal	ra,318 <gpio_set_level>
D:/projects/mechanical_arm/Ctrl_Stepper_Motor/project/user/src/main.c:75 (discriminator 1)
        gpio_set_level(AN_STEP, GPIO_HIGH);
    2904:	4585                	li	a1,1
    2906:	06900513          	li	a0,105
    290a:	a0ffd0ef          	jal	ra,318 <gpio_set_level>
D:/projects/mechanical_arm/Ctrl_Stepper_Motor/project/user/src/main.c:76 (discriminator 1)
        gpio_set_level(BN_STEP, GPIO_LOW);
    290e:	4581                	li	a1,0
    2910:	06d00513          	li	a0,109
    2914:	a05fd0ef          	jal	ra,318 <gpio_set_level>
D:/projects/mechanical_arm/Ctrl_Stepper_Motor/project/user/src/main.c:77 (discriminator 1)
        system_delay_ms(1);
    2918:	8481a703          	lw	a4,-1976(gp) # 20000268 <system_clock>
    291c:	6789                	lui	a5,0x2
    291e:	f4078793          	addi	a5,a5,-192 # 1f40 <debug_assert_handler+0x42>
    2922:	02f757b3          	divu	a5,a4,a5
    2926:	8b3e                	mv	s6,a5
    2928:	4b81                	li	s7,0
    292a:	855a                	mv	a0,s6
    292c:	85de                	mv	a1,s7
    292e:	98ffd0ef          	jal	ra,2bc <system_delay>
D:/projects/mechanical_arm/Ctrl_Stepper_Motor/project/user/src/main.c:79 (discriminator 1)

        gpio_set_level(AP_STEP, GPIO_LOW);
    2932:	4581                	li	a1,0
    2934:	06b00513          	li	a0,107
    2938:	9e1fd0ef          	jal	ra,318 <gpio_set_level>
D:/projects/mechanical_arm/Ctrl_Stepper_Motor/project/user/src/main.c:80 (discriminator 1)
        gpio_set_level(BP_STEP, GPIO_LOW);
    293c:	4581                	li	a1,0
    293e:	06f00513          	li	a0,111
    2942:	9d7fd0ef          	jal	ra,318 <gpio_set_level>
D:/projects/mechanical_arm/Ctrl_Stepper_Motor/project/user/src/main.c:81 (discriminator 1)
        gpio_set_level(AN_STEP, GPIO_HIGH);
    2946:	4585                	li	a1,1
    2948:	06900513          	li	a0,105
    294c:	9cdfd0ef          	jal	ra,318 <gpio_set_level>
D:/projects/mechanical_arm/Ctrl_Stepper_Motor/project/user/src/main.c:82 (discriminator 1)
        gpio_set_level(BN_STEP, GPIO_HIGH);
    2950:	4585                	li	a1,1
    2952:	06d00513          	li	a0,109
    2956:	9c3fd0ef          	jal	ra,318 <gpio_set_level>
D:/projects/mechanical_arm/Ctrl_Stepper_Motor/project/user/src/main.c:83 (discriminator 1)
        system_delay_ms(1);
    295a:	8481a703          	lw	a4,-1976(gp) # 20000268 <system_clock>
    295e:	6789                	lui	a5,0x2
    2960:	f4078793          	addi	a5,a5,-192 # 1f40 <debug_assert_handler+0x42>
    2964:	02f757b3          	divu	a5,a4,a5
    2968:	8a3e                	mv	s4,a5
    296a:	4a81                	li	s5,0
    296c:	8552                	mv	a0,s4
    296e:	85d6                	mv	a1,s5
    2970:	94dfd0ef          	jal	ra,2bc <system_delay>
D:/projects/mechanical_arm/Ctrl_Stepper_Motor/project/user/src/main.c:85 (discriminator 1)

        gpio_set_level(AP_STEP, GPIO_HIGH);
    2974:	4585                	li	a1,1
    2976:	06b00513          	li	a0,107
    297a:	99ffd0ef          	jal	ra,318 <gpio_set_level>
D:/projects/mechanical_arm/Ctrl_Stepper_Motor/project/user/src/main.c:86 (discriminator 1)
        gpio_set_level(BP_STEP, GPIO_LOW);
    297e:	4581                	li	a1,0
    2980:	06f00513          	li	a0,111
    2984:	995fd0ef          	jal	ra,318 <gpio_set_level>
D:/projects/mechanical_arm/Ctrl_Stepper_Motor/project/user/src/main.c:87 (discriminator 1)
        gpio_set_level(AN_STEP, GPIO_LOW);
    2988:	4581                	li	a1,0
    298a:	06900513          	li	a0,105
    298e:	98bfd0ef          	jal	ra,318 <gpio_set_level>
D:/projects/mechanical_arm/Ctrl_Stepper_Motor/project/user/src/main.c:88 (discriminator 1)
        gpio_set_level(BN_STEP, GPIO_HIGH);
    2992:	4585                	li	a1,1
    2994:	06d00513          	li	a0,109
    2998:	981fd0ef          	jal	ra,318 <gpio_set_level>
D:/projects/mechanical_arm/Ctrl_Stepper_Motor/project/user/src/main.c:89 (discriminator 1)
        system_delay_ms(1);
    299c:	8481a703          	lw	a4,-1976(gp) # 20000268 <system_clock>
    29a0:	6789                	lui	a5,0x2
    29a2:	f4078793          	addi	a5,a5,-192 # 1f40 <debug_assert_handler+0x42>
    29a6:	02f757b3          	divu	a5,a4,a5
    29aa:	893e                	mv	s2,a5
    29ac:	4981                	li	s3,0
    29ae:	854a                	mv	a0,s2
    29b0:	85ce                	mv	a1,s3
    29b2:	90bfd0ef          	jal	ra,2bc <system_delay>
D:/projects/mechanical_arm/Ctrl_Stepper_Motor/project/user/src/main.c:91 (discriminator 1)

        Blink();
    29b6:	e27ff0ef          	jal	ra,27dc <Blink>
D:/projects/mechanical_arm/Ctrl_Stepper_Motor/project/user/src/main.c:67 (discriminator 1)
        gpio_set_level(AP_STEP, GPIO_HIGH);
    29ba:	bdd5                	j	28ae <main+0x9c>
D:/projects/mechanical_arm/Ctrl_Stepper_Motor/libraries/sdk/Startup/startup_ch32v30x.S:236
    .weak   DMA2_Channel8_IRQHandler   /* DMA2 Channel 8 */
    .weak   DMA2_Channel9_IRQHandler   /* DMA2 Channel 9 */
    .weak   DMA2_Channel10_IRQHandler  /* DMA2 Channel 10 */
    .weak   DMA2_Channel11_IRQHandler  /* DMA2 Channel 11 */

NMI_Handler:  1:  j 1b
    29bc:	a001                	j	29bc <main+0x1aa>
D:/projects/mechanical_arm/Ctrl_Stepper_Motor/libraries/sdk/Startup/startup_ch32v30x.S:237
HardFault_Handler:  1:  j 1b
    29be:	a001                	j	29be <main+0x1ac>

000029c0 <Ecall_M_Mode_Handler>:
Ecall_M_Mode_Handler():
D:/projects/mechanical_arm/Ctrl_Stepper_Motor/libraries/sdk/Startup/startup_ch32v30x.S:238
Ecall_M_Mode_Handler:  1:  j 1b
    29c0:	a001                	j	29c0 <Ecall_M_Mode_Handler>

000029c2 <Ecall_U_Mode_Handler>:
Ecall_U_Mode_Handler():
D:/projects/mechanical_arm/Ctrl_Stepper_Motor/libraries/sdk/Startup/startup_ch32v30x.S:239
Ecall_U_Mode_Handler:  1:  j 1b
    29c2:	a001                	j	29c2 <Ecall_U_Mode_Handler>

000029c4 <Break_Point_Handler>:
Break_Point_Handler():
D:/projects/mechanical_arm/Ctrl_Stepper_Motor/libraries/sdk/Startup/startup_ch32v30x.S:240
Break_Point_Handler:  1:  j 1b
    29c4:	a001                	j	29c4 <Break_Point_Handler>

000029c6 <SysTick_Handler>:
SysTick_Handler():
D:/projects/mechanical_arm/Ctrl_Stepper_Motor/libraries/sdk/Startup/startup_ch32v30x.S:241
SysTick_Handler:  1:  j 1b
    29c6:	a001                	j	29c6 <SysTick_Handler>

000029c8 <SW_handler>:
SW_handler():
D:/projects/mechanical_arm/Ctrl_Stepper_Motor/libraries/sdk/Startup/startup_ch32v30x.S:242
SW_handler:  1:  j 1b
    29c8:	a001                	j	29c8 <SW_handler>

000029ca <WWDG_IRQHandler>:
WWDG_IRQHandler():
D:/projects/mechanical_arm/Ctrl_Stepper_Motor/libraries/sdk/Startup/startup_ch32v30x.S:243
WWDG_IRQHandler:  1:  j 1b
    29ca:	a001                	j	29ca <WWDG_IRQHandler>

000029cc <PVD_IRQHandler>:
PVD_IRQHandler():
D:/projects/mechanical_arm/Ctrl_Stepper_Motor/libraries/sdk/Startup/startup_ch32v30x.S:244
PVD_IRQHandler:  1:  j 1b
    29cc:	a001                	j	29cc <PVD_IRQHandler>

000029ce <TAMPER_IRQHandler>:
TAMPER_IRQHandler():
D:/projects/mechanical_arm/Ctrl_Stepper_Motor/libraries/sdk/Startup/startup_ch32v30x.S:245
TAMPER_IRQHandler:  1:  j 1b
    29ce:	a001                	j	29ce <TAMPER_IRQHandler>

000029d0 <RTC_IRQHandler>:
RTC_IRQHandler():
D:/projects/mechanical_arm/Ctrl_Stepper_Motor/libraries/sdk/Startup/startup_ch32v30x.S:246
RTC_IRQHandler:  1:  j 1b
    29d0:	a001                	j	29d0 <RTC_IRQHandler>

000029d2 <FLASH_IRQHandler>:
FLASH_IRQHandler():
D:/projects/mechanical_arm/Ctrl_Stepper_Motor/libraries/sdk/Startup/startup_ch32v30x.S:247
FLASH_IRQHandler:  1:  j 1b
    29d2:	a001                	j	29d2 <FLASH_IRQHandler>

000029d4 <RCC_IRQHandler>:
RCC_IRQHandler():
D:/projects/mechanical_arm/Ctrl_Stepper_Motor/libraries/sdk/Startup/startup_ch32v30x.S:248
RCC_IRQHandler:  1:  j 1b
    29d4:	a001                	j	29d4 <RCC_IRQHandler>
D:/projects/mechanical_arm/Ctrl_Stepper_Motor/libraries/sdk/Startup/startup_ch32v30x.S:249
EXTI0_IRQHandler:  1:  j 1b
    29d6:	a001                	j	29d6 <RCC_IRQHandler+0x2>
D:/projects/mechanical_arm/Ctrl_Stepper_Motor/libraries/sdk/Startup/startup_ch32v30x.S:250
EXTI1_IRQHandler:  1:  j 1b
    29d8:	a001                	j	29d8 <RCC_IRQHandler+0x4>
D:/projects/mechanical_arm/Ctrl_Stepper_Motor/libraries/sdk/Startup/startup_ch32v30x.S:251
EXTI2_IRQHandler:  1:  j 1b
    29da:	a001                	j	29da <RCC_IRQHandler+0x6>
D:/projects/mechanical_arm/Ctrl_Stepper_Motor/libraries/sdk/Startup/startup_ch32v30x.S:252
EXTI3_IRQHandler:  1:  j 1b
    29dc:	a001                	j	29dc <RCC_IRQHandler+0x8>
D:/projects/mechanical_arm/Ctrl_Stepper_Motor/libraries/sdk/Startup/startup_ch32v30x.S:253
EXTI4_IRQHandler:  1:  j 1b
    29de:	a001                	j	29de <RCC_IRQHandler+0xa>

000029e0 <DMA1_Channel1_IRQHandler>:
DMA1_Channel1_IRQHandler():
D:/projects/mechanical_arm/Ctrl_Stepper_Motor/libraries/sdk/Startup/startup_ch32v30x.S:254
DMA1_Channel1_IRQHandler:  1:  j 1b
    29e0:	a001                	j	29e0 <DMA1_Channel1_IRQHandler>

000029e2 <DMA1_Channel2_IRQHandler>:
DMA1_Channel2_IRQHandler():
D:/projects/mechanical_arm/Ctrl_Stepper_Motor/libraries/sdk/Startup/startup_ch32v30x.S:255
DMA1_Channel2_IRQHandler:  1:  j 1b
    29e2:	a001                	j	29e2 <DMA1_Channel2_IRQHandler>

000029e4 <DMA1_Channel3_IRQHandler>:
DMA1_Channel3_IRQHandler():
D:/projects/mechanical_arm/Ctrl_Stepper_Motor/libraries/sdk/Startup/startup_ch32v30x.S:256
DMA1_Channel3_IRQHandler:  1:  j 1b
    29e4:	a001                	j	29e4 <DMA1_Channel3_IRQHandler>

000029e6 <DMA1_Channel4_IRQHandler>:
DMA1_Channel4_IRQHandler():
D:/projects/mechanical_arm/Ctrl_Stepper_Motor/libraries/sdk/Startup/startup_ch32v30x.S:257
DMA1_Channel4_IRQHandler:  1:  j 1b
    29e6:	a001                	j	29e6 <DMA1_Channel4_IRQHandler>

000029e8 <DMA1_Channel5_IRQHandler>:
DMA1_Channel5_IRQHandler():
D:/projects/mechanical_arm/Ctrl_Stepper_Motor/libraries/sdk/Startup/startup_ch32v30x.S:258
DMA1_Channel5_IRQHandler:  1:  j 1b
    29e8:	a001                	j	29e8 <DMA1_Channel5_IRQHandler>

000029ea <DMA1_Channel6_IRQHandler>:
DMA1_Channel6_IRQHandler():
D:/projects/mechanical_arm/Ctrl_Stepper_Motor/libraries/sdk/Startup/startup_ch32v30x.S:259
DMA1_Channel6_IRQHandler:  1:  j 1b
    29ea:	a001                	j	29ea <DMA1_Channel6_IRQHandler>

000029ec <DMA1_Channel7_IRQHandler>:
DMA1_Channel7_IRQHandler():
D:/projects/mechanical_arm/Ctrl_Stepper_Motor/libraries/sdk/Startup/startup_ch32v30x.S:260
DMA1_Channel7_IRQHandler:  1:  j 1b
    29ec:	a001                	j	29ec <DMA1_Channel7_IRQHandler>

000029ee <ADC1_2_IRQHandler>:
ADC1_2_IRQHandler():
D:/projects/mechanical_arm/Ctrl_Stepper_Motor/libraries/sdk/Startup/startup_ch32v30x.S:261
ADC1_2_IRQHandler:  1:  j 1b
    29ee:	a001                	j	29ee <ADC1_2_IRQHandler>

000029f0 <USB_HP_CAN1_TX_IRQHandler>:
USB_HP_CAN1_TX_IRQHandler():
D:/projects/mechanical_arm/Ctrl_Stepper_Motor/libraries/sdk/Startup/startup_ch32v30x.S:262
USB_HP_CAN1_TX_IRQHandler:  1:  j 1b
    29f0:	a001                	j	29f0 <USB_HP_CAN1_TX_IRQHandler>

000029f2 <USB_LP_CAN1_RX0_IRQHandler>:
USB_LP_CAN1_RX0_IRQHandler():
D:/projects/mechanical_arm/Ctrl_Stepper_Motor/libraries/sdk/Startup/startup_ch32v30x.S:263
USB_LP_CAN1_RX0_IRQHandler:  1:  j 1b
    29f2:	a001                	j	29f2 <USB_LP_CAN1_RX0_IRQHandler>

000029f4 <CAN1_RX1_IRQHandler>:
CAN1_RX1_IRQHandler():
D:/projects/mechanical_arm/Ctrl_Stepper_Motor/libraries/sdk/Startup/startup_ch32v30x.S:264
CAN1_RX1_IRQHandler:  1:  j 1b
    29f4:	a001                	j	29f4 <CAN1_RX1_IRQHandler>

000029f6 <CAN1_SCE_IRQHandler>:
CAN1_SCE_IRQHandler():
D:/projects/mechanical_arm/Ctrl_Stepper_Motor/libraries/sdk/Startup/startup_ch32v30x.S:265
CAN1_SCE_IRQHandler:  1:  j 1b
    29f6:	a001                	j	29f6 <CAN1_SCE_IRQHandler>
D:/projects/mechanical_arm/Ctrl_Stepper_Motor/libraries/sdk/Startup/startup_ch32v30x.S:266
EXTI9_5_IRQHandler:  1:  j 1b
    29f8:	a001                	j	29f8 <CAN1_SCE_IRQHandler+0x2>

000029fa <TIM1_BRK_IRQHandler>:
TIM1_BRK_IRQHandler():
D:/projects/mechanical_arm/Ctrl_Stepper_Motor/libraries/sdk/Startup/startup_ch32v30x.S:267
TIM1_BRK_IRQHandler:  1:  j 1b
    29fa:	a001                	j	29fa <TIM1_BRK_IRQHandler>
D:/projects/mechanical_arm/Ctrl_Stepper_Motor/libraries/sdk/Startup/startup_ch32v30x.S:268
TIM1_UP_IRQHandler:  1:  j 1b
    29fc:	a001                	j	29fc <TIM1_BRK_IRQHandler+0x2>

000029fe <TIM1_TRG_COM_IRQHandler>:
TIM1_TRG_COM_IRQHandler():
D:/projects/mechanical_arm/Ctrl_Stepper_Motor/libraries/sdk/Startup/startup_ch32v30x.S:269
TIM1_TRG_COM_IRQHandler:  1:  j 1b
    29fe:	a001                	j	29fe <TIM1_TRG_COM_IRQHandler>

00002a00 <TIM1_CC_IRQHandler>:
TIM1_CC_IRQHandler():
D:/projects/mechanical_arm/Ctrl_Stepper_Motor/libraries/sdk/Startup/startup_ch32v30x.S:270
TIM1_CC_IRQHandler:  1:  j 1b
    2a00:	a001                	j	2a00 <TIM1_CC_IRQHandler>
D:/projects/mechanical_arm/Ctrl_Stepper_Motor/libraries/sdk/Startup/startup_ch32v30x.S:271
TIM2_IRQHandler:  1:  j 1b
    2a02:	a001                	j	2a02 <TIM1_CC_IRQHandler+0x2>
D:/projects/mechanical_arm/Ctrl_Stepper_Motor/libraries/sdk/Startup/startup_ch32v30x.S:272
TIM3_IRQHandler:  1:  j 1b
    2a04:	a001                	j	2a04 <TIM1_CC_IRQHandler+0x4>
D:/projects/mechanical_arm/Ctrl_Stepper_Motor/libraries/sdk/Startup/startup_ch32v30x.S:273
TIM4_IRQHandler:  1:  j 1b
    2a06:	a001                	j	2a06 <TIM1_CC_IRQHandler+0x6>

00002a08 <I2C1_EV_IRQHandler>:
I2C1_EV_IRQHandler():
D:/projects/mechanical_arm/Ctrl_Stepper_Motor/libraries/sdk/Startup/startup_ch32v30x.S:274
I2C1_EV_IRQHandler:  1:  j 1b
    2a08:	a001                	j	2a08 <I2C1_EV_IRQHandler>

00002a0a <I2C1_ER_IRQHandler>:
I2C1_ER_IRQHandler():
D:/projects/mechanical_arm/Ctrl_Stepper_Motor/libraries/sdk/Startup/startup_ch32v30x.S:275
I2C1_ER_IRQHandler:  1:  j 1b
    2a0a:	a001                	j	2a0a <I2C1_ER_IRQHandler>

00002a0c <I2C2_EV_IRQHandler>:
I2C2_EV_IRQHandler():
D:/projects/mechanical_arm/Ctrl_Stepper_Motor/libraries/sdk/Startup/startup_ch32v30x.S:276
I2C2_EV_IRQHandler:  1:  j 1b
    2a0c:	a001                	j	2a0c <I2C2_EV_IRQHandler>

00002a0e <I2C2_ER_IRQHandler>:
I2C2_ER_IRQHandler():
D:/projects/mechanical_arm/Ctrl_Stepper_Motor/libraries/sdk/Startup/startup_ch32v30x.S:277
I2C2_ER_IRQHandler:  1:  j 1b
    2a0e:	a001                	j	2a0e <I2C2_ER_IRQHandler>

00002a10 <SPI1_IRQHandler>:
SPI1_IRQHandler():
D:/projects/mechanical_arm/Ctrl_Stepper_Motor/libraries/sdk/Startup/startup_ch32v30x.S:278
SPI1_IRQHandler:  1:  j 1b
    2a10:	a001                	j	2a10 <SPI1_IRQHandler>

00002a12 <SPI2_IRQHandler>:
SPI2_IRQHandler():
D:/projects/mechanical_arm/Ctrl_Stepper_Motor/libraries/sdk/Startup/startup_ch32v30x.S:279
SPI2_IRQHandler:  1:  j 1b
    2a12:	a001                	j	2a12 <SPI2_IRQHandler>
D:/projects/mechanical_arm/Ctrl_Stepper_Motor/libraries/sdk/Startup/startup_ch32v30x.S:280
USART1_IRQHandler:  1:  j 1b
    2a14:	a001                	j	2a14 <SPI2_IRQHandler+0x2>
D:/projects/mechanical_arm/Ctrl_Stepper_Motor/libraries/sdk/Startup/startup_ch32v30x.S:281
USART2_IRQHandler:  1:  j 1b
    2a16:	a001                	j	2a16 <SPI2_IRQHandler+0x4>
D:/projects/mechanical_arm/Ctrl_Stepper_Motor/libraries/sdk/Startup/startup_ch32v30x.S:282
USART3_IRQHandler:  1:  j 1b
    2a18:	a001                	j	2a18 <SPI2_IRQHandler+0x6>
D:/projects/mechanical_arm/Ctrl_Stepper_Motor/libraries/sdk/Startup/startup_ch32v30x.S:283
EXTI15_10_IRQHandler:  1:  j 1b
    2a1a:	a001                	j	2a1a <SPI2_IRQHandler+0x8>

00002a1c <RTCAlarm_IRQHandler>:
RTCAlarm_IRQHandler():
D:/projects/mechanical_arm/Ctrl_Stepper_Motor/libraries/sdk/Startup/startup_ch32v30x.S:284
RTCAlarm_IRQHandler:  1:  j 1b
    2a1c:	a001                	j	2a1c <RTCAlarm_IRQHandler>

00002a1e <USBWakeUp_IRQHandler>:
USBWakeUp_IRQHandler():
D:/projects/mechanical_arm/Ctrl_Stepper_Motor/libraries/sdk/Startup/startup_ch32v30x.S:285
USBWakeUp_IRQHandler:  1:  j 1b
    2a1e:	a001                	j	2a1e <USBWakeUp_IRQHandler>

00002a20 <TIM8_BRK_IRQHandler>:
TIM8_BRK_IRQHandler():
D:/projects/mechanical_arm/Ctrl_Stepper_Motor/libraries/sdk/Startup/startup_ch32v30x.S:286
TIM8_BRK_IRQHandler:  1:  j 1b
    2a20:	a001                	j	2a20 <TIM8_BRK_IRQHandler>
D:/projects/mechanical_arm/Ctrl_Stepper_Motor/libraries/sdk/Startup/startup_ch32v30x.S:287
TIM8_UP_IRQHandler:  1:  j 1b
    2a22:	a001                	j	2a22 <TIM8_BRK_IRQHandler+0x2>

00002a24 <TIM8_TRG_COM_IRQHandler>:
TIM8_TRG_COM_IRQHandler():
D:/projects/mechanical_arm/Ctrl_Stepper_Motor/libraries/sdk/Startup/startup_ch32v30x.S:288
TIM8_TRG_COM_IRQHandler:  1:  j 1b
    2a24:	a001                	j	2a24 <TIM8_TRG_COM_IRQHandler>

00002a26 <TIM8_CC_IRQHandler>:
TIM8_CC_IRQHandler():
D:/projects/mechanical_arm/Ctrl_Stepper_Motor/libraries/sdk/Startup/startup_ch32v30x.S:289
TIM8_CC_IRQHandler:  1:  j 1b
    2a26:	a001                	j	2a26 <TIM8_CC_IRQHandler>

00002a28 <RNG_IRQHandler>:
RNG_IRQHandler():
D:/projects/mechanical_arm/Ctrl_Stepper_Motor/libraries/sdk/Startup/startup_ch32v30x.S:290
RNG_IRQHandler:  1:  j 1b
    2a28:	a001                	j	2a28 <RNG_IRQHandler>

00002a2a <FSMC_IRQHandler>:
FSMC_IRQHandler():
D:/projects/mechanical_arm/Ctrl_Stepper_Motor/libraries/sdk/Startup/startup_ch32v30x.S:291
FSMC_IRQHandler:  1:  j 1b
    2a2a:	a001                	j	2a2a <FSMC_IRQHandler>

00002a2c <SDIO_IRQHandler>:
SDIO_IRQHandler():
D:/projects/mechanical_arm/Ctrl_Stepper_Motor/libraries/sdk/Startup/startup_ch32v30x.S:292
SDIO_IRQHandler:  1:  j 1b
    2a2c:	a001                	j	2a2c <SDIO_IRQHandler>
D:/projects/mechanical_arm/Ctrl_Stepper_Motor/libraries/sdk/Startup/startup_ch32v30x.S:293
TIM5_IRQHandler:  1:  j 1b
    2a2e:	a001                	j	2a2e <SDIO_IRQHandler+0x2>

00002a30 <SPI3_IRQHandler>:
SPI3_IRQHandler():
D:/projects/mechanical_arm/Ctrl_Stepper_Motor/libraries/sdk/Startup/startup_ch32v30x.S:294
SPI3_IRQHandler:  1:  j 1b
    2a30:	a001                	j	2a30 <SPI3_IRQHandler>
D:/projects/mechanical_arm/Ctrl_Stepper_Motor/libraries/sdk/Startup/startup_ch32v30x.S:295
UART4_IRQHandler:  1:  j 1b
    2a32:	a001                	j	2a32 <SPI3_IRQHandler+0x2>
D:/projects/mechanical_arm/Ctrl_Stepper_Motor/libraries/sdk/Startup/startup_ch32v30x.S:296
UART5_IRQHandler:  1:  j 1b
    2a34:	a001                	j	2a34 <SPI3_IRQHandler+0x4>
D:/projects/mechanical_arm/Ctrl_Stepper_Motor/libraries/sdk/Startup/startup_ch32v30x.S:297
TIM6_IRQHandler:  1:  j 1b
    2a36:	a001                	j	2a36 <SPI3_IRQHandler+0x6>
D:/projects/mechanical_arm/Ctrl_Stepper_Motor/libraries/sdk/Startup/startup_ch32v30x.S:298
TIM7_IRQHandler:  1:  j 1b
    2a38:	a001                	j	2a38 <SPI3_IRQHandler+0x8>

00002a3a <DMA2_Channel1_IRQHandler>:
DMA2_Channel1_IRQHandler():
D:/projects/mechanical_arm/Ctrl_Stepper_Motor/libraries/sdk/Startup/startup_ch32v30x.S:299
DMA2_Channel1_IRQHandler:  1:  j 1b
    2a3a:	a001                	j	2a3a <DMA2_Channel1_IRQHandler>

00002a3c <DMA2_Channel2_IRQHandler>:
DMA2_Channel2_IRQHandler():
D:/projects/mechanical_arm/Ctrl_Stepper_Motor/libraries/sdk/Startup/startup_ch32v30x.S:300
DMA2_Channel2_IRQHandler:  1:  j 1b
    2a3c:	a001                	j	2a3c <DMA2_Channel2_IRQHandler>

00002a3e <DMA2_Channel3_IRQHandler>:
DMA2_Channel3_IRQHandler():
D:/projects/mechanical_arm/Ctrl_Stepper_Motor/libraries/sdk/Startup/startup_ch32v30x.S:301
DMA2_Channel3_IRQHandler:  1:  j 1b
    2a3e:	a001                	j	2a3e <DMA2_Channel3_IRQHandler>

00002a40 <DMA2_Channel4_IRQHandler>:
DMA2_Channel4_IRQHandler():
D:/projects/mechanical_arm/Ctrl_Stepper_Motor/libraries/sdk/Startup/startup_ch32v30x.S:302
DMA2_Channel4_IRQHandler:  1:  j 1b
    2a40:	a001                	j	2a40 <DMA2_Channel4_IRQHandler>

00002a42 <DMA2_Channel5_IRQHandler>:
DMA2_Channel5_IRQHandler():
D:/projects/mechanical_arm/Ctrl_Stepper_Motor/libraries/sdk/Startup/startup_ch32v30x.S:303
DMA2_Channel5_IRQHandler:  1:  j 1b
    2a42:	a001                	j	2a42 <DMA2_Channel5_IRQHandler>

00002a44 <ETH_IRQHandler>:
ETH_IRQHandler():
D:/projects/mechanical_arm/Ctrl_Stepper_Motor/libraries/sdk/Startup/startup_ch32v30x.S:304
ETH_IRQHandler:  1:  j 1b
    2a44:	a001                	j	2a44 <ETH_IRQHandler>

00002a46 <ETH_WKUP_IRQHandler>:
ETH_WKUP_IRQHandler():
D:/projects/mechanical_arm/Ctrl_Stepper_Motor/libraries/sdk/Startup/startup_ch32v30x.S:305
ETH_WKUP_IRQHandler:  1:  j 1b
    2a46:	a001                	j	2a46 <ETH_WKUP_IRQHandler>

00002a48 <CAN2_TX_IRQHandler>:
CAN2_TX_IRQHandler():
D:/projects/mechanical_arm/Ctrl_Stepper_Motor/libraries/sdk/Startup/startup_ch32v30x.S:306
CAN2_TX_IRQHandler:  1:  j 1b
    2a48:	a001                	j	2a48 <CAN2_TX_IRQHandler>

00002a4a <CAN2_RX0_IRQHandler>:
CAN2_RX0_IRQHandler():
D:/projects/mechanical_arm/Ctrl_Stepper_Motor/libraries/sdk/Startup/startup_ch32v30x.S:307
CAN2_RX0_IRQHandler:  1:  j 1b
    2a4a:	a001                	j	2a4a <CAN2_RX0_IRQHandler>

00002a4c <CAN2_RX1_IRQHandler>:
CAN2_RX1_IRQHandler():
D:/projects/mechanical_arm/Ctrl_Stepper_Motor/libraries/sdk/Startup/startup_ch32v30x.S:308
CAN2_RX1_IRQHandler:  1:  j 1b
    2a4c:	a001                	j	2a4c <CAN2_RX1_IRQHandler>

00002a4e <CAN2_SCE_IRQHandler>:
CAN2_SCE_IRQHandler():
D:/projects/mechanical_arm/Ctrl_Stepper_Motor/libraries/sdk/Startup/startup_ch32v30x.S:309
CAN2_SCE_IRQHandler:  1:  j 1b
    2a4e:	a001                	j	2a4e <CAN2_SCE_IRQHandler>
D:/projects/mechanical_arm/Ctrl_Stepper_Motor/libraries/sdk/Startup/startup_ch32v30x.S:310
OTG_FS_IRQHandler:  1:  j 1b
    2a50:	a001                	j	2a50 <CAN2_SCE_IRQHandler+0x2>

00002a52 <USBHSWakeup_IRQHandler>:
USBHSWakeup_IRQHandler():
D:/projects/mechanical_arm/Ctrl_Stepper_Motor/libraries/sdk/Startup/startup_ch32v30x.S:311
USBHSWakeup_IRQHandler:  1:  j 1b
    2a52:	a001                	j	2a52 <USBHSWakeup_IRQHandler>

00002a54 <USBHS_IRQHandler>:
USBHS_IRQHandler():
D:/projects/mechanical_arm/Ctrl_Stepper_Motor/libraries/sdk/Startup/startup_ch32v30x.S:312
USBHS_IRQHandler:  1:  j 1b
    2a54:	a001                	j	2a54 <USBHS_IRQHandler>
D:/projects/mechanical_arm/Ctrl_Stepper_Motor/libraries/sdk/Startup/startup_ch32v30x.S:313
DVP_IRQHandler:  1:  j 1b
    2a56:	a001                	j	2a56 <USBHS_IRQHandler+0x2>
D:/projects/mechanical_arm/Ctrl_Stepper_Motor/libraries/sdk/Startup/startup_ch32v30x.S:314
UART6_IRQHandler:  1:  j 1b
    2a58:	a001                	j	2a58 <USBHS_IRQHandler+0x4>
D:/projects/mechanical_arm/Ctrl_Stepper_Motor/libraries/sdk/Startup/startup_ch32v30x.S:315
UART7_IRQHandler:  1:  j 1b
    2a5a:	a001                	j	2a5a <USBHS_IRQHandler+0x6>
D:/projects/mechanical_arm/Ctrl_Stepper_Motor/libraries/sdk/Startup/startup_ch32v30x.S:316
UART8_IRQHandler:  1:  j 1b
    2a5c:	a001                	j	2a5c <USBHS_IRQHandler+0x8>

00002a5e <TIM9_BRK_IRQHandler>:
TIM9_BRK_IRQHandler():
D:/projects/mechanical_arm/Ctrl_Stepper_Motor/libraries/sdk/Startup/startup_ch32v30x.S:317
TIM9_BRK_IRQHandler:  1:  j 1b
    2a5e:	a001                	j	2a5e <TIM9_BRK_IRQHandler>
D:/projects/mechanical_arm/Ctrl_Stepper_Motor/libraries/sdk/Startup/startup_ch32v30x.S:318
TIM9_UP_IRQHandler:  1:  j 1b
    2a60:	a001                	j	2a60 <TIM9_BRK_IRQHandler+0x2>

00002a62 <TIM9_TRG_COM_IRQHandler>:
TIM9_TRG_COM_IRQHandler():
D:/projects/mechanical_arm/Ctrl_Stepper_Motor/libraries/sdk/Startup/startup_ch32v30x.S:319
TIM9_TRG_COM_IRQHandler:  1:  j 1b
    2a62:	a001                	j	2a62 <TIM9_TRG_COM_IRQHandler>

00002a64 <TIM9_CC_IRQHandler>:
TIM9_CC_IRQHandler():
D:/projects/mechanical_arm/Ctrl_Stepper_Motor/libraries/sdk/Startup/startup_ch32v30x.S:320
TIM9_CC_IRQHandler:  1:  j 1b
    2a64:	a001                	j	2a64 <TIM9_CC_IRQHandler>

00002a66 <TIM10_BRK_IRQHandler>:
TIM10_BRK_IRQHandler():
D:/projects/mechanical_arm/Ctrl_Stepper_Motor/libraries/sdk/Startup/startup_ch32v30x.S:321
TIM10_BRK_IRQHandler:  1:  j 1b
    2a66:	a001                	j	2a66 <TIM10_BRK_IRQHandler>
D:/projects/mechanical_arm/Ctrl_Stepper_Motor/libraries/sdk/Startup/startup_ch32v30x.S:322
TIM10_UP_IRQHandler:  1:  j 1b
    2a68:	a001                	j	2a68 <TIM10_BRK_IRQHandler+0x2>

00002a6a <TIM10_TRG_COM_IRQHandler>:
TIM10_TRG_COM_IRQHandler():
D:/projects/mechanical_arm/Ctrl_Stepper_Motor/libraries/sdk/Startup/startup_ch32v30x.S:323
TIM10_TRG_COM_IRQHandler:  1:  j 1b
    2a6a:	a001                	j	2a6a <TIM10_TRG_COM_IRQHandler>

00002a6c <TIM10_CC_IRQHandler>:
TIM10_CC_IRQHandler():
D:/projects/mechanical_arm/Ctrl_Stepper_Motor/libraries/sdk/Startup/startup_ch32v30x.S:324
TIM10_CC_IRQHandler:  1:  j 1b
    2a6c:	a001                	j	2a6c <TIM10_CC_IRQHandler>

00002a6e <DMA2_Channel6_IRQHandler>:
DMA2_Channel6_IRQHandler():
D:/projects/mechanical_arm/Ctrl_Stepper_Motor/libraries/sdk/Startup/startup_ch32v30x.S:325
DMA2_Channel6_IRQHandler:  1:  j 1b
    2a6e:	a001                	j	2a6e <DMA2_Channel6_IRQHandler>

00002a70 <DMA2_Channel7_IRQHandler>:
DMA2_Channel7_IRQHandler():
D:/projects/mechanical_arm/Ctrl_Stepper_Motor/libraries/sdk/Startup/startup_ch32v30x.S:326
DMA2_Channel7_IRQHandler:  1:  j 1b
    2a70:	a001                	j	2a70 <DMA2_Channel7_IRQHandler>

00002a72 <DMA2_Channel8_IRQHandler>:
DMA2_Channel8_IRQHandler():
D:/projects/mechanical_arm/Ctrl_Stepper_Motor/libraries/sdk/Startup/startup_ch32v30x.S:327
DMA2_Channel8_IRQHandler:  1:  j 1b
    2a72:	a001                	j	2a72 <DMA2_Channel8_IRQHandler>

00002a74 <DMA2_Channel9_IRQHandler>:
DMA2_Channel9_IRQHandler():
D:/projects/mechanical_arm/Ctrl_Stepper_Motor/libraries/sdk/Startup/startup_ch32v30x.S:328
DMA2_Channel9_IRQHandler:  1:  j 1b
    2a74:	a001                	j	2a74 <DMA2_Channel9_IRQHandler>

00002a76 <DMA2_Channel10_IRQHandler>:
DMA2_Channel10_IRQHandler():
D:/projects/mechanical_arm/Ctrl_Stepper_Motor/libraries/sdk/Startup/startup_ch32v30x.S:329
DMA2_Channel10_IRQHandler:  1:  j 1b
    2a76:	a001                	j	2a76 <DMA2_Channel10_IRQHandler>

00002a78 <DMA2_Channel11_IRQHandler>:
DMA2_Channel11_IRQHandler():
D:/projects/mechanical_arm/Ctrl_Stepper_Motor/libraries/sdk/Startup/startup_ch32v30x.S:330
DMA2_Channel11_IRQHandler:  1:  j 1b
    2a78:	a001                	j	2a78 <DMA2_Channel11_IRQHandler>

00002a7a <handle_reset>:
handle_reset():
D:/projects/mechanical_arm/Ctrl_Stepper_Motor/libraries/sdk/Startup/startup_ch32v30x.S:340
	.align	1
handle_reset:
.option push 
.option	norelax 

    csrw mepc, t0
    2a7a:	34129073          	csrw	mepc,t0
D:/projects/mechanical_arm/Ctrl_Stepper_Motor/libraries/sdk/Startup/startup_ch32v30x.S:341
	la gp, __global_pointer$
    2a7e:	1fffe197          	auipc	gp,0x1fffe
    2a82:	fa218193          	addi	gp,gp,-94 # 20000a20 <__global_pointer$>
D:/projects/mechanical_arm/Ctrl_Stepper_Motor/libraries/sdk/Startup/startup_ch32v30x.S:344
.option	pop 
1:
	la sp, _eusrstack 
    2a86:	2000d117          	auipc	sp,0x2000d
    2a8a:	57a10113          	addi	sp,sp,1402 # 20010000 <_eusrstack>
D:/projects/mechanical_arm/Ctrl_Stepper_Motor/libraries/sdk/Startup/startup_ch32v30x.S:347
2:
	/* Load data section from flash to RAM */
	la a0, _data_lma
    2a8e:	00008517          	auipc	a0,0x8
    2a92:	c5650513          	addi	a0,a0,-938 # a6e4 <_data_lma>
D:/projects/mechanical_arm/Ctrl_Stepper_Motor/libraries/sdk/Startup/startup_ch32v30x.S:348
	la a1, _data_vma
    2a96:	1fffd597          	auipc	a1,0x1fffd
    2a9a:	56a58593          	addi	a1,a1,1386 # 20000000 <_data_vma>
D:/projects/mechanical_arm/Ctrl_Stepper_Motor/libraries/sdk/Startup/startup_ch32v30x.S:349
	la a2, _edata
    2a9e:	82818613          	addi	a2,gp,-2008 # 20000248 <_edata>
D:/projects/mechanical_arm/Ctrl_Stepper_Motor/libraries/sdk/Startup/startup_ch32v30x.S:350
	bgeu a1, a2, 2f
    2aa2:	00c5fa63          	bgeu	a1,a2,2ab6 <handle_reset+0x3c>
D:/projects/mechanical_arm/Ctrl_Stepper_Motor/libraries/sdk/Startup/startup_ch32v30x.S:352
1:
	lw t0, (a0)
    2aa6:	00052283          	lw	t0,0(a0)
D:/projects/mechanical_arm/Ctrl_Stepper_Motor/libraries/sdk/Startup/startup_ch32v30x.S:353
	sw t0, (a1)
    2aaa:	0055a023          	sw	t0,0(a1)
D:/projects/mechanical_arm/Ctrl_Stepper_Motor/libraries/sdk/Startup/startup_ch32v30x.S:354
	addi a0, a0, 4
    2aae:	0511                	addi	a0,a0,4
D:/projects/mechanical_arm/Ctrl_Stepper_Motor/libraries/sdk/Startup/startup_ch32v30x.S:355
	addi a1, a1, 4
    2ab0:	0591                	addi	a1,a1,4
D:/projects/mechanical_arm/Ctrl_Stepper_Motor/libraries/sdk/Startup/startup_ch32v30x.S:356
	bltu a1, a2, 1b
    2ab2:	fec5eae3          	bltu	a1,a2,2aa6 <handle_reset+0x2c>
D:/projects/mechanical_arm/Ctrl_Stepper_Motor/libraries/sdk/Startup/startup_ch32v30x.S:359
2:
	/* Clear bss section */
	la a0, _sbss
    2ab6:	82818513          	addi	a0,gp,-2008 # 20000248 <_edata>
D:/projects/mechanical_arm/Ctrl_Stepper_Motor/libraries/sdk/Startup/startup_ch32v30x.S:360
	la a1, _ebss
    2aba:	90018593          	addi	a1,gp,-1792 # 20000320 <_ebss>
D:/projects/mechanical_arm/Ctrl_Stepper_Motor/libraries/sdk/Startup/startup_ch32v30x.S:361
	bgeu a0, a1, 2f
    2abe:	00b57763          	bgeu	a0,a1,2acc <handle_reset+0x52>
D:/projects/mechanical_arm/Ctrl_Stepper_Motor/libraries/sdk/Startup/startup_ch32v30x.S:363
1:
	sw zero, (a0)
    2ac2:	00052023          	sw	zero,0(a0)
D:/projects/mechanical_arm/Ctrl_Stepper_Motor/libraries/sdk/Startup/startup_ch32v30x.S:364
	addi a0, a0, 4
    2ac6:	0511                	addi	a0,a0,4
D:/projects/mechanical_arm/Ctrl_Stepper_Motor/libraries/sdk/Startup/startup_ch32v30x.S:365
	bltu a0, a1, 1b
    2ac8:	feb56de3          	bltu	a0,a1,2ac2 <handle_reset+0x48>
D:/projects/mechanical_arm/Ctrl_Stepper_Motor/libraries/sdk/Startup/startup_ch32v30x.S:367
2:
    li t0, 0x1f
    2acc:	42fd                	li	t0,31
D:/projects/mechanical_arm/Ctrl_Stepper_Motor/libraries/sdk/Startup/startup_ch32v30x.S:368
    csrw 0xbc0, t0
    2ace:	bc029073          	csrw	0xbc0,t0
D:/projects/mechanical_arm/Ctrl_Stepper_Motor/libraries/sdk/Startup/startup_ch32v30x.S:371

    /* Enable nested and hardware stack */
	li t0, 0x1f
    2ad2:	42fd                	li	t0,31
D:/projects/mechanical_arm/Ctrl_Stepper_Motor/libraries/sdk/Startup/startup_ch32v30x.S:372
	csrw 0x804, t0
    2ad4:	80429073          	csrw	0x804,t0
D:/projects/mechanical_arm/Ctrl_Stepper_Motor/libraries/sdk/Startup/startup_ch32v30x.S:376

    /* Enable floating point and interrupt */

   	li t0, 0x7888
    2ad8:	000082b7          	lui	t0,0x8
    2adc:	88828293          	addi	t0,t0,-1912 # 7888 <_printf_i+0x1d8>
D:/projects/mechanical_arm/Ctrl_Stepper_Motor/libraries/sdk/Startup/startup_ch32v30x.S:377
   	csrs mstatus, t0
    2ae0:	3002a073          	csrs	mstatus,t0
D:/projects/mechanical_arm/Ctrl_Stepper_Motor/libraries/sdk/Startup/startup_ch32v30x.S:379

 	la t0, _vector_base
    2ae4:	ffffd297          	auipc	t0,0xffffd
    2ae8:	55428293          	addi	t0,t0,1364 # 38 <_einit>
D:/projects/mechanical_arm/Ctrl_Stepper_Motor/libraries/sdk/Startup/startup_ch32v30x.S:380
    ori t0, t0, 3           
    2aec:	0032e293          	ori	t0,t0,3
D:/projects/mechanical_arm/Ctrl_Stepper_Motor/libraries/sdk/Startup/startup_ch32v30x.S:381
	csrw mtvec, t0
    2af0:	30529073          	csrw	mtvec,t0
D:/projects/mechanical_arm/Ctrl_Stepper_Motor/libraries/sdk/Startup/startup_ch32v30x.S:383

    jal  SystemInit
    2af4:	014000ef          	jal	ra,2b08 <SystemInit>
D:/projects/mechanical_arm/Ctrl_Stepper_Motor/libraries/sdk/Startup/startup_ch32v30x.S:384
	la t0, main
    2af8:	00000297          	auipc	t0,0x0
    2afc:	d1a28293          	addi	t0,t0,-742 # 2812 <main>
D:/projects/mechanical_arm/Ctrl_Stepper_Motor/libraries/sdk/Startup/startup_ch32v30x.S:385
	csrw mepc, t0
    2b00:	34129073          	csrw	mepc,t0
D:/projects/mechanical_arm/Ctrl_Stepper_Motor/libraries/sdk/Startup/startup_ch32v30x.S:386
	mret
    2b04:	30200073          	mret

00002b08 <SystemInit>:
SystemInit():
D:/projects/mechanical_arm/Ctrl_Stepper_Motor/libraries/sdk/Startup/system_ch32v30x.c:83
*                  the PLL and update the SystemCoreClock variable.
* Input          : None
* Return         : None
*******************************************************************************************/
void SystemInit (void)
{
    2b08:	1141                	addi	sp,sp,-16
    2b0a:	c606                	sw	ra,12(sp)
    2b0c:	c422                	sw	s0,8(sp)
    2b0e:	0800                	addi	s0,sp,16
D:/projects/mechanical_arm/Ctrl_Stepper_Motor/libraries/sdk/Startup/system_ch32v30x.c:84
  RCC->CTLR |= (uint32_t)0x00000001;
    2b10:	400217b7          	lui	a5,0x40021
    2b14:	4398                	lw	a4,0(a5)
    2b16:	400217b7          	lui	a5,0x40021
    2b1a:	00176713          	ori	a4,a4,1
    2b1e:	c398                	sw	a4,0(a5)
D:/projects/mechanical_arm/Ctrl_Stepper_Motor/libraries/sdk/Startup/system_ch32v30x.c:85
  RCC->CFGR0 &= (uint32_t)0xF8FF0000;
    2b20:	400217b7          	lui	a5,0x40021
    2b24:	43d4                	lw	a3,4(a5)
    2b26:	400217b7          	lui	a5,0x40021
    2b2a:	f8ff0737          	lui	a4,0xf8ff0
    2b2e:	8f75                	and	a4,a4,a3
    2b30:	c3d8                	sw	a4,4(a5)
D:/projects/mechanical_arm/Ctrl_Stepper_Motor/libraries/sdk/Startup/system_ch32v30x.c:86
  RCC->CTLR &= (uint32_t)0xFEF6FFFF;
    2b32:	400217b7          	lui	a5,0x40021
    2b36:	4394                	lw	a3,0(a5)
    2b38:	400217b7          	lui	a5,0x40021
    2b3c:	fef70737          	lui	a4,0xfef70
    2b40:	177d                	addi	a4,a4,-1
    2b42:	8f75                	and	a4,a4,a3
    2b44:	c398                	sw	a4,0(a5)
D:/projects/mechanical_arm/Ctrl_Stepper_Motor/libraries/sdk/Startup/system_ch32v30x.c:87
  RCC->CTLR &= (uint32_t)0xFFFBFFFF;
    2b46:	400217b7          	lui	a5,0x40021
    2b4a:	4394                	lw	a3,0(a5)
    2b4c:	400217b7          	lui	a5,0x40021
    2b50:	fffc0737          	lui	a4,0xfffc0
    2b54:	177d                	addi	a4,a4,-1
    2b56:	8f75                	and	a4,a4,a3
    2b58:	c398                	sw	a4,0(a5)
D:/projects/mechanical_arm/Ctrl_Stepper_Motor/libraries/sdk/Startup/system_ch32v30x.c:88
  RCC->CFGR0 &= (uint32_t)0xFF80FFFF;
    2b5a:	400217b7          	lui	a5,0x40021
    2b5e:	43d4                	lw	a3,4(a5)
    2b60:	400217b7          	lui	a5,0x40021
    2b64:	ff810737          	lui	a4,0xff810
    2b68:	177d                	addi	a4,a4,-1
    2b6a:	8f75                	and	a4,a4,a3
    2b6c:	c3d8                	sw	a4,4(a5)
D:/projects/mechanical_arm/Ctrl_Stepper_Motor/libraries/sdk/Startup/system_ch32v30x.c:89
  RCC->INTR = 0x009F0000;    
    2b6e:	400217b7          	lui	a5,0x40021
    2b72:	009f0737          	lui	a4,0x9f0
    2b76:	c798                	sw	a4,8(a5)
D:/projects/mechanical_arm/Ctrl_Stepper_Motor/libraries/sdk/Startup/system_ch32v30x.c:90
  SetSysClock();
    2b78:	2031                	jal	2b84 <SetSysClock>
D:/projects/mechanical_arm/Ctrl_Stepper_Motor/libraries/sdk/Startup/system_ch32v30x.c:91
}
    2b7a:	0001                	nop
    2b7c:	40b2                	lw	ra,12(sp)
    2b7e:	4422                	lw	s0,8(sp)
    2b80:	0141                	addi	sp,sp,16
    2b82:	8082                	ret

00002b84 <SetSysClock>:
SetSysClock():
D:/projects/mechanical_arm/Ctrl_Stepper_Motor/libraries/sdk/Startup/system_ch32v30x.c:168
* Description    : Configures the System clock frequency, HCLK, PCLK2 and PCLK1 prescalers. 
* Input          : None
* Return         : None
*******************************************************************************************/
static void SetSysClock(void)
{
    2b84:	1141                	addi	sp,sp,-16
    2b86:	c606                	sw	ra,12(sp)
    2b88:	c422                	sw	s0,8(sp)
    2b8a:	0800                	addi	s0,sp,16
D:/projects/mechanical_arm/Ctrl_Stepper_Motor/libraries/sdk/Startup/system_ch32v30x.c:185
#elif defined SYSCLK_FREQ_96MHz
  SetSysClockTo96();
#elif defined SYSCLK_FREQ_120MHz
  SetSysClockTo120();
#elif defined SYSCLK_FREQ_144MHz
  SetSysClockTo144();
    2b8c:	2031                	jal	2b98 <SetSysClockTo144>
D:/projects/mechanical_arm/Ctrl_Stepper_Motor/libraries/sdk/Startup/system_ch32v30x.c:193
#endif
 
 /* If none of the define above is enabled, the HSI is used as System clock
  * source (default after reset) 
	*/ 
}
    2b8e:	0001                	nop
    2b90:	40b2                	lw	ra,12(sp)
    2b92:	4422                	lw	s0,8(sp)
    2b94:	0141                	addi	sp,sp,16
    2b96:	8082                	ret

00002b98 <SetSysClockTo144>:
SetSysClockTo144():
D:/projects/mechanical_arm/Ctrl_Stepper_Motor/libraries/sdk/Startup/system_ch32v30x.c:745
* Description    : Sets System clock frequency to 144MHz and configure HCLK, PCLK2 and PCLK1 prescalers.
* Input          : None
* Return         : None
*******************************************************************************************/
static void SetSysClockTo144(void)
{
    2b98:	1101                	addi	sp,sp,-32
    2b9a:	ce22                	sw	s0,28(sp)
    2b9c:	1000                	addi	s0,sp,32
D:/projects/mechanical_arm/Ctrl_Stepper_Motor/libraries/sdk/Startup/system_ch32v30x.c:746
  __IO uint32_t StartUpCounter = 0, HSEStatus = 0;
    2b9e:	fe042623          	sw	zero,-20(s0)
    2ba2:	fe042423          	sw	zero,-24(s0)
D:/projects/mechanical_arm/Ctrl_Stepper_Motor/libraries/sdk/Startup/system_ch32v30x.c:748

  RCC->CTLR |= ((uint32_t)RCC_HSEON);
    2ba6:	400217b7          	lui	a5,0x40021
    2baa:	4394                	lw	a3,0(a5)
    2bac:	400217b7          	lui	a5,0x40021
    2bb0:	6741                	lui	a4,0x10
    2bb2:	8f55                	or	a4,a4,a3
    2bb4:	c398                	sw	a4,0(a5)
D:/projects/mechanical_arm/Ctrl_Stepper_Motor/libraries/sdk/Startup/system_ch32v30x.c:753 (discriminator 2)

  /* Wait till HSE is ready and if Time out is reached exit */
  do
  {
    HSEStatus = RCC->CTLR & RCC_HSERDY;
    2bb6:	400217b7          	lui	a5,0x40021
    2bba:	4398                	lw	a4,0(a5)
    2bbc:	000207b7          	lui	a5,0x20
    2bc0:	8ff9                	and	a5,a5,a4
    2bc2:	fef42423          	sw	a5,-24(s0)
D:/projects/mechanical_arm/Ctrl_Stepper_Motor/libraries/sdk/Startup/system_ch32v30x.c:754 (discriminator 2)
    StartUpCounter++;
    2bc6:	fec42783          	lw	a5,-20(s0)
    2bca:	0785                	addi	a5,a5,1
    2bcc:	fef42623          	sw	a5,-20(s0)
D:/projects/mechanical_arm/Ctrl_Stepper_Motor/libraries/sdk/Startup/system_ch32v30x.c:755 (discriminator 2)
  } while((HSEStatus == 0) && (StartUpCounter != HSE_STARTUP_TIMEOUT));
    2bd0:	fe842783          	lw	a5,-24(s0)
    2bd4:	e799                	bnez	a5,2be2 <SetSysClockTo144+0x4a>
D:/projects/mechanical_arm/Ctrl_Stepper_Motor/libraries/sdk/Startup/system_ch32v30x.c:755 (discriminator 1)
    2bd6:	fec42703          	lw	a4,-20(s0)
    2bda:	50000793          	li	a5,1280
    2bde:	fcf71ce3          	bne	a4,a5,2bb6 <SetSysClockTo144+0x1e>
D:/projects/mechanical_arm/Ctrl_Stepper_Motor/libraries/sdk/Startup/system_ch32v30x.c:757

  if ((RCC->CTLR & RCC_HSERDY) != RESET)
    2be2:	400217b7          	lui	a5,0x40021
    2be6:	4398                	lw	a4,0(a5)
    2be8:	000207b7          	lui	a5,0x20
    2bec:	8ff9                	and	a5,a5,a4
    2bee:	c789                	beqz	a5,2bf8 <SetSysClockTo144+0x60>
D:/projects/mechanical_arm/Ctrl_Stepper_Motor/libraries/sdk/Startup/system_ch32v30x.c:759
  {
    HSEStatus = (uint32_t)0x01;
    2bf0:	4785                	li	a5,1
    2bf2:	fef42423          	sw	a5,-24(s0)
    2bf6:	a019                	j	2bfc <SetSysClockTo144+0x64>
D:/projects/mechanical_arm/Ctrl_Stepper_Motor/libraries/sdk/Startup/system_ch32v30x.c:763
  }
  else
  {
    HSEStatus = (uint32_t)0x00;
    2bf8:	fe042423          	sw	zero,-24(s0)
D:/projects/mechanical_arm/Ctrl_Stepper_Motor/libraries/sdk/Startup/system_ch32v30x.c:766
  }

  if (HSEStatus == (uint32_t)0x01)
    2bfc:	fe842703          	lw	a4,-24(s0)
    2c00:	4785                	li	a5,1
    2c02:	0ef71863          	bne	a4,a5,2cf2 <SetSysClockTo144+0x15a>
D:/projects/mechanical_arm/Ctrl_Stepper_Motor/libraries/sdk/Startup/system_ch32v30x.c:769
  {
    /* Enable Prefetch Buffer */
    FLASH->ACTLR |= FLASH_ACTLR_PRFTBE;
    2c06:	400227b7          	lui	a5,0x40022
    2c0a:	4398                	lw	a4,0(a5)
    2c0c:	400227b7          	lui	a5,0x40022
    2c10:	01076713          	ori	a4,a4,16
    2c14:	c398                	sw	a4,0(a5)
D:/projects/mechanical_arm/Ctrl_Stepper_Motor/libraries/sdk/Startup/system_ch32v30x.c:772

    /* Flash 2 wait state */
    FLASH->ACTLR &= (uint32_t)((uint32_t)~FLASH_ACTLR_LATENCY);
    2c16:	400227b7          	lui	a5,0x40022
    2c1a:	4398                	lw	a4,0(a5)
    2c1c:	400227b7          	lui	a5,0x40022
    2c20:	9b71                	andi	a4,a4,-4
    2c22:	c398                	sw	a4,0(a5)
D:/projects/mechanical_arm/Ctrl_Stepper_Motor/libraries/sdk/Startup/system_ch32v30x.c:773
    FLASH->ACTLR |= (uint32_t)FLASH_ACTLR_LATENCY_2;
    2c24:	400227b7          	lui	a5,0x40022
    2c28:	4398                	lw	a4,0(a5)
    2c2a:	400227b7          	lui	a5,0x40022
    2c2e:	00276713          	ori	a4,a4,2
    2c32:	c398                	sw	a4,0(a5)
D:/projects/mechanical_arm/Ctrl_Stepper_Motor/libraries/sdk/Startup/system_ch32v30x.c:776

    /* HCLK = SYSCLK */
    RCC->CFGR0 |= (uint32_t)RCC_HPRE_DIV1;
    2c34:	40021737          	lui	a4,0x40021
    2c38:	400217b7          	lui	a5,0x40021
    2c3c:	4358                	lw	a4,4(a4)
    2c3e:	c3d8                	sw	a4,4(a5)
D:/projects/mechanical_arm/Ctrl_Stepper_Motor/libraries/sdk/Startup/system_ch32v30x.c:778
    /* PCLK2 = HCLK */
    RCC->CFGR0 |= (uint32_t)RCC_PPRE2_DIV1;
    2c40:	40021737          	lui	a4,0x40021
    2c44:	400217b7          	lui	a5,0x40021
    2c48:	4358                	lw	a4,4(a4)
    2c4a:	c3d8                	sw	a4,4(a5)
D:/projects/mechanical_arm/Ctrl_Stepper_Motor/libraries/sdk/Startup/system_ch32v30x.c:780
    /* PCLK1 = HCLK */
    RCC->CFGR0 |= (uint32_t)RCC_PPRE1_DIV1;
    2c4c:	40021737          	lui	a4,0x40021
    2c50:	400217b7          	lui	a5,0x40021
    2c54:	4358                	lw	a4,4(a4)
    2c56:	c3d8                	sw	a4,4(a5)
D:/projects/mechanical_arm/Ctrl_Stepper_Motor/libraries/sdk/Startup/system_ch32v30x.c:783

    /*  PLL configuration: PLLCLK = HSE * 18 = 144 MHz */
    RCC->CFGR0 &= (uint32_t)((uint32_t)~(RCC_PLLSRC | RCC_PLLXTPRE |
    2c58:	400217b7          	lui	a5,0x40021
    2c5c:	43d4                	lw	a3,4(a5)
    2c5e:	400217b7          	lui	a5,0x40021
    2c62:	ffc10737          	lui	a4,0xffc10
    2c66:	177d                	addi	a4,a4,-1
    2c68:	8f75                	and	a4,a4,a3
    2c6a:	c3d8                	sw	a4,4(a5)
D:/projects/mechanical_arm/Ctrl_Stepper_Motor/libraries/sdk/Startup/system_ch32v30x.c:786
                                        RCC_PLLMULL));

    if(((*(uint32_t*)0x1FFFF70C) & (1<<14)) != (1<<14)){
    2c6c:	1ffff7b7          	lui	a5,0x1ffff
    2c70:	70c78793          	addi	a5,a5,1804 # 1ffff70c <_data_lma+0x1fff5028>
    2c74:	4398                	lw	a4,0(a5)
    2c76:	6791                	lui	a5,0x4
    2c78:	8ff9                	and	a5,a5,a4
    2c7a:	eb99                	bnez	a5,2c90 <SetSysClockTo144+0xf8>
D:/projects/mechanical_arm/Ctrl_Stepper_Motor/libraries/sdk/Startup/system_ch32v30x.c:787
        RCC->CFGR0 |= (uint32_t)(RCC_PLLSRC_HSE | RCC_PLLXTPRE_HSE | RCC_PLLMULL18);
    2c7c:	400217b7          	lui	a5,0x40021
    2c80:	43d4                	lw	a3,4(a5)
    2c82:	400217b7          	lui	a5,0x40021
    2c86:	003d0737          	lui	a4,0x3d0
    2c8a:	8f55                	or	a4,a4,a3
    2c8c:	c3d8                	sw	a4,4(a5)
    2c8e:	a809                	j	2ca0 <SetSysClockTo144+0x108>
D:/projects/mechanical_arm/Ctrl_Stepper_Motor/libraries/sdk/Startup/system_ch32v30x.c:790
    }
    else{
        RCC->CFGR0 |= (uint32_t)(RCC_PLLSRC_HSE | RCC_PLLXTPRE_HSE | RCC_PLLMULL18_EXTEN);
    2c90:	400217b7          	lui	a5,0x40021
    2c94:	43d4                	lw	a3,4(a5)
    2c96:	400217b7          	lui	a5,0x40021
    2c9a:	6741                	lui	a4,0x10
    2c9c:	8f55                	or	a4,a4,a3
    2c9e:	c3d8                	sw	a4,4(a5)
D:/projects/mechanical_arm/Ctrl_Stepper_Motor/libraries/sdk/Startup/system_ch32v30x.c:794
    }

    /* Enable PLL */
    RCC->CTLR |= RCC_PLLON;
    2ca0:	400217b7          	lui	a5,0x40021
    2ca4:	4394                	lw	a3,0(a5)
    2ca6:	400217b7          	lui	a5,0x40021
    2caa:	01000737          	lui	a4,0x1000
    2cae:	8f55                	or	a4,a4,a3
    2cb0:	c398                	sw	a4,0(a5)
D:/projects/mechanical_arm/Ctrl_Stepper_Motor/libraries/sdk/Startup/system_ch32v30x.c:796
    /* Wait till PLL is ready */
    while((RCC->CTLR & RCC_PLLRDY) == 0)
    2cb2:	0001                	nop
D:/projects/mechanical_arm/Ctrl_Stepper_Motor/libraries/sdk/Startup/system_ch32v30x.c:796 (discriminator 1)
    2cb4:	400217b7          	lui	a5,0x40021
    2cb8:	4398                	lw	a4,0(a5)
    2cba:	020007b7          	lui	a5,0x2000
    2cbe:	8ff9                	and	a5,a5,a4
    2cc0:	dbf5                	beqz	a5,2cb4 <SetSysClockTo144+0x11c>
D:/projects/mechanical_arm/Ctrl_Stepper_Motor/libraries/sdk/Startup/system_ch32v30x.c:800
    {
    }
    /* Select PLL as system clock source */
    RCC->CFGR0 &= (uint32_t)((uint32_t)~(RCC_SW));
    2cc2:	400217b7          	lui	a5,0x40021
    2cc6:	43d8                	lw	a4,4(a5)
    2cc8:	400217b7          	lui	a5,0x40021
    2ccc:	9b71                	andi	a4,a4,-4
    2cce:	c3d8                	sw	a4,4(a5)
D:/projects/mechanical_arm/Ctrl_Stepper_Motor/libraries/sdk/Startup/system_ch32v30x.c:801
    RCC->CFGR0 |= (uint32_t)RCC_SW_PLL;
    2cd0:	400217b7          	lui	a5,0x40021
    2cd4:	43d8                	lw	a4,4(a5)
    2cd6:	400217b7          	lui	a5,0x40021
    2cda:	00276713          	ori	a4,a4,2
    2cde:	c3d8                	sw	a4,4(a5)
D:/projects/mechanical_arm/Ctrl_Stepper_Motor/libraries/sdk/Startup/system_ch32v30x.c:803
    /* Wait till PLL is used as system clock source */
    while ((RCC->CFGR0 & (uint32_t)RCC_SWS) != (uint32_t)0x08)
    2ce0:	0001                	nop
D:/projects/mechanical_arm/Ctrl_Stepper_Motor/libraries/sdk/Startup/system_ch32v30x.c:803 (discriminator 1)
    2ce2:	400217b7          	lui	a5,0x40021
    2ce6:	43dc                	lw	a5,4(a5)
    2ce8:	00c7f713          	andi	a4,a5,12
    2cec:	47a1                	li	a5,8
    2cee:	fef71ae3          	bne	a4,a5,2ce2 <SetSysClockTo144+0x14a>
D:/projects/mechanical_arm/Ctrl_Stepper_Motor/libraries/sdk/Startup/system_ch32v30x.c:814
        /*
         * If HSE fails to start-up, the application will have wrong clock
     * configuration. User can add here some code to deal with this error
         */
  }
}
    2cf2:	0001                	nop
    2cf4:	4472                	lw	s0,28(sp)
    2cf6:	6105                	addi	sp,sp,32
    2cf8:	8082                	ret

00002cfa <EXTI_GetITStatus>:
EXTI_GetITStatus():
D:/projects/mechanical_arm/Ctrl_Stepper_Motor/libraries/sdk/Peripheral/ch32v30x_exti.c:131
* Description    : Checks whether the specified EXTI line is asserted or not.
* Input          : EXTI_Line: specifies the EXTI lines to be enabled or disabled.
* Return         : The new state of EXTI_Line (SET or RESET).
*********************************************************************************/	
ITStatus EXTI_GetITStatus(uint32_t EXTI_Line)
{
    2cfa:	7179                	addi	sp,sp,-48
    2cfc:	d622                	sw	s0,44(sp)
    2cfe:	1800                	addi	s0,sp,48
    2d00:	fca42e23          	sw	a0,-36(s0)
D:/projects/mechanical_arm/Ctrl_Stepper_Motor/libraries/sdk/Peripheral/ch32v30x_exti.c:132
  ITStatus bitstatus = RESET;
    2d04:	fe042623          	sw	zero,-20(s0)
D:/projects/mechanical_arm/Ctrl_Stepper_Motor/libraries/sdk/Peripheral/ch32v30x_exti.c:133
  uint32_t enablestatus = 0;
    2d08:	fe042423          	sw	zero,-24(s0)
D:/projects/mechanical_arm/Ctrl_Stepper_Motor/libraries/sdk/Peripheral/ch32v30x_exti.c:135
  
  enablestatus =  EXTI->INTENR & EXTI_Line;
    2d0c:	400107b7          	lui	a5,0x40010
    2d10:	40078793          	addi	a5,a5,1024 # 40010400 <_eusrstack+0x20000400>
    2d14:	439c                	lw	a5,0(a5)
    2d16:	fdc42703          	lw	a4,-36(s0)
    2d1a:	8ff9                	and	a5,a5,a4
    2d1c:	fef42423          	sw	a5,-24(s0)
D:/projects/mechanical_arm/Ctrl_Stepper_Motor/libraries/sdk/Peripheral/ch32v30x_exti.c:136
  if (((EXTI->INTFR & EXTI_Line) != (uint32_t)RESET) && (enablestatus != (uint32_t)RESET))
    2d20:	400107b7          	lui	a5,0x40010
    2d24:	40078793          	addi	a5,a5,1024 # 40010400 <_eusrstack+0x20000400>
    2d28:	4bd8                	lw	a4,20(a5)
    2d2a:	fdc42783          	lw	a5,-36(s0)
    2d2e:	8ff9                	and	a5,a5,a4
    2d30:	cb81                	beqz	a5,2d40 <EXTI_GetITStatus+0x46>
D:/projects/mechanical_arm/Ctrl_Stepper_Motor/libraries/sdk/Peripheral/ch32v30x_exti.c:136 (discriminator 1)
    2d32:	fe842783          	lw	a5,-24(s0)
    2d36:	c789                	beqz	a5,2d40 <EXTI_GetITStatus+0x46>
D:/projects/mechanical_arm/Ctrl_Stepper_Motor/libraries/sdk/Peripheral/ch32v30x_exti.c:138
  {
    bitstatus = SET;
    2d38:	4785                	li	a5,1
    2d3a:	fef42623          	sw	a5,-20(s0)
    2d3e:	a019                	j	2d44 <EXTI_GetITStatus+0x4a>
D:/projects/mechanical_arm/Ctrl_Stepper_Motor/libraries/sdk/Peripheral/ch32v30x_exti.c:142
  }
  else
  {
    bitstatus = RESET;
    2d40:	fe042623          	sw	zero,-20(s0)
D:/projects/mechanical_arm/Ctrl_Stepper_Motor/libraries/sdk/Peripheral/ch32v30x_exti.c:144
  }
  return bitstatus;
    2d44:	fec42783          	lw	a5,-20(s0)
D:/projects/mechanical_arm/Ctrl_Stepper_Motor/libraries/sdk/Peripheral/ch32v30x_exti.c:145
}
    2d48:	853e                	mv	a0,a5
    2d4a:	5432                	lw	s0,44(sp)
    2d4c:	6145                	addi	sp,sp,48
    2d4e:	8082                	ret

00002d50 <EXTI_ClearITPendingBit>:
EXTI_ClearITPendingBit():
D:/projects/mechanical_arm/Ctrl_Stepper_Motor/libraries/sdk/Peripheral/ch32v30x_exti.c:154
* Description    : Clears the EXTI's line pending bits.
* Input          : EXTI_Line: specifies the EXTI lines to be enabled or disabled.
* Return         : None
*********************************************************************************/
void EXTI_ClearITPendingBit(uint32_t EXTI_Line)
{  
    2d50:	1101                	addi	sp,sp,-32
    2d52:	ce22                	sw	s0,28(sp)
    2d54:	1000                	addi	s0,sp,32
    2d56:	fea42623          	sw	a0,-20(s0)
D:/projects/mechanical_arm/Ctrl_Stepper_Motor/libraries/sdk/Peripheral/ch32v30x_exti.c:155
  EXTI->INTFR = EXTI_Line;
    2d5a:	400107b7          	lui	a5,0x40010
    2d5e:	40078793          	addi	a5,a5,1024 # 40010400 <_eusrstack+0x20000400>
    2d62:	fec42703          	lw	a4,-20(s0)
    2d66:	cbd8                	sw	a4,20(a5)
D:/projects/mechanical_arm/Ctrl_Stepper_Motor/libraries/sdk/Peripheral/ch32v30x_exti.c:156
}
    2d68:	0001                	nop
    2d6a:	4472                	lw	s0,28(sp)
    2d6c:	6105                	addi	sp,sp,32
    2d6e:	8082                	ret

00002d70 <GPIO_Init>:
GPIO_Init():
D:/projects/mechanical_arm/Ctrl_Stepper_Motor/libraries/sdk/Peripheral/ch32v30x_gpio.c:88
* Input          : GPIO_InitStruct: pointer to a GPIO_InitTypeDef structure that
*      contains the configuration information for the specified GPIO peripheral.
* Return         : None
*******************************************************************************/
void GPIO_Init(GPIO_TypeDef* GPIOx, GPIO_InitTypeDef* GPIO_InitStruct)
{
    2d70:	7139                	addi	sp,sp,-64
    2d72:	de22                	sw	s0,60(sp)
    2d74:	0080                	addi	s0,sp,64
    2d76:	fca42623          	sw	a0,-52(s0)
    2d7a:	fcb42423          	sw	a1,-56(s0)
D:/projects/mechanical_arm/Ctrl_Stepper_Motor/libraries/sdk/Peripheral/ch32v30x_gpio.c:89
  uint32_t currentmode = 0x00, currentpin = 0x00, pinpos = 0x00, pos = 0x00;
    2d7e:	fe042623          	sw	zero,-20(s0)
    2d82:	fe042023          	sw	zero,-32(s0)
    2d86:	fe042423          	sw	zero,-24(s0)
    2d8a:	fc042e23          	sw	zero,-36(s0)
D:/projects/mechanical_arm/Ctrl_Stepper_Motor/libraries/sdk/Peripheral/ch32v30x_gpio.c:90
  uint32_t tmpreg = 0x00, pinmask = 0x00;
    2d8e:	fe042223          	sw	zero,-28(s0)
    2d92:	fc042c23          	sw	zero,-40(s0)
D:/projects/mechanical_arm/Ctrl_Stepper_Motor/libraries/sdk/Peripheral/ch32v30x_gpio.c:92

  currentmode = ((uint32_t)GPIO_InitStruct->GPIO_Mode) & ((uint32_t)0x0F);
    2d96:	fc842783          	lw	a5,-56(s0)
    2d9a:	479c                	lw	a5,8(a5)
    2d9c:	8bbd                	andi	a5,a5,15
    2d9e:	fef42623          	sw	a5,-20(s0)
D:/projects/mechanical_arm/Ctrl_Stepper_Motor/libraries/sdk/Peripheral/ch32v30x_gpio.c:94
	
  if ((((uint32_t)GPIO_InitStruct->GPIO_Mode) & ((uint32_t)0x10)) != 0x00)
    2da2:	fc842783          	lw	a5,-56(s0)
    2da6:	479c                	lw	a5,8(a5)
    2da8:	8bc1                	andi	a5,a5,16
    2daa:	cb89                	beqz	a5,2dbc <GPIO_Init+0x4c>
D:/projects/mechanical_arm/Ctrl_Stepper_Motor/libraries/sdk/Peripheral/ch32v30x_gpio.c:96
  { 
    currentmode |= (uint32_t)GPIO_InitStruct->GPIO_Speed;
    2dac:	fc842783          	lw	a5,-56(s0)
    2db0:	43dc                	lw	a5,4(a5)
    2db2:	fec42703          	lw	a4,-20(s0)
    2db6:	8fd9                	or	a5,a5,a4
    2db8:	fef42623          	sw	a5,-20(s0)
D:/projects/mechanical_arm/Ctrl_Stepper_Motor/libraries/sdk/Peripheral/ch32v30x_gpio.c:99
  }

  if (((uint32_t)GPIO_InitStruct->GPIO_Pin & ((uint32_t)0x00FF)) != 0x00)
    2dbc:	fc842783          	lw	a5,-56(s0)
    2dc0:	0007d783          	lhu	a5,0(a5)
    2dc4:	0ff7f793          	andi	a5,a5,255
    2dc8:	cff1                	beqz	a5,2ea4 <GPIO_Init+0x134>
D:/projects/mechanical_arm/Ctrl_Stepper_Motor/libraries/sdk/Peripheral/ch32v30x_gpio.c:101
  {
    tmpreg = GPIOx->CFGLR;
    2dca:	fcc42783          	lw	a5,-52(s0)
    2dce:	439c                	lw	a5,0(a5)
    2dd0:	fef42223          	sw	a5,-28(s0)
D:/projects/mechanical_arm/Ctrl_Stepper_Motor/libraries/sdk/Peripheral/ch32v30x_gpio.c:103
		
    for (pinpos = 0x00; pinpos < 0x08; pinpos++)
    2dd4:	fe042423          	sw	zero,-24(s0)
    2dd8:	a865                	j	2e90 <GPIO_Init+0x120>
D:/projects/mechanical_arm/Ctrl_Stepper_Motor/libraries/sdk/Peripheral/ch32v30x_gpio.c:105
    {
      pos = ((uint32_t)0x01) << pinpos;
    2dda:	fe842783          	lw	a5,-24(s0)
    2dde:	4705                	li	a4,1
    2de0:	00f717b3          	sll	a5,a4,a5
    2de4:	fcf42e23          	sw	a5,-36(s0)
D:/projects/mechanical_arm/Ctrl_Stepper_Motor/libraries/sdk/Peripheral/ch32v30x_gpio.c:106
      currentpin = (GPIO_InitStruct->GPIO_Pin) & pos;
    2de8:	fc842783          	lw	a5,-56(s0)
    2dec:	0007d783          	lhu	a5,0(a5)
    2df0:	873e                	mv	a4,a5
    2df2:	fdc42783          	lw	a5,-36(s0)
    2df6:	8ff9                	and	a5,a5,a4
    2df8:	fef42023          	sw	a5,-32(s0)
D:/projects/mechanical_arm/Ctrl_Stepper_Motor/libraries/sdk/Peripheral/ch32v30x_gpio.c:108
			
      if (currentpin == pos)
    2dfc:	fe042703          	lw	a4,-32(s0)
    2e00:	fdc42783          	lw	a5,-36(s0)
    2e04:	08f71163          	bne	a4,a5,2e86 <GPIO_Init+0x116>
D:/projects/mechanical_arm/Ctrl_Stepper_Motor/libraries/sdk/Peripheral/ch32v30x_gpio.c:110
      {
        pos = pinpos << 2;
    2e08:	fe842783          	lw	a5,-24(s0)
    2e0c:	078a                	slli	a5,a5,0x2
    2e0e:	fcf42e23          	sw	a5,-36(s0)
D:/projects/mechanical_arm/Ctrl_Stepper_Motor/libraries/sdk/Peripheral/ch32v30x_gpio.c:111
        pinmask = ((uint32_t)0x0F) << pos;
    2e12:	fdc42783          	lw	a5,-36(s0)
    2e16:	473d                	li	a4,15
    2e18:	00f717b3          	sll	a5,a4,a5
    2e1c:	fcf42c23          	sw	a5,-40(s0)
D:/projects/mechanical_arm/Ctrl_Stepper_Motor/libraries/sdk/Peripheral/ch32v30x_gpio.c:112
        tmpreg &= ~pinmask;
    2e20:	fd842783          	lw	a5,-40(s0)
    2e24:	fff7c793          	not	a5,a5
    2e28:	fe442703          	lw	a4,-28(s0)
    2e2c:	8ff9                	and	a5,a5,a4
    2e2e:	fef42223          	sw	a5,-28(s0)
D:/projects/mechanical_arm/Ctrl_Stepper_Motor/libraries/sdk/Peripheral/ch32v30x_gpio.c:113
        tmpreg |= (currentmode << pos);
    2e32:	fdc42783          	lw	a5,-36(s0)
    2e36:	fec42703          	lw	a4,-20(s0)
    2e3a:	00f717b3          	sll	a5,a4,a5
    2e3e:	fe442703          	lw	a4,-28(s0)
    2e42:	8fd9                	or	a5,a5,a4
    2e44:	fef42223          	sw	a5,-28(s0)
D:/projects/mechanical_arm/Ctrl_Stepper_Motor/libraries/sdk/Peripheral/ch32v30x_gpio.c:115

        if (GPIO_InitStruct->GPIO_Mode == GPIO_Mode_IPD)
    2e48:	fc842783          	lw	a5,-56(s0)
    2e4c:	4798                	lw	a4,8(a5)
    2e4e:	02800793          	li	a5,40
    2e52:	00f71b63          	bne	a4,a5,2e68 <GPIO_Init+0xf8>
D:/projects/mechanical_arm/Ctrl_Stepper_Motor/libraries/sdk/Peripheral/ch32v30x_gpio.c:117
        {
          GPIOx->BCR = (((uint32_t)0x01) << pinpos);
    2e56:	fe842783          	lw	a5,-24(s0)
    2e5a:	4705                	li	a4,1
    2e5c:	00f71733          	sll	a4,a4,a5
    2e60:	fcc42783          	lw	a5,-52(s0)
    2e64:	cbd8                	sw	a4,20(a5)
    2e66:	a005                	j	2e86 <GPIO_Init+0x116>
D:/projects/mechanical_arm/Ctrl_Stepper_Motor/libraries/sdk/Peripheral/ch32v30x_gpio.c:121
        }
        else
        {
          if (GPIO_InitStruct->GPIO_Mode == GPIO_Mode_IPU)
    2e68:	fc842783          	lw	a5,-56(s0)
    2e6c:	4798                	lw	a4,8(a5)
    2e6e:	04800793          	li	a5,72
    2e72:	00f71a63          	bne	a4,a5,2e86 <GPIO_Init+0x116>
D:/projects/mechanical_arm/Ctrl_Stepper_Motor/libraries/sdk/Peripheral/ch32v30x_gpio.c:123
          {
            GPIOx->BSHR = (((uint32_t)0x01) << pinpos);
    2e76:	fe842783          	lw	a5,-24(s0)
    2e7a:	4705                	li	a4,1
    2e7c:	00f71733          	sll	a4,a4,a5
    2e80:	fcc42783          	lw	a5,-52(s0)
    2e84:	cb98                	sw	a4,16(a5)
D:/projects/mechanical_arm/Ctrl_Stepper_Motor/libraries/sdk/Peripheral/ch32v30x_gpio.c:103 (discriminator 2)
    for (pinpos = 0x00; pinpos < 0x08; pinpos++)
    2e86:	fe842783          	lw	a5,-24(s0)
    2e8a:	0785                	addi	a5,a5,1
    2e8c:	fef42423          	sw	a5,-24(s0)
D:/projects/mechanical_arm/Ctrl_Stepper_Motor/libraries/sdk/Peripheral/ch32v30x_gpio.c:103 (discriminator 1)
    2e90:	fe842703          	lw	a4,-24(s0)
    2e94:	479d                	li	a5,7
    2e96:	f4e7f2e3          	bgeu	a5,a4,2dda <GPIO_Init+0x6a>
D:/projects/mechanical_arm/Ctrl_Stepper_Motor/libraries/sdk/Peripheral/ch32v30x_gpio.c:128
          }
        }
      }
    }
    GPIOx->CFGLR = tmpreg;
    2e9a:	fcc42783          	lw	a5,-52(s0)
    2e9e:	fe442703          	lw	a4,-28(s0)
    2ea2:	c398                	sw	a4,0(a5)
D:/projects/mechanical_arm/Ctrl_Stepper_Motor/libraries/sdk/Peripheral/ch32v30x_gpio.c:131
  }

  if (GPIO_InitStruct->GPIO_Pin > 0x00FF)
    2ea4:	fc842783          	lw	a5,-56(s0)
    2ea8:	0007d703          	lhu	a4,0(a5)
    2eac:	0ff00793          	li	a5,255
    2eb0:	0ee7f163          	bgeu	a5,a4,2f92 <GPIO_Init+0x222>
D:/projects/mechanical_arm/Ctrl_Stepper_Motor/libraries/sdk/Peripheral/ch32v30x_gpio.c:133
  {
    tmpreg = GPIOx->CFGHR;
    2eb4:	fcc42783          	lw	a5,-52(s0)
    2eb8:	43dc                	lw	a5,4(a5)
    2eba:	fef42223          	sw	a5,-28(s0)
D:/projects/mechanical_arm/Ctrl_Stepper_Motor/libraries/sdk/Peripheral/ch32v30x_gpio.c:135
		
    for (pinpos = 0x00; pinpos < 0x08; pinpos++)
    2ebe:	fe042423          	sw	zero,-24(s0)
    2ec2:	a875                	j	2f7e <GPIO_Init+0x20e>
D:/projects/mechanical_arm/Ctrl_Stepper_Motor/libraries/sdk/Peripheral/ch32v30x_gpio.c:137
    {
      pos = (((uint32_t)0x01) << (pinpos + 0x08));
    2ec4:	fe842783          	lw	a5,-24(s0)
    2ec8:	07a1                	addi	a5,a5,8
    2eca:	4705                	li	a4,1
    2ecc:	00f717b3          	sll	a5,a4,a5
    2ed0:	fcf42e23          	sw	a5,-36(s0)
D:/projects/mechanical_arm/Ctrl_Stepper_Motor/libraries/sdk/Peripheral/ch32v30x_gpio.c:138
      currentpin = ((GPIO_InitStruct->GPIO_Pin) & pos);
    2ed4:	fc842783          	lw	a5,-56(s0)
    2ed8:	0007d783          	lhu	a5,0(a5)
    2edc:	873e                	mv	a4,a5
    2ede:	fdc42783          	lw	a5,-36(s0)
    2ee2:	8ff9                	and	a5,a5,a4
    2ee4:	fef42023          	sw	a5,-32(s0)
D:/projects/mechanical_arm/Ctrl_Stepper_Motor/libraries/sdk/Peripheral/ch32v30x_gpio.c:140
			
      if (currentpin == pos)
    2ee8:	fe042703          	lw	a4,-32(s0)
    2eec:	fdc42783          	lw	a5,-36(s0)
    2ef0:	08f71263          	bne	a4,a5,2f74 <GPIO_Init+0x204>
D:/projects/mechanical_arm/Ctrl_Stepper_Motor/libraries/sdk/Peripheral/ch32v30x_gpio.c:142
      {
        pos = pinpos << 2;
    2ef4:	fe842783          	lw	a5,-24(s0)
    2ef8:	078a                	slli	a5,a5,0x2
    2efa:	fcf42e23          	sw	a5,-36(s0)
D:/projects/mechanical_arm/Ctrl_Stepper_Motor/libraries/sdk/Peripheral/ch32v30x_gpio.c:143
        pinmask = ((uint32_t)0x0F) << pos;
    2efe:	fdc42783          	lw	a5,-36(s0)
    2f02:	473d                	li	a4,15
    2f04:	00f717b3          	sll	a5,a4,a5
    2f08:	fcf42c23          	sw	a5,-40(s0)
D:/projects/mechanical_arm/Ctrl_Stepper_Motor/libraries/sdk/Peripheral/ch32v30x_gpio.c:144
        tmpreg &= ~pinmask;
    2f0c:	fd842783          	lw	a5,-40(s0)
    2f10:	fff7c793          	not	a5,a5
    2f14:	fe442703          	lw	a4,-28(s0)
    2f18:	8ff9                	and	a5,a5,a4
    2f1a:	fef42223          	sw	a5,-28(s0)
D:/projects/mechanical_arm/Ctrl_Stepper_Motor/libraries/sdk/Peripheral/ch32v30x_gpio.c:145
        tmpreg |= (currentmode << pos);
    2f1e:	fdc42783          	lw	a5,-36(s0)
    2f22:	fec42703          	lw	a4,-20(s0)
    2f26:	00f717b3          	sll	a5,a4,a5
    2f2a:	fe442703          	lw	a4,-28(s0)
    2f2e:	8fd9                	or	a5,a5,a4
    2f30:	fef42223          	sw	a5,-28(s0)
D:/projects/mechanical_arm/Ctrl_Stepper_Motor/libraries/sdk/Peripheral/ch32v30x_gpio.c:147

        if (GPIO_InitStruct->GPIO_Mode == GPIO_Mode_IPD)
    2f34:	fc842783          	lw	a5,-56(s0)
    2f38:	4798                	lw	a4,8(a5)
    2f3a:	02800793          	li	a5,40
    2f3e:	00f71b63          	bne	a4,a5,2f54 <GPIO_Init+0x1e4>
D:/projects/mechanical_arm/Ctrl_Stepper_Motor/libraries/sdk/Peripheral/ch32v30x_gpio.c:149
        {
          GPIOx->BCR = (((uint32_t)0x01) << (pinpos + 0x08));
    2f42:	fe842783          	lw	a5,-24(s0)
    2f46:	07a1                	addi	a5,a5,8
    2f48:	4705                	li	a4,1
    2f4a:	00f71733          	sll	a4,a4,a5
    2f4e:	fcc42783          	lw	a5,-52(s0)
    2f52:	cbd8                	sw	a4,20(a5)
D:/projects/mechanical_arm/Ctrl_Stepper_Motor/libraries/sdk/Peripheral/ch32v30x_gpio.c:152
        }

        if (GPIO_InitStruct->GPIO_Mode == GPIO_Mode_IPU)
    2f54:	fc842783          	lw	a5,-56(s0)
    2f58:	4798                	lw	a4,8(a5)
    2f5a:	04800793          	li	a5,72
    2f5e:	00f71b63          	bne	a4,a5,2f74 <GPIO_Init+0x204>
D:/projects/mechanical_arm/Ctrl_Stepper_Motor/libraries/sdk/Peripheral/ch32v30x_gpio.c:154
        {
          GPIOx->BSHR = (((uint32_t)0x01) << (pinpos + 0x08));
    2f62:	fe842783          	lw	a5,-24(s0)
    2f66:	07a1                	addi	a5,a5,8
    2f68:	4705                	li	a4,1
    2f6a:	00f71733          	sll	a4,a4,a5
    2f6e:	fcc42783          	lw	a5,-52(s0)
    2f72:	cb98                	sw	a4,16(a5)
D:/projects/mechanical_arm/Ctrl_Stepper_Motor/libraries/sdk/Peripheral/ch32v30x_gpio.c:135 (discriminator 2)
    for (pinpos = 0x00; pinpos < 0x08; pinpos++)
    2f74:	fe842783          	lw	a5,-24(s0)
    2f78:	0785                	addi	a5,a5,1
    2f7a:	fef42423          	sw	a5,-24(s0)
D:/projects/mechanical_arm/Ctrl_Stepper_Motor/libraries/sdk/Peripheral/ch32v30x_gpio.c:135 (discriminator 1)
    2f7e:	fe842703          	lw	a4,-24(s0)
    2f82:	479d                	li	a5,7
    2f84:	f4e7f0e3          	bgeu	a5,a4,2ec4 <GPIO_Init+0x154>
D:/projects/mechanical_arm/Ctrl_Stepper_Motor/libraries/sdk/Peripheral/ch32v30x_gpio.c:158
        }
      }
    }
    GPIOx->CFGHR = tmpreg;
    2f88:	fcc42783          	lw	a5,-52(s0)
    2f8c:	fe442703          	lw	a4,-28(s0)
    2f90:	c3d8                	sw	a4,4(a5)
D:/projects/mechanical_arm/Ctrl_Stepper_Motor/libraries/sdk/Peripheral/ch32v30x_gpio.c:160
  }
}
    2f92:	0001                	nop
    2f94:	5472                	lw	s0,60(sp)
    2f96:	6121                	addi	sp,sp,64
    2f98:	8082                	ret

00002f9a <GPIO_WriteBit>:
GPIO_WriteBit():
D:/projects/mechanical_arm/Ctrl_Stepper_Motor/libraries/sdk/Peripheral/ch32v30x_gpio.c:282
*                    Bit_SetL: to clear the port pin.
*                    Bit_SetH: to set the port pin.                  
* Return         : None
*******************************************************************************/
void GPIO_WriteBit(GPIO_TypeDef* GPIOx, uint16_t GPIO_Pin, BitAction BitVal)
{
    2f9a:	1101                	addi	sp,sp,-32
    2f9c:	ce22                	sw	s0,28(sp)
    2f9e:	1000                	addi	s0,sp,32
    2fa0:	fea42623          	sw	a0,-20(s0)
    2fa4:	87ae                	mv	a5,a1
    2fa6:	fec42223          	sw	a2,-28(s0)
    2faa:	fef41523          	sh	a5,-22(s0)
D:/projects/mechanical_arm/Ctrl_Stepper_Motor/libraries/sdk/Peripheral/ch32v30x_gpio.c:283
  if (BitVal != Bit_RESET)
    2fae:	fe442783          	lw	a5,-28(s0)
    2fb2:	c799                	beqz	a5,2fc0 <GPIO_WriteBit+0x26>
D:/projects/mechanical_arm/Ctrl_Stepper_Motor/libraries/sdk/Peripheral/ch32v30x_gpio.c:285
  {
    GPIOx->BSHR = GPIO_Pin;
    2fb4:	fea45703          	lhu	a4,-22(s0)
    2fb8:	fec42783          	lw	a5,-20(s0)
    2fbc:	cb98                	sw	a4,16(a5)
D:/projects/mechanical_arm/Ctrl_Stepper_Motor/libraries/sdk/Peripheral/ch32v30x_gpio.c:291
  }
  else
  {
    GPIOx->BCR = GPIO_Pin;
  }
}
    2fbe:	a031                	j	2fca <GPIO_WriteBit+0x30>
D:/projects/mechanical_arm/Ctrl_Stepper_Motor/libraries/sdk/Peripheral/ch32v30x_gpio.c:289
    GPIOx->BCR = GPIO_Pin;
    2fc0:	fea45703          	lhu	a4,-22(s0)
    2fc4:	fec42783          	lw	a5,-20(s0)
    2fc8:	cbd8                	sw	a4,20(a5)
D:/projects/mechanical_arm/Ctrl_Stepper_Motor/libraries/sdk/Peripheral/ch32v30x_gpio.c:291
}
    2fca:	0001                	nop
    2fcc:	4472                	lw	s0,28(sp)
    2fce:	6105                	addi	sp,sp,32
    2fd0:	8082                	ret

00002fd2 <GPIO_PinRemapConfig>:
GPIO_PinRemapConfig():
D:/projects/mechanical_arm/Ctrl_Stepper_Motor/libraries/sdk/Peripheral/ch32v30x_gpio.c:402
*      only for High density Value line devices)     
*                  NewState: ENABLE or DISABLE.             
* Return         : None
*******************************************************************************/
void GPIO_PinRemapConfig(uint32_t GPIO_Remap, FunctionalState NewState)
{
    2fd2:	7179                	addi	sp,sp,-48
    2fd4:	d622                	sw	s0,44(sp)
    2fd6:	1800                	addi	s0,sp,48
    2fd8:	fca42e23          	sw	a0,-36(s0)
    2fdc:	fcb42c23          	sw	a1,-40(s0)
D:/projects/mechanical_arm/Ctrl_Stepper_Motor/libraries/sdk/Peripheral/ch32v30x_gpio.c:403
  uint32_t tmp = 0x00, tmp1 = 0x00, tmpreg = 0x00, tmpmask = 0x00;
    2fe0:	fe042423          	sw	zero,-24(s0)
    2fe4:	fe042223          	sw	zero,-28(s0)
    2fe8:	fe042623          	sw	zero,-20(s0)
    2fec:	fe042023          	sw	zero,-32(s0)
D:/projects/mechanical_arm/Ctrl_Stepper_Motor/libraries/sdk/Peripheral/ch32v30x_gpio.c:405

  if((GPIO_Remap & 0x80000000) == 0x80000000)
    2ff0:	fdc42783          	lw	a5,-36(s0)
    2ff4:	0007d863          	bgez	a5,3004 <GPIO_PinRemapConfig+0x32>
D:/projects/mechanical_arm/Ctrl_Stepper_Motor/libraries/sdk/Peripheral/ch32v30x_gpio.c:407
  {
    tmpreg = AFIO->PCFR2;
    2ff8:	400107b7          	lui	a5,0x40010
    2ffc:	4fdc                	lw	a5,28(a5)
    2ffe:	fef42623          	sw	a5,-20(s0)
    3002:	a031                	j	300e <GPIO_PinRemapConfig+0x3c>
D:/projects/mechanical_arm/Ctrl_Stepper_Motor/libraries/sdk/Peripheral/ch32v30x_gpio.c:411
  }
  else
  {
    tmpreg = AFIO->PCFR1;
    3004:	400107b7          	lui	a5,0x40010
    3008:	43dc                	lw	a5,4(a5)
    300a:	fef42623          	sw	a5,-20(s0)
D:/projects/mechanical_arm/Ctrl_Stepper_Motor/libraries/sdk/Peripheral/ch32v30x_gpio.c:414
  }

  tmpmask = (GPIO_Remap & DBGAFR_POSITION_MASK) >> 0x10;
    300e:	fdc42783          	lw	a5,-36(s0)
    3012:	83c1                	srli	a5,a5,0x10
    3014:	8bbd                	andi	a5,a5,15
    3016:	fef42023          	sw	a5,-32(s0)
D:/projects/mechanical_arm/Ctrl_Stepper_Motor/libraries/sdk/Peripheral/ch32v30x_gpio.c:415
  tmp = GPIO_Remap & LSB_MASK;
    301a:	fdc42703          	lw	a4,-36(s0)
    301e:	67c1                	lui	a5,0x10
    3020:	17fd                	addi	a5,a5,-1
    3022:	8ff9                	and	a5,a5,a4
    3024:	fef42423          	sw	a5,-24(s0)
D:/projects/mechanical_arm/Ctrl_Stepper_Motor/libraries/sdk/Peripheral/ch32v30x_gpio.c:417

  if ((GPIO_Remap & (DBGAFR_LOCATION_MASK | DBGAFR_NUMBITS_MASK)) == (DBGAFR_LOCATION_MASK | DBGAFR_NUMBITS_MASK))
    3028:	fdc42703          	lw	a4,-36(s0)
    302c:	003007b7          	lui	a5,0x300
    3030:	8f7d                	and	a4,a4,a5
    3032:	003007b7          	lui	a5,0x300
    3036:	02f71563          	bne	a4,a5,3060 <GPIO_PinRemapConfig+0x8e>
D:/projects/mechanical_arm/Ctrl_Stepper_Motor/libraries/sdk/Peripheral/ch32v30x_gpio.c:419
  {
    tmpreg &= DBGAFR_SWJCFG_MASK;
    303a:	fec42703          	lw	a4,-20(s0)
    303e:	f10007b7          	lui	a5,0xf1000
    3042:	17fd                	addi	a5,a5,-1
    3044:	8ff9                	and	a5,a5,a4
    3046:	fef42623          	sw	a5,-20(s0)
D:/projects/mechanical_arm/Ctrl_Stepper_Motor/libraries/sdk/Peripheral/ch32v30x_gpio.c:420
    AFIO->PCFR1 &= DBGAFR_SWJCFG_MASK;
    304a:	400107b7          	lui	a5,0x40010
    304e:	43d4                	lw	a3,4(a5)
    3050:	400107b7          	lui	a5,0x40010
    3054:	f1000737          	lui	a4,0xf1000
    3058:	177d                	addi	a4,a4,-1
    305a:	8f75                	and	a4,a4,a3
    305c:	c3d8                	sw	a4,4(a5)
    305e:	a0ad                	j	30c8 <GPIO_PinRemapConfig+0xf6>
D:/projects/mechanical_arm/Ctrl_Stepper_Motor/libraries/sdk/Peripheral/ch32v30x_gpio.c:422
  }
  else if ((GPIO_Remap & DBGAFR_NUMBITS_MASK) == DBGAFR_NUMBITS_MASK)
    3060:	fdc42703          	lw	a4,-36(s0)
    3064:	001007b7          	lui	a5,0x100
    3068:	8ff9                	and	a5,a5,a4
    306a:	cb8d                	beqz	a5,309c <GPIO_PinRemapConfig+0xca>
D:/projects/mechanical_arm/Ctrl_Stepper_Motor/libraries/sdk/Peripheral/ch32v30x_gpio.c:424
  {
    tmp1 = ((uint32_t)0x03) << tmpmask;
    306c:	fe042783          	lw	a5,-32(s0)
    3070:	470d                	li	a4,3
    3072:	00f717b3          	sll	a5,a4,a5
    3076:	fef42223          	sw	a5,-28(s0)
D:/projects/mechanical_arm/Ctrl_Stepper_Motor/libraries/sdk/Peripheral/ch32v30x_gpio.c:425
    tmpreg &= ~tmp1;
    307a:	fe442783          	lw	a5,-28(s0)
    307e:	fff7c793          	not	a5,a5
    3082:	fec42703          	lw	a4,-20(s0)
    3086:	8ff9                	and	a5,a5,a4
    3088:	fef42623          	sw	a5,-20(s0)
D:/projects/mechanical_arm/Ctrl_Stepper_Motor/libraries/sdk/Peripheral/ch32v30x_gpio.c:426
    tmpreg |= ~DBGAFR_SWJCFG_MASK;
    308c:	fec42703          	lw	a4,-20(s0)
    3090:	0f0007b7          	lui	a5,0xf000
    3094:	8fd9                	or	a5,a5,a4
    3096:	fef42623          	sw	a5,-20(s0)
    309a:	a03d                	j	30c8 <GPIO_PinRemapConfig+0xf6>
D:/projects/mechanical_arm/Ctrl_Stepper_Motor/libraries/sdk/Peripheral/ch32v30x_gpio.c:430
  }
  else
  {
    tmpreg &= ~(tmp << ((GPIO_Remap >> 0x15)*0x10));
    309c:	fdc42783          	lw	a5,-36(s0)
    30a0:	83d5                	srli	a5,a5,0x15
    30a2:	0792                	slli	a5,a5,0x4
    30a4:	fe842703          	lw	a4,-24(s0)
    30a8:	00f717b3          	sll	a5,a4,a5
    30ac:	fff7c793          	not	a5,a5
    30b0:	fec42703          	lw	a4,-20(s0)
    30b4:	8ff9                	and	a5,a5,a4
    30b6:	fef42623          	sw	a5,-20(s0)
D:/projects/mechanical_arm/Ctrl_Stepper_Motor/libraries/sdk/Peripheral/ch32v30x_gpio.c:431
    tmpreg |= ~DBGAFR_SWJCFG_MASK;
    30ba:	fec42703          	lw	a4,-20(s0)
    30be:	0f0007b7          	lui	a5,0xf000
    30c2:	8fd9                	or	a5,a5,a4
    30c4:	fef42623          	sw	a5,-20(s0)
D:/projects/mechanical_arm/Ctrl_Stepper_Motor/libraries/sdk/Peripheral/ch32v30x_gpio.c:434
  }

  if (NewState != DISABLE)
    30c8:	fd842783          	lw	a5,-40(s0)
    30cc:	cf91                	beqz	a5,30e8 <GPIO_PinRemapConfig+0x116>
D:/projects/mechanical_arm/Ctrl_Stepper_Motor/libraries/sdk/Peripheral/ch32v30x_gpio.c:436
  {
    tmpreg |= (tmp << ((GPIO_Remap >> 0x15)*0x10));
    30ce:	fdc42783          	lw	a5,-36(s0)
    30d2:	83d5                	srli	a5,a5,0x15
    30d4:	0792                	slli	a5,a5,0x4
    30d6:	fe842703          	lw	a4,-24(s0)
    30da:	00f717b3          	sll	a5,a4,a5
    30de:	fec42703          	lw	a4,-20(s0)
    30e2:	8fd9                	or	a5,a5,a4
    30e4:	fef42623          	sw	a5,-20(s0)
D:/projects/mechanical_arm/Ctrl_Stepper_Motor/libraries/sdk/Peripheral/ch32v30x_gpio.c:439
  }

  if((GPIO_Remap & 0x80000000) == 0x80000000)
    30e8:	fdc42783          	lw	a5,-36(s0)
    30ec:	0007d863          	bgez	a5,30fc <GPIO_PinRemapConfig+0x12a>
D:/projects/mechanical_arm/Ctrl_Stepper_Motor/libraries/sdk/Peripheral/ch32v30x_gpio.c:441
  {
    AFIO->PCFR2 = tmpreg;
    30f0:	400107b7          	lui	a5,0x40010
    30f4:	fec42703          	lw	a4,-20(s0)
    30f8:	cfd8                	sw	a4,28(a5)
D:/projects/mechanical_arm/Ctrl_Stepper_Motor/libraries/sdk/Peripheral/ch32v30x_gpio.c:447
  }
  else
  {
    AFIO->PCFR1 = tmpreg;
  }  
}
    30fa:	a031                	j	3106 <GPIO_PinRemapConfig+0x134>
D:/projects/mechanical_arm/Ctrl_Stepper_Motor/libraries/sdk/Peripheral/ch32v30x_gpio.c:445
    AFIO->PCFR1 = tmpreg;
    30fc:	400107b7          	lui	a5,0x40010
    3100:	fec42703          	lw	a4,-20(s0)
    3104:	c3d8                	sw	a4,4(a5)
D:/projects/mechanical_arm/Ctrl_Stepper_Motor/libraries/sdk/Peripheral/ch32v30x_gpio.c:447
}
    3106:	0001                	nop
    3108:	5432                	lw	s0,44(sp)
    310a:	6145                	addi	sp,sp,48
    310c:	8082                	ret

0000310e <RCC_GetClocksFreq>:
RCC_GetClocksFreq():
D:/projects/mechanical_arm/Ctrl_Stepper_Motor/libraries/sdk/Peripheral/ch32v30x_rcc.c:489
* Input          : RCC_Clocks: pointer to a RCC_ClocksTypeDef structure which will hold
*      the clocks frequencies.
* Return         : None
********************************************************************************/
void RCC_GetClocksFreq(RCC_ClocksTypeDef* RCC_Clocks)
{
    310e:	7139                	addi	sp,sp,-64
    3110:	de22                	sw	s0,60(sp)
    3112:	0080                	addi	s0,sp,64
    3114:	fca42623          	sw	a0,-52(s0)
D:/projects/mechanical_arm/Ctrl_Stepper_Motor/libraries/sdk/Peripheral/ch32v30x_rcc.c:490
    uint32_t tmp = 0, pllmull = 0, pllsource = 0, presc = 0, Pll_6_5 = 0;
    3118:	fe042223          	sw	zero,-28(s0)
    311c:	fe042623          	sw	zero,-20(s0)
    3120:	fe042023          	sw	zero,-32(s0)
    3124:	fc042e23          	sw	zero,-36(s0)
    3128:	fe042423          	sw	zero,-24(s0)
D:/projects/mechanical_arm/Ctrl_Stepper_Motor/libraries/sdk/Peripheral/ch32v30x_rcc.c:492

    tmp = RCC->CFGR0 & CFGR0_SWS_Mask;
    312c:	400217b7          	lui	a5,0x40021
    3130:	43dc                	lw	a5,4(a5)
    3132:	8bb1                	andi	a5,a5,12
    3134:	fef42223          	sw	a5,-28(s0)
    3138:	fe442703          	lw	a4,-28(s0)
    313c:	4791                	li	a5,4
    313e:	02f70363          	beq	a4,a5,3164 <RCC_GetClocksFreq+0x56>
    3142:	fe442703          	lw	a4,-28(s0)
    3146:	47a1                	li	a5,8
    3148:	02f70663          	beq	a4,a5,3174 <RCC_GetClocksFreq+0x66>
    314c:	fe442783          	lw	a5,-28(s0)
    3150:	14079963          	bnez	a5,32a2 <RCC_GetClocksFreq+0x194>
D:/projects/mechanical_arm/Ctrl_Stepper_Motor/libraries/sdk/Peripheral/ch32v30x_rcc.c:497

    switch (tmp)
    {
      case 0x00:
        RCC_Clocks->SYSCLK_Frequency = HSI_VALUE;
    3154:	fcc42783          	lw	a5,-52(s0)
    3158:	007a1737          	lui	a4,0x7a1
    315c:	20070713          	addi	a4,a4,512 # 7a1200 <_data_lma+0x796b1c>
    3160:	c398                	sw	a4,0(a5)
D:/projects/mechanical_arm/Ctrl_Stepper_Motor/libraries/sdk/Peripheral/ch32v30x_rcc.c:498
        break;
    3162:	aa89                	j	32b4 <RCC_GetClocksFreq+0x1a6>
D:/projects/mechanical_arm/Ctrl_Stepper_Motor/libraries/sdk/Peripheral/ch32v30x_rcc.c:501

      case 0x04:
        RCC_Clocks->SYSCLK_Frequency = HSE_VALUE;
    3164:	fcc42783          	lw	a5,-52(s0)
    3168:	007a1737          	lui	a4,0x7a1
    316c:	20070713          	addi	a4,a4,512 # 7a1200 <_data_lma+0x796b1c>
    3170:	c398                	sw	a4,0(a5)
D:/projects/mechanical_arm/Ctrl_Stepper_Motor/libraries/sdk/Peripheral/ch32v30x_rcc.c:502
        break;
    3172:	a289                	j	32b4 <RCC_GetClocksFreq+0x1a6>
D:/projects/mechanical_arm/Ctrl_Stepper_Motor/libraries/sdk/Peripheral/ch32v30x_rcc.c:505

      case 0x08:
        pllmull = RCC->CFGR0 & CFGR0_PLLMull_Mask;
    3174:	400217b7          	lui	a5,0x40021
    3178:	43d8                	lw	a4,4(a5)
    317a:	003c07b7          	lui	a5,0x3c0
    317e:	8ff9                	and	a5,a5,a4
    3180:	fef42623          	sw	a5,-20(s0)
D:/projects/mechanical_arm/Ctrl_Stepper_Motor/libraries/sdk/Peripheral/ch32v30x_rcc.c:506
        pllsource = RCC->CFGR0 & CFGR0_PLLSRC_Mask;
    3184:	400217b7          	lui	a5,0x40021
    3188:	43d8                	lw	a4,4(a5)
    318a:	67c1                	lui	a5,0x10
    318c:	8ff9                	and	a5,a5,a4
    318e:	fef42023          	sw	a5,-32(s0)
D:/projects/mechanical_arm/Ctrl_Stepper_Motor/libraries/sdk/Peripheral/ch32v30x_rcc.c:508

        pllmull = ( pllmull >> 18) + 2;
    3192:	fec42783          	lw	a5,-20(s0)
    3196:	83c9                	srli	a5,a5,0x12
    3198:	0789                	addi	a5,a5,2
    319a:	fef42623          	sw	a5,-20(s0)
D:/projects/mechanical_arm/Ctrl_Stepper_Motor/libraries/sdk/Peripheral/ch32v30x_rcc.c:510

        if(((*(uint32_t*)0x1FFFF70C) & (1<<14)) != (1<<14)){ /* for other CH32V30x */
    319e:	1ffff7b7          	lui	a5,0x1ffff
    31a2:	70c78793          	addi	a5,a5,1804 # 1ffff70c <_data_lma+0x1fff5028>
    31a6:	4398                	lw	a4,0(a5)
    31a8:	6791                	lui	a5,0x4
    31aa:	8ff9                	and	a5,a5,a4
    31ac:	eb91                	bnez	a5,31c0 <RCC_GetClocksFreq+0xb2>
D:/projects/mechanical_arm/Ctrl_Stepper_Motor/libraries/sdk/Peripheral/ch32v30x_rcc.c:511
            if(pllmull == 17) pllmull = 18;
    31ae:	fec42703          	lw	a4,-20(s0)
    31b2:	47c5                	li	a5,17
    31b4:	04f71963          	bne	a4,a5,3206 <RCC_GetClocksFreq+0xf8>
D:/projects/mechanical_arm/Ctrl_Stepper_Motor/libraries/sdk/Peripheral/ch32v30x_rcc.c:511 (discriminator 1)
    31b8:	47c9                	li	a5,18
    31ba:	fef42623          	sw	a5,-20(s0)
    31be:	a0a1                	j	3206 <RCC_GetClocksFreq+0xf8>
D:/projects/mechanical_arm/Ctrl_Stepper_Motor/libraries/sdk/Peripheral/ch32v30x_rcc.c:514
        }
        else{  /* for CH32V307 */
            if(pllmull == 2) pllmull = 18;
    31c0:	fec42703          	lw	a4,-20(s0)
    31c4:	4789                	li	a5,2
    31c6:	00f71563          	bne	a4,a5,31d0 <RCC_GetClocksFreq+0xc2>
D:/projects/mechanical_arm/Ctrl_Stepper_Motor/libraries/sdk/Peripheral/ch32v30x_rcc.c:514 (discriminator 1)
    31ca:	47c9                	li	a5,18
    31cc:	fef42623          	sw	a5,-20(s0)
D:/projects/mechanical_arm/Ctrl_Stepper_Motor/libraries/sdk/Peripheral/ch32v30x_rcc.c:515
            if(pllmull == 15){
    31d0:	fec42703          	lw	a4,-20(s0)
    31d4:	47bd                	li	a5,15
    31d6:	00f71863          	bne	a4,a5,31e6 <RCC_GetClocksFreq+0xd8>
D:/projects/mechanical_arm/Ctrl_Stepper_Motor/libraries/sdk/Peripheral/ch32v30x_rcc.c:516
                pllmull = 13;  /* *6.5 */
    31da:	47b5                	li	a5,13
    31dc:	fef42623          	sw	a5,-20(s0)
D:/projects/mechanical_arm/Ctrl_Stepper_Motor/libraries/sdk/Peripheral/ch32v30x_rcc.c:517
                Pll_6_5 = 1;
    31e0:	4785                	li	a5,1
    31e2:	fef42423          	sw	a5,-24(s0)
D:/projects/mechanical_arm/Ctrl_Stepper_Motor/libraries/sdk/Peripheral/ch32v30x_rcc.c:519
            }
            if(pllmull == 16) pllmull = 15;
    31e6:	fec42703          	lw	a4,-20(s0)
    31ea:	47c1                	li	a5,16
    31ec:	00f71563          	bne	a4,a5,31f6 <RCC_GetClocksFreq+0xe8>
D:/projects/mechanical_arm/Ctrl_Stepper_Motor/libraries/sdk/Peripheral/ch32v30x_rcc.c:519 (discriminator 1)
    31f0:	47bd                	li	a5,15
    31f2:	fef42623          	sw	a5,-20(s0)
D:/projects/mechanical_arm/Ctrl_Stepper_Motor/libraries/sdk/Peripheral/ch32v30x_rcc.c:520
            if(pllmull == 17) pllmull = 16;
    31f6:	fec42703          	lw	a4,-20(s0)
    31fa:	47c5                	li	a5,17
    31fc:	00f71563          	bne	a4,a5,3206 <RCC_GetClocksFreq+0xf8>
D:/projects/mechanical_arm/Ctrl_Stepper_Motor/libraries/sdk/Peripheral/ch32v30x_rcc.c:520 (discriminator 1)
    3200:	47c1                	li	a5,16
    3202:	fef42623          	sw	a5,-20(s0)
D:/projects/mechanical_arm/Ctrl_Stepper_Motor/libraries/sdk/Peripheral/ch32v30x_rcc.c:524
        }


        if (pllsource == 0x00)
    3206:	fe042783          	lw	a5,-32(s0)
    320a:	e3a1                	bnez	a5,324a <RCC_GetClocksFreq+0x13c>
D:/projects/mechanical_arm/Ctrl_Stepper_Motor/libraries/sdk/Peripheral/ch32v30x_rcc.c:526
        {
                  if(EXTEN->EXTEN_CTR & EXTEN_PLL_HSI_PRE){
    320c:	400247b7          	lui	a5,0x40024
    3210:	80078793          	addi	a5,a5,-2048 # 40023800 <_eusrstack+0x20013800>
    3214:	439c                	lw	a5,0(a5)
    3216:	8bc1                	andi	a5,a5,16
    3218:	cf89                	beqz	a5,3232 <RCC_GetClocksFreq+0x124>
D:/projects/mechanical_arm/Ctrl_Stepper_Motor/libraries/sdk/Peripheral/ch32v30x_rcc.c:527
                   RCC_Clocks->SYSCLK_Frequency = (HSI_VALUE) * pllmull;
    321a:	fec42703          	lw	a4,-20(s0)
    321e:	007a17b7          	lui	a5,0x7a1
    3222:	20078793          	addi	a5,a5,512 # 7a1200 <_data_lma+0x796b1c>
    3226:	02f70733          	mul	a4,a4,a5
    322a:	fcc42783          	lw	a5,-52(s0)
    322e:	c398                	sw	a4,0(a5)
    3230:	a899                	j	3286 <RCC_GetClocksFreq+0x178>
D:/projects/mechanical_arm/Ctrl_Stepper_Motor/libraries/sdk/Peripheral/ch32v30x_rcc.c:530
                  }
                  else{
                   RCC_Clocks->SYSCLK_Frequency = (HSI_VALUE >>1) * pllmull;
    3232:	fec42703          	lw	a4,-20(s0)
    3236:	003d17b7          	lui	a5,0x3d1
    323a:	90078793          	addi	a5,a5,-1792 # 3d0900 <_data_lma+0x3c621c>
    323e:	02f70733          	mul	a4,a4,a5
    3242:	fcc42783          	lw	a5,-52(s0)
    3246:	c398                	sw	a4,0(a5)
    3248:	a83d                	j	3286 <RCC_GetClocksFreq+0x178>
D:/projects/mechanical_arm/Ctrl_Stepper_Motor/libraries/sdk/Peripheral/ch32v30x_rcc.c:535
                  }
        }
        else
        {
          if ((RCC->CFGR0 & CFGR0_PLLXTPRE_Mask) != (uint32_t)RESET)
    324a:	400217b7          	lui	a5,0x40021
    324e:	43d8                	lw	a4,4(a5)
    3250:	000207b7          	lui	a5,0x20
    3254:	8ff9                	and	a5,a5,a4
    3256:	cf89                	beqz	a5,3270 <RCC_GetClocksFreq+0x162>
D:/projects/mechanical_arm/Ctrl_Stepper_Motor/libraries/sdk/Peripheral/ch32v30x_rcc.c:537
          {
            RCC_Clocks->SYSCLK_Frequency = (HSE_VALUE >> 1) * pllmull;
    3258:	fec42703          	lw	a4,-20(s0)
    325c:	003d17b7          	lui	a5,0x3d1
    3260:	90078793          	addi	a5,a5,-1792 # 3d0900 <_data_lma+0x3c621c>
    3264:	02f70733          	mul	a4,a4,a5
    3268:	fcc42783          	lw	a5,-52(s0)
    326c:	c398                	sw	a4,0(a5)
    326e:	a821                	j	3286 <RCC_GetClocksFreq+0x178>
D:/projects/mechanical_arm/Ctrl_Stepper_Motor/libraries/sdk/Peripheral/ch32v30x_rcc.c:541
          }
          else
          {
            RCC_Clocks->SYSCLK_Frequency = HSE_VALUE * pllmull;
    3270:	fec42703          	lw	a4,-20(s0)
    3274:	007a17b7          	lui	a5,0x7a1
    3278:	20078793          	addi	a5,a5,512 # 7a1200 <_data_lma+0x796b1c>
    327c:	02f70733          	mul	a4,a4,a5
    3280:	fcc42783          	lw	a5,-52(s0)
    3284:	c398                	sw	a4,0(a5)
D:/projects/mechanical_arm/Ctrl_Stepper_Motor/libraries/sdk/Peripheral/ch32v30x_rcc.c:545
          }
        }

        if(Pll_6_5 == 1) RCC_Clocks->SYSCLK_Frequency = (RCC_Clocks->SYSCLK_Frequency / 2);
    3286:	fe842703          	lw	a4,-24(s0)
    328a:	4785                	li	a5,1
    328c:	02f71363          	bne	a4,a5,32b2 <RCC_GetClocksFreq+0x1a4>
D:/projects/mechanical_arm/Ctrl_Stepper_Motor/libraries/sdk/Peripheral/ch32v30x_rcc.c:545 (discriminator 1)
    3290:	fcc42783          	lw	a5,-52(s0)
    3294:	439c                	lw	a5,0(a5)
    3296:	0017d713          	srli	a4,a5,0x1
    329a:	fcc42783          	lw	a5,-52(s0)
    329e:	c398                	sw	a4,0(a5)
D:/projects/mechanical_arm/Ctrl_Stepper_Motor/libraries/sdk/Peripheral/ch32v30x_rcc.c:547 (discriminator 1)

        break;
    32a0:	a809                	j	32b2 <RCC_GetClocksFreq+0x1a4>
D:/projects/mechanical_arm/Ctrl_Stepper_Motor/libraries/sdk/Peripheral/ch32v30x_rcc.c:550

      default:
        RCC_Clocks->SYSCLK_Frequency = HSI_VALUE;
    32a2:	fcc42783          	lw	a5,-52(s0)
    32a6:	007a1737          	lui	a4,0x7a1
    32aa:	20070713          	addi	a4,a4,512 # 7a1200 <_data_lma+0x796b1c>
    32ae:	c398                	sw	a4,0(a5)
D:/projects/mechanical_arm/Ctrl_Stepper_Motor/libraries/sdk/Peripheral/ch32v30x_rcc.c:551
        break;
    32b0:	a011                	j	32b4 <RCC_GetClocksFreq+0x1a6>
D:/projects/mechanical_arm/Ctrl_Stepper_Motor/libraries/sdk/Peripheral/ch32v30x_rcc.c:547
        break;
    32b2:	0001                	nop
D:/projects/mechanical_arm/Ctrl_Stepper_Motor/libraries/sdk/Peripheral/ch32v30x_rcc.c:554
    }

    tmp = RCC->CFGR0 & CFGR0_HPRE_Set_Mask;
    32b4:	400217b7          	lui	a5,0x40021
    32b8:	43dc                	lw	a5,4(a5)
    32ba:	0f07f793          	andi	a5,a5,240
    32be:	fef42223          	sw	a5,-28(s0)
D:/projects/mechanical_arm/Ctrl_Stepper_Motor/libraries/sdk/Peripheral/ch32v30x_rcc.c:555
    tmp = tmp >> 4;
    32c2:	fe442783          	lw	a5,-28(s0)
    32c6:	8391                	srli	a5,a5,0x4
    32c8:	fef42223          	sw	a5,-28(s0)
D:/projects/mechanical_arm/Ctrl_Stepper_Motor/libraries/sdk/Peripheral/ch32v30x_rcc.c:556
    presc = APBAHBPrescTable[tmp];
    32cc:	200007b7          	lui	a5,0x20000
    32d0:	00078713          	mv	a4,a5
    32d4:	fe442783          	lw	a5,-28(s0)
    32d8:	97ba                	add	a5,a5,a4
    32da:	0007c783          	lbu	a5,0(a5) # 20000000 <_data_vma>
    32de:	0ff7f793          	andi	a5,a5,255
    32e2:	fcf42e23          	sw	a5,-36(s0)
D:/projects/mechanical_arm/Ctrl_Stepper_Motor/libraries/sdk/Peripheral/ch32v30x_rcc.c:557
    RCC_Clocks->HCLK_Frequency = RCC_Clocks->SYSCLK_Frequency >> presc;
    32e6:	fcc42783          	lw	a5,-52(s0)
    32ea:	4398                	lw	a4,0(a5)
    32ec:	fdc42783          	lw	a5,-36(s0)
    32f0:	00f75733          	srl	a4,a4,a5
    32f4:	fcc42783          	lw	a5,-52(s0)
    32f8:	c3d8                	sw	a4,4(a5)
D:/projects/mechanical_arm/Ctrl_Stepper_Motor/libraries/sdk/Peripheral/ch32v30x_rcc.c:558
    tmp = RCC->CFGR0 & CFGR0_PPRE1_Set_Mask;
    32fa:	400217b7          	lui	a5,0x40021
    32fe:	43dc                	lw	a5,4(a5)
    3300:	7007f793          	andi	a5,a5,1792
    3304:	fef42223          	sw	a5,-28(s0)
D:/projects/mechanical_arm/Ctrl_Stepper_Motor/libraries/sdk/Peripheral/ch32v30x_rcc.c:559
    tmp = tmp >> 8;
    3308:	fe442783          	lw	a5,-28(s0)
    330c:	83a1                	srli	a5,a5,0x8
    330e:	fef42223          	sw	a5,-28(s0)
D:/projects/mechanical_arm/Ctrl_Stepper_Motor/libraries/sdk/Peripheral/ch32v30x_rcc.c:560
    presc = APBAHBPrescTable[tmp];
    3312:	200007b7          	lui	a5,0x20000
    3316:	00078713          	mv	a4,a5
    331a:	fe442783          	lw	a5,-28(s0)
    331e:	97ba                	add	a5,a5,a4
    3320:	0007c783          	lbu	a5,0(a5) # 20000000 <_data_vma>
    3324:	0ff7f793          	andi	a5,a5,255
    3328:	fcf42e23          	sw	a5,-36(s0)
D:/projects/mechanical_arm/Ctrl_Stepper_Motor/libraries/sdk/Peripheral/ch32v30x_rcc.c:561
    RCC_Clocks->PCLK1_Frequency = RCC_Clocks->HCLK_Frequency >> presc;
    332c:	fcc42783          	lw	a5,-52(s0)
    3330:	43d8                	lw	a4,4(a5)
    3332:	fdc42783          	lw	a5,-36(s0)
    3336:	00f75733          	srl	a4,a4,a5
    333a:	fcc42783          	lw	a5,-52(s0)
    333e:	c798                	sw	a4,8(a5)
D:/projects/mechanical_arm/Ctrl_Stepper_Motor/libraries/sdk/Peripheral/ch32v30x_rcc.c:562
    tmp = RCC->CFGR0 & CFGR0_PPRE2_Set_Mask;
    3340:	400217b7          	lui	a5,0x40021
    3344:	43d8                	lw	a4,4(a5)
    3346:	6791                	lui	a5,0x4
    3348:	80078793          	addi	a5,a5,-2048 # 3800 <TIM_OC2Init+0x82>
    334c:	8ff9                	and	a5,a5,a4
    334e:	fef42223          	sw	a5,-28(s0)
D:/projects/mechanical_arm/Ctrl_Stepper_Motor/libraries/sdk/Peripheral/ch32v30x_rcc.c:563
    tmp = tmp >> 11;
    3352:	fe442783          	lw	a5,-28(s0)
    3356:	83ad                	srli	a5,a5,0xb
    3358:	fef42223          	sw	a5,-28(s0)
D:/projects/mechanical_arm/Ctrl_Stepper_Motor/libraries/sdk/Peripheral/ch32v30x_rcc.c:564
    presc = APBAHBPrescTable[tmp];
    335c:	200007b7          	lui	a5,0x20000
    3360:	00078713          	mv	a4,a5
    3364:	fe442783          	lw	a5,-28(s0)
    3368:	97ba                	add	a5,a5,a4
    336a:	0007c783          	lbu	a5,0(a5) # 20000000 <_data_vma>
    336e:	0ff7f793          	andi	a5,a5,255
    3372:	fcf42e23          	sw	a5,-36(s0)
D:/projects/mechanical_arm/Ctrl_Stepper_Motor/libraries/sdk/Peripheral/ch32v30x_rcc.c:565
    RCC_Clocks->PCLK2_Frequency = RCC_Clocks->HCLK_Frequency >> presc;
    3376:	fcc42783          	lw	a5,-52(s0)
    337a:	43d8                	lw	a4,4(a5)
    337c:	fdc42783          	lw	a5,-36(s0)
    3380:	00f75733          	srl	a4,a4,a5
    3384:	fcc42783          	lw	a5,-52(s0)
    3388:	c7d8                	sw	a4,12(a5)
D:/projects/mechanical_arm/Ctrl_Stepper_Motor/libraries/sdk/Peripheral/ch32v30x_rcc.c:566
    tmp = RCC->CFGR0 & CFGR0_ADCPRE_Set_Mask;
    338a:	400217b7          	lui	a5,0x40021
    338e:	43d8                	lw	a4,4(a5)
    3390:	67b1                	lui	a5,0xc
    3392:	8ff9                	and	a5,a5,a4
    3394:	fef42223          	sw	a5,-28(s0)
D:/projects/mechanical_arm/Ctrl_Stepper_Motor/libraries/sdk/Peripheral/ch32v30x_rcc.c:567
    tmp = tmp >> 14;
    3398:	fe442783          	lw	a5,-28(s0)
    339c:	83b9                	srli	a5,a5,0xe
    339e:	fef42223          	sw	a5,-28(s0)
D:/projects/mechanical_arm/Ctrl_Stepper_Motor/libraries/sdk/Peripheral/ch32v30x_rcc.c:568
    presc = ADCPrescTable[tmp];
    33a2:	200007b7          	lui	a5,0x20000
    33a6:	22478713          	addi	a4,a5,548 # 20000224 <ADCPrescTable>
    33aa:	fe442783          	lw	a5,-28(s0)
    33ae:	97ba                	add	a5,a5,a4
    33b0:	0007c783          	lbu	a5,0(a5)
    33b4:	0ff7f793          	andi	a5,a5,255
    33b8:	fcf42e23          	sw	a5,-36(s0)
D:/projects/mechanical_arm/Ctrl_Stepper_Motor/libraries/sdk/Peripheral/ch32v30x_rcc.c:569
    RCC_Clocks->ADCCLK_Frequency = RCC_Clocks->PCLK2_Frequency / presc;
    33bc:	fcc42783          	lw	a5,-52(s0)
    33c0:	47d8                	lw	a4,12(a5)
    33c2:	fdc42783          	lw	a5,-36(s0)
    33c6:	02f75733          	divu	a4,a4,a5
    33ca:	fcc42783          	lw	a5,-52(s0)
    33ce:	cb98                	sw	a4,16(a5)
D:/projects/mechanical_arm/Ctrl_Stepper_Motor/libraries/sdk/Peripheral/ch32v30x_rcc.c:570
}
    33d0:	0001                	nop
    33d2:	5472                	lw	s0,60(sp)
    33d4:	6121                	addi	sp,sp,64
    33d6:	8082                	ret

000033d8 <RCC_APB2PeriphClockCmd>:
RCC_APB2PeriphClockCmd():
D:/projects/mechanical_arm/Ctrl_Stepper_Motor/libraries/sdk/Peripheral/ch32v30x_rcc.c:627
*                    RCC_APB2Periph_USART1.
*                  NewState: ENABLE or DISABLE
* Return         : None
*******************************************************************************/	
void RCC_APB2PeriphClockCmd(uint32_t RCC_APB2Periph, FunctionalState NewState)
{
    33d8:	1101                	addi	sp,sp,-32
    33da:	ce22                	sw	s0,28(sp)
    33dc:	1000                	addi	s0,sp,32
    33de:	fea42623          	sw	a0,-20(s0)
    33e2:	feb42423          	sw	a1,-24(s0)
D:/projects/mechanical_arm/Ctrl_Stepper_Motor/libraries/sdk/Peripheral/ch32v30x_rcc.c:628
  if (NewState != DISABLE)
    33e6:	fe842783          	lw	a5,-24(s0)
    33ea:	cb99                	beqz	a5,3400 <RCC_APB2PeriphClockCmd+0x28>
D:/projects/mechanical_arm/Ctrl_Stepper_Motor/libraries/sdk/Peripheral/ch32v30x_rcc.c:630
  {
    RCC->APB2PCENR |= RCC_APB2Periph;
    33ec:	400217b7          	lui	a5,0x40021
    33f0:	4f94                	lw	a3,24(a5)
    33f2:	400217b7          	lui	a5,0x40021
    33f6:	fec42703          	lw	a4,-20(s0)
    33fa:	8f55                	or	a4,a4,a3
    33fc:	cf98                	sw	a4,24(a5)
D:/projects/mechanical_arm/Ctrl_Stepper_Motor/libraries/sdk/Peripheral/ch32v30x_rcc.c:636
  }
  else
  {
    RCC->APB2PCENR &= ~RCC_APB2Periph;
  }
}
    33fe:	a821                	j	3416 <RCC_APB2PeriphClockCmd+0x3e>
D:/projects/mechanical_arm/Ctrl_Stepper_Motor/libraries/sdk/Peripheral/ch32v30x_rcc.c:634
    RCC->APB2PCENR &= ~RCC_APB2Periph;
    3400:	400217b7          	lui	a5,0x40021
    3404:	4f94                	lw	a3,24(a5)
    3406:	fec42783          	lw	a5,-20(s0)
    340a:	fff7c713          	not	a4,a5
    340e:	400217b7          	lui	a5,0x40021
    3412:	8f75                	and	a4,a4,a3
    3414:	cf98                	sw	a4,24(a5)
D:/projects/mechanical_arm/Ctrl_Stepper_Motor/libraries/sdk/Peripheral/ch32v30x_rcc.c:636
}
    3416:	0001                	nop
    3418:	4472                	lw	s0,28(sp)
    341a:	6105                	addi	sp,sp,32
    341c:	8082                	ret

0000341e <RCC_APB1PeriphClockCmd>:
RCC_APB1PeriphClockCmd():
D:/projects/mechanical_arm/Ctrl_Stepper_Motor/libraries/sdk/Peripheral/ch32v30x_rcc.c:668
*                    RCC_APB1Periph_DAC.                
*                  NewState: ENABLE or DISABLE.
* Return         : None
*******************************************************************************/	
void RCC_APB1PeriphClockCmd(uint32_t RCC_APB1Periph, FunctionalState NewState)
{
    341e:	1101                	addi	sp,sp,-32
    3420:	ce22                	sw	s0,28(sp)
    3422:	1000                	addi	s0,sp,32
    3424:	fea42623          	sw	a0,-20(s0)
    3428:	feb42423          	sw	a1,-24(s0)
D:/projects/mechanical_arm/Ctrl_Stepper_Motor/libraries/sdk/Peripheral/ch32v30x_rcc.c:669
  if (NewState != DISABLE)
    342c:	fe842783          	lw	a5,-24(s0)
    3430:	cb99                	beqz	a5,3446 <RCC_APB1PeriphClockCmd+0x28>
D:/projects/mechanical_arm/Ctrl_Stepper_Motor/libraries/sdk/Peripheral/ch32v30x_rcc.c:671
  {
    RCC->APB1PCENR |= RCC_APB1Periph;
    3432:	400217b7          	lui	a5,0x40021
    3436:	4fd4                	lw	a3,28(a5)
    3438:	400217b7          	lui	a5,0x40021
    343c:	fec42703          	lw	a4,-20(s0)
    3440:	8f55                	or	a4,a4,a3
    3442:	cfd8                	sw	a4,28(a5)
D:/projects/mechanical_arm/Ctrl_Stepper_Motor/libraries/sdk/Peripheral/ch32v30x_rcc.c:677
  }
  else
  {
    RCC->APB1PCENR &= ~RCC_APB1Periph;
  }
}
    3444:	a821                	j	345c <RCC_APB1PeriphClockCmd+0x3e>
D:/projects/mechanical_arm/Ctrl_Stepper_Motor/libraries/sdk/Peripheral/ch32v30x_rcc.c:675
    RCC->APB1PCENR &= ~RCC_APB1Periph;
    3446:	400217b7          	lui	a5,0x40021
    344a:	4fd4                	lw	a3,28(a5)
    344c:	fec42783          	lw	a5,-20(s0)
    3450:	fff7c713          	not	a4,a5
    3454:	400217b7          	lui	a5,0x40021
    3458:	8f75                	and	a4,a4,a3
    345a:	cfd8                	sw	a4,28(a5)
D:/projects/mechanical_arm/Ctrl_Stepper_Motor/libraries/sdk/Peripheral/ch32v30x_rcc.c:677
}
    345c:	0001                	nop
    345e:	4472                	lw	s0,28(sp)
    3460:	6105                	addi	sp,sp,32
    3462:	8082                	ret

00003464 <TIM_TimeBaseInit>:
TIM_TimeBaseInit():
D:/projects/mechanical_arm/Ctrl_Stepper_Motor/libraries/sdk/Peripheral/ch32v30x_tim.c:97
*                  TIM_TimeBaseInitStruct: pointer to a TIM_TimeBaseInitTypeDef
*      structure.
* Return         : None
*******************************************************************************/
void TIM_TimeBaseInit(TIM_TypeDef* TIMx, TIM_TimeBaseInitTypeDef* TIM_TimeBaseInitStruct)
{
    3464:	7179                	addi	sp,sp,-48
    3466:	d622                	sw	s0,44(sp)
    3468:	1800                	addi	s0,sp,48
    346a:	fca42e23          	sw	a0,-36(s0)
    346e:	fcb42c23          	sw	a1,-40(s0)
D:/projects/mechanical_arm/Ctrl_Stepper_Motor/libraries/sdk/Peripheral/ch32v30x_tim.c:98
  uint16_t tmpcr1 = 0;
    3472:	fe041723          	sh	zero,-18(s0)
D:/projects/mechanical_arm/Ctrl_Stepper_Motor/libraries/sdk/Peripheral/ch32v30x_tim.c:100

  tmpcr1 = TIMx->CTLR1;  
    3476:	fdc42783          	lw	a5,-36(s0)
    347a:	0007d783          	lhu	a5,0(a5) # 40021000 <_eusrstack+0x20011000>
    347e:	fef41723          	sh	a5,-18(s0)
D:/projects/mechanical_arm/Ctrl_Stepper_Motor/libraries/sdk/Peripheral/ch32v30x_tim.c:102

  if((TIMx == TIM1) || (TIMx == TIM2) || (TIMx == TIM3)|| (TIMx == TIM4) ||
    3482:	fdc42703          	lw	a4,-36(s0)
    3486:	400137b7          	lui	a5,0x40013
    348a:	c0078793          	addi	a5,a5,-1024 # 40012c00 <_eusrstack+0x20002c00>
    348e:	06f70663          	beq	a4,a5,34fa <TIM_TimeBaseInit+0x96>
D:/projects/mechanical_arm/Ctrl_Stepper_Motor/libraries/sdk/Peripheral/ch32v30x_tim.c:102 (discriminator 1)
    3492:	fdc42703          	lw	a4,-36(s0)
    3496:	400007b7          	lui	a5,0x40000
    349a:	06f70063          	beq	a4,a5,34fa <TIM_TimeBaseInit+0x96>
D:/projects/mechanical_arm/Ctrl_Stepper_Motor/libraries/sdk/Peripheral/ch32v30x_tim.c:102 (discriminator 2)
    349e:	fdc42703          	lw	a4,-36(s0)
    34a2:	400007b7          	lui	a5,0x40000
    34a6:	40078793          	addi	a5,a5,1024 # 40000400 <_eusrstack+0x1fff0400>
    34aa:	04f70863          	beq	a4,a5,34fa <TIM_TimeBaseInit+0x96>
D:/projects/mechanical_arm/Ctrl_Stepper_Motor/libraries/sdk/Peripheral/ch32v30x_tim.c:102 (discriminator 3)
    34ae:	fdc42703          	lw	a4,-36(s0)
    34b2:	400017b7          	lui	a5,0x40001
    34b6:	80078793          	addi	a5,a5,-2048 # 40000800 <_eusrstack+0x1fff0800>
    34ba:	04f70063          	beq	a4,a5,34fa <TIM_TimeBaseInit+0x96>
D:/projects/mechanical_arm/Ctrl_Stepper_Motor/libraries/sdk/Peripheral/ch32v30x_tim.c:102 (discriminator 4)
    34be:	fdc42703          	lw	a4,-36(s0)
    34c2:	400017b7          	lui	a5,0x40001
    34c6:	c0078793          	addi	a5,a5,-1024 # 40000c00 <_eusrstack+0x1fff0c00>
    34ca:	02f70863          	beq	a4,a5,34fa <TIM_TimeBaseInit+0x96>
D:/projects/mechanical_arm/Ctrl_Stepper_Motor/libraries/sdk/Peripheral/ch32v30x_tim.c:103
     (TIMx == TIM5) || (TIMx == TIM8) || (TIMx == TIM9)|| (TIMx == TIM10))
    34ce:	fdc42703          	lw	a4,-36(s0)
    34d2:	400137b7          	lui	a5,0x40013
    34d6:	40078793          	addi	a5,a5,1024 # 40013400 <_eusrstack+0x20003400>
    34da:	02f70063          	beq	a4,a5,34fa <TIM_TimeBaseInit+0x96>
D:/projects/mechanical_arm/Ctrl_Stepper_Motor/libraries/sdk/Peripheral/ch32v30x_tim.c:103 (discriminator 1)
    34de:	fdc42703          	lw	a4,-36(s0)
    34e2:	400157b7          	lui	a5,0x40015
    34e6:	c0078793          	addi	a5,a5,-1024 # 40014c00 <_eusrstack+0x20004c00>
    34ea:	00f70863          	beq	a4,a5,34fa <TIM_TimeBaseInit+0x96>
D:/projects/mechanical_arm/Ctrl_Stepper_Motor/libraries/sdk/Peripheral/ch32v30x_tim.c:103 (discriminator 2)
    34ee:	fdc42703          	lw	a4,-36(s0)
    34f2:	400157b7          	lui	a5,0x40015
    34f6:	02f71163          	bne	a4,a5,3518 <TIM_TimeBaseInit+0xb4>
D:/projects/mechanical_arm/Ctrl_Stepper_Motor/libraries/sdk/Peripheral/ch32v30x_tim.c:105
  {
    tmpcr1 &= (uint16_t)(~((uint16_t)(TIM_DIR | TIM_CMS)));
    34fa:	fee45783          	lhu	a5,-18(s0)
    34fe:	f8f7f793          	andi	a5,a5,-113
    3502:	fef41723          	sh	a5,-18(s0)
D:/projects/mechanical_arm/Ctrl_Stepper_Motor/libraries/sdk/Peripheral/ch32v30x_tim.c:106
    tmpcr1 |= (uint32_t)TIM_TimeBaseInitStruct->TIM_CounterMode;
    3506:	fd842783          	lw	a5,-40(s0)
    350a:	0027d703          	lhu	a4,2(a5) # 40015002 <_eusrstack+0x20005002>
    350e:	fee45783          	lhu	a5,-18(s0)
    3512:	8fd9                	or	a5,a5,a4
    3514:	fef41723          	sh	a5,-18(s0)
D:/projects/mechanical_arm/Ctrl_Stepper_Motor/libraries/sdk/Peripheral/ch32v30x_tim.c:109
  }

  if((TIMx != TIM6) && (TIMx != TIM7))
    3518:	fdc42703          	lw	a4,-36(s0)
    351c:	400017b7          	lui	a5,0x40001
    3520:	02f70963          	beq	a4,a5,3552 <TIM_TimeBaseInit+0xee>
D:/projects/mechanical_arm/Ctrl_Stepper_Motor/libraries/sdk/Peripheral/ch32v30x_tim.c:109 (discriminator 1)
    3524:	fdc42703          	lw	a4,-36(s0)
    3528:	400017b7          	lui	a5,0x40001
    352c:	40078793          	addi	a5,a5,1024 # 40001400 <_eusrstack+0x1fff1400>
    3530:	02f70163          	beq	a4,a5,3552 <TIM_TimeBaseInit+0xee>
D:/projects/mechanical_arm/Ctrl_Stepper_Motor/libraries/sdk/Peripheral/ch32v30x_tim.c:111
  {
    tmpcr1 &= (uint16_t)(~((uint16_t)TIM_CTLR1_CKD));
    3534:	fee45783          	lhu	a5,-18(s0)
    3538:	cff7f793          	andi	a5,a5,-769
    353c:	fef41723          	sh	a5,-18(s0)
D:/projects/mechanical_arm/Ctrl_Stepper_Motor/libraries/sdk/Peripheral/ch32v30x_tim.c:112
    tmpcr1 |= (uint32_t)TIM_TimeBaseInitStruct->TIM_ClockDivision;
    3540:	fd842783          	lw	a5,-40(s0)
    3544:	0067d703          	lhu	a4,6(a5)
    3548:	fee45783          	lhu	a5,-18(s0)
    354c:	8fd9                	or	a5,a5,a4
    354e:	fef41723          	sh	a5,-18(s0)
D:/projects/mechanical_arm/Ctrl_Stepper_Motor/libraries/sdk/Peripheral/ch32v30x_tim.c:115
  }

  TIMx->CTLR1 = tmpcr1;
    3552:	fdc42783          	lw	a5,-36(s0)
    3556:	fee45703          	lhu	a4,-18(s0)
    355a:	00e79023          	sh	a4,0(a5)
D:/projects/mechanical_arm/Ctrl_Stepper_Motor/libraries/sdk/Peripheral/ch32v30x_tim.c:116
  TIMx->ATRLR = TIM_TimeBaseInitStruct->TIM_Period ;
    355e:	fd842783          	lw	a5,-40(s0)
    3562:	0047d703          	lhu	a4,4(a5)
    3566:	fdc42783          	lw	a5,-36(s0)
    356a:	02e79623          	sh	a4,44(a5)
D:/projects/mechanical_arm/Ctrl_Stepper_Motor/libraries/sdk/Peripheral/ch32v30x_tim.c:117
  TIMx->PSC = TIM_TimeBaseInitStruct->TIM_Prescaler;
    356e:	fd842783          	lw	a5,-40(s0)
    3572:	0007d703          	lhu	a4,0(a5)
    3576:	fdc42783          	lw	a5,-36(s0)
    357a:	02e79423          	sh	a4,40(a5)
D:/projects/mechanical_arm/Ctrl_Stepper_Motor/libraries/sdk/Peripheral/ch32v30x_tim.c:119
    
  if ((TIMx == TIM1) || (TIMx == TIM8) || (TIMx == TIM9)|| (TIMx == TIM10))
    357e:	fdc42703          	lw	a4,-36(s0)
    3582:	400137b7          	lui	a5,0x40013
    3586:	c0078793          	addi	a5,a5,-1024 # 40012c00 <_eusrstack+0x20002c00>
    358a:	02f70863          	beq	a4,a5,35ba <TIM_TimeBaseInit+0x156>
D:/projects/mechanical_arm/Ctrl_Stepper_Motor/libraries/sdk/Peripheral/ch32v30x_tim.c:119 (discriminator 1)
    358e:	fdc42703          	lw	a4,-36(s0)
    3592:	400137b7          	lui	a5,0x40013
    3596:	40078793          	addi	a5,a5,1024 # 40013400 <_eusrstack+0x20003400>
    359a:	02f70063          	beq	a4,a5,35ba <TIM_TimeBaseInit+0x156>
D:/projects/mechanical_arm/Ctrl_Stepper_Motor/libraries/sdk/Peripheral/ch32v30x_tim.c:119 (discriminator 2)
    359e:	fdc42703          	lw	a4,-36(s0)
    35a2:	400157b7          	lui	a5,0x40015
    35a6:	c0078793          	addi	a5,a5,-1024 # 40014c00 <_eusrstack+0x20004c00>
    35aa:	00f70863          	beq	a4,a5,35ba <TIM_TimeBaseInit+0x156>
D:/projects/mechanical_arm/Ctrl_Stepper_Motor/libraries/sdk/Peripheral/ch32v30x_tim.c:119 (discriminator 3)
    35ae:	fdc42703          	lw	a4,-36(s0)
    35b2:	400157b7          	lui	a5,0x40015
    35b6:	00f71d63          	bne	a4,a5,35d0 <TIM_TimeBaseInit+0x16c>
D:/projects/mechanical_arm/Ctrl_Stepper_Motor/libraries/sdk/Peripheral/ch32v30x_tim.c:121
  {
    TIMx->RPTCR = TIM_TimeBaseInitStruct->TIM_RepetitionCounter;
    35ba:	fd842783          	lw	a5,-40(s0)
    35be:	0087c783          	lbu	a5,8(a5) # 40015008 <_eusrstack+0x20005008>
    35c2:	01079713          	slli	a4,a5,0x10
    35c6:	8341                	srli	a4,a4,0x10
    35c8:	fdc42783          	lw	a5,-36(s0)
    35cc:	02e79823          	sh	a4,48(a5)
D:/projects/mechanical_arm/Ctrl_Stepper_Motor/libraries/sdk/Peripheral/ch32v30x_tim.c:124
  }

  TIMx->SWEVGR = TIM_PSCReloadMode_Immediate;           
    35d0:	fdc42783          	lw	a5,-36(s0)
    35d4:	4705                	li	a4,1
    35d6:	00e79a23          	sh	a4,20(a5)
D:/projects/mechanical_arm/Ctrl_Stepper_Motor/libraries/sdk/Peripheral/ch32v30x_tim.c:125
}
    35da:	0001                	nop
    35dc:	5432                	lw	s0,44(sp)
    35de:	6145                	addi	sp,sp,48
    35e0:	8082                	ret

000035e2 <TIM_OC1Init>:
TIM_OC1Init():
D:/projects/mechanical_arm/Ctrl_Stepper_Motor/libraries/sdk/Peripheral/ch32v30x_tim.c:136
* Input          : TIMx: where x can be 1 to 4 to select the TIM peripheral.
*                  TIM_OCInitStruct: pointer to a TIM_OCInitTypeDef structure.
* Return         : None
*******************************************************************************/
void TIM_OC1Init(TIM_TypeDef* TIMx, TIM_OCInitTypeDef* TIM_OCInitStruct)
{
    35e2:	7179                	addi	sp,sp,-48
    35e4:	d622                	sw	s0,44(sp)
    35e6:	1800                	addi	s0,sp,48
    35e8:	fca42e23          	sw	a0,-36(s0)
    35ec:	fcb42c23          	sw	a1,-40(s0)
D:/projects/mechanical_arm/Ctrl_Stepper_Motor/libraries/sdk/Peripheral/ch32v30x_tim.c:137
  uint16_t tmpccmrx = 0, tmpccer = 0, tmpcr2 = 0;
    35f0:	fe041523          	sh	zero,-22(s0)
    35f4:	fe041723          	sh	zero,-18(s0)
    35f8:	fe041623          	sh	zero,-20(s0)
D:/projects/mechanical_arm/Ctrl_Stepper_Motor/libraries/sdk/Peripheral/ch32v30x_tim.c:139
     
  TIMx->CCER &= (uint16_t)(~(uint16_t)TIM_CC1E);
    35fc:	fdc42783          	lw	a5,-36(s0)
    3600:	0207d783          	lhu	a5,32(a5)
    3604:	07c2                	slli	a5,a5,0x10
    3606:	83c1                	srli	a5,a5,0x10
    3608:	9bf9                	andi	a5,a5,-2
    360a:	01079713          	slli	a4,a5,0x10
    360e:	8341                	srli	a4,a4,0x10
    3610:	fdc42783          	lw	a5,-36(s0)
    3614:	02e79023          	sh	a4,32(a5)
D:/projects/mechanical_arm/Ctrl_Stepper_Motor/libraries/sdk/Peripheral/ch32v30x_tim.c:140
  tmpccer = TIMx->CCER;
    3618:	fdc42783          	lw	a5,-36(s0)
    361c:	0207d783          	lhu	a5,32(a5)
    3620:	fef41723          	sh	a5,-18(s0)
D:/projects/mechanical_arm/Ctrl_Stepper_Motor/libraries/sdk/Peripheral/ch32v30x_tim.c:141
  tmpcr2 =  TIMx->CTLR2;
    3624:	fdc42783          	lw	a5,-36(s0)
    3628:	0047d783          	lhu	a5,4(a5)
    362c:	fef41623          	sh	a5,-20(s0)
D:/projects/mechanical_arm/Ctrl_Stepper_Motor/libraries/sdk/Peripheral/ch32v30x_tim.c:142
  tmpccmrx = TIMx->CHCTLR1;
    3630:	fdc42783          	lw	a5,-36(s0)
    3634:	0187d783          	lhu	a5,24(a5)
    3638:	fef41523          	sh	a5,-22(s0)
D:/projects/mechanical_arm/Ctrl_Stepper_Motor/libraries/sdk/Peripheral/ch32v30x_tim.c:143
  tmpccmrx &= (uint16_t)(~((uint16_t)TIM_OC1M));
    363c:	fea45783          	lhu	a5,-22(s0)
    3640:	f8f7f793          	andi	a5,a5,-113
    3644:	fef41523          	sh	a5,-22(s0)
D:/projects/mechanical_arm/Ctrl_Stepper_Motor/libraries/sdk/Peripheral/ch32v30x_tim.c:144
  tmpccmrx &= (uint16_t)(~((uint16_t)TIM_CC1S));
    3648:	fea45783          	lhu	a5,-22(s0)
    364c:	9bf1                	andi	a5,a5,-4
    364e:	fef41523          	sh	a5,-22(s0)
D:/projects/mechanical_arm/Ctrl_Stepper_Motor/libraries/sdk/Peripheral/ch32v30x_tim.c:145
  tmpccmrx |= TIM_OCInitStruct->TIM_OCMode;
    3652:	fd842783          	lw	a5,-40(s0)
    3656:	0007d703          	lhu	a4,0(a5)
    365a:	fea45783          	lhu	a5,-22(s0)
    365e:	8fd9                	or	a5,a5,a4
    3660:	fef41523          	sh	a5,-22(s0)
D:/projects/mechanical_arm/Ctrl_Stepper_Motor/libraries/sdk/Peripheral/ch32v30x_tim.c:146
  tmpccer &= (uint16_t)(~((uint16_t)TIM_CC1P));
    3664:	fee45783          	lhu	a5,-18(s0)
    3668:	9bf5                	andi	a5,a5,-3
    366a:	fef41723          	sh	a5,-18(s0)
D:/projects/mechanical_arm/Ctrl_Stepper_Motor/libraries/sdk/Peripheral/ch32v30x_tim.c:147
  tmpccer |= TIM_OCInitStruct->TIM_OCPolarity;
    366e:	fd842783          	lw	a5,-40(s0)
    3672:	0087d703          	lhu	a4,8(a5)
    3676:	fee45783          	lhu	a5,-18(s0)
    367a:	8fd9                	or	a5,a5,a4
    367c:	fef41723          	sh	a5,-18(s0)
D:/projects/mechanical_arm/Ctrl_Stepper_Motor/libraries/sdk/Peripheral/ch32v30x_tim.c:148
  tmpccer |= TIM_OCInitStruct->TIM_OutputState;
    3680:	fd842783          	lw	a5,-40(s0)
    3684:	0027d703          	lhu	a4,2(a5)
    3688:	fee45783          	lhu	a5,-18(s0)
    368c:	8fd9                	or	a5,a5,a4
    368e:	fef41723          	sh	a5,-18(s0)
D:/projects/mechanical_arm/Ctrl_Stepper_Motor/libraries/sdk/Peripheral/ch32v30x_tim.c:150
    
  if((TIMx == TIM1) || (TIMx == TIM8) || (TIMx == TIM9)|| (TIMx == TIM10))
    3692:	fdc42703          	lw	a4,-36(s0)
    3696:	400137b7          	lui	a5,0x40013
    369a:	c0078793          	addi	a5,a5,-1024 # 40012c00 <_eusrstack+0x20002c00>
    369e:	02f70863          	beq	a4,a5,36ce <TIM_OC1Init+0xec>
D:/projects/mechanical_arm/Ctrl_Stepper_Motor/libraries/sdk/Peripheral/ch32v30x_tim.c:150 (discriminator 1)
    36a2:	fdc42703          	lw	a4,-36(s0)
    36a6:	400137b7          	lui	a5,0x40013
    36aa:	40078793          	addi	a5,a5,1024 # 40013400 <_eusrstack+0x20003400>
    36ae:	02f70063          	beq	a4,a5,36ce <TIM_OC1Init+0xec>
D:/projects/mechanical_arm/Ctrl_Stepper_Motor/libraries/sdk/Peripheral/ch32v30x_tim.c:150 (discriminator 2)
    36b2:	fdc42703          	lw	a4,-36(s0)
    36b6:	400157b7          	lui	a5,0x40015
    36ba:	c0078793          	addi	a5,a5,-1024 # 40014c00 <_eusrstack+0x20004c00>
    36be:	00f70863          	beq	a4,a5,36ce <TIM_OC1Init+0xec>
D:/projects/mechanical_arm/Ctrl_Stepper_Motor/libraries/sdk/Peripheral/ch32v30x_tim.c:150 (discriminator 3)
    36c2:	fdc42703          	lw	a4,-36(s0)
    36c6:	400157b7          	lui	a5,0x40015
    36ca:	06f71c63          	bne	a4,a5,3742 <TIM_OC1Init+0x160>
D:/projects/mechanical_arm/Ctrl_Stepper_Motor/libraries/sdk/Peripheral/ch32v30x_tim.c:152
  {
    tmpccer &= (uint16_t)(~((uint16_t)TIM_CC1NP));
    36ce:	fee45783          	lhu	a5,-18(s0)
    36d2:	9bdd                	andi	a5,a5,-9
    36d4:	fef41723          	sh	a5,-18(s0)
D:/projects/mechanical_arm/Ctrl_Stepper_Motor/libraries/sdk/Peripheral/ch32v30x_tim.c:153
    tmpccer |= TIM_OCInitStruct->TIM_OCNPolarity;
    36d8:	fd842783          	lw	a5,-40(s0)
    36dc:	00a7d703          	lhu	a4,10(a5) # 4001500a <_eusrstack+0x2000500a>
    36e0:	fee45783          	lhu	a5,-18(s0)
    36e4:	8fd9                	or	a5,a5,a4
    36e6:	fef41723          	sh	a5,-18(s0)
D:/projects/mechanical_arm/Ctrl_Stepper_Motor/libraries/sdk/Peripheral/ch32v30x_tim.c:155
 
    tmpccer &= (uint16_t)(~((uint16_t)TIM_CC1NE));    
    36ea:	fee45783          	lhu	a5,-18(s0)
    36ee:	9bed                	andi	a5,a5,-5
    36f0:	fef41723          	sh	a5,-18(s0)
D:/projects/mechanical_arm/Ctrl_Stepper_Motor/libraries/sdk/Peripheral/ch32v30x_tim.c:156
    tmpccer |= TIM_OCInitStruct->TIM_OutputNState;
    36f4:	fd842783          	lw	a5,-40(s0)
    36f8:	0047d703          	lhu	a4,4(a5)
    36fc:	fee45783          	lhu	a5,-18(s0)
    3700:	8fd9                	or	a5,a5,a4
    3702:	fef41723          	sh	a5,-18(s0)
D:/projects/mechanical_arm/Ctrl_Stepper_Motor/libraries/sdk/Peripheral/ch32v30x_tim.c:158
    
    tmpcr2 &= (uint16_t)(~((uint16_t)TIM_OIS1));
    3706:	fec45783          	lhu	a5,-20(s0)
    370a:	eff7f793          	andi	a5,a5,-257
    370e:	fef41623          	sh	a5,-20(s0)
D:/projects/mechanical_arm/Ctrl_Stepper_Motor/libraries/sdk/Peripheral/ch32v30x_tim.c:159
    tmpcr2 &= (uint16_t)(~((uint16_t)TIM_OIS1N));
    3712:	fec45783          	lhu	a5,-20(s0)
    3716:	dff7f793          	andi	a5,a5,-513
    371a:	fef41623          	sh	a5,-20(s0)
D:/projects/mechanical_arm/Ctrl_Stepper_Motor/libraries/sdk/Peripheral/ch32v30x_tim.c:161
    
    tmpcr2 |= TIM_OCInitStruct->TIM_OCIdleState;
    371e:	fd842783          	lw	a5,-40(s0)
    3722:	00c7d703          	lhu	a4,12(a5)
    3726:	fec45783          	lhu	a5,-20(s0)
    372a:	8fd9                	or	a5,a5,a4
    372c:	fef41623          	sh	a5,-20(s0)
D:/projects/mechanical_arm/Ctrl_Stepper_Motor/libraries/sdk/Peripheral/ch32v30x_tim.c:162
    tmpcr2 |= TIM_OCInitStruct->TIM_OCNIdleState;
    3730:	fd842783          	lw	a5,-40(s0)
    3734:	00e7d703          	lhu	a4,14(a5)
    3738:	fec45783          	lhu	a5,-20(s0)
    373c:	8fd9                	or	a5,a5,a4
    373e:	fef41623          	sh	a5,-20(s0)
D:/projects/mechanical_arm/Ctrl_Stepper_Motor/libraries/sdk/Peripheral/ch32v30x_tim.c:165
  }

  TIMx->CTLR2 = tmpcr2;
    3742:	fdc42783          	lw	a5,-36(s0)
    3746:	fec45703          	lhu	a4,-20(s0)
    374a:	00e79223          	sh	a4,4(a5)
D:/projects/mechanical_arm/Ctrl_Stepper_Motor/libraries/sdk/Peripheral/ch32v30x_tim.c:166
  TIMx->CHCTLR1 = tmpccmrx;
    374e:	fdc42783          	lw	a5,-36(s0)
    3752:	fea45703          	lhu	a4,-22(s0)
    3756:	00e79c23          	sh	a4,24(a5)
D:/projects/mechanical_arm/Ctrl_Stepper_Motor/libraries/sdk/Peripheral/ch32v30x_tim.c:167
  TIMx->CH1CVR = TIM_OCInitStruct->TIM_Pulse; 
    375a:	fd842783          	lw	a5,-40(s0)
    375e:	0067d703          	lhu	a4,6(a5)
    3762:	fdc42783          	lw	a5,-36(s0)
    3766:	02e79a23          	sh	a4,52(a5)
D:/projects/mechanical_arm/Ctrl_Stepper_Motor/libraries/sdk/Peripheral/ch32v30x_tim.c:168
  TIMx->CCER = tmpccer;
    376a:	fdc42783          	lw	a5,-36(s0)
    376e:	fee45703          	lhu	a4,-18(s0)
    3772:	02e79023          	sh	a4,32(a5)
D:/projects/mechanical_arm/Ctrl_Stepper_Motor/libraries/sdk/Peripheral/ch32v30x_tim.c:169
}
    3776:	0001                	nop
    3778:	5432                	lw	s0,44(sp)
    377a:	6145                	addi	sp,sp,48
    377c:	8082                	ret

0000377e <TIM_OC2Init>:
TIM_OC2Init():
D:/projects/mechanical_arm/Ctrl_Stepper_Motor/libraries/sdk/Peripheral/ch32v30x_tim.c:180
* Input          : TIMx: where x can be 1 to 4 to select the TIM peripheral.
*                  TIM_OCInitStruct: pointer to a TIM_OCInitTypeDef structure.
* Return         : None
*******************************************************************************/
void TIM_OC2Init(TIM_TypeDef* TIMx, TIM_OCInitTypeDef* TIM_OCInitStruct)
{
    377e:	7179                	addi	sp,sp,-48
    3780:	d622                	sw	s0,44(sp)
    3782:	1800                	addi	s0,sp,48
    3784:	fca42e23          	sw	a0,-36(s0)
    3788:	fcb42c23          	sw	a1,-40(s0)
D:/projects/mechanical_arm/Ctrl_Stepper_Motor/libraries/sdk/Peripheral/ch32v30x_tim.c:181
  uint16_t tmpccmrx = 0, tmpccer = 0, tmpcr2 = 0;
    378c:	fe041523          	sh	zero,-22(s0)
    3790:	fe041723          	sh	zero,-18(s0)
    3794:	fe041623          	sh	zero,-20(s0)
D:/projects/mechanical_arm/Ctrl_Stepper_Motor/libraries/sdk/Peripheral/ch32v30x_tim.c:183
   
  TIMx->CCER &= (uint16_t)(~((uint16_t)TIM_CC2E)); 
    3798:	fdc42783          	lw	a5,-36(s0)
    379c:	0207d783          	lhu	a5,32(a5)
    37a0:	07c2                	slli	a5,a5,0x10
    37a2:	83c1                	srli	a5,a5,0x10
    37a4:	9bbd                	andi	a5,a5,-17
    37a6:	01079713          	slli	a4,a5,0x10
    37aa:	8341                	srli	a4,a4,0x10
    37ac:	fdc42783          	lw	a5,-36(s0)
    37b0:	02e79023          	sh	a4,32(a5)
D:/projects/mechanical_arm/Ctrl_Stepper_Motor/libraries/sdk/Peripheral/ch32v30x_tim.c:184
  tmpccer = TIMx->CCER;
    37b4:	fdc42783          	lw	a5,-36(s0)
    37b8:	0207d783          	lhu	a5,32(a5)
    37bc:	fef41723          	sh	a5,-18(s0)
D:/projects/mechanical_arm/Ctrl_Stepper_Motor/libraries/sdk/Peripheral/ch32v30x_tim.c:185
  tmpcr2 =  TIMx->CTLR2;
    37c0:	fdc42783          	lw	a5,-36(s0)
    37c4:	0047d783          	lhu	a5,4(a5)
    37c8:	fef41623          	sh	a5,-20(s0)
D:/projects/mechanical_arm/Ctrl_Stepper_Motor/libraries/sdk/Peripheral/ch32v30x_tim.c:186
  tmpccmrx = TIMx->CHCTLR1;
    37cc:	fdc42783          	lw	a5,-36(s0)
    37d0:	0187d783          	lhu	a5,24(a5)
    37d4:	fef41523          	sh	a5,-22(s0)
D:/projects/mechanical_arm/Ctrl_Stepper_Motor/libraries/sdk/Peripheral/ch32v30x_tim.c:187
  tmpccmrx &= (uint16_t)(~((uint16_t)TIM_OC2M));
    37d8:	fea45703          	lhu	a4,-22(s0)
    37dc:	77e5                	lui	a5,0xffff9
    37de:	17fd                	addi	a5,a5,-1
    37e0:	8ff9                	and	a5,a5,a4
    37e2:	fef41523          	sh	a5,-22(s0)
D:/projects/mechanical_arm/Ctrl_Stepper_Motor/libraries/sdk/Peripheral/ch32v30x_tim.c:188
  tmpccmrx &= (uint16_t)(~((uint16_t)TIM_CC2S));
    37e6:	fea45783          	lhu	a5,-22(s0)
    37ea:	cff7f793          	andi	a5,a5,-769
    37ee:	fef41523          	sh	a5,-22(s0)
D:/projects/mechanical_arm/Ctrl_Stepper_Motor/libraries/sdk/Peripheral/ch32v30x_tim.c:189
  tmpccmrx |= (uint16_t)(TIM_OCInitStruct->TIM_OCMode << 8);
    37f2:	fd842783          	lw	a5,-40(s0)
    37f6:	0007d783          	lhu	a5,0(a5) # ffff9000 <_eusrstack+0xdffe9000>
    37fa:	07a2                	slli	a5,a5,0x8
    37fc:	01079713          	slli	a4,a5,0x10
    3800:	8341                	srli	a4,a4,0x10
    3802:	fea45783          	lhu	a5,-22(s0)
    3806:	8fd9                	or	a5,a5,a4
    3808:	fef41523          	sh	a5,-22(s0)
D:/projects/mechanical_arm/Ctrl_Stepper_Motor/libraries/sdk/Peripheral/ch32v30x_tim.c:190
  tmpccer &= (uint16_t)(~((uint16_t)TIM_CC2P));
    380c:	fee45783          	lhu	a5,-18(s0)
    3810:	fdf7f793          	andi	a5,a5,-33
    3814:	fef41723          	sh	a5,-18(s0)
D:/projects/mechanical_arm/Ctrl_Stepper_Motor/libraries/sdk/Peripheral/ch32v30x_tim.c:191
  tmpccer |= (uint16_t)(TIM_OCInitStruct->TIM_OCPolarity << 4);
    3818:	fd842783          	lw	a5,-40(s0)
    381c:	0087d783          	lhu	a5,8(a5)
    3820:	0792                	slli	a5,a5,0x4
    3822:	01079713          	slli	a4,a5,0x10
    3826:	8341                	srli	a4,a4,0x10
    3828:	fee45783          	lhu	a5,-18(s0)
    382c:	8fd9                	or	a5,a5,a4
    382e:	fef41723          	sh	a5,-18(s0)
D:/projects/mechanical_arm/Ctrl_Stepper_Motor/libraries/sdk/Peripheral/ch32v30x_tim.c:192
  tmpccer |= (uint16_t)(TIM_OCInitStruct->TIM_OutputState << 4);
    3832:	fd842783          	lw	a5,-40(s0)
    3836:	0027d783          	lhu	a5,2(a5)
    383a:	0792                	slli	a5,a5,0x4
    383c:	01079713          	slli	a4,a5,0x10
    3840:	8341                	srli	a4,a4,0x10
    3842:	fee45783          	lhu	a5,-18(s0)
    3846:	8fd9                	or	a5,a5,a4
    3848:	fef41723          	sh	a5,-18(s0)
D:/projects/mechanical_arm/Ctrl_Stepper_Motor/libraries/sdk/Peripheral/ch32v30x_tim.c:194
    
  if((TIMx == TIM1) || (TIMx == TIM8) || (TIMx == TIM9)|| (TIMx == TIM10))
    384c:	fdc42703          	lw	a4,-36(s0)
    3850:	400137b7          	lui	a5,0x40013
    3854:	c0078793          	addi	a5,a5,-1024 # 40012c00 <_eusrstack+0x20002c00>
    3858:	02f70863          	beq	a4,a5,3888 <TIM_OC2Init+0x10a>
D:/projects/mechanical_arm/Ctrl_Stepper_Motor/libraries/sdk/Peripheral/ch32v30x_tim.c:194 (discriminator 1)
    385c:	fdc42703          	lw	a4,-36(s0)
    3860:	400137b7          	lui	a5,0x40013
    3864:	40078793          	addi	a5,a5,1024 # 40013400 <_eusrstack+0x20003400>
    3868:	02f70063          	beq	a4,a5,3888 <TIM_OC2Init+0x10a>
D:/projects/mechanical_arm/Ctrl_Stepper_Motor/libraries/sdk/Peripheral/ch32v30x_tim.c:194 (discriminator 2)
    386c:	fdc42703          	lw	a4,-36(s0)
    3870:	400157b7          	lui	a5,0x40015
    3874:	c0078793          	addi	a5,a5,-1024 # 40014c00 <_eusrstack+0x20004c00>
    3878:	00f70863          	beq	a4,a5,3888 <TIM_OC2Init+0x10a>
D:/projects/mechanical_arm/Ctrl_Stepper_Motor/libraries/sdk/Peripheral/ch32v30x_tim.c:194 (discriminator 3)
    387c:	fdc42703          	lw	a4,-36(s0)
    3880:	400157b7          	lui	a5,0x40015
    3884:	0af71063          	bne	a4,a5,3924 <TIM_OC2Init+0x1a6>
D:/projects/mechanical_arm/Ctrl_Stepper_Motor/libraries/sdk/Peripheral/ch32v30x_tim.c:196
  {
    tmpccer &= (uint16_t)(~((uint16_t)TIM_CC2NP));
    3888:	fee45783          	lhu	a5,-18(s0)
    388c:	f7f7f793          	andi	a5,a5,-129
    3890:	fef41723          	sh	a5,-18(s0)
D:/projects/mechanical_arm/Ctrl_Stepper_Motor/libraries/sdk/Peripheral/ch32v30x_tim.c:197
    tmpccer |= (uint16_t)(TIM_OCInitStruct->TIM_OCNPolarity << 4);
    3894:	fd842783          	lw	a5,-40(s0)
    3898:	00a7d783          	lhu	a5,10(a5) # 4001500a <_eusrstack+0x2000500a>
    389c:	0792                	slli	a5,a5,0x4
    389e:	01079713          	slli	a4,a5,0x10
    38a2:	8341                	srli	a4,a4,0x10
    38a4:	fee45783          	lhu	a5,-18(s0)
    38a8:	8fd9                	or	a5,a5,a4
    38aa:	fef41723          	sh	a5,-18(s0)
D:/projects/mechanical_arm/Ctrl_Stepper_Motor/libraries/sdk/Peripheral/ch32v30x_tim.c:198
    tmpccer &= (uint16_t)(~((uint16_t)TIM_CC2NE));    
    38ae:	fee45783          	lhu	a5,-18(s0)
    38b2:	fbf7f793          	andi	a5,a5,-65
    38b6:	fef41723          	sh	a5,-18(s0)
D:/projects/mechanical_arm/Ctrl_Stepper_Motor/libraries/sdk/Peripheral/ch32v30x_tim.c:199
    tmpccer |= (uint16_t)(TIM_OCInitStruct->TIM_OutputNState << 4);
    38ba:	fd842783          	lw	a5,-40(s0)
    38be:	0047d783          	lhu	a5,4(a5)
    38c2:	0792                	slli	a5,a5,0x4
    38c4:	01079713          	slli	a4,a5,0x10
    38c8:	8341                	srli	a4,a4,0x10
    38ca:	fee45783          	lhu	a5,-18(s0)
    38ce:	8fd9                	or	a5,a5,a4
    38d0:	fef41723          	sh	a5,-18(s0)
D:/projects/mechanical_arm/Ctrl_Stepper_Motor/libraries/sdk/Peripheral/ch32v30x_tim.c:201
    
    tmpcr2 &= (uint16_t)(~((uint16_t)TIM_OIS2));
    38d4:	fec45783          	lhu	a5,-20(s0)
    38d8:	bff7f793          	andi	a5,a5,-1025
    38dc:	fef41623          	sh	a5,-20(s0)
D:/projects/mechanical_arm/Ctrl_Stepper_Motor/libraries/sdk/Peripheral/ch32v30x_tim.c:202
    tmpcr2 &= (uint16_t)(~((uint16_t)TIM_OIS2N));
    38e0:	fec45703          	lhu	a4,-20(s0)
    38e4:	77fd                	lui	a5,0xfffff
    38e6:	7ff78793          	addi	a5,a5,2047 # fffff7ff <_eusrstack+0xdffef7ff>
    38ea:	8ff9                	and	a5,a5,a4
    38ec:	fef41623          	sh	a5,-20(s0)
D:/projects/mechanical_arm/Ctrl_Stepper_Motor/libraries/sdk/Peripheral/ch32v30x_tim.c:203
    tmpcr2 |= (uint16_t)(TIM_OCInitStruct->TIM_OCIdleState << 2);
    38f0:	fd842783          	lw	a5,-40(s0)
    38f4:	00c7d783          	lhu	a5,12(a5)
    38f8:	078a                	slli	a5,a5,0x2
    38fa:	01079713          	slli	a4,a5,0x10
    38fe:	8341                	srli	a4,a4,0x10
    3900:	fec45783          	lhu	a5,-20(s0)
    3904:	8fd9                	or	a5,a5,a4
    3906:	fef41623          	sh	a5,-20(s0)
D:/projects/mechanical_arm/Ctrl_Stepper_Motor/libraries/sdk/Peripheral/ch32v30x_tim.c:204
    tmpcr2 |= (uint16_t)(TIM_OCInitStruct->TIM_OCNIdleState << 2);
    390a:	fd842783          	lw	a5,-40(s0)
    390e:	00e7d783          	lhu	a5,14(a5)
    3912:	078a                	slli	a5,a5,0x2
    3914:	01079713          	slli	a4,a5,0x10
    3918:	8341                	srli	a4,a4,0x10
    391a:	fec45783          	lhu	a5,-20(s0)
    391e:	8fd9                	or	a5,a5,a4
    3920:	fef41623          	sh	a5,-20(s0)
D:/projects/mechanical_arm/Ctrl_Stepper_Motor/libraries/sdk/Peripheral/ch32v30x_tim.c:207
  }

  TIMx->CTLR2 = tmpcr2;
    3924:	fdc42783          	lw	a5,-36(s0)
    3928:	fec45703          	lhu	a4,-20(s0)
    392c:	00e79223          	sh	a4,4(a5)
D:/projects/mechanical_arm/Ctrl_Stepper_Motor/libraries/sdk/Peripheral/ch32v30x_tim.c:208
  TIMx->CHCTLR1 = tmpccmrx;
    3930:	fdc42783          	lw	a5,-36(s0)
    3934:	fea45703          	lhu	a4,-22(s0)
    3938:	00e79c23          	sh	a4,24(a5)
D:/projects/mechanical_arm/Ctrl_Stepper_Motor/libraries/sdk/Peripheral/ch32v30x_tim.c:209
  TIMx->CH2CVR = TIM_OCInitStruct->TIM_Pulse;
    393c:	fd842783          	lw	a5,-40(s0)
    3940:	0067d703          	lhu	a4,6(a5)
    3944:	fdc42783          	lw	a5,-36(s0)
    3948:	02e79c23          	sh	a4,56(a5)
D:/projects/mechanical_arm/Ctrl_Stepper_Motor/libraries/sdk/Peripheral/ch32v30x_tim.c:210
  TIMx->CCER = tmpccer;
    394c:	fdc42783          	lw	a5,-36(s0)
    3950:	fee45703          	lhu	a4,-18(s0)
    3954:	02e79023          	sh	a4,32(a5)
D:/projects/mechanical_arm/Ctrl_Stepper_Motor/libraries/sdk/Peripheral/ch32v30x_tim.c:211
}
    3958:	0001                	nop
    395a:	5432                	lw	s0,44(sp)
    395c:	6145                	addi	sp,sp,48
    395e:	8082                	ret

00003960 <TIM_OC3Init>:
TIM_OC3Init():
D:/projects/mechanical_arm/Ctrl_Stepper_Motor/libraries/sdk/Peripheral/ch32v30x_tim.c:222
* Input          : TIMx: where x can be 1 to 4 to select the TIM peripheral.
*                  TIM_OCInitStruct: pointer to a TIM_OCInitTypeDef structure.
* Return         : None
*******************************************************************************/
void TIM_OC3Init(TIM_TypeDef* TIMx, TIM_OCInitTypeDef* TIM_OCInitStruct)
{
    3960:	7179                	addi	sp,sp,-48
    3962:	d622                	sw	s0,44(sp)
    3964:	1800                	addi	s0,sp,48
    3966:	fca42e23          	sw	a0,-36(s0)
    396a:	fcb42c23          	sw	a1,-40(s0)
D:/projects/mechanical_arm/Ctrl_Stepper_Motor/libraries/sdk/Peripheral/ch32v30x_tim.c:223
  uint16_t tmpccmrx = 0, tmpccer = 0, tmpcr2 = 0;
    396e:	fe041523          	sh	zero,-22(s0)
    3972:	fe041723          	sh	zero,-18(s0)
    3976:	fe041623          	sh	zero,-20(s0)
D:/projects/mechanical_arm/Ctrl_Stepper_Motor/libraries/sdk/Peripheral/ch32v30x_tim.c:225
   
  TIMx->CCER &= (uint16_t)(~((uint16_t)TIM_CC3E));
    397a:	fdc42783          	lw	a5,-36(s0)
    397e:	0207d783          	lhu	a5,32(a5)
    3982:	07c2                	slli	a5,a5,0x10
    3984:	83c1                	srli	a5,a5,0x10
    3986:	eff7f793          	andi	a5,a5,-257
    398a:	01079713          	slli	a4,a5,0x10
    398e:	8341                	srli	a4,a4,0x10
    3990:	fdc42783          	lw	a5,-36(s0)
    3994:	02e79023          	sh	a4,32(a5)
D:/projects/mechanical_arm/Ctrl_Stepper_Motor/libraries/sdk/Peripheral/ch32v30x_tim.c:226
  tmpccer = TIMx->CCER;
    3998:	fdc42783          	lw	a5,-36(s0)
    399c:	0207d783          	lhu	a5,32(a5)
    39a0:	fef41723          	sh	a5,-18(s0)
D:/projects/mechanical_arm/Ctrl_Stepper_Motor/libraries/sdk/Peripheral/ch32v30x_tim.c:227
  tmpcr2 =  TIMx->CTLR2;
    39a4:	fdc42783          	lw	a5,-36(s0)
    39a8:	0047d783          	lhu	a5,4(a5)
    39ac:	fef41623          	sh	a5,-20(s0)
D:/projects/mechanical_arm/Ctrl_Stepper_Motor/libraries/sdk/Peripheral/ch32v30x_tim.c:228
  tmpccmrx = TIMx->CHCTLR2;
    39b0:	fdc42783          	lw	a5,-36(s0)
    39b4:	01c7d783          	lhu	a5,28(a5)
    39b8:	fef41523          	sh	a5,-22(s0)
D:/projects/mechanical_arm/Ctrl_Stepper_Motor/libraries/sdk/Peripheral/ch32v30x_tim.c:229
  tmpccmrx &= (uint16_t)(~((uint16_t)TIM_OC3M));
    39bc:	fea45783          	lhu	a5,-22(s0)
    39c0:	f8f7f793          	andi	a5,a5,-113
    39c4:	fef41523          	sh	a5,-22(s0)
D:/projects/mechanical_arm/Ctrl_Stepper_Motor/libraries/sdk/Peripheral/ch32v30x_tim.c:230
  tmpccmrx &= (uint16_t)(~((uint16_t)TIM_CC3S));  
    39c8:	fea45783          	lhu	a5,-22(s0)
    39cc:	9bf1                	andi	a5,a5,-4
    39ce:	fef41523          	sh	a5,-22(s0)
D:/projects/mechanical_arm/Ctrl_Stepper_Motor/libraries/sdk/Peripheral/ch32v30x_tim.c:231
  tmpccmrx |= TIM_OCInitStruct->TIM_OCMode;
    39d2:	fd842783          	lw	a5,-40(s0)
    39d6:	0007d703          	lhu	a4,0(a5)
    39da:	fea45783          	lhu	a5,-22(s0)
    39de:	8fd9                	or	a5,a5,a4
    39e0:	fef41523          	sh	a5,-22(s0)
D:/projects/mechanical_arm/Ctrl_Stepper_Motor/libraries/sdk/Peripheral/ch32v30x_tim.c:232
  tmpccer &= (uint16_t)(~((uint16_t)TIM_CC3P));
    39e4:	fee45783          	lhu	a5,-18(s0)
    39e8:	dff7f793          	andi	a5,a5,-513
    39ec:	fef41723          	sh	a5,-18(s0)
D:/projects/mechanical_arm/Ctrl_Stepper_Motor/libraries/sdk/Peripheral/ch32v30x_tim.c:233
  tmpccer |= (uint16_t)(TIM_OCInitStruct->TIM_OCPolarity << 8);
    39f0:	fd842783          	lw	a5,-40(s0)
    39f4:	0087d783          	lhu	a5,8(a5)
    39f8:	07a2                	slli	a5,a5,0x8
    39fa:	01079713          	slli	a4,a5,0x10
    39fe:	8341                	srli	a4,a4,0x10
    3a00:	fee45783          	lhu	a5,-18(s0)
    3a04:	8fd9                	or	a5,a5,a4
    3a06:	fef41723          	sh	a5,-18(s0)
D:/projects/mechanical_arm/Ctrl_Stepper_Motor/libraries/sdk/Peripheral/ch32v30x_tim.c:234
  tmpccer |= (uint16_t)(TIM_OCInitStruct->TIM_OutputState << 8);
    3a0a:	fd842783          	lw	a5,-40(s0)
    3a0e:	0027d783          	lhu	a5,2(a5)
    3a12:	07a2                	slli	a5,a5,0x8
    3a14:	01079713          	slli	a4,a5,0x10
    3a18:	8341                	srli	a4,a4,0x10
    3a1a:	fee45783          	lhu	a5,-18(s0)
    3a1e:	8fd9                	or	a5,a5,a4
    3a20:	fef41723          	sh	a5,-18(s0)
D:/projects/mechanical_arm/Ctrl_Stepper_Motor/libraries/sdk/Peripheral/ch32v30x_tim.c:236
    
  if((TIMx == TIM1) || (TIMx == TIM8) || (TIMx == TIM9)|| (TIMx == TIM10))
    3a24:	fdc42703          	lw	a4,-36(s0)
    3a28:	400137b7          	lui	a5,0x40013
    3a2c:	c0078793          	addi	a5,a5,-1024 # 40012c00 <_eusrstack+0x20002c00>
    3a30:	02f70863          	beq	a4,a5,3a60 <TIM_OC3Init+0x100>
D:/projects/mechanical_arm/Ctrl_Stepper_Motor/libraries/sdk/Peripheral/ch32v30x_tim.c:236 (discriminator 1)
    3a34:	fdc42703          	lw	a4,-36(s0)
    3a38:	400137b7          	lui	a5,0x40013
    3a3c:	40078793          	addi	a5,a5,1024 # 40013400 <_eusrstack+0x20003400>
    3a40:	02f70063          	beq	a4,a5,3a60 <TIM_OC3Init+0x100>
D:/projects/mechanical_arm/Ctrl_Stepper_Motor/libraries/sdk/Peripheral/ch32v30x_tim.c:236 (discriminator 2)
    3a44:	fdc42703          	lw	a4,-36(s0)
    3a48:	400157b7          	lui	a5,0x40015
    3a4c:	c0078793          	addi	a5,a5,-1024 # 40014c00 <_eusrstack+0x20004c00>
    3a50:	00f70863          	beq	a4,a5,3a60 <TIM_OC3Init+0x100>
D:/projects/mechanical_arm/Ctrl_Stepper_Motor/libraries/sdk/Peripheral/ch32v30x_tim.c:236 (discriminator 3)
    3a54:	fdc42703          	lw	a4,-36(s0)
    3a58:	400157b7          	lui	a5,0x40015
    3a5c:	0af71263          	bne	a4,a5,3b00 <TIM_OC3Init+0x1a0>
D:/projects/mechanical_arm/Ctrl_Stepper_Motor/libraries/sdk/Peripheral/ch32v30x_tim.c:238
  {
    tmpccer &= (uint16_t)(~((uint16_t)TIM_CC3NP));
    3a60:	fee45703          	lhu	a4,-18(s0)
    3a64:	77fd                	lui	a5,0xfffff
    3a66:	7ff78793          	addi	a5,a5,2047 # fffff7ff <_eusrstack+0xdffef7ff>
    3a6a:	8ff9                	and	a5,a5,a4
    3a6c:	fef41723          	sh	a5,-18(s0)
D:/projects/mechanical_arm/Ctrl_Stepper_Motor/libraries/sdk/Peripheral/ch32v30x_tim.c:239
    tmpccer |= (uint16_t)(TIM_OCInitStruct->TIM_OCNPolarity << 8);
    3a70:	fd842783          	lw	a5,-40(s0)
    3a74:	00a7d783          	lhu	a5,10(a5)
    3a78:	07a2                	slli	a5,a5,0x8
    3a7a:	01079713          	slli	a4,a5,0x10
    3a7e:	8341                	srli	a4,a4,0x10
    3a80:	fee45783          	lhu	a5,-18(s0)
    3a84:	8fd9                	or	a5,a5,a4
    3a86:	fef41723          	sh	a5,-18(s0)
D:/projects/mechanical_arm/Ctrl_Stepper_Motor/libraries/sdk/Peripheral/ch32v30x_tim.c:240
    tmpccer &= (uint16_t)(~((uint16_t)TIM_CC3NE));
    3a8a:	fee45783          	lhu	a5,-18(s0)
    3a8e:	bff7f793          	andi	a5,a5,-1025
    3a92:	fef41723          	sh	a5,-18(s0)
D:/projects/mechanical_arm/Ctrl_Stepper_Motor/libraries/sdk/Peripheral/ch32v30x_tim.c:241
    tmpccer |= (uint16_t)(TIM_OCInitStruct->TIM_OutputNState << 8);
    3a96:	fd842783          	lw	a5,-40(s0)
    3a9a:	0047d783          	lhu	a5,4(a5)
    3a9e:	07a2                	slli	a5,a5,0x8
    3aa0:	01079713          	slli	a4,a5,0x10
    3aa4:	8341                	srli	a4,a4,0x10
    3aa6:	fee45783          	lhu	a5,-18(s0)
    3aaa:	8fd9                	or	a5,a5,a4
    3aac:	fef41723          	sh	a5,-18(s0)
D:/projects/mechanical_arm/Ctrl_Stepper_Motor/libraries/sdk/Peripheral/ch32v30x_tim.c:242
    tmpcr2 &= (uint16_t)(~((uint16_t)TIM_OIS3));
    3ab0:	fec45703          	lhu	a4,-20(s0)
    3ab4:	77fd                	lui	a5,0xfffff
    3ab6:	17fd                	addi	a5,a5,-1
    3ab8:	8ff9                	and	a5,a5,a4
    3aba:	fef41623          	sh	a5,-20(s0)
D:/projects/mechanical_arm/Ctrl_Stepper_Motor/libraries/sdk/Peripheral/ch32v30x_tim.c:243
    tmpcr2 &= (uint16_t)(~((uint16_t)TIM_OIS3N));
    3abe:	fec45703          	lhu	a4,-20(s0)
    3ac2:	77f9                	lui	a5,0xffffe
    3ac4:	17fd                	addi	a5,a5,-1
    3ac6:	8ff9                	and	a5,a5,a4
    3ac8:	fef41623          	sh	a5,-20(s0)
D:/projects/mechanical_arm/Ctrl_Stepper_Motor/libraries/sdk/Peripheral/ch32v30x_tim.c:244
    tmpcr2 |= (uint16_t)(TIM_OCInitStruct->TIM_OCIdleState << 4);
    3acc:	fd842783          	lw	a5,-40(s0)
    3ad0:	00c7d783          	lhu	a5,12(a5) # ffffe00c <_eusrstack+0xdffee00c>
    3ad4:	0792                	slli	a5,a5,0x4
    3ad6:	01079713          	slli	a4,a5,0x10
    3ada:	8341                	srli	a4,a4,0x10
    3adc:	fec45783          	lhu	a5,-20(s0)
    3ae0:	8fd9                	or	a5,a5,a4
    3ae2:	fef41623          	sh	a5,-20(s0)
D:/projects/mechanical_arm/Ctrl_Stepper_Motor/libraries/sdk/Peripheral/ch32v30x_tim.c:245
    tmpcr2 |= (uint16_t)(TIM_OCInitStruct->TIM_OCNIdleState << 4);
    3ae6:	fd842783          	lw	a5,-40(s0)
    3aea:	00e7d783          	lhu	a5,14(a5)
    3aee:	0792                	slli	a5,a5,0x4
    3af0:	01079713          	slli	a4,a5,0x10
    3af4:	8341                	srli	a4,a4,0x10
    3af6:	fec45783          	lhu	a5,-20(s0)
    3afa:	8fd9                	or	a5,a5,a4
    3afc:	fef41623          	sh	a5,-20(s0)
D:/projects/mechanical_arm/Ctrl_Stepper_Motor/libraries/sdk/Peripheral/ch32v30x_tim.c:248
  }

  TIMx->CTLR2 = tmpcr2;
    3b00:	fdc42783          	lw	a5,-36(s0)
    3b04:	fec45703          	lhu	a4,-20(s0)
    3b08:	00e79223          	sh	a4,4(a5)
D:/projects/mechanical_arm/Ctrl_Stepper_Motor/libraries/sdk/Peripheral/ch32v30x_tim.c:249
  TIMx->CHCTLR2 = tmpccmrx;
    3b0c:	fdc42783          	lw	a5,-36(s0)
    3b10:	fea45703          	lhu	a4,-22(s0)
    3b14:	00e79e23          	sh	a4,28(a5)
D:/projects/mechanical_arm/Ctrl_Stepper_Motor/libraries/sdk/Peripheral/ch32v30x_tim.c:250
  TIMx->CH3CVR = TIM_OCInitStruct->TIM_Pulse;
    3b18:	fd842783          	lw	a5,-40(s0)
    3b1c:	0067d703          	lhu	a4,6(a5)
    3b20:	fdc42783          	lw	a5,-36(s0)
    3b24:	02e79e23          	sh	a4,60(a5)
D:/projects/mechanical_arm/Ctrl_Stepper_Motor/libraries/sdk/Peripheral/ch32v30x_tim.c:251
  TIMx->CCER = tmpccer;
    3b28:	fdc42783          	lw	a5,-36(s0)
    3b2c:	fee45703          	lhu	a4,-18(s0)
    3b30:	02e79023          	sh	a4,32(a5)
D:/projects/mechanical_arm/Ctrl_Stepper_Motor/libraries/sdk/Peripheral/ch32v30x_tim.c:252
}
    3b34:	0001                	nop
    3b36:	5432                	lw	s0,44(sp)
    3b38:	6145                	addi	sp,sp,48
    3b3a:	8082                	ret

00003b3c <TIM_OC4Init>:
TIM_OC4Init():
D:/projects/mechanical_arm/Ctrl_Stepper_Motor/libraries/sdk/Peripheral/ch32v30x_tim.c:263
* Input          : TIMx: where x can be 1 to 4 to select the TIM peripheral.
*                  TIM_OCInitStruct: pointer to a TIM_OCInitTypeDef structure.
* Return         : None
*******************************************************************************/
void TIM_OC4Init(TIM_TypeDef* TIMx, TIM_OCInitTypeDef* TIM_OCInitStruct)
{
    3b3c:	7179                	addi	sp,sp,-48
    3b3e:	d622                	sw	s0,44(sp)
    3b40:	1800                	addi	s0,sp,48
    3b42:	fca42e23          	sw	a0,-36(s0)
    3b46:	fcb42c23          	sw	a1,-40(s0)
D:/projects/mechanical_arm/Ctrl_Stepper_Motor/libraries/sdk/Peripheral/ch32v30x_tim.c:264
  uint16_t tmpccmrx = 0, tmpccer = 0, tmpcr2 = 0;
    3b4a:	fe041623          	sh	zero,-20(s0)
    3b4e:	fe041523          	sh	zero,-22(s0)
    3b52:	fe041723          	sh	zero,-18(s0)
D:/projects/mechanical_arm/Ctrl_Stepper_Motor/libraries/sdk/Peripheral/ch32v30x_tim.c:266

  TIMx->CCER &= (uint16_t)(~((uint16_t)TIM_CC4E));
    3b56:	fdc42783          	lw	a5,-36(s0)
    3b5a:	0207d783          	lhu	a5,32(a5)
    3b5e:	01079713          	slli	a4,a5,0x10
    3b62:	8341                	srli	a4,a4,0x10
    3b64:	77fd                	lui	a5,0xfffff
    3b66:	17fd                	addi	a5,a5,-1
    3b68:	8ff9                	and	a5,a5,a4
    3b6a:	01079713          	slli	a4,a5,0x10
    3b6e:	8341                	srli	a4,a4,0x10
    3b70:	fdc42783          	lw	a5,-36(s0)
    3b74:	02e79023          	sh	a4,32(a5) # fffff020 <_eusrstack+0xdffef020>
D:/projects/mechanical_arm/Ctrl_Stepper_Motor/libraries/sdk/Peripheral/ch32v30x_tim.c:267
  tmpccer = TIMx->CCER;
    3b78:	fdc42783          	lw	a5,-36(s0)
    3b7c:	0207d783          	lhu	a5,32(a5)
    3b80:	fef41523          	sh	a5,-22(s0)
D:/projects/mechanical_arm/Ctrl_Stepper_Motor/libraries/sdk/Peripheral/ch32v30x_tim.c:268
  tmpcr2 =  TIMx->CTLR2;
    3b84:	fdc42783          	lw	a5,-36(s0)
    3b88:	0047d783          	lhu	a5,4(a5)
    3b8c:	fef41723          	sh	a5,-18(s0)
D:/projects/mechanical_arm/Ctrl_Stepper_Motor/libraries/sdk/Peripheral/ch32v30x_tim.c:269
  tmpccmrx = TIMx->CHCTLR2;
    3b90:	fdc42783          	lw	a5,-36(s0)
    3b94:	01c7d783          	lhu	a5,28(a5)
    3b98:	fef41623          	sh	a5,-20(s0)
D:/projects/mechanical_arm/Ctrl_Stepper_Motor/libraries/sdk/Peripheral/ch32v30x_tim.c:270
  tmpccmrx &= (uint16_t)(~((uint16_t)TIM_OC4M));
    3b9c:	fec45703          	lhu	a4,-20(s0)
    3ba0:	77e5                	lui	a5,0xffff9
    3ba2:	17fd                	addi	a5,a5,-1
    3ba4:	8ff9                	and	a5,a5,a4
    3ba6:	fef41623          	sh	a5,-20(s0)
D:/projects/mechanical_arm/Ctrl_Stepper_Motor/libraries/sdk/Peripheral/ch32v30x_tim.c:271
  tmpccmrx &= (uint16_t)(~((uint16_t)TIM_CC4S));
    3baa:	fec45783          	lhu	a5,-20(s0)
    3bae:	cff7f793          	andi	a5,a5,-769
    3bb2:	fef41623          	sh	a5,-20(s0)
D:/projects/mechanical_arm/Ctrl_Stepper_Motor/libraries/sdk/Peripheral/ch32v30x_tim.c:272
  tmpccmrx |= (uint16_t)(TIM_OCInitStruct->TIM_OCMode << 8);
    3bb6:	fd842783          	lw	a5,-40(s0)
    3bba:	0007d783          	lhu	a5,0(a5) # ffff9000 <_eusrstack+0xdffe9000>
    3bbe:	07a2                	slli	a5,a5,0x8
    3bc0:	01079713          	slli	a4,a5,0x10
    3bc4:	8341                	srli	a4,a4,0x10
    3bc6:	fec45783          	lhu	a5,-20(s0)
    3bca:	8fd9                	or	a5,a5,a4
    3bcc:	fef41623          	sh	a5,-20(s0)
D:/projects/mechanical_arm/Ctrl_Stepper_Motor/libraries/sdk/Peripheral/ch32v30x_tim.c:273
  tmpccer &= (uint16_t)(~((uint16_t)TIM_CC4P));
    3bd0:	fea45703          	lhu	a4,-22(s0)
    3bd4:	77f9                	lui	a5,0xffffe
    3bd6:	17fd                	addi	a5,a5,-1
    3bd8:	8ff9                	and	a5,a5,a4
    3bda:	fef41523          	sh	a5,-22(s0)
D:/projects/mechanical_arm/Ctrl_Stepper_Motor/libraries/sdk/Peripheral/ch32v30x_tim.c:274
  tmpccer |= (uint16_t)(TIM_OCInitStruct->TIM_OCPolarity << 12);
    3bde:	fd842783          	lw	a5,-40(s0)
    3be2:	0087d783          	lhu	a5,8(a5) # ffffe008 <_eusrstack+0xdffee008>
    3be6:	07b2                	slli	a5,a5,0xc
    3be8:	01079713          	slli	a4,a5,0x10
    3bec:	8341                	srli	a4,a4,0x10
    3bee:	fea45783          	lhu	a5,-22(s0)
    3bf2:	8fd9                	or	a5,a5,a4
    3bf4:	fef41523          	sh	a5,-22(s0)
D:/projects/mechanical_arm/Ctrl_Stepper_Motor/libraries/sdk/Peripheral/ch32v30x_tim.c:275
  tmpccer |= (uint16_t)(TIM_OCInitStruct->TIM_OutputState << 12);
    3bf8:	fd842783          	lw	a5,-40(s0)
    3bfc:	0027d783          	lhu	a5,2(a5)
    3c00:	07b2                	slli	a5,a5,0xc
    3c02:	01079713          	slli	a4,a5,0x10
    3c06:	8341                	srli	a4,a4,0x10
    3c08:	fea45783          	lhu	a5,-22(s0)
    3c0c:	8fd9                	or	a5,a5,a4
    3c0e:	fef41523          	sh	a5,-22(s0)
D:/projects/mechanical_arm/Ctrl_Stepper_Motor/libraries/sdk/Peripheral/ch32v30x_tim.c:277
    
  if((TIMx == TIM1) || (TIMx == TIM8) || (TIMx == TIM9)|| (TIMx == TIM10))
    3c12:	fdc42703          	lw	a4,-36(s0)
    3c16:	400137b7          	lui	a5,0x40013
    3c1a:	c0078793          	addi	a5,a5,-1024 # 40012c00 <_eusrstack+0x20002c00>
    3c1e:	02f70863          	beq	a4,a5,3c4e <TIM_OC4Init+0x112>
D:/projects/mechanical_arm/Ctrl_Stepper_Motor/libraries/sdk/Peripheral/ch32v30x_tim.c:277 (discriminator 1)
    3c22:	fdc42703          	lw	a4,-36(s0)
    3c26:	400137b7          	lui	a5,0x40013
    3c2a:	40078793          	addi	a5,a5,1024 # 40013400 <_eusrstack+0x20003400>
    3c2e:	02f70063          	beq	a4,a5,3c4e <TIM_OC4Init+0x112>
D:/projects/mechanical_arm/Ctrl_Stepper_Motor/libraries/sdk/Peripheral/ch32v30x_tim.c:277 (discriminator 2)
    3c32:	fdc42703          	lw	a4,-36(s0)
    3c36:	400157b7          	lui	a5,0x40015
    3c3a:	c0078793          	addi	a5,a5,-1024 # 40014c00 <_eusrstack+0x20004c00>
    3c3e:	00f70863          	beq	a4,a5,3c4e <TIM_OC4Init+0x112>
D:/projects/mechanical_arm/Ctrl_Stepper_Motor/libraries/sdk/Peripheral/ch32v30x_tim.c:277 (discriminator 3)
    3c42:	fdc42703          	lw	a4,-36(s0)
    3c46:	400157b7          	lui	a5,0x40015
    3c4a:	02f71663          	bne	a4,a5,3c76 <TIM_OC4Init+0x13a>
D:/projects/mechanical_arm/Ctrl_Stepper_Motor/libraries/sdk/Peripheral/ch32v30x_tim.c:279
  {
    tmpcr2 &= (uint16_t)(~((uint16_t)TIM_OIS4));
    3c4e:	fee45703          	lhu	a4,-18(s0)
    3c52:	77f1                	lui	a5,0xffffc
    3c54:	17fd                	addi	a5,a5,-1
    3c56:	8ff9                	and	a5,a5,a4
    3c58:	fef41723          	sh	a5,-18(s0)
D:/projects/mechanical_arm/Ctrl_Stepper_Motor/libraries/sdk/Peripheral/ch32v30x_tim.c:280
    tmpcr2 |= (uint16_t)(TIM_OCInitStruct->TIM_OCIdleState << 6);
    3c5c:	fd842783          	lw	a5,-40(s0)
    3c60:	00c7d783          	lhu	a5,12(a5) # ffffc00c <_eusrstack+0xdffec00c>
    3c64:	079a                	slli	a5,a5,0x6
    3c66:	01079713          	slli	a4,a5,0x10
    3c6a:	8341                	srli	a4,a4,0x10
    3c6c:	fee45783          	lhu	a5,-18(s0)
    3c70:	8fd9                	or	a5,a5,a4
    3c72:	fef41723          	sh	a5,-18(s0)
D:/projects/mechanical_arm/Ctrl_Stepper_Motor/libraries/sdk/Peripheral/ch32v30x_tim.c:283
  }

  TIMx->CTLR2 = tmpcr2; 
    3c76:	fdc42783          	lw	a5,-36(s0)
    3c7a:	fee45703          	lhu	a4,-18(s0)
    3c7e:	00e79223          	sh	a4,4(a5)
D:/projects/mechanical_arm/Ctrl_Stepper_Motor/libraries/sdk/Peripheral/ch32v30x_tim.c:284
  TIMx->CHCTLR2 = tmpccmrx;
    3c82:	fdc42783          	lw	a5,-36(s0)
    3c86:	fec45703          	lhu	a4,-20(s0)
    3c8a:	00e79e23          	sh	a4,28(a5)
D:/projects/mechanical_arm/Ctrl_Stepper_Motor/libraries/sdk/Peripheral/ch32v30x_tim.c:285
  TIMx->CH4CVR = TIM_OCInitStruct->TIM_Pulse;
    3c8e:	fd842783          	lw	a5,-40(s0)
    3c92:	0067d703          	lhu	a4,6(a5)
    3c96:	fdc42783          	lw	a5,-36(s0)
    3c9a:	04e79023          	sh	a4,64(a5)
D:/projects/mechanical_arm/Ctrl_Stepper_Motor/libraries/sdk/Peripheral/ch32v30x_tim.c:286
  TIMx->CCER = tmpccer;
    3c9e:	fdc42783          	lw	a5,-36(s0)
    3ca2:	fea45703          	lhu	a4,-22(s0)
    3ca6:	02e79023          	sh	a4,32(a5)
D:/projects/mechanical_arm/Ctrl_Stepper_Motor/libraries/sdk/Peripheral/ch32v30x_tim.c:287
}
    3caa:	0001                	nop
    3cac:	5432                	lw	s0,44(sp)
    3cae:	6145                	addi	sp,sp,48
    3cb0:	8082                	ret

00003cb2 <TIM_Cmd>:
TIM_Cmd():
D:/projects/mechanical_arm/Ctrl_Stepper_Motor/libraries/sdk/Peripheral/ch32v30x_tim.c:467
* Input          : TIMx: where x can be 1 to 4 to select the TIM peripheral.
*                  NewState: ENABLE or DISABLE.
* Return         : None
*******************************************************************************/
void TIM_Cmd(TIM_TypeDef* TIMx, FunctionalState NewState)
{ 
    3cb2:	1101                	addi	sp,sp,-32
    3cb4:	ce22                	sw	s0,28(sp)
    3cb6:	1000                	addi	s0,sp,32
    3cb8:	fea42623          	sw	a0,-20(s0)
    3cbc:	feb42423          	sw	a1,-24(s0)
D:/projects/mechanical_arm/Ctrl_Stepper_Motor/libraries/sdk/Peripheral/ch32v30x_tim.c:468
  if (NewState != DISABLE)
    3cc0:	fe842783          	lw	a5,-24(s0)
    3cc4:	c38d                	beqz	a5,3ce6 <TIM_Cmd+0x34>
D:/projects/mechanical_arm/Ctrl_Stepper_Motor/libraries/sdk/Peripheral/ch32v30x_tim.c:470
  {
    TIMx->CTLR1 |= TIM_CEN;
    3cc6:	fec42783          	lw	a5,-20(s0)
    3cca:	0007d783          	lhu	a5,0(a5)
    3cce:	07c2                	slli	a5,a5,0x10
    3cd0:	83c1                	srli	a5,a5,0x10
    3cd2:	0017e793          	ori	a5,a5,1
    3cd6:	01079713          	slli	a4,a5,0x10
    3cda:	8341                	srli	a4,a4,0x10
    3cdc:	fec42783          	lw	a5,-20(s0)
    3ce0:	00e79023          	sh	a4,0(a5)
D:/projects/mechanical_arm/Ctrl_Stepper_Motor/libraries/sdk/Peripheral/ch32v30x_tim.c:476
  }
  else
  {
    TIMx->CTLR1 &= (uint16_t)(~((uint16_t)TIM_CEN));
  }
}
    3ce4:	a839                	j	3d02 <TIM_Cmd+0x50>
D:/projects/mechanical_arm/Ctrl_Stepper_Motor/libraries/sdk/Peripheral/ch32v30x_tim.c:474
    TIMx->CTLR1 &= (uint16_t)(~((uint16_t)TIM_CEN));
    3ce6:	fec42783          	lw	a5,-20(s0)
    3cea:	0007d783          	lhu	a5,0(a5)
    3cee:	07c2                	slli	a5,a5,0x10
    3cf0:	83c1                	srli	a5,a5,0x10
    3cf2:	9bf9                	andi	a5,a5,-2
    3cf4:	01079713          	slli	a4,a5,0x10
    3cf8:	8341                	srli	a4,a4,0x10
    3cfa:	fec42783          	lw	a5,-20(s0)
    3cfe:	00e79023          	sh	a4,0(a5)
D:/projects/mechanical_arm/Ctrl_Stepper_Motor/libraries/sdk/Peripheral/ch32v30x_tim.c:476
}
    3d02:	0001                	nop
    3d04:	4472                	lw	s0,28(sp)
    3d06:	6105                	addi	sp,sp,32
    3d08:	8082                	ret

00003d0a <TIM_CtrlPWMOutputs>:
TIM_CtrlPWMOutputs():
D:/projects/mechanical_arm/Ctrl_Stepper_Motor/libraries/sdk/Peripheral/ch32v30x_tim.c:486
* Input          : TIMx: where x can be 1 to 4 to select the TIM peripheral.
*                  NewState: ENABLE or DISABLE.
* Return         : None
*******************************************************************************/
void TIM_CtrlPWMOutputs(TIM_TypeDef* TIMx, FunctionalState NewState)
{
    3d0a:	1101                	addi	sp,sp,-32
    3d0c:	ce22                	sw	s0,28(sp)
    3d0e:	1000                	addi	s0,sp,32
    3d10:	fea42623          	sw	a0,-20(s0)
    3d14:	feb42423          	sw	a1,-24(s0)
D:/projects/mechanical_arm/Ctrl_Stepper_Motor/libraries/sdk/Peripheral/ch32v30x_tim.c:487
  if (NewState != DISABLE)
    3d18:	fe842783          	lw	a5,-24(s0)
    3d1c:	c395                	beqz	a5,3d40 <TIM_CtrlPWMOutputs+0x36>
D:/projects/mechanical_arm/Ctrl_Stepper_Motor/libraries/sdk/Peripheral/ch32v30x_tim.c:489
  {
    TIMx->BDTR |= TIM_MOE;
    3d1e:	fec42783          	lw	a5,-20(s0)
    3d22:	0447d783          	lhu	a5,68(a5)
    3d26:	01079713          	slli	a4,a5,0x10
    3d2a:	8341                	srli	a4,a4,0x10
    3d2c:	77e1                	lui	a5,0xffff8
    3d2e:	8fd9                	or	a5,a5,a4
    3d30:	01079713          	slli	a4,a5,0x10
    3d34:	8341                	srli	a4,a4,0x10
    3d36:	fec42783          	lw	a5,-20(s0)
    3d3a:	04e79223          	sh	a4,68(a5) # ffff8044 <_eusrstack+0xdffe8044>
D:/projects/mechanical_arm/Ctrl_Stepper_Motor/libraries/sdk/Peripheral/ch32v30x_tim.c:495
  }
  else
  {
    TIMx->BDTR &= (uint16_t)(~((uint16_t)TIM_MOE));
  }  
}
    3d3e:	a015                	j	3d62 <TIM_CtrlPWMOutputs+0x58>
D:/projects/mechanical_arm/Ctrl_Stepper_Motor/libraries/sdk/Peripheral/ch32v30x_tim.c:493
    TIMx->BDTR &= (uint16_t)(~((uint16_t)TIM_MOE));
    3d40:	fec42783          	lw	a5,-20(s0)
    3d44:	0447d783          	lhu	a5,68(a5)
    3d48:	01079713          	slli	a4,a5,0x10
    3d4c:	8341                	srli	a4,a4,0x10
    3d4e:	67a1                	lui	a5,0x8
    3d50:	17fd                	addi	a5,a5,-1
    3d52:	8ff9                	and	a5,a5,a4
    3d54:	01079713          	slli	a4,a5,0x10
    3d58:	8341                	srli	a4,a4,0x10
    3d5a:	fec42783          	lw	a5,-20(s0)
    3d5e:	04e79223          	sh	a4,68(a5) # 8044 <_dtoa_r+0x382>
D:/projects/mechanical_arm/Ctrl_Stepper_Motor/libraries/sdk/Peripheral/ch32v30x_tim.c:495
}
    3d62:	0001                	nop
    3d64:	4472                	lw	s0,28(sp)
    3d66:	6105                	addi	sp,sp,32
    3d68:	8082                	ret

00003d6a <TIM_OC1PreloadConfig>:
TIM_OC1PreloadConfig():
D:/projects/mechanical_arm/Ctrl_Stepper_Motor/libraries/sdk/Peripheral/ch32v30x_tim.c:1015
*                    TIM_OCPreload_Enable.
*                    TIM_OCPreload_Disable.
* Return         : None
*******************************************************************************/
void TIM_OC1PreloadConfig(TIM_TypeDef* TIMx, uint16_t TIM_OCPreload)
{
    3d6a:	7179                	addi	sp,sp,-48
    3d6c:	d622                	sw	s0,44(sp)
    3d6e:	1800                	addi	s0,sp,48
    3d70:	fca42e23          	sw	a0,-36(s0)
    3d74:	87ae                	mv	a5,a1
    3d76:	fcf41d23          	sh	a5,-38(s0)
D:/projects/mechanical_arm/Ctrl_Stepper_Motor/libraries/sdk/Peripheral/ch32v30x_tim.c:1016
  uint16_t tmpccmr1 = 0;
    3d7a:	fe041723          	sh	zero,-18(s0)
D:/projects/mechanical_arm/Ctrl_Stepper_Motor/libraries/sdk/Peripheral/ch32v30x_tim.c:1018

  tmpccmr1 = TIMx->CHCTLR1;
    3d7e:	fdc42783          	lw	a5,-36(s0)
    3d82:	0187d783          	lhu	a5,24(a5)
    3d86:	fef41723          	sh	a5,-18(s0)
D:/projects/mechanical_arm/Ctrl_Stepper_Motor/libraries/sdk/Peripheral/ch32v30x_tim.c:1019
  tmpccmr1 &= (uint16_t)~((uint16_t)TIM_OC1PE);
    3d8a:	fee45783          	lhu	a5,-18(s0)
    3d8e:	9bdd                	andi	a5,a5,-9
    3d90:	fef41723          	sh	a5,-18(s0)
D:/projects/mechanical_arm/Ctrl_Stepper_Motor/libraries/sdk/Peripheral/ch32v30x_tim.c:1020
  tmpccmr1 |= TIM_OCPreload;
    3d94:	fee45703          	lhu	a4,-18(s0)
    3d98:	fda45783          	lhu	a5,-38(s0)
    3d9c:	8fd9                	or	a5,a5,a4
    3d9e:	fef41723          	sh	a5,-18(s0)
D:/projects/mechanical_arm/Ctrl_Stepper_Motor/libraries/sdk/Peripheral/ch32v30x_tim.c:1021
  TIMx->CHCTLR1 = tmpccmr1;
    3da2:	fdc42783          	lw	a5,-36(s0)
    3da6:	fee45703          	lhu	a4,-18(s0)
    3daa:	00e79c23          	sh	a4,24(a5)
D:/projects/mechanical_arm/Ctrl_Stepper_Motor/libraries/sdk/Peripheral/ch32v30x_tim.c:1022
}
    3dae:	0001                	nop
    3db0:	5432                	lw	s0,44(sp)
    3db2:	6145                	addi	sp,sp,48
    3db4:	8082                	ret

00003db6 <TIM_OC2PreloadConfig>:
TIM_OC2PreloadConfig():
D:/projects/mechanical_arm/Ctrl_Stepper_Motor/libraries/sdk/Peripheral/ch32v30x_tim.c:1034
*                    TIM_OCPreload_Enable.
*                    TIM_OCPreload_Disable.
* Return         : None
*******************************************************************************/
void TIM_OC2PreloadConfig(TIM_TypeDef* TIMx, uint16_t TIM_OCPreload)
{
    3db6:	7179                	addi	sp,sp,-48
    3db8:	d622                	sw	s0,44(sp)
    3dba:	1800                	addi	s0,sp,48
    3dbc:	fca42e23          	sw	a0,-36(s0)
    3dc0:	87ae                	mv	a5,a1
    3dc2:	fcf41d23          	sh	a5,-38(s0)
D:/projects/mechanical_arm/Ctrl_Stepper_Motor/libraries/sdk/Peripheral/ch32v30x_tim.c:1035
  uint16_t tmpccmr1 = 0;
    3dc6:	fe041723          	sh	zero,-18(s0)
D:/projects/mechanical_arm/Ctrl_Stepper_Motor/libraries/sdk/Peripheral/ch32v30x_tim.c:1037

  tmpccmr1 = TIMx->CHCTLR1;
    3dca:	fdc42783          	lw	a5,-36(s0)
    3dce:	0187d783          	lhu	a5,24(a5)
    3dd2:	fef41723          	sh	a5,-18(s0)
D:/projects/mechanical_arm/Ctrl_Stepper_Motor/libraries/sdk/Peripheral/ch32v30x_tim.c:1038
  tmpccmr1 &= (uint16_t)~((uint16_t)TIM_OC2PE);
    3dd6:	fee45703          	lhu	a4,-18(s0)
    3dda:	77fd                	lui	a5,0xfffff
    3ddc:	7ff78793          	addi	a5,a5,2047 # fffff7ff <_eusrstack+0xdffef7ff>
    3de0:	8ff9                	and	a5,a5,a4
    3de2:	fef41723          	sh	a5,-18(s0)
D:/projects/mechanical_arm/Ctrl_Stepper_Motor/libraries/sdk/Peripheral/ch32v30x_tim.c:1039
  tmpccmr1 |= (uint16_t)(TIM_OCPreload << 8);	
    3de6:	fda45783          	lhu	a5,-38(s0)
    3dea:	07a2                	slli	a5,a5,0x8
    3dec:	01079713          	slli	a4,a5,0x10
    3df0:	8341                	srli	a4,a4,0x10
    3df2:	fee45783          	lhu	a5,-18(s0)
    3df6:	8fd9                	or	a5,a5,a4
    3df8:	fef41723          	sh	a5,-18(s0)
D:/projects/mechanical_arm/Ctrl_Stepper_Motor/libraries/sdk/Peripheral/ch32v30x_tim.c:1040
  TIMx->CHCTLR1 = tmpccmr1;
    3dfc:	fdc42783          	lw	a5,-36(s0)
    3e00:	fee45703          	lhu	a4,-18(s0)
    3e04:	00e79c23          	sh	a4,24(a5)
D:/projects/mechanical_arm/Ctrl_Stepper_Motor/libraries/sdk/Peripheral/ch32v30x_tim.c:1041
}
    3e08:	0001                	nop
    3e0a:	5432                	lw	s0,44(sp)
    3e0c:	6145                	addi	sp,sp,48
    3e0e:	8082                	ret

00003e10 <TIM_OC3PreloadConfig>:
TIM_OC3PreloadConfig():
D:/projects/mechanical_arm/Ctrl_Stepper_Motor/libraries/sdk/Peripheral/ch32v30x_tim.c:1053
*                    TIM_OCPreload_Enable.
*                    TIM_OCPreload_Disable.
* Return         : None
*******************************************************************************/
void TIM_OC3PreloadConfig(TIM_TypeDef* TIMx, uint16_t TIM_OCPreload)
{
    3e10:	7179                	addi	sp,sp,-48
    3e12:	d622                	sw	s0,44(sp)
    3e14:	1800                	addi	s0,sp,48
    3e16:	fca42e23          	sw	a0,-36(s0)
    3e1a:	87ae                	mv	a5,a1
    3e1c:	fcf41d23          	sh	a5,-38(s0)
D:/projects/mechanical_arm/Ctrl_Stepper_Motor/libraries/sdk/Peripheral/ch32v30x_tim.c:1054
  uint16_t tmpccmr2 = 0;
    3e20:	fe041723          	sh	zero,-18(s0)
D:/projects/mechanical_arm/Ctrl_Stepper_Motor/libraries/sdk/Peripheral/ch32v30x_tim.c:1056

  tmpccmr2 = TIMx->CHCTLR2;
    3e24:	fdc42783          	lw	a5,-36(s0)
    3e28:	01c7d783          	lhu	a5,28(a5)
    3e2c:	fef41723          	sh	a5,-18(s0)
D:/projects/mechanical_arm/Ctrl_Stepper_Motor/libraries/sdk/Peripheral/ch32v30x_tim.c:1057
  tmpccmr2 &= (uint16_t)~((uint16_t)TIM_OC3PE);
    3e30:	fee45783          	lhu	a5,-18(s0)
    3e34:	9bdd                	andi	a5,a5,-9
    3e36:	fef41723          	sh	a5,-18(s0)
D:/projects/mechanical_arm/Ctrl_Stepper_Motor/libraries/sdk/Peripheral/ch32v30x_tim.c:1058
  tmpccmr2 |= TIM_OCPreload;
    3e3a:	fee45703          	lhu	a4,-18(s0)
    3e3e:	fda45783          	lhu	a5,-38(s0)
    3e42:	8fd9                	or	a5,a5,a4
    3e44:	fef41723          	sh	a5,-18(s0)
D:/projects/mechanical_arm/Ctrl_Stepper_Motor/libraries/sdk/Peripheral/ch32v30x_tim.c:1059
  TIMx->CHCTLR2 = tmpccmr2;
    3e48:	fdc42783          	lw	a5,-36(s0)
    3e4c:	fee45703          	lhu	a4,-18(s0)
    3e50:	00e79e23          	sh	a4,28(a5)
D:/projects/mechanical_arm/Ctrl_Stepper_Motor/libraries/sdk/Peripheral/ch32v30x_tim.c:1060
}
    3e54:	0001                	nop
    3e56:	5432                	lw	s0,44(sp)
    3e58:	6145                	addi	sp,sp,48
    3e5a:	8082                	ret

00003e5c <TIM_OC4PreloadConfig>:
TIM_OC4PreloadConfig():
D:/projects/mechanical_arm/Ctrl_Stepper_Motor/libraries/sdk/Peripheral/ch32v30x_tim.c:1072
*                    TIM_OCPreload_Enable.
*                    TIM_OCPreload_Disable.
* Return         : None
*******************************************************************************/
void TIM_OC4PreloadConfig(TIM_TypeDef* TIMx, uint16_t TIM_OCPreload)
{
    3e5c:	7179                	addi	sp,sp,-48
    3e5e:	d622                	sw	s0,44(sp)
    3e60:	1800                	addi	s0,sp,48
    3e62:	fca42e23          	sw	a0,-36(s0)
    3e66:	87ae                	mv	a5,a1
    3e68:	fcf41d23          	sh	a5,-38(s0)
D:/projects/mechanical_arm/Ctrl_Stepper_Motor/libraries/sdk/Peripheral/ch32v30x_tim.c:1073
  uint16_t tmpccmr2 = 0;
    3e6c:	fe041723          	sh	zero,-18(s0)
D:/projects/mechanical_arm/Ctrl_Stepper_Motor/libraries/sdk/Peripheral/ch32v30x_tim.c:1075

  tmpccmr2 = TIMx->CHCTLR2;
    3e70:	fdc42783          	lw	a5,-36(s0)
    3e74:	01c7d783          	lhu	a5,28(a5)
    3e78:	fef41723          	sh	a5,-18(s0)
D:/projects/mechanical_arm/Ctrl_Stepper_Motor/libraries/sdk/Peripheral/ch32v30x_tim.c:1076
  tmpccmr2 &= (uint16_t)~((uint16_t)TIM_OC4PE);
    3e7c:	fee45703          	lhu	a4,-18(s0)
    3e80:	77fd                	lui	a5,0xfffff
    3e82:	7ff78793          	addi	a5,a5,2047 # fffff7ff <_eusrstack+0xdffef7ff>
    3e86:	8ff9                	and	a5,a5,a4
    3e88:	fef41723          	sh	a5,-18(s0)
D:/projects/mechanical_arm/Ctrl_Stepper_Motor/libraries/sdk/Peripheral/ch32v30x_tim.c:1077
  tmpccmr2 |= (uint16_t)(TIM_OCPreload << 8);
    3e8c:	fda45783          	lhu	a5,-38(s0)
    3e90:	07a2                	slli	a5,a5,0x8
    3e92:	01079713          	slli	a4,a5,0x10
    3e96:	8341                	srli	a4,a4,0x10
    3e98:	fee45783          	lhu	a5,-18(s0)
    3e9c:	8fd9                	or	a5,a5,a4
    3e9e:	fef41723          	sh	a5,-18(s0)
D:/projects/mechanical_arm/Ctrl_Stepper_Motor/libraries/sdk/Peripheral/ch32v30x_tim.c:1078
  TIMx->CHCTLR2 = tmpccmr2;
    3ea2:	fdc42783          	lw	a5,-36(s0)
    3ea6:	fee45703          	lhu	a4,-18(s0)
    3eaa:	00e79e23          	sh	a4,28(a5)
D:/projects/mechanical_arm/Ctrl_Stepper_Motor/libraries/sdk/Peripheral/ch32v30x_tim.c:1079
}
    3eae:	0001                	nop
    3eb0:	5432                	lw	s0,44(sp)
    3eb2:	6145                	addi	sp,sp,48
    3eb4:	8082                	ret

00003eb6 <TIM_OC1FastConfig>:
TIM_OC1FastConfig():
D:/projects/mechanical_arm/Ctrl_Stepper_Motor/libraries/sdk/Peripheral/ch32v30x_tim.c:1091
*                    TIM_OCFast_Enable: TIM output compare fast enable.
*                    TIM_OCFast_Disable: TIM output compare fast disable.
* Return         : None
*******************************************************************************/
void TIM_OC1FastConfig(TIM_TypeDef* TIMx, uint16_t TIM_OCFast)
{
    3eb6:	7179                	addi	sp,sp,-48
    3eb8:	d622                	sw	s0,44(sp)
    3eba:	1800                	addi	s0,sp,48
    3ebc:	fca42e23          	sw	a0,-36(s0)
    3ec0:	87ae                	mv	a5,a1
    3ec2:	fcf41d23          	sh	a5,-38(s0)
D:/projects/mechanical_arm/Ctrl_Stepper_Motor/libraries/sdk/Peripheral/ch32v30x_tim.c:1092
  uint16_t tmpccmr1 = 0;
    3ec6:	fe041723          	sh	zero,-18(s0)
D:/projects/mechanical_arm/Ctrl_Stepper_Motor/libraries/sdk/Peripheral/ch32v30x_tim.c:1094

  tmpccmr1 = TIMx->CHCTLR1;
    3eca:	fdc42783          	lw	a5,-36(s0)
    3ece:	0187d783          	lhu	a5,24(a5)
    3ed2:	fef41723          	sh	a5,-18(s0)
D:/projects/mechanical_arm/Ctrl_Stepper_Motor/libraries/sdk/Peripheral/ch32v30x_tim.c:1095
  tmpccmr1 &= (uint16_t)~((uint16_t)TIM_OC1FE);
    3ed6:	fee45783          	lhu	a5,-18(s0)
    3eda:	9bed                	andi	a5,a5,-5
    3edc:	fef41723          	sh	a5,-18(s0)
D:/projects/mechanical_arm/Ctrl_Stepper_Motor/libraries/sdk/Peripheral/ch32v30x_tim.c:1096
  tmpccmr1 |= TIM_OCFast;
    3ee0:	fee45703          	lhu	a4,-18(s0)
    3ee4:	fda45783          	lhu	a5,-38(s0)
    3ee8:	8fd9                	or	a5,a5,a4
    3eea:	fef41723          	sh	a5,-18(s0)
D:/projects/mechanical_arm/Ctrl_Stepper_Motor/libraries/sdk/Peripheral/ch32v30x_tim.c:1097
  TIMx->CHCTLR1 = tmpccmr1;
    3eee:	fdc42783          	lw	a5,-36(s0)
    3ef2:	fee45703          	lhu	a4,-18(s0)
    3ef6:	00e79c23          	sh	a4,24(a5)
D:/projects/mechanical_arm/Ctrl_Stepper_Motor/libraries/sdk/Peripheral/ch32v30x_tim.c:1098
}
    3efa:	0001                	nop
    3efc:	5432                	lw	s0,44(sp)
    3efe:	6145                	addi	sp,sp,48
    3f00:	8082                	ret

00003f02 <TIM_OC2FastConfig>:
TIM_OC2FastConfig():
D:/projects/mechanical_arm/Ctrl_Stepper_Motor/libraries/sdk/Peripheral/ch32v30x_tim.c:1110
*                    TIM_OCFast_Enable: TIM output compare fast enable.
*                    TIM_OCFast_Disable: TIM output compare fast disable.
* Return         : None
*******************************************************************************/
void TIM_OC2FastConfig(TIM_TypeDef* TIMx, uint16_t TIM_OCFast)
{
    3f02:	7179                	addi	sp,sp,-48
    3f04:	d622                	sw	s0,44(sp)
    3f06:	1800                	addi	s0,sp,48
    3f08:	fca42e23          	sw	a0,-36(s0)
    3f0c:	87ae                	mv	a5,a1
    3f0e:	fcf41d23          	sh	a5,-38(s0)
D:/projects/mechanical_arm/Ctrl_Stepper_Motor/libraries/sdk/Peripheral/ch32v30x_tim.c:1111
  uint16_t tmpccmr1 = 0;
    3f12:	fe041723          	sh	zero,-18(s0)
D:/projects/mechanical_arm/Ctrl_Stepper_Motor/libraries/sdk/Peripheral/ch32v30x_tim.c:1113

  tmpccmr1 = TIMx->CHCTLR1;
    3f16:	fdc42783          	lw	a5,-36(s0)
    3f1a:	0187d783          	lhu	a5,24(a5)
    3f1e:	fef41723          	sh	a5,-18(s0)
D:/projects/mechanical_arm/Ctrl_Stepper_Motor/libraries/sdk/Peripheral/ch32v30x_tim.c:1114
  tmpccmr1 &= (uint16_t)~((uint16_t)TIM_OC2FE);
    3f22:	fee45783          	lhu	a5,-18(s0)
    3f26:	bff7f793          	andi	a5,a5,-1025
    3f2a:	fef41723          	sh	a5,-18(s0)
D:/projects/mechanical_arm/Ctrl_Stepper_Motor/libraries/sdk/Peripheral/ch32v30x_tim.c:1115
  tmpccmr1 |= (uint16_t)(TIM_OCFast << 8);
    3f2e:	fda45783          	lhu	a5,-38(s0)
    3f32:	07a2                	slli	a5,a5,0x8
    3f34:	01079713          	slli	a4,a5,0x10
    3f38:	8341                	srli	a4,a4,0x10
    3f3a:	fee45783          	lhu	a5,-18(s0)
    3f3e:	8fd9                	or	a5,a5,a4
    3f40:	fef41723          	sh	a5,-18(s0)
D:/projects/mechanical_arm/Ctrl_Stepper_Motor/libraries/sdk/Peripheral/ch32v30x_tim.c:1116
  TIMx->CHCTLR1 = tmpccmr1;
    3f44:	fdc42783          	lw	a5,-36(s0)
    3f48:	fee45703          	lhu	a4,-18(s0)
    3f4c:	00e79c23          	sh	a4,24(a5)
D:/projects/mechanical_arm/Ctrl_Stepper_Motor/libraries/sdk/Peripheral/ch32v30x_tim.c:1117
}
    3f50:	0001                	nop
    3f52:	5432                	lw	s0,44(sp)
    3f54:	6145                	addi	sp,sp,48
    3f56:	8082                	ret

00003f58 <TIM_OC3FastConfig>:
TIM_OC3FastConfig():
D:/projects/mechanical_arm/Ctrl_Stepper_Motor/libraries/sdk/Peripheral/ch32v30x_tim.c:1129
*                    TIM_OCFast_Enable: TIM output compare fast enable.
*                    TIM_OCFast_Disable: TIM output compare fast disable.
* Return         : None
*******************************************************************************/
void TIM_OC3FastConfig(TIM_TypeDef* TIMx, uint16_t TIM_OCFast)
{
    3f58:	7179                	addi	sp,sp,-48
    3f5a:	d622                	sw	s0,44(sp)
    3f5c:	1800                	addi	s0,sp,48
    3f5e:	fca42e23          	sw	a0,-36(s0)
    3f62:	87ae                	mv	a5,a1
    3f64:	fcf41d23          	sh	a5,-38(s0)
D:/projects/mechanical_arm/Ctrl_Stepper_Motor/libraries/sdk/Peripheral/ch32v30x_tim.c:1130
  uint16_t tmpccmr2 = 0;
    3f68:	fe041723          	sh	zero,-18(s0)
D:/projects/mechanical_arm/Ctrl_Stepper_Motor/libraries/sdk/Peripheral/ch32v30x_tim.c:1132

  tmpccmr2 = TIMx->CHCTLR2;
    3f6c:	fdc42783          	lw	a5,-36(s0)
    3f70:	01c7d783          	lhu	a5,28(a5)
    3f74:	fef41723          	sh	a5,-18(s0)
D:/projects/mechanical_arm/Ctrl_Stepper_Motor/libraries/sdk/Peripheral/ch32v30x_tim.c:1133
  tmpccmr2 &= (uint16_t)~((uint16_t)TIM_OC3FE);
    3f78:	fee45783          	lhu	a5,-18(s0)
    3f7c:	9bed                	andi	a5,a5,-5
    3f7e:	fef41723          	sh	a5,-18(s0)
D:/projects/mechanical_arm/Ctrl_Stepper_Motor/libraries/sdk/Peripheral/ch32v30x_tim.c:1134
  tmpccmr2 |= TIM_OCFast;	
    3f82:	fee45703          	lhu	a4,-18(s0)
    3f86:	fda45783          	lhu	a5,-38(s0)
    3f8a:	8fd9                	or	a5,a5,a4
    3f8c:	fef41723          	sh	a5,-18(s0)
D:/projects/mechanical_arm/Ctrl_Stepper_Motor/libraries/sdk/Peripheral/ch32v30x_tim.c:1135
  TIMx->CHCTLR2 = tmpccmr2;
    3f90:	fdc42783          	lw	a5,-36(s0)
    3f94:	fee45703          	lhu	a4,-18(s0)
    3f98:	00e79e23          	sh	a4,28(a5)
D:/projects/mechanical_arm/Ctrl_Stepper_Motor/libraries/sdk/Peripheral/ch32v30x_tim.c:1136
}
    3f9c:	0001                	nop
    3f9e:	5432                	lw	s0,44(sp)
    3fa0:	6145                	addi	sp,sp,48
    3fa2:	8082                	ret

00003fa4 <TIM_OC4FastConfig>:
TIM_OC4FastConfig():
D:/projects/mechanical_arm/Ctrl_Stepper_Motor/libraries/sdk/Peripheral/ch32v30x_tim.c:1148
*                    TIM_OCFast_Enable: TIM output compare fast enable.
*                    TIM_OCFast_Disable: TIM output compare fast disable.
* Return         : None
*******************************************************************************/
void TIM_OC4FastConfig(TIM_TypeDef* TIMx, uint16_t TIM_OCFast)
{
    3fa4:	7179                	addi	sp,sp,-48
    3fa6:	d622                	sw	s0,44(sp)
    3fa8:	1800                	addi	s0,sp,48
    3faa:	fca42e23          	sw	a0,-36(s0)
    3fae:	87ae                	mv	a5,a1
    3fb0:	fcf41d23          	sh	a5,-38(s0)
D:/projects/mechanical_arm/Ctrl_Stepper_Motor/libraries/sdk/Peripheral/ch32v30x_tim.c:1149
  uint16_t tmpccmr2 = 0;
    3fb4:	fe041723          	sh	zero,-18(s0)
D:/projects/mechanical_arm/Ctrl_Stepper_Motor/libraries/sdk/Peripheral/ch32v30x_tim.c:1151

  tmpccmr2 = TIMx->CHCTLR2;
    3fb8:	fdc42783          	lw	a5,-36(s0)
    3fbc:	01c7d783          	lhu	a5,28(a5)
    3fc0:	fef41723          	sh	a5,-18(s0)
D:/projects/mechanical_arm/Ctrl_Stepper_Motor/libraries/sdk/Peripheral/ch32v30x_tim.c:1152
  tmpccmr2 &= (uint16_t)~((uint16_t)TIM_OC4FE);
    3fc4:	fee45783          	lhu	a5,-18(s0)
    3fc8:	bff7f793          	andi	a5,a5,-1025
    3fcc:	fef41723          	sh	a5,-18(s0)
D:/projects/mechanical_arm/Ctrl_Stepper_Motor/libraries/sdk/Peripheral/ch32v30x_tim.c:1153
  tmpccmr2 |= (uint16_t)(TIM_OCFast << 8);
    3fd0:	fda45783          	lhu	a5,-38(s0)
    3fd4:	07a2                	slli	a5,a5,0x8
    3fd6:	01079713          	slli	a4,a5,0x10
    3fda:	8341                	srli	a4,a4,0x10
    3fdc:	fee45783          	lhu	a5,-18(s0)
    3fe0:	8fd9                	or	a5,a5,a4
    3fe2:	fef41723          	sh	a5,-18(s0)
D:/projects/mechanical_arm/Ctrl_Stepper_Motor/libraries/sdk/Peripheral/ch32v30x_tim.c:1154
  TIMx->CHCTLR2 = tmpccmr2;
    3fe6:	fdc42783          	lw	a5,-36(s0)
    3fea:	fee45703          	lhu	a4,-18(s0)
    3fee:	00e79e23          	sh	a4,28(a5)
D:/projects/mechanical_arm/Ctrl_Stepper_Motor/libraries/sdk/Peripheral/ch32v30x_tim.c:1155
}
    3ff2:	0001                	nop
    3ff4:	5432                	lw	s0,44(sp)
    3ff6:	6145                	addi	sp,sp,48
    3ff8:	8082                	ret

00003ffa <TIM_GetITStatus>:
TIM_GetITStatus():
D:/projects/mechanical_arm/Ctrl_Stepper_Motor/libraries/sdk/Peripheral/ch32v30x_tim.c:1887
*                    TIM_IT_Trigger: TIM Trigger Interrupt source.
*                    TIM_IT_Break: TIM Break Interrupt source.
* Return         : bitstatus: SET or RESET.
*******************************************************************************/
ITStatus TIM_GetITStatus(TIM_TypeDef* TIMx, uint16_t TIM_IT)
{
    3ffa:	7179                	addi	sp,sp,-48
    3ffc:	d622                	sw	s0,44(sp)
    3ffe:	1800                	addi	s0,sp,48
    4000:	fca42e23          	sw	a0,-36(s0)
    4004:	87ae                	mv	a5,a1
    4006:	fcf41d23          	sh	a5,-38(s0)
D:/projects/mechanical_arm/Ctrl_Stepper_Motor/libraries/sdk/Peripheral/ch32v30x_tim.c:1888
  ITStatus bitstatus = RESET;  
    400a:	fe042623          	sw	zero,-20(s0)
D:/projects/mechanical_arm/Ctrl_Stepper_Motor/libraries/sdk/Peripheral/ch32v30x_tim.c:1889
  uint16_t itstatus = 0x0, itenable = 0x0;
    400e:	fe041523          	sh	zero,-22(s0)
    4012:	fe041423          	sh	zero,-24(s0)
D:/projects/mechanical_arm/Ctrl_Stepper_Motor/libraries/sdk/Peripheral/ch32v30x_tim.c:1891
   
  itstatus = TIMx->INTFR & TIM_IT;
    4016:	fdc42783          	lw	a5,-36(s0)
    401a:	0107d783          	lhu	a5,16(a5)
    401e:	01079713          	slli	a4,a5,0x10
    4022:	8341                	srli	a4,a4,0x10
    4024:	fda45783          	lhu	a5,-38(s0)
    4028:	8ff9                	and	a5,a5,a4
    402a:	fef41523          	sh	a5,-22(s0)
D:/projects/mechanical_arm/Ctrl_Stepper_Motor/libraries/sdk/Peripheral/ch32v30x_tim.c:1893
  
  itenable = TIMx->DMAINTENR & TIM_IT;
    402e:	fdc42783          	lw	a5,-36(s0)
    4032:	00c7d783          	lhu	a5,12(a5)
    4036:	01079713          	slli	a4,a5,0x10
    403a:	8341                	srli	a4,a4,0x10
    403c:	fda45783          	lhu	a5,-38(s0)
    4040:	8ff9                	and	a5,a5,a4
    4042:	fef41423          	sh	a5,-24(s0)
D:/projects/mechanical_arm/Ctrl_Stepper_Motor/libraries/sdk/Peripheral/ch32v30x_tim.c:1894
  if ((itstatus != (uint16_t)RESET) && (itenable != (uint16_t)RESET))
    4046:	fea45783          	lhu	a5,-22(s0)
    404a:	cb81                	beqz	a5,405a <TIM_GetITStatus+0x60>
D:/projects/mechanical_arm/Ctrl_Stepper_Motor/libraries/sdk/Peripheral/ch32v30x_tim.c:1894 (discriminator 1)
    404c:	fe845783          	lhu	a5,-24(s0)
    4050:	c789                	beqz	a5,405a <TIM_GetITStatus+0x60>
D:/projects/mechanical_arm/Ctrl_Stepper_Motor/libraries/sdk/Peripheral/ch32v30x_tim.c:1896
  {
    bitstatus = SET;
    4052:	4785                	li	a5,1
    4054:	fef42623          	sw	a5,-20(s0)
    4058:	a019                	j	405e <TIM_GetITStatus+0x64>
D:/projects/mechanical_arm/Ctrl_Stepper_Motor/libraries/sdk/Peripheral/ch32v30x_tim.c:1900
  }
  else
  {
    bitstatus = RESET;
    405a:	fe042623          	sw	zero,-20(s0)
D:/projects/mechanical_arm/Ctrl_Stepper_Motor/libraries/sdk/Peripheral/ch32v30x_tim.c:1903
  }
	
  return bitstatus;
    405e:	fec42783          	lw	a5,-20(s0)
D:/projects/mechanical_arm/Ctrl_Stepper_Motor/libraries/sdk/Peripheral/ch32v30x_tim.c:1904
}
    4062:	853e                	mv	a0,a5
    4064:	5432                	lw	s0,44(sp)
    4066:	6145                	addi	sp,sp,48
    4068:	8082                	ret

0000406a <TIM_ClearITPendingBit>:
TIM_ClearITPendingBit():
D:/projects/mechanical_arm/Ctrl_Stepper_Motor/libraries/sdk/Peripheral/ch32v30x_tim.c:1922
*                    TIM_IT_Trigger: TIM Trigger Interrupt source.
*                    TIM_IT_Break: TIM Break Interrupt source.
* Return         : None
*******************************************************************************/
void TIM_ClearITPendingBit(TIM_TypeDef* TIMx, uint16_t TIM_IT)
{
    406a:	1101                	addi	sp,sp,-32
    406c:	ce22                	sw	s0,28(sp)
    406e:	1000                	addi	s0,sp,32
    4070:	fea42623          	sw	a0,-20(s0)
    4074:	87ae                	mv	a5,a1
    4076:	fef41523          	sh	a5,-22(s0)
D:/projects/mechanical_arm/Ctrl_Stepper_Motor/libraries/sdk/Peripheral/ch32v30x_tim.c:1923
  TIMx->INTFR = (uint16_t)~TIM_IT;
    407a:	fea45783          	lhu	a5,-22(s0)
    407e:	fff7c793          	not	a5,a5
    4082:	01079713          	slli	a4,a5,0x10
    4086:	8341                	srli	a4,a4,0x10
    4088:	fec42783          	lw	a5,-20(s0)
    408c:	00e79823          	sh	a4,16(a5)
D:/projects/mechanical_arm/Ctrl_Stepper_Motor/libraries/sdk/Peripheral/ch32v30x_tim.c:1924
}
    4090:	0001                	nop
    4092:	4472                	lw	s0,28(sp)
    4094:	6105                	addi	sp,sp,32
    4096:	8082                	ret

00004098 <USART_Init>:
USART_Init():
D:/projects/mechanical_arm/Ctrl_Stepper_Motor/libraries/sdk/Peripheral/ch32v30x_usart.c:105
*                  USART_InitStruct: pointer to a USART_InitTypeDef structure
*      that contains the configuration information for the specified USART peripheral. 
* Return         : None
*******************************************************************************/
void USART_Init(USART_TypeDef* USARTx, USART_InitTypeDef* USART_InitStruct)
{
    4098:	715d                	addi	sp,sp,-80
    409a:	c686                	sw	ra,76(sp)
    409c:	c4a2                	sw	s0,72(sp)
    409e:	0880                	addi	s0,sp,80
    40a0:	faa42e23          	sw	a0,-68(s0)
    40a4:	fab42c23          	sw	a1,-72(s0)
D:/projects/mechanical_arm/Ctrl_Stepper_Motor/libraries/sdk/Peripheral/ch32v30x_usart.c:106
  uint32_t tmpreg = 0x00, apbclock = 0x00;
    40a8:	fe042623          	sw	zero,-20(s0)
    40ac:	fe042423          	sw	zero,-24(s0)
D:/projects/mechanical_arm/Ctrl_Stepper_Motor/libraries/sdk/Peripheral/ch32v30x_usart.c:107
  uint32_t integerdivider = 0x00;
    40b0:	fe042223          	sw	zero,-28(s0)
D:/projects/mechanical_arm/Ctrl_Stepper_Motor/libraries/sdk/Peripheral/ch32v30x_usart.c:108
  uint32_t fractionaldivider = 0x00;
    40b4:	fe042023          	sw	zero,-32(s0)
D:/projects/mechanical_arm/Ctrl_Stepper_Motor/libraries/sdk/Peripheral/ch32v30x_usart.c:109
  uint32_t usartxbase = 0;
    40b8:	fc042e23          	sw	zero,-36(s0)
D:/projects/mechanical_arm/Ctrl_Stepper_Motor/libraries/sdk/Peripheral/ch32v30x_usart.c:116

  if (USART_InitStruct->USART_HardwareFlowControl != USART_HardwareFlowControl_None)
  {
  }

  usartxbase = (uint32_t)USARTx;
    40bc:	fbc42783          	lw	a5,-68(s0)
    40c0:	fcf42e23          	sw	a5,-36(s0)
D:/projects/mechanical_arm/Ctrl_Stepper_Motor/libraries/sdk/Peripheral/ch32v30x_usart.c:117
  tmpreg = USARTx->CTLR2;
    40c4:	fbc42783          	lw	a5,-68(s0)
    40c8:	0107d783          	lhu	a5,16(a5)
    40cc:	07c2                	slli	a5,a5,0x10
    40ce:	83c1                	srli	a5,a5,0x10
    40d0:	fef42623          	sw	a5,-20(s0)
D:/projects/mechanical_arm/Ctrl_Stepper_Motor/libraries/sdk/Peripheral/ch32v30x_usart.c:118
  tmpreg &= CTLR2_STOP_CLEAR_Mask;
    40d4:	fec42703          	lw	a4,-20(s0)
    40d8:	67b5                	lui	a5,0xd
    40da:	17fd                	addi	a5,a5,-1
    40dc:	8ff9                	and	a5,a5,a4
    40de:	fef42623          	sw	a5,-20(s0)
D:/projects/mechanical_arm/Ctrl_Stepper_Motor/libraries/sdk/Peripheral/ch32v30x_usart.c:119
  tmpreg |= (uint32_t)USART_InitStruct->USART_StopBits;  
    40e2:	fb842783          	lw	a5,-72(s0)
    40e6:	0067d783          	lhu	a5,6(a5) # d006 <_data_lma+0x2922>
    40ea:	873e                	mv	a4,a5
    40ec:	fec42783          	lw	a5,-20(s0)
    40f0:	8fd9                	or	a5,a5,a4
    40f2:	fef42623          	sw	a5,-20(s0)
D:/projects/mechanical_arm/Ctrl_Stepper_Motor/libraries/sdk/Peripheral/ch32v30x_usart.c:121
	
  USARTx->CTLR2 = (uint16_t)tmpreg;
    40f6:	fec42783          	lw	a5,-20(s0)
    40fa:	01079713          	slli	a4,a5,0x10
    40fe:	8341                	srli	a4,a4,0x10
    4100:	fbc42783          	lw	a5,-68(s0)
    4104:	00e79823          	sh	a4,16(a5)
D:/projects/mechanical_arm/Ctrl_Stepper_Motor/libraries/sdk/Peripheral/ch32v30x_usart.c:122
  tmpreg = USARTx->CTLR1;
    4108:	fbc42783          	lw	a5,-68(s0)
    410c:	00c7d783          	lhu	a5,12(a5)
    4110:	07c2                	slli	a5,a5,0x10
    4112:	83c1                	srli	a5,a5,0x10
    4114:	fef42623          	sw	a5,-20(s0)
D:/projects/mechanical_arm/Ctrl_Stepper_Motor/libraries/sdk/Peripheral/ch32v30x_usart.c:123
  tmpreg &= CTLR1_CLEAR_Mask;
    4118:	fec42703          	lw	a4,-20(s0)
    411c:	67bd                	lui	a5,0xf
    411e:	9f378793          	addi	a5,a5,-1549 # e9f3 <_data_lma+0x430f>
    4122:	8ff9                	and	a5,a5,a4
    4124:	fef42623          	sw	a5,-20(s0)
D:/projects/mechanical_arm/Ctrl_Stepper_Motor/libraries/sdk/Peripheral/ch32v30x_usart.c:124
  tmpreg |= (uint32_t)USART_InitStruct->USART_WordLength | USART_InitStruct->USART_Parity |
    4128:	fb842783          	lw	a5,-72(s0)
    412c:	0047d703          	lhu	a4,4(a5)
    4130:	fb842783          	lw	a5,-72(s0)
    4134:	0087d783          	lhu	a5,8(a5)
    4138:	8fd9                	or	a5,a5,a4
    413a:	01079713          	slli	a4,a5,0x10
    413e:	8341                	srli	a4,a4,0x10
D:/projects/mechanical_arm/Ctrl_Stepper_Motor/libraries/sdk/Peripheral/ch32v30x_usart.c:125
            USART_InitStruct->USART_Mode;
    4140:	fb842783          	lw	a5,-72(s0)
    4144:	00a7d783          	lhu	a5,10(a5)
D:/projects/mechanical_arm/Ctrl_Stepper_Motor/libraries/sdk/Peripheral/ch32v30x_usart.c:124
  tmpreg |= (uint32_t)USART_InitStruct->USART_WordLength | USART_InitStruct->USART_Parity |
    4148:	8fd9                	or	a5,a5,a4
    414a:	07c2                	slli	a5,a5,0x10
    414c:	83c1                	srli	a5,a5,0x10
    414e:	873e                	mv	a4,a5
    4150:	fec42783          	lw	a5,-20(s0)
    4154:	8fd9                	or	a5,a5,a4
    4156:	fef42623          	sw	a5,-20(s0)
D:/projects/mechanical_arm/Ctrl_Stepper_Motor/libraries/sdk/Peripheral/ch32v30x_usart.c:126
  USARTx->CTLR1 = (uint16_t)tmpreg;
    415a:	fec42783          	lw	a5,-20(s0)
    415e:	01079713          	slli	a4,a5,0x10
    4162:	8341                	srli	a4,a4,0x10
    4164:	fbc42783          	lw	a5,-68(s0)
    4168:	00e79623          	sh	a4,12(a5)
D:/projects/mechanical_arm/Ctrl_Stepper_Motor/libraries/sdk/Peripheral/ch32v30x_usart.c:128
 
  tmpreg = USARTx->CTLR3;
    416c:	fbc42783          	lw	a5,-68(s0)
    4170:	0147d783          	lhu	a5,20(a5)
    4174:	07c2                	slli	a5,a5,0x10
    4176:	83c1                	srli	a5,a5,0x10
    4178:	fef42623          	sw	a5,-20(s0)
D:/projects/mechanical_arm/Ctrl_Stepper_Motor/libraries/sdk/Peripheral/ch32v30x_usart.c:129
  tmpreg &= CTLR3_CLEAR_Mask;
    417c:	fec42703          	lw	a4,-20(s0)
    4180:	67c1                	lui	a5,0x10
    4182:	cff78793          	addi	a5,a5,-769 # fcff <_data_lma+0x561b>
    4186:	8ff9                	and	a5,a5,a4
    4188:	fef42623          	sw	a5,-20(s0)
D:/projects/mechanical_arm/Ctrl_Stepper_Motor/libraries/sdk/Peripheral/ch32v30x_usart.c:130
  tmpreg |= USART_InitStruct->USART_HardwareFlowControl;
    418c:	fb842783          	lw	a5,-72(s0)
    4190:	00c7d783          	lhu	a5,12(a5)
    4194:	873e                	mv	a4,a5
    4196:	fec42783          	lw	a5,-20(s0)
    419a:	8fd9                	or	a5,a5,a4
    419c:	fef42623          	sw	a5,-20(s0)
D:/projects/mechanical_arm/Ctrl_Stepper_Motor/libraries/sdk/Peripheral/ch32v30x_usart.c:131
  USARTx->CTLR3 = (uint16_t)tmpreg;
    41a0:	fec42783          	lw	a5,-20(s0)
    41a4:	01079713          	slli	a4,a5,0x10
    41a8:	8341                	srli	a4,a4,0x10
    41aa:	fbc42783          	lw	a5,-68(s0)
    41ae:	00e79a23          	sh	a4,20(a5)
D:/projects/mechanical_arm/Ctrl_Stepper_Motor/libraries/sdk/Peripheral/ch32v30x_usart.c:133

  RCC_GetClocksFreq(&RCC_ClocksStatus);
    41b2:	fc840793          	addi	a5,s0,-56
    41b6:	853e                	mv	a0,a5
    41b8:	f57fe0ef          	jal	ra,310e <RCC_GetClocksFreq>
D:/projects/mechanical_arm/Ctrl_Stepper_Motor/libraries/sdk/Peripheral/ch32v30x_usart.c:135
	
  if (usartxbase == USART1_BASE)
    41bc:	fdc42703          	lw	a4,-36(s0)
    41c0:	400147b7          	lui	a5,0x40014
    41c4:	80078793          	addi	a5,a5,-2048 # 40013800 <_eusrstack+0x20003800>
    41c8:	00f71763          	bne	a4,a5,41d6 <USART_Init+0x13e>
D:/projects/mechanical_arm/Ctrl_Stepper_Motor/libraries/sdk/Peripheral/ch32v30x_usart.c:137
  {
    apbclock = RCC_ClocksStatus.PCLK2_Frequency;
    41cc:	fd442783          	lw	a5,-44(s0)
    41d0:	fef42423          	sw	a5,-24(s0)
    41d4:	a029                	j	41de <USART_Init+0x146>
D:/projects/mechanical_arm/Ctrl_Stepper_Motor/libraries/sdk/Peripheral/ch32v30x_usart.c:141
  }
  else
  {
    apbclock = RCC_ClocksStatus.PCLK1_Frequency;
    41d6:	fd042783          	lw	a5,-48(s0)
    41da:	fef42423          	sw	a5,-24(s0)
D:/projects/mechanical_arm/Ctrl_Stepper_Motor/libraries/sdk/Peripheral/ch32v30x_usart.c:144
  }
  
  if ((USARTx->CTLR1 & CTLR1_OVER8_Set) != 0)
    41de:	fbc42783          	lw	a5,-68(s0)
    41e2:	00c7d783          	lhu	a5,12(a5)
    41e6:	07c2                	slli	a5,a5,0x10
    41e8:	83c1                	srli	a5,a5,0x10
    41ea:	07c2                	slli	a5,a5,0x10
    41ec:	87c1                	srai	a5,a5,0x10
    41ee:	0207d263          	bgez	a5,4212 <USART_Init+0x17a>
D:/projects/mechanical_arm/Ctrl_Stepper_Motor/libraries/sdk/Peripheral/ch32v30x_usart.c:146
  {
    integerdivider = ((25 * apbclock) / (2 * (USART_InitStruct->USART_BaudRate)));    
    41f2:	fe842703          	lw	a4,-24(s0)
    41f6:	87ba                	mv	a5,a4
    41f8:	0786                	slli	a5,a5,0x1
    41fa:	97ba                	add	a5,a5,a4
    41fc:	078e                	slli	a5,a5,0x3
    41fe:	973e                	add	a4,a4,a5
    4200:	fb842783          	lw	a5,-72(s0)
    4204:	439c                	lw	a5,0(a5)
    4206:	0786                	slli	a5,a5,0x1
    4208:	02f757b3          	divu	a5,a4,a5
    420c:	fef42223          	sw	a5,-28(s0)
    4210:	a005                	j	4230 <USART_Init+0x198>
D:/projects/mechanical_arm/Ctrl_Stepper_Motor/libraries/sdk/Peripheral/ch32v30x_usart.c:150
  }
  else 
  {
    integerdivider = ((25 * apbclock) / (4 * (USART_InitStruct->USART_BaudRate)));    
    4212:	fe842703          	lw	a4,-24(s0)
    4216:	87ba                	mv	a5,a4
    4218:	0786                	slli	a5,a5,0x1
    421a:	97ba                	add	a5,a5,a4
    421c:	078e                	slli	a5,a5,0x3
    421e:	973e                	add	a4,a4,a5
    4220:	fb842783          	lw	a5,-72(s0)
    4224:	439c                	lw	a5,0(a5)
    4226:	078a                	slli	a5,a5,0x2
    4228:	02f757b3          	divu	a5,a4,a5
    422c:	fef42223          	sw	a5,-28(s0)
D:/projects/mechanical_arm/Ctrl_Stepper_Motor/libraries/sdk/Peripheral/ch32v30x_usart.c:152
  }
  tmpreg = (integerdivider / 100) << 4;
    4230:	fe442703          	lw	a4,-28(s0)
    4234:	06400793          	li	a5,100
    4238:	02f757b3          	divu	a5,a4,a5
    423c:	0792                	slli	a5,a5,0x4
    423e:	fef42623          	sw	a5,-20(s0)
D:/projects/mechanical_arm/Ctrl_Stepper_Motor/libraries/sdk/Peripheral/ch32v30x_usart.c:154

  fractionaldivider = integerdivider - (100 * (tmpreg >> 4));
    4242:	fec42783          	lw	a5,-20(s0)
    4246:	0047d713          	srli	a4,a5,0x4
    424a:	06400793          	li	a5,100
    424e:	02f707b3          	mul	a5,a4,a5
    4252:	fe442703          	lw	a4,-28(s0)
    4256:	40f707b3          	sub	a5,a4,a5
    425a:	fef42023          	sw	a5,-32(s0)
D:/projects/mechanical_arm/Ctrl_Stepper_Motor/libraries/sdk/Peripheral/ch32v30x_usart.c:156

  if ((USARTx->CTLR1 & CTLR1_OVER8_Set) != 0)
    425e:	fbc42783          	lw	a5,-68(s0)
    4262:	00c7d783          	lhu	a5,12(a5)
    4266:	07c2                	slli	a5,a5,0x10
    4268:	83c1                	srli	a5,a5,0x10
    426a:	07c2                	slli	a5,a5,0x10
    426c:	87c1                	srai	a5,a5,0x10
    426e:	0207d263          	bgez	a5,4292 <USART_Init+0x1fa>
D:/projects/mechanical_arm/Ctrl_Stepper_Motor/libraries/sdk/Peripheral/ch32v30x_usart.c:158
  {
    tmpreg |= ((((fractionaldivider * 8) + 50) / 100)) & ((uint8_t)0x07);
    4272:	fe042783          	lw	a5,-32(s0)
    4276:	078e                	slli	a5,a5,0x3
    4278:	03278713          	addi	a4,a5,50
    427c:	06400793          	li	a5,100
    4280:	02f757b3          	divu	a5,a4,a5
    4284:	8b9d                	andi	a5,a5,7
    4286:	fec42703          	lw	a4,-20(s0)
    428a:	8fd9                	or	a5,a5,a4
    428c:	fef42623          	sw	a5,-20(s0)
    4290:	a005                	j	42b0 <USART_Init+0x218>
D:/projects/mechanical_arm/Ctrl_Stepper_Motor/libraries/sdk/Peripheral/ch32v30x_usart.c:162
  }
  else 
  {
    tmpreg |= ((((fractionaldivider * 16) + 50) / 100)) & ((uint8_t)0x0F);
    4292:	fe042783          	lw	a5,-32(s0)
    4296:	0792                	slli	a5,a5,0x4
    4298:	03278713          	addi	a4,a5,50
    429c:	06400793          	li	a5,100
    42a0:	02f757b3          	divu	a5,a4,a5
    42a4:	8bbd                	andi	a5,a5,15
    42a6:	fec42703          	lw	a4,-20(s0)
    42aa:	8fd9                	or	a5,a5,a4
    42ac:	fef42623          	sw	a5,-20(s0)
D:/projects/mechanical_arm/Ctrl_Stepper_Motor/libraries/sdk/Peripheral/ch32v30x_usart.c:165
  }
  
  USARTx->BRR = (uint16_t)tmpreg;
    42b0:	fec42783          	lw	a5,-20(s0)
    42b4:	01079713          	slli	a4,a5,0x10
    42b8:	8341                	srli	a4,a4,0x10
    42ba:	fbc42783          	lw	a5,-68(s0)
    42be:	00e79423          	sh	a4,8(a5)
D:/projects/mechanical_arm/Ctrl_Stepper_Motor/libraries/sdk/Peripheral/ch32v30x_usart.c:166
}
    42c2:	0001                	nop
    42c4:	40b6                	lw	ra,76(sp)
    42c6:	4426                	lw	s0,72(sp)
    42c8:	6161                	addi	sp,sp,80
    42ca:	8082                	ret

000042cc <USART_Cmd>:
USART_Cmd():
D:/projects/mechanical_arm/Ctrl_Stepper_Motor/libraries/sdk/Peripheral/ch32v30x_usart.c:229
* Input          : USARTx: where x can be 1, 2, 3 to select the USART peripheral.
*                  NewState: ENABLE or DISABLE.
* Return         : None
*******************************************************************************/
void USART_Cmd(USART_TypeDef* USARTx, FunctionalState NewState)
{
    42cc:	1101                	addi	sp,sp,-32
    42ce:	ce22                	sw	s0,28(sp)
    42d0:	1000                	addi	s0,sp,32
    42d2:	fea42623          	sw	a0,-20(s0)
    42d6:	feb42423          	sw	a1,-24(s0)
D:/projects/mechanical_arm/Ctrl_Stepper_Motor/libraries/sdk/Peripheral/ch32v30x_usart.c:230
  if (NewState != DISABLE)
    42da:	fe842783          	lw	a5,-24(s0)
    42de:	c395                	beqz	a5,4302 <USART_Cmd+0x36>
D:/projects/mechanical_arm/Ctrl_Stepper_Motor/libraries/sdk/Peripheral/ch32v30x_usart.c:232
  {
    USARTx->CTLR1 |= CTLR1_UE_Set;
    42e0:	fec42783          	lw	a5,-20(s0)
    42e4:	00c7d783          	lhu	a5,12(a5)
    42e8:	01079713          	slli	a4,a5,0x10
    42ec:	8341                	srli	a4,a4,0x10
    42ee:	6789                	lui	a5,0x2
    42f0:	8fd9                	or	a5,a5,a4
    42f2:	01079713          	slli	a4,a5,0x10
    42f6:	8341                	srli	a4,a4,0x10
    42f8:	fec42783          	lw	a5,-20(s0)
    42fc:	00e79623          	sh	a4,12(a5) # 200c <fifo_write_buffer>
D:/projects/mechanical_arm/Ctrl_Stepper_Motor/libraries/sdk/Peripheral/ch32v30x_usart.c:238
  }
  else
  {
    USARTx->CTLR1 &= CTLR1_UE_Reset;
  }
}
    4300:	a015                	j	4324 <USART_Cmd+0x58>
D:/projects/mechanical_arm/Ctrl_Stepper_Motor/libraries/sdk/Peripheral/ch32v30x_usart.c:236
    USARTx->CTLR1 &= CTLR1_UE_Reset;
    4302:	fec42783          	lw	a5,-20(s0)
    4306:	00c7d783          	lhu	a5,12(a5)
    430a:	01079713          	slli	a4,a5,0x10
    430e:	8341                	srli	a4,a4,0x10
    4310:	77f9                	lui	a5,0xffffe
    4312:	17fd                	addi	a5,a5,-1
    4314:	8ff9                	and	a5,a5,a4
    4316:	01079713          	slli	a4,a5,0x10
    431a:	8341                	srli	a4,a4,0x10
    431c:	fec42783          	lw	a5,-20(s0)
    4320:	00e79623          	sh	a4,12(a5) # ffffe00c <_eusrstack+0xdffee00c>
D:/projects/mechanical_arm/Ctrl_Stepper_Motor/libraries/sdk/Peripheral/ch32v30x_usart.c:238
}
    4324:	0001                	nop
    4326:	4472                	lw	s0,28(sp)
    4328:	6105                	addi	sp,sp,32
    432a:	8082                	ret

0000432c <USART_ITConfig>:
USART_ITConfig():
D:/projects/mechanical_arm/Ctrl_Stepper_Motor/libraries/sdk/Peripheral/ch32v30x_usart.c:257
*                    USART_IT_ERR:  Error interrupt.
*                  NewState: ENABLE or DISABLE.
* Return         : None
*******************************************************************************/
void USART_ITConfig(USART_TypeDef* USARTx, uint16_t USART_IT, FunctionalState NewState)
{
    432c:	7179                	addi	sp,sp,-48
    432e:	d622                	sw	s0,44(sp)
    4330:	1800                	addi	s0,sp,48
    4332:	fca42e23          	sw	a0,-36(s0)
    4336:	87ae                	mv	a5,a1
    4338:	fcc42a23          	sw	a2,-44(s0)
    433c:	fcf41d23          	sh	a5,-38(s0)
D:/projects/mechanical_arm/Ctrl_Stepper_Motor/libraries/sdk/Peripheral/ch32v30x_usart.c:258
  uint32_t usartreg = 0x00, itpos = 0x00, itmask = 0x00;
    4340:	fe042423          	sw	zero,-24(s0)
    4344:	fe042223          	sw	zero,-28(s0)
    4348:	fe042023          	sw	zero,-32(s0)
D:/projects/mechanical_arm/Ctrl_Stepper_Motor/libraries/sdk/Peripheral/ch32v30x_usart.c:259
  uint32_t usartxbase = 0x00;
    434c:	fe042623          	sw	zero,-20(s0)
D:/projects/mechanical_arm/Ctrl_Stepper_Motor/libraries/sdk/Peripheral/ch32v30x_usart.c:265

  if (USART_IT == USART_IT_CTS)
  {
  }   
  
  usartxbase = (uint32_t)USARTx;
    4350:	fdc42783          	lw	a5,-36(s0)
    4354:	fef42623          	sw	a5,-20(s0)
D:/projects/mechanical_arm/Ctrl_Stepper_Motor/libraries/sdk/Peripheral/ch32v30x_usart.c:266
  usartreg = (((uint8_t)USART_IT) >> 0x05);
    4358:	fda45783          	lhu	a5,-38(s0)
    435c:	0ff7f793          	andi	a5,a5,255
    4360:	8395                	srli	a5,a5,0x5
    4362:	0ff7f793          	andi	a5,a5,255
    4366:	fef42423          	sw	a5,-24(s0)
D:/projects/mechanical_arm/Ctrl_Stepper_Motor/libraries/sdk/Peripheral/ch32v30x_usart.c:267
  itpos = USART_IT & IT_Mask;
    436a:	fda45783          	lhu	a5,-38(s0)
    436e:	8bfd                	andi	a5,a5,31
    4370:	fef42223          	sw	a5,-28(s0)
D:/projects/mechanical_arm/Ctrl_Stepper_Motor/libraries/sdk/Peripheral/ch32v30x_usart.c:268
  itmask = (((uint32_t)0x01) << itpos);
    4374:	fe442783          	lw	a5,-28(s0)
    4378:	4705                	li	a4,1
    437a:	00f717b3          	sll	a5,a4,a5
    437e:	fef42023          	sw	a5,-32(s0)
D:/projects/mechanical_arm/Ctrl_Stepper_Motor/libraries/sdk/Peripheral/ch32v30x_usart.c:270
    
  if (usartreg == 0x01) 
    4382:	fe842703          	lw	a4,-24(s0)
    4386:	4785                	li	a5,1
    4388:	00f71863          	bne	a4,a5,4398 <USART_ITConfig+0x6c>
D:/projects/mechanical_arm/Ctrl_Stepper_Motor/libraries/sdk/Peripheral/ch32v30x_usart.c:272
  {
    usartxbase += 0x0C;
    438c:	fec42783          	lw	a5,-20(s0)
    4390:	07b1                	addi	a5,a5,12
    4392:	fef42623          	sw	a5,-20(s0)
    4396:	a00d                	j	43b8 <USART_ITConfig+0x8c>
D:/projects/mechanical_arm/Ctrl_Stepper_Motor/libraries/sdk/Peripheral/ch32v30x_usart.c:274
  }
  else if (usartreg == 0x02) 
    4398:	fe842703          	lw	a4,-24(s0)
    439c:	4789                	li	a5,2
    439e:	00f71863          	bne	a4,a5,43ae <USART_ITConfig+0x82>
D:/projects/mechanical_arm/Ctrl_Stepper_Motor/libraries/sdk/Peripheral/ch32v30x_usart.c:276
  {
    usartxbase += 0x10;
    43a2:	fec42783          	lw	a5,-20(s0)
    43a6:	07c1                	addi	a5,a5,16
    43a8:	fef42623          	sw	a5,-20(s0)
    43ac:	a031                	j	43b8 <USART_ITConfig+0x8c>
D:/projects/mechanical_arm/Ctrl_Stepper_Motor/libraries/sdk/Peripheral/ch32v30x_usart.c:280
  }
  else 
  {
    usartxbase += 0x14; 
    43ae:	fec42783          	lw	a5,-20(s0)
    43b2:	07d1                	addi	a5,a5,20
    43b4:	fef42623          	sw	a5,-20(s0)
D:/projects/mechanical_arm/Ctrl_Stepper_Motor/libraries/sdk/Peripheral/ch32v30x_usart.c:283
  }
	
  if (NewState != DISABLE)
    43b8:	fd442783          	lw	a5,-44(s0)
    43bc:	cb99                	beqz	a5,43d2 <USART_ITConfig+0xa6>
D:/projects/mechanical_arm/Ctrl_Stepper_Motor/libraries/sdk/Peripheral/ch32v30x_usart.c:285
  {
    *(__IO uint32_t*)usartxbase  |= itmask;
    43be:	fec42783          	lw	a5,-20(s0)
    43c2:	4394                	lw	a3,0(a5)
    43c4:	fec42783          	lw	a5,-20(s0)
    43c8:	fe042703          	lw	a4,-32(s0)
    43cc:	8f55                	or	a4,a4,a3
    43ce:	c398                	sw	a4,0(a5)
D:/projects/mechanical_arm/Ctrl_Stepper_Motor/libraries/sdk/Peripheral/ch32v30x_usart.c:291
  }
  else
  {
    *(__IO uint32_t*)usartxbase &= ~itmask;
  }
}
    43d0:	a821                	j	43e8 <USART_ITConfig+0xbc>
D:/projects/mechanical_arm/Ctrl_Stepper_Motor/libraries/sdk/Peripheral/ch32v30x_usart.c:289
    *(__IO uint32_t*)usartxbase &= ~itmask;
    43d2:	fec42783          	lw	a5,-20(s0)
    43d6:	4394                	lw	a3,0(a5)
    43d8:	fe042783          	lw	a5,-32(s0)
    43dc:	fff7c713          	not	a4,a5
    43e0:	fec42783          	lw	a5,-20(s0)
    43e4:	8f75                	and	a4,a4,a3
    43e6:	c398                	sw	a4,0(a5)
D:/projects/mechanical_arm/Ctrl_Stepper_Motor/libraries/sdk/Peripheral/ch32v30x_usart.c:291
}
    43e8:	0001                	nop
    43ea:	5432                	lw	s0,44(sp)
    43ec:	6145                	addi	sp,sp,48
    43ee:	8082                	ret

000043f0 <USART_SendData>:
USART_SendData():
D:/projects/mechanical_arm/Ctrl_Stepper_Motor/libraries/sdk/Peripheral/ch32v30x_usart.c:404
* Input          : USARTx: where x can be 1, 2, 3 to select the USART peripheral.
*                  Data: the data to transmit..
* Return         : None
*******************************************************************************/
void USART_SendData(USART_TypeDef* USARTx, uint16_t Data)
{
    43f0:	1101                	addi	sp,sp,-32
    43f2:	ce22                	sw	s0,28(sp)
    43f4:	1000                	addi	s0,sp,32
    43f6:	fea42623          	sw	a0,-20(s0)
    43fa:	87ae                	mv	a5,a1
    43fc:	fef41523          	sh	a5,-22(s0)
D:/projects/mechanical_arm/Ctrl_Stepper_Motor/libraries/sdk/Peripheral/ch32v30x_usart.c:405
  USARTx->DATAR = (Data & (uint16_t)0x01FF);
    4400:	fea45783          	lhu	a5,-22(s0)
    4404:	1ff7f793          	andi	a5,a5,511
    4408:	01079713          	slli	a4,a5,0x10
    440c:	8341                	srli	a4,a4,0x10
    440e:	fec42783          	lw	a5,-20(s0)
    4412:	00e79223          	sh	a4,4(a5)
D:/projects/mechanical_arm/Ctrl_Stepper_Motor/libraries/sdk/Peripheral/ch32v30x_usart.c:406
}
    4416:	0001                	nop
    4418:	4472                	lw	s0,28(sp)
    441a:	6105                	addi	sp,sp,32
    441c:	8082                	ret

0000441e <USART_GetFlagStatus>:
USART_GetFlagStatus():
D:/projects/mechanical_arm/Ctrl_Stepper_Motor/libraries/sdk/Peripheral/ch32v30x_usart.c:603
*                    USART_FLAG_FE: Framing Error flag.
*                    USART_FLAG_PE: Parity Error flag.
* Return         : bitstatus: SET or RESET.
*******************************************************************************/
FlagStatus USART_GetFlagStatus(USART_TypeDef* USARTx, uint16_t USART_FLAG)
{
    441e:	7179                	addi	sp,sp,-48
    4420:	d622                	sw	s0,44(sp)
    4422:	1800                	addi	s0,sp,48
    4424:	fca42e23          	sw	a0,-36(s0)
    4428:	87ae                	mv	a5,a1
    442a:	fcf41d23          	sh	a5,-38(s0)
D:/projects/mechanical_arm/Ctrl_Stepper_Motor/libraries/sdk/Peripheral/ch32v30x_usart.c:604
  FlagStatus bitstatus = RESET;
    442e:	fe042623          	sw	zero,-20(s0)
D:/projects/mechanical_arm/Ctrl_Stepper_Motor/libraries/sdk/Peripheral/ch32v30x_usart.c:610

  if (USART_FLAG == USART_FLAG_CTS)
  {
  }  
  
  if ((USARTx->STATR & USART_FLAG) != (uint16_t)RESET)
    4432:	fdc42783          	lw	a5,-36(s0)
    4436:	0007d783          	lhu	a5,0(a5)
    443a:	01079713          	slli	a4,a5,0x10
    443e:	8341                	srli	a4,a4,0x10
    4440:	fda45783          	lhu	a5,-38(s0)
    4444:	8ff9                	and	a5,a5,a4
    4446:	07c2                	slli	a5,a5,0x10
    4448:	83c1                	srli	a5,a5,0x10
    444a:	c789                	beqz	a5,4454 <USART_GetFlagStatus+0x36>
D:/projects/mechanical_arm/Ctrl_Stepper_Motor/libraries/sdk/Peripheral/ch32v30x_usart.c:612
  {
    bitstatus = SET;
    444c:	4785                	li	a5,1
    444e:	fef42623          	sw	a5,-20(s0)
    4452:	a019                	j	4458 <USART_GetFlagStatus+0x3a>
D:/projects/mechanical_arm/Ctrl_Stepper_Motor/libraries/sdk/Peripheral/ch32v30x_usart.c:616
  }
  else
  {
    bitstatus = RESET;
    4454:	fe042623          	sw	zero,-20(s0)
D:/projects/mechanical_arm/Ctrl_Stepper_Motor/libraries/sdk/Peripheral/ch32v30x_usart.c:618
  }
  return bitstatus;
    4458:	fec42783          	lw	a5,-20(s0)
D:/projects/mechanical_arm/Ctrl_Stepper_Motor/libraries/sdk/Peripheral/ch32v30x_usart.c:619
}
    445c:	853e                	mv	a0,a5
    445e:	5432                	lw	s0,44(sp)
    4460:	6145                	addi	sp,sp,48
    4462:	8082                	ret

00004464 <USART_GetITStatus>:
USART_GetITStatus():
D:/projects/mechanical_arm/Ctrl_Stepper_Motor/libraries/sdk/Peripheral/ch32v30x_usart.c:660
*                    USART_IT_FE: Framing Error interrupt.
*                    USART_IT_PE: Parity Error interrupt.
* Return         : bitstatus: SET or RESET.
*******************************************************************************/
ITStatus USART_GetITStatus(USART_TypeDef* USARTx, uint16_t USART_IT)
{
    4464:	7179                	addi	sp,sp,-48
    4466:	d622                	sw	s0,44(sp)
    4468:	1800                	addi	s0,sp,48
    446a:	fca42e23          	sw	a0,-36(s0)
    446e:	87ae                	mv	a5,a1
    4470:	fcf41d23          	sh	a5,-38(s0)
D:/projects/mechanical_arm/Ctrl_Stepper_Motor/libraries/sdk/Peripheral/ch32v30x_usart.c:661
  uint32_t bitpos = 0x00, itmask = 0x00, usartreg = 0x00;
    4474:	fe042223          	sw	zero,-28(s0)
    4478:	fe042623          	sw	zero,-20(s0)
    447c:	fe042023          	sw	zero,-32(s0)
D:/projects/mechanical_arm/Ctrl_Stepper_Motor/libraries/sdk/Peripheral/ch32v30x_usart.c:662
  ITStatus bitstatus = RESET;
    4480:	fe042423          	sw	zero,-24(s0)
D:/projects/mechanical_arm/Ctrl_Stepper_Motor/libraries/sdk/Peripheral/ch32v30x_usart.c:668

  if (USART_IT == USART_IT_CTS)
  {
  }   
  
  usartreg = (((uint8_t)USART_IT) >> 0x05);
    4484:	fda45783          	lhu	a5,-38(s0)
    4488:	0ff7f793          	andi	a5,a5,255
    448c:	8395                	srli	a5,a5,0x5
    448e:	0ff7f793          	andi	a5,a5,255
    4492:	fef42023          	sw	a5,-32(s0)
D:/projects/mechanical_arm/Ctrl_Stepper_Motor/libraries/sdk/Peripheral/ch32v30x_usart.c:669
  itmask = USART_IT & IT_Mask;
    4496:	fda45783          	lhu	a5,-38(s0)
    449a:	8bfd                	andi	a5,a5,31
    449c:	fef42623          	sw	a5,-20(s0)
D:/projects/mechanical_arm/Ctrl_Stepper_Motor/libraries/sdk/Peripheral/ch32v30x_usart.c:670
  itmask = (uint32_t)0x01 << itmask;
    44a0:	fec42783          	lw	a5,-20(s0)
    44a4:	4705                	li	a4,1
    44a6:	00f717b3          	sll	a5,a4,a5
    44aa:	fef42623          	sw	a5,-20(s0)
D:/projects/mechanical_arm/Ctrl_Stepper_Motor/libraries/sdk/Peripheral/ch32v30x_usart.c:672
  
  if (usartreg == 0x01) 
    44ae:	fe042703          	lw	a4,-32(s0)
    44b2:	4785                	li	a5,1
    44b4:	00f71f63          	bne	a4,a5,44d2 <USART_GetITStatus+0x6e>
D:/projects/mechanical_arm/Ctrl_Stepper_Motor/libraries/sdk/Peripheral/ch32v30x_usart.c:674
  {
    itmask &= USARTx->CTLR1;
    44b8:	fdc42783          	lw	a5,-36(s0)
    44bc:	00c7d783          	lhu	a5,12(a5)
    44c0:	07c2                	slli	a5,a5,0x10
    44c2:	83c1                	srli	a5,a5,0x10
    44c4:	873e                	mv	a4,a5
    44c6:	fec42783          	lw	a5,-20(s0)
    44ca:	8ff9                	and	a5,a5,a4
    44cc:	fef42623          	sw	a5,-20(s0)
    44d0:	a83d                	j	450e <USART_GetITStatus+0xaa>
D:/projects/mechanical_arm/Ctrl_Stepper_Motor/libraries/sdk/Peripheral/ch32v30x_usart.c:676
  }
  else if (usartreg == 0x02) 
    44d2:	fe042703          	lw	a4,-32(s0)
    44d6:	4789                	li	a5,2
    44d8:	00f71f63          	bne	a4,a5,44f6 <USART_GetITStatus+0x92>
D:/projects/mechanical_arm/Ctrl_Stepper_Motor/libraries/sdk/Peripheral/ch32v30x_usart.c:678
  {
    itmask &= USARTx->CTLR2;
    44dc:	fdc42783          	lw	a5,-36(s0)
    44e0:	0107d783          	lhu	a5,16(a5)
    44e4:	07c2                	slli	a5,a5,0x10
    44e6:	83c1                	srli	a5,a5,0x10
    44e8:	873e                	mv	a4,a5
    44ea:	fec42783          	lw	a5,-20(s0)
    44ee:	8ff9                	and	a5,a5,a4
    44f0:	fef42623          	sw	a5,-20(s0)
    44f4:	a829                	j	450e <USART_GetITStatus+0xaa>
D:/projects/mechanical_arm/Ctrl_Stepper_Motor/libraries/sdk/Peripheral/ch32v30x_usart.c:682
  }
  else 
  {
    itmask &= USARTx->CTLR3;
    44f6:	fdc42783          	lw	a5,-36(s0)
    44fa:	0147d783          	lhu	a5,20(a5)
    44fe:	07c2                	slli	a5,a5,0x10
    4500:	83c1                	srli	a5,a5,0x10
    4502:	873e                	mv	a4,a5
    4504:	fec42783          	lw	a5,-20(s0)
    4508:	8ff9                	and	a5,a5,a4
    450a:	fef42623          	sw	a5,-20(s0)
D:/projects/mechanical_arm/Ctrl_Stepper_Motor/libraries/sdk/Peripheral/ch32v30x_usart.c:685
  }
  
  bitpos = USART_IT >> 0x08;
    450e:	fda45783          	lhu	a5,-38(s0)
    4512:	83a1                	srli	a5,a5,0x8
    4514:	07c2                	slli	a5,a5,0x10
    4516:	83c1                	srli	a5,a5,0x10
    4518:	fef42223          	sw	a5,-28(s0)
D:/projects/mechanical_arm/Ctrl_Stepper_Motor/libraries/sdk/Peripheral/ch32v30x_usart.c:686
  bitpos = (uint32_t)0x01 << bitpos;
    451c:	fe442783          	lw	a5,-28(s0)
    4520:	4705                	li	a4,1
    4522:	00f717b3          	sll	a5,a4,a5
    4526:	fef42223          	sw	a5,-28(s0)
D:/projects/mechanical_arm/Ctrl_Stepper_Motor/libraries/sdk/Peripheral/ch32v30x_usart.c:687
  bitpos &= USARTx->STATR;
    452a:	fdc42783          	lw	a5,-36(s0)
    452e:	0007d783          	lhu	a5,0(a5)
    4532:	07c2                	slli	a5,a5,0x10
    4534:	83c1                	srli	a5,a5,0x10
    4536:	873e                	mv	a4,a5
    4538:	fe442783          	lw	a5,-28(s0)
    453c:	8ff9                	and	a5,a5,a4
    453e:	fef42223          	sw	a5,-28(s0)
D:/projects/mechanical_arm/Ctrl_Stepper_Motor/libraries/sdk/Peripheral/ch32v30x_usart.c:689
	
  if ((itmask != (uint16_t)RESET)&&(bitpos != (uint16_t)RESET))
    4542:	fec42783          	lw	a5,-20(s0)
    4546:	cb81                	beqz	a5,4556 <USART_GetITStatus+0xf2>
D:/projects/mechanical_arm/Ctrl_Stepper_Motor/libraries/sdk/Peripheral/ch32v30x_usart.c:689 (discriminator 1)
    4548:	fe442783          	lw	a5,-28(s0)
    454c:	c789                	beqz	a5,4556 <USART_GetITStatus+0xf2>
D:/projects/mechanical_arm/Ctrl_Stepper_Motor/libraries/sdk/Peripheral/ch32v30x_usart.c:691
  {
    bitstatus = SET;
    454e:	4785                	li	a5,1
    4550:	fef42423          	sw	a5,-24(s0)
    4554:	a019                	j	455a <USART_GetITStatus+0xf6>
D:/projects/mechanical_arm/Ctrl_Stepper_Motor/libraries/sdk/Peripheral/ch32v30x_usart.c:695
  }
  else
  {
    bitstatus = RESET;
    4556:	fe042423          	sw	zero,-24(s0)
D:/projects/mechanical_arm/Ctrl_Stepper_Motor/libraries/sdk/Peripheral/ch32v30x_usart.c:698
  }
  
  return bitstatus;  
    455a:	fe842783          	lw	a5,-24(s0)
D:/projects/mechanical_arm/Ctrl_Stepper_Motor/libraries/sdk/Peripheral/ch32v30x_usart.c:699
}
    455e:	853e                	mv	a0,a5
    4560:	5432                	lw	s0,44(sp)
    4562:	6145                	addi	sp,sp,48
    4564:	8082                	ret

00004566 <USART_ClearITPendingBit>:
USART_ClearITPendingBit():
D:/projects/mechanical_arm/Ctrl_Stepper_Motor/libraries/sdk/Peripheral/ch32v30x_usart.c:713
*                    USART_IT_TC:   Transmission complete interrupt.
*                    USART_IT_RXNE: Receive Data register not empty interrupt.
* Return         : None
*******************************************************************************/
void USART_ClearITPendingBit(USART_TypeDef* USARTx, uint16_t USART_IT)
{
    4566:	7179                	addi	sp,sp,-48
    4568:	d622                	sw	s0,44(sp)
    456a:	1800                	addi	s0,sp,48
    456c:	fca42e23          	sw	a0,-36(s0)
    4570:	87ae                	mv	a5,a1
    4572:	fcf41d23          	sh	a5,-38(s0)
D:/projects/mechanical_arm/Ctrl_Stepper_Motor/libraries/sdk/Peripheral/ch32v30x_usart.c:714
  uint16_t bitpos = 0x00, itmask = 0x00;
    4576:	fe041723          	sh	zero,-18(s0)
    457a:	fe041623          	sh	zero,-20(s0)
D:/projects/mechanical_arm/Ctrl_Stepper_Motor/libraries/sdk/Peripheral/ch32v30x_usart.c:720

  if (USART_IT == USART_IT_CTS)
  {
  }   
  
  bitpos = USART_IT >> 0x08;
    457e:	fda45783          	lhu	a5,-38(s0)
    4582:	83a1                	srli	a5,a5,0x8
    4584:	fef41723          	sh	a5,-18(s0)
D:/projects/mechanical_arm/Ctrl_Stepper_Motor/libraries/sdk/Peripheral/ch32v30x_usart.c:721
  itmask = ((uint16_t)0x01 << (uint16_t)bitpos);
    4588:	fee45783          	lhu	a5,-18(s0)
    458c:	4705                	li	a4,1
    458e:	00f717b3          	sll	a5,a4,a5
    4592:	fef41623          	sh	a5,-20(s0)
D:/projects/mechanical_arm/Ctrl_Stepper_Motor/libraries/sdk/Peripheral/ch32v30x_usart.c:722
  USARTx->STATR = (uint16_t)~itmask;
    4596:	fec45783          	lhu	a5,-20(s0)
    459a:	fff7c793          	not	a5,a5
    459e:	01079713          	slli	a4,a5,0x10
    45a2:	8341                	srli	a4,a4,0x10
    45a4:	fdc42783          	lw	a5,-36(s0)
    45a8:	00e79023          	sh	a4,0(a5)
D:/projects/mechanical_arm/Ctrl_Stepper_Motor/libraries/sdk/Peripheral/ch32v30x_usart.c:723
}
    45ac:	0001                	nop
    45ae:	5432                	lw	s0,44(sp)
    45b0:	6145                	addi	sp,sp,48
    45b2:	8082                	ret

000045b4 <DevEP1_IN_Deal>:
DevEP1_IN_Deal():
D:/projects/mechanical_arm/Ctrl_Stepper_Motor/libraries/sdk/Peripheral/ch32v30x_usbotg_device.c:329
* Description    : Device endpoint1 IN.
* Input          : l: IN length(<64B)
* Return         : None
*******************************************************************************/
void DevEP1_IN_Deal( UINT8 l )
{
    45b4:	1101                	addi	sp,sp,-32
    45b6:	ce22                	sw	s0,28(sp)
    45b8:	1000                	addi	s0,sp,32
    45ba:	87aa                	mv	a5,a0
    45bc:	fef407a3          	sb	a5,-17(s0)
D:/projects/mechanical_arm/Ctrl_Stepper_Motor/libraries/sdk/Peripheral/ch32v30x_usbotg_device.c:330
    USBOTG_FS->UEP1_TX_LEN = l;
    45c0:	500007b7          	lui	a5,0x50000
    45c4:	fef44703          	lbu	a4,-17(s0)
    45c8:	0742                	slli	a4,a4,0x10
    45ca:	8341                	srli	a4,a4,0x10
    45cc:	02e79a23          	sh	a4,52(a5) # 50000034 <_eusrstack+0x2fff0034>
D:/projects/mechanical_arm/Ctrl_Stepper_Motor/libraries/sdk/Peripheral/ch32v30x_usbotg_device.c:331
    USBOTG_FS->UEP1_TX_CTRL = (USBOTG_FS->UEP1_TX_CTRL & ~USBHD_UEP_T_RES_MASK)| USBHD_UEP_T_RES_ACK;
    45d0:	500007b7          	lui	a5,0x50000
    45d4:	0367c783          	lbu	a5,54(a5) # 50000036 <_eusrstack+0x2fff0036>
    45d8:	0ff7f713          	andi	a4,a5,255
    45dc:	500007b7          	lui	a5,0x50000
    45e0:	9b71                	andi	a4,a4,-4
    45e2:	0ff77713          	andi	a4,a4,255
    45e6:	02e78b23          	sb	a4,54(a5) # 50000036 <_eusrstack+0x2fff0036>
D:/projects/mechanical_arm/Ctrl_Stepper_Motor/libraries/sdk/Peripheral/ch32v30x_usbotg_device.c:332
}
    45ea:	0001                	nop
    45ec:	4472                	lw	s0,28(sp)
    45ee:	6105                	addi	sp,sp,32
    45f0:	8082                	ret

000045f2 <DevEP2_IN_Deal>:
DevEP2_IN_Deal():
D:/projects/mechanical_arm/Ctrl_Stepper_Motor/libraries/sdk/Peripheral/ch32v30x_usbotg_device.c:341
* Description    : Device endpoint2 IN.
* Input          : l: IN length(<64B)
* Return         : None
*******************************************************************************/
void DevEP2_IN_Deal( UINT8 l )
{
    45f2:	1101                	addi	sp,sp,-32
    45f4:	ce22                	sw	s0,28(sp)
    45f6:	1000                	addi	s0,sp,32
    45f8:	87aa                	mv	a5,a0
    45fa:	fef407a3          	sb	a5,-17(s0)
D:/projects/mechanical_arm/Ctrl_Stepper_Motor/libraries/sdk/Peripheral/ch32v30x_usbotg_device.c:342
    USBOTG_FS->UEP2_TX_LEN = l;
    45fe:	500007b7          	lui	a5,0x50000
    4602:	fef44703          	lbu	a4,-17(s0)
    4606:	0742                	slli	a4,a4,0x10
    4608:	8341                	srli	a4,a4,0x10
    460a:	02e79c23          	sh	a4,56(a5) # 50000038 <_eusrstack+0x2fff0038>
D:/projects/mechanical_arm/Ctrl_Stepper_Motor/libraries/sdk/Peripheral/ch32v30x_usbotg_device.c:343
    USBOTG_FS->UEP2_TX_CTRL = (USBOTG_FS->UEP2_TX_CTRL & ~USBHD_UEP_T_RES_MASK)| USBHD_UEP_T_RES_ACK;
    460e:	500007b7          	lui	a5,0x50000
    4612:	03a7c783          	lbu	a5,58(a5) # 5000003a <_eusrstack+0x2fff003a>
    4616:	0ff7f713          	andi	a4,a5,255
    461a:	500007b7          	lui	a5,0x50000
    461e:	9b71                	andi	a4,a4,-4
    4620:	0ff77713          	andi	a4,a4,255
    4624:	02e78d23          	sb	a4,58(a5) # 5000003a <_eusrstack+0x2fff003a>
D:/projects/mechanical_arm/Ctrl_Stepper_Motor/libraries/sdk/Peripheral/ch32v30x_usbotg_device.c:344
}
    4628:	0001                	nop
    462a:	4472                	lw	s0,28(sp)
    462c:	6105                	addi	sp,sp,32
    462e:	8082                	ret

00004630 <DevEP1_OUT_Deal>:
DevEP1_OUT_Deal():
D:/projects/mechanical_arm/Ctrl_Stepper_Motor/libraries/sdk/Peripheral/ch32v30x_usbotg_device.c:353
* Description    : Deal device Endpoint 1 OUT.
* Input          : l: Data length.
* Return         : None
*******************************************************************************/
void DevEP1_OUT_Deal( UINT8 l )
{
    4630:	7179                	addi	sp,sp,-48
    4632:	d606                	sw	ra,44(sp)
    4634:	d422                	sw	s0,40(sp)
    4636:	1800                	addi	s0,sp,48
    4638:	87aa                	mv	a5,a0
    463a:	fcf40fa3          	sb	a5,-33(s0)
D:/projects/mechanical_arm/Ctrl_Stepper_Motor/libraries/sdk/Peripheral/ch32v30x_usbotg_device.c:356
    UINT8 i;

    for(i=0; i<l; i++)
    463e:	fe0407a3          	sb	zero,-17(s0)
    4642:	a815                	j	4676 <DevEP1_OUT_Deal+0x46>
D:/projects/mechanical_arm/Ctrl_Stepper_Motor/libraries/sdk/Peripheral/ch32v30x_usbotg_device.c:358 (discriminator 3)
    {
        pEP1_IN_DataBuf[i] = ~pEP1_OUT_DataBuf[i];
    4644:	8641a703          	lw	a4,-1948(gp) # 20000284 <pEP1_RAM_Addr>
    4648:	fef44783          	lbu	a5,-17(s0)
    464c:	97ba                	add	a5,a5,a4
    464e:	0007c703          	lbu	a4,0(a5)
    4652:	8641a683          	lw	a3,-1948(gp) # 20000284 <pEP1_RAM_Addr>
    4656:	fef44783          	lbu	a5,-17(s0)
    465a:	04078793          	addi	a5,a5,64
    465e:	97b6                	add	a5,a5,a3
    4660:	fff74713          	not	a4,a4
    4664:	0ff77713          	andi	a4,a4,255
    4668:	00e78023          	sb	a4,0(a5)
D:/projects/mechanical_arm/Ctrl_Stepper_Motor/libraries/sdk/Peripheral/ch32v30x_usbotg_device.c:356 (discriminator 3)
    for(i=0; i<l; i++)
    466c:	fef44783          	lbu	a5,-17(s0)
    4670:	0785                	addi	a5,a5,1
    4672:	fef407a3          	sb	a5,-17(s0)
D:/projects/mechanical_arm/Ctrl_Stepper_Motor/libraries/sdk/Peripheral/ch32v30x_usbotg_device.c:356 (discriminator 1)
    4676:	fef44703          	lbu	a4,-17(s0)
    467a:	fdf44783          	lbu	a5,-33(s0)
    467e:	fcf763e3          	bltu	a4,a5,4644 <DevEP1_OUT_Deal+0x14>
D:/projects/mechanical_arm/Ctrl_Stepper_Motor/libraries/sdk/Peripheral/ch32v30x_usbotg_device.c:361
    }

    DevEP1_IN_Deal( l );
    4682:	fdf44783          	lbu	a5,-33(s0)
    4686:	853e                	mv	a0,a5
    4688:	3735                	jal	45b4 <DevEP1_IN_Deal>
D:/projects/mechanical_arm/Ctrl_Stepper_Motor/libraries/sdk/Peripheral/ch32v30x_usbotg_device.c:362
}
    468a:	0001                	nop
    468c:	50b2                	lw	ra,44(sp)
    468e:	5422                	lw	s0,40(sp)
    4690:	6145                	addi	sp,sp,48
    4692:	8082                	ret

00004694 <DevEP2_OUT_Deal>:
DevEP2_OUT_Deal():
D:/projects/mechanical_arm/Ctrl_Stepper_Motor/libraries/sdk/Peripheral/ch32v30x_usbotg_device.c:371
* Description    : Deal device Endpoint 2 OUT.
* Input          : l: Data length.
* Return         : None
*******************************************************************************/
void DevEP2_OUT_Deal( UINT8 l )
{
    4694:	7179                	addi	sp,sp,-48
    4696:	d606                	sw	ra,44(sp)
    4698:	d422                	sw	s0,40(sp)
    469a:	1800                	addi	s0,sp,48
    469c:	87aa                	mv	a5,a0
    469e:	fcf40fa3          	sb	a5,-33(s0)
D:/projects/mechanical_arm/Ctrl_Stepper_Motor/libraries/sdk/Peripheral/ch32v30x_usbotg_device.c:374
    UINT8 i;

    for(i=0; i<l; i++)
    46a2:	fe0407a3          	sb	zero,-17(s0)
    46a6:	a815                	j	46da <DevEP2_OUT_Deal+0x46>
D:/projects/mechanical_arm/Ctrl_Stepper_Motor/libraries/sdk/Peripheral/ch32v30x_usbotg_device.c:376 (discriminator 3)
    {
        pEP2_IN_DataBuf[i] = ~pEP2_OUT_DataBuf[i];
    46a8:	8681a703          	lw	a4,-1944(gp) # 20000288 <pEP2_RAM_Addr>
    46ac:	fef44783          	lbu	a5,-17(s0)
    46b0:	97ba                	add	a5,a5,a4
    46b2:	0007c703          	lbu	a4,0(a5)
    46b6:	8681a683          	lw	a3,-1944(gp) # 20000288 <pEP2_RAM_Addr>
    46ba:	fef44783          	lbu	a5,-17(s0)
    46be:	04078793          	addi	a5,a5,64
    46c2:	97b6                	add	a5,a5,a3
    46c4:	fff74713          	not	a4,a4
    46c8:	0ff77713          	andi	a4,a4,255
    46cc:	00e78023          	sb	a4,0(a5)
D:/projects/mechanical_arm/Ctrl_Stepper_Motor/libraries/sdk/Peripheral/ch32v30x_usbotg_device.c:374 (discriminator 3)
    for(i=0; i<l; i++)
    46d0:	fef44783          	lbu	a5,-17(s0)
    46d4:	0785                	addi	a5,a5,1
    46d6:	fef407a3          	sb	a5,-17(s0)
D:/projects/mechanical_arm/Ctrl_Stepper_Motor/libraries/sdk/Peripheral/ch32v30x_usbotg_device.c:374 (discriminator 1)
    46da:	fef44703          	lbu	a4,-17(s0)
    46de:	fdf44783          	lbu	a5,-33(s0)
    46e2:	fcf763e3          	bltu	a4,a5,46a8 <DevEP2_OUT_Deal+0x14>
D:/projects/mechanical_arm/Ctrl_Stepper_Motor/libraries/sdk/Peripheral/ch32v30x_usbotg_device.c:379
    }

    DevEP2_IN_Deal( l );
    46e6:	fdf44783          	lbu	a5,-33(s0)
    46ea:	853e                	mv	a0,a5
    46ec:	3719                	jal	45f2 <DevEP2_IN_Deal>
D:/projects/mechanical_arm/Ctrl_Stepper_Motor/libraries/sdk/Peripheral/ch32v30x_usbotg_device.c:380
}
    46ee:	0001                	nop
    46f0:	50b2                	lw	ra,44(sp)
    46f2:	5422                	lw	s0,40(sp)
    46f4:	6145                	addi	sp,sp,48
    46f6:	8082                	ret

000046f8 <OTG_FS_IRQHandler>:
OTG_FS_IRQHandler():
D:/projects/mechanical_arm/Ctrl_Stepper_Motor/libraries/sdk/Peripheral/ch32v30x_usbotg_device.c:389
* Description    : OTG_FS_IRQHandler OTG设备中断处理函数
* Input          : None
* Return         : None
*******************************************************************************/
void OTG_FS_IRQHandler( void )
{
    46f8:	1101                	addi	sp,sp,-32
    46fa:	ce22                	sw	s0,28(sp)
    46fc:	1000                	addi	s0,sp,32
D:/projects/mechanical_arm/Ctrl_Stepper_Motor/libraries/sdk/Peripheral/ch32v30x_usbotg_device.c:391
    UINT8  len, chtype;
    UINT8  intflag, errflag = 0;
    46fe:	fe040723          	sb	zero,-18(s0)
D:/projects/mechanical_arm/Ctrl_Stepper_Motor/libraries/sdk/Peripheral/ch32v30x_usbotg_device.c:393

    intflag = USBOTG_FS->INT_FG;
    4702:	500007b7          	lui	a5,0x50000
    4706:	0067c783          	lbu	a5,6(a5) # 50000006 <_eusrstack+0x2fff0006>
    470a:	fef406a3          	sb	a5,-19(s0)
D:/projects/mechanical_arm/Ctrl_Stepper_Motor/libraries/sdk/Peripheral/ch32v30x_usbotg_device.c:395

    if( intflag & USBHD_UIF_TRANSFER )
    470e:	fed44783          	lbu	a5,-19(s0)
    4712:	8b89                	andi	a5,a5,2
    4714:	3c0781e3          	beqz	a5,52d6 <OTG_FS_IRQHandler+0xbde>
D:/projects/mechanical_arm/Ctrl_Stepper_Motor/libraries/sdk/Peripheral/ch32v30x_usbotg_device.c:397
    {
        switch ( USBOTG_FS->INT_ST & USBHD_UIS_TOKEN_MASK )
    4718:	500007b7          	lui	a5,0x50000
    471c:	0077c783          	lbu	a5,7(a5) # 50000007 <_eusrstack+0x2fff0007>
    4720:	0ff7f793          	andi	a5,a5,255
    4724:	0307f793          	andi	a5,a5,48
    4728:	4741                	li	a4,16
    472a:	38e78be3          	beq	a5,a4,52c0 <OTG_FS_IRQHandler+0xbc8>
    472e:	4741                	li	a4,16
    4730:	00f74663          	blt	a4,a5,473c <OTG_FS_IRQHandler+0x44>
    4734:	20078ee3          	beqz	a5,5150 <OTG_FS_IRQHandler+0xa58>
D:/projects/mechanical_arm/Ctrl_Stepper_Motor/libraries/sdk/Peripheral/ch32v30x_usbotg_device.c:878
            case USBHD_UIS_TOKEN_SOF:

                break;

            default :
                break;
    4738:	38d0006f          	j	52c4 <OTG_FS_IRQHandler+0xbcc>
    473c:	02000713          	li	a4,32
    4740:	04e786e3          	beq	a5,a4,4f8c <OTG_FS_IRQHandler+0x894>
    4744:	03000713          	li	a4,48
    4748:	36e79ee3          	bne	a5,a4,52c4 <OTG_FS_IRQHandler+0xbcc>
D:/projects/mechanical_arm/Ctrl_Stepper_Motor/libraries/sdk/Peripheral/ch32v30x_usbotg_device.c:411
                USBOTG_FS->UEP0_TX_CTRL = USBHD_UEP_T_TOG|USBHD_UEP_T_RES_NAK;
    474c:	500007b7          	lui	a5,0x50000
    4750:	4719                	li	a4,6
    4752:	02e78923          	sb	a4,50(a5) # 50000032 <_eusrstack+0x2fff0032>
D:/projects/mechanical_arm/Ctrl_Stepper_Motor/libraries/sdk/Peripheral/ch32v30x_usbotg_device.c:412
                USBOTG_FS->UEP0_RX_CTRL = USBHD_UEP_R_TOG|USBHD_UEP_R_RES_ACK;
    4756:	500007b7          	lui	a5,0x50000
    475a:	4711                	li	a4,4
    475c:	02e789a3          	sb	a4,51(a5) # 50000033 <_eusrstack+0x2fff0033>
D:/projects/mechanical_arm/Ctrl_Stepper_Motor/libraries/sdk/Peripheral/ch32v30x_usbotg_device.c:413
                SetupReqLen  = pSetupReqPakHD->wLength;
    4760:	8601a783          	lw	a5,-1952(gp) # 20000280 <pEP0_RAM_Addr>
    4764:	0067c703          	lbu	a4,6(a5)
    4768:	0077c783          	lbu	a5,7(a5)
    476c:	07a2                	slli	a5,a5,0x8
    476e:	8fd9                	or	a5,a5,a4
    4770:	01079713          	slli	a4,a5,0x10
    4774:	8341                	srli	a4,a4,0x10
    4776:	86e19b23          	sh	a4,-1930(gp) # 20000296 <SetupReqLen>
D:/projects/mechanical_arm/Ctrl_Stepper_Motor/libraries/sdk/Peripheral/ch32v30x_usbotg_device.c:414
                SetupReqCode = pSetupReqPakHD->bRequest;
    477a:	8601a783          	lw	a5,-1952(gp) # 20000280 <pEP0_RAM_Addr>
    477e:	0017c703          	lbu	a4,1(a5)
    4782:	86e18a23          	sb	a4,-1932(gp) # 20000294 <SetupReqCode>
D:/projects/mechanical_arm/Ctrl_Stepper_Motor/libraries/sdk/Peripheral/ch32v30x_usbotg_device.c:415
                chtype = pSetupReqPakHD->bRequestType;
    4786:	8601a783          	lw	a5,-1952(gp) # 20000280 <pEP0_RAM_Addr>
    478a:	0007c783          	lbu	a5,0(a5)
    478e:	fef40623          	sb	a5,-20(s0)
D:/projects/mechanical_arm/Ctrl_Stepper_Motor/libraries/sdk/Peripheral/ch32v30x_usbotg_device.c:416
                len = 0;
    4792:	fe0407a3          	sb	zero,-17(s0)
D:/projects/mechanical_arm/Ctrl_Stepper_Motor/libraries/sdk/Peripheral/ch32v30x_usbotg_device.c:417
                errflag = 0;
    4796:	fe040723          	sb	zero,-18(s0)
D:/projects/mechanical_arm/Ctrl_Stepper_Motor/libraries/sdk/Peripheral/ch32v30x_usbotg_device.c:419
                if ( ( pSetupReqPakHD->bRequestType & USB_REQ_TYP_MASK ) != USB_REQ_TYP_STANDARD )  //非标准请求
    479a:	8601a783          	lw	a5,-1952(gp) # 20000280 <pEP0_RAM_Addr>
    479e:	0007c783          	lbu	a5,0(a5)
    47a2:	0607f793          	andi	a5,a5,96
    47a6:	12078b63          	beqz	a5,48dc <OTG_FS_IRQHandler+0x1e4>
D:/projects/mechanical_arm/Ctrl_Stepper_Motor/libraries/sdk/Peripheral/ch32v30x_usbotg_device.c:422
                    if(SetupReqCode & 0x20)
    47aa:	8741c783          	lbu	a5,-1932(gp) # 20000294 <SetupReqCode>
    47ae:	0ff7f793          	andi	a5,a5,255
    47b2:	0207f793          	andi	a5,a5,32
    47b6:	c3d5                	beqz	a5,485a <OTG_FS_IRQHandler+0x162>
D:/projects/mechanical_arm/Ctrl_Stepper_Motor/libraries/sdk/Peripheral/ch32v30x_usbotg_device.c:424
                        switch( SetupReqCode )
    47b8:	8741c783          	lbu	a5,-1932(gp) # 20000294 <SetupReqCode>
    47bc:	0ff7f793          	andi	a5,a5,255
    47c0:	02100713          	li	a4,33
    47c4:	00e78b63          	beq	a5,a4,47da <OTG_FS_IRQHandler+0xe2>
    47c8:	02200713          	li	a4,34
    47cc:	08e78963          	beq	a5,a4,485e <OTG_FS_IRQHandler+0x166>
    47d0:	02000713          	li	a4,32
    47d4:	08e78763          	beq	a5,a4,4862 <OTG_FS_IRQHandler+0x16a>
    47d8:	a8ad                	j	4852 <OTG_FS_IRQHandler+0x15a>
D:/projects/mechanical_arm/Ctrl_Stepper_Motor/libraries/sdk/Peripheral/ch32v30x_usbotg_device.c:427
                                pDescr = LineCoding;
    47da:	80c18713          	addi	a4,gp,-2036 # 2000022c <LineCoding>
    47de:	86e1a623          	sw	a4,-1940(gp) # 2000028c <pDescr>
D:/projects/mechanical_arm/Ctrl_Stepper_Motor/libraries/sdk/Peripheral/ch32v30x_usbotg_device.c:428
                                len = sizeof(LineCoding);
    47e2:	479d                	li	a5,7
    47e4:	fef407a3          	sb	a5,-17(s0)
D:/projects/mechanical_arm/Ctrl_Stepper_Motor/libraries/sdk/Peripheral/ch32v30x_usbotg_device.c:429
                                len = SetupReqLen >= DEFAULT_ENDP0_SIZE ? DEFAULT_ENDP0_SIZE : SetupReqLen;  // 本次传输长度
    47e8:	8761d783          	lhu	a5,-1930(gp) # 20000296 <SetupReqLen>
    47ec:	01079713          	slli	a4,a5,0x10
    47f0:	8341                	srli	a4,a4,0x10
    47f2:	479d                	li	a5,7
    47f4:	00e7e963          	bltu	a5,a4,4806 <OTG_FS_IRQHandler+0x10e>
D:/projects/mechanical_arm/Ctrl_Stepper_Motor/libraries/sdk/Peripheral/ch32v30x_usbotg_device.c:429 (discriminator 1)
    47f8:	8761d783          	lhu	a5,-1930(gp) # 20000296 <SetupReqLen>
    47fc:	07c2                	slli	a5,a5,0x10
    47fe:	83c1                	srli	a5,a5,0x10
    4800:	0ff7f793          	andi	a5,a5,255
    4804:	a011                	j	4808 <OTG_FS_IRQHandler+0x110>
D:/projects/mechanical_arm/Ctrl_Stepper_Motor/libraries/sdk/Peripheral/ch32v30x_usbotg_device.c:429 (discriminator 2)
    4806:	47a1                	li	a5,8
D:/projects/mechanical_arm/Ctrl_Stepper_Motor/libraries/sdk/Peripheral/ch32v30x_usbotg_device.c:429 (discriminator 4)
    4808:	fef407a3          	sb	a5,-17(s0)
D:/projects/mechanical_arm/Ctrl_Stepper_Motor/libraries/sdk/Peripheral/ch32v30x_usbotg_device.c:430 (discriminator 4)
                                memcpy(pEP0_DataBuf,pDescr,len);
    480c:	8601a703          	lw	a4,-1952(gp) # 20000280 <pEP0_RAM_Addr>
    4810:	86c1a783          	lw	a5,-1940(gp) # 2000028c <pDescr>
    4814:	fef44683          	lbu	a3,-17(s0)
    4818:	8636                	mv	a2,a3
    481a:	85be                	mv	a1,a5
    481c:	853a                	mv	a0,a4
    481e:	692020ef          	jal	ra,6eb0 <memcpy>
D:/projects/mechanical_arm/Ctrl_Stepper_Motor/libraries/sdk/Peripheral/ch32v30x_usbotg_device.c:431 (discriminator 4)
                                SetupReqLen -= len;
    4822:	8761d783          	lhu	a5,-1930(gp) # 20000296 <SetupReqLen>
    4826:	01079713          	slli	a4,a5,0x10
    482a:	8341                	srli	a4,a4,0x10
    482c:	fef44783          	lbu	a5,-17(s0)
    4830:	07c2                	slli	a5,a5,0x10
    4832:	83c1                	srli	a5,a5,0x10
    4834:	40f707b3          	sub	a5,a4,a5
    4838:	01079713          	slli	a4,a5,0x10
    483c:	8341                	srli	a4,a4,0x10
    483e:	86e19b23          	sh	a4,-1930(gp) # 20000296 <SetupReqLen>
D:/projects/mechanical_arm/Ctrl_Stepper_Motor/libraries/sdk/Peripheral/ch32v30x_usbotg_device.c:432 (discriminator 4)
                                pDescr += len;
    4842:	86c1a703          	lw	a4,-1940(gp) # 2000028c <pDescr>
    4846:	fef44783          	lbu	a5,-17(s0)
    484a:	973e                	add	a4,a4,a5
    484c:	86e1a623          	sw	a4,-1940(gp) # 2000028c <pDescr>
D:/projects/mechanical_arm/Ctrl_Stepper_Motor/libraries/sdk/Peripheral/ch32v30x_usbotg_device.c:433 (discriminator 4)
                            break;
    4850:	a811                	j	4864 <OTG_FS_IRQHandler+0x16c>
D:/projects/mechanical_arm/Ctrl_Stepper_Motor/libraries/sdk/Peripheral/ch32v30x_usbotg_device.c:442
                                errflag = 0xFF;
    4852:	57fd                	li	a5,-1
    4854:	fef40723          	sb	a5,-18(s0)
    4858:	a031                	j	4864 <OTG_FS_IRQHandler+0x16c>
D:/projects/mechanical_arm/Ctrl_Stepper_Motor/libraries/sdk/Peripheral/ch32v30x_usbotg_device.c:444
                    }
    485a:	0001                	nop
    485c:	a021                	j	4864 <OTG_FS_IRQHandler+0x16c>
D:/projects/mechanical_arm/Ctrl_Stepper_Motor/libraries/sdk/Peripheral/ch32v30x_usbotg_device.c:436
                            break;
    485e:	0001                	nop
    4860:	a011                	j	4864 <OTG_FS_IRQHandler+0x16c>
D:/projects/mechanical_arm/Ctrl_Stepper_Motor/libraries/sdk/Peripheral/ch32v30x_usbotg_device.c:439
                            break;
    4862:	0001                	nop
D:/projects/mechanical_arm/Ctrl_Stepper_Motor/libraries/sdk/Peripheral/ch32v30x_usbotg_device.c:461
                    if( errflag != 0xFF )
    4864:	fee44703          	lbu	a4,-18(s0)
    4868:	0ff00793          	li	a5,255
    486c:	68f70363          	beq	a4,a5,4ef2 <OTG_FS_IRQHandler+0x7fa>
D:/projects/mechanical_arm/Ctrl_Stepper_Motor/libraries/sdk/Peripheral/ch32v30x_usbotg_device.c:463
                        if( SetupReqLen > len )
    4870:	fef44783          	lbu	a5,-17(s0)
    4874:	01079713          	slli	a4,a5,0x10
    4878:	8341                	srli	a4,a4,0x10
    487a:	8761d783          	lhu	a5,-1930(gp) # 20000296 <SetupReqLen>
    487e:	07c2                	slli	a5,a5,0x10
    4880:	83c1                	srli	a5,a5,0x10
    4882:	00f77963          	bgeu	a4,a5,4894 <OTG_FS_IRQHandler+0x19c>
D:/projects/mechanical_arm/Ctrl_Stepper_Motor/libraries/sdk/Peripheral/ch32v30x_usbotg_device.c:465
                            SetupReqLen = len;
    4886:	fef44783          	lbu	a5,-17(s0)
    488a:	01079713          	slli	a4,a5,0x10
    488e:	8341                	srli	a4,a4,0x10
    4890:	86e19b23          	sh	a4,-1930(gp) # 20000296 <SetupReqLen>
D:/projects/mechanical_arm/Ctrl_Stepper_Motor/libraries/sdk/Peripheral/ch32v30x_usbotg_device.c:467
                        len = ( USBHD_Dev_SetupReqLen >= DevEP0SIZE ) ? DevEP0SIZE : USBHD_Dev_SetupReqLen;
    4894:	8701d783          	lhu	a5,-1936(gp) # 20000290 <USBHD_Dev_SetupReqLen>
    4898:	01079713          	slli	a4,a5,0x10
    489c:	8341                	srli	a4,a4,0x10
    489e:	479d                	li	a5,7
    48a0:	00e7e963          	bltu	a5,a4,48b2 <OTG_FS_IRQHandler+0x1ba>
D:/projects/mechanical_arm/Ctrl_Stepper_Motor/libraries/sdk/Peripheral/ch32v30x_usbotg_device.c:467 (discriminator 1)
    48a4:	8701d783          	lhu	a5,-1936(gp) # 20000290 <USBHD_Dev_SetupReqLen>
    48a8:	07c2                	slli	a5,a5,0x10
    48aa:	83c1                	srli	a5,a5,0x10
    48ac:	0ff7f793          	andi	a5,a5,255
    48b0:	a011                	j	48b4 <OTG_FS_IRQHandler+0x1bc>
D:/projects/mechanical_arm/Ctrl_Stepper_Motor/libraries/sdk/Peripheral/ch32v30x_usbotg_device.c:467 (discriminator 2)
    48b2:	47a1                	li	a5,8
D:/projects/mechanical_arm/Ctrl_Stepper_Motor/libraries/sdk/Peripheral/ch32v30x_usbotg_device.c:467 (discriminator 4)
    48b4:	fef407a3          	sb	a5,-17(s0)
D:/projects/mechanical_arm/Ctrl_Stepper_Motor/libraries/sdk/Peripheral/ch32v30x_usbotg_device.c:468 (discriminator 4)
                        memcpy( EP0_DatabufHD, pDescr, len );
    48b8:	86c1a783          	lw	a5,-1940(gp) # 2000028c <pDescr>
    48bc:	fef44703          	lbu	a4,-17(s0)
    48c0:	863a                	mv	a2,a4
    48c2:	85be                	mv	a1,a5
    48c4:	85818513          	addi	a0,gp,-1960 # 20000278 <EP0_DatabufHD>
    48c8:	5e8020ef          	jal	ra,6eb0 <memcpy>
D:/projects/mechanical_arm/Ctrl_Stepper_Motor/libraries/sdk/Peripheral/ch32v30x_usbotg_device.c:469 (discriminator 4)
                        pDescr += len;
    48cc:	86c1a703          	lw	a4,-1940(gp) # 2000028c <pDescr>
    48d0:	fef44783          	lbu	a5,-17(s0)
    48d4:	973e                	add	a4,a4,a5
    48d6:	86e1a623          	sw	a4,-1940(gp) # 2000028c <pDescr>
    48da:	ad21                	j	4ef2 <OTG_FS_IRQHandler+0x7fa>
D:/projects/mechanical_arm/Ctrl_Stepper_Motor/libraries/sdk/Peripheral/ch32v30x_usbotg_device.c:475
                    switch( SetupReqCode )
    48dc:	8741c783          	lbu	a5,-1932(gp) # 20000294 <SetupReqCode>
    48e0:	0ff7f793          	andi	a5,a5,255
    48e4:	472d                	li	a4,11
    48e6:	5ef76b63          	bltu	a4,a5,4edc <OTG_FS_IRQHandler+0x7e4>
    48ea:	00279713          	slli	a4,a5,0x2
    48ee:	67a9                	lui	a5,0xa
    48f0:	18478793          	addi	a5,a5,388 # a184 <MyUSBQUADescHD+0xc>
    48f4:	97ba                	add	a5,a5,a4
    48f6:	439c                	lw	a5,0(a5)
    48f8:	8782                	jr	a5
D:/projects/mechanical_arm/Ctrl_Stepper_Motor/libraries/sdk/Peripheral/ch32v30x_usbotg_device.c:479 (discriminator 1)
                            switch( ((pSetupReqPakHD->wValue)>>8) )
    48fa:	8601a783          	lw	a5,-1952(gp) # 20000280 <pEP0_RAM_Addr>
    48fe:	0027c703          	lbu	a4,2(a5)
    4902:	0037c783          	lbu	a5,3(a5)
    4906:	07a2                	slli	a5,a5,0x8
    4908:	8fd9                	or	a5,a5,a4
    490a:	07c2                	slli	a5,a5,0x10
    490c:	83c1                	srli	a5,a5,0x10
    490e:	83a1                	srli	a5,a5,0x8
    4910:	07c2                	slli	a5,a5,0x10
    4912:	83c1                	srli	a5,a5,0x10
    4914:	02200713          	li	a4,34
    4918:	12f76563          	bltu	a4,a5,4a42 <OTG_FS_IRQHandler+0x34a>
    491c:	00279713          	slli	a4,a5,0x2
    4920:	67a9                	lui	a5,0xa
    4922:	1b478793          	addi	a5,a5,436 # a1b4 <MyUSBQUADescHD+0x3c>
    4926:	97ba                	add	a5,a5,a4
    4928:	439c                	lw	a5,0(a5)
    492a:	8782                	jr	a5
D:/projects/mechanical_arm/Ctrl_Stepper_Motor/libraries/sdk/Peripheral/ch32v30x_usbotg_device.c:483
                                    pDescr = MyDevDescrHD;
    492c:	6729                	lui	a4,0xa
    492e:	0d870713          	addi	a4,a4,216 # a0d8 <MyDevDescrHD>
    4932:	86e1a623          	sw	a4,-1940(gp) # 2000028c <pDescr>
D:/projects/mechanical_arm/Ctrl_Stepper_Motor/libraries/sdk/Peripheral/ch32v30x_usbotg_device.c:484
                                    len = MyDevDescrHD[0];
    4936:	47c9                	li	a5,18
    4938:	fef407a3          	sb	a5,-17(s0)
D:/projects/mechanical_arm/Ctrl_Stepper_Motor/libraries/sdk/Peripheral/ch32v30x_usbotg_device.c:485
                                    break;
    493c:	a239                	j	4a4a <OTG_FS_IRQHandler+0x352>
D:/projects/mechanical_arm/Ctrl_Stepper_Motor/libraries/sdk/Peripheral/ch32v30x_usbotg_device.c:489
                                    pDescr = MyCfgDescrHD;
    493e:	6729                	lui	a4,0xa
    4940:	0ec70713          	addi	a4,a4,236 # a0ec <MyCfgDescrHD>
    4944:	86e1a623          	sw	a4,-1940(gp) # 2000028c <pDescr>
D:/projects/mechanical_arm/Ctrl_Stepper_Motor/libraries/sdk/Peripheral/ch32v30x_usbotg_device.c:490
                                    len = MyCfgDescrHD[2];
    4948:	04300793          	li	a5,67
    494c:	fef407a3          	sb	a5,-17(s0)
D:/projects/mechanical_arm/Ctrl_Stepper_Motor/libraries/sdk/Peripheral/ch32v30x_usbotg_device.c:491
                                    break;
    4950:	a8ed                	j	4a4a <OTG_FS_IRQHandler+0x352>
D:/projects/mechanical_arm/Ctrl_Stepper_Motor/libraries/sdk/Peripheral/ch32v30x_usbotg_device.c:495 (discriminator 2)
                                    switch( (pSetupReqPakHD->wValue)&0xff )
    4952:	8601a783          	lw	a5,-1952(gp) # 20000280 <pEP0_RAM_Addr>
    4956:	0027c703          	lbu	a4,2(a5)
    495a:	0037c783          	lbu	a5,3(a5)
    495e:	07a2                	slli	a5,a5,0x8
    4960:	8fd9                	or	a5,a5,a4
    4962:	07c2                	slli	a5,a5,0x10
    4964:	83c1                	srli	a5,a5,0x10
    4966:	0ff7f793          	andi	a5,a5,255
    496a:	4705                	li	a4,1
    496c:	02e78663          	beq	a5,a4,4998 <OTG_FS_IRQHandler+0x2a0>
    4970:	4705                	li	a4,1
    4972:	00f74463          	blt	a4,a5,497a <OTG_FS_IRQHandler+0x282>
    4976:	cb89                	beqz	a5,4988 <OTG_FS_IRQHandler+0x290>
    4978:	a899                	j	49ce <OTG_FS_IRQHandler+0x2d6>
    497a:	4709                	li	a4,2
    497c:	02e78763          	beq	a5,a4,49aa <OTG_FS_IRQHandler+0x2b2>
    4980:	470d                	li	a4,3
    4982:	02e78d63          	beq	a5,a4,49bc <OTG_FS_IRQHandler+0x2c4>
    4986:	a0a1                	j	49ce <OTG_FS_IRQHandler+0x2d6>
D:/projects/mechanical_arm/Ctrl_Stepper_Motor/libraries/sdk/Peripheral/ch32v30x_usbotg_device.c:499
                                        pDescr = MyLangDescrHD;
    4988:	82018713          	addi	a4,gp,-2016 # 20000240 <MyLangDescrHD>
    498c:	86e1a623          	sw	a4,-1940(gp) # 2000028c <pDescr>
D:/projects/mechanical_arm/Ctrl_Stepper_Motor/libraries/sdk/Peripheral/ch32v30x_usbotg_device.c:500
                                        len = MyLangDescrHD[0];
    4990:	4791                	li	a5,4
    4992:	fef407a3          	sb	a5,-17(s0)
D:/projects/mechanical_arm/Ctrl_Stepper_Motor/libraries/sdk/Peripheral/ch32v30x_usbotg_device.c:501
                                            break;
    4996:	a081                	j	49d6 <OTG_FS_IRQHandler+0x2de>
D:/projects/mechanical_arm/Ctrl_Stepper_Motor/libraries/sdk/Peripheral/ch32v30x_usbotg_device.c:505
                                            pDescr = MyManuInfoHD;
    4998:	6729                	lui	a4,0xa
    499a:	14470713          	addi	a4,a4,324 # a144 <MyManuInfoHD>
    499e:	86e1a623          	sw	a4,-1940(gp) # 2000028c <pDescr>
D:/projects/mechanical_arm/Ctrl_Stepper_Motor/libraries/sdk/Peripheral/ch32v30x_usbotg_device.c:506
                                            len = MyManuInfoHD[0];
    49a2:	47b9                	li	a5,14
    49a4:	fef407a3          	sb	a5,-17(s0)
D:/projects/mechanical_arm/Ctrl_Stepper_Motor/libraries/sdk/Peripheral/ch32v30x_usbotg_device.c:507
                                            break;
    49a8:	a03d                	j	49d6 <OTG_FS_IRQHandler+0x2de>
D:/projects/mechanical_arm/Ctrl_Stepper_Motor/libraries/sdk/Peripheral/ch32v30x_usbotg_device.c:511
                                            pDescr = MyProdInfoHD;
    49aa:	6729                	lui	a4,0xa
    49ac:	15470713          	addi	a4,a4,340 # a154 <MyProdInfoHD>
    49b0:	86e1a623          	sw	a4,-1940(gp) # 2000028c <pDescr>
D:/projects/mechanical_arm/Ctrl_Stepper_Motor/libraries/sdk/Peripheral/ch32v30x_usbotg_device.c:512
                                            len = MyProdInfoHD[0];
    49b4:	47b1                	li	a5,12
    49b6:	fef407a3          	sb	a5,-17(s0)
D:/projects/mechanical_arm/Ctrl_Stepper_Motor/libraries/sdk/Peripheral/ch32v30x_usbotg_device.c:513
                                            break;
    49ba:	a831                	j	49d6 <OTG_FS_IRQHandler+0x2de>
D:/projects/mechanical_arm/Ctrl_Stepper_Motor/libraries/sdk/Peripheral/ch32v30x_usbotg_device.c:517
                                            pDescr = MySerNumInfoHD;
    49bc:	6729                	lui	a4,0xa
    49be:	16070713          	addi	a4,a4,352 # a160 <MySerNumInfoHD>
    49c2:	86e1a623          	sw	a4,-1940(gp) # 2000028c <pDescr>
D:/projects/mechanical_arm/Ctrl_Stepper_Motor/libraries/sdk/Peripheral/ch32v30x_usbotg_device.c:518
                                            len = sizeof( MySerNumInfoHD );
    49c6:	47d9                	li	a5,22
    49c8:	fef407a3          	sb	a5,-17(s0)
D:/projects/mechanical_arm/Ctrl_Stepper_Motor/libraries/sdk/Peripheral/ch32v30x_usbotg_device.c:519
                                            break;
    49cc:	a029                	j	49d6 <OTG_FS_IRQHandler+0x2de>
D:/projects/mechanical_arm/Ctrl_Stepper_Motor/libraries/sdk/Peripheral/ch32v30x_usbotg_device.c:522
                                            errflag = 0xFF;
    49ce:	57fd                	li	a5,-1
    49d0:	fef40723          	sb	a5,-18(s0)
D:/projects/mechanical_arm/Ctrl_Stepper_Motor/libraries/sdk/Peripheral/ch32v30x_usbotg_device.c:523
                                            break;
    49d4:	0001                	nop
D:/projects/mechanical_arm/Ctrl_Stepper_Motor/libraries/sdk/Peripheral/ch32v30x_usbotg_device.c:525
                                    break;
    49d6:	a895                	j	4a4a <OTG_FS_IRQHandler+0x352>
D:/projects/mechanical_arm/Ctrl_Stepper_Motor/libraries/sdk/Peripheral/ch32v30x_usbotg_device.c:529
                                    pDescr = MyReportDescHD;
    49d8:	6729                	lui	a4,0xa
    49da:	13070713          	addi	a4,a4,304 # a130 <MyReportDescHD>
    49de:	86e1a623          	sw	a4,-1940(gp) # 2000028c <pDescr>
D:/projects/mechanical_arm/Ctrl_Stepper_Motor/libraries/sdk/Peripheral/ch32v30x_usbotg_device.c:530
                                    len = sizeof( MyReportDescHD );
    49e2:	47d1                	li	a5,20
    49e4:	fef407a3          	sb	a5,-17(s0)
D:/projects/mechanical_arm/Ctrl_Stepper_Motor/libraries/sdk/Peripheral/ch32v30x_usbotg_device.c:531
                                    break;
    49e8:	a08d                	j	4a4a <OTG_FS_IRQHandler+0x352>
D:/projects/mechanical_arm/Ctrl_Stepper_Motor/libraries/sdk/Peripheral/ch32v30x_usbotg_device.c:535
                                    pDescr = ( PUINT8 )&MyUSBQUADescHD[ 0 ];
    49ea:	6729                	lui	a4,0xa
    49ec:	17870713          	addi	a4,a4,376 # a178 <MyUSBQUADescHD>
    49f0:	86e1a623          	sw	a4,-1940(gp) # 2000028c <pDescr>
D:/projects/mechanical_arm/Ctrl_Stepper_Motor/libraries/sdk/Peripheral/ch32v30x_usbotg_device.c:536
                                    len = sizeof( MyUSBQUADescHD );
    49f4:	47a9                	li	a5,10
    49f6:	fef407a3          	sb	a5,-17(s0)
D:/projects/mechanical_arm/Ctrl_Stepper_Motor/libraries/sdk/Peripheral/ch32v30x_usbotg_device.c:537
                                    break;
    49fa:	a881                	j	4a4a <OTG_FS_IRQHandler+0x352>
D:/projects/mechanical_arm/Ctrl_Stepper_Motor/libraries/sdk/Peripheral/ch32v30x_usbotg_device.c:542
                                    if( USBHD_Dev_Speed == 0x00 )
    49fc:	8081c783          	lbu	a5,-2040(gp) # 20000228 <USBHD_Dev_Speed>
    4a00:	0ff7f793          	andi	a5,a5,255
    4a04:	e79d                	bnez	a5,4a32 <OTG_FS_IRQHandler+0x33a>
D:/projects/mechanical_arm/Ctrl_Stepper_Motor/libraries/sdk/Peripheral/ch32v30x_usbotg_device.c:545
                                      memcpy( &TAB_USB_FS_OSC_DESC[ 2 ], &MyCfgDescrHD[ 2 ], sizeof( MyCfgDescrHD ) - 2 );
    4a06:	04100613          	li	a2,65
    4a0a:	67a9                	lui	a5,0xa
    4a0c:	0ee78593          	addi	a1,a5,238 # a0ee <MyCfgDescrHD+0x2>
    4a10:	200007b7          	lui	a5,0x20000
    4a14:	01278513          	addi	a0,a5,18 # 20000012 <TAB_USB_FS_OSC_DESC+0x2>
    4a18:	498020ef          	jal	ra,6eb0 <memcpy>
D:/projects/mechanical_arm/Ctrl_Stepper_Motor/libraries/sdk/Peripheral/ch32v30x_usbotg_device.c:546
                                      pDescr = ( PUINT8 )&TAB_USB_FS_OSC_DESC[ 0 ];
    4a1c:	20000737          	lui	a4,0x20000
    4a20:	01070713          	addi	a4,a4,16 # 20000010 <TAB_USB_FS_OSC_DESC>
    4a24:	86e1a623          	sw	a4,-1940(gp) # 2000028c <pDescr>
D:/projects/mechanical_arm/Ctrl_Stepper_Motor/libraries/sdk/Peripheral/ch32v30x_usbotg_device.c:547
                                      len = sizeof( TAB_USB_FS_OSC_DESC );
    4a28:	04300793          	li	a5,67
    4a2c:	fef407a3          	sb	a5,-17(s0)
D:/projects/mechanical_arm/Ctrl_Stepper_Motor/libraries/sdk/Peripheral/ch32v30x_usbotg_device.c:553
                                    break;
    4a30:	a829                	j	4a4a <OTG_FS_IRQHandler+0x352>
D:/projects/mechanical_arm/Ctrl_Stepper_Motor/libraries/sdk/Peripheral/ch32v30x_usbotg_device.c:551
                                      errflag = 0xFF;
    4a32:	57fd                	li	a5,-1
    4a34:	fef40723          	sb	a5,-18(s0)
D:/projects/mechanical_arm/Ctrl_Stepper_Motor/libraries/sdk/Peripheral/ch32v30x_usbotg_device.c:553
                                    break;
    4a38:	a809                	j	4a4a <OTG_FS_IRQHandler+0x352>
D:/projects/mechanical_arm/Ctrl_Stepper_Motor/libraries/sdk/Peripheral/ch32v30x_usbotg_device.c:558
                                    errflag = 0xFF;
    4a3a:	57fd                	li	a5,-1
    4a3c:	fef40723          	sb	a5,-18(s0)
D:/projects/mechanical_arm/Ctrl_Stepper_Motor/libraries/sdk/Peripheral/ch32v30x_usbotg_device.c:559
                                    break;
    4a40:	a029                	j	4a4a <OTG_FS_IRQHandler+0x352>
D:/projects/mechanical_arm/Ctrl_Stepper_Motor/libraries/sdk/Peripheral/ch32v30x_usbotg_device.c:562
                                    errflag = 0xff;
    4a42:	57fd                	li	a5,-1
    4a44:	fef40723          	sb	a5,-18(s0)
D:/projects/mechanical_arm/Ctrl_Stepper_Motor/libraries/sdk/Peripheral/ch32v30x_usbotg_device.c:563
                                    break;
    4a48:	0001                	nop
D:/projects/mechanical_arm/Ctrl_Stepper_Motor/libraries/sdk/Peripheral/ch32v30x_usbotg_device.c:567
                            if( SetupReqLen>len )   SetupReqLen = len;
    4a4a:	fef44783          	lbu	a5,-17(s0)
    4a4e:	01079713          	slli	a4,a5,0x10
    4a52:	8341                	srli	a4,a4,0x10
    4a54:	8761d783          	lhu	a5,-1930(gp) # 20000296 <SetupReqLen>
    4a58:	07c2                	slli	a5,a5,0x10
    4a5a:	83c1                	srli	a5,a5,0x10
    4a5c:	00f77963          	bgeu	a4,a5,4a6e <OTG_FS_IRQHandler+0x376>
D:/projects/mechanical_arm/Ctrl_Stepper_Motor/libraries/sdk/Peripheral/ch32v30x_usbotg_device.c:567 (discriminator 1)
    4a60:	fef44783          	lbu	a5,-17(s0)
    4a64:	01079713          	slli	a4,a5,0x10
    4a68:	8341                	srli	a4,a4,0x10
    4a6a:	86e19b23          	sh	a4,-1930(gp) # 20000296 <SetupReqLen>
D:/projects/mechanical_arm/Ctrl_Stepper_Motor/libraries/sdk/Peripheral/ch32v30x_usbotg_device.c:568
                            len = (SetupReqLen >= DevEP0SIZE) ? DevEP0SIZE : SetupReqLen;
    4a6e:	8761d783          	lhu	a5,-1930(gp) # 20000296 <SetupReqLen>
    4a72:	01079713          	slli	a4,a5,0x10
    4a76:	8341                	srli	a4,a4,0x10
    4a78:	479d                	li	a5,7
    4a7a:	00e7e963          	bltu	a5,a4,4a8c <OTG_FS_IRQHandler+0x394>
D:/projects/mechanical_arm/Ctrl_Stepper_Motor/libraries/sdk/Peripheral/ch32v30x_usbotg_device.c:568 (discriminator 1)
    4a7e:	8761d783          	lhu	a5,-1930(gp) # 20000296 <SetupReqLen>
    4a82:	07c2                	slli	a5,a5,0x10
    4a84:	83c1                	srli	a5,a5,0x10
    4a86:	0ff7f793          	andi	a5,a5,255
    4a8a:	a011                	j	4a8e <OTG_FS_IRQHandler+0x396>
D:/projects/mechanical_arm/Ctrl_Stepper_Motor/libraries/sdk/Peripheral/ch32v30x_usbotg_device.c:568 (discriminator 2)
    4a8c:	47a1                	li	a5,8
D:/projects/mechanical_arm/Ctrl_Stepper_Motor/libraries/sdk/Peripheral/ch32v30x_usbotg_device.c:568 (discriminator 4)
    4a8e:	fef407a3          	sb	a5,-17(s0)
D:/projects/mechanical_arm/Ctrl_Stepper_Motor/libraries/sdk/Peripheral/ch32v30x_usbotg_device.c:569 (discriminator 4)
                            memcpy( pEP0_DataBuf, pDescr, len );
    4a92:	8601a703          	lw	a4,-1952(gp) # 20000280 <pEP0_RAM_Addr>
    4a96:	86c1a783          	lw	a5,-1940(gp) # 2000028c <pDescr>
    4a9a:	fef44683          	lbu	a3,-17(s0)
    4a9e:	8636                	mv	a2,a3
    4aa0:	85be                	mv	a1,a5
    4aa2:	853a                	mv	a0,a4
    4aa4:	40c020ef          	jal	ra,6eb0 <memcpy>
D:/projects/mechanical_arm/Ctrl_Stepper_Motor/libraries/sdk/Peripheral/ch32v30x_usbotg_device.c:570 (discriminator 4)
                            pDescr += len;
    4aa8:	86c1a703          	lw	a4,-1940(gp) # 2000028c <pDescr>
    4aac:	fef44783          	lbu	a5,-17(s0)
    4ab0:	973e                	add	a4,a4,a5
    4ab2:	86e1a623          	sw	a4,-1940(gp) # 2000028c <pDescr>
D:/projects/mechanical_arm/Ctrl_Stepper_Motor/libraries/sdk/Peripheral/ch32v30x_usbotg_device.c:572 (discriminator 4)
                            break;
    4ab6:	a935                	j	4ef2 <OTG_FS_IRQHandler+0x7fa>
D:/projects/mechanical_arm/Ctrl_Stepper_Motor/libraries/sdk/Peripheral/ch32v30x_usbotg_device.c:576
                            SetupReqLen = (pSetupReqPakHD->wValue)&0xff;
    4ab8:	8601a783          	lw	a5,-1952(gp) # 20000280 <pEP0_RAM_Addr>
    4abc:	0027c703          	lbu	a4,2(a5)
    4ac0:	0037c783          	lbu	a5,3(a5)
    4ac4:	07a2                	slli	a5,a5,0x8
    4ac6:	8fd9                	or	a5,a5,a4
    4ac8:	07c2                	slli	a5,a5,0x10
    4aca:	83c1                	srli	a5,a5,0x10
    4acc:	0ff7f793          	andi	a5,a5,255
    4ad0:	01079713          	slli	a4,a5,0x10
    4ad4:	8341                	srli	a4,a4,0x10
    4ad6:	86e19b23          	sh	a4,-1930(gp) # 20000296 <SetupReqLen>
D:/projects/mechanical_arm/Ctrl_Stepper_Motor/libraries/sdk/Peripheral/ch32v30x_usbotg_device.c:577
                            break;
    4ada:	a921                	j	4ef2 <OTG_FS_IRQHandler+0x7fa>
D:/projects/mechanical_arm/Ctrl_Stepper_Motor/libraries/sdk/Peripheral/ch32v30x_usbotg_device.c:581
                            pEP0_DataBuf[0] = DevConfig;
    4adc:	8601a783          	lw	a5,-1952(gp) # 20000280 <pEP0_RAM_Addr>
    4ae0:	8731c703          	lbu	a4,-1933(gp) # 20000293 <DevConfig>
    4ae4:	0ff77713          	andi	a4,a4,255
    4ae8:	00e78023          	sb	a4,0(a5)
D:/projects/mechanical_arm/Ctrl_Stepper_Motor/libraries/sdk/Peripheral/ch32v30x_usbotg_device.c:582
                            if ( SetupReqLen > 1 ) SetupReqLen = 1;
    4aec:	8761d783          	lhu	a5,-1930(gp) # 20000296 <SetupReqLen>
    4af0:	01079713          	slli	a4,a5,0x10
    4af4:	8341                	srli	a4,a4,0x10
    4af6:	4785                	li	a5,1
    4af8:	3ee7f663          	bgeu	a5,a4,4ee4 <OTG_FS_IRQHandler+0x7ec>
D:/projects/mechanical_arm/Ctrl_Stepper_Motor/libraries/sdk/Peripheral/ch32v30x_usbotg_device.c:582 (discriminator 1)
    4afc:	4705                	li	a4,1
    4afe:	86e19b23          	sh	a4,-1930(gp) # 20000296 <SetupReqLen>
D:/projects/mechanical_arm/Ctrl_Stepper_Motor/libraries/sdk/Peripheral/ch32v30x_usbotg_device.c:583 (discriminator 1)
                            break;
    4b02:	a6cd                	j	4ee4 <OTG_FS_IRQHandler+0x7ec>
D:/projects/mechanical_arm/Ctrl_Stepper_Motor/libraries/sdk/Peripheral/ch32v30x_usbotg_device.c:587
                            DevConfig = (pSetupReqPakHD->wValue)&0xff;
    4b04:	8601a783          	lw	a5,-1952(gp) # 20000280 <pEP0_RAM_Addr>
    4b08:	0027c703          	lbu	a4,2(a5)
    4b0c:	0037c783          	lbu	a5,3(a5)
    4b10:	07a2                	slli	a5,a5,0x8
    4b12:	8fd9                	or	a5,a5,a4
    4b14:	07c2                	slli	a5,a5,0x10
    4b16:	83c1                	srli	a5,a5,0x10
    4b18:	0ff7f713          	andi	a4,a5,255
    4b1c:	86e189a3          	sb	a4,-1933(gp) # 20000293 <DevConfig>
D:/projects/mechanical_arm/Ctrl_Stepper_Motor/libraries/sdk/Peripheral/ch32v30x_usbotg_device.c:588
                            break;
    4b20:	aec9                	j	4ef2 <OTG_FS_IRQHandler+0x7fa>
D:/projects/mechanical_arm/Ctrl_Stepper_Motor/libraries/sdk/Peripheral/ch32v30x_usbotg_device.c:592
                            if ( ( pSetupReqPakHD->bRequestType & USB_REQ_RECIP_MASK ) == USB_REQ_RECIP_ENDP )
    4b22:	8601a783          	lw	a5,-1952(gp) # 20000280 <pEP0_RAM_Addr>
    4b26:	0007c783          	lbu	a5,0(a5)
    4b2a:	01f7f713          	andi	a4,a5,31
    4b2e:	4789                	li	a5,2
    4b30:	0cf71f63          	bne	a4,a5,4c0e <OTG_FS_IRQHandler+0x516>
D:/projects/mechanical_arm/Ctrl_Stepper_Motor/libraries/sdk/Peripheral/ch32v30x_usbotg_device.c:595
                                switch( (pSetupReqPakHD->wIndex)&0xff )
    4b34:	8601a783          	lw	a5,-1952(gp) # 20000280 <pEP0_RAM_Addr>
    4b38:	0047c703          	lbu	a4,4(a5)
    4b3c:	0057c783          	lbu	a5,5(a5)
    4b40:	07a2                	slli	a5,a5,0x8
    4b42:	8fd9                	or	a5,a5,a4
    4b44:	07c2                	slli	a5,a5,0x10
    4b46:	83c1                	srli	a5,a5,0x10
    4b48:	0ff7f793          	andi	a5,a5,255
    4b4c:	4709                	li	a4,2
    4b4e:	04e78863          	beq	a5,a4,4b9e <OTG_FS_IRQHandler+0x4a6>
    4b52:	4709                	li	a4,2
    4b54:	00f74663          	blt	a4,a5,4b60 <OTG_FS_IRQHandler+0x468>
    4b58:	4705                	li	a4,1
    4b5a:	08e78763          	beq	a5,a4,4be8 <OTG_FS_IRQHandler+0x4f0>
    4b5e:	a05d                	j	4c04 <OTG_FS_IRQHandler+0x50c>
    4b60:	08100713          	li	a4,129
    4b64:	04e78b63          	beq	a5,a4,4bba <OTG_FS_IRQHandler+0x4c2>
    4b68:	08200713          	li	a4,130
    4b6c:	08e79c63          	bne	a5,a4,4c04 <OTG_FS_IRQHandler+0x50c>
D:/projects/mechanical_arm/Ctrl_Stepper_Motor/libraries/sdk/Peripheral/ch32v30x_usbotg_device.c:598
                                    USBOTG_FS->UEP2_TX_CTRL = (USBOTG_FS->UEP2_TX_CTRL & ~( USBHD_UEP_T_TOG|USBHD_UEP_T_RES_MASK )) | USBHD_UEP_T_RES_NAK;
    4b70:	500007b7          	lui	a5,0x50000
    4b74:	03a7c783          	lbu	a5,58(a5) # 5000003a <_eusrstack+0x2fff003a>
    4b78:	0ff7f793          	andi	a5,a5,255
    4b7c:	07e2                	slli	a5,a5,0x18
    4b7e:	87e1                	srai	a5,a5,0x18
    4b80:	9be1                	andi	a5,a5,-8
    4b82:	07e2                	slli	a5,a5,0x18
    4b84:	87e1                	srai	a5,a5,0x18
    4b86:	0027e793          	ori	a5,a5,2
    4b8a:	01879713          	slli	a4,a5,0x18
    4b8e:	8761                	srai	a4,a4,0x18
    4b90:	500007b7          	lui	a5,0x50000
    4b94:	0ff77713          	andi	a4,a4,255
    4b98:	02e78d23          	sb	a4,58(a5) # 5000003a <_eusrstack+0x2fff003a>
D:/projects/mechanical_arm/Ctrl_Stepper_Motor/libraries/sdk/Peripheral/ch32v30x_usbotg_device.c:599
                                    break;
    4b9c:	a8ad                	j	4c16 <OTG_FS_IRQHandler+0x51e>
D:/projects/mechanical_arm/Ctrl_Stepper_Motor/libraries/sdk/Peripheral/ch32v30x_usbotg_device.c:602
                                    USBOTG_FS->UEP2_RX_CTRL = (USBOTG_FS->UEP2_RX_CTRL & ~( USBHD_UEP_R_TOG|USBHD_UEP_R_RES_MASK )) | USBHD_UEP_R_RES_ACK;
    4b9e:	500007b7          	lui	a5,0x50000
    4ba2:	03b7c783          	lbu	a5,59(a5) # 5000003b <_eusrstack+0x2fff003b>
    4ba6:	0ff7f713          	andi	a4,a5,255
    4baa:	500007b7          	lui	a5,0x50000
    4bae:	9b61                	andi	a4,a4,-8
    4bb0:	0ff77713          	andi	a4,a4,255
    4bb4:	02e78da3          	sb	a4,59(a5) # 5000003b <_eusrstack+0x2fff003b>
D:/projects/mechanical_arm/Ctrl_Stepper_Motor/libraries/sdk/Peripheral/ch32v30x_usbotg_device.c:603
                                    break;
    4bb8:	a8b9                	j	4c16 <OTG_FS_IRQHandler+0x51e>
D:/projects/mechanical_arm/Ctrl_Stepper_Motor/libraries/sdk/Peripheral/ch32v30x_usbotg_device.c:606
                                    USBOTG_FS->UEP1_TX_CTRL = (USBOTG_FS->UEP1_TX_CTRL & ~( USBHD_UEP_T_TOG|USBHD_UEP_T_RES_MASK )) | USBHD_UEP_T_RES_NAK;
    4bba:	500007b7          	lui	a5,0x50000
    4bbe:	0367c783          	lbu	a5,54(a5) # 50000036 <_eusrstack+0x2fff0036>
    4bc2:	0ff7f793          	andi	a5,a5,255
    4bc6:	07e2                	slli	a5,a5,0x18
    4bc8:	87e1                	srai	a5,a5,0x18
    4bca:	9be1                	andi	a5,a5,-8
    4bcc:	07e2                	slli	a5,a5,0x18
    4bce:	87e1                	srai	a5,a5,0x18
    4bd0:	0027e793          	ori	a5,a5,2
    4bd4:	01879713          	slli	a4,a5,0x18
    4bd8:	8761                	srai	a4,a4,0x18
    4bda:	500007b7          	lui	a5,0x50000
    4bde:	0ff77713          	andi	a4,a4,255
    4be2:	02e78b23          	sb	a4,54(a5) # 50000036 <_eusrstack+0x2fff0036>
D:/projects/mechanical_arm/Ctrl_Stepper_Motor/libraries/sdk/Peripheral/ch32v30x_usbotg_device.c:607
                                    break;
    4be6:	a805                	j	4c16 <OTG_FS_IRQHandler+0x51e>
D:/projects/mechanical_arm/Ctrl_Stepper_Motor/libraries/sdk/Peripheral/ch32v30x_usbotg_device.c:610
                                    USBOTG_FS->UEP1_RX_CTRL = (USBOTG_FS->UEP1_RX_CTRL & ~( USBHD_UEP_R_TOG|USBHD_UEP_R_RES_MASK )) | USBHD_UEP_R_RES_ACK;
    4be8:	500007b7          	lui	a5,0x50000
    4bec:	0377c783          	lbu	a5,55(a5) # 50000037 <_eusrstack+0x2fff0037>
    4bf0:	0ff7f713          	andi	a4,a5,255
    4bf4:	500007b7          	lui	a5,0x50000
    4bf8:	9b61                	andi	a4,a4,-8
    4bfa:	0ff77713          	andi	a4,a4,255
    4bfe:	02e78ba3          	sb	a4,55(a5) # 50000037 <_eusrstack+0x2fff0037>
D:/projects/mechanical_arm/Ctrl_Stepper_Motor/libraries/sdk/Peripheral/ch32v30x_usbotg_device.c:611
                                    break;
    4c02:	a811                	j	4c16 <OTG_FS_IRQHandler+0x51e>
D:/projects/mechanical_arm/Ctrl_Stepper_Motor/libraries/sdk/Peripheral/ch32v30x_usbotg_device.c:614
                                    errflag = 0xFF;
    4c04:	57fd                	li	a5,-1
    4c06:	fef40723          	sb	a5,-18(s0)
D:/projects/mechanical_arm/Ctrl_Stepper_Motor/libraries/sdk/Peripheral/ch32v30x_usbotg_device.c:615
                                    break;
    4c0a:	0001                	nop
    4c0c:	a029                	j	4c16 <OTG_FS_IRQHandler+0x51e>
D:/projects/mechanical_arm/Ctrl_Stepper_Motor/libraries/sdk/Peripheral/ch32v30x_usbotg_device.c:619
                            else    errflag = 0xFF;
    4c0e:	57fd                	li	a5,-1
    4c10:	fef40723          	sb	a5,-18(s0)
D:/projects/mechanical_arm/Ctrl_Stepper_Motor/libraries/sdk/Peripheral/ch32v30x_usbotg_device.c:620
                            break;
    4c14:	acf9                	j	4ef2 <OTG_FS_IRQHandler+0x7fa>
    4c16:	acf1                	j	4ef2 <OTG_FS_IRQHandler+0x7fa>
D:/projects/mechanical_arm/Ctrl_Stepper_Motor/libraries/sdk/Peripheral/ch32v30x_usbotg_device.c:624
                            if( ( pMySetupReqPakHD->bRequestType & 0x1F ) == 0x00 )
    4c18:	85818793          	addi	a5,gp,-1960 # 20000278 <EP0_DatabufHD>
    4c1c:	0007c783          	lbu	a5,0(a5)
    4c20:	8bfd                	andi	a5,a5,31
    4c22:	e3a1                	bnez	a5,4c62 <OTG_FS_IRQHandler+0x56a>
D:/projects/mechanical_arm/Ctrl_Stepper_Motor/libraries/sdk/Peripheral/ch32v30x_usbotg_device.c:627
                                if( pMySetupReqPakHD->wValue == 0x01 )
    4c24:	85818793          	addi	a5,gp,-1960 # 20000278 <EP0_DatabufHD>
    4c28:	0027c703          	lbu	a4,2(a5)
    4c2c:	0037c783          	lbu	a5,3(a5)
    4c30:	07a2                	slli	a5,a5,0x8
    4c32:	8fd9                	or	a5,a5,a4
    4c34:	01079713          	slli	a4,a5,0x10
    4c38:	8341                	srli	a4,a4,0x10
    4c3a:	4785                	li	a5,1
    4c3c:	00f71f63          	bne	a4,a5,4c5a <OTG_FS_IRQHandler+0x562>
D:/projects/mechanical_arm/Ctrl_Stepper_Motor/libraries/sdk/Peripheral/ch32v30x_usbotg_device.c:629
                                    if( MyCfgDescrHD[ 7 ] & 0x20 )
    4c40:	0a000793          	li	a5,160
    4c44:	0207f793          	andi	a5,a5,32
    4c48:	c789                	beqz	a5,4c52 <OTG_FS_IRQHandler+0x55a>
D:/projects/mechanical_arm/Ctrl_Stepper_Motor/libraries/sdk/Peripheral/ch32v30x_usbotg_device.c:632
                                        USBHD_Dev_SleepStatus = 0x01;
    4c4a:	4705                	li	a4,1
    4c4c:	86e18923          	sb	a4,-1934(gp) # 20000292 <USBHD_Dev_SleepStatus>
D:/projects/mechanical_arm/Ctrl_Stepper_Motor/libraries/sdk/Peripheral/ch32v30x_usbotg_device.c:690
                            break;
    4c50:	a44d                	j	4ef2 <OTG_FS_IRQHandler+0x7fa>
D:/projects/mechanical_arm/Ctrl_Stepper_Motor/libraries/sdk/Peripheral/ch32v30x_usbotg_device.c:636
                                        errflag = 0xFF;
    4c52:	57fd                	li	a5,-1
    4c54:	fef40723          	sb	a5,-18(s0)
D:/projects/mechanical_arm/Ctrl_Stepper_Motor/libraries/sdk/Peripheral/ch32v30x_usbotg_device.c:690
                            break;
    4c58:	ac69                	j	4ef2 <OTG_FS_IRQHandler+0x7fa>
D:/projects/mechanical_arm/Ctrl_Stepper_Motor/libraries/sdk/Peripheral/ch32v30x_usbotg_device.c:641
                                    errflag = 0xFF;
    4c5a:	57fd                	li	a5,-1
    4c5c:	fef40723          	sb	a5,-18(s0)
D:/projects/mechanical_arm/Ctrl_Stepper_Motor/libraries/sdk/Peripheral/ch32v30x_usbotg_device.c:690
                            break;
    4c60:	ac49                	j	4ef2 <OTG_FS_IRQHandler+0x7fa>
D:/projects/mechanical_arm/Ctrl_Stepper_Motor/libraries/sdk/Peripheral/ch32v30x_usbotg_device.c:644
                            else if( ( pMySetupReqPakHD->bRequestType & 0x1F ) == 0x02 )
    4c62:	85818793          	addi	a5,gp,-1960 # 20000278 <EP0_DatabufHD>
    4c66:	0007c783          	lbu	a5,0(a5)
    4c6a:	01f7f713          	andi	a4,a5,31
    4c6e:	4789                	li	a5,2
    4c70:	10f71c63          	bne	a4,a5,4d88 <OTG_FS_IRQHandler+0x690>
D:/projects/mechanical_arm/Ctrl_Stepper_Motor/libraries/sdk/Peripheral/ch32v30x_usbotg_device.c:647
                                if( pMySetupReqPakHD->wValue == 0x00 )
    4c74:	85818793          	addi	a5,gp,-1960 # 20000278 <EP0_DatabufHD>
    4c78:	0027c703          	lbu	a4,2(a5)
    4c7c:	0037c783          	lbu	a5,3(a5)
    4c80:	07a2                	slli	a5,a5,0x8
    4c82:	8fd9                	or	a5,a5,a4
    4c84:	07c2                	slli	a5,a5,0x10
    4c86:	83c1                	srli	a5,a5,0x10
    4c88:	efe5                	bnez	a5,4d80 <OTG_FS_IRQHandler+0x688>
D:/projects/mechanical_arm/Ctrl_Stepper_Motor/libraries/sdk/Peripheral/ch32v30x_usbotg_device.c:650
                                    switch( ( pMySetupReqPakHD->wIndex ) & 0xff )
    4c8a:	85818793          	addi	a5,gp,-1960 # 20000278 <EP0_DatabufHD>
    4c8e:	0047c703          	lbu	a4,4(a5)
    4c92:	0057c783          	lbu	a5,5(a5)
    4c96:	07a2                	slli	a5,a5,0x8
    4c98:	8fd9                	or	a5,a5,a4
    4c9a:	07c2                	slli	a5,a5,0x10
    4c9c:	83c1                	srli	a5,a5,0x10
    4c9e:	0ff7f793          	andi	a5,a5,255
    4ca2:	4709                	li	a4,2
    4ca4:	04e78763          	beq	a5,a4,4cf2 <OTG_FS_IRQHandler+0x5fa>
    4ca8:	4709                	li	a4,2
    4caa:	00f74663          	blt	a4,a5,4cb6 <OTG_FS_IRQHandler+0x5be>
    4cae:	4705                	li	a4,1
    4cb0:	08e78d63          	beq	a5,a4,4d4a <OTG_FS_IRQHandler+0x652>
    4cb4:	a0c9                	j	4d76 <OTG_FS_IRQHandler+0x67e>
    4cb6:	08100713          	li	a4,129
    4cba:	06e78263          	beq	a5,a4,4d1e <OTG_FS_IRQHandler+0x626>
    4cbe:	08200713          	li	a4,130
    4cc2:	0ae79a63          	bne	a5,a4,4d76 <OTG_FS_IRQHandler+0x67e>
D:/projects/mechanical_arm/Ctrl_Stepper_Motor/libraries/sdk/Peripheral/ch32v30x_usbotg_device.c:654
                                            USBOTG_FS->UEP2_TX_CTRL = ( USBOTG_FS->UEP2_TX_CTRL &= ~USBHD_UEP_T_RES_MASK ) | USBHD_UEP_T_RES_STALL;
    4cc6:	500007b7          	lui	a5,0x50000
    4cca:	03a7c783          	lbu	a5,58(a5) # 5000003a <_eusrstack+0x2fff003a>
    4cce:	0ff7f793          	andi	a5,a5,255
    4cd2:	50000737          	lui	a4,0x50000
    4cd6:	9bf1                	andi	a5,a5,-4
    4cd8:	0ff7f793          	andi	a5,a5,255
    4cdc:	02f70d23          	sb	a5,58(a4) # 5000003a <_eusrstack+0x2fff003a>
    4ce0:	50000737          	lui	a4,0x50000
    4ce4:	0037e793          	ori	a5,a5,3
    4ce8:	0ff7f793          	andi	a5,a5,255
    4cec:	02f70d23          	sb	a5,58(a4) # 5000003a <_eusrstack+0x2fff003a>
D:/projects/mechanical_arm/Ctrl_Stepper_Motor/libraries/sdk/Peripheral/ch32v30x_usbotg_device.c:656
                                            break;
    4cf0:	a045                	j	4d90 <OTG_FS_IRQHandler+0x698>
D:/projects/mechanical_arm/Ctrl_Stepper_Motor/libraries/sdk/Peripheral/ch32v30x_usbotg_device.c:660
                                            USBOTG_FS->UEP2_RX_CTRL = ( USBOTG_FS->UEP2_RX_CTRL &= ~USBHD_UEP_R_RES_MASK ) | USBHD_UEP_R_RES_STALL;
    4cf2:	500007b7          	lui	a5,0x50000
    4cf6:	03b7c783          	lbu	a5,59(a5) # 5000003b <_eusrstack+0x2fff003b>
    4cfa:	0ff7f793          	andi	a5,a5,255
    4cfe:	50000737          	lui	a4,0x50000
    4d02:	9bf1                	andi	a5,a5,-4
    4d04:	0ff7f793          	andi	a5,a5,255
    4d08:	02f70da3          	sb	a5,59(a4) # 5000003b <_eusrstack+0x2fff003b>
    4d0c:	50000737          	lui	a4,0x50000
    4d10:	0037e793          	ori	a5,a5,3
    4d14:	0ff7f793          	andi	a5,a5,255
    4d18:	02f70da3          	sb	a5,59(a4) # 5000003b <_eusrstack+0x2fff003b>
D:/projects/mechanical_arm/Ctrl_Stepper_Motor/libraries/sdk/Peripheral/ch32v30x_usbotg_device.c:662
                                            break;
    4d1c:	a895                	j	4d90 <OTG_FS_IRQHandler+0x698>
D:/projects/mechanical_arm/Ctrl_Stepper_Motor/libraries/sdk/Peripheral/ch32v30x_usbotg_device.c:666
                                            USBOTG_FS->UEP1_TX_CTRL = ( USBOTG_FS->UEP1_TX_CTRL &= ~USBHD_UEP_T_RES_MASK ) | USBHD_UEP_T_RES_STALL;
    4d1e:	500007b7          	lui	a5,0x50000
    4d22:	0367c783          	lbu	a5,54(a5) # 50000036 <_eusrstack+0x2fff0036>
    4d26:	0ff7f793          	andi	a5,a5,255
    4d2a:	50000737          	lui	a4,0x50000
    4d2e:	9bf1                	andi	a5,a5,-4
    4d30:	0ff7f793          	andi	a5,a5,255
    4d34:	02f70b23          	sb	a5,54(a4) # 50000036 <_eusrstack+0x2fff0036>
    4d38:	50000737          	lui	a4,0x50000
    4d3c:	0037e793          	ori	a5,a5,3
    4d40:	0ff7f793          	andi	a5,a5,255
    4d44:	02f70b23          	sb	a5,54(a4) # 50000036 <_eusrstack+0x2fff0036>
D:/projects/mechanical_arm/Ctrl_Stepper_Motor/libraries/sdk/Peripheral/ch32v30x_usbotg_device.c:668
                                            break;
    4d48:	a0a1                	j	4d90 <OTG_FS_IRQHandler+0x698>
D:/projects/mechanical_arm/Ctrl_Stepper_Motor/libraries/sdk/Peripheral/ch32v30x_usbotg_device.c:672
                                            USBOTG_FS->UEP1_RX_CTRL = ( USBOTG_FS->UEP1_RX_CTRL &= ~USBHD_UEP_R_RES_MASK ) | USBHD_UEP_R_RES_STALL;
    4d4a:	500007b7          	lui	a5,0x50000
    4d4e:	0377c783          	lbu	a5,55(a5) # 50000037 <_eusrstack+0x2fff0037>
    4d52:	0ff7f793          	andi	a5,a5,255
    4d56:	50000737          	lui	a4,0x50000
    4d5a:	9bf1                	andi	a5,a5,-4
    4d5c:	0ff7f793          	andi	a5,a5,255
    4d60:	02f70ba3          	sb	a5,55(a4) # 50000037 <_eusrstack+0x2fff0037>
    4d64:	50000737          	lui	a4,0x50000
    4d68:	0037e793          	ori	a5,a5,3
    4d6c:	0ff7f793          	andi	a5,a5,255
    4d70:	02f70ba3          	sb	a5,55(a4) # 50000037 <_eusrstack+0x2fff0037>
D:/projects/mechanical_arm/Ctrl_Stepper_Motor/libraries/sdk/Peripheral/ch32v30x_usbotg_device.c:674
                                            break;
    4d74:	a831                	j	4d90 <OTG_FS_IRQHandler+0x698>
D:/projects/mechanical_arm/Ctrl_Stepper_Motor/libraries/sdk/Peripheral/ch32v30x_usbotg_device.c:677
                                            errflag = 0xFF;
    4d76:	57fd                	li	a5,-1
    4d78:	fef40723          	sb	a5,-18(s0)
D:/projects/mechanical_arm/Ctrl_Stepper_Motor/libraries/sdk/Peripheral/ch32v30x_usbotg_device.c:678
                                            break;
    4d7c:	0001                	nop
    4d7e:	a809                	j	4d90 <OTG_FS_IRQHandler+0x698>
D:/projects/mechanical_arm/Ctrl_Stepper_Motor/libraries/sdk/Peripheral/ch32v30x_usbotg_device.c:683
                                    errflag = 0xFF;
    4d80:	57fd                	li	a5,-1
    4d82:	fef40723          	sb	a5,-18(s0)
D:/projects/mechanical_arm/Ctrl_Stepper_Motor/libraries/sdk/Peripheral/ch32v30x_usbotg_device.c:690
                            break;
    4d86:	a2b5                	j	4ef2 <OTG_FS_IRQHandler+0x7fa>
D:/projects/mechanical_arm/Ctrl_Stepper_Motor/libraries/sdk/Peripheral/ch32v30x_usbotg_device.c:688
                                errflag = 0xFF;
    4d88:	57fd                	li	a5,-1
    4d8a:	fef40723          	sb	a5,-18(s0)
D:/projects/mechanical_arm/Ctrl_Stepper_Motor/libraries/sdk/Peripheral/ch32v30x_usbotg_device.c:690
                            break;
    4d8e:	a295                	j	4ef2 <OTG_FS_IRQHandler+0x7fa>
D:/projects/mechanical_arm/Ctrl_Stepper_Motor/libraries/sdk/Peripheral/ch32v30x_usbotg_device.c:690 (discriminator 4)
    4d90:	a28d                	j	4ef2 <OTG_FS_IRQHandler+0x7fa>
D:/projects/mechanical_arm/Ctrl_Stepper_Motor/libraries/sdk/Peripheral/ch32v30x_usbotg_device.c:694
                            pEP0_DataBuf[0] = 0x00;
    4d92:	8601a783          	lw	a5,-1952(gp) # 20000280 <pEP0_RAM_Addr>
    4d96:	00078023          	sb	zero,0(a5)
D:/projects/mechanical_arm/Ctrl_Stepper_Motor/libraries/sdk/Peripheral/ch32v30x_usbotg_device.c:695
                            if ( SetupReqLen > 1 ) SetupReqLen = 1;
    4d9a:	8761d783          	lhu	a5,-1930(gp) # 20000296 <SetupReqLen>
    4d9e:	01079713          	slli	a4,a5,0x10
    4da2:	8341                	srli	a4,a4,0x10
    4da4:	4785                	li	a5,1
    4da6:	14e7f163          	bgeu	a5,a4,4ee8 <OTG_FS_IRQHandler+0x7f0>
D:/projects/mechanical_arm/Ctrl_Stepper_Motor/libraries/sdk/Peripheral/ch32v30x_usbotg_device.c:695 (discriminator 1)
    4daa:	4705                	li	a4,1
    4dac:	86e19b23          	sh	a4,-1930(gp) # 20000296 <SetupReqLen>
D:/projects/mechanical_arm/Ctrl_Stepper_Motor/libraries/sdk/Peripheral/ch32v30x_usbotg_device.c:696 (discriminator 1)
                            break;
    4db0:	aa25                	j	4ee8 <OTG_FS_IRQHandler+0x7f0>
D:/projects/mechanical_arm/Ctrl_Stepper_Motor/libraries/sdk/Peripheral/ch32v30x_usbotg_device.c:700
                            EP0_DatabufHD[ 0 ] = 0x00;
    4db2:	84018c23          	sb	zero,-1960(gp) # 20000278 <EP0_DatabufHD>
D:/projects/mechanical_arm/Ctrl_Stepper_Motor/libraries/sdk/Peripheral/ch32v30x_usbotg_device.c:701
                            if( USBHD_Dev_SetupReqLen > 1 )
    4db6:	8701d783          	lhu	a5,-1936(gp) # 20000290 <USBHD_Dev_SetupReqLen>
    4dba:	01079713          	slli	a4,a5,0x10
    4dbe:	8341                	srli	a4,a4,0x10
    4dc0:	4785                	li	a5,1
    4dc2:	12e7f563          	bgeu	a5,a4,4eec <OTG_FS_IRQHandler+0x7f4>
D:/projects/mechanical_arm/Ctrl_Stepper_Motor/libraries/sdk/Peripheral/ch32v30x_usbotg_device.c:703
                                USBHD_Dev_SetupReqLen = 1;
    4dc6:	4705                	li	a4,1
    4dc8:	86e19823          	sh	a4,-1936(gp) # 20000290 <USBHD_Dev_SetupReqLen>
D:/projects/mechanical_arm/Ctrl_Stepper_Motor/libraries/sdk/Peripheral/ch32v30x_usbotg_device.c:705
                            break;
    4dcc:	a205                	j	4eec <OTG_FS_IRQHandler+0x7f4>
D:/projects/mechanical_arm/Ctrl_Stepper_Motor/libraries/sdk/Peripheral/ch32v30x_usbotg_device.c:709
                            EP0_DatabufHD[ 0 ] = 0x00;
    4dce:	84018c23          	sb	zero,-1960(gp) # 20000278 <EP0_DatabufHD>
D:/projects/mechanical_arm/Ctrl_Stepper_Motor/libraries/sdk/Peripheral/ch32v30x_usbotg_device.c:710
                            EP0_DatabufHD[ 1 ] = 0x00;
    4dd2:	85818793          	addi	a5,gp,-1960 # 20000278 <EP0_DatabufHD>
    4dd6:	000780a3          	sb	zero,1(a5)
D:/projects/mechanical_arm/Ctrl_Stepper_Motor/libraries/sdk/Peripheral/ch32v30x_usbotg_device.c:711
                            if( pMySetupReqPakHD->wIndex == 0x81 )
    4dda:	85818793          	addi	a5,gp,-1960 # 20000278 <EP0_DatabufHD>
    4dde:	0047c703          	lbu	a4,4(a5)
    4de2:	0057c783          	lbu	a5,5(a5)
    4de6:	07a2                	slli	a5,a5,0x8
    4de8:	8fd9                	or	a5,a5,a4
    4dea:	01079713          	slli	a4,a5,0x10
    4dee:	8341                	srli	a4,a4,0x10
    4df0:	08100793          	li	a5,129
    4df4:	02f71163          	bne	a4,a5,4e16 <OTG_FS_IRQHandler+0x71e>
D:/projects/mechanical_arm/Ctrl_Stepper_Motor/libraries/sdk/Peripheral/ch32v30x_usbotg_device.c:713
                                if( ( USBOTG_FS->UEP1_TX_CTRL & USBHD_UEP_T_RES_MASK ) == USBHD_UEP_T_RES_STALL )
    4df8:	500007b7          	lui	a5,0x50000
    4dfc:	0367c783          	lbu	a5,54(a5) # 50000036 <_eusrstack+0x2fff0036>
    4e00:	0ff7f793          	andi	a5,a5,255
    4e04:	0037f713          	andi	a4,a5,3
    4e08:	478d                	li	a5,3
    4e0a:	0af71d63          	bne	a4,a5,4ec4 <OTG_FS_IRQHandler+0x7cc>
D:/projects/mechanical_arm/Ctrl_Stepper_Motor/libraries/sdk/Peripheral/ch32v30x_usbotg_device.c:715
                                    EP0_DatabufHD[ 0 ] = 0x01;
    4e0e:	4705                	li	a4,1
    4e10:	84e18c23          	sb	a4,-1960(gp) # 20000278 <EP0_DatabufHD>
    4e14:	a845                	j	4ec4 <OTG_FS_IRQHandler+0x7cc>
D:/projects/mechanical_arm/Ctrl_Stepper_Motor/libraries/sdk/Peripheral/ch32v30x_usbotg_device.c:718
                            else if( pMySetupReqPakHD->wIndex == 0x01 )
    4e16:	85818793          	addi	a5,gp,-1960 # 20000278 <EP0_DatabufHD>
    4e1a:	0047c703          	lbu	a4,4(a5)
    4e1e:	0057c783          	lbu	a5,5(a5)
    4e22:	07a2                	slli	a5,a5,0x8
    4e24:	8fd9                	or	a5,a5,a4
    4e26:	01079713          	slli	a4,a5,0x10
    4e2a:	8341                	srli	a4,a4,0x10
    4e2c:	4785                	li	a5,1
    4e2e:	02f71163          	bne	a4,a5,4e50 <OTG_FS_IRQHandler+0x758>
D:/projects/mechanical_arm/Ctrl_Stepper_Motor/libraries/sdk/Peripheral/ch32v30x_usbotg_device.c:720
                                if( ( USBOTG_FS->UEP1_RX_CTRL & USBHD_UEP_R_RES_MASK ) == USBHD_UEP_R_RES_STALL )
    4e32:	500007b7          	lui	a5,0x50000
    4e36:	0377c783          	lbu	a5,55(a5) # 50000037 <_eusrstack+0x2fff0037>
    4e3a:	0ff7f793          	andi	a5,a5,255
    4e3e:	0037f713          	andi	a4,a5,3
    4e42:	478d                	li	a5,3
    4e44:	08f71063          	bne	a4,a5,4ec4 <OTG_FS_IRQHandler+0x7cc>
D:/projects/mechanical_arm/Ctrl_Stepper_Motor/libraries/sdk/Peripheral/ch32v30x_usbotg_device.c:722
                                    EP0_DatabufHD[ 0 ] = 0x01;
    4e48:	4705                	li	a4,1
    4e4a:	84e18c23          	sb	a4,-1960(gp) # 20000278 <EP0_DatabufHD>
    4e4e:	a89d                	j	4ec4 <OTG_FS_IRQHandler+0x7cc>
D:/projects/mechanical_arm/Ctrl_Stepper_Motor/libraries/sdk/Peripheral/ch32v30x_usbotg_device.c:725
                            else if( pMySetupReqPakHD->wIndex == 0x82 )
    4e50:	85818793          	addi	a5,gp,-1960 # 20000278 <EP0_DatabufHD>
    4e54:	0047c703          	lbu	a4,4(a5)
    4e58:	0057c783          	lbu	a5,5(a5)
    4e5c:	07a2                	slli	a5,a5,0x8
    4e5e:	8fd9                	or	a5,a5,a4
    4e60:	01079713          	slli	a4,a5,0x10
    4e64:	8341                	srli	a4,a4,0x10
    4e66:	08200793          	li	a5,130
    4e6a:	02f71163          	bne	a4,a5,4e8c <OTG_FS_IRQHandler+0x794>
D:/projects/mechanical_arm/Ctrl_Stepper_Motor/libraries/sdk/Peripheral/ch32v30x_usbotg_device.c:727
                                if( ( USBOTG_FS->UEP2_TX_CTRL & USBHD_UEP_T_RES_MASK ) == USBHD_UEP_T_RES_STALL )
    4e6e:	500007b7          	lui	a5,0x50000
    4e72:	03a7c783          	lbu	a5,58(a5) # 5000003a <_eusrstack+0x2fff003a>
    4e76:	0ff7f793          	andi	a5,a5,255
    4e7a:	0037f713          	andi	a4,a5,3
    4e7e:	478d                	li	a5,3
    4e80:	04f71263          	bne	a4,a5,4ec4 <OTG_FS_IRQHandler+0x7cc>
D:/projects/mechanical_arm/Ctrl_Stepper_Motor/libraries/sdk/Peripheral/ch32v30x_usbotg_device.c:729
                                    EP0_DatabufHD[ 0 ] = 0x01;
    4e84:	4705                	li	a4,1
    4e86:	84e18c23          	sb	a4,-1960(gp) # 20000278 <EP0_DatabufHD>
    4e8a:	a82d                	j	4ec4 <OTG_FS_IRQHandler+0x7cc>
D:/projects/mechanical_arm/Ctrl_Stepper_Motor/libraries/sdk/Peripheral/ch32v30x_usbotg_device.c:732
                            else if( pMySetupReqPakHD->wIndex == 0x02 )
    4e8c:	85818793          	addi	a5,gp,-1960 # 20000278 <EP0_DatabufHD>
    4e90:	0047c703          	lbu	a4,4(a5)
    4e94:	0057c783          	lbu	a5,5(a5)
    4e98:	07a2                	slli	a5,a5,0x8
    4e9a:	8fd9                	or	a5,a5,a4
    4e9c:	01079713          	slli	a4,a5,0x10
    4ea0:	8341                	srli	a4,a4,0x10
    4ea2:	4789                	li	a5,2
    4ea4:	02f71063          	bne	a4,a5,4ec4 <OTG_FS_IRQHandler+0x7cc>
D:/projects/mechanical_arm/Ctrl_Stepper_Motor/libraries/sdk/Peripheral/ch32v30x_usbotg_device.c:734
                                if( ( USBOTG_FS->UEP2_RX_CTRL & USBHD_UEP_R_RES_MASK ) == USBHD_UEP_R_RES_STALL )
    4ea8:	500007b7          	lui	a5,0x50000
    4eac:	03b7c783          	lbu	a5,59(a5) # 5000003b <_eusrstack+0x2fff003b>
    4eb0:	0ff7f793          	andi	a5,a5,255
    4eb4:	0037f713          	andi	a4,a5,3
    4eb8:	478d                	li	a5,3
    4eba:	00f71563          	bne	a4,a5,4ec4 <OTG_FS_IRQHandler+0x7cc>
D:/projects/mechanical_arm/Ctrl_Stepper_Motor/libraries/sdk/Peripheral/ch32v30x_usbotg_device.c:736
                                    EP0_DatabufHD[ 0 ] = 0x01;
    4ebe:	4705                	li	a4,1
    4ec0:	84e18c23          	sb	a4,-1960(gp) # 20000278 <EP0_DatabufHD>
D:/projects/mechanical_arm/Ctrl_Stepper_Motor/libraries/sdk/Peripheral/ch32v30x_usbotg_device.c:739
                            if( USBHD_Dev_SetupReqLen > 2 )
    4ec4:	8701d783          	lhu	a5,-1936(gp) # 20000290 <USBHD_Dev_SetupReqLen>
    4ec8:	01079713          	slli	a4,a5,0x10
    4ecc:	8341                	srli	a4,a4,0x10
    4ece:	4789                	li	a5,2
    4ed0:	02e7f063          	bgeu	a5,a4,4ef0 <OTG_FS_IRQHandler+0x7f8>
D:/projects/mechanical_arm/Ctrl_Stepper_Motor/libraries/sdk/Peripheral/ch32v30x_usbotg_device.c:741
                                USBHD_Dev_SetupReqLen = 2;
    4ed4:	4709                	li	a4,2
    4ed6:	86e19823          	sh	a4,-1936(gp) # 20000290 <USBHD_Dev_SetupReqLen>
D:/projects/mechanical_arm/Ctrl_Stepper_Motor/libraries/sdk/Peripheral/ch32v30x_usbotg_device.c:743
                            break;
    4eda:	a819                	j	4ef0 <OTG_FS_IRQHandler+0x7f8>
D:/projects/mechanical_arm/Ctrl_Stepper_Motor/libraries/sdk/Peripheral/ch32v30x_usbotg_device.c:746
                            errflag = 0xFF;
    4edc:	57fd                	li	a5,-1
    4ede:	fef40723          	sb	a5,-18(s0)
D:/projects/mechanical_arm/Ctrl_Stepper_Motor/libraries/sdk/Peripheral/ch32v30x_usbotg_device.c:747
                            break;
    4ee2:	a801                	j	4ef2 <OTG_FS_IRQHandler+0x7fa>
D:/projects/mechanical_arm/Ctrl_Stepper_Motor/libraries/sdk/Peripheral/ch32v30x_usbotg_device.c:583
                            break;
    4ee4:	0001                	nop
    4ee6:	a031                	j	4ef2 <OTG_FS_IRQHandler+0x7fa>
D:/projects/mechanical_arm/Ctrl_Stepper_Motor/libraries/sdk/Peripheral/ch32v30x_usbotg_device.c:696
                            break;
    4ee8:	0001                	nop
    4eea:	a021                	j	4ef2 <OTG_FS_IRQHandler+0x7fa>
D:/projects/mechanical_arm/Ctrl_Stepper_Motor/libraries/sdk/Peripheral/ch32v30x_usbotg_device.c:705
                            break;
    4eec:	0001                	nop
    4eee:	a011                	j	4ef2 <OTG_FS_IRQHandler+0x7fa>
D:/projects/mechanical_arm/Ctrl_Stepper_Motor/libraries/sdk/Peripheral/ch32v30x_usbotg_device.c:743
                            break;
    4ef0:	0001                	nop
D:/projects/mechanical_arm/Ctrl_Stepper_Motor/libraries/sdk/Peripheral/ch32v30x_usbotg_device.c:750
                if( errflag == 0xff)
    4ef2:	fee44703          	lbu	a4,-18(s0)
    4ef6:	0ff00793          	li	a5,255
    4efa:	00f71d63          	bne	a4,a5,4f14 <OTG_FS_IRQHandler+0x81c>
D:/projects/mechanical_arm/Ctrl_Stepper_Motor/libraries/sdk/Peripheral/ch32v30x_usbotg_device.c:753
                    USBOTG_FS->UEP0_TX_CTRL = USBHD_UEP_T_TOG|USBHD_UEP_T_RES_STALL;
    4efe:	500007b7          	lui	a5,0x50000
    4f02:	471d                	li	a4,7
    4f04:	02e78923          	sb	a4,50(a5) # 50000032 <_eusrstack+0x2fff0032>
D:/projects/mechanical_arm/Ctrl_Stepper_Motor/libraries/sdk/Peripheral/ch32v30x_usbotg_device.c:754
                    USBOTG_FS->UEP0_RX_CTRL = USBHD_UEP_R_TOG|USBHD_UEP_R_RES_STALL;
    4f08:	500007b7          	lui	a5,0x50000
    4f0c:	471d                	li	a4,7
    4f0e:	02e789a3          	sb	a4,51(a5) # 50000033 <_eusrstack+0x2fff0033>
D:/projects/mechanical_arm/Ctrl_Stepper_Motor/libraries/sdk/Peripheral/ch32v30x_usbotg_device.c:769
                break;
    4f12:	ae65                	j	52ca <OTG_FS_IRQHandler+0xbd2>
D:/projects/mechanical_arm/Ctrl_Stepper_Motor/libraries/sdk/Peripheral/ch32v30x_usbotg_device.c:758
                    if( chtype & 0x80 )
    4f14:	fec40783          	lb	a5,-20(s0)
    4f18:	0407d563          	bgez	a5,4f62 <OTG_FS_IRQHandler+0x86a>
D:/projects/mechanical_arm/Ctrl_Stepper_Motor/libraries/sdk/Peripheral/ch32v30x_usbotg_device.c:760
                        len = (SetupReqLen>DevEP0SIZE) ? DevEP0SIZE : SetupReqLen;
    4f1c:	8761d783          	lhu	a5,-1930(gp) # 20000296 <SetupReqLen>
    4f20:	01079713          	slli	a4,a5,0x10
    4f24:	8341                	srli	a4,a4,0x10
    4f26:	47a1                	li	a5,8
    4f28:	00e7e963          	bltu	a5,a4,4f3a <OTG_FS_IRQHandler+0x842>
D:/projects/mechanical_arm/Ctrl_Stepper_Motor/libraries/sdk/Peripheral/ch32v30x_usbotg_device.c:760 (discriminator 1)
    4f2c:	8761d783          	lhu	a5,-1930(gp) # 20000296 <SetupReqLen>
    4f30:	07c2                	slli	a5,a5,0x10
    4f32:	83c1                	srli	a5,a5,0x10
    4f34:	0ff7f793          	andi	a5,a5,255
    4f38:	a011                	j	4f3c <OTG_FS_IRQHandler+0x844>
D:/projects/mechanical_arm/Ctrl_Stepper_Motor/libraries/sdk/Peripheral/ch32v30x_usbotg_device.c:760 (discriminator 2)
    4f3a:	47a1                	li	a5,8
D:/projects/mechanical_arm/Ctrl_Stepper_Motor/libraries/sdk/Peripheral/ch32v30x_usbotg_device.c:760 (discriminator 4)
    4f3c:	fef407a3          	sb	a5,-17(s0)
D:/projects/mechanical_arm/Ctrl_Stepper_Motor/libraries/sdk/Peripheral/ch32v30x_usbotg_device.c:761 (discriminator 4)
                        SetupReqLen -= len;
    4f40:	8761d783          	lhu	a5,-1930(gp) # 20000296 <SetupReqLen>
    4f44:	01079713          	slli	a4,a5,0x10
    4f48:	8341                	srli	a4,a4,0x10
    4f4a:	fef44783          	lbu	a5,-17(s0)
    4f4e:	07c2                	slli	a5,a5,0x10
    4f50:	83c1                	srli	a5,a5,0x10
    4f52:	40f707b3          	sub	a5,a4,a5
    4f56:	01079713          	slli	a4,a5,0x10
    4f5a:	8341                	srli	a4,a4,0x10
    4f5c:	86e19b23          	sh	a4,-1930(gp) # 20000296 <SetupReqLen>
    4f60:	a019                	j	4f66 <OTG_FS_IRQHandler+0x86e>
D:/projects/mechanical_arm/Ctrl_Stepper_Motor/libraries/sdk/Peripheral/ch32v30x_usbotg_device.c:763
                    else  len = 0;
    4f62:	fe0407a3          	sb	zero,-17(s0)
D:/projects/mechanical_arm/Ctrl_Stepper_Motor/libraries/sdk/Peripheral/ch32v30x_usbotg_device.c:765
                    USBOTG_FS->UEP0_TX_LEN  = len;
    4f66:	500007b7          	lui	a5,0x50000
    4f6a:	fef44703          	lbu	a4,-17(s0)
    4f6e:	0742                	slli	a4,a4,0x10
    4f70:	8341                	srli	a4,a4,0x10
    4f72:	02e79823          	sh	a4,48(a5) # 50000030 <_eusrstack+0x2fff0030>
D:/projects/mechanical_arm/Ctrl_Stepper_Motor/libraries/sdk/Peripheral/ch32v30x_usbotg_device.c:766
                    USBOTG_FS->UEP0_TX_CTRL = USBHD_UEP_T_TOG|USBHD_UEP_T_RES_ACK;
    4f76:	500007b7          	lui	a5,0x50000
    4f7a:	4711                	li	a4,4
    4f7c:	02e78923          	sb	a4,50(a5) # 50000032 <_eusrstack+0x2fff0032>
D:/projects/mechanical_arm/Ctrl_Stepper_Motor/libraries/sdk/Peripheral/ch32v30x_usbotg_device.c:767
                    USBOTG_FS->UEP0_RX_CTRL = USBHD_UEP_R_TOG|USBHD_UEP_R_RES_ACK;
    4f80:	500007b7          	lui	a5,0x50000
    4f84:	4711                	li	a4,4
    4f86:	02e789a3          	sb	a4,51(a5) # 50000033 <_eusrstack+0x2fff0033>
D:/projects/mechanical_arm/Ctrl_Stepper_Motor/libraries/sdk/Peripheral/ch32v30x_usbotg_device.c:769
                break;
    4f8a:	a681                	j	52ca <OTG_FS_IRQHandler+0xbd2>
D:/projects/mechanical_arm/Ctrl_Stepper_Motor/libraries/sdk/Peripheral/ch32v30x_usbotg_device.c:772
                switch ( USBOTG_FS->INT_ST & ( USBHD_UIS_TOKEN_MASK | USBHD_UIS_ENDP_MASK ) )
    4f8c:	500007b7          	lui	a5,0x50000
    4f90:	0077c783          	lbu	a5,7(a5) # 50000007 <_eusrstack+0x2fff0007>
    4f94:	0ff7f793          	andi	a5,a5,255
    4f98:	03f7f793          	andi	a5,a5,63
    4f9c:	02100713          	li	a4,33
    4fa0:	12e78563          	beq	a5,a4,50ca <OTG_FS_IRQHandler+0x9d2>
    4fa4:	02200713          	li	a4,34
    4fa8:	14e78d63          	beq	a5,a4,5102 <OTG_FS_IRQHandler+0xa0a>
    4fac:	02000713          	li	a4,32
    4fb0:	18e79e63          	bne	a5,a4,514c <OTG_FS_IRQHandler+0xa54>
D:/projects/mechanical_arm/Ctrl_Stepper_Motor/libraries/sdk/Peripheral/ch32v30x_usbotg_device.c:775 (discriminator 6)
                        switch( SetupReqCode )
    4fb4:	8741c783          	lbu	a5,-1932(gp) # 20000294 <SetupReqCode>
    4fb8:	0ff7f793          	andi	a5,a5,255
    4fbc:	4715                	li	a4,5
    4fbe:	0ae78063          	beq	a5,a4,505e <OTG_FS_IRQHandler+0x966>
    4fc2:	4719                	li	a4,6
    4fc4:	0ee79463          	bne	a5,a4,50ac <OTG_FS_IRQHandler+0x9b4>
D:/projects/mechanical_arm/Ctrl_Stepper_Motor/libraries/sdk/Peripheral/ch32v30x_usbotg_device.c:778
                                    len = SetupReqLen >= DevEP0SIZE ? DevEP0SIZE : SetupReqLen;
    4fc8:	8761d783          	lhu	a5,-1930(gp) # 20000296 <SetupReqLen>
    4fcc:	01079713          	slli	a4,a5,0x10
    4fd0:	8341                	srli	a4,a4,0x10
    4fd2:	479d                	li	a5,7
    4fd4:	00e7e963          	bltu	a5,a4,4fe6 <OTG_FS_IRQHandler+0x8ee>
D:/projects/mechanical_arm/Ctrl_Stepper_Motor/libraries/sdk/Peripheral/ch32v30x_usbotg_device.c:778 (discriminator 1)
    4fd8:	8761d783          	lhu	a5,-1930(gp) # 20000296 <SetupReqLen>
    4fdc:	07c2                	slli	a5,a5,0x10
    4fde:	83c1                	srli	a5,a5,0x10
    4fe0:	0ff7f793          	andi	a5,a5,255
    4fe4:	a011                	j	4fe8 <OTG_FS_IRQHandler+0x8f0>
D:/projects/mechanical_arm/Ctrl_Stepper_Motor/libraries/sdk/Peripheral/ch32v30x_usbotg_device.c:778 (discriminator 2)
    4fe6:	47a1                	li	a5,8
D:/projects/mechanical_arm/Ctrl_Stepper_Motor/libraries/sdk/Peripheral/ch32v30x_usbotg_device.c:778 (discriminator 4)
    4fe8:	fef407a3          	sb	a5,-17(s0)
D:/projects/mechanical_arm/Ctrl_Stepper_Motor/libraries/sdk/Peripheral/ch32v30x_usbotg_device.c:779 (discriminator 4)
                                    memcpy( pEP0_DataBuf, pDescr, len );
    4fec:	8601a703          	lw	a4,-1952(gp) # 20000280 <pEP0_RAM_Addr>
    4ff0:	86c1a783          	lw	a5,-1940(gp) # 2000028c <pDescr>
    4ff4:	fef44683          	lbu	a3,-17(s0)
    4ff8:	8636                	mv	a2,a3
    4ffa:	85be                	mv	a1,a5
    4ffc:	853a                	mv	a0,a4
    4ffe:	6b3010ef          	jal	ra,6eb0 <memcpy>
D:/projects/mechanical_arm/Ctrl_Stepper_Motor/libraries/sdk/Peripheral/ch32v30x_usbotg_device.c:780 (discriminator 4)
                                    SetupReqLen -= len;
    5002:	8761d783          	lhu	a5,-1930(gp) # 20000296 <SetupReqLen>
    5006:	01079713          	slli	a4,a5,0x10
    500a:	8341                	srli	a4,a4,0x10
    500c:	fef44783          	lbu	a5,-17(s0)
    5010:	07c2                	slli	a5,a5,0x10
    5012:	83c1                	srli	a5,a5,0x10
    5014:	40f707b3          	sub	a5,a4,a5
    5018:	01079713          	slli	a4,a5,0x10
    501c:	8341                	srli	a4,a4,0x10
    501e:	86e19b23          	sh	a4,-1930(gp) # 20000296 <SetupReqLen>
D:/projects/mechanical_arm/Ctrl_Stepper_Motor/libraries/sdk/Peripheral/ch32v30x_usbotg_device.c:781 (discriminator 4)
                                    pDescr += len;
    5022:	86c1a703          	lw	a4,-1940(gp) # 2000028c <pDescr>
    5026:	fef44783          	lbu	a5,-17(s0)
    502a:	973e                	add	a4,a4,a5
    502c:	86e1a623          	sw	a4,-1940(gp) # 2000028c <pDescr>
D:/projects/mechanical_arm/Ctrl_Stepper_Motor/libraries/sdk/Peripheral/ch32v30x_usbotg_device.c:782 (discriminator 4)
                                    USBOTG_FS->UEP0_TX_LEN   = len;
    5030:	500007b7          	lui	a5,0x50000
    5034:	fef44703          	lbu	a4,-17(s0)
    5038:	0742                	slli	a4,a4,0x10
    503a:	8341                	srli	a4,a4,0x10
    503c:	02e79823          	sh	a4,48(a5) # 50000030 <_eusrstack+0x2fff0030>
D:/projects/mechanical_arm/Ctrl_Stepper_Motor/libraries/sdk/Peripheral/ch32v30x_usbotg_device.c:783 (discriminator 4)
                                    USBOTG_FS->UEP0_TX_CTRL ^= USBHD_UEP_T_TOG;
    5040:	500007b7          	lui	a5,0x50000
    5044:	0327c783          	lbu	a5,50(a5) # 50000032 <_eusrstack+0x2fff0032>
    5048:	0ff7f713          	andi	a4,a5,255
    504c:	500007b7          	lui	a5,0x50000
    5050:	00474713          	xori	a4,a4,4
    5054:	0ff77713          	andi	a4,a4,255
    5058:	02e78923          	sb	a4,50(a5) # 50000032 <_eusrstack+0x2fff0032>
D:/projects/mechanical_arm/Ctrl_Stepper_Motor/libraries/sdk/Peripheral/ch32v30x_usbotg_device.c:784 (discriminator 4)
                                    break;
    505c:	a0b5                	j	50c8 <OTG_FS_IRQHandler+0x9d0>
D:/projects/mechanical_arm/Ctrl_Stepper_Motor/libraries/sdk/Peripheral/ch32v30x_usbotg_device.c:787
                                    USBOTG_FS->DEV_ADDR = (USBOTG_FS->DEV_ADDR&USBHD_UDA_GP_BIT) | SetupReqLen;
    505e:	500007b7          	lui	a5,0x50000
    5062:	0037c783          	lbu	a5,3(a5) # 50000003 <_eusrstack+0x2fff0003>
    5066:	0ff7f793          	andi	a5,a5,255
    506a:	07e2                	slli	a5,a5,0x18
    506c:	87e1                	srai	a5,a5,0x18
    506e:	f807f793          	andi	a5,a5,-128
    5072:	01879713          	slli	a4,a5,0x18
    5076:	8761                	srai	a4,a4,0x18
    5078:	8761d783          	lhu	a5,-1930(gp) # 20000296 <SetupReqLen>
    507c:	07c2                	slli	a5,a5,0x10
    507e:	83c1                	srli	a5,a5,0x10
    5080:	07e2                	slli	a5,a5,0x18
    5082:	87e1                	srai	a5,a5,0x18
    5084:	8fd9                	or	a5,a5,a4
    5086:	01879713          	slli	a4,a5,0x18
    508a:	8761                	srai	a4,a4,0x18
    508c:	500007b7          	lui	a5,0x50000
    5090:	0ff77713          	andi	a4,a4,255
    5094:	00e781a3          	sb	a4,3(a5) # 50000003 <_eusrstack+0x2fff0003>
D:/projects/mechanical_arm/Ctrl_Stepper_Motor/libraries/sdk/Peripheral/ch32v30x_usbotg_device.c:788
                                    USBOTG_FS->UEP0_TX_CTRL = USBHD_UEP_T_RES_NAK;
    5098:	500007b7          	lui	a5,0x50000
    509c:	4709                	li	a4,2
    509e:	02e78923          	sb	a4,50(a5) # 50000032 <_eusrstack+0x2fff0032>
D:/projects/mechanical_arm/Ctrl_Stepper_Motor/libraries/sdk/Peripheral/ch32v30x_usbotg_device.c:789
                                    USBOTG_FS->UEP0_RX_CTRL = USBHD_UEP_R_RES_ACK;
    50a2:	500007b7          	lui	a5,0x50000
    50a6:	020789a3          	sb	zero,51(a5) # 50000033 <_eusrstack+0x2fff0033>
D:/projects/mechanical_arm/Ctrl_Stepper_Motor/libraries/sdk/Peripheral/ch32v30x_usbotg_device.c:790
                                    break;
    50aa:	a839                	j	50c8 <OTG_FS_IRQHandler+0x9d0>
D:/projects/mechanical_arm/Ctrl_Stepper_Motor/libraries/sdk/Peripheral/ch32v30x_usbotg_device.c:793
                                    USBOTG_FS->UEP0_TX_LEN = 0;
    50ac:	500007b7          	lui	a5,0x50000
    50b0:	02079823          	sh	zero,48(a5) # 50000030 <_eusrstack+0x2fff0030>
D:/projects/mechanical_arm/Ctrl_Stepper_Motor/libraries/sdk/Peripheral/ch32v30x_usbotg_device.c:794
                                    USBOTG_FS->UEP0_TX_CTRL = USBHD_UEP_T_RES_NAK;
    50b4:	500007b7          	lui	a5,0x50000
    50b8:	4709                	li	a4,2
    50ba:	02e78923          	sb	a4,50(a5) # 50000032 <_eusrstack+0x2fff0032>
D:/projects/mechanical_arm/Ctrl_Stepper_Motor/libraries/sdk/Peripheral/ch32v30x_usbotg_device.c:795
                                    USBOTG_FS->UEP0_RX_CTRL = USBHD_UEP_R_RES_ACK;
    50be:	500007b7          	lui	a5,0x50000
    50c2:	020789a3          	sb	zero,51(a5) # 50000033 <_eusrstack+0x2fff0033>
D:/projects/mechanical_arm/Ctrl_Stepper_Motor/libraries/sdk/Peripheral/ch32v30x_usbotg_device.c:796
                                    break;
    50c6:	0001                	nop
D:/projects/mechanical_arm/Ctrl_Stepper_Motor/libraries/sdk/Peripheral/ch32v30x_usbotg_device.c:799
                        break;
    50c8:	a059                	j	514e <OTG_FS_IRQHandler+0xa56>
D:/projects/mechanical_arm/Ctrl_Stepper_Motor/libraries/sdk/Peripheral/ch32v30x_usbotg_device.c:802
                    USBOTG_FS->UEP1_TX_CTRL  = (USBHD_UEP1_TX_CTRL & ~USBHD_UEP_T_RES_MASK) | USBHD_UEP_T_RES_ACK;
    50ca:	500007b7          	lui	a5,0x50000
    50ce:	0367c783          	lbu	a5,54(a5) # 50000036 <_eusrstack+0x2fff0036>
    50d2:	0ff7f713          	andi	a4,a5,255
    50d6:	500007b7          	lui	a5,0x50000
    50da:	9b71                	andi	a4,a4,-4
    50dc:	0ff77713          	andi	a4,a4,255
    50e0:	02e78b23          	sb	a4,54(a5) # 50000036 <_eusrstack+0x2fff0036>
D:/projects/mechanical_arm/Ctrl_Stepper_Motor/libraries/sdk/Peripheral/ch32v30x_usbotg_device.c:803
                    USBOTG_FS->UEP1_TX_CTRL ^= USBHD_UEP_T_TOG;
    50e4:	500007b7          	lui	a5,0x50000
    50e8:	0367c783          	lbu	a5,54(a5) # 50000036 <_eusrstack+0x2fff0036>
    50ec:	0ff7f713          	andi	a4,a5,255
    50f0:	500007b7          	lui	a5,0x50000
    50f4:	00474713          	xori	a4,a4,4
    50f8:	0ff77713          	andi	a4,a4,255
    50fc:	02e78b23          	sb	a4,54(a5) # 50000036 <_eusrstack+0x2fff0036>
D:/projects/mechanical_arm/Ctrl_Stepper_Motor/libraries/sdk/Peripheral/ch32v30x_usbotg_device.c:804
                    break;
    5100:	a0b9                	j	514e <OTG_FS_IRQHandler+0xa56>
D:/projects/mechanical_arm/Ctrl_Stepper_Motor/libraries/sdk/Peripheral/ch32v30x_usbotg_device.c:807
                    USBOTG_FS->UEP2_TX_CTRL ^= USBHD_UEP_T_TOG;
    5102:	500007b7          	lui	a5,0x50000
    5106:	03a7c783          	lbu	a5,58(a5) # 5000003a <_eusrstack+0x2fff003a>
    510a:	0ff7f713          	andi	a4,a5,255
    510e:	500007b7          	lui	a5,0x50000
    5112:	00474713          	xori	a4,a4,4
    5116:	0ff77713          	andi	a4,a4,255
    511a:	02e78d23          	sb	a4,58(a5) # 5000003a <_eusrstack+0x2fff003a>
D:/projects/mechanical_arm/Ctrl_Stepper_Motor/libraries/sdk/Peripheral/ch32v30x_usbotg_device.c:808
                    USBOTG_FS->UEP2_TX_CTRL = (USBOTG_FS->UEP2_TX_CTRL & ~USBHD_UEP_T_RES_MASK) | USBHD_UEP_T_RES_NAK;
    511e:	500007b7          	lui	a5,0x50000
    5122:	03a7c783          	lbu	a5,58(a5) # 5000003a <_eusrstack+0x2fff003a>
    5126:	0ff7f793          	andi	a5,a5,255
    512a:	07e2                	slli	a5,a5,0x18
    512c:	87e1                	srai	a5,a5,0x18
    512e:	9bf1                	andi	a5,a5,-4
    5130:	07e2                	slli	a5,a5,0x18
    5132:	87e1                	srai	a5,a5,0x18
    5134:	0027e793          	ori	a5,a5,2
    5138:	01879713          	slli	a4,a5,0x18
    513c:	8761                	srai	a4,a4,0x18
    513e:	500007b7          	lui	a5,0x50000
    5142:	0ff77713          	andi	a4,a4,255
    5146:	02e78d23          	sb	a4,58(a5) # 5000003a <_eusrstack+0x2fff003a>
D:/projects/mechanical_arm/Ctrl_Stepper_Motor/libraries/sdk/Peripheral/ch32v30x_usbotg_device.c:809
                    break;
    514a:	a011                	j	514e <OTG_FS_IRQHandler+0xa56>
D:/projects/mechanical_arm/Ctrl_Stepper_Motor/libraries/sdk/Peripheral/ch32v30x_usbotg_device.c:813
                    break;
    514c:	0001                	nop
D:/projects/mechanical_arm/Ctrl_Stepper_Motor/libraries/sdk/Peripheral/ch32v30x_usbotg_device.c:816
                break;
    514e:	aab5                	j	52ca <OTG_FS_IRQHandler+0xbd2>
D:/projects/mechanical_arm/Ctrl_Stepper_Motor/libraries/sdk/Peripheral/ch32v30x_usbotg_device.c:820
                switch ( USBOTG_FS->INT_ST & ( USBHD_UIS_TOKEN_MASK | USBHD_UIS_ENDP_MASK ) )
    5150:	500007b7          	lui	a5,0x50000
    5154:	0077c783          	lbu	a5,7(a5) # 50000007 <_eusrstack+0x2fff0007>
    5158:	0ff7f793          	andi	a5,a5,255
    515c:	03f7f793          	andi	a5,a5,63
    5160:	4705                	li	a4,1
    5162:	0ce78763          	beq	a5,a4,5230 <OTG_FS_IRQHandler+0xb38>
    5166:	4709                	li	a4,2
    5168:	10e78663          	beq	a5,a4,5274 <OTG_FS_IRQHandler+0xb7c>
    516c:	14079e63          	bnez	a5,52c8 <OTG_FS_IRQHandler+0xbd0>
D:/projects/mechanical_arm/Ctrl_Stepper_Motor/libraries/sdk/Peripheral/ch32v30x_usbotg_device.c:823 (discriminator 7)
                        switch( SetupReqCode )
    5170:	8741c783          	lbu	a5,-1932(gp) # 20000294 <SetupReqCode>
    5174:	0ff7f793          	andi	a5,a5,255
    5178:	873e                	mv	a4,a5
    517a:	02000793          	li	a5,32
    517e:	0af71363          	bne	a4,a5,5224 <OTG_FS_IRQHandler+0xb2c>
D:/projects/mechanical_arm/Ctrl_Stepper_Motor/libraries/sdk/Peripheral/ch32v30x_usbotg_device.c:826
                                if((((LINECODINGST *)pEP0_DataBuf)->dataRat[0] || ((LINECODINGST *)pEP0_DataBuf)->dataRat[1] ||
    5182:	8601a783          	lw	a5,-1952(gp) # 20000280 <pEP0_RAM_Addr>
    5186:	0007c783          	lbu	a5,0(a5)
    518a:	e385                	bnez	a5,51aa <OTG_FS_IRQHandler+0xab2>
D:/projects/mechanical_arm/Ctrl_Stepper_Motor/libraries/sdk/Peripheral/ch32v30x_usbotg_device.c:826 (discriminator 1)
    518c:	8601a783          	lw	a5,-1952(gp) # 20000280 <pEP0_RAM_Addr>
    5190:	0017c783          	lbu	a5,1(a5)
    5194:	eb99                	bnez	a5,51aa <OTG_FS_IRQHandler+0xab2>
D:/projects/mechanical_arm/Ctrl_Stepper_Motor/libraries/sdk/Peripheral/ch32v30x_usbotg_device.c:827 (discriminator 2)
                                  ((LINECODINGST *)pEP0_DataBuf)->dataRat[2] || ((LINECODINGST *)pEP0_DataBuf)->dataRat[3]))
    5196:	8601a783          	lw	a5,-1952(gp) # 20000280 <pEP0_RAM_Addr>
    519a:	0027c783          	lbu	a5,2(a5)
D:/projects/mechanical_arm/Ctrl_Stepper_Motor/libraries/sdk/Peripheral/ch32v30x_usbotg_device.c:826 (discriminator 2)
                                if((((LINECODINGST *)pEP0_DataBuf)->dataRat[0] || ((LINECODINGST *)pEP0_DataBuf)->dataRat[1] ||
    519e:	e791                	bnez	a5,51aa <OTG_FS_IRQHandler+0xab2>
D:/projects/mechanical_arm/Ctrl_Stepper_Motor/libraries/sdk/Peripheral/ch32v30x_usbotg_device.c:827
                                  ((LINECODINGST *)pEP0_DataBuf)->dataRat[2] || ((LINECODINGST *)pEP0_DataBuf)->dataRat[3]))
    51a0:	8601a783          	lw	a5,-1952(gp) # 20000280 <pEP0_RAM_Addr>
    51a4:	0037c783          	lbu	a5,3(a5)
    51a8:	cf9d                	beqz	a5,51e6 <OTG_FS_IRQHandler+0xaee>
D:/projects/mechanical_arm/Ctrl_Stepper_Motor/libraries/sdk/Peripheral/ch32v30x_usbotg_device.c:831
                                            (((LINECODINGST *)pEP0_DataBuf)->dataRat[3] <<24) |
    51aa:	8601a783          	lw	a5,-1952(gp) # 20000280 <pEP0_RAM_Addr>
    51ae:	0037c783          	lbu	a5,3(a5)
    51b2:	01879713          	slli	a4,a5,0x18
D:/projects/mechanical_arm/Ctrl_Stepper_Motor/libraries/sdk/Peripheral/ch32v30x_usbotg_device.c:832
                                            (((LINECODINGST *)pEP0_DataBuf)->dataRat[2] <<16) |
    51b6:	8601a783          	lw	a5,-1952(gp) # 20000280 <pEP0_RAM_Addr>
    51ba:	0027c783          	lbu	a5,2(a5)
    51be:	07c2                	slli	a5,a5,0x10
D:/projects/mechanical_arm/Ctrl_Stepper_Motor/libraries/sdk/Peripheral/ch32v30x_usbotg_device.c:831
                                            (((LINECODINGST *)pEP0_DataBuf)->dataRat[3] <<24) |
    51c0:	8f5d                	or	a4,a4,a5
D:/projects/mechanical_arm/Ctrl_Stepper_Motor/libraries/sdk/Peripheral/ch32v30x_usbotg_device.c:833
                                            (((LINECODINGST *)pEP0_DataBuf)->dataRat[1] <<8) |
    51c2:	8601a783          	lw	a5,-1952(gp) # 20000280 <pEP0_RAM_Addr>
    51c6:	0017c783          	lbu	a5,1(a5)
    51ca:	07a2                	slli	a5,a5,0x8
D:/projects/mechanical_arm/Ctrl_Stepper_Motor/libraries/sdk/Peripheral/ch32v30x_usbotg_device.c:832
                                            (((LINECODINGST *)pEP0_DataBuf)->dataRat[2] <<16) |
    51cc:	8fd9                	or	a5,a5,a4
D:/projects/mechanical_arm/Ctrl_Stepper_Motor/libraries/sdk/Peripheral/ch32v30x_usbotg_device.c:834
                                            (((LINECODINGST *)pEP0_DataBuf)->dataRat[0]));
    51ce:	8601a703          	lw	a4,-1952(gp) # 20000280 <pEP0_RAM_Addr>
    51d2:	00074703          	lbu	a4,0(a4)
D:/projects/mechanical_arm/Ctrl_Stepper_Motor/libraries/sdk/Peripheral/ch32v30x_usbotg_device.c:830
                                    printf( "\nBaud Rate = %d",
    51d6:	8fd9                	or	a5,a5,a4
    51d8:	85be                	mv	a1,a5
    51da:	67a9                	lui	a5,0xa
    51dc:	03878513          	addi	a0,a5,56 # a038 <_sbrk+0xbc>
    51e0:	77c020ef          	jal	ra,795c <iprintf>
D:/projects/mechanical_arm/Ctrl_Stepper_Motor/libraries/sdk/Peripheral/ch32v30x_usbotg_device.c:843
                               break;
    51e4:	a83d                	j	5222 <OTG_FS_IRQHandler+0xb2a>
D:/projects/mechanical_arm/Ctrl_Stepper_Motor/libraries/sdk/Peripheral/ch32v30x_usbotg_device.c:838
                                    printf( "\ndataBit = %d",  ((LINECODINGST *)pEP0_DataBuf)->dataBit);
    51e6:	8601a783          	lw	a5,-1952(gp) # 20000280 <pEP0_RAM_Addr>
    51ea:	0067c783          	lbu	a5,6(a5)
    51ee:	85be                	mv	a1,a5
    51f0:	67a9                	lui	a5,0xa
    51f2:	04878513          	addi	a0,a5,72 # a048 <_sbrk+0xcc>
    51f6:	766020ef          	jal	ra,795c <iprintf>
D:/projects/mechanical_arm/Ctrl_Stepper_Motor/libraries/sdk/Peripheral/ch32v30x_usbotg_device.c:839
                                    printf( "\nstopBit = %d",  ((LINECODINGST *)pEP0_DataBuf)->stopBit);
    51fa:	8601a783          	lw	a5,-1952(gp) # 20000280 <pEP0_RAM_Addr>
    51fe:	0047c783          	lbu	a5,4(a5)
    5202:	85be                	mv	a1,a5
    5204:	67a9                	lui	a5,0xa
    5206:	05878513          	addi	a0,a5,88 # a058 <_sbrk+0xdc>
    520a:	752020ef          	jal	ra,795c <iprintf>
D:/projects/mechanical_arm/Ctrl_Stepper_Motor/libraries/sdk/Peripheral/ch32v30x_usbotg_device.c:840
                                    printf( "\nparityType = %d",  ((LINECODINGST *)pEP0_DataBuf)->parityType);
    520e:	8601a783          	lw	a5,-1952(gp) # 20000280 <pEP0_RAM_Addr>
    5212:	0057c783          	lbu	a5,5(a5)
    5216:	85be                	mv	a1,a5
    5218:	67a9                	lui	a5,0xa
    521a:	06878513          	addi	a0,a5,104 # a068 <_sbrk+0xec>
    521e:	73e020ef          	jal	ra,795c <iprintf>
D:/projects/mechanical_arm/Ctrl_Stepper_Motor/libraries/sdk/Peripheral/ch32v30x_usbotg_device.c:843
                               break;
    5222:	0001                	nop
D:/projects/mechanical_arm/Ctrl_Stepper_Motor/libraries/sdk/Peripheral/ch32v30x_usbotg_device.c:847
                    len = USBOTG_FS->RX_LEN;
    5224:	500007b7          	lui	a5,0x50000
    5228:	479c                	lw	a5,8(a5)
    522a:	fef407a3          	sb	a5,-17(s0)
D:/projects/mechanical_arm/Ctrl_Stepper_Motor/libraries/sdk/Peripheral/ch32v30x_usbotg_device.c:848
                    break;
    522e:	a841                	j	52be <OTG_FS_IRQHandler+0xbc6>
D:/projects/mechanical_arm/Ctrl_Stepper_Motor/libraries/sdk/Peripheral/ch32v30x_usbotg_device.c:851
                        if ( USBOTG_FS->INT_ST & USBHD_UIS_TOG_OK )
    5230:	500007b7          	lui	a5,0x50000
    5234:	0077c783          	lbu	a5,7(a5) # 50000007 <_eusrstack+0x2fff0007>
    5238:	0ff7f793          	andi	a5,a5,255
    523c:	0407f793          	andi	a5,a5,64
    5240:	cfa5                	beqz	a5,52b8 <OTG_FS_IRQHandler+0xbc0>
D:/projects/mechanical_arm/Ctrl_Stepper_Motor/libraries/sdk/Peripheral/ch32v30x_usbotg_device.c:853
                            USBOTG_FS->UEP1_RX_CTRL ^= USBHD_UEP_R_TOG;
    5242:	500007b7          	lui	a5,0x50000
    5246:	0377c783          	lbu	a5,55(a5) # 50000037 <_eusrstack+0x2fff0037>
    524a:	0ff7f713          	andi	a4,a5,255
    524e:	500007b7          	lui	a5,0x50000
    5252:	00474713          	xori	a4,a4,4
    5256:	0ff77713          	andi	a4,a4,255
    525a:	02e78ba3          	sb	a4,55(a5) # 50000037 <_eusrstack+0x2fff0037>
D:/projects/mechanical_arm/Ctrl_Stepper_Motor/libraries/sdk/Peripheral/ch32v30x_usbotg_device.c:854
                            len = USBOTG_FS->RX_LEN;
    525e:	500007b7          	lui	a5,0x50000
    5262:	479c                	lw	a5,8(a5)
    5264:	fef407a3          	sb	a5,-17(s0)
D:/projects/mechanical_arm/Ctrl_Stepper_Motor/libraries/sdk/Peripheral/ch32v30x_usbotg_device.c:856
                            DevEP1_OUT_Deal( len );
    5268:	fef44783          	lbu	a5,-17(s0)
    526c:	853e                	mv	a0,a5
    526e:	bc2ff0ef          	jal	ra,4630 <DevEP1_OUT_Deal>
D:/projects/mechanical_arm/Ctrl_Stepper_Motor/libraries/sdk/Peripheral/ch32v30x_usbotg_device.c:858
                        break;
    5272:	a099                	j	52b8 <OTG_FS_IRQHandler+0xbc0>
D:/projects/mechanical_arm/Ctrl_Stepper_Motor/libraries/sdk/Peripheral/ch32v30x_usbotg_device.c:861
                        if ( USBOTG_FS->INT_ST & USBHD_UIS_TOG_OK )
    5274:	500007b7          	lui	a5,0x50000
    5278:	0077c783          	lbu	a5,7(a5) # 50000007 <_eusrstack+0x2fff0007>
    527c:	0ff7f793          	andi	a5,a5,255
    5280:	0407f793          	andi	a5,a5,64
    5284:	cf85                	beqz	a5,52bc <OTG_FS_IRQHandler+0xbc4>
D:/projects/mechanical_arm/Ctrl_Stepper_Motor/libraries/sdk/Peripheral/ch32v30x_usbotg_device.c:863
                            USBOTG_FS->UEP2_RX_CTRL ^= USBHD_UEP_R_TOG;
    5286:	500007b7          	lui	a5,0x50000
    528a:	03b7c783          	lbu	a5,59(a5) # 5000003b <_eusrstack+0x2fff003b>
    528e:	0ff7f713          	andi	a4,a5,255
    5292:	500007b7          	lui	a5,0x50000
    5296:	00474713          	xori	a4,a4,4
    529a:	0ff77713          	andi	a4,a4,255
    529e:	02e78da3          	sb	a4,59(a5) # 5000003b <_eusrstack+0x2fff003b>
D:/projects/mechanical_arm/Ctrl_Stepper_Motor/libraries/sdk/Peripheral/ch32v30x_usbotg_device.c:864
                            len = USBOTG_FS->RX_LEN;
    52a2:	500007b7          	lui	a5,0x50000
    52a6:	479c                	lw	a5,8(a5)
    52a8:	fef407a3          	sb	a5,-17(s0)
D:/projects/mechanical_arm/Ctrl_Stepper_Motor/libraries/sdk/Peripheral/ch32v30x_usbotg_device.c:866
                            DevEP2_OUT_Deal( len );
    52ac:	fef44783          	lbu	a5,-17(s0)
    52b0:	853e                	mv	a0,a5
    52b2:	be2ff0ef          	jal	ra,4694 <DevEP2_OUT_Deal>
D:/projects/mechanical_arm/Ctrl_Stepper_Motor/libraries/sdk/Peripheral/ch32v30x_usbotg_device.c:868
                        break;
    52b6:	a019                	j	52bc <OTG_FS_IRQHandler+0xbc4>
D:/projects/mechanical_arm/Ctrl_Stepper_Motor/libraries/sdk/Peripheral/ch32v30x_usbotg_device.c:858
                        break;
    52b8:	0001                	nop
    52ba:	a039                	j	52c8 <OTG_FS_IRQHandler+0xbd0>
D:/projects/mechanical_arm/Ctrl_Stepper_Motor/libraries/sdk/Peripheral/ch32v30x_usbotg_device.c:868
                        break;
    52bc:	0001                	nop
D:/projects/mechanical_arm/Ctrl_Stepper_Motor/libraries/sdk/Peripheral/ch32v30x_usbotg_device.c:871
                break;
    52be:	a029                	j	52c8 <OTG_FS_IRQHandler+0xbd0>
D:/projects/mechanical_arm/Ctrl_Stepper_Motor/libraries/sdk/Peripheral/ch32v30x_usbotg_device.c:875
                break;
    52c0:	0001                	nop
    52c2:	a021                	j	52ca <OTG_FS_IRQHandler+0xbd2>
D:/projects/mechanical_arm/Ctrl_Stepper_Motor/libraries/sdk/Peripheral/ch32v30x_usbotg_device.c:878
                break;
    52c4:	0001                	nop
    52c6:	a011                	j	52ca <OTG_FS_IRQHandler+0xbd2>
D:/projects/mechanical_arm/Ctrl_Stepper_Motor/libraries/sdk/Peripheral/ch32v30x_usbotg_device.c:871
                break;
    52c8:	0001                	nop
D:/projects/mechanical_arm/Ctrl_Stepper_Motor/libraries/sdk/Peripheral/ch32v30x_usbotg_device.c:882

        }

        USBOTG_FS->INT_FG = USBHD_UIF_TRANSFER;
    52ca:	500007b7          	lui	a5,0x50000
    52ce:	4709                	li	a4,2
    52d0:	00e78323          	sb	a4,6(a5) # 50000006 <_eusrstack+0x2fff0006>
D:/projects/mechanical_arm/Ctrl_Stepper_Motor/libraries/sdk/Peripheral/ch32v30x_usbotg_device.c:908
    }
    else
    {
        USBOTG_FS->INT_FG = intflag;
    }
}
    52d4:	a079                	j	5362 <OTG_FS_IRQHandler+0xc6a>
D:/projects/mechanical_arm/Ctrl_Stepper_Motor/libraries/sdk/Peripheral/ch32v30x_usbotg_device.c:884
    else if( intflag & USBHD_UIF_BUS_RST )
    52d6:	fed44783          	lbu	a5,-19(s0)
    52da:	8b85                	andi	a5,a5,1
    52dc:	cfb9                	beqz	a5,533a <OTG_FS_IRQHandler+0xc42>
D:/projects/mechanical_arm/Ctrl_Stepper_Motor/libraries/sdk/Peripheral/ch32v30x_usbotg_device.c:886
        USBOTG_FS->DEV_ADDR = 0;
    52de:	500007b7          	lui	a5,0x50000
    52e2:	000781a3          	sb	zero,3(a5) # 50000003 <_eusrstack+0x2fff0003>
D:/projects/mechanical_arm/Ctrl_Stepper_Motor/libraries/sdk/Peripheral/ch32v30x_usbotg_device.c:888
        USBOTG_FS->UEP0_RX_CTRL = USBHD_UEP_R_RES_ACK;
    52e6:	500007b7          	lui	a5,0x50000
    52ea:	020789a3          	sb	zero,51(a5) # 50000033 <_eusrstack+0x2fff0033>
D:/projects/mechanical_arm/Ctrl_Stepper_Motor/libraries/sdk/Peripheral/ch32v30x_usbotg_device.c:889
        USBOTG_FS->UEP1_RX_CTRL = USBHD_UEP_R_RES_ACK;
    52ee:	500007b7          	lui	a5,0x50000
    52f2:	02078ba3          	sb	zero,55(a5) # 50000037 <_eusrstack+0x2fff0037>
D:/projects/mechanical_arm/Ctrl_Stepper_Motor/libraries/sdk/Peripheral/ch32v30x_usbotg_device.c:890
        USBOTG_FS->UEP2_RX_CTRL = USBHD_UEP_R_RES_ACK;
    52f6:	500007b7          	lui	a5,0x50000
    52fa:	02078da3          	sb	zero,59(a5) # 5000003b <_eusrstack+0x2fff003b>
D:/projects/mechanical_arm/Ctrl_Stepper_Motor/libraries/sdk/Peripheral/ch32v30x_usbotg_device.c:892
        USBOTG_FS->UEP0_TX_CTRL = USBHD_UEP_T_RES_NAK;
    52fe:	500007b7          	lui	a5,0x50000
    5302:	4709                	li	a4,2
    5304:	02e78923          	sb	a4,50(a5) # 50000032 <_eusrstack+0x2fff0032>
D:/projects/mechanical_arm/Ctrl_Stepper_Motor/libraries/sdk/Peripheral/ch32v30x_usbotg_device.c:893
        USBOTG_FS->UEP1_TX_CTRL = USBHD_UEP_T_RES_NAK;
    5308:	500007b7          	lui	a5,0x50000
    530c:	4709                	li	a4,2
    530e:	02e78b23          	sb	a4,54(a5) # 50000036 <_eusrstack+0x2fff0036>
D:/projects/mechanical_arm/Ctrl_Stepper_Motor/libraries/sdk/Peripheral/ch32v30x_usbotg_device.c:894
        USBOTG_FS->UEP2_TX_CTRL = USBHD_UEP_T_RES_NAK;
    5312:	500007b7          	lui	a5,0x50000
    5316:	4709                	li	a4,2
    5318:	02e78d23          	sb	a4,58(a5) # 5000003a <_eusrstack+0x2fff003a>
D:/projects/mechanical_arm/Ctrl_Stepper_Motor/libraries/sdk/Peripheral/ch32v30x_usbotg_device.c:896
        USBOTG_FS->INT_FG |= USBHD_UIF_BUS_RST;
    531c:	500007b7          	lui	a5,0x50000
    5320:	0067c783          	lbu	a5,6(a5) # 50000006 <_eusrstack+0x2fff0006>
    5324:	0ff7f713          	andi	a4,a5,255
    5328:	500007b7          	lui	a5,0x50000
    532c:	00176713          	ori	a4,a4,1
    5330:	0ff77713          	andi	a4,a4,255
    5334:	00e78323          	sb	a4,6(a5) # 50000006 <_eusrstack+0x2fff0006>
D:/projects/mechanical_arm/Ctrl_Stepper_Motor/libraries/sdk/Peripheral/ch32v30x_usbotg_device.c:908
}
    5338:	a02d                	j	5362 <OTG_FS_IRQHandler+0xc6a>
D:/projects/mechanical_arm/Ctrl_Stepper_Motor/libraries/sdk/Peripheral/ch32v30x_usbotg_device.c:898
    else if( intflag & USBHD_UIF_SUSPEND )
    533a:	fed44783          	lbu	a5,-19(s0)
    533e:	8b91                	andi	a5,a5,4
    5340:	cb99                	beqz	a5,5356 <OTG_FS_IRQHandler+0xc5e>
D:/projects/mechanical_arm/Ctrl_Stepper_Motor/libraries/sdk/Peripheral/ch32v30x_usbotg_device.c:900
        if ( USBOTG_FS->MIS_ST & USBHD_UMS_SUSPEND ) {;}
    5342:	500007b7          	lui	a5,0x50000
    5346:	0057c783          	lbu	a5,5(a5) # 50000005 <_eusrstack+0x2fff0005>
D:/projects/mechanical_arm/Ctrl_Stepper_Motor/libraries/sdk/Peripheral/ch32v30x_usbotg_device.c:902
        USBOTG_FS->INT_FG = USBHD_UIF_SUSPEND;
    534a:	500007b7          	lui	a5,0x50000
    534e:	4711                	li	a4,4
    5350:	00e78323          	sb	a4,6(a5) # 50000006 <_eusrstack+0x2fff0006>
D:/projects/mechanical_arm/Ctrl_Stepper_Motor/libraries/sdk/Peripheral/ch32v30x_usbotg_device.c:908
}
    5354:	a039                	j	5362 <OTG_FS_IRQHandler+0xc6a>
D:/projects/mechanical_arm/Ctrl_Stepper_Motor/libraries/sdk/Peripheral/ch32v30x_usbotg_device.c:906
        USBOTG_FS->INT_FG = intflag;
    5356:	500007b7          	lui	a5,0x50000
    535a:	fed44703          	lbu	a4,-19(s0)
    535e:	00e78323          	sb	a4,6(a5) # 50000006 <_eusrstack+0x2fff0006>
D:/projects/mechanical_arm/Ctrl_Stepper_Motor/libraries/sdk/Peripheral/ch32v30x_usbotg_device.c:908
}
    5362:	0001                	nop
    5364:	4472                	lw	s0,28(sp)
    5366:	6105                	addi	sp,sp,32
    5368:	30200073          	mret

0000536c <__adddf3>:
__adddf3():
    536c:	00100837          	lui	a6,0x100
    5370:	1101                	addi	sp,sp,-32
    5372:	187d                	addi	a6,a6,-1
    5374:	00b87733          	and	a4,a6,a1
    5378:	ca26                	sw	s1,20(sp)
    537a:	00d87833          	and	a6,a6,a3
    537e:	0145d493          	srli	s1,a1,0x14
    5382:	0146d313          	srli	t1,a3,0x14
    5386:	00371e13          	slli	t3,a4,0x3
    538a:	c64e                	sw	s3,12(sp)
    538c:	01d55713          	srli	a4,a0,0x1d
    5390:	080e                	slli	a6,a6,0x3
    5392:	01d65793          	srli	a5,a2,0x1d
    5396:	7ff4f493          	andi	s1,s1,2047
    539a:	7ff37313          	andi	t1,t1,2047
    539e:	ce06                	sw	ra,28(sp)
    53a0:	cc22                	sw	s0,24(sp)
    53a2:	c84a                	sw	s2,16(sp)
    53a4:	01f5d993          	srli	s3,a1,0x1f
    53a8:	01f6de93          	srli	t4,a3,0x1f
    53ac:	01c76733          	or	a4,a4,t3
    53b0:	00351f13          	slli	t5,a0,0x3
    53b4:	0107e833          	or	a6,a5,a6
    53b8:	00361f93          	slli	t6,a2,0x3
    53bc:	40648e33          	sub	t3,s1,t1
    53c0:	19d98063          	beq	s3,t4,5540 <__adddf3+0x1d4>
    53c4:	13c05663          	blez	t3,54f0 <__adddf3+0x184>
    53c8:	1c030463          	beqz	t1,5590 <__adddf3+0x224>
    53cc:	008006b7          	lui	a3,0x800
    53d0:	7ff00793          	li	a5,2047
    53d4:	00d86833          	or	a6,a6,a3
    53d8:	36f48f63          	beq	s1,a5,5756 <__adddf3+0x3ea>
    53dc:	03800793          	li	a5,56
    53e0:	35c7c063          	blt	a5,t3,5720 <__adddf3+0x3b4>
    53e4:	47fd                	li	a5,31
    53e6:	47c7cd63          	blt	a5,t3,5860 <__adddf3+0x4f4>
    53ea:	02000513          	li	a0,32
    53ee:	41c50533          	sub	a0,a0,t3
    53f2:	01cfd7b3          	srl	a5,t6,t3
    53f6:	00a816b3          	sll	a3,a6,a0
    53fa:	00af9933          	sll	s2,t6,a0
    53fe:	8edd                	or	a3,a3,a5
    5400:	01203933          	snez	s2,s2
    5404:	01c857b3          	srl	a5,a6,t3
    5408:	0126e933          	or	s2,a3,s2
    540c:	8f1d                	sub	a4,a4,a5
    540e:	412f0933          	sub	s2,t5,s2
    5412:	012f37b3          	sltu	a5,t5,s2
    5416:	40f70633          	sub	a2,a4,a5
    541a:	00861793          	slli	a5,a2,0x8
    541e:	2407d463          	bgez	a5,5666 <__adddf3+0x2fa>
    5422:	00800737          	lui	a4,0x800
    5426:	177d                	addi	a4,a4,-1
    5428:	00e67433          	and	s0,a2,a4
    542c:	2c040c63          	beqz	s0,5704 <__adddf3+0x398>
    5430:	8522                	mv	a0,s0
    5432:	209010ef          	jal	ra,6e3a <__clzsi2>
    5436:	ff850713          	addi	a4,a0,-8
    543a:	02000793          	li	a5,32
    543e:	8f99                	sub	a5,a5,a4
    5440:	00f957b3          	srl	a5,s2,a5
    5444:	00e41633          	sll	a2,s0,a4
    5448:	8fd1                	or	a5,a5,a2
    544a:	00e91933          	sll	s2,s2,a4
    544e:	2a974163          	blt	a4,s1,56f0 <__adddf3+0x384>
    5452:	40970533          	sub	a0,a4,s1
    5456:	00150613          	addi	a2,a0,1
    545a:	477d                	li	a4,31
    545c:	38c74d63          	blt	a4,a2,57f6 <__adddf3+0x48a>
    5460:	02000713          	li	a4,32
    5464:	8f11                	sub	a4,a4,a2
    5466:	00c956b3          	srl	a3,s2,a2
    546a:	00e91933          	sll	s2,s2,a4
    546e:	00e79733          	sll	a4,a5,a4
    5472:	8f55                	or	a4,a4,a3
    5474:	01203933          	snez	s2,s2
    5478:	01276933          	or	s2,a4,s2
    547c:	00c7d633          	srl	a2,a5,a2
    5480:	4481                	li	s1,0
    5482:	00797793          	andi	a5,s2,7
    5486:	cf81                	beqz	a5,549e <__adddf3+0x132>
    5488:	00f97713          	andi	a4,s2,15
    548c:	4791                	li	a5,4
    548e:	00f70863          	beq	a4,a5,549e <__adddf3+0x132>
    5492:	00490713          	addi	a4,s2,4
    5496:	01273933          	sltu	s2,a4,s2
    549a:	964a                	add	a2,a2,s2
    549c:	893a                	mv	s2,a4
    549e:	00861793          	slli	a5,a2,0x8
    54a2:	1c07d663          	bgez	a5,566e <__adddf3+0x302>
    54a6:	00148513          	addi	a0,s1,1
    54aa:	7ff00793          	li	a5,2047
    54ae:	85ce                	mv	a1,s3
    54b0:	20f50463          	beq	a0,a5,56b8 <__adddf3+0x34c>
    54b4:	ff8007b7          	lui	a5,0xff800
    54b8:	17fd                	addi	a5,a5,-1
    54ba:	8ff1                	and	a5,a5,a2
    54bc:	01d79893          	slli	a7,a5,0x1d
    54c0:	00395913          	srli	s2,s2,0x3
    54c4:	07a6                	slli	a5,a5,0x9
    54c6:	0128e8b3          	or	a7,a7,s2
    54ca:	83b1                	srli	a5,a5,0xc
    54cc:	7ff57513          	andi	a0,a0,2047
    54d0:	00c79693          	slli	a3,a5,0xc
    54d4:	0552                	slli	a0,a0,0x14
    54d6:	40f2                	lw	ra,28(sp)
    54d8:	4462                	lw	s0,24(sp)
    54da:	82b1                	srli	a3,a3,0xc
    54dc:	05fe                	slli	a1,a1,0x1f
    54de:	8ec9                	or	a3,a3,a0
    54e0:	8ecd                	or	a3,a3,a1
    54e2:	44d2                	lw	s1,20(sp)
    54e4:	4942                	lw	s2,16(sp)
    54e6:	49b2                	lw	s3,12(sp)
    54e8:	8546                	mv	a0,a7
    54ea:	85b6                	mv	a1,a3
    54ec:	6105                	addi	sp,sp,32
    54ee:	8082                	ret
    54f0:	0a0e1e63          	bnez	t3,55ac <__adddf3+0x240>
    54f4:	00148313          	addi	t1,s1,1
    54f8:	7fe37313          	andi	t1,t1,2046
    54fc:	22031763          	bnez	t1,572a <__adddf3+0x3be>
    5500:	01e767b3          	or	a5,a4,t5
    5504:	01f868b3          	or	a7,a6,t6
    5508:	1a049d63          	bnez	s1,56c2 <__adddf3+0x356>
    550c:	40078763          	beqz	a5,591a <__adddf3+0x5ae>
    5510:	44088663          	beqz	a7,595c <__adddf3+0x5f0>
    5514:	41ff0933          	sub	s2,t5,t6
    5518:	410707b3          	sub	a5,a4,a6
    551c:	012f3633          	sltu	a2,t5,s2
    5520:	40c78633          	sub	a2,a5,a2
    5524:	00861793          	slli	a5,a2,0x8
    5528:	4c07d663          	bgez	a5,59f4 <__adddf3+0x688>
    552c:	41ef8933          	sub	s2,t6,t5
    5530:	40e807b3          	sub	a5,a6,a4
    5534:	012fb633          	sltu	a2,t6,s2
    5538:	40c78633          	sub	a2,a5,a2
    553c:	89f6                	mv	s3,t4
    553e:	b791                	j	5482 <__adddf3+0x116>
    5540:	0fc05063          	blez	t3,5620 <__adddf3+0x2b4>
    5544:	0c030063          	beqz	t1,5604 <__adddf3+0x298>
    5548:	008006b7          	lui	a3,0x800
    554c:	7ff00793          	li	a5,2047
    5550:	00d86833          	or	a6,a6,a3
    5554:	3af48a63          	beq	s1,a5,5908 <__adddf3+0x59c>
    5558:	03800793          	li	a5,56
    555c:	13c7cb63          	blt	a5,t3,5692 <__adddf3+0x326>
    5560:	47fd                	li	a5,31
    5562:	35c7df63          	bge	a5,t3,58c0 <__adddf3+0x554>
    5566:	fe0e0913          	addi	s2,t3,-32
    556a:	02000793          	li	a5,32
    556e:	012856b3          	srl	a3,a6,s2
    5572:	00fe0a63          	beq	t3,a5,5586 <__adddf3+0x21a>
    5576:	04000913          	li	s2,64
    557a:	41c90933          	sub	s2,s2,t3
    557e:	01281933          	sll	s2,a6,s2
    5582:	012fefb3          	or	t6,t6,s2
    5586:	01f03933          	snez	s2,t6
    558a:	00d96933          	or	s2,s2,a3
    558e:	a231                	j	569a <__adddf3+0x32e>
    5590:	01f867b3          	or	a5,a6,t6
    5594:	1c078a63          	beqz	a5,5768 <__adddf3+0x3fc>
    5598:	fffe0793          	addi	a5,t3,-1
    559c:	38078c63          	beqz	a5,5934 <__adddf3+0x5c8>
    55a0:	7ff00693          	li	a3,2047
    55a4:	1ade0963          	beq	t3,a3,5756 <__adddf3+0x3ea>
    55a8:	8e3e                	mv	t3,a5
    55aa:	bd0d                	j	53dc <__adddf3+0x70>
    55ac:	409305b3          	sub	a1,t1,s1
    55b0:	22049163          	bnez	s1,57d2 <__adddf3+0x466>
    55b4:	01e767b3          	or	a5,a4,t5
    55b8:	32078763          	beqz	a5,58e6 <__adddf3+0x57a>
    55bc:	fff58793          	addi	a5,a1,-1
    55c0:	44078163          	beqz	a5,5a02 <__adddf3+0x696>
    55c4:	7ff00693          	li	a3,2047
    55c8:	20d58c63          	beq	a1,a3,57e0 <__adddf3+0x474>
    55cc:	85be                	mv	a1,a5
    55ce:	03800793          	li	a5,56
    55d2:	2ab7cc63          	blt	a5,a1,588a <__adddf3+0x51e>
    55d6:	47fd                	li	a5,31
    55d8:	3cb7cf63          	blt	a5,a1,59b6 <__adddf3+0x64a>
    55dc:	02000793          	li	a5,32
    55e0:	8f8d                	sub	a5,a5,a1
    55e2:	00f71933          	sll	s2,a4,a5
    55e6:	00bf56b3          	srl	a3,t5,a1
    55ea:	00ff17b3          	sll	a5,t5,a5
    55ee:	00d96933          	or	s2,s2,a3
    55f2:	00f037b3          	snez	a5,a5
    55f6:	00b75733          	srl	a4,a4,a1
    55fa:	00f96933          	or	s2,s2,a5
    55fe:	40e80833          	sub	a6,a6,a4
    5602:	ac41                	j	5892 <__adddf3+0x526>
    5604:	01f867b3          	or	a5,a6,t6
    5608:	34078063          	beqz	a5,5948 <__adddf3+0x5dc>
    560c:	fffe0793          	addi	a5,t3,-1
    5610:	20078a63          	beqz	a5,5824 <__adddf3+0x4b8>
    5614:	7ff00693          	li	a3,2047
    5618:	2ede0863          	beq	t3,a3,5908 <__adddf3+0x59c>
    561c:	8e3e                	mv	t3,a5
    561e:	bf2d                	j	5558 <__adddf3+0x1ec>
    5620:	140e1e63          	bnez	t3,577c <__adddf3+0x410>
    5624:	00148693          	addi	a3,s1,1
    5628:	7fe6f793          	andi	a5,a3,2046
    562c:	34079163          	bnez	a5,596e <__adddf3+0x602>
    5630:	01e767b3          	or	a5,a4,t5
    5634:	2c049563          	bnez	s1,58fe <__adddf3+0x592>
    5638:	3e078063          	beqz	a5,5a18 <__adddf3+0x6ac>
    563c:	01f867b3          	or	a5,a6,t6
    5640:	30078e63          	beqz	a5,595c <__adddf3+0x5f0>
    5644:	01ff0933          	add	s2,t5,t6
    5648:	010707b3          	add	a5,a4,a6
    564c:	01e93f33          	sltu	t5,s2,t5
    5650:	01e78633          	add	a2,a5,t5
    5654:	00861793          	slli	a5,a2,0x8
    5658:	0007d763          	bgez	a5,5666 <__adddf3+0x2fa>
    565c:	ff8007b7          	lui	a5,0xff800
    5660:	17fd                	addi	a5,a5,-1
    5662:	8e7d                	and	a2,a2,a5
    5664:	4485                	li	s1,1
    5666:	00797793          	andi	a5,s2,7
    566a:	e0079fe3          	bnez	a5,5488 <__adddf3+0x11c>
    566e:	01d61793          	slli	a5,a2,0x1d
    5672:	00395893          	srli	a7,s2,0x3
    5676:	00f8e8b3          	or	a7,a7,a5
    567a:	00365793          	srli	a5,a2,0x3
    567e:	7ff00713          	li	a4,2047
    5682:	04e48d63          	beq	s1,a4,56dc <__adddf3+0x370>
    5686:	07b2                	slli	a5,a5,0xc
    5688:	83b1                	srli	a5,a5,0xc
    568a:	7ff4f513          	andi	a0,s1,2047
    568e:	85ce                	mv	a1,s3
    5690:	b581                	j	54d0 <__adddf3+0x164>
    5692:	01f86933          	or	s2,a6,t6
    5696:	01203933          	snez	s2,s2
    569a:	997a                	add	s2,s2,t5
    569c:	01e937b3          	sltu	a5,s2,t5
    56a0:	00e78633          	add	a2,a5,a4
    56a4:	00861793          	slli	a5,a2,0x8
    56a8:	fa07dfe3          	bgez	a5,5666 <__adddf3+0x2fa>
    56ac:	0485                	addi	s1,s1,1
    56ae:	7ff00793          	li	a5,2047
    56b2:	18f49663          	bne	s1,a5,583e <__adddf3+0x4d2>
    56b6:	85ce                	mv	a1,s3
    56b8:	7ff00513          	li	a0,2047
    56bc:	4781                	li	a5,0
    56be:	4881                	li	a7,0
    56c0:	bd01                	j	54d0 <__adddf3+0x164>
    56c2:	ebc1                	bnez	a5,5752 <__adddf3+0x3e6>
    56c4:	3a088463          	beqz	a7,5a6c <__adddf3+0x700>
    56c8:	00361693          	slli	a3,a2,0x3
    56cc:	01d81793          	slli	a5,a6,0x1d
    56d0:	828d                	srli	a3,a3,0x3
    56d2:	00d7e8b3          	or	a7,a5,a3
    56d6:	89f6                	mv	s3,t4
    56d8:	00385793          	srli	a5,a6,0x3
    56dc:	00f8e7b3          	or	a5,a7,a5
    56e0:	dbf9                	beqz	a5,56b6 <__adddf3+0x34a>
    56e2:	4581                	li	a1,0
    56e4:	7ff00513          	li	a0,2047
    56e8:	000807b7          	lui	a5,0x80
    56ec:	4881                	li	a7,0
    56ee:	b3cd                	j	54d0 <__adddf3+0x164>
    56f0:	ff800637          	lui	a2,0xff800
    56f4:	167d                	addi	a2,a2,-1
    56f6:	8e7d                	and	a2,a2,a5
    56f8:	00797793          	andi	a5,s2,7
    56fc:	8c99                	sub	s1,s1,a4
    56fe:	d80795e3          	bnez	a5,5488 <__adddf3+0x11c>
    5702:	b7b5                	j	566e <__adddf3+0x302>
    5704:	854a                	mv	a0,s2
    5706:	734010ef          	jal	ra,6e3a <__clzsi2>
    570a:	01850713          	addi	a4,a0,24
    570e:	47fd                	li	a5,31
    5710:	d2e7d5e3          	bge	a5,a4,543a <__adddf3+0xce>
    5714:	ff850613          	addi	a2,a0,-8
    5718:	00c917b3          	sll	a5,s2,a2
    571c:	4901                	li	s2,0
    571e:	bb05                	j	544e <__adddf3+0xe2>
    5720:	01f86933          	or	s2,a6,t6
    5724:	01203933          	snez	s2,s2
    5728:	b1dd                	j	540e <__adddf3+0xa2>
    572a:	41ff0933          	sub	s2,t5,t6
    572e:	41070633          	sub	a2,a4,a6
    5732:	012f3433          	sltu	s0,t5,s2
    5736:	40860433          	sub	s0,a2,s0
    573a:	00841793          	slli	a5,s0,0x8
    573e:	2407cd63          	bltz	a5,5998 <__adddf3+0x62c>
    5742:	008968b3          	or	a7,s2,s0
    5746:	ce0893e3          	bnez	a7,542c <__adddf3+0xc0>
    574a:	4781                	li	a5,0
    574c:	4981                	li	s3,0
    574e:	4481                	li	s1,0
    5750:	bf1d                	j	5686 <__adddf3+0x31a>
    5752:	f80898e3          	bnez	a7,56e2 <__adddf3+0x376>
    5756:	050e                	slli	a0,a0,0x3
    5758:	01d71793          	slli	a5,a4,0x1d
    575c:	810d                	srli	a0,a0,0x3
    575e:	00a7e8b3          	or	a7,a5,a0
    5762:	00375793          	srli	a5,a4,0x3
    5766:	bf9d                	j	56dc <__adddf3+0x370>
    5768:	050e                	slli	a0,a0,0x3
    576a:	01d71793          	slli	a5,a4,0x1d
    576e:	810d                	srli	a0,a0,0x3
    5770:	00a7e8b3          	or	a7,a5,a0
    5774:	84f2                	mv	s1,t3
    5776:	00375793          	srli	a5,a4,0x3
    577a:	b711                	j	567e <__adddf3+0x312>
    577c:	40930533          	sub	a0,t1,s1
    5780:	12048263          	beqz	s1,58a4 <__adddf3+0x538>
    5784:	008006b7          	lui	a3,0x800
    5788:	7ff00793          	li	a5,2047
    578c:	8f55                	or	a4,a4,a3
    578e:	2ef30d63          	beq	t1,a5,5a88 <__adddf3+0x71c>
    5792:	03800793          	li	a5,56
    5796:	20a7cb63          	blt	a5,a0,59ac <__adddf3+0x640>
    579a:	47fd                	li	a5,31
    579c:	2aa7c363          	blt	a5,a0,5a42 <__adddf3+0x6d6>
    57a0:	02000793          	li	a5,32
    57a4:	8f89                	sub	a5,a5,a0
    57a6:	00f71933          	sll	s2,a4,a5
    57aa:	00af56b3          	srl	a3,t5,a0
    57ae:	00ff17b3          	sll	a5,t5,a5
    57b2:	00d96933          	or	s2,s2,a3
    57b6:	00f037b3          	snez	a5,a5
    57ba:	00a75733          	srl	a4,a4,a0
    57be:	00f96933          	or	s2,s2,a5
    57c2:	983a                	add	a6,a6,a4
    57c4:	997e                	add	s2,s2,t6
    57c6:	01f937b3          	sltu	a5,s2,t6
    57ca:	01078633          	add	a2,a5,a6
    57ce:	849a                	mv	s1,t1
    57d0:	bdd1                	j	56a4 <__adddf3+0x338>
    57d2:	008006b7          	lui	a3,0x800
    57d6:	7ff00793          	li	a5,2047
    57da:	8f55                	or	a4,a4,a3
    57dc:	def319e3          	bne	t1,a5,55ce <__adddf3+0x262>
    57e0:	00361793          	slli	a5,a2,0x3
    57e4:	838d                	srli	a5,a5,0x3
    57e6:	01d81893          	slli	a7,a6,0x1d
    57ea:	0117e8b3          	or	a7,a5,a7
    57ee:	89f6                	mv	s3,t4
    57f0:	00385793          	srli	a5,a6,0x3
    57f4:	b5e5                	j	56dc <__adddf3+0x370>
    57f6:	fe150713          	addi	a4,a0,-31
    57fa:	02000693          	li	a3,32
    57fe:	00e7d733          	srl	a4,a5,a4
    5802:	00d60a63          	beq	a2,a3,5816 <__adddf3+0x4aa>
    5806:	04000693          	li	a3,64
    580a:	40c68633          	sub	a2,a3,a2
    580e:	00c79633          	sll	a2,a5,a2
    5812:	00c96933          	or	s2,s2,a2
    5816:	01203933          	snez	s2,s2
    581a:	00e96933          	or	s2,s2,a4
    581e:	4601                	li	a2,0
    5820:	4481                	li	s1,0
    5822:	b591                	j	5666 <__adddf3+0x2fa>
    5824:	01ff0933          	add	s2,t5,t6
    5828:	010707b3          	add	a5,a4,a6
    582c:	01e93633          	sltu	a2,s2,t5
    5830:	963e                	add	a2,a2,a5
    5832:	00861793          	slli	a5,a2,0x8
    5836:	4485                	li	s1,1
    5838:	e207d7e3          	bgez	a5,5666 <__adddf3+0x2fa>
    583c:	4489                	li	s1,2
    583e:	ff8007b7          	lui	a5,0xff800
    5842:	17fd                	addi	a5,a5,-1
    5844:	8ff1                	and	a5,a5,a2
    5846:	00195713          	srli	a4,s2,0x1
    584a:	00197913          	andi	s2,s2,1
    584e:	01276933          	or	s2,a4,s2
    5852:	01f79893          	slli	a7,a5,0x1f
    5856:	0128e933          	or	s2,a7,s2
    585a:	0017d613          	srli	a2,a5,0x1
    585e:	b115                	j	5482 <__adddf3+0x116>
    5860:	fe0e0913          	addi	s2,t3,-32
    5864:	02000793          	li	a5,32
    5868:	012856b3          	srl	a3,a6,s2
    586c:	00fe0a63          	beq	t3,a5,5880 <__adddf3+0x514>
    5870:	04000913          	li	s2,64
    5874:	41c90933          	sub	s2,s2,t3
    5878:	01281933          	sll	s2,a6,s2
    587c:	012fefb3          	or	t6,t6,s2
    5880:	01f03933          	snez	s2,t6
    5884:	00d96933          	or	s2,s2,a3
    5888:	b659                	j	540e <__adddf3+0xa2>
    588a:	01e76933          	or	s2,a4,t5
    588e:	01203933          	snez	s2,s2
    5892:	412f8933          	sub	s2,t6,s2
    5896:	012fb7b3          	sltu	a5,t6,s2
    589a:	40f80633          	sub	a2,a6,a5
    589e:	849a                	mv	s1,t1
    58a0:	89f6                	mv	s3,t4
    58a2:	bea5                	j	541a <__adddf3+0xae>
    58a4:	01e767b3          	or	a5,a4,t5
    58a8:	18078263          	beqz	a5,5a2c <__adddf3+0x6c0>
    58ac:	fff50793          	addi	a5,a0,-1
    58b0:	1c078463          	beqz	a5,5a78 <__adddf3+0x70c>
    58b4:	7ff00693          	li	a3,2047
    58b8:	12d50463          	beq	a0,a3,59e0 <__adddf3+0x674>
    58bc:	853e                	mv	a0,a5
    58be:	bdd1                	j	5792 <__adddf3+0x426>
    58c0:	02000793          	li	a5,32
    58c4:	41c787b3          	sub	a5,a5,t3
    58c8:	00f816b3          	sll	a3,a6,a5
    58cc:	00ff9933          	sll	s2,t6,a5
    58d0:	01cfd633          	srl	a2,t6,t3
    58d4:	8ed1                	or	a3,a3,a2
    58d6:	01203933          	snez	s2,s2
    58da:	01c857b3          	srl	a5,a6,t3
    58de:	0126e933          	or	s2,a3,s2
    58e2:	973e                	add	a4,a4,a5
    58e4:	bb5d                	j	569a <__adddf3+0x32e>
    58e6:	00361793          	slli	a5,a2,0x3
    58ea:	838d                	srli	a5,a5,0x3
    58ec:	01d81893          	slli	a7,a6,0x1d
    58f0:	0117e8b3          	or	a7,a5,a7
    58f4:	84ae                	mv	s1,a1
    58f6:	00385793          	srli	a5,a6,0x3
    58fa:	89f6                	mv	s3,t4
    58fc:	b349                	j	567e <__adddf3+0x312>
    58fe:	c3ed                	beqz	a5,59e0 <__adddf3+0x674>
    5900:	01f86933          	or	s2,a6,t6
    5904:	dc091fe3          	bnez	s2,56e2 <__adddf3+0x376>
    5908:	050e                	slli	a0,a0,0x3
    590a:	01d71793          	slli	a5,a4,0x1d
    590e:	810d                	srli	a0,a0,0x3
    5910:	00f568b3          	or	a7,a0,a5
    5914:	00375793          	srli	a5,a4,0x3
    5918:	b3d1                	j	56dc <__adddf3+0x370>
    591a:	0e088163          	beqz	a7,59fc <__adddf3+0x690>
    591e:	00361693          	slli	a3,a2,0x3
    5922:	01d81793          	slli	a5,a6,0x1d
    5926:	828d                	srli	a3,a3,0x3
    5928:	00d7e8b3          	or	a7,a5,a3
    592c:	89f6                	mv	s3,t4
    592e:	00385793          	srli	a5,a6,0x3
    5932:	bb91                	j	5686 <__adddf3+0x31a>
    5934:	41ff0933          	sub	s2,t5,t6
    5938:	410707b3          	sub	a5,a4,a6
    593c:	012f3f33          	sltu	t5,t5,s2
    5940:	41e78633          	sub	a2,a5,t5
    5944:	4485                	li	s1,1
    5946:	bcd1                	j	541a <__adddf3+0xae>
    5948:	050e                	slli	a0,a0,0x3
    594a:	01d71793          	slli	a5,a4,0x1d
    594e:	810d                	srli	a0,a0,0x3
    5950:	00f568b3          	or	a7,a0,a5
    5954:	84f2                	mv	s1,t3
    5956:	00375793          	srli	a5,a4,0x3
    595a:	b315                	j	567e <__adddf3+0x312>
    595c:	050e                	slli	a0,a0,0x3
    595e:	01d71793          	slli	a5,a4,0x1d
    5962:	810d                	srli	a0,a0,0x3
    5964:	00a7e8b3          	or	a7,a5,a0
    5968:	00375793          	srli	a5,a4,0x3
    596c:	bb29                	j	5686 <__adddf3+0x31a>
    596e:	7ff00793          	li	a5,2047
    5972:	d4f682e3          	beq	a3,a5,56b6 <__adddf3+0x34a>
    5976:	01ff0933          	add	s2,t5,t6
    597a:	01e93633          	sltu	a2,s2,t5
    597e:	010707b3          	add	a5,a4,a6
    5982:	97b2                	add	a5,a5,a2
    5984:	01f79893          	slli	a7,a5,0x1f
    5988:	00195913          	srli	s2,s2,0x1
    598c:	0128e933          	or	s2,a7,s2
    5990:	0017d613          	srli	a2,a5,0x1
    5994:	84b6                	mv	s1,a3
    5996:	b9c1                	j	5666 <__adddf3+0x2fa>
    5998:	41ef8933          	sub	s2,t6,t5
    599c:	40e80733          	sub	a4,a6,a4
    59a0:	012fb633          	sltu	a2,t6,s2
    59a4:	40c70433          	sub	s0,a4,a2
    59a8:	89f6                	mv	s3,t4
    59aa:	b449                	j	542c <__adddf3+0xc0>
    59ac:	01e76933          	or	s2,a4,t5
    59b0:	01203933          	snez	s2,s2
    59b4:	bd01                	j	57c4 <__adddf3+0x458>
    59b6:	fe058793          	addi	a5,a1,-32
    59ba:	02000693          	li	a3,32
    59be:	00f757b3          	srl	a5,a4,a5
    59c2:	00d58a63          	beq	a1,a3,59d6 <__adddf3+0x66a>
    59c6:	04000693          	li	a3,64
    59ca:	40b685b3          	sub	a1,a3,a1
    59ce:	00b71733          	sll	a4,a4,a1
    59d2:	00ef6f33          	or	t5,t5,a4
    59d6:	01e03933          	snez	s2,t5
    59da:	00f96933          	or	s2,s2,a5
    59de:	bd55                	j	5892 <__adddf3+0x526>
    59e0:	00361793          	slli	a5,a2,0x3
    59e4:	838d                	srli	a5,a5,0x3
    59e6:	01d81893          	slli	a7,a6,0x1d
    59ea:	0117e8b3          	or	a7,a5,a7
    59ee:	00385793          	srli	a5,a6,0x3
    59f2:	b1ed                	j	56dc <__adddf3+0x370>
    59f4:	00c968b3          	or	a7,s2,a2
    59f8:	c60897e3          	bnez	a7,5666 <__adddf3+0x2fa>
    59fc:	4781                	li	a5,0
    59fe:	4981                	li	s3,0
    5a00:	b159                	j	5686 <__adddf3+0x31a>
    5a02:	41ef8933          	sub	s2,t6,t5
    5a06:	40e807b3          	sub	a5,a6,a4
    5a0a:	012fb633          	sltu	a2,t6,s2
    5a0e:	40c78633          	sub	a2,a5,a2
    5a12:	89f6                	mv	s3,t4
    5a14:	4485                	li	s1,1
    5a16:	b411                	j	541a <__adddf3+0xae>
    5a18:	00361693          	slli	a3,a2,0x3
    5a1c:	01d81793          	slli	a5,a6,0x1d
    5a20:	828d                	srli	a3,a3,0x3
    5a22:	00d7e8b3          	or	a7,a5,a3
    5a26:	00385793          	srli	a5,a6,0x3
    5a2a:	b9b1                	j	5686 <__adddf3+0x31a>
    5a2c:	00361693          	slli	a3,a2,0x3
    5a30:	01d81793          	slli	a5,a6,0x1d
    5a34:	828d                	srli	a3,a3,0x3
    5a36:	00d7e8b3          	or	a7,a5,a3
    5a3a:	84aa                	mv	s1,a0
    5a3c:	00385793          	srli	a5,a6,0x3
    5a40:	b93d                	j	567e <__adddf3+0x312>
    5a42:	fe050793          	addi	a5,a0,-32
    5a46:	02000693          	li	a3,32
    5a4a:	00f757b3          	srl	a5,a4,a5
    5a4e:	00d50a63          	beq	a0,a3,5a62 <__adddf3+0x6f6>
    5a52:	04000693          	li	a3,64
    5a56:	40a68533          	sub	a0,a3,a0
    5a5a:	00a71733          	sll	a4,a4,a0
    5a5e:	00ef6f33          	or	t5,t5,a4
    5a62:	01e03933          	snez	s2,t5
    5a66:	00f96933          	or	s2,s2,a5
    5a6a:	bba9                	j	57c4 <__adddf3+0x458>
    5a6c:	4581                	li	a1,0
    5a6e:	7ff00513          	li	a0,2047
    5a72:	000807b7          	lui	a5,0x80
    5a76:	bca9                	j	54d0 <__adddf3+0x164>
    5a78:	01ff0933          	add	s2,t5,t6
    5a7c:	010707b3          	add	a5,a4,a6
    5a80:	01f93633          	sltu	a2,s2,t6
    5a84:	963e                	add	a2,a2,a5
    5a86:	b375                	j	5832 <__adddf3+0x4c6>
    5a88:	00361693          	slli	a3,a2,0x3
    5a8c:	01d81793          	slli	a5,a6,0x1d
    5a90:	828d                	srli	a3,a3,0x3
    5a92:	00d7e8b3          	or	a7,a5,a3
    5a96:	00385793          	srli	a5,a6,0x3
    5a9a:	b189                	j	56dc <__adddf3+0x370>

00005a9c <__divdf3>:
__divdf3():
    5a9c:	7139                	addi	sp,sp,-64
    5a9e:	0145d793          	srli	a5,a1,0x14
    5aa2:	dc22                	sw	s0,56(sp)
    5aa4:	d84a                	sw	s2,48(sp)
    5aa6:	d256                	sw	s5,36(sp)
    5aa8:	892a                	mv	s2,a0
    5aaa:	00c59413          	slli	s0,a1,0xc
    5aae:	de06                	sw	ra,60(sp)
    5ab0:	da26                	sw	s1,52(sp)
    5ab2:	d64e                	sw	s3,44(sp)
    5ab4:	d452                	sw	s4,40(sp)
    5ab6:	d05a                	sw	s6,32(sp)
    5ab8:	ce5e                	sw	s7,28(sp)
    5aba:	7ff7f513          	andi	a0,a5,2047
    5abe:	8031                	srli	s0,s0,0xc
    5ac0:	01f5da93          	srli	s5,a1,0x1f
    5ac4:	10050b63          	beqz	a0,5bda <__divdf3+0x13e>
    5ac8:	7ff00793          	li	a5,2047
    5acc:	14f50b63          	beq	a0,a5,5c22 <__divdf3+0x186>
    5ad0:	01d95a13          	srli	s4,s2,0x1d
    5ad4:	040e                	slli	s0,s0,0x3
    5ad6:	008a6433          	or	s0,s4,s0
    5ada:	00800a37          	lui	s4,0x800
    5ade:	01446a33          	or	s4,s0,s4
    5ae2:	00391b13          	slli	s6,s2,0x3
    5ae6:	c0150493          	addi	s1,a0,-1023
    5aea:	4401                	li	s0,0
    5aec:	4b81                	li	s7,0
    5aee:	0146d813          	srli	a6,a3,0x14
    5af2:	00c69913          	slli	s2,a3,0xc
    5af6:	7ff87813          	andi	a6,a6,2047
    5afa:	88b2                	mv	a7,a2
    5afc:	00c95913          	srli	s2,s2,0xc
    5b00:	01f6d993          	srli	s3,a3,0x1f
    5b04:	08080e63          	beqz	a6,5ba0 <__divdf3+0x104>
    5b08:	7ff00793          	li	a5,2047
    5b0c:	04f80063          	beq	a6,a5,5b4c <__divdf3+0xb0>
    5b10:	01d65713          	srli	a4,a2,0x1d
    5b14:	090e                	slli	s2,s2,0x3
    5b16:	01276933          	or	s2,a4,s2
    5b1a:	c0180813          	addi	a6,a6,-1023 # ffc01 <_data_lma+0xf551d>
    5b1e:	008007b7          	lui	a5,0x800
    5b22:	00f96733          	or	a4,s2,a5
    5b26:	00361893          	slli	a7,a2,0x3
    5b2a:	410484b3          	sub	s1,s1,a6
    5b2e:	4581                	li	a1,0
    5b30:	47bd                	li	a5,15
    5b32:	013ac833          	xor	a6,s5,s3
    5b36:	1a87e463          	bltu	a5,s0,5cde <__divdf3+0x242>
    5b3a:	00004797          	auipc	a5,0x4
    5b3e:	70678793          	addi	a5,a5,1798 # a240 <MyUSBQUADescHD+0xc8>
    5b42:	040a                	slli	s0,s0,0x2
    5b44:	943e                	add	s0,s0,a5
    5b46:	4010                	lw	a2,0(s0)
    5b48:	963e                	add	a2,a2,a5
    5b4a:	8602                	jr	a2
    5b4c:	00c96733          	or	a4,s2,a2
    5b50:	80148493          	addi	s1,s1,-2047
    5b54:	10071263          	bnez	a4,5c58 <__divdf3+0x1bc>
    5b58:	00246413          	ori	s0,s0,2
    5b5c:	4881                	li	a7,0
    5b5e:	4589                	li	a1,2
    5b60:	bfc1                	j	5b30 <__divdf3+0x94>
    5b62:	7ff00613          	li	a2,2047
    5b66:	4781                	li	a5,0
    5b68:	4701                	li	a4,0
    5b6a:	07b2                	slli	a5,a5,0xc
    5b6c:	50f2                	lw	ra,60(sp)
    5b6e:	5462                	lw	s0,56(sp)
    5b70:	0652                	slli	a2,a2,0x14
    5b72:	83b1                	srli	a5,a5,0xc
    5b74:	087e                	slli	a6,a6,0x1f
    5b76:	8fd1                	or	a5,a5,a2
    5b78:	0107e7b3          	or	a5,a5,a6
    5b7c:	54d2                	lw	s1,52(sp)
    5b7e:	5942                	lw	s2,48(sp)
    5b80:	59b2                	lw	s3,44(sp)
    5b82:	5a22                	lw	s4,40(sp)
    5b84:	5a92                	lw	s5,36(sp)
    5b86:	5b02                	lw	s6,32(sp)
    5b88:	4bf2                	lw	s7,28(sp)
    5b8a:	853a                	mv	a0,a4
    5b8c:	85be                	mv	a1,a5
    5b8e:	6121                	addi	sp,sp,64
    5b90:	8082                	ret
    5b92:	4801                	li	a6,0
    5b94:	7ff00613          	li	a2,2047
    5b98:	000807b7          	lui	a5,0x80
    5b9c:	4701                	li	a4,0
    5b9e:	b7f1                	j	5b6a <__divdf3+0xce>
    5ba0:	00c96733          	or	a4,s2,a2
    5ba4:	c74d                	beqz	a4,5c4e <__divdf3+0x1b2>
    5ba6:	30090863          	beqz	s2,5eb6 <__divdf3+0x41a>
    5baa:	854a                	mv	a0,s2
    5bac:	c432                	sw	a2,8(sp)
    5bae:	28c010ef          	jal	ra,6e3a <__clzsi2>
    5bb2:	4622                	lw	a2,8(sp)
    5bb4:	ff550713          	addi	a4,a0,-11
    5bb8:	47f5                	li	a5,29
    5bba:	ff850693          	addi	a3,a0,-8
    5bbe:	8f99                	sub	a5,a5,a4
    5bc0:	00d91933          	sll	s2,s2,a3
    5bc4:	00f657b3          	srl	a5,a2,a5
    5bc8:	0127e733          	or	a4,a5,s2
    5bcc:	00d618b3          	sll	a7,a2,a3
    5bd0:	9526                	add	a0,a0,s1
    5bd2:	3f350493          	addi	s1,a0,1011
    5bd6:	4581                	li	a1,0
    5bd8:	bfa1                	j	5b30 <__divdf3+0x94>
    5bda:	01246a33          	or	s4,s0,s2
    5bde:	060a0363          	beqz	s4,5c44 <__divdf3+0x1a8>
    5be2:	c636                	sw	a3,12(sp)
    5be4:	c432                	sw	a2,8(sp)
    5be6:	2a040663          	beqz	s0,5e92 <__divdf3+0x3f6>
    5bea:	8522                	mv	a0,s0
    5bec:	24e010ef          	jal	ra,6e3a <__clzsi2>
    5bf0:	4622                	lw	a2,8(sp)
    5bf2:	46b2                	lw	a3,12(sp)
    5bf4:	84aa                	mv	s1,a0
    5bf6:	ff550713          	addi	a4,a0,-11
    5bfa:	4a75                	li	s4,29
    5bfc:	ff848b13          	addi	s6,s1,-8
    5c00:	40ea0a33          	sub	s4,s4,a4
    5c04:	01641433          	sll	s0,s0,s6
    5c08:	01495a33          	srl	s4,s2,s4
    5c0c:	008a6a33          	or	s4,s4,s0
    5c10:	01691b33          	sll	s6,s2,s6
    5c14:	c0d00513          	li	a0,-1011
    5c18:	409504b3          	sub	s1,a0,s1
    5c1c:	4401                	li	s0,0
    5c1e:	4b81                	li	s7,0
    5c20:	b5f9                	j	5aee <__divdf3+0x52>
    5c22:	01246a33          	or	s4,s0,s2
    5c26:	000a1863          	bnez	s4,5c36 <__divdf3+0x19a>
    5c2a:	4421                	li	s0,8
    5c2c:	4b01                	li	s6,0
    5c2e:	7ff00493          	li	s1,2047
    5c32:	4b89                	li	s7,2
    5c34:	bd6d                	j	5aee <__divdf3+0x52>
    5c36:	8a22                	mv	s4,s0
    5c38:	8b4a                	mv	s6,s2
    5c3a:	4431                	li	s0,12
    5c3c:	7ff00493          	li	s1,2047
    5c40:	4b8d                	li	s7,3
    5c42:	b575                	j	5aee <__divdf3+0x52>
    5c44:	4411                	li	s0,4
    5c46:	4b01                	li	s6,0
    5c48:	4481                	li	s1,0
    5c4a:	4b85                	li	s7,1
    5c4c:	b54d                	j	5aee <__divdf3+0x52>
    5c4e:	00146413          	ori	s0,s0,1
    5c52:	4881                	li	a7,0
    5c54:	4585                	li	a1,1
    5c56:	bde9                	j	5b30 <__divdf3+0x94>
    5c58:	00346413          	ori	s0,s0,3
    5c5c:	874a                	mv	a4,s2
    5c5e:	458d                	li	a1,3
    5c60:	bdc1                	j	5b30 <__divdf3+0x94>
    5c62:	2e050a63          	beqz	a0,5f56 <__divdf3+0x4ba>
    5c66:	4785                	li	a5,1
    5c68:	8f89                	sub	a5,a5,a0
    5c6a:	03800693          	li	a3,56
    5c6e:	32f6dd63          	bge	a3,a5,5fa8 <__divdf3+0x50c>
    5c72:	4601                	li	a2,0
    5c74:	4781                	li	a5,0
    5c76:	4701                	li	a4,0
    5c78:	bdcd                	j	5b6a <__divdf3+0xce>
    5c7a:	86ce                	mv	a3,s3
    5c7c:	4789                	li	a5,2
    5c7e:	3af58d63          	beq	a1,a5,6038 <__divdf3+0x59c>
    5c82:	478d                	li	a5,3
    5c84:	f0f587e3          	beq	a1,a5,5b92 <__divdf3+0xf6>
    5c88:	4785                	li	a5,1
    5c8a:	8836                	mv	a6,a3
    5c8c:	fef583e3          	beq	a1,a5,5c72 <__divdf3+0x1d6>
    5c90:	3ff48513          	addi	a0,s1,1023
    5c94:	fca057e3          	blez	a0,5c62 <__divdf3+0x1c6>
    5c98:	0078f793          	andi	a5,a7,7
    5c9c:	28079663          	bnez	a5,5f28 <__divdf3+0x48c>
    5ca0:	0038d693          	srli	a3,a7,0x3
    5ca4:	00771793          	slli	a5,a4,0x7
    5ca8:	0007d863          	bgez	a5,5cb8 <__divdf3+0x21c>
    5cac:	ff0007b7          	lui	a5,0xff000
    5cb0:	17fd                	addi	a5,a5,-1
    5cb2:	8f7d                	and	a4,a4,a5
    5cb4:	40048513          	addi	a0,s1,1024
    5cb8:	7fe00793          	li	a5,2046
    5cbc:	eaa7c3e3          	blt	a5,a0,5b62 <__divdf3+0xc6>
    5cc0:	01d71613          	slli	a2,a4,0x1d
    5cc4:	00971793          	slli	a5,a4,0x9
    5cc8:	83b1                	srli	a5,a5,0xc
    5cca:	00d66733          	or	a4,a2,a3
    5cce:	7ff57613          	andi	a2,a0,2047
    5cd2:	bd61                	j	5b6a <__divdf3+0xce>
    5cd4:	86d6                	mv	a3,s5
    5cd6:	8752                	mv	a4,s4
    5cd8:	88da                	mv	a7,s6
    5cda:	85de                	mv	a1,s7
    5cdc:	b745                	j	5c7c <__divdf3+0x1e0>
    5cde:	23476163          	bltu	a4,s4,5f00 <__divdf3+0x464>
    5ce2:	20ea0d63          	beq	s4,a4,5efc <__divdf3+0x460>
    5ce6:	86da                	mv	a3,s6
    5ce8:	14fd                	addi	s1,s1,-1
    5cea:	8452                	mv	s0,s4
    5cec:	4b01                	li	s6,0
    5cee:	00871793          	slli	a5,a4,0x8
    5cf2:	0188d313          	srli	t1,a7,0x18
    5cf6:	00f36333          	or	t1,t1,a5
    5cfa:	01035e93          	srli	t4,t1,0x10
    5cfe:	03d457b3          	divu	a5,s0,t4
    5d02:	01031f13          	slli	t5,t1,0x10
    5d06:	010f5f13          	srli	t5,t5,0x10
    5d0a:	0106d593          	srli	a1,a3,0x10
    5d0e:	00889e13          	slli	t3,a7,0x8
    5d12:	03d47433          	remu	s0,s0,t4
    5d16:	02ff0733          	mul	a4,t5,a5
    5d1a:	0442                	slli	s0,s0,0x10
    5d1c:	8dc1                	or	a1,a1,s0
    5d1e:	00e5fb63          	bgeu	a1,a4,5d34 <__divdf3+0x298>
    5d22:	959a                	add	a1,a1,t1
    5d24:	fff78613          	addi	a2,a5,-1 # feffffff <_eusrstack+0xdefeffff>
    5d28:	2665ee63          	bltu	a1,t1,5fa4 <__divdf3+0x508>
    5d2c:	26e5fc63          	bgeu	a1,a4,5fa4 <__divdf3+0x508>
    5d30:	17f9                	addi	a5,a5,-2
    5d32:	959a                	add	a1,a1,t1
    5d34:	8d99                	sub	a1,a1,a4
    5d36:	03d5d733          	divu	a4,a1,t4
    5d3a:	06c2                	slli	a3,a3,0x10
    5d3c:	82c1                	srli	a3,a3,0x10
    5d3e:	03d5f5b3          	remu	a1,a1,t4
    5d42:	02ef0633          	mul	a2,t5,a4
    5d46:	05c2                	slli	a1,a1,0x10
    5d48:	8dd5                	or	a1,a1,a3
    5d4a:	00c5fb63          	bgeu	a1,a2,5d60 <__divdf3+0x2c4>
    5d4e:	959a                	add	a1,a1,t1
    5d50:	fff70693          	addi	a3,a4,-1 # 7fffff <_data_lma+0x7f591b>
    5d54:	2465e663          	bltu	a1,t1,5fa0 <__divdf3+0x504>
    5d58:	24c5f463          	bgeu	a1,a2,5fa0 <__divdf3+0x504>
    5d5c:	1779                	addi	a4,a4,-2
    5d5e:	959a                	add	a1,a1,t1
    5d60:	07c2                	slli	a5,a5,0x10
    5d62:	6441                	lui	s0,0x10
    5d64:	8f5d                	or	a4,a4,a5
    5d66:	fff40793          	addi	a5,s0,-1 # ffff <_data_lma+0x591b>
    5d6a:	00f77533          	and	a0,a4,a5
    5d6e:	01075893          	srli	a7,a4,0x10
    5d72:	010e5f93          	srli	t6,t3,0x10
    5d76:	00fe77b3          	and	a5,t3,a5
    5d7a:	02f502b3          	mul	t0,a0,a5
    5d7e:	40c586b3          	sub	a3,a1,a2
    5d82:	02f883b3          	mul	t2,a7,a5
    5d86:	0102d593          	srli	a1,t0,0x10
    5d8a:	02af8633          	mul	a2,t6,a0
    5d8e:	961e                	add	a2,a2,t2
    5d90:	962e                	add	a2,a2,a1
    5d92:	03f88533          	mul	a0,a7,t6
    5d96:	00767363          	bgeu	a2,t2,5d9c <__divdf3+0x300>
    5d9a:	9522                	add	a0,a0,s0
    5d9c:	68c1                	lui	a7,0x10
    5d9e:	18fd                	addi	a7,a7,-1
    5da0:	01065593          	srli	a1,a2,0x10
    5da4:	01167633          	and	a2,a2,a7
    5da8:	0642                	slli	a2,a2,0x10
    5daa:	0112f8b3          	and	a7,t0,a7
    5dae:	95aa                	add	a1,a1,a0
    5db0:	9646                	add	a2,a2,a7
    5db2:	12b6e663          	bltu	a3,a1,5ede <__divdf3+0x442>
    5db6:	12b68263          	beq	a3,a1,5eda <__divdf3+0x43e>
    5dba:	40cb0633          	sub	a2,s6,a2
    5dbe:	8e8d                	sub	a3,a3,a1
    5dc0:	00cb3b33          	sltu	s6,s6,a2
    5dc4:	41668b33          	sub	s6,a3,s6
    5dc8:	3ff48513          	addi	a0,s1,1023
    5dcc:	17630c63          	beq	t1,s6,5f44 <__divdf3+0x4a8>
    5dd0:	03db58b3          	divu	a7,s6,t4
    5dd4:	01065593          	srli	a1,a2,0x10
    5dd8:	03db7b33          	remu	s6,s6,t4
    5ddc:	031f06b3          	mul	a3,t5,a7
    5de0:	0b42                	slli	s6,s6,0x10
    5de2:	0165eb33          	or	s6,a1,s6
    5de6:	00db7b63          	bgeu	s6,a3,5dfc <__divdf3+0x360>
    5dea:	9b1a                	add	s6,s6,t1
    5dec:	fff88593          	addi	a1,a7,-1 # ffff <_data_lma+0x591b>
    5df0:	206b6d63          	bltu	s6,t1,600a <__divdf3+0x56e>
    5df4:	20db7b63          	bgeu	s6,a3,600a <__divdf3+0x56e>
    5df8:	18f9                	addi	a7,a7,-2
    5dfa:	9b1a                	add	s6,s6,t1
    5dfc:	40db0b33          	sub	s6,s6,a3
    5e00:	03db56b3          	divu	a3,s6,t4
    5e04:	0642                	slli	a2,a2,0x10
    5e06:	8241                	srli	a2,a2,0x10
    5e08:	03db7b33          	remu	s6,s6,t4
    5e0c:	02df0f33          	mul	t5,t5,a3
    5e10:	0b42                	slli	s6,s6,0x10
    5e12:	01666633          	or	a2,a2,s6
    5e16:	01e67b63          	bgeu	a2,t5,5e2c <__divdf3+0x390>
    5e1a:	961a                	add	a2,a2,t1
    5e1c:	fff68593          	addi	a1,a3,-1 # 7fffff <_data_lma+0x7f591b>
    5e20:	1e666763          	bltu	a2,t1,600e <__divdf3+0x572>
    5e24:	1fe67563          	bgeu	a2,t5,600e <__divdf3+0x572>
    5e28:	16f9                	addi	a3,a3,-2
    5e2a:	961a                	add	a2,a2,t1
    5e2c:	08c2                	slli	a7,a7,0x10
    5e2e:	00d8e8b3          	or	a7,a7,a3
    5e32:	01089593          	slli	a1,a7,0x10
    5e36:	0108d293          	srli	t0,a7,0x10
    5e3a:	81c1                	srli	a1,a1,0x10
    5e3c:	02f58eb3          	mul	t4,a1,a5
    5e40:	41e60633          	sub	a2,a2,t5
    5e44:	02bf85b3          	mul	a1,t6,a1
    5e48:	010ed693          	srli	a3,t4,0x10
    5e4c:	02f287b3          	mul	a5,t0,a5
    5e50:	95be                	add	a1,a1,a5
    5e52:	96ae                	add	a3,a3,a1
    5e54:	025f8fb3          	mul	t6,t6,t0
    5e58:	00f6f463          	bgeu	a3,a5,5e60 <__divdf3+0x3c4>
    5e5c:	67c1                	lui	a5,0x10
    5e5e:	9fbe                	add	t6,t6,a5
    5e60:	65c1                	lui	a1,0x10
    5e62:	15fd                	addi	a1,a1,-1
    5e64:	0106d793          	srli	a5,a3,0x10
    5e68:	8eed                	and	a3,a3,a1
    5e6a:	06c2                	slli	a3,a3,0x10
    5e6c:	00befeb3          	and	t4,t4,a1
    5e70:	9fbe                	add	t6,t6,a5
    5e72:	96f6                	add	a3,a3,t4
    5e74:	09f67f63          	bgeu	a2,t6,5f12 <__divdf3+0x476>
    5e78:	961a                	add	a2,a2,t1
    5e7a:	fff88793          	addi	a5,a7,-1
    5e7e:	1a666963          	bltu	a2,t1,6030 <__divdf3+0x594>
    5e82:	19f66863          	bltu	a2,t6,6012 <__divdf3+0x576>
    5e86:	1bf60f63          	beq	a2,t6,6044 <__divdf3+0x5a8>
    5e8a:	88be                	mv	a7,a5
    5e8c:	0018e893          	ori	a7,a7,1
    5e90:	b511                	j	5c94 <__divdf3+0x1f8>
    5e92:	854a                	mv	a0,s2
    5e94:	7a7000ef          	jal	ra,6e3a <__clzsi2>
    5e98:	01550713          	addi	a4,a0,21
    5e9c:	45f1                	li	a1,28
    5e9e:	02050493          	addi	s1,a0,32
    5ea2:	4622                	lw	a2,8(sp)
    5ea4:	46b2                	lw	a3,12(sp)
    5ea6:	d4e5dae3          	bge	a1,a4,5bfa <__divdf3+0x15e>
    5eaa:	ff850413          	addi	s0,a0,-8
    5eae:	00891a33          	sll	s4,s2,s0
    5eb2:	4b01                	li	s6,0
    5eb4:	b385                	j	5c14 <__divdf3+0x178>
    5eb6:	8532                	mv	a0,a2
    5eb8:	c432                	sw	a2,8(sp)
    5eba:	781000ef          	jal	ra,6e3a <__clzsi2>
    5ebe:	01550713          	addi	a4,a0,21
    5ec2:	46f1                	li	a3,28
    5ec4:	87aa                	mv	a5,a0
    5ec6:	4622                	lw	a2,8(sp)
    5ec8:	02050513          	addi	a0,a0,32
    5ecc:	cee6d6e3          	bge	a3,a4,5bb8 <__divdf3+0x11c>
    5ed0:	17e1                	addi	a5,a5,-8
    5ed2:	00f61733          	sll	a4,a2,a5
    5ed6:	4881                	li	a7,0
    5ed8:	b9e5                	j	5bd0 <__divdf3+0x134>
    5eda:	eecb70e3          	bgeu	s6,a2,5dba <__divdf3+0x31e>
    5ede:	9b72                	add	s6,s6,t3
    5ee0:	01cb3533          	sltu	a0,s6,t3
    5ee4:	951a                	add	a0,a0,t1
    5ee6:	96aa                	add	a3,a3,a0
    5ee8:	fff70513          	addi	a0,a4,-1
    5eec:	02d37863          	bgeu	t1,a3,5f1c <__divdf3+0x480>
    5ef0:	10b6e663          	bltu	a3,a1,5ffc <__divdf3+0x560>
    5ef4:	10d58263          	beq	a1,a3,5ff8 <__divdf3+0x55c>
    5ef8:	872a                	mv	a4,a0
    5efa:	b5c1                	j	5dba <__divdf3+0x31e>
    5efc:	df1b65e3          	bltu	s6,a7,5ce6 <__divdf3+0x24a>
    5f00:	001b5593          	srli	a1,s6,0x1
    5f04:	01fa1693          	slli	a3,s4,0x1f
    5f08:	001a5413          	srli	s0,s4,0x1
    5f0c:	8ecd                	or	a3,a3,a1
    5f0e:	0b7e                	slli	s6,s6,0x1f
    5f10:	bbf9                	j	5cee <__divdf3+0x252>
    5f12:	f7f61de3          	bne	a2,t6,5e8c <__divdf3+0x3f0>
    5f16:	d6068fe3          	beqz	a3,5c94 <__divdf3+0x1f8>
    5f1a:	bfb9                	j	5e78 <__divdf3+0x3dc>
    5f1c:	fcd31ee3          	bne	t1,a3,5ef8 <__divdf3+0x45c>
    5f20:	fdcb78e3          	bgeu	s6,t3,5ef0 <__divdf3+0x454>
    5f24:	872a                	mv	a4,a0
    5f26:	bd51                	j	5dba <__divdf3+0x31e>
    5f28:	00f8f793          	andi	a5,a7,15
    5f2c:	4691                	li	a3,4
    5f2e:	d6d789e3          	beq	a5,a3,5ca0 <__divdf3+0x204>
    5f32:	ffc8b793          	sltiu	a5,a7,-4
    5f36:	00488693          	addi	a3,a7,4
    5f3a:	0017c793          	xori	a5,a5,1
    5f3e:	828d                	srli	a3,a3,0x3
    5f40:	973e                	add	a4,a4,a5
    5f42:	b38d                	j	5ca4 <__divdf3+0x208>
    5f44:	4681                	li	a3,0
    5f46:	4785                	li	a5,1
    5f48:	fea04ce3          	bgtz	a0,5f40 <__divdf3+0x4a4>
    5f4c:	58fd                	li	a7,-1
    5f4e:	d0051ce3          	bnez	a0,5c66 <__divdf3+0x1ca>
    5f52:	c0100493          	li	s1,-1023
    5f56:	4785                	li	a5,1
    5f58:	41e48513          	addi	a0,s1,1054
    5f5c:	00a716b3          	sll	a3,a4,a0
    5f60:	00f8d633          	srl	a2,a7,a5
    5f64:	00a89533          	sll	a0,a7,a0
    5f68:	8ed1                	or	a3,a3,a2
    5f6a:	00a03533          	snez	a0,a0
    5f6e:	8ec9                	or	a3,a3,a0
    5f70:	0076f613          	andi	a2,a3,7
    5f74:	00f75733          	srl	a4,a4,a5
    5f78:	ce01                	beqz	a2,5f90 <__divdf3+0x4f4>
    5f7a:	00f6f793          	andi	a5,a3,15
    5f7e:	4611                	li	a2,4
    5f80:	00c78863          	beq	a5,a2,5f90 <__divdf3+0x4f4>
    5f84:	00468793          	addi	a5,a3,4
    5f88:	00d7b6b3          	sltu	a3,a5,a3
    5f8c:	9736                	add	a4,a4,a3
    5f8e:	86be                	mv	a3,a5
    5f90:	00871793          	slli	a5,a4,0x8
    5f94:	0407d863          	bgez	a5,5fe4 <__divdf3+0x548>
    5f98:	4605                	li	a2,1
    5f9a:	4781                	li	a5,0
    5f9c:	4701                	li	a4,0
    5f9e:	b6f1                	j	5b6a <__divdf3+0xce>
    5fa0:	8736                	mv	a4,a3
    5fa2:	bb7d                	j	5d60 <__divdf3+0x2c4>
    5fa4:	87b2                	mv	a5,a2
    5fa6:	b379                	j	5d34 <__divdf3+0x298>
    5fa8:	46fd                	li	a3,31
    5faa:	faf6d7e3          	bge	a3,a5,5f58 <__divdf3+0x4bc>
    5fae:	5605                	li	a2,-31
    5fb0:	8e09                	sub	a2,a2,a0
    5fb2:	02000693          	li	a3,32
    5fb6:	00c75633          	srl	a2,a4,a2
    5fba:	00d78863          	beq	a5,a3,5fca <__divdf3+0x52e>
    5fbe:	43e48793          	addi	a5,s1,1086
    5fc2:	00f717b3          	sll	a5,a4,a5
    5fc6:	00f8e8b3          	or	a7,a7,a5
    5fca:	011036b3          	snez	a3,a7
    5fce:	8ed1                	or	a3,a3,a2
    5fd0:	0076f613          	andi	a2,a3,7
    5fd4:	4781                	li	a5,0
    5fd6:	ce01                	beqz	a2,5fee <__divdf3+0x552>
    5fd8:	00f6f793          	andi	a5,a3,15
    5fdc:	4611                	li	a2,4
    5fde:	4701                	li	a4,0
    5fe0:	fac792e3          	bne	a5,a2,5f84 <__divdf3+0x4e8>
    5fe4:	00971793          	slli	a5,a4,0x9
    5fe8:	01d71613          	slli	a2,a4,0x1d
    5fec:	83b1                	srli	a5,a5,0xc
    5fee:	0036d713          	srli	a4,a3,0x3
    5ff2:	8f51                	or	a4,a4,a2
    5ff4:	4601                	li	a2,0
    5ff6:	be95                	j	5b6a <__divdf3+0xce>
    5ff8:	f0cb70e3          	bgeu	s6,a2,5ef8 <__divdf3+0x45c>
    5ffc:	9b72                	add	s6,s6,t3
    5ffe:	01cb3533          	sltu	a0,s6,t3
    6002:	951a                	add	a0,a0,t1
    6004:	1779                	addi	a4,a4,-2
    6006:	96aa                	add	a3,a3,a0
    6008:	bb4d                	j	5dba <__divdf3+0x31e>
    600a:	88ae                	mv	a7,a1
    600c:	bbc5                	j	5dfc <__divdf3+0x360>
    600e:	86ae                	mv	a3,a1
    6010:	bd31                	j	5e2c <__divdf3+0x390>
    6012:	001e1793          	slli	a5,t3,0x1
    6016:	01c7be33          	sltu	t3,a5,t3
    601a:	9372                	add	t1,t1,t3
    601c:	961a                	add	a2,a2,t1
    601e:	18f9                	addi	a7,a7,-2
    6020:	8e3e                	mv	t3,a5
    6022:	e7f615e3          	bne	a2,t6,5e8c <__divdf3+0x3f0>
    6026:	c6de07e3          	beq	t3,a3,5c94 <__divdf3+0x1f8>
    602a:	0018e893          	ori	a7,a7,1
    602e:	b19d                	j	5c94 <__divdf3+0x1f8>
    6030:	88be                	mv	a7,a5
    6032:	fff60ae3          	beq	a2,t6,6026 <__divdf3+0x58a>
    6036:	bd99                	j	5e8c <__divdf3+0x3f0>
    6038:	8836                	mv	a6,a3
    603a:	7ff00613          	li	a2,2047
    603e:	4781                	li	a5,0
    6040:	4701                	li	a4,0
    6042:	b625                	j	5b6a <__divdf3+0xce>
    6044:	fcde67e3          	bltu	t3,a3,6012 <__divdf3+0x576>
    6048:	88be                	mv	a7,a5
    604a:	fede10e3          	bne	t3,a3,602a <__divdf3+0x58e>
    604e:	b199                	j	5c94 <__divdf3+0x1f8>

00006050 <__eqdf2>:
__eqdf2():
    6050:	0145d713          	srli	a4,a1,0x14
    6054:	001007b7          	lui	a5,0x100
    6058:	17fd                	addi	a5,a5,-1
    605a:	0146d813          	srli	a6,a3,0x14
    605e:	7ff77713          	andi	a4,a4,2047
    6062:	7ff00893          	li	a7,2047
    6066:	00b7fe33          	and	t3,a5,a1
    606a:	8eaa                	mv	t4,a0
    606c:	8ff5                	and	a5,a5,a3
    606e:	81fd                	srli	a1,a1,0x1f
    6070:	8f32                	mv	t5,a2
    6072:	7ff87813          	andi	a6,a6,2047
    6076:	82fd                	srli	a3,a3,0x1f
    6078:	01170b63          	beq	a4,a7,608e <__eqdf2+0x3e>
    607c:	4305                	li	t1,1
    607e:	01180663          	beq	a6,a7,608a <__eqdf2+0x3a>
    6082:	01071463          	bne	a4,a6,608a <__eqdf2+0x3a>
    6086:	00fe0d63          	beq	t3,a5,60a0 <__eqdf2+0x50>
    608a:	851a                	mv	a0,t1
    608c:	8082                	ret
    608e:	00ae68b3          	or	a7,t3,a0
    6092:	4305                	li	t1,1
    6094:	fe089be3          	bnez	a7,608a <__eqdf2+0x3a>
    6098:	fee819e3          	bne	a6,a4,608a <__eqdf2+0x3a>
    609c:	8fd1                	or	a5,a5,a2
    609e:	f7f5                	bnez	a5,608a <__eqdf2+0x3a>
    60a0:	4305                	li	t1,1
    60a2:	ffee94e3          	bne	t4,t5,608a <__eqdf2+0x3a>
    60a6:	4301                	li	t1,0
    60a8:	fed581e3          	beq	a1,a3,608a <__eqdf2+0x3a>
    60ac:	4305                	li	t1,1
    60ae:	ff71                	bnez	a4,608a <__eqdf2+0x3a>
    60b0:	00ae6533          	or	a0,t3,a0
    60b4:	00a03333          	snez	t1,a0
    60b8:	bfc9                	j	608a <__eqdf2+0x3a>

000060ba <__ledf2>:
__ltdf2():
    60ba:	0145d713          	srli	a4,a1,0x14
    60be:	001007b7          	lui	a5,0x100
    60c2:	17fd                	addi	a5,a5,-1
    60c4:	0146d813          	srli	a6,a3,0x14
    60c8:	7ff77713          	andi	a4,a4,2047
    60cc:	7ff00893          	li	a7,2047
    60d0:	00b7fe33          	and	t3,a5,a1
    60d4:	8eaa                	mv	t4,a0
    60d6:	8ff5                	and	a5,a5,a3
    60d8:	81fd                	srli	a1,a1,0x1f
    60da:	8f32                	mv	t5,a2
    60dc:	7ff87813          	andi	a6,a6,2047
    60e0:	82fd                	srli	a3,a3,0x1f
    60e2:	03170e63          	beq	a4,a7,611e <__ledf2+0x64>
    60e6:	01180d63          	beq	a6,a7,6100 <__ledf2+0x46>
    60ea:	e329                	bnez	a4,612c <__ledf2+0x72>
    60ec:	00ae68b3          	or	a7,t3,a0
    60f0:	00081f63          	bnez	a6,610e <__ledf2+0x54>
    60f4:	8e5d                	or	a2,a2,a5
    60f6:	ee01                	bnez	a2,610e <__ledf2+0x54>
    60f8:	4301                	li	t1,0
    60fa:	04088c63          	beqz	a7,6152 <__ledf2+0x98>
    60fe:	a821                	j	6116 <__ledf2+0x5c>
    6100:	00c7e8b3          	or	a7,a5,a2
    6104:	4309                	li	t1,2
    6106:	04089663          	bnez	a7,6152 <__ledf2+0x98>
    610a:	d36d                	beqz	a4,60ec <__ledf2+0x32>
    610c:	a005                	j	612c <__ledf2+0x72>
    610e:	04088463          	beqz	a7,6156 <__ledf2+0x9c>
    6112:	02d58563          	beq	a1,a3,613c <__ledf2+0x82>
    6116:	4305                	li	t1,1
    6118:	cd8d                	beqz	a1,6152 <__ledf2+0x98>
    611a:	537d                	li	t1,-1
    611c:	a81d                	j	6152 <__ledf2+0x98>
    611e:	00ae68b3          	or	a7,t3,a0
    6122:	4309                	li	t1,2
    6124:	02089763          	bnez	a7,6152 <__ledf2+0x98>
    6128:	02e80a63          	beq	a6,a4,615c <__ledf2+0xa2>
    612c:	00081463          	bnez	a6,6134 <__ledf2+0x7a>
    6130:	8e5d                	or	a2,a2,a5
    6132:	d275                	beqz	a2,6116 <__ledf2+0x5c>
    6134:	fed591e3          	bne	a1,a3,6116 <__ledf2+0x5c>
    6138:	fce84fe3          	blt	a6,a4,6116 <__ledf2+0x5c>
    613c:	01074963          	blt	a4,a6,614e <__ledf2+0x94>
    6140:	fdc7ebe3          	bltu	a5,t3,6116 <__ledf2+0x5c>
    6144:	00fe0f63          	beq	t3,a5,6162 <__ledf2+0xa8>
    6148:	4301                	li	t1,0
    614a:	00fe7463          	bgeu	t3,a5,6152 <__ledf2+0x98>
    614e:	d5f1                	beqz	a1,611a <__ledf2+0x60>
    6150:	4305                	li	t1,1
    6152:	851a                	mv	a0,t1
    6154:	8082                	ret
    6156:	feed                	bnez	a3,6150 <__ledf2+0x96>
    6158:	537d                	li	t1,-1
    615a:	bfe5                	j	6152 <__ledf2+0x98>
    615c:	8e5d                	or	a2,a2,a5
    615e:	da79                	beqz	a2,6134 <__ledf2+0x7a>
    6160:	bfcd                	j	6152 <__ledf2+0x98>
    6162:	fbdf6ae3          	bltu	t5,t4,6116 <__ledf2+0x5c>
    6166:	4301                	li	t1,0
    6168:	ffeef5e3          	bgeu	t4,t5,6152 <__ledf2+0x98>
    616c:	f1f5                	bnez	a1,6150 <__ledf2+0x96>
    616e:	b775                	j	611a <__ledf2+0x60>

00006170 <__muldf3>:
__muldf3():
    6170:	7139                	addi	sp,sp,-64
    6172:	d84a                	sw	s2,48(sp)
    6174:	0145d913          	srli	s2,a1,0x14
    6178:	d64e                	sw	s3,44(sp)
    617a:	d452                	sw	s4,40(sp)
    617c:	d256                	sw	s5,36(sp)
    617e:	00c59993          	slli	s3,a1,0xc
    6182:	de06                	sw	ra,60(sp)
    6184:	dc22                	sw	s0,56(sp)
    6186:	da26                	sw	s1,52(sp)
    6188:	d05a                	sw	s6,32(sp)
    618a:	ce5e                	sw	s7,28(sp)
    618c:	7ff97913          	andi	s2,s2,2047
    6190:	8a2a                	mv	s4,a0
    6192:	00c9d993          	srli	s3,s3,0xc
    6196:	01f5da93          	srli	s5,a1,0x1f
    619a:	0e090d63          	beqz	s2,6294 <__muldf3+0x124>
    619e:	7ff00793          	li	a5,2047
    61a2:	18f90663          	beq	s2,a5,632e <__muldf3+0x1be>
    61a6:	01d55413          	srli	s0,a0,0x1d
    61aa:	098e                	slli	s3,s3,0x3
    61ac:	013469b3          	or	s3,s0,s3
    61b0:	00800437          	lui	s0,0x800
    61b4:	0089e433          	or	s0,s3,s0
    61b8:	00351493          	slli	s1,a0,0x3
    61bc:	c0190913          	addi	s2,s2,-1023
    61c0:	4981                	li	s3,0
    61c2:	4b81                	li	s7,0
    61c4:	0146d713          	srli	a4,a3,0x14
    61c8:	00c69a13          	slli	s4,a3,0xc
    61cc:	7ff77713          	andi	a4,a4,2047
    61d0:	85b2                	mv	a1,a2
    61d2:	00ca5a13          	srli	s4,s4,0xc
    61d6:	01f6db13          	srli	s6,a3,0x1f
    61da:	10070b63          	beqz	a4,62f0 <__muldf3+0x180>
    61de:	7ff00793          	li	a5,2047
    61e2:	04f70363          	beq	a4,a5,6228 <__muldf3+0xb8>
    61e6:	01d65793          	srli	a5,a2,0x1d
    61ea:	0a0e                	slli	s4,s4,0x3
    61ec:	0147ea33          	or	s4,a5,s4
    61f0:	c0170713          	addi	a4,a4,-1023
    61f4:	008007b7          	lui	a5,0x800
    61f8:	00fa67b3          	or	a5,s4,a5
    61fc:	00361593          	slli	a1,a2,0x3
    6200:	993a                	add	s2,s2,a4
    6202:	4881                	li	a7,0
    6204:	016ac733          	xor	a4,s5,s6
    6208:	46bd                	li	a3,15
    620a:	853a                	mv	a0,a4
    620c:	00190813          	addi	a6,s2,1
    6210:	1736e863          	bltu	a3,s3,6380 <__muldf3+0x210>
    6214:	00004617          	auipc	a2,0x4
    6218:	06c60613          	addi	a2,a2,108 # a280 <MyUSBQUADescHD+0x108>
    621c:	098a                	slli	s3,s3,0x2
    621e:	99b2                	add	s3,s3,a2
    6220:	0009a683          	lw	a3,0(s3)
    6224:	96b2                	add	a3,a3,a2
    6226:	8682                	jr	a3
    6228:	00ca67b3          	or	a5,s4,a2
    622c:	7ff90913          	addi	s2,s2,2047
    6230:	12079963          	bnez	a5,6362 <__muldf3+0x1f2>
    6234:	0029e993          	ori	s3,s3,2
    6238:	4581                	li	a1,0
    623a:	4889                	li	a7,2
    623c:	b7e1                	j	6204 <__muldf3+0x94>
    623e:	4701                	li	a4,0
    6240:	7ff00793          	li	a5,2047
    6244:	00080437          	lui	s0,0x80
    6248:	4481                	li	s1,0
    624a:	0432                	slli	s0,s0,0xc
    624c:	07d2                	slli	a5,a5,0x14
    624e:	8031                	srli	s0,s0,0xc
    6250:	077e                	slli	a4,a4,0x1f
    6252:	8c5d                	or	s0,s0,a5
    6254:	8c59                	or	s0,s0,a4
    6256:	85a2                	mv	a1,s0
    6258:	50f2                	lw	ra,60(sp)
    625a:	5462                	lw	s0,56(sp)
    625c:	8526                	mv	a0,s1
    625e:	5942                	lw	s2,48(sp)
    6260:	54d2                	lw	s1,52(sp)
    6262:	59b2                	lw	s3,44(sp)
    6264:	5a22                	lw	s4,40(sp)
    6266:	5a92                	lw	s5,36(sp)
    6268:	5b02                	lw	s6,32(sp)
    626a:	4bf2                	lw	s7,28(sp)
    626c:	6121                	addi	sp,sp,64
    626e:	8082                	ret
    6270:	855a                	mv	a0,s6
    6272:	843e                	mv	s0,a5
    6274:	84ae                	mv	s1,a1
    6276:	8bc6                	mv	s7,a7
    6278:	4789                	li	a5,2
    627a:	0efb8d63          	beq	s7,a5,6374 <__muldf3+0x204>
    627e:	478d                	li	a5,3
    6280:	fafb8fe3          	beq	s7,a5,623e <__muldf3+0xce>
    6284:	4785                	li	a5,1
    6286:	872a                	mv	a4,a0
    6288:	38fb9e63          	bne	s7,a5,6624 <__muldf3+0x4b4>
    628c:	4781                	li	a5,0
    628e:	4401                	li	s0,0
    6290:	4481                	li	s1,0
    6292:	bf65                	j	624a <__muldf3+0xda>
    6294:	00a9e433          	or	s0,s3,a0
    6298:	c061                	beqz	s0,6358 <__muldf3+0x1e8>
    629a:	c636                	sw	a3,12(sp)
    629c:	c432                	sw	a2,8(sp)
    629e:	2a098c63          	beqz	s3,6556 <__muldf3+0x3e6>
    62a2:	854e                	mv	a0,s3
    62a4:	397000ef          	jal	ra,6e3a <__clzsi2>
    62a8:	4622                	lw	a2,8(sp)
    62aa:	46b2                	lw	a3,12(sp)
    62ac:	87aa                	mv	a5,a0
    62ae:	ff550713          	addi	a4,a0,-11
    62b2:	4475                	li	s0,29
    62b4:	ff878493          	addi	s1,a5,-8 # 7ffff8 <_data_lma+0x7f5914>
    62b8:	8c19                	sub	s0,s0,a4
    62ba:	009999b3          	sll	s3,s3,s1
    62be:	008a5433          	srl	s0,s4,s0
    62c2:	01346433          	or	s0,s0,s3
    62c6:	009a14b3          	sll	s1,s4,s1
    62ca:	0146d713          	srli	a4,a3,0x14
    62ce:	c0d00913          	li	s2,-1011
    62d2:	00c69a13          	slli	s4,a3,0xc
    62d6:	7ff77713          	andi	a4,a4,2047
    62da:	40f90933          	sub	s2,s2,a5
    62de:	4981                	li	s3,0
    62e0:	4b81                	li	s7,0
    62e2:	85b2                	mv	a1,a2
    62e4:	00ca5a13          	srli	s4,s4,0xc
    62e8:	01f6db13          	srli	s6,a3,0x1f
    62ec:	ee0719e3          	bnez	a4,61de <__muldf3+0x6e>
    62f0:	00ca67b3          	or	a5,s4,a2
    62f4:	c7b1                	beqz	a5,6340 <__muldf3+0x1d0>
    62f6:	220a0f63          	beqz	s4,6534 <__muldf3+0x3c4>
    62fa:	8552                	mv	a0,s4
    62fc:	c432                	sw	a2,8(sp)
    62fe:	33d000ef          	jal	ra,6e3a <__clzsi2>
    6302:	4622                	lw	a2,8(sp)
    6304:	872a                	mv	a4,a0
    6306:	ff550693          	addi	a3,a0,-11
    630a:	47f5                	li	a5,29
    630c:	ff870593          	addi	a1,a4,-8
    6310:	8f95                	sub	a5,a5,a3
    6312:	00ba1a33          	sll	s4,s4,a1
    6316:	00f657b3          	srl	a5,a2,a5
    631a:	0147e7b3          	or	a5,a5,s4
    631e:	00b615b3          	sll	a1,a2,a1
    6322:	40e90933          	sub	s2,s2,a4
    6326:	c0d90913          	addi	s2,s2,-1011
    632a:	4881                	li	a7,0
    632c:	bde1                	j	6204 <__muldf3+0x94>
    632e:	00a9e433          	or	s0,s3,a0
    6332:	ec01                	bnez	s0,634a <__muldf3+0x1da>
    6334:	49a1                	li	s3,8
    6336:	4481                	li	s1,0
    6338:	7ff00913          	li	s2,2047
    633c:	4b89                	li	s7,2
    633e:	b559                	j	61c4 <__muldf3+0x54>
    6340:	0019e993          	ori	s3,s3,1
    6344:	4581                	li	a1,0
    6346:	4885                	li	a7,1
    6348:	bd75                	j	6204 <__muldf3+0x94>
    634a:	844e                	mv	s0,s3
    634c:	84aa                	mv	s1,a0
    634e:	49b1                	li	s3,12
    6350:	7ff00913          	li	s2,2047
    6354:	4b8d                	li	s7,3
    6356:	b5bd                	j	61c4 <__muldf3+0x54>
    6358:	4991                	li	s3,4
    635a:	4481                	li	s1,0
    635c:	4901                	li	s2,0
    635e:	4b85                	li	s7,1
    6360:	b595                	j	61c4 <__muldf3+0x54>
    6362:	0039e993          	ori	s3,s3,3
    6366:	87d2                	mv	a5,s4
    6368:	488d                	li	a7,3
    636a:	bd69                	j	6204 <__muldf3+0x94>
    636c:	4789                	li	a5,2
    636e:	8556                	mv	a0,s5
    6370:	f0fb97e3          	bne	s7,a5,627e <__muldf3+0x10e>
    6374:	872a                	mv	a4,a0
    6376:	7ff00793          	li	a5,2047
    637a:	4401                	li	s0,0
    637c:	4481                	li	s1,0
    637e:	b5f1                	j	624a <__muldf3+0xda>
    6380:	6ec1                	lui	t4,0x10
    6382:	fffe8613          	addi	a2,t4,-1 # ffff <_data_lma+0x591b>
    6386:	0104d693          	srli	a3,s1,0x10
    638a:	0105de13          	srli	t3,a1,0x10
    638e:	8cf1                	and	s1,s1,a2
    6390:	8df1                	and	a1,a1,a2
    6392:	02958633          	mul	a2,a1,s1
    6396:	02b68333          	mul	t1,a3,a1
    639a:	01065893          	srli	a7,a2,0x10
    639e:	029e0533          	mul	a0,t3,s1
    63a2:	951a                	add	a0,a0,t1
    63a4:	98aa                	add	a7,a7,a0
    63a6:	03c682b3          	mul	t0,a3,t3
    63aa:	0068f363          	bgeu	a7,t1,63b0 <__muldf3+0x240>
    63ae:	92f6                	add	t0,t0,t4
    63b0:	6fc1                	lui	t6,0x10
    63b2:	ffff8313          	addi	t1,t6,-1 # ffff <_data_lma+0x591b>
    63b6:	0067f533          	and	a0,a5,t1
    63ba:	0107d393          	srli	t2,a5,0x10
    63be:	0068f7b3          	and	a5,a7,t1
    63c2:	07c2                	slli	a5,a5,0x10
    63c4:	00667333          	and	t1,a2,t1
    63c8:	933e                	add	t1,t1,a5
    63ca:	02950633          	mul	a2,a0,s1
    63ce:	0108d893          	srli	a7,a7,0x10
    63d2:	02a687b3          	mul	a5,a3,a0
    63d6:	01065f13          	srli	t5,a2,0x10
    63da:	029384b3          	mul	s1,t2,s1
    63de:	94be                	add	s1,s1,a5
    63e0:	94fa                	add	s1,s1,t5
    63e2:	02768eb3          	mul	t4,a3,t2
    63e6:	00f4f363          	bgeu	s1,a5,63ec <__muldf3+0x27c>
    63ea:	9efe                	add	t4,t4,t6
    63ec:	6a41                	lui	s4,0x10
    63ee:	fffa0793          	addi	a5,s4,-1 # ffff <_data_lma+0x591b>
    63f2:	01045f93          	srli	t6,s0,0x10
    63f6:	00f476b3          	and	a3,s0,a5
    63fa:	00f4f9b3          	and	s3,s1,a5
    63fe:	8e7d                	and	a2,a2,a5
    6400:	80c1                	srli	s1,s1,0x10
    6402:	02d58433          	mul	s0,a1,a3
    6406:	09c2                	slli	s3,s3,0x10
    6408:	01d48f33          	add	t5,s1,t4
    640c:	99b2                	add	s3,s3,a2
    640e:	98ce                	add	a7,a7,s3
    6410:	02de07b3          	mul	a5,t3,a3
    6414:	01045e93          	srli	t4,s0,0x10
    6418:	02bf85b3          	mul	a1,t6,a1
    641c:	97ae                	add	a5,a5,a1
    641e:	9ebe                	add	t4,t4,a5
    6420:	03fe0e33          	mul	t3,t3,t6
    6424:	00bef363          	bgeu	t4,a1,642a <__muldf3+0x2ba>
    6428:	9e52                	add	t3,t3,s4
    642a:	67c1                	lui	a5,0x10
    642c:	fff78593          	addi	a1,a5,-1 # ffff <_data_lma+0x591b>
    6430:	00bef633          	and	a2,t4,a1
    6434:	8c6d                	and	s0,s0,a1
    6436:	0642                	slli	a2,a2,0x10
    6438:	9622                	add	a2,a2,s0
    643a:	010ede93          	srli	t4,t4,0x10
    643e:	02d505b3          	mul	a1,a0,a3
    6442:	9e76                	add	t3,t3,t4
    6444:	02af8533          	mul	a0,t6,a0
    6448:	0105d413          	srli	s0,a1,0x10
    644c:	02d386b3          	mul	a3,t2,a3
    6450:	96aa                	add	a3,a3,a0
    6452:	96a2                	add	a3,a3,s0
    6454:	03f38fb3          	mul	t6,t2,t6
    6458:	00a6f363          	bgeu	a3,a0,645e <__muldf3+0x2ee>
    645c:	9fbe                	add	t6,t6,a5
    645e:	6541                	lui	a0,0x10
    6460:	157d                	addi	a0,a0,-1
    6462:	00a6f7b3          	and	a5,a3,a0
    6466:	07c2                	slli	a5,a5,0x10
    6468:	8d6d                	and	a0,a0,a1
    646a:	97aa                	add	a5,a5,a0
    646c:	005885b3          	add	a1,a7,t0
    6470:	0135b9b3          	sltu	s3,a1,s3
    6474:	97fa                	add	a5,a5,t5
    6476:	95b2                	add	a1,a1,a2
    6478:	01378433          	add	s0,a5,s3
    647c:	00c5b633          	sltu	a2,a1,a2
    6480:	01c40eb3          	add	t4,s0,t3
    6484:	00ce8533          	add	a0,t4,a2
    6488:	01343433          	sltu	s0,s0,s3
    648c:	01e7b7b3          	sltu	a5,a5,t5
    6490:	8fc1                	or	a5,a5,s0
    6492:	01cebe33          	sltu	t3,t4,t3
    6496:	0106d413          	srli	s0,a3,0x10
    649a:	00c53633          	sltu	a2,a0,a2
    649e:	943e                	add	s0,s0,a5
    64a0:	00ce6633          	or	a2,t3,a2
    64a4:	00959493          	slli	s1,a1,0x9
    64a8:	9432                	add	s0,s0,a2
    64aa:	947e                	add	s0,s0,t6
    64ac:	0064e4b3          	or	s1,s1,t1
    64b0:	0426                	slli	s0,s0,0x9
    64b2:	01755693          	srli	a3,a0,0x17
    64b6:	009034b3          	snez	s1,s1
    64ba:	81dd                	srli	a1,a1,0x17
    64bc:	00951793          	slli	a5,a0,0x9
    64c0:	8ccd                	or	s1,s1,a1
    64c2:	8c55                	or	s0,s0,a3
    64c4:	8cdd                	or	s1,s1,a5
    64c6:	00741793          	slli	a5,s0,0x7
    64ca:	0007db63          	bgez	a5,64e0 <__muldf3+0x370>
    64ce:	0014d793          	srli	a5,s1,0x1
    64d2:	8885                	andi	s1,s1,1
    64d4:	01f41693          	slli	a3,s0,0x1f
    64d8:	8cdd                	or	s1,s1,a5
    64da:	8cd5                	or	s1,s1,a3
    64dc:	8005                	srli	s0,s0,0x1
    64de:	8942                	mv	s2,a6
    64e0:	3ff90793          	addi	a5,s2,1023
    64e4:	08f05963          	blez	a5,6576 <__muldf3+0x406>
    64e8:	0074f693          	andi	a3,s1,7
    64ec:	ce81                	beqz	a3,6504 <__muldf3+0x394>
    64ee:	00f4f693          	andi	a3,s1,15
    64f2:	4611                	li	a2,4
    64f4:	00c68863          	beq	a3,a2,6504 <__muldf3+0x394>
    64f8:	00448693          	addi	a3,s1,4
    64fc:	0096b4b3          	sltu	s1,a3,s1
    6500:	9426                	add	s0,s0,s1
    6502:	84b6                	mv	s1,a3
    6504:	00741693          	slli	a3,s0,0x7
    6508:	0006d863          	bgez	a3,6518 <__muldf3+0x3a8>
    650c:	ff0007b7          	lui	a5,0xff000
    6510:	17fd                	addi	a5,a5,-1
    6512:	8c7d                	and	s0,s0,a5
    6514:	40090793          	addi	a5,s2,1024
    6518:	7fe00693          	li	a3,2046
    651c:	0ef6cf63          	blt	a3,a5,661a <__muldf3+0x4aa>
    6520:	0034d693          	srli	a3,s1,0x3
    6524:	01d41493          	slli	s1,s0,0x1d
    6528:	0426                	slli	s0,s0,0x9
    652a:	8cd5                	or	s1,s1,a3
    652c:	8031                	srli	s0,s0,0xc
    652e:	7ff7f793          	andi	a5,a5,2047
    6532:	bb21                	j	624a <__muldf3+0xda>
    6534:	8532                	mv	a0,a2
    6536:	c432                	sw	a2,8(sp)
    6538:	103000ef          	jal	ra,6e3a <__clzsi2>
    653c:	01550693          	addi	a3,a0,21 # 10015 <_data_lma+0x5931>
    6540:	47f1                	li	a5,28
    6542:	02050713          	addi	a4,a0,32
    6546:	4622                	lw	a2,8(sp)
    6548:	dcd7d1e3          	bge	a5,a3,630a <__muldf3+0x19a>
    654c:	1561                	addi	a0,a0,-8
    654e:	00a617b3          	sll	a5,a2,a0
    6552:	4581                	li	a1,0
    6554:	b3f9                	j	6322 <__muldf3+0x1b2>
    6556:	0e5000ef          	jal	ra,6e3a <__clzsi2>
    655a:	01550713          	addi	a4,a0,21
    655e:	45f1                	li	a1,28
    6560:	02050793          	addi	a5,a0,32
    6564:	4622                	lw	a2,8(sp)
    6566:	46b2                	lw	a3,12(sp)
    6568:	d4e5d5e3          	bge	a1,a4,62b2 <__muldf3+0x142>
    656c:	1561                	addi	a0,a0,-8
    656e:	00aa1433          	sll	s0,s4,a0
    6572:	4481                	li	s1,0
    6574:	bb99                	j	62ca <__muldf3+0x15a>
    6576:	4685                	li	a3,1
    6578:	8e9d                	sub	a3,a3,a5
    657a:	e7b1                	bnez	a5,65c6 <__muldf3+0x456>
    657c:	41e90913          	addi	s2,s2,1054
    6580:	012497b3          	sll	a5,s1,s2
    6584:	00d4d4b3          	srl	s1,s1,a3
    6588:	01241933          	sll	s2,s0,s2
    658c:	00f037b3          	snez	a5,a5
    6590:	009964b3          	or	s1,s2,s1
    6594:	8cdd                	or	s1,s1,a5
    6596:	0074f793          	andi	a5,s1,7
    659a:	00d456b3          	srl	a3,s0,a3
    659e:	cf81                	beqz	a5,65b6 <__muldf3+0x446>
    65a0:	00f4f793          	andi	a5,s1,15
    65a4:	4611                	li	a2,4
    65a6:	00c78863          	beq	a5,a2,65b6 <__muldf3+0x446>
    65aa:	00448793          	addi	a5,s1,4
    65ae:	0097b4b3          	sltu	s1,a5,s1
    65b2:	96a6                	add	a3,a3,s1
    65b4:	84be                	mv	s1,a5
    65b6:	00869793          	slli	a5,a3,0x8
    65ba:	0407d863          	bgez	a5,660a <__muldf3+0x49a>
    65be:	4785                	li	a5,1
    65c0:	4401                	li	s0,0
    65c2:	4481                	li	s1,0
    65c4:	b159                	j	624a <__muldf3+0xda>
    65c6:	03800613          	li	a2,56
    65ca:	ccd641e3          	blt	a2,a3,628c <__muldf3+0x11c>
    65ce:	467d                	li	a2,31
    65d0:	fad656e3          	bge	a2,a3,657c <__muldf3+0x40c>
    65d4:	5605                	li	a2,-31
    65d6:	40f607b3          	sub	a5,a2,a5
    65da:	02000593          	li	a1,32
    65de:	00f45633          	srl	a2,s0,a5
    65e2:	00b68763          	beq	a3,a1,65f0 <__muldf3+0x480>
    65e6:	43e90913          	addi	s2,s2,1086
    65ea:	012417b3          	sll	a5,s0,s2
    65ee:	8cdd                	or	s1,s1,a5
    65f0:	009034b3          	snez	s1,s1
    65f4:	8cd1                	or	s1,s1,a2
    65f6:	0074f693          	andi	a3,s1,7
    65fa:	4401                	li	s0,0
    65fc:	ca99                	beqz	a3,6612 <__muldf3+0x4a2>
    65fe:	00f4f793          	andi	a5,s1,15
    6602:	4611                	li	a2,4
    6604:	4681                	li	a3,0
    6606:	fac792e3          	bne	a5,a2,65aa <__muldf3+0x43a>
    660a:	00969413          	slli	s0,a3,0x9
    660e:	8031                	srli	s0,s0,0xc
    6610:	06f6                	slli	a3,a3,0x1d
    6612:	808d                	srli	s1,s1,0x3
    6614:	8cd5                	or	s1,s1,a3
    6616:	4781                	li	a5,0
    6618:	b90d                	j	624a <__muldf3+0xda>
    661a:	7ff00793          	li	a5,2047
    661e:	4401                	li	s0,0
    6620:	4481                	li	s1,0
    6622:	b125                	j	624a <__muldf3+0xda>
    6624:	8942                	mv	s2,a6
    6626:	bd6d                	j	64e0 <__muldf3+0x370>

00006628 <__subdf3>:
__subdf3():
    6628:	00100737          	lui	a4,0x100
    662c:	177d                	addi	a4,a4,-1
    662e:	1101                	addi	sp,sp,-32
    6630:	00b77333          	and	t1,a4,a1
    6634:	0146d893          	srli	a7,a3,0x14
    6638:	8f75                	and	a4,a4,a3
    663a:	01d65e93          	srli	t4,a2,0x1d
    663e:	cc22                	sw	s0,24(sp)
    6640:	ca26                	sw	s1,20(sp)
    6642:	030e                	slli	t1,t1,0x3
    6644:	0145d493          	srli	s1,a1,0x14
    6648:	01d55793          	srli	a5,a0,0x1d
    664c:	070e                	slli	a4,a4,0x3
    664e:	ce06                	sw	ra,28(sp)
    6650:	c84a                	sw	s2,16(sp)
    6652:	c64e                	sw	s3,12(sp)
    6654:	7ff8f893          	andi	a7,a7,2047
    6658:	7ff00e13          	li	t3,2047
    665c:	00eee733          	or	a4,t4,a4
    6660:	7ff4f493          	andi	s1,s1,2047
    6664:	01f5d413          	srli	s0,a1,0x1f
    6668:	0067e333          	or	t1,a5,t1
    666c:	00351f13          	slli	t5,a0,0x3
    6670:	82fd                	srli	a3,a3,0x1f
    6672:	00361e93          	slli	t4,a2,0x3
    6676:	17c88f63          	beq	a7,t3,67f4 <__subdf3+0x1cc>
    667a:	0016c693          	xori	a3,a3,1
    667e:	411485b3          	sub	a1,s1,a7
    6682:	12d40463          	beq	s0,a3,67aa <__subdf3+0x182>
    6686:	18b05063          	blez	a1,6806 <__subdf3+0x1de>
    668a:	1a088a63          	beqz	a7,683e <__subdf3+0x216>
    668e:	008007b7          	lui	a5,0x800
    6692:	8f5d                	or	a4,a4,a5
    6694:	57c48f63          	beq	s1,t3,6c12 <__subdf3+0x5ea>
    6698:	03800793          	li	a5,56
    669c:	34b7c263          	blt	a5,a1,69e0 <__subdf3+0x3b8>
    66a0:	47fd                	li	a5,31
    66a2:	48b7c363          	blt	a5,a1,6b28 <__subdf3+0x500>
    66a6:	02000793          	li	a5,32
    66aa:	8f8d                	sub	a5,a5,a1
    66ac:	00bed9b3          	srl	s3,t4,a1
    66b0:	00f71833          	sll	a6,a4,a5
    66b4:	00fe9eb3          	sll	t4,t4,a5
    66b8:	01386833          	or	a6,a6,s3
    66bc:	00b75733          	srl	a4,a4,a1
    66c0:	01d039b3          	snez	s3,t4
    66c4:	01386833          	or	a6,a6,s3
    66c8:	40e30333          	sub	t1,t1,a4
    66cc:	410f09b3          	sub	s3,t5,a6
    66d0:	013f37b3          	sltu	a5,t5,s3
    66d4:	40f30633          	sub	a2,t1,a5
    66d8:	00861793          	slli	a5,a2,0x8
    66dc:	2407d263          	bgez	a5,6920 <__subdf3+0x2f8>
    66e0:	00800937          	lui	s2,0x800
    66e4:	197d                	addi	s2,s2,-1
    66e6:	01267933          	and	s2,a2,s2
    66ea:	2c090e63          	beqz	s2,69c6 <__subdf3+0x39e>
    66ee:	854a                	mv	a0,s2
    66f0:	27a9                	jal	6e3a <__clzsi2>
    66f2:	ff850713          	addi	a4,a0,-8
    66f6:	02000793          	li	a5,32
    66fa:	8f99                	sub	a5,a5,a4
    66fc:	00f9d7b3          	srl	a5,s3,a5
    6700:	00e91633          	sll	a2,s2,a4
    6704:	8fd1                	or	a5,a5,a2
    6706:	00e999b3          	sll	s3,s3,a4
    670a:	2a974463          	blt	a4,s1,69b2 <__subdf3+0x38a>
    670e:	8f05                	sub	a4,a4,s1
    6710:	00170613          	addi	a2,a4,1 # 100001 <_data_lma+0xf591d>
    6714:	46fd                	li	a3,31
    6716:	3ac6c463          	blt	a3,a2,6abe <__subdf3+0x496>
    671a:	02000713          	li	a4,32
    671e:	8f11                	sub	a4,a4,a2
    6720:	00c9d6b3          	srl	a3,s3,a2
    6724:	00e99833          	sll	a6,s3,a4
    6728:	00e79733          	sll	a4,a5,a4
    672c:	8f55                	or	a4,a4,a3
    672e:	01003833          	snez	a6,a6
    6732:	010769b3          	or	s3,a4,a6
    6736:	00c7d633          	srl	a2,a5,a2
    673a:	4481                	li	s1,0
    673c:	0079f793          	andi	a5,s3,7
    6740:	cf81                	beqz	a5,6758 <__subdf3+0x130>
    6742:	00f9f693          	andi	a3,s3,15
    6746:	4791                	li	a5,4
    6748:	00f68863          	beq	a3,a5,6758 <__subdf3+0x130>
    674c:	00498693          	addi	a3,s3,4
    6750:	0136b833          	sltu	a6,a3,s3
    6754:	9642                	add	a2,a2,a6
    6756:	89b6                	mv	s3,a3
    6758:	00861793          	slli	a5,a2,0x8
    675c:	1c07d663          	bgez	a5,6928 <__subdf3+0x300>
    6760:	00148713          	addi	a4,s1,1
    6764:	7ff00793          	li	a5,2047
    6768:	8805                	andi	s0,s0,1
    676a:	20f70663          	beq	a4,a5,6976 <__subdf3+0x34e>
    676e:	ff8007b7          	lui	a5,0xff800
    6772:	17fd                	addi	a5,a5,-1
    6774:	8ff1                	and	a5,a5,a2
    6776:	01d79813          	slli	a6,a5,0x1d
    677a:	0039d993          	srli	s3,s3,0x3
    677e:	07a6                	slli	a5,a5,0x9
    6780:	01386833          	or	a6,a6,s3
    6784:	83b1                	srli	a5,a5,0xc
    6786:	7ff77713          	andi	a4,a4,2047
    678a:	00c79693          	slli	a3,a5,0xc
    678e:	0752                	slli	a4,a4,0x14
    6790:	82b1                	srli	a3,a3,0xc
    6792:	047e                	slli	s0,s0,0x1f
    6794:	8ed9                	or	a3,a3,a4
    6796:	8ec1                	or	a3,a3,s0
    6798:	40f2                	lw	ra,28(sp)
    679a:	4462                	lw	s0,24(sp)
    679c:	44d2                	lw	s1,20(sp)
    679e:	4942                	lw	s2,16(sp)
    67a0:	49b2                	lw	s3,12(sp)
    67a2:	8542                	mv	a0,a6
    67a4:	85b6                	mv	a1,a3
    67a6:	6105                	addi	sp,sp,32
    67a8:	8082                	ret
    67aa:	0ab05663          	blez	a1,6856 <__subdf3+0x22e>
    67ae:	12088a63          	beqz	a7,68e2 <__subdf3+0x2ba>
    67b2:	008007b7          	lui	a5,0x800
    67b6:	8f5d                	or	a4,a4,a5
    67b8:	2dc48663          	beq	s1,t3,6a84 <__subdf3+0x45c>
    67bc:	03800793          	li	a5,56
    67c0:	18b7c763          	blt	a5,a1,694e <__subdf3+0x326>
    67c4:	47fd                	li	a5,31
    67c6:	3cb7d163          	bge	a5,a1,6b88 <__subdf3+0x560>
    67ca:	fe058813          	addi	a6,a1,-32 # ffe0 <_data_lma+0x58fc>
    67ce:	02000793          	li	a5,32
    67d2:	010759b3          	srl	s3,a4,a6
    67d6:	00f58a63          	beq	a1,a5,67ea <__subdf3+0x1c2>
    67da:	04000793          	li	a5,64
    67de:	40b785b3          	sub	a1,a5,a1
    67e2:	00b71733          	sll	a4,a4,a1
    67e6:	00eeeeb3          	or	t4,t4,a4
    67ea:	01d03833          	snez	a6,t4
    67ee:	01386833          	or	a6,a6,s3
    67f2:	a295                	j	6956 <__subdf3+0x32e>
    67f4:	01d767b3          	or	a5,a4,t4
    67f8:	80148593          	addi	a1,s1,-2047
    67fc:	e399                	bnez	a5,6802 <__subdf3+0x1da>
    67fe:	0016c693          	xori	a3,a3,1
    6802:	04d40a63          	beq	s0,a3,6856 <__subdf3+0x22e>
    6806:	e1d1                	bnez	a1,688a <__subdf3+0x262>
    6808:	00148793          	addi	a5,s1,1
    680c:	7fe7f793          	andi	a5,a5,2046
    6810:	1e079863          	bnez	a5,6a00 <__subdf3+0x3d8>
    6814:	01e367b3          	or	a5,t1,t5
    6818:	01d76833          	or	a6,a4,t4
    681c:	16049263          	bnez	s1,6980 <__subdf3+0x358>
    6820:	3c078163          	beqz	a5,6be2 <__subdf3+0x5ba>
    6824:	42081563          	bnez	a6,6c4e <__subdf3+0x626>
    6828:	00351813          	slli	a6,a0,0x3
    682c:	01d31693          	slli	a3,t1,0x1d
    6830:	00385813          	srli	a6,a6,0x3
    6834:	0106e833          	or	a6,a3,a6
    6838:	00335793          	srli	a5,t1,0x3
    683c:	a219                	j	6942 <__subdf3+0x31a>
    683e:	01d767b3          	or	a5,a4,t4
    6842:	1a078463          	beqz	a5,69ea <__subdf3+0x3c2>
    6846:	fff58793          	addi	a5,a1,-1
    684a:	3a078a63          	beqz	a5,6bfe <__subdf3+0x5d6>
    684e:	23c58b63          	beq	a1,t3,6a84 <__subdf3+0x45c>
    6852:	85be                	mv	a1,a5
    6854:	b591                	j	6698 <__subdf3+0x70>
    6856:	1c059863          	bnez	a1,6a26 <__subdf3+0x3fe>
    685a:	00148693          	addi	a3,s1,1
    685e:	7fe6f793          	andi	a5,a3,2046
    6862:	efc1                	bnez	a5,68fa <__subdf3+0x2d2>
    6864:	01e367b3          	or	a5,t1,t5
    6868:	34049f63          	bnez	s1,6bc6 <__subdf3+0x59e>
    686c:	44078c63          	beqz	a5,6cc4 <__subdf3+0x69c>
    6870:	01d767b3          	or	a5,a4,t4
    6874:	46079363          	bnez	a5,6cda <__subdf3+0x6b2>
    6878:	050e                	slli	a0,a0,0x3
    687a:	01d31813          	slli	a6,t1,0x1d
    687e:	810d                	srli	a0,a0,0x3
    6880:	00a86833          	or	a6,a6,a0
    6884:	00335793          	srli	a5,t1,0x3
    6888:	a86d                	j	6942 <__subdf3+0x31a>
    688a:	409885b3          	sub	a1,a7,s1
    688e:	20049663          	bnez	s1,6a9a <__subdf3+0x472>
    6892:	01e367b3          	or	a5,t1,t5
    6896:	30078c63          	beqz	a5,6bae <__subdf3+0x586>
    689a:	fff58793          	addi	a5,a1,-1
    689e:	40078863          	beqz	a5,6cae <__subdf3+0x686>
    68a2:	7ff00513          	li	a0,2047
    68a6:	20a58263          	beq	a1,a0,6aaa <__subdf3+0x482>
    68aa:	85be                	mv	a1,a5
    68ac:	03800793          	li	a5,56
    68b0:	2ab7c163          	blt	a5,a1,6b52 <__subdf3+0x52a>
    68b4:	47fd                	li	a5,31
    68b6:	3cb7c763          	blt	a5,a1,6c84 <__subdf3+0x65c>
    68ba:	02000793          	li	a5,32
    68be:	8f8d                	sub	a5,a5,a1
    68c0:	00f31833          	sll	a6,t1,a5
    68c4:	00bf5633          	srl	a2,t5,a1
    68c8:	00ff17b3          	sll	a5,t5,a5
    68cc:	00c86833          	or	a6,a6,a2
    68d0:	00f039b3          	snez	s3,a5
    68d4:	00b35333          	srl	t1,t1,a1
    68d8:	01386833          	or	a6,a6,s3
    68dc:	40670733          	sub	a4,a4,t1
    68e0:	acad                	j	6b5a <__subdf3+0x532>
    68e2:	01d767b3          	or	a5,a4,t4
    68e6:	10078263          	beqz	a5,69ea <__subdf3+0x3c2>
    68ea:	fff58793          	addi	a5,a1,-1
    68ee:	1e078e63          	beqz	a5,6aea <__subdf3+0x4c2>
    68f2:	2dc58f63          	beq	a1,t3,6bd0 <__subdf3+0x5a8>
    68f6:	85be                	mv	a1,a5
    68f8:	b5d1                	j	67bc <__subdf3+0x194>
    68fa:	7ff00793          	li	a5,2047
    68fe:	06f68b63          	beq	a3,a5,6974 <__subdf3+0x34c>
    6902:	9efa                	add	t4,t4,t5
    6904:	01eeb633          	sltu	a2,t4,t5
    6908:	00e307b3          	add	a5,t1,a4
    690c:	97b2                	add	a5,a5,a2
    690e:	01f79813          	slli	a6,a5,0x1f
    6912:	001ede93          	srli	t4,t4,0x1
    6916:	01d869b3          	or	s3,a6,t4
    691a:	0017d613          	srli	a2,a5,0x1
    691e:	84b6                	mv	s1,a3
    6920:	0079f793          	andi	a5,s3,7
    6924:	e0079fe3          	bnez	a5,6742 <__subdf3+0x11a>
    6928:	01d61793          	slli	a5,a2,0x1d
    692c:	0039d813          	srli	a6,s3,0x3
    6930:	00f86833          	or	a6,a6,a5
    6934:	85a6                	mv	a1,s1
    6936:	00365793          	srli	a5,a2,0x3
    693a:	7ff00713          	li	a4,2047
    693e:	06e58063          	beq	a1,a4,699e <__subdf3+0x376>
    6942:	07b2                	slli	a5,a5,0xc
    6944:	83b1                	srli	a5,a5,0xc
    6946:	7ff5f713          	andi	a4,a1,2047
    694a:	8805                	andi	s0,s0,1
    694c:	bd3d                	j	678a <__subdf3+0x162>
    694e:	01d76733          	or	a4,a4,t4
    6952:	00e03833          	snez	a6,a4
    6956:	01e809b3          	add	s3,a6,t5
    695a:	01e9b7b3          	sltu	a5,s3,t5
    695e:	00678633          	add	a2,a5,t1
    6962:	00861793          	slli	a5,a2,0x8
    6966:	fa07dde3          	bgez	a5,6920 <__subdf3+0x2f8>
    696a:	0485                	addi	s1,s1,1
    696c:	7ff00793          	li	a5,2047
    6970:	18f49b63          	bne	s1,a5,6b06 <__subdf3+0x4de>
    6974:	8805                	andi	s0,s0,1
    6976:	7ff00713          	li	a4,2047
    697a:	4781                	li	a5,0
    697c:	4801                	li	a6,0
    697e:	b531                	j	678a <__subdf3+0x162>
    6980:	10079063          	bnez	a5,6a80 <__subdf3+0x458>
    6984:	3c080063          	beqz	a6,6d44 <__subdf3+0x71c>
    6988:	00361813          	slli	a6,a2,0x3
    698c:	01d71793          	slli	a5,a4,0x1d
    6990:	00385813          	srli	a6,a6,0x3
    6994:	00f86833          	or	a6,a6,a5
    6998:	8436                	mv	s0,a3
    699a:	00375793          	srli	a5,a4,0x3
    699e:	00f867b3          	or	a5,a6,a5
    69a2:	dbe9                	beqz	a5,6974 <__subdf3+0x34c>
    69a4:	4401                	li	s0,0
    69a6:	7ff00713          	li	a4,2047
    69aa:	000807b7          	lui	a5,0x80
    69ae:	4801                	li	a6,0
    69b0:	bbe9                	j	678a <__subdf3+0x162>
    69b2:	ff800637          	lui	a2,0xff800
    69b6:	167d                	addi	a2,a2,-1
    69b8:	8e7d                	and	a2,a2,a5
    69ba:	0079f793          	andi	a5,s3,7
    69be:	8c99                	sub	s1,s1,a4
    69c0:	d80791e3          	bnez	a5,6742 <__subdf3+0x11a>
    69c4:	b795                	j	6928 <__subdf3+0x300>
    69c6:	854e                	mv	a0,s3
    69c8:	298d                	jal	6e3a <__clzsi2>
    69ca:	01850713          	addi	a4,a0,24
    69ce:	47fd                	li	a5,31
    69d0:	d2e7d3e3          	bge	a5,a4,66f6 <__subdf3+0xce>
    69d4:	ff850613          	addi	a2,a0,-8
    69d8:	00c997b3          	sll	a5,s3,a2
    69dc:	4981                	li	s3,0
    69de:	b335                	j	670a <__subdf3+0xe2>
    69e0:	01d76833          	or	a6,a4,t4
    69e4:	01003833          	snez	a6,a6
    69e8:	b1d5                	j	66cc <__subdf3+0xa4>
    69ea:	00351813          	slli	a6,a0,0x3
    69ee:	01d31793          	slli	a5,t1,0x1d
    69f2:	00385813          	srli	a6,a6,0x3
    69f6:	00f86833          	or	a6,a6,a5
    69fa:	00335793          	srli	a5,t1,0x3
    69fe:	bf35                	j	693a <__subdf3+0x312>
    6a00:	41df09b3          	sub	s3,t5,t4
    6a04:	40e30933          	sub	s2,t1,a4
    6a08:	013f3633          	sltu	a2,t5,s3
    6a0c:	40c90933          	sub	s2,s2,a2
    6a10:	00891793          	slli	a5,s2,0x8
    6a14:	2007ca63          	bltz	a5,6c28 <__subdf3+0x600>
    6a18:	0129e833          	or	a6,s3,s2
    6a1c:	cc0817e3          	bnez	a6,66ea <__subdf3+0xc2>
    6a20:	4781                	li	a5,0
    6a22:	4401                	li	s0,0
    6a24:	bf39                	j	6942 <__subdf3+0x31a>
    6a26:	409885b3          	sub	a1,a7,s1
    6a2a:	14048163          	beqz	s1,6b6c <__subdf3+0x544>
    6a2e:	008006b7          	lui	a3,0x800
    6a32:	7ff00793          	li	a5,2047
    6a36:	00d36333          	or	t1,t1,a3
    6a3a:	20f88163          	beq	a7,a5,6c3c <__subdf3+0x614>
    6a3e:	03800793          	li	a5,56
    6a42:	22b7cc63          	blt	a5,a1,6c7a <__subdf3+0x652>
    6a46:	47fd                	li	a5,31
    6a48:	2cb7c963          	blt	a5,a1,6d1a <__subdf3+0x6f2>
    6a4c:	02000793          	li	a5,32
    6a50:	8f8d                	sub	a5,a5,a1
    6a52:	00f31833          	sll	a6,t1,a5
    6a56:	00bf56b3          	srl	a3,t5,a1
    6a5a:	00ff17b3          	sll	a5,t5,a5
    6a5e:	00d86833          	or	a6,a6,a3
    6a62:	00f039b3          	snez	s3,a5
    6a66:	00b35333          	srl	t1,t1,a1
    6a6a:	01386833          	or	a6,a6,s3
    6a6e:	971a                	add	a4,a4,t1
    6a70:	01d809b3          	add	s3,a6,t4
    6a74:	01d9b7b3          	sltu	a5,s3,t4
    6a78:	00e78633          	add	a2,a5,a4
    6a7c:	84c6                	mv	s1,a7
    6a7e:	b5d5                	j	6962 <__subdf3+0x33a>
    6a80:	f20812e3          	bnez	a6,69a4 <__subdf3+0x37c>
    6a84:	00351813          	slli	a6,a0,0x3
    6a88:	01d31793          	slli	a5,t1,0x1d
    6a8c:	00385813          	srli	a6,a6,0x3
    6a90:	00f86833          	or	a6,a6,a5
    6a94:	00335793          	srli	a5,t1,0x3
    6a98:	b719                	j	699e <__subdf3+0x376>
    6a9a:	00800537          	lui	a0,0x800
    6a9e:	7ff00793          	li	a5,2047
    6aa2:	00a36333          	or	t1,t1,a0
    6aa6:	e0f893e3          	bne	a7,a5,68ac <__subdf3+0x284>
    6aaa:	060e                	slli	a2,a2,0x3
    6aac:	01d71813          	slli	a6,a4,0x1d
    6ab0:	820d                	srli	a2,a2,0x3
    6ab2:	00c86833          	or	a6,a6,a2
    6ab6:	00375793          	srli	a5,a4,0x3
    6aba:	8436                	mv	s0,a3
    6abc:	b5cd                	j	699e <__subdf3+0x376>
    6abe:	1705                	addi	a4,a4,-31
    6ac0:	02000693          	li	a3,32
    6ac4:	00e7d733          	srl	a4,a5,a4
    6ac8:	00d60a63          	beq	a2,a3,6adc <__subdf3+0x4b4>
    6acc:	04000693          	li	a3,64
    6ad0:	40c68633          	sub	a2,a3,a2
    6ad4:	00c79633          	sll	a2,a5,a2
    6ad8:	00c9e9b3          	or	s3,s3,a2
    6adc:	01303833          	snez	a6,s3
    6ae0:	00e869b3          	or	s3,a6,a4
    6ae4:	4601                	li	a2,0
    6ae6:	4481                	li	s1,0
    6ae8:	bd25                	j	6920 <__subdf3+0x2f8>
    6aea:	01df09b3          	add	s3,t5,t4
    6aee:	00e307b3          	add	a5,t1,a4
    6af2:	01e9bf33          	sltu	t5,s3,t5
    6af6:	01e78633          	add	a2,a5,t5
    6afa:	00861793          	slli	a5,a2,0x8
    6afe:	4485                	li	s1,1
    6b00:	e207d0e3          	bgez	a5,6920 <__subdf3+0x2f8>
    6b04:	4489                	li	s1,2
    6b06:	ff8007b7          	lui	a5,0xff800
    6b0a:	17fd                	addi	a5,a5,-1
    6b0c:	8ff1                	and	a5,a5,a2
    6b0e:	0019d713          	srli	a4,s3,0x1
    6b12:	0019f813          	andi	a6,s3,1
    6b16:	01076833          	or	a6,a4,a6
    6b1a:	01f79993          	slli	s3,a5,0x1f
    6b1e:	0109e9b3          	or	s3,s3,a6
    6b22:	0017d613          	srli	a2,a5,0x1
    6b26:	b919                	j	673c <__subdf3+0x114>
    6b28:	fe058813          	addi	a6,a1,-32
    6b2c:	02000793          	li	a5,32
    6b30:	010759b3          	srl	s3,a4,a6
    6b34:	00f58a63          	beq	a1,a5,6b48 <__subdf3+0x520>
    6b38:	04000793          	li	a5,64
    6b3c:	40b785b3          	sub	a1,a5,a1
    6b40:	00b71733          	sll	a4,a4,a1
    6b44:	00eeeeb3          	or	t4,t4,a4
    6b48:	01d03833          	snez	a6,t4
    6b4c:	01386833          	or	a6,a6,s3
    6b50:	beb5                	j	66cc <__subdf3+0xa4>
    6b52:	01e36333          	or	t1,t1,t5
    6b56:	00603833          	snez	a6,t1
    6b5a:	410e89b3          	sub	s3,t4,a6
    6b5e:	013eb7b3          	sltu	a5,t4,s3
    6b62:	40f70633          	sub	a2,a4,a5
    6b66:	84c6                	mv	s1,a7
    6b68:	8436                	mv	s0,a3
    6b6a:	b6bd                	j	66d8 <__subdf3+0xb0>
    6b6c:	01e367b3          	or	a5,t1,t5
    6b70:	18078763          	beqz	a5,6cfe <__subdf3+0x6d6>
    6b74:	fff58793          	addi	a5,a1,-1
    6b78:	1c078c63          	beqz	a5,6d50 <__subdf3+0x728>
    6b7c:	7ff00693          	li	a3,2047
    6b80:	0ad58e63          	beq	a1,a3,6c3c <__subdf3+0x614>
    6b84:	85be                	mv	a1,a5
    6b86:	bd65                	j	6a3e <__subdf3+0x416>
    6b88:	02000793          	li	a5,32
    6b8c:	8f8d                	sub	a5,a5,a1
    6b8e:	00bed9b3          	srl	s3,t4,a1
    6b92:	00f71833          	sll	a6,a4,a5
    6b96:	00fe9eb3          	sll	t4,t4,a5
    6b9a:	01386833          	or	a6,a6,s3
    6b9e:	00b75733          	srl	a4,a4,a1
    6ba2:	01d039b3          	snez	s3,t4
    6ba6:	01386833          	or	a6,a6,s3
    6baa:	933a                	add	t1,t1,a4
    6bac:	b36d                	j	6956 <__subdf3+0x32e>
    6bae:	00361813          	slli	a6,a2,0x3
    6bb2:	01d71793          	slli	a5,a4,0x1d
    6bb6:	00385813          	srli	a6,a6,0x3
    6bba:	0107e833          	or	a6,a5,a6
    6bbe:	8436                	mv	s0,a3
    6bc0:	00375793          	srli	a5,a4,0x3
    6bc4:	bb9d                	j	693a <__subdf3+0x312>
    6bc6:	cbbd                	beqz	a5,6c3c <__subdf3+0x614>
    6bc8:	01d76733          	or	a4,a4,t4
    6bcc:	dc071ce3          	bnez	a4,69a4 <__subdf3+0x37c>
    6bd0:	050e                	slli	a0,a0,0x3
    6bd2:	01d31813          	slli	a6,t1,0x1d
    6bd6:	810d                	srli	a0,a0,0x3
    6bd8:	00a86833          	or	a6,a6,a0
    6bdc:	00335793          	srli	a5,t1,0x3
    6be0:	bb7d                	j	699e <__subdf3+0x376>
    6be2:	e2080fe3          	beqz	a6,6a20 <__subdf3+0x3f8>
    6be6:	00361813          	slli	a6,a2,0x3
    6bea:	01d71793          	slli	a5,a4,0x1d
    6bee:	00385813          	srli	a6,a6,0x3
    6bf2:	00f86833          	or	a6,a6,a5
    6bf6:	8436                	mv	s0,a3
    6bf8:	00375793          	srli	a5,a4,0x3
    6bfc:	b399                	j	6942 <__subdf3+0x31a>
    6bfe:	41df09b3          	sub	s3,t5,t4
    6c02:	40e307b3          	sub	a5,t1,a4
    6c06:	013f3f33          	sltu	t5,t5,s3
    6c0a:	41e78633          	sub	a2,a5,t5
    6c0e:	4485                	li	s1,1
    6c10:	b4e1                	j	66d8 <__subdf3+0xb0>
    6c12:	00351813          	slli	a6,a0,0x3
    6c16:	01d31693          	slli	a3,t1,0x1d
    6c1a:	00385813          	srli	a6,a6,0x3
    6c1e:	0106e833          	or	a6,a3,a6
    6c22:	00335793          	srli	a5,t1,0x3
    6c26:	bba5                	j	699e <__subdf3+0x376>
    6c28:	41ee89b3          	sub	s3,t4,t5
    6c2c:	40670633          	sub	a2,a4,t1
    6c30:	013eb933          	sltu	s2,t4,s3
    6c34:	41260933          	sub	s2,a2,s2
    6c38:	8436                	mv	s0,a3
    6c3a:	bc45                	j	66ea <__subdf3+0xc2>
    6c3c:	060e                	slli	a2,a2,0x3
    6c3e:	01d71813          	slli	a6,a4,0x1d
    6c42:	820d                	srli	a2,a2,0x3
    6c44:	00c86833          	or	a6,a6,a2
    6c48:	00375793          	srli	a5,a4,0x3
    6c4c:	bb89                	j	699e <__subdf3+0x376>
    6c4e:	41df09b3          	sub	s3,t5,t4
    6c52:	40e307b3          	sub	a5,t1,a4
    6c56:	013f3633          	sltu	a2,t5,s3
    6c5a:	40c78633          	sub	a2,a5,a2
    6c5e:	00861793          	slli	a5,a2,0x8
    6c62:	0a07d763          	bgez	a5,6d10 <__subdf3+0x6e8>
    6c66:	41ee89b3          	sub	s3,t4,t5
    6c6a:	406707b3          	sub	a5,a4,t1
    6c6e:	013ebeb3          	sltu	t4,t4,s3
    6c72:	41d78633          	sub	a2,a5,t4
    6c76:	8436                	mv	s0,a3
    6c78:	b4d1                	j	673c <__subdf3+0x114>
    6c7a:	01e36333          	or	t1,t1,t5
    6c7e:	00603833          	snez	a6,t1
    6c82:	b3fd                	j	6a70 <__subdf3+0x448>
    6c84:	fe058813          	addi	a6,a1,-32
    6c88:	02000793          	li	a5,32
    6c8c:	010359b3          	srl	s3,t1,a6
    6c90:	00f58a63          	beq	a1,a5,6ca4 <__subdf3+0x67c>
    6c94:	04000793          	li	a5,64
    6c98:	40b785b3          	sub	a1,a5,a1
    6c9c:	00b31333          	sll	t1,t1,a1
    6ca0:	006f6f33          	or	t5,t5,t1
    6ca4:	01e03833          	snez	a6,t5
    6ca8:	01386833          	or	a6,a6,s3
    6cac:	b57d                	j	6b5a <__subdf3+0x532>
    6cae:	41ee89b3          	sub	s3,t4,t5
    6cb2:	406707b3          	sub	a5,a4,t1
    6cb6:	013ebeb3          	sltu	t4,t4,s3
    6cba:	41d78633          	sub	a2,a5,t4
    6cbe:	8436                	mv	s0,a3
    6cc0:	4485                	li	s1,1
    6cc2:	bc19                	j	66d8 <__subdf3+0xb0>
    6cc4:	00361813          	slli	a6,a2,0x3
    6cc8:	01d71793          	slli	a5,a4,0x1d
    6ccc:	00385813          	srli	a6,a6,0x3
    6cd0:	00f86833          	or	a6,a6,a5
    6cd4:	00375793          	srli	a5,a4,0x3
    6cd8:	b1ad                	j	6942 <__subdf3+0x31a>
    6cda:	01df09b3          	add	s3,t5,t4
    6cde:	00e307b3          	add	a5,t1,a4
    6ce2:	01e9bf33          	sltu	t5,s3,t5
    6ce6:	01e78633          	add	a2,a5,t5
    6cea:	00861793          	slli	a5,a2,0x8
    6cee:	c207d9e3          	bgez	a5,6920 <__subdf3+0x2f8>
    6cf2:	ff8007b7          	lui	a5,0xff800
    6cf6:	17fd                	addi	a5,a5,-1
    6cf8:	8e7d                	and	a2,a2,a5
    6cfa:	4485                	li	s1,1
    6cfc:	b115                	j	6920 <__subdf3+0x2f8>
    6cfe:	060e                	slli	a2,a2,0x3
    6d00:	01d71813          	slli	a6,a4,0x1d
    6d04:	820d                	srli	a2,a2,0x3
    6d06:	00c86833          	or	a6,a6,a2
    6d0a:	00375793          	srli	a5,a4,0x3
    6d0e:	b135                	j	693a <__subdf3+0x312>
    6d10:	00c9e833          	or	a6,s3,a2
    6d14:	d00806e3          	beqz	a6,6a20 <__subdf3+0x3f8>
    6d18:	b121                	j	6920 <__subdf3+0x2f8>
    6d1a:	fe058813          	addi	a6,a1,-32
    6d1e:	02000793          	li	a5,32
    6d22:	010359b3          	srl	s3,t1,a6
    6d26:	00f58a63          	beq	a1,a5,6d3a <__subdf3+0x712>
    6d2a:	04000793          	li	a5,64
    6d2e:	40b785b3          	sub	a1,a5,a1
    6d32:	00b31333          	sll	t1,t1,a1
    6d36:	006f6f33          	or	t5,t5,t1
    6d3a:	01e03833          	snez	a6,t5
    6d3e:	01386833          	or	a6,a6,s3
    6d42:	b33d                	j	6a70 <__subdf3+0x448>
    6d44:	4401                	li	s0,0
    6d46:	7ff00713          	li	a4,2047
    6d4a:	000807b7          	lui	a5,0x80
    6d4e:	bc35                	j	678a <__subdf3+0x162>
    6d50:	01df09b3          	add	s3,t5,t4
    6d54:	00e307b3          	add	a5,t1,a4
    6d58:	01d9beb3          	sltu	t4,s3,t4
    6d5c:	01d78633          	add	a2,a5,t4
    6d60:	bb69                	j	6afa <__subdf3+0x4d2>

00006d62 <__fixdfsi>:
__fixdfsi():
    6d62:	0145d793          	srli	a5,a1,0x14
    6d66:	001006b7          	lui	a3,0x100
    6d6a:	fff68713          	addi	a4,a3,-1 # fffff <_data_lma+0xf591b>
    6d6e:	7ff7f793          	andi	a5,a5,2047
    6d72:	3fe00613          	li	a2,1022
    6d76:	8f6d                	and	a4,a4,a1
    6d78:	81fd                	srli	a1,a1,0x1f
    6d7a:	00f65c63          	bge	a2,a5,6d92 <__fixdfsi+0x30>
    6d7e:	41d00613          	li	a2,1053
    6d82:	00f65a63          	bge	a2,a5,6d96 <__fixdfsi+0x34>
    6d86:	80000537          	lui	a0,0x80000
    6d8a:	fff54513          	not	a0,a0
    6d8e:	952e                	add	a0,a0,a1
    6d90:	8082                	ret
    6d92:	4501                	li	a0,0
    6d94:	8082                	ret
    6d96:	43300613          	li	a2,1075
    6d9a:	8e1d                	sub	a2,a2,a5
    6d9c:	487d                	li	a6,31
    6d9e:	8f55                	or	a4,a4,a3
    6da0:	00c85d63          	bge	a6,a2,6dba <__fixdfsi+0x58>
    6da4:	41300693          	li	a3,1043
    6da8:	40f687b3          	sub	a5,a3,a5
    6dac:	00f757b3          	srl	a5,a4,a5
    6db0:	40f00533          	neg	a0,a5
    6db4:	f1e5                	bnez	a1,6d94 <__fixdfsi+0x32>
    6db6:	853e                	mv	a0,a5
    6db8:	8082                	ret
    6dba:	bed78793          	addi	a5,a5,-1043 # 7fbed <_data_lma+0x75509>
    6dbe:	00f717b3          	sll	a5,a4,a5
    6dc2:	00c55533          	srl	a0,a0,a2
    6dc6:	8fc9                	or	a5,a5,a0
    6dc8:	b7e5                	j	6db0 <__fixdfsi+0x4e>

00006dca <__floatsidf>:
__floatsidf():
    6dca:	1141                	addi	sp,sp,-16
    6dcc:	c606                	sw	ra,12(sp)
    6dce:	c422                	sw	s0,8(sp)
    6dd0:	c226                	sw	s1,4(sp)
    6dd2:	cd05                	beqz	a0,6e0a <__floatsidf+0x40>
    6dd4:	41f55793          	srai	a5,a0,0x1f
    6dd8:	00a7c4b3          	xor	s1,a5,a0
    6ddc:	8c9d                	sub	s1,s1,a5
    6dde:	842a                	mv	s0,a0
    6de0:	8526                	mv	a0,s1
    6de2:	28a1                	jal	6e3a <__clzsi2>
    6de4:	41e00693          	li	a3,1054
    6de8:	8e89                	sub	a3,a3,a0
    6dea:	47a9                	li	a5,10
    6dec:	807d                	srli	s0,s0,0x1f
    6dee:	7ff6f693          	andi	a3,a3,2047
    6df2:	02a7cd63          	blt	a5,a0,6e2c <__floatsidf+0x62>
    6df6:	472d                	li	a4,11
    6df8:	8f09                	sub	a4,a4,a0
    6dfa:	00e4d7b3          	srl	a5,s1,a4
    6dfe:	0555                	addi	a0,a0,21
    6e00:	07b2                	slli	a5,a5,0xc
    6e02:	00a494b3          	sll	s1,s1,a0
    6e06:	83b1                	srli	a5,a5,0xc
    6e08:	a029                	j	6e12 <__floatsidf+0x48>
    6e0a:	4401                	li	s0,0
    6e0c:	4681                	li	a3,0
    6e0e:	4781                	li	a5,0
    6e10:	4481                	li	s1,0
    6e12:	07b2                	slli	a5,a5,0xc
    6e14:	06d2                	slli	a3,a3,0x14
    6e16:	83b1                	srli	a5,a5,0xc
    6e18:	047e                	slli	s0,s0,0x1f
    6e1a:	8fd5                	or	a5,a5,a3
    6e1c:	8fc1                	or	a5,a5,s0
    6e1e:	40b2                	lw	ra,12(sp)
    6e20:	4422                	lw	s0,8(sp)
    6e22:	8526                	mv	a0,s1
    6e24:	85be                	mv	a1,a5
    6e26:	4492                	lw	s1,4(sp)
    6e28:	0141                	addi	sp,sp,16
    6e2a:	8082                	ret
    6e2c:	1555                	addi	a0,a0,-11
    6e2e:	00a497b3          	sll	a5,s1,a0
    6e32:	07b2                	slli	a5,a5,0xc
    6e34:	83b1                	srli	a5,a5,0xc
    6e36:	4481                	li	s1,0
    6e38:	bfe9                	j	6e12 <__floatsidf+0x48>

00006e3a <__clzsi2>:
__clzsi2():
    6e3a:	67c1                	lui	a5,0x10
    6e3c:	02f57e63          	bgeu	a0,a5,6e78 <__clzsi2+0x3e>
    6e40:	0ff00793          	li	a5,255
    6e44:	02000713          	li	a4,32
    6e48:	00a7ec63          	bltu	a5,a0,6e60 <__clzsi2+0x26>
    6e4c:	00003797          	auipc	a5,0x3
    6e50:	47478793          	addi	a5,a5,1140 # a2c0 <__clz_tab>
    6e54:	97aa                	add	a5,a5,a0
    6e56:	0007c503          	lbu	a0,0(a5)
    6e5a:	40a70533          	sub	a0,a4,a0
    6e5e:	8082                	ret
    6e60:	8121                	srli	a0,a0,0x8
    6e62:	00003797          	auipc	a5,0x3
    6e66:	45e78793          	addi	a5,a5,1118 # a2c0 <__clz_tab>
    6e6a:	97aa                	add	a5,a5,a0
    6e6c:	0007c503          	lbu	a0,0(a5)
    6e70:	4761                	li	a4,24
    6e72:	40a70533          	sub	a0,a4,a0
    6e76:	8082                	ret
    6e78:	010007b7          	lui	a5,0x1000
    6e7c:	00f56e63          	bltu	a0,a5,6e98 <__clzsi2+0x5e>
    6e80:	8161                	srli	a0,a0,0x18
    6e82:	00003797          	auipc	a5,0x3
    6e86:	43e78793          	addi	a5,a5,1086 # a2c0 <__clz_tab>
    6e8a:	97aa                	add	a5,a5,a0
    6e8c:	0007c503          	lbu	a0,0(a5)
    6e90:	4721                	li	a4,8
    6e92:	40a70533          	sub	a0,a4,a0
    6e96:	8082                	ret
    6e98:	8141                	srli	a0,a0,0x10
    6e9a:	00003797          	auipc	a5,0x3
    6e9e:	42678793          	addi	a5,a5,1062 # a2c0 <__clz_tab>
    6ea2:	97aa                	add	a5,a5,a0
    6ea4:	0007c503          	lbu	a0,0(a5)
    6ea8:	4741                	li	a4,16
    6eaa:	40a70533          	sub	a0,a4,a0
    6eae:	8082                	ret

00006eb0 <memcpy>:
memcpy():
    6eb0:	00a5c7b3          	xor	a5,a1,a0
    6eb4:	8b8d                	andi	a5,a5,3
    6eb6:	00c50733          	add	a4,a0,a2
    6eba:	e781                	bnez	a5,6ec2 <memcpy+0x12>
    6ebc:	478d                	li	a5,3
    6ebe:	00c7ee63          	bltu	a5,a2,6eda <memcpy+0x2a>
    6ec2:	87aa                	mv	a5,a0
    6ec4:	0ae57063          	bgeu	a0,a4,6f64 <memcpy+0xb4>
    6ec8:	0005c683          	lbu	a3,0(a1)
    6ecc:	0785                	addi	a5,a5,1
    6ece:	0585                	addi	a1,a1,1
    6ed0:	fed78fa3          	sb	a3,-1(a5)
    6ed4:	fee7eae3          	bltu	a5,a4,6ec8 <memcpy+0x18>
    6ed8:	8082                	ret
    6eda:	00357693          	andi	a3,a0,3
    6ede:	87aa                	mv	a5,a0
    6ee0:	ca91                	beqz	a3,6ef4 <memcpy+0x44>
    6ee2:	0005c683          	lbu	a3,0(a1)
    6ee6:	0785                	addi	a5,a5,1
    6ee8:	0585                	addi	a1,a1,1
    6eea:	fed78fa3          	sb	a3,-1(a5)
    6eee:	0037f693          	andi	a3,a5,3
    6ef2:	b7fd                	j	6ee0 <memcpy+0x30>
    6ef4:	ffc77693          	andi	a3,a4,-4
    6ef8:	fe068613          	addi	a2,a3,-32
    6efc:	06c7f063          	bgeu	a5,a2,6f5c <memcpy+0xac>
    6f00:	0005a383          	lw	t2,0(a1)
    6f04:	0045a283          	lw	t0,4(a1)
    6f08:	0085af83          	lw	t6,8(a1)
    6f0c:	00c5af03          	lw	t5,12(a1)
    6f10:	0105ae83          	lw	t4,16(a1)
    6f14:	0145ae03          	lw	t3,20(a1)
    6f18:	0185a303          	lw	t1,24(a1)
    6f1c:	01c5a883          	lw	a7,28(a1)
    6f20:	02458593          	addi	a1,a1,36
    6f24:	0077a023          	sw	t2,0(a5)
    6f28:	ffc5a803          	lw	a6,-4(a1)
    6f2c:	0057a223          	sw	t0,4(a5)
    6f30:	01f7a423          	sw	t6,8(a5)
    6f34:	01e7a623          	sw	t5,12(a5)
    6f38:	01d7a823          	sw	t4,16(a5)
    6f3c:	01c7aa23          	sw	t3,20(a5)
    6f40:	0067ac23          	sw	t1,24(a5)
    6f44:	0117ae23          	sw	a7,28(a5)
    6f48:	02478793          	addi	a5,a5,36
    6f4c:	ff07ae23          	sw	a6,-4(a5)
    6f50:	b775                	j	6efc <memcpy+0x4c>
    6f52:	4190                	lw	a2,0(a1)
    6f54:	0791                	addi	a5,a5,4
    6f56:	0591                	addi	a1,a1,4
    6f58:	fec7ae23          	sw	a2,-4(a5)
    6f5c:	fed7ebe3          	bltu	a5,a3,6f52 <memcpy+0xa2>
    6f60:	f6e7e4e3          	bltu	a5,a4,6ec8 <memcpy+0x18>
    6f64:	8082                	ret

00006f66 <__cvt>:
__cvt():
    6f66:	7179                	addi	sp,sp,-48
    6f68:	d422                	sw	s0,40(sp)
    6f6a:	d04a                	sw	s2,32(sp)
    6f6c:	cc52                	sw	s4,24(sp)
    6f6e:	ca56                	sw	s5,20(sp)
    6f70:	c85a                	sw	s6,16(sp)
    6f72:	d606                	sw	ra,44(sp)
    6f74:	d226                	sw	s1,36(sp)
    6f76:	ce4e                	sw	s3,28(sp)
    6f78:	8a3a                	mv	s4,a4
    6f7a:	8aae                	mv	s5,a1
    6f7c:	8432                	mv	s0,a2
    6f7e:	8936                	mv	s2,a3
    6f80:	8b42                	mv	s6,a6
    6f82:	4701                	li	a4,0
    6f84:	00065863          	bgez	a2,6f94 <__cvt+0x2e>
    6f88:	80000737          	lui	a4,0x80000
    6f8c:	00c74433          	xor	s0,a4,a2
    6f90:	02d00713          	li	a4,45
    6f94:	00e78023          	sb	a4,0(a5)
    6f98:	fdf8f493          	andi	s1,a7,-33
    6f9c:	04600793          	li	a5,70
    6fa0:	468d                	li	a3,3
    6fa2:	00f48863          	beq	s1,a5,6fb2 <__cvt+0x4c>
    6fa6:	04500793          	li	a5,69
    6faa:	4689                	li	a3,2
    6fac:	00f49363          	bne	s1,a5,6fb2 <__cvt+0x4c>
    6fb0:	0905                	addi	s2,s2,1
    6fb2:	87da                	mv	a5,s6
    6fb4:	00c10893          	addi	a7,sp,12
    6fb8:	00810813          	addi	a6,sp,8
    6fbc:	874a                	mv	a4,s2
    6fbe:	85d6                	mv	a1,s5
    6fc0:	8622                	mv	a2,s0
    6fc2:	501000ef          	jal	ra,7cc2 <_dtoa_r>
    6fc6:	04700793          	li	a5,71
    6fca:	89aa                	mv	s3,a0
    6fcc:	00f49663          	bne	s1,a5,6fd8 <__cvt+0x72>
    6fd0:	001a7a13          	andi	s4,s4,1
    6fd4:	040a0a63          	beqz	s4,7028 <__cvt+0xc2>
    6fd8:	04600793          	li	a5,70
    6fdc:	01298a33          	add	s4,s3,s2
    6fe0:	02f49763          	bne	s1,a5,700e <__cvt+0xa8>
    6fe4:	0009c703          	lbu	a4,0(s3)
    6fe8:	03000793          	li	a5,48
    6fec:	00f71e63          	bne	a4,a5,7008 <__cvt+0xa2>
    6ff0:	4601                	li	a2,0
    6ff2:	4681                	li	a3,0
    6ff4:	8556                	mv	a0,s5
    6ff6:	85a2                	mv	a1,s0
    6ff8:	858ff0ef          	jal	ra,6050 <__eqdf2>
    6ffc:	c511                	beqz	a0,7008 <__cvt+0xa2>
    6ffe:	4785                	li	a5,1
    7000:	41278933          	sub	s2,a5,s2
    7004:	012b2023          	sw	s2,0(s6)
    7008:	000b2783          	lw	a5,0(s6)
    700c:	9a3e                	add	s4,s4,a5
    700e:	4601                	li	a2,0
    7010:	4681                	li	a3,0
    7012:	8556                	mv	a0,s5
    7014:	85a2                	mv	a1,s0
    7016:	83aff0ef          	jal	ra,6050 <__eqdf2>
    701a:	e111                	bnez	a0,701e <__cvt+0xb8>
    701c:	c652                	sw	s4,12(sp)
    701e:	03000713          	li	a4,48
    7022:	47b2                	lw	a5,12(sp)
    7024:	0347e263          	bltu	a5,s4,7048 <__cvt+0xe2>
    7028:	47b2                	lw	a5,12(sp)
    702a:	5742                	lw	a4,48(sp)
    702c:	50b2                	lw	ra,44(sp)
    702e:	5422                	lw	s0,40(sp)
    7030:	413787b3          	sub	a5,a5,s3
    7034:	c31c                	sw	a5,0(a4)
    7036:	854e                	mv	a0,s3
    7038:	5492                	lw	s1,36(sp)
    703a:	5902                	lw	s2,32(sp)
    703c:	49f2                	lw	s3,28(sp)
    703e:	4a62                	lw	s4,24(sp)
    7040:	4ad2                	lw	s5,20(sp)
    7042:	4b42                	lw	s6,16(sp)
    7044:	6145                	addi	sp,sp,48
    7046:	8082                	ret
    7048:	00178693          	addi	a3,a5,1
    704c:	c636                	sw	a3,12(sp)
    704e:	00e78023          	sb	a4,0(a5)
    7052:	bfc1                	j	7022 <__cvt+0xbc>

00007054 <__exponent>:
__exponent():
    7054:	00c50023          	sb	a2,0(a0) # 80000000 <_eusrstack+0x5fff0000>
    7058:	00250713          	addi	a4,a0,2
    705c:	02b00793          	li	a5,43
    7060:	0005d663          	bgez	a1,706c <__exponent+0x18>
    7064:	40b005b3          	neg	a1,a1
    7068:	02d00793          	li	a5,45
    706c:	00f500a3          	sb	a5,1(a0)
    7070:	47a5                	li	a5,9
    7072:	04b7da63          	bge	a5,a1,70c6 <__exponent+0x72>
    7076:	1141                	addi	sp,sp,-16
    7078:	00f10793          	addi	a5,sp,15
    707c:	88be                	mv	a7,a5
    707e:	4829                	li	a6,10
    7080:	06300313          	li	t1,99
    7084:	0305e6b3          	rem	a3,a1,a6
    7088:	fff78613          	addi	a2,a5,-1
    708c:	03068693          	addi	a3,a3,48
    7090:	fed78fa3          	sb	a3,-1(a5)
    7094:	0305c6b3          	div	a3,a1,a6
    7098:	00b34d63          	blt	t1,a1,70b2 <__exponent+0x5e>
    709c:	03068693          	addi	a3,a3,48
    70a0:	17f9                	addi	a5,a5,-2
    70a2:	fed60fa3          	sb	a3,-1(a2) # ff7fffff <_eusrstack+0xdf7effff>
    70a6:	0117e963          	bltu	a5,a7,70b8 <__exponent+0x64>
    70aa:	40a70533          	sub	a0,a4,a0
    70ae:	0141                	addi	sp,sp,16
    70b0:	8082                	ret
    70b2:	87b2                	mv	a5,a2
    70b4:	85b6                	mv	a1,a3
    70b6:	b7f9                	j	7084 <__exponent+0x30>
    70b8:	0785                	addi	a5,a5,1
    70ba:	fff7c683          	lbu	a3,-1(a5)
    70be:	0705                	addi	a4,a4,1
    70c0:	fed70fa3          	sb	a3,-1(a4) # 7fffffff <_eusrstack+0x5ffeffff>
    70c4:	b7cd                	j	70a6 <__exponent+0x52>
    70c6:	03000793          	li	a5,48
    70ca:	00450713          	addi	a4,a0,4
    70ce:	03058593          	addi	a1,a1,48
    70d2:	00f50123          	sb	a5,2(a0)
    70d6:	00b501a3          	sb	a1,3(a0)
    70da:	40a70533          	sub	a0,a4,a0
    70de:	8082                	ret

000070e0 <_printf_float>:
_printf_float():
    70e0:	7119                	addi	sp,sp,-128
    70e2:	ce3a                	sw	a4,28(sp)
    70e4:	de86                	sw	ra,124(sp)
    70e6:	dca2                	sw	s0,120(sp)
    70e8:	daa6                	sw	s1,116(sp)
    70ea:	842e                	mv	s0,a1
    70ec:	d8ca                	sw	s2,112(sp)
    70ee:	d6ce                	sw	s3,108(sp)
    70f0:	d4d2                	sw	s4,104(sp)
    70f2:	89b6                	mv	s3,a3
    70f4:	d0da                	sw	s6,96(sp)
    70f6:	cede                	sw	s7,92(sp)
    70f8:	cce2                	sw	s8,88(sp)
    70fa:	8932                	mv	s2,a2
    70fc:	d2d6                	sw	s5,100(sp)
    70fe:	cae6                	sw	s9,84(sp)
    7100:	c8ea                	sw	s10,80(sp)
    7102:	c6ee                	sw	s11,76(sp)
    7104:	84aa                	mv	s1,a0
    7106:	3b3010ef          	jal	ra,8cb8 <_localeconv_r>
    710a:	00052b83          	lw	s7,0(a0)
    710e:	855e                	mv	a0,s7
    7110:	08f000ef          	jal	ra,799e <strlen>
    7114:	00042b03          	lw	s6,0(s0) # 80000 <_data_lma+0x7591c>
    7118:	4772                	lw	a4,28(sp)
    711a:	dc02                	sw	zero,56(sp)
    711c:	100b7693          	andi	a3,s6,256
    7120:	8c2a                	mv	s8,a0
    7122:	01844a03          	lbu	s4,24(s0)
    7126:	431c                	lw	a5,0(a4)
    7128:	caf1                	beqz	a3,71fc <_printf_float+0x11c>
    712a:	00478693          	addi	a3,a5,4
    712e:	c314                	sw	a3,0(a4)
    7130:	439c                	lw	a5,0(a5)
    7132:	1008                	addi	a0,sp,32
    7134:	4398                	lw	a4,0(a5)
    7136:	d03a                	sw	a4,32(sp)
    7138:	43d8                	lw	a4,4(a5)
    713a:	d23a                	sw	a4,36(sp)
    713c:	4798                	lw	a4,8(a5)
    713e:	d43a                	sw	a4,40(sp)
    7140:	47dc                	lw	a5,12(a5)
    7142:	d63e                	sw	a5,44(sp)
    7144:	3df020ef          	jal	ra,9d22 <__trunctfdf2>
    7148:	c428                	sw	a0,72(s0)
    714a:	c46c                	sw	a1,76(s0)
    714c:	04c42c83          	lw	s9,76(s0)
    7150:	00003717          	auipc	a4,0x3
    7154:	27070713          	addi	a4,a4,624 # a3c0 <__clz_tab+0x100>
    7158:	04842a83          	lw	s5,72(s0)
    715c:	00072d03          	lw	s10,0(a4)
    7160:	00472d83          	lw	s11,4(a4)
    7164:	001c9793          	slli	a5,s9,0x1
    7168:	8385                	srli	a5,a5,0x1
    716a:	866a                	mv	a2,s10
    716c:	86ee                	mv	a3,s11
    716e:	8556                	mv	a0,s5
    7170:	85be                	mv	a1,a5
    7172:	ce3e                	sw	a5,28(sp)
    7174:	30b020ef          	jal	ra,9c7e <__unorddf2>
    7178:	ed41                	bnez	a0,7210 <_printf_float+0x130>
    717a:	47f2                	lw	a5,28(sp)
    717c:	866a                	mv	a2,s10
    717e:	86ee                	mv	a3,s11
    7180:	8556                	mv	a0,s5
    7182:	85be                	mv	a1,a5
    7184:	f37fe0ef          	jal	ra,60ba <__ledf2>
    7188:	08a05463          	blez	a0,7210 <_printf_float+0x130>
    718c:	4601                	li	a2,0
    718e:	4681                	li	a3,0
    7190:	8556                	mv	a0,s5
    7192:	85e6                	mv	a1,s9
    7194:	f27fe0ef          	jal	ra,60ba <__ledf2>
    7198:	00055663          	bgez	a0,71a4 <_printf_float+0xc4>
    719c:	02d00793          	li	a5,45
    71a0:	04f401a3          	sb	a5,67(s0)
    71a4:	04700793          	li	a5,71
    71a8:	00003a97          	auipc	s5,0x3
    71ac:	220a8a93          	addi	s5,s5,544 # a3c8 <__clz_tab+0x108>
    71b0:	0147f663          	bgeu	a5,s4,71bc <_printf_float+0xdc>
    71b4:	00003a97          	auipc	s5,0x3
    71b8:	218a8a93          	addi	s5,s5,536 # a3cc <__clz_tab+0x10c>
    71bc:	ffbb7b13          	andi	s6,s6,-5
    71c0:	478d                	li	a5,3
    71c2:	01642023          	sw	s6,0(s0)
    71c6:	c81c                	sw	a5,16(s0)
    71c8:	4b01                	li	s6,0
    71ca:	874e                	mv	a4,s3
    71cc:	86ca                	mv	a3,s2
    71ce:	1870                	addi	a2,sp,60
    71d0:	85a2                	mv	a1,s0
    71d2:	8526                	mv	a0,s1
    71d4:	2ec1                	jal	75a4 <_printf_common>
    71d6:	5cfd                	li	s9,-1
    71d8:	15951e63          	bne	a0,s9,7334 <_printf_float+0x254>
    71dc:	557d                	li	a0,-1
    71de:	50f6                	lw	ra,124(sp)
    71e0:	5466                	lw	s0,120(sp)
    71e2:	54d6                	lw	s1,116(sp)
    71e4:	5946                	lw	s2,112(sp)
    71e6:	59b6                	lw	s3,108(sp)
    71e8:	5a26                	lw	s4,104(sp)
    71ea:	5a96                	lw	s5,100(sp)
    71ec:	5b06                	lw	s6,96(sp)
    71ee:	4bf6                	lw	s7,92(sp)
    71f0:	4c66                	lw	s8,88(sp)
    71f2:	4cd6                	lw	s9,84(sp)
    71f4:	4d46                	lw	s10,80(sp)
    71f6:	4db6                	lw	s11,76(sp)
    71f8:	6109                	addi	sp,sp,128
    71fa:	8082                	ret
    71fc:	079d                	addi	a5,a5,7
    71fe:	9be1                	andi	a5,a5,-8
    7200:	00878693          	addi	a3,a5,8
    7204:	c314                	sw	a3,0(a4)
    7206:	4398                	lw	a4,0(a5)
    7208:	43dc                	lw	a5,4(a5)
    720a:	c438                	sw	a4,72(s0)
    720c:	c47c                	sw	a5,76(s0)
    720e:	bf3d                	j	714c <_printf_float+0x6c>
    7210:	8656                	mv	a2,s5
    7212:	86e6                	mv	a3,s9
    7214:	8556                	mv	a0,s5
    7216:	85e6                	mv	a1,s9
    7218:	267020ef          	jal	ra,9c7e <__unorddf2>
    721c:	cd11                	beqz	a0,7238 <_printf_float+0x158>
    721e:	04700793          	li	a5,71
    7222:	00003a97          	auipc	s5,0x3
    7226:	1aea8a93          	addi	s5,s5,430 # a3d0 <__clz_tab+0x110>
    722a:	f947f9e3          	bgeu	a5,s4,71bc <_printf_float+0xdc>
    722e:	00003a97          	auipc	s5,0x3
    7232:	1a6a8a93          	addi	s5,s5,422 # a3d4 <__clz_tab+0x114>
    7236:	b759                	j	71bc <_printf_float+0xdc>
    7238:	405c                	lw	a5,4(s0)
    723a:	577d                	li	a4,-1
    723c:	0dfa7d13          	andi	s10,s4,223
    7240:	08e79563          	bne	a5,a4,72ca <_printf_float+0x1ea>
    7244:	4799                	li	a5,6
    7246:	c05c                	sw	a5,4(s0)
    7248:	4054                	lw	a3,4(s0)
    724a:	400b6713          	ori	a4,s6,1024
    724e:	183c                	addi	a5,sp,56
    7250:	85d6                	mv	a1,s5
    7252:	c03e                	sw	a5,0(sp)
    7254:	c018                	sw	a4,0(s0)
    7256:	03310793          	addi	a5,sp,51
    725a:	c202                	sw	zero,4(sp)
    725c:	88d2                	mv	a7,s4
    725e:	03410813          	addi	a6,sp,52
    7262:	8666                	mv	a2,s9
    7264:	8526                	mv	a0,s1
    7266:	d01ff0ef          	jal	ra,6f66 <__cvt>
    726a:	04700793          	li	a5,71
    726e:	8aaa                	mv	s5,a0
    7270:	55d2                	lw	a1,52(sp)
    7272:	00fd1b63          	bne	s10,a5,7288 <_printf_float+0x1a8>
    7276:	57f5                	li	a5,-3
    7278:	00f5c563          	blt	a1,a5,7282 <_printf_float+0x1a2>
    727c:	405c                	lw	a5,4(s0)
    727e:	08b7d863          	bge	a5,a1,730e <_printf_float+0x22e>
    7282:	1a79                	addi	s4,s4,-2
    7284:	0ffa7a13          	andi	s4,s4,255
    7288:	06500793          	li	a5,101
    728c:	0547e663          	bltu	a5,s4,72d8 <_printf_float+0x1f8>
    7290:	15fd                	addi	a1,a1,-1
    7292:	8652                	mv	a2,s4
    7294:	05040513          	addi	a0,s0,80
    7298:	da2e                	sw	a1,52(sp)
    729a:	dbbff0ef          	jal	ra,7054 <__exponent>
    729e:	5762                	lw	a4,56(sp)
    72a0:	4685                	li	a3,1
    72a2:	8b2a                	mv	s6,a0
    72a4:	00a707b3          	add	a5,a4,a0
    72a8:	c81c                	sw	a5,16(s0)
    72aa:	00e6c563          	blt	a3,a4,72b4 <_printf_float+0x1d4>
    72ae:	4018                	lw	a4,0(s0)
    72b0:	8b05                	andi	a4,a4,1
    72b2:	c319                	beqz	a4,72b8 <_printf_float+0x1d8>
    72b4:	0785                	addi	a5,a5,1
    72b6:	c81c                	sw	a5,16(s0)
    72b8:	03314783          	lbu	a5,51(sp)
    72bc:	f00787e3          	beqz	a5,71ca <_printf_float+0xea>
    72c0:	02d00793          	li	a5,45
    72c4:	04f401a3          	sb	a5,67(s0)
    72c8:	b709                	j	71ca <_printf_float+0xea>
    72ca:	04700713          	li	a4,71
    72ce:	f6ed1de3          	bne	s10,a4,7248 <_printf_float+0x168>
    72d2:	fbbd                	bnez	a5,7248 <_printf_float+0x168>
    72d4:	4785                	li	a5,1
    72d6:	bf85                	j	7246 <_printf_float+0x166>
    72d8:	06600793          	li	a5,102
    72dc:	02fa1b63          	bne	s4,a5,7312 <_printf_float+0x232>
    72e0:	405c                	lw	a5,4(s0)
    72e2:	00b05b63          	blez	a1,72f8 <_printf_float+0x218>
    72e6:	c80c                	sw	a1,16(s0)
    72e8:	e781                	bnez	a5,72f0 <_printf_float+0x210>
    72ea:	4018                	lw	a4,0(s0)
    72ec:	8b05                	andi	a4,a4,1
    72ee:	cf09                	beqz	a4,7308 <_printf_float+0x228>
    72f0:	0785                	addi	a5,a5,1
    72f2:	97ae                	add	a5,a5,a1
    72f4:	c81c                	sw	a5,16(s0)
    72f6:	a809                	j	7308 <_printf_float+0x228>
    72f8:	e789                	bnez	a5,7302 <_printf_float+0x222>
    72fa:	4018                	lw	a4,0(s0)
    72fc:	4685                	li	a3,1
    72fe:	8b05                	andi	a4,a4,1
    7300:	c319                	beqz	a4,7306 <_printf_float+0x226>
    7302:	00278693          	addi	a3,a5,2
    7306:	c814                	sw	a3,16(s0)
    7308:	cc2c                	sw	a1,88(s0)
    730a:	4b01                	li	s6,0
    730c:	b775                	j	72b8 <_printf_float+0x1d8>
    730e:	06700a13          	li	s4,103
    7312:	57e2                	lw	a5,56(sp)
    7314:	00f5c963          	blt	a1,a5,7326 <_printf_float+0x246>
    7318:	401c                	lw	a5,0(s0)
    731a:	c80c                	sw	a1,16(s0)
    731c:	8b85                	andi	a5,a5,1
    731e:	d7ed                	beqz	a5,7308 <_printf_float+0x228>
    7320:	00158793          	addi	a5,a1,1
    7324:	bfc1                	j	72f4 <_printf_float+0x214>
    7326:	4705                	li	a4,1
    7328:	00b04463          	bgtz	a1,7330 <_printf_float+0x250>
    732c:	4709                	li	a4,2
    732e:	8f0d                	sub	a4,a4,a1
    7330:	97ba                	add	a5,a5,a4
    7332:	b7c9                	j	72f4 <_printf_float+0x214>
    7334:	401c                	lw	a5,0(s0)
    7336:	4007f713          	andi	a4,a5,1024
    733a:	e315                	bnez	a4,735e <_printf_float+0x27e>
    733c:	4814                	lw	a3,16(s0)
    733e:	8656                	mv	a2,s5
    7340:	85ca                	mv	a1,s2
    7342:	8526                	mv	a0,s1
    7344:	9982                	jalr	s3
    7346:	e9950be3          	beq	a0,s9,71dc <_printf_float+0xfc>
    734a:	401c                	lw	a5,0(s0)
    734c:	8b89                	andi	a5,a5,2
    734e:	24079663          	bnez	a5,759a <_printf_float+0x4ba>
    7352:	57f2                	lw	a5,60(sp)
    7354:	4448                	lw	a0,12(s0)
    7356:	e8f554e3          	bge	a0,a5,71de <_printf_float+0xfe>
    735a:	853e                	mv	a0,a5
    735c:	b549                	j	71de <_printf_float+0xfe>
    735e:	06500713          	li	a4,101
    7362:	19477b63          	bgeu	a4,s4,74f8 <_printf_float+0x418>
    7366:	4428                	lw	a0,72(s0)
    7368:	446c                	lw	a1,76(s0)
    736a:	4601                	li	a2,0
    736c:	4681                	li	a3,0
    736e:	ce3fe0ef          	jal	ra,6050 <__eqdf2>
    7372:	e939                	bnez	a0,73c8 <_printf_float+0x2e8>
    7374:	4685                	li	a3,1
    7376:	00003617          	auipc	a2,0x3
    737a:	06260613          	addi	a2,a2,98 # a3d8 <__clz_tab+0x118>
    737e:	85ca                	mv	a1,s2
    7380:	8526                	mv	a0,s1
    7382:	9982                	jalr	s3
    7384:	e5950ce3          	beq	a0,s9,71dc <_printf_float+0xfc>
    7388:	5752                	lw	a4,52(sp)
    738a:	57e2                	lw	a5,56(sp)
    738c:	00f74563          	blt	a4,a5,7396 <_printf_float+0x2b6>
    7390:	401c                	lw	a5,0(s0)
    7392:	8b85                	andi	a5,a5,1
    7394:	dbdd                	beqz	a5,734a <_printf_float+0x26a>
    7396:	86e2                	mv	a3,s8
    7398:	865e                	mv	a2,s7
    739a:	85ca                	mv	a1,s2
    739c:	8526                	mv	a0,s1
    739e:	9982                	jalr	s3
    73a0:	57fd                	li	a5,-1
    73a2:	e2f50de3          	beq	a0,a5,71dc <_printf_float+0xfc>
    73a6:	4a01                	li	s4,0
    73a8:	01a40a93          	addi	s5,s0,26
    73ac:	5b7d                	li	s6,-1
    73ae:	57e2                	lw	a5,56(sp)
    73b0:	17fd                	addi	a5,a5,-1
    73b2:	f8fa5ce3          	bge	s4,a5,734a <_printf_float+0x26a>
    73b6:	4685                	li	a3,1
    73b8:	8656                	mv	a2,s5
    73ba:	85ca                	mv	a1,s2
    73bc:	8526                	mv	a0,s1
    73be:	9982                	jalr	s3
    73c0:	e1650ee3          	beq	a0,s6,71dc <_printf_float+0xfc>
    73c4:	0a05                	addi	s4,s4,1
    73c6:	b7e5                	j	73ae <_printf_float+0x2ce>
    73c8:	57d2                	lw	a5,52(sp)
    73ca:	06f04663          	bgtz	a5,7436 <_printf_float+0x356>
    73ce:	4685                	li	a3,1
    73d0:	00003617          	auipc	a2,0x3
    73d4:	00860613          	addi	a2,a2,8 # a3d8 <__clz_tab+0x118>
    73d8:	85ca                	mv	a1,s2
    73da:	8526                	mv	a0,s1
    73dc:	9982                	jalr	s3
    73de:	df950fe3          	beq	a0,s9,71dc <_printf_float+0xfc>
    73e2:	57d2                	lw	a5,52(sp)
    73e4:	5762                	lw	a4,56(sp)
    73e6:	8fd9                	or	a5,a5,a4
    73e8:	e781                	bnez	a5,73f0 <_printf_float+0x310>
    73ea:	401c                	lw	a5,0(s0)
    73ec:	8b85                	andi	a5,a5,1
    73ee:	dfb1                	beqz	a5,734a <_printf_float+0x26a>
    73f0:	86e2                	mv	a3,s8
    73f2:	865e                	mv	a2,s7
    73f4:	85ca                	mv	a1,s2
    73f6:	8526                	mv	a0,s1
    73f8:	9982                	jalr	s3
    73fa:	57fd                	li	a5,-1
    73fc:	def500e3          	beq	a0,a5,71dc <_printf_float+0xfc>
    7400:	4a01                	li	s4,0
    7402:	01a40b13          	addi	s6,s0,26
    7406:	5bfd                	li	s7,-1
    7408:	57d2                	lw	a5,52(sp)
    740a:	40f007b3          	neg	a5,a5
    740e:	00fa4b63          	blt	s4,a5,7424 <_printf_float+0x344>
    7412:	56e2                	lw	a3,56(sp)
    7414:	8656                	mv	a2,s5
    7416:	85ca                	mv	a1,s2
    7418:	8526                	mv	a0,s1
    741a:	9982                	jalr	s3
    741c:	57fd                	li	a5,-1
    741e:	f2f516e3          	bne	a0,a5,734a <_printf_float+0x26a>
    7422:	bb6d                	j	71dc <_printf_float+0xfc>
    7424:	4685                	li	a3,1
    7426:	865a                	mv	a2,s6
    7428:	85ca                	mv	a1,s2
    742a:	8526                	mv	a0,s1
    742c:	9982                	jalr	s3
    742e:	db7507e3          	beq	a0,s7,71dc <_printf_float+0xfc>
    7432:	0a05                	addi	s4,s4,1
    7434:	bfd1                	j	7408 <_printf_float+0x328>
    7436:	4c3c                	lw	a5,88(s0)
    7438:	5a62                	lw	s4,56(sp)
    743a:	0147d363          	bge	a5,s4,7440 <_printf_float+0x360>
    743e:	8a3e                	mv	s4,a5
    7440:	01405a63          	blez	s4,7454 <_printf_float+0x374>
    7444:	86d2                	mv	a3,s4
    7446:	8656                	mv	a2,s5
    7448:	85ca                	mv	a1,s2
    744a:	8526                	mv	a0,s1
    744c:	9982                	jalr	s3
    744e:	57fd                	li	a5,-1
    7450:	d8f506e3          	beq	a0,a5,71dc <_printf_float+0xfc>
    7454:	4c81                	li	s9,0
    7456:	01a40d13          	addi	s10,s0,26
    745a:	5dfd                	li	s11,-1
    745c:	a809                	j	746e <_printf_float+0x38e>
    745e:	4685                	li	a3,1
    7460:	866a                	mv	a2,s10
    7462:	85ca                	mv	a1,s2
    7464:	8526                	mv	a0,s1
    7466:	9982                	jalr	s3
    7468:	d7b50ae3          	beq	a0,s11,71dc <_printf_float+0xfc>
    746c:	0c85                	addi	s9,s9,1
    746e:	05842b03          	lw	s6,88(s0)
    7472:	87d2                	mv	a5,s4
    7474:	000a5363          	bgez	s4,747a <_printf_float+0x39a>
    7478:	4781                	li	a5,0
    747a:	40fb07b3          	sub	a5,s6,a5
    747e:	fefcc0e3          	blt	s9,a5,745e <_printf_float+0x37e>
    7482:	5752                	lw	a4,52(sp)
    7484:	57e2                	lw	a5,56(sp)
    7486:	02f74d63          	blt	a4,a5,74c0 <_printf_float+0x3e0>
    748a:	401c                	lw	a5,0(s0)
    748c:	8b85                	andi	a5,a5,1
    748e:	eb8d                	bnez	a5,74c0 <_printf_float+0x3e0>
    7490:	57e2                	lw	a5,56(sp)
    7492:	5752                	lw	a4,52(sp)
    7494:	40e78a33          	sub	s4,a5,a4
    7498:	00eb4463          	blt	s6,a4,74a0 <_printf_float+0x3c0>
    749c:	41678a33          	sub	s4,a5,s6
    74a0:	01405b63          	blez	s4,74b6 <_printf_float+0x3d6>
    74a4:	86d2                	mv	a3,s4
    74a6:	016a8633          	add	a2,s5,s6
    74aa:	85ca                	mv	a1,s2
    74ac:	8526                	mv	a0,s1
    74ae:	9982                	jalr	s3
    74b0:	57fd                	li	a5,-1
    74b2:	d2f505e3          	beq	a0,a5,71dc <_printf_float+0xfc>
    74b6:	4a81                	li	s5,0
    74b8:	01a40b13          	addi	s6,s0,26
    74bc:	5bfd                	li	s7,-1
    74be:	a015                	j	74e2 <_printf_float+0x402>
    74c0:	86e2                	mv	a3,s8
    74c2:	865e                	mv	a2,s7
    74c4:	85ca                	mv	a1,s2
    74c6:	8526                	mv	a0,s1
    74c8:	9982                	jalr	s3
    74ca:	57fd                	li	a5,-1
    74cc:	fcf512e3          	bne	a0,a5,7490 <_printf_float+0x3b0>
    74d0:	b331                	j	71dc <_printf_float+0xfc>
    74d2:	4685                	li	a3,1
    74d4:	865a                	mv	a2,s6
    74d6:	85ca                	mv	a1,s2
    74d8:	8526                	mv	a0,s1
    74da:	9982                	jalr	s3
    74dc:	d17500e3          	beq	a0,s7,71dc <_printf_float+0xfc>
    74e0:	0a85                	addi	s5,s5,1
    74e2:	5752                	lw	a4,52(sp)
    74e4:	57e2                	lw	a5,56(sp)
    74e6:	8f99                	sub	a5,a5,a4
    74e8:	8752                	mv	a4,s4
    74ea:	000a5363          	bgez	s4,74f0 <_printf_float+0x410>
    74ee:	4701                	li	a4,0
    74f0:	8f99                	sub	a5,a5,a4
    74f2:	fefac0e3          	blt	s5,a5,74d2 <_printf_float+0x3f2>
    74f6:	bd91                	j	734a <_printf_float+0x26a>
    74f8:	56e2                	lw	a3,56(sp)
    74fa:	4705                	li	a4,1
    74fc:	00d74463          	blt	a4,a3,7504 <_printf_float+0x424>
    7500:	8b85                	andi	a5,a5,1
    7502:	c7b5                	beqz	a5,756e <_printf_float+0x48e>
    7504:	4685                	li	a3,1
    7506:	8656                	mv	a2,s5
    7508:	85ca                	mv	a1,s2
    750a:	8526                	mv	a0,s1
    750c:	9982                	jalr	s3
    750e:	5a7d                	li	s4,-1
    7510:	cd4506e3          	beq	a0,s4,71dc <_printf_float+0xfc>
    7514:	86e2                	mv	a3,s8
    7516:	865e                	mv	a2,s7
    7518:	85ca                	mv	a1,s2
    751a:	8526                	mv	a0,s1
    751c:	9982                	jalr	s3
    751e:	cb450fe3          	beq	a0,s4,71dc <_printf_float+0xfc>
    7522:	4428                	lw	a0,72(s0)
    7524:	446c                	lw	a1,76(s0)
    7526:	4601                	li	a2,0
    7528:	4681                	li	a3,0
    752a:	b27fe0ef          	jal	ra,6050 <__eqdf2>
    752e:	c91d                	beqz	a0,7564 <_printf_float+0x484>
    7530:	56e2                	lw	a3,56(sp)
    7532:	001a8613          	addi	a2,s5,1
    7536:	85ca                	mv	a1,s2
    7538:	16fd                	addi	a3,a3,-1
    753a:	8526                	mv	a0,s1
    753c:	9982                	jalr	s3
    753e:	c9450fe3          	beq	a0,s4,71dc <_printf_float+0xfc>
    7542:	86da                	mv	a3,s6
    7544:	05040613          	addi	a2,s0,80
    7548:	b5f9                	j	7416 <_printf_float+0x336>
    754a:	4685                	li	a3,1
    754c:	8656                	mv	a2,s5
    754e:	85ca                	mv	a1,s2
    7550:	8526                	mv	a0,s1
    7552:	9982                	jalr	s3
    7554:	c97504e3          	beq	a0,s7,71dc <_printf_float+0xfc>
    7558:	0a05                	addi	s4,s4,1
    755a:	57e2                	lw	a5,56(sp)
    755c:	17fd                	addi	a5,a5,-1
    755e:	fefa46e3          	blt	s4,a5,754a <_printf_float+0x46a>
    7562:	b7c5                	j	7542 <_printf_float+0x462>
    7564:	4a01                	li	s4,0
    7566:	01a40a93          	addi	s5,s0,26
    756a:	5bfd                	li	s7,-1
    756c:	b7fd                	j	755a <_printf_float+0x47a>
    756e:	4685                	li	a3,1
    7570:	8656                	mv	a2,s5
    7572:	85ca                	mv	a1,s2
    7574:	8526                	mv	a0,s1
    7576:	9982                	jalr	s3
    7578:	fd9515e3          	bne	a0,s9,7542 <_printf_float+0x462>
    757c:	b185                	j	71dc <_printf_float+0xfc>
    757e:	4685                	li	a3,1
    7580:	8656                	mv	a2,s5
    7582:	85ca                	mv	a1,s2
    7584:	8526                	mv	a0,s1
    7586:	9982                	jalr	s3
    7588:	c5650ae3          	beq	a0,s6,71dc <_printf_float+0xfc>
    758c:	0a05                	addi	s4,s4,1
    758e:	445c                	lw	a5,12(s0)
    7590:	5772                	lw	a4,60(sp)
    7592:	8f99                	sub	a5,a5,a4
    7594:	fefa45e3          	blt	s4,a5,757e <_printf_float+0x49e>
    7598:	bb6d                	j	7352 <_printf_float+0x272>
    759a:	4a01                	li	s4,0
    759c:	01940a93          	addi	s5,s0,25
    75a0:	5b7d                	li	s6,-1
    75a2:	b7f5                	j	758e <_printf_float+0x4ae>

000075a4 <_printf_common>:
_printf_common():
    75a4:	7179                	addi	sp,sp,-48
    75a6:	ca56                	sw	s5,20(sp)
    75a8:	499c                	lw	a5,16(a1)
    75aa:	8aba                	mv	s5,a4
    75ac:	4598                	lw	a4,8(a1)
    75ae:	d422                	sw	s0,40(sp)
    75b0:	d226                	sw	s1,36(sp)
    75b2:	ce4e                	sw	s3,28(sp)
    75b4:	cc52                	sw	s4,24(sp)
    75b6:	d606                	sw	ra,44(sp)
    75b8:	d04a                	sw	s2,32(sp)
    75ba:	c85a                	sw	s6,16(sp)
    75bc:	c65e                	sw	s7,12(sp)
    75be:	89aa                	mv	s3,a0
    75c0:	842e                	mv	s0,a1
    75c2:	84b2                	mv	s1,a2
    75c4:	8a36                	mv	s4,a3
    75c6:	00e7d363          	bge	a5,a4,75cc <_printf_common+0x28>
    75ca:	87ba                	mv	a5,a4
    75cc:	c09c                	sw	a5,0(s1)
    75ce:	04344703          	lbu	a4,67(s0)
    75d2:	c319                	beqz	a4,75d8 <_printf_common+0x34>
    75d4:	0785                	addi	a5,a5,1
    75d6:	c09c                	sw	a5,0(s1)
    75d8:	401c                	lw	a5,0(s0)
    75da:	0207f793          	andi	a5,a5,32
    75de:	c781                	beqz	a5,75e6 <_printf_common+0x42>
    75e0:	409c                	lw	a5,0(s1)
    75e2:	0789                	addi	a5,a5,2
    75e4:	c09c                	sw	a5,0(s1)
    75e6:	00042903          	lw	s2,0(s0)
    75ea:	00697913          	andi	s2,s2,6
    75ee:	00091a63          	bnez	s2,7602 <_printf_common+0x5e>
    75f2:	01940b13          	addi	s6,s0,25
    75f6:	5bfd                	li	s7,-1
    75f8:	445c                	lw	a5,12(s0)
    75fa:	4098                	lw	a4,0(s1)
    75fc:	8f99                	sub	a5,a5,a4
    75fe:	04f94c63          	blt	s2,a5,7656 <_printf_common+0xb2>
    7602:	401c                	lw	a5,0(s0)
    7604:	04344683          	lbu	a3,67(s0)
    7608:	0207f793          	andi	a5,a5,32
    760c:	00d036b3          	snez	a3,a3
    7610:	eba5                	bnez	a5,7680 <_printf_common+0xdc>
    7612:	04340613          	addi	a2,s0,67
    7616:	85d2                	mv	a1,s4
    7618:	854e                	mv	a0,s3
    761a:	9a82                	jalr	s5
    761c:	57fd                	li	a5,-1
    761e:	04f50363          	beq	a0,a5,7664 <_printf_common+0xc0>
    7622:	401c                	lw	a5,0(s0)
    7624:	4611                	li	a2,4
    7626:	4098                	lw	a4,0(s1)
    7628:	8b99                	andi	a5,a5,6
    762a:	4454                	lw	a3,12(s0)
    762c:	4481                	li	s1,0
    762e:	00c79763          	bne	a5,a2,763c <_printf_common+0x98>
    7632:	40e684b3          	sub	s1,a3,a4
    7636:	0004d363          	bgez	s1,763c <_printf_common+0x98>
    763a:	4481                	li	s1,0
    763c:	441c                	lw	a5,8(s0)
    763e:	4818                	lw	a4,16(s0)
    7640:	00f75463          	bge	a4,a5,7648 <_printf_common+0xa4>
    7644:	8f99                	sub	a5,a5,a4
    7646:	94be                	add	s1,s1,a5
    7648:	4901                	li	s2,0
    764a:	0469                	addi	s0,s0,26
    764c:	5b7d                	li	s6,-1
    764e:	05249863          	bne	s1,s2,769e <_printf_common+0xfa>
    7652:	4501                	li	a0,0
    7654:	a809                	j	7666 <_printf_common+0xc2>
    7656:	4685                	li	a3,1
    7658:	865a                	mv	a2,s6
    765a:	85d2                	mv	a1,s4
    765c:	854e                	mv	a0,s3
    765e:	9a82                	jalr	s5
    7660:	01751e63          	bne	a0,s7,767c <_printf_common+0xd8>
    7664:	557d                	li	a0,-1
    7666:	50b2                	lw	ra,44(sp)
    7668:	5422                	lw	s0,40(sp)
    766a:	5492                	lw	s1,36(sp)
    766c:	5902                	lw	s2,32(sp)
    766e:	49f2                	lw	s3,28(sp)
    7670:	4a62                	lw	s4,24(sp)
    7672:	4ad2                	lw	s5,20(sp)
    7674:	4b42                	lw	s6,16(sp)
    7676:	4bb2                	lw	s7,12(sp)
    7678:	6145                	addi	sp,sp,48
    767a:	8082                	ret
    767c:	0905                	addi	s2,s2,1
    767e:	bfad                	j	75f8 <_printf_common+0x54>
    7680:	00d40733          	add	a4,s0,a3
    7684:	03000613          	li	a2,48
    7688:	04c701a3          	sb	a2,67(a4)
    768c:	04544703          	lbu	a4,69(s0)
    7690:	00168793          	addi	a5,a3,1
    7694:	97a2                	add	a5,a5,s0
    7696:	0689                	addi	a3,a3,2
    7698:	04e781a3          	sb	a4,67(a5)
    769c:	bf9d                	j	7612 <_printf_common+0x6e>
    769e:	4685                	li	a3,1
    76a0:	8622                	mv	a2,s0
    76a2:	85d2                	mv	a1,s4
    76a4:	854e                	mv	a0,s3
    76a6:	9a82                	jalr	s5
    76a8:	fb650ee3          	beq	a0,s6,7664 <_printf_common+0xc0>
    76ac:	0905                	addi	s2,s2,1
    76ae:	b745                	j	764e <_printf_common+0xaa>

000076b0 <_printf_i>:
_printf_i():
    76b0:	7179                	addi	sp,sp,-48
    76b2:	d422                	sw	s0,40(sp)
    76b4:	d226                	sw	s1,36(sp)
    76b6:	d04a                	sw	s2,32(sp)
    76b8:	ce4e                	sw	s3,28(sp)
    76ba:	d606                	sw	ra,44(sp)
    76bc:	cc52                	sw	s4,24(sp)
    76be:	ca56                	sw	s5,20(sp)
    76c0:	c85a                	sw	s6,16(sp)
    76c2:	89b6                	mv	s3,a3
    76c4:	0185c683          	lbu	a3,24(a1)
    76c8:	06900793          	li	a5,105
    76cc:	8932                	mv	s2,a2
    76ce:	84aa                	mv	s1,a0
    76d0:	842e                	mv	s0,a1
    76d2:	04358613          	addi	a2,a1,67
    76d6:	02f68d63          	beq	a3,a5,7710 <_printf_i+0x60>
    76da:	06d7e263          	bltu	a5,a3,773e <_printf_i+0x8e>
    76de:	05800793          	li	a5,88
    76e2:	18f68963          	beq	a3,a5,7874 <_printf_i+0x1c4>
    76e6:	00d7ed63          	bltu	a5,a3,7700 <_printf_i+0x50>
    76ea:	22068263          	beqz	a3,790e <_printf_i+0x25e>
    76ee:	04300793          	li	a5,67
    76f2:	0af68f63          	beq	a3,a5,77b0 <_printf_i+0x100>
    76f6:	04240a93          	addi	s5,s0,66
    76fa:	04d40123          	sb	a3,66(s0)
    76fe:	a0d1                	j	77c2 <_printf_i+0x112>
    7700:	06300793          	li	a5,99
    7704:	0af68663          	beq	a3,a5,77b0 <_printf_i+0x100>
    7708:	06400793          	li	a5,100
    770c:	fef695e3          	bne	a3,a5,76f6 <_printf_i+0x46>
    7710:	401c                	lw	a5,0(s0)
    7712:	4308                	lw	a0,0(a4)
    7714:	0807f693          	andi	a3,a5,128
    7718:	00450593          	addi	a1,a0,4
    771c:	c6cd                	beqz	a3,77c6 <_printf_i+0x116>
    771e:	411c                	lw	a5,0(a0)
    7720:	c30c                	sw	a1,0(a4)
    7722:	0007d863          	bgez	a5,7732 <_printf_i+0x82>
    7726:	02d00713          	li	a4,45
    772a:	40f007b3          	neg	a5,a5
    772e:	04e401a3          	sb	a4,67(s0)
    7732:	00003697          	auipc	a3,0x3
    7736:	caa68693          	addi	a3,a3,-854 # a3dc <__clz_tab+0x11c>
    773a:	4729                	li	a4,10
    773c:	a875                	j	77f8 <_printf_i+0x148>
    773e:	07000793          	li	a5,112
    7742:	16f68563          	beq	a3,a5,78ac <_printf_i+0x1fc>
    7746:	02d7e563          	bltu	a5,a3,7770 <_printf_i+0xc0>
    774a:	06e00793          	li	a5,110
    774e:	18f68c63          	beq	a3,a5,78e6 <_printf_i+0x236>
    7752:	06f00793          	li	a5,111
    7756:	faf690e3          	bne	a3,a5,76f6 <_printf_i+0x46>
    775a:	400c                	lw	a1,0(s0)
    775c:	431c                	lw	a5,0(a4)
    775e:	0805f813          	andi	a6,a1,128
    7762:	00478513          	addi	a0,a5,4
    7766:	06080863          	beqz	a6,77d6 <_printf_i+0x126>
    776a:	c308                	sw	a0,0(a4)
    776c:	439c                	lw	a5,0(a5)
    776e:	a895                	j	77e2 <_printf_i+0x132>
    7770:	07500793          	li	a5,117
    7774:	fef683e3          	beq	a3,a5,775a <_printf_i+0xaa>
    7778:	07800793          	li	a5,120
    777c:	12f68c63          	beq	a3,a5,78b4 <_printf_i+0x204>
    7780:	07300793          	li	a5,115
    7784:	f6f699e3          	bne	a3,a5,76f6 <_printf_i+0x46>
    7788:	431c                	lw	a5,0(a4)
    778a:	41d0                	lw	a2,4(a1)
    778c:	4581                	li	a1,0
    778e:	00478693          	addi	a3,a5,4
    7792:	c314                	sw	a3,0(a4)
    7794:	0007aa83          	lw	s5,0(a5)
    7798:	8556                	mv	a0,s5
    779a:	63e010ef          	jal	ra,8dd8 <memchr>
    779e:	c501                	beqz	a0,77a6 <_printf_i+0xf6>
    77a0:	41550533          	sub	a0,a0,s5
    77a4:	c048                	sw	a0,4(s0)
    77a6:	405c                	lw	a5,4(s0)
    77a8:	c81c                	sw	a5,16(s0)
    77aa:	040401a3          	sb	zero,67(s0)
    77ae:	a871                	j	784a <_printf_i+0x19a>
    77b0:	431c                	lw	a5,0(a4)
    77b2:	04240a93          	addi	s5,s0,66
    77b6:	00478693          	addi	a3,a5,4
    77ba:	439c                	lw	a5,0(a5)
    77bc:	c314                	sw	a3,0(a4)
    77be:	04f40123          	sb	a5,66(s0)
    77c2:	4785                	li	a5,1
    77c4:	b7d5                	j	77a8 <_printf_i+0xf8>
    77c6:	0407f693          	andi	a3,a5,64
    77ca:	411c                	lw	a5,0(a0)
    77cc:	c30c                	sw	a1,0(a4)
    77ce:	dab1                	beqz	a3,7722 <_printf_i+0x72>
    77d0:	07c2                	slli	a5,a5,0x10
    77d2:	87c1                	srai	a5,a5,0x10
    77d4:	b7b9                	j	7722 <_printf_i+0x72>
    77d6:	0405f593          	andi	a1,a1,64
    77da:	c308                	sw	a0,0(a4)
    77dc:	d9c1                	beqz	a1,776c <_printf_i+0xbc>
    77de:	0007d783          	lhu	a5,0(a5)
    77e2:	06f00713          	li	a4,111
    77e6:	0ee68863          	beq	a3,a4,78d6 <_printf_i+0x226>
    77ea:	00003697          	auipc	a3,0x3
    77ee:	bf268693          	addi	a3,a3,-1038 # a3dc <__clz_tab+0x11c>
    77f2:	4729                	li	a4,10
    77f4:	040401a3          	sb	zero,67(s0)
    77f8:	404c                	lw	a1,4(s0)
    77fa:	c40c                	sw	a1,8(s0)
    77fc:	0005c563          	bltz	a1,7806 <_printf_i+0x156>
    7800:	4008                	lw	a0,0(s0)
    7802:	996d                	andi	a0,a0,-5
    7804:	c008                	sw	a0,0(s0)
    7806:	e399                	bnez	a5,780c <_printf_i+0x15c>
    7808:	8ab2                	mv	s5,a2
    780a:	cd91                	beqz	a1,7826 <_printf_i+0x176>
    780c:	8ab2                	mv	s5,a2
    780e:	02e7f5b3          	remu	a1,a5,a4
    7812:	1afd                	addi	s5,s5,-1
    7814:	95b6                	add	a1,a1,a3
    7816:	0005c583          	lbu	a1,0(a1)
    781a:	00ba8023          	sb	a1,0(s5)
    781e:	02e7d5b3          	divu	a1,a5,a4
    7822:	0ce7f063          	bgeu	a5,a4,78e2 <_printf_i+0x232>
    7826:	47a1                	li	a5,8
    7828:	00f71e63          	bne	a4,a5,7844 <_printf_i+0x194>
    782c:	401c                	lw	a5,0(s0)
    782e:	8b85                	andi	a5,a5,1
    7830:	cb91                	beqz	a5,7844 <_printf_i+0x194>
    7832:	4058                	lw	a4,4(s0)
    7834:	481c                	lw	a5,16(s0)
    7836:	00e7c763          	blt	a5,a4,7844 <_printf_i+0x194>
    783a:	03000793          	li	a5,48
    783e:	fefa8fa3          	sb	a5,-1(s5)
    7842:	1afd                	addi	s5,s5,-1
    7844:	41560633          	sub	a2,a2,s5
    7848:	c810                	sw	a2,16(s0)
    784a:	874e                	mv	a4,s3
    784c:	86ca                	mv	a3,s2
    784e:	0070                	addi	a2,sp,12
    7850:	85a2                	mv	a1,s0
    7852:	8526                	mv	a0,s1
    7854:	d51ff0ef          	jal	ra,75a4 <_printf_common>
    7858:	5a7d                	li	s4,-1
    785a:	0b451e63          	bne	a0,s4,7916 <_printf_i+0x266>
    785e:	557d                	li	a0,-1
    7860:	50b2                	lw	ra,44(sp)
    7862:	5422                	lw	s0,40(sp)
    7864:	5492                	lw	s1,36(sp)
    7866:	5902                	lw	s2,32(sp)
    7868:	49f2                	lw	s3,28(sp)
    786a:	4a62                	lw	s4,24(sp)
    786c:	4ad2                	lw	s5,20(sp)
    786e:	4b42                	lw	s6,16(sp)
    7870:	6145                	addi	sp,sp,48
    7872:	8082                	ret
    7874:	04d582a3          	sb	a3,69(a1)
    7878:	00003697          	auipc	a3,0x3
    787c:	b6468693          	addi	a3,a3,-1180 # a3dc <__clz_tab+0x11c>
    7880:	400c                	lw	a1,0(s0)
    7882:	4308                	lw	a0,0(a4)
    7884:	0805f813          	andi	a6,a1,128
    7888:	411c                	lw	a5,0(a0)
    788a:	0511                	addi	a0,a0,4
    788c:	02080d63          	beqz	a6,78c6 <_printf_i+0x216>
    7890:	c308                	sw	a0,0(a4)
    7892:	0015f713          	andi	a4,a1,1
    7896:	c701                	beqz	a4,789e <_printf_i+0x1ee>
    7898:	0205e593          	ori	a1,a1,32
    789c:	c00c                	sw	a1,0(s0)
    789e:	4741                	li	a4,16
    78a0:	fbb1                	bnez	a5,77f4 <_printf_i+0x144>
    78a2:	400c                	lw	a1,0(s0)
    78a4:	fdf5f593          	andi	a1,a1,-33
    78a8:	c00c                	sw	a1,0(s0)
    78aa:	b7a9                	j	77f4 <_printf_i+0x144>
    78ac:	419c                	lw	a5,0(a1)
    78ae:	0207e793          	ori	a5,a5,32
    78b2:	c19c                	sw	a5,0(a1)
    78b4:	07800793          	li	a5,120
    78b8:	04f402a3          	sb	a5,69(s0)
    78bc:	00003697          	auipc	a3,0x3
    78c0:	b3468693          	addi	a3,a3,-1228 # a3f0 <__clz_tab+0x130>
    78c4:	bf75                	j	7880 <_printf_i+0x1d0>
    78c6:	0405f813          	andi	a6,a1,64
    78ca:	c308                	sw	a0,0(a4)
    78cc:	fc0803e3          	beqz	a6,7892 <_printf_i+0x1e2>
    78d0:	07c2                	slli	a5,a5,0x10
    78d2:	83c1                	srli	a5,a5,0x10
    78d4:	bf7d                	j	7892 <_printf_i+0x1e2>
    78d6:	00003697          	auipc	a3,0x3
    78da:	b0668693          	addi	a3,a3,-1274 # a3dc <__clz_tab+0x11c>
    78de:	4721                	li	a4,8
    78e0:	bf11                	j	77f4 <_printf_i+0x144>
    78e2:	87ae                	mv	a5,a1
    78e4:	b72d                	j	780e <_printf_i+0x15e>
    78e6:	4194                	lw	a3,0(a1)
    78e8:	431c                	lw	a5,0(a4)
    78ea:	49cc                	lw	a1,20(a1)
    78ec:	0806f813          	andi	a6,a3,128
    78f0:	00478513          	addi	a0,a5,4
    78f4:	00080663          	beqz	a6,7900 <_printf_i+0x250>
    78f8:	c308                	sw	a0,0(a4)
    78fa:	439c                	lw	a5,0(a5)
    78fc:	c38c                	sw	a1,0(a5)
    78fe:	a801                	j	790e <_printf_i+0x25e>
    7900:	c308                	sw	a0,0(a4)
    7902:	0406f693          	andi	a3,a3,64
    7906:	439c                	lw	a5,0(a5)
    7908:	daf5                	beqz	a3,78fc <_printf_i+0x24c>
    790a:	00b79023          	sh	a1,0(a5)
    790e:	00042823          	sw	zero,16(s0)
    7912:	8ab2                	mv	s5,a2
    7914:	bf1d                	j	784a <_printf_i+0x19a>
    7916:	4814                	lw	a3,16(s0)
    7918:	8656                	mv	a2,s5
    791a:	85ca                	mv	a1,s2
    791c:	8526                	mv	a0,s1
    791e:	9982                	jalr	s3
    7920:	f3450fe3          	beq	a0,s4,785e <_printf_i+0x1ae>
    7924:	401c                	lw	a5,0(s0)
    7926:	8b89                	andi	a5,a5,2
    7928:	e78d                	bnez	a5,7952 <_printf_i+0x2a2>
    792a:	47b2                	lw	a5,12(sp)
    792c:	4448                	lw	a0,12(s0)
    792e:	f2f559e3          	bge	a0,a5,7860 <_printf_i+0x1b0>
    7932:	853e                	mv	a0,a5
    7934:	b735                	j	7860 <_printf_i+0x1b0>
    7936:	4685                	li	a3,1
    7938:	8656                	mv	a2,s5
    793a:	85ca                	mv	a1,s2
    793c:	8526                	mv	a0,s1
    793e:	9982                	jalr	s3
    7940:	f1650fe3          	beq	a0,s6,785e <_printf_i+0x1ae>
    7944:	0a05                	addi	s4,s4,1
    7946:	445c                	lw	a5,12(s0)
    7948:	4732                	lw	a4,12(sp)
    794a:	8f99                	sub	a5,a5,a4
    794c:	fefa45e3          	blt	s4,a5,7936 <_printf_i+0x286>
    7950:	bfe9                	j	792a <_printf_i+0x27a>
    7952:	4a01                	li	s4,0
    7954:	01940a93          	addi	s5,s0,25
    7958:	5b7d                	li	s6,-1
    795a:	b7f5                	j	7946 <_printf_i+0x296>

0000795c <iprintf>:
printf():
    795c:	7139                	addi	sp,sp,-64
    795e:	da3e                	sw	a5,52(sp)
    7960:	d22e                	sw	a1,36(sp)
    7962:	d432                	sw	a2,40(sp)
    7964:	d636                	sw	a3,44(sp)
    7966:	d83a                	sw	a4,48(sp)
    7968:	dc42                	sw	a6,56(sp)
    796a:	de46                	sw	a7,60(sp)
    796c:	81418793          	addi	a5,gp,-2028 # 20000234 <_impure_ptr>
    7970:	cc22                	sw	s0,24(sp)
    7972:	4380                	lw	s0,0(a5)
    7974:	ca26                	sw	s1,20(sp)
    7976:	ce06                	sw	ra,28(sp)
    7978:	84aa                	mv	s1,a0
    797a:	c411                	beqz	s0,7986 <iprintf+0x2a>
    797c:	4c1c                	lw	a5,24(s0)
    797e:	e781                	bnez	a5,7986 <iprintf+0x2a>
    7980:	8522                	mv	a0,s0
    7982:	1be010ef          	jal	ra,8b40 <__sinit>
    7986:	440c                	lw	a1,8(s0)
    7988:	1054                	addi	a3,sp,36
    798a:	8626                	mv	a2,s1
    798c:	8522                	mv	a0,s0
    798e:	c636                	sw	a3,12(sp)
    7990:	561010ef          	jal	ra,96f0 <_vfiprintf_r>
    7994:	40f2                	lw	ra,28(sp)
    7996:	4462                	lw	s0,24(sp)
    7998:	44d2                	lw	s1,20(sp)
    799a:	6121                	addi	sp,sp,64
    799c:	8082                	ret

0000799e <strlen>:
strlen():
    799e:	87aa                	mv	a5,a0
    79a0:	0785                	addi	a5,a5,1
    79a2:	fff7c703          	lbu	a4,-1(a5)
    79a6:	ff6d                	bnez	a4,79a0 <strlen+0x2>
    79a8:	40a78533          	sub	a0,a5,a0
    79ac:	157d                	addi	a0,a0,-1
    79ae:	8082                	ret

000079b0 <__swbuf_r>:
__swbuf_r():
    79b0:	1101                	addi	sp,sp,-32
    79b2:	cc22                	sw	s0,24(sp)
    79b4:	ca26                	sw	s1,20(sp)
    79b6:	c84a                	sw	s2,16(sp)
    79b8:	ce06                	sw	ra,28(sp)
    79ba:	c64e                	sw	s3,12(sp)
    79bc:	84aa                	mv	s1,a0
    79be:	892e                	mv	s2,a1
    79c0:	8432                	mv	s0,a2
    79c2:	c509                	beqz	a0,79cc <__swbuf_r+0x1c>
    79c4:	4d1c                	lw	a5,24(a0)
    79c6:	e399                	bnez	a5,79cc <__swbuf_r+0x1c>
    79c8:	178010ef          	jal	ra,8b40 <__sinit>
    79cc:	00003797          	auipc	a5,0x3
    79d0:	ab478793          	addi	a5,a5,-1356 # a480 <__sf_fake_stdin>
    79d4:	06f41b63          	bne	s0,a5,7a4a <__swbuf_r+0x9a>
    79d8:	40c0                	lw	s0,4(s1)
    79da:	4c1c                	lw	a5,24(s0)
    79dc:	c41c                	sw	a5,8(s0)
    79de:	00c45783          	lhu	a5,12(s0)
    79e2:	8ba1                	andi	a5,a5,8
    79e4:	c3d9                	beqz	a5,7a6a <__swbuf_r+0xba>
    79e6:	481c                	lw	a5,16(s0)
    79e8:	c3c9                	beqz	a5,7a6a <__swbuf_r+0xba>
    79ea:	481c                	lw	a5,16(s0)
    79ec:	4008                	lw	a0,0(s0)
    79ee:	0ff97993          	andi	s3,s2,255
    79f2:	0ff97913          	andi	s2,s2,255
    79f6:	8d1d                	sub	a0,a0,a5
    79f8:	485c                	lw	a5,20(s0)
    79fa:	00f54763          	blt	a0,a5,7a08 <__swbuf_r+0x58>
    79fe:	85a2                	mv	a1,s0
    7a00:	8526                	mv	a0,s1
    7a02:	01c010ef          	jal	ra,8a1e <_fflush_r>
    7a06:	e535                	bnez	a0,7a72 <__swbuf_r+0xc2>
    7a08:	441c                	lw	a5,8(s0)
    7a0a:	0505                	addi	a0,a0,1
    7a0c:	17fd                	addi	a5,a5,-1
    7a0e:	c41c                	sw	a5,8(s0)
    7a10:	401c                	lw	a5,0(s0)
    7a12:	00178713          	addi	a4,a5,1
    7a16:	c018                	sw	a4,0(s0)
    7a18:	01378023          	sb	s3,0(a5)
    7a1c:	485c                	lw	a5,20(s0)
    7a1e:	00a78963          	beq	a5,a0,7a30 <__swbuf_r+0x80>
    7a22:	00c45783          	lhu	a5,12(s0)
    7a26:	8b85                	andi	a5,a5,1
    7a28:	cb89                	beqz	a5,7a3a <__swbuf_r+0x8a>
    7a2a:	47a9                	li	a5,10
    7a2c:	00f91763          	bne	s2,a5,7a3a <__swbuf_r+0x8a>
    7a30:	85a2                	mv	a1,s0
    7a32:	8526                	mv	a0,s1
    7a34:	7eb000ef          	jal	ra,8a1e <_fflush_r>
    7a38:	ed0d                	bnez	a0,7a72 <__swbuf_r+0xc2>
    7a3a:	40f2                	lw	ra,28(sp)
    7a3c:	4462                	lw	s0,24(sp)
    7a3e:	854a                	mv	a0,s2
    7a40:	44d2                	lw	s1,20(sp)
    7a42:	4942                	lw	s2,16(sp)
    7a44:	49b2                	lw	s3,12(sp)
    7a46:	6105                	addi	sp,sp,32
    7a48:	8082                	ret
    7a4a:	00003797          	auipc	a5,0x3
    7a4e:	a5678793          	addi	a5,a5,-1450 # a4a0 <__sf_fake_stdout>
    7a52:	00f41463          	bne	s0,a5,7a5a <__swbuf_r+0xaa>
    7a56:	4480                	lw	s0,8(s1)
    7a58:	b749                	j	79da <__swbuf_r+0x2a>
    7a5a:	00003797          	auipc	a5,0x3
    7a5e:	a0678793          	addi	a5,a5,-1530 # a460 <__sf_fake_stderr>
    7a62:	f6f41ce3          	bne	s0,a5,79da <__swbuf_r+0x2a>
    7a66:	44c0                	lw	s0,12(s1)
    7a68:	bf8d                	j	79da <__swbuf_r+0x2a>
    7a6a:	85a2                	mv	a1,s0
    7a6c:	8526                	mv	a0,s1
    7a6e:	2021                	jal	7a76 <__swsetup_r>
    7a70:	dd2d                	beqz	a0,79ea <__swbuf_r+0x3a>
    7a72:	597d                	li	s2,-1
    7a74:	b7d9                	j	7a3a <__swbuf_r+0x8a>

00007a76 <__swsetup_r>:
__swsetup_r():
    7a76:	1141                	addi	sp,sp,-16
    7a78:	81418793          	addi	a5,gp,-2028 # 20000234 <_impure_ptr>
    7a7c:	c226                	sw	s1,4(sp)
    7a7e:	4384                	lw	s1,0(a5)
    7a80:	c422                	sw	s0,8(sp)
    7a82:	c04a                	sw	s2,0(sp)
    7a84:	c606                	sw	ra,12(sp)
    7a86:	892a                	mv	s2,a0
    7a88:	842e                	mv	s0,a1
    7a8a:	c491                	beqz	s1,7a96 <__swsetup_r+0x20>
    7a8c:	4c9c                	lw	a5,24(s1)
    7a8e:	e781                	bnez	a5,7a96 <__swsetup_r+0x20>
    7a90:	8526                	mv	a0,s1
    7a92:	0ae010ef          	jal	ra,8b40 <__sinit>
    7a96:	00003797          	auipc	a5,0x3
    7a9a:	9ea78793          	addi	a5,a5,-1558 # a480 <__sf_fake_stdin>
    7a9e:	02f41c63          	bne	s0,a5,7ad6 <__swsetup_r+0x60>
    7aa2:	40c0                	lw	s0,4(s1)
    7aa4:	00c41703          	lh	a4,12(s0)
    7aa8:	01071793          	slli	a5,a4,0x10
    7aac:	83c1                	srli	a5,a5,0x10
    7aae:	0087f693          	andi	a3,a5,8
    7ab2:	eebd                	bnez	a3,7b30 <__swsetup_r+0xba>
    7ab4:	0107f693          	andi	a3,a5,16
    7ab8:	ee9d                	bnez	a3,7af6 <__swsetup_r+0x80>
    7aba:	47a5                	li	a5,9
    7abc:	00f92023          	sw	a5,0(s2) # 800000 <_data_lma+0x7f591c>
    7ac0:	04076713          	ori	a4,a4,64
    7ac4:	00e41623          	sh	a4,12(s0)
    7ac8:	557d                	li	a0,-1
    7aca:	40b2                	lw	ra,12(sp)
    7acc:	4422                	lw	s0,8(sp)
    7ace:	4492                	lw	s1,4(sp)
    7ad0:	4902                	lw	s2,0(sp)
    7ad2:	0141                	addi	sp,sp,16
    7ad4:	8082                	ret
    7ad6:	00003797          	auipc	a5,0x3
    7ada:	9ca78793          	addi	a5,a5,-1590 # a4a0 <__sf_fake_stdout>
    7ade:	00f41463          	bne	s0,a5,7ae6 <__swsetup_r+0x70>
    7ae2:	4480                	lw	s0,8(s1)
    7ae4:	b7c1                	j	7aa4 <__swsetup_r+0x2e>
    7ae6:	00003797          	auipc	a5,0x3
    7aea:	97a78793          	addi	a5,a5,-1670 # a460 <__sf_fake_stderr>
    7aee:	faf41be3          	bne	s0,a5,7aa4 <__swsetup_r+0x2e>
    7af2:	44c0                	lw	s0,12(s1)
    7af4:	bf45                	j	7aa4 <__swsetup_r+0x2e>
    7af6:	8b91                	andi	a5,a5,4
    7af8:	c795                	beqz	a5,7b24 <__swsetup_r+0xae>
    7afa:	584c                	lw	a1,52(s0)
    7afc:	c991                	beqz	a1,7b10 <__swsetup_r+0x9a>
    7afe:	04440793          	addi	a5,s0,68
    7b02:	00f58563          	beq	a1,a5,7b0c <__swsetup_r+0x96>
    7b06:	854a                	mv	a0,s2
    7b08:	209010ef          	jal	ra,9510 <_free_r>
    7b0c:	02042a23          	sw	zero,52(s0)
    7b10:	00c45783          	lhu	a5,12(s0)
    7b14:	00042223          	sw	zero,4(s0)
    7b18:	fdb7f793          	andi	a5,a5,-37
    7b1c:	00f41623          	sh	a5,12(s0)
    7b20:	481c                	lw	a5,16(s0)
    7b22:	c01c                	sw	a5,0(s0)
    7b24:	00c45783          	lhu	a5,12(s0)
    7b28:	0087e793          	ori	a5,a5,8
    7b2c:	00f41623          	sh	a5,12(s0)
    7b30:	481c                	lw	a5,16(s0)
    7b32:	ef89                	bnez	a5,7b4c <__swsetup_r+0xd6>
    7b34:	00c45783          	lhu	a5,12(s0)
    7b38:	20000713          	li	a4,512
    7b3c:	2807f793          	andi	a5,a5,640
    7b40:	00e78663          	beq	a5,a4,7b4c <__swsetup_r+0xd6>
    7b44:	85a2                	mv	a1,s0
    7b46:	854a                	mv	a0,s2
    7b48:	1e2010ef          	jal	ra,8d2a <__smakebuf_r>
    7b4c:	00c45783          	lhu	a5,12(s0)
    7b50:	0017f713          	andi	a4,a5,1
    7b54:	c705                	beqz	a4,7b7c <__swsetup_r+0x106>
    7b56:	485c                	lw	a5,20(s0)
    7b58:	00042423          	sw	zero,8(s0)
    7b5c:	40f007b3          	neg	a5,a5
    7b60:	cc1c                	sw	a5,24(s0)
    7b62:	481c                	lw	a5,16(s0)
    7b64:	4501                	li	a0,0
    7b66:	f3b5                	bnez	a5,7aca <__swsetup_r+0x54>
    7b68:	00c41783          	lh	a5,12(s0)
    7b6c:	0807f713          	andi	a4,a5,128
    7b70:	df29                	beqz	a4,7aca <__swsetup_r+0x54>
    7b72:	0407e793          	ori	a5,a5,64
    7b76:	00f41623          	sh	a5,12(s0)
    7b7a:	b7b9                	j	7ac8 <__swsetup_r+0x52>
    7b7c:	8b89                	andi	a5,a5,2
    7b7e:	4701                	li	a4,0
    7b80:	e391                	bnez	a5,7b84 <__swsetup_r+0x10e>
    7b82:	4858                	lw	a4,20(s0)
    7b84:	c418                	sw	a4,8(s0)
    7b86:	bff1                	j	7b62 <__swsetup_r+0xec>

00007b88 <quorem>:
quorem():
    7b88:	1101                	addi	sp,sp,-32
    7b8a:	cc22                	sw	s0,24(sp)
    7b8c:	491c                	lw	a5,16(a0)
    7b8e:	4980                	lw	s0,16(a1)
    7b90:	ce06                	sw	ra,28(sp)
    7b92:	ca26                	sw	s1,20(sp)
    7b94:	c84a                	sw	s2,16(sp)
    7b96:	c64e                	sw	s3,12(sp)
    7b98:	c452                	sw	s4,8(sp)
    7b9a:	c256                	sw	s5,4(sp)
    7b9c:	1287c163          	blt	a5,s0,7cbe <quorem+0x136>
    7ba0:	147d                	addi	s0,s0,-1
    7ba2:	00241813          	slli	a6,s0,0x2
    7ba6:	01458993          	addi	s3,a1,20
    7baa:	01098a33          	add	s4,s3,a6
    7bae:	01450913          	addi	s2,a0,20
    7bb2:	984a                	add	a6,a6,s2
    7bb4:	000a2783          	lw	a5,0(s4)
    7bb8:	00082703          	lw	a4,0(a6)
    7bbc:	0785                	addi	a5,a5,1
    7bbe:	02f754b3          	divu	s1,a4,a5
    7bc2:	06f76663          	bltu	a4,a5,7c2e <quorem+0xa6>
    7bc6:	68c1                	lui	a7,0x10
    7bc8:	834e                	mv	t1,s3
    7bca:	8e4a                	mv	t3,s2
    7bcc:	4e81                	li	t4,0
    7bce:	4f01                	li	t5,0
    7bd0:	18fd                	addi	a7,a7,-1
    7bd2:	0311                	addi	t1,t1,4
    7bd4:	ffc32603          	lw	a2,-4(t1)
    7bd8:	0e11                	addi	t3,t3,4
    7bda:	01167733          	and	a4,a2,a7
    7bde:	8241                	srli	a2,a2,0x10
    7be0:	02970733          	mul	a4,a4,s1
    7be4:	02960633          	mul	a2,a2,s1
    7be8:	9776                	add	a4,a4,t4
    7bea:	01075693          	srli	a3,a4,0x10
    7bee:	011777b3          	and	a5,a4,a7
    7bf2:	40ff07b3          	sub	a5,t5,a5
    7bf6:	9636                	add	a2,a2,a3
    7bf8:	ffce2683          	lw	a3,-4(t3)
    7bfc:	01065e93          	srli	t4,a2,0x10
    7c00:	01167633          	and	a2,a2,a7
    7c04:	0116f733          	and	a4,a3,a7
    7c08:	97ba                	add	a5,a5,a4
    7c0a:	82c1                	srli	a3,a3,0x10
    7c0c:	4107d713          	srai	a4,a5,0x10
    7c10:	8e91                	sub	a3,a3,a2
    7c12:	96ba                	add	a3,a3,a4
    7c14:	4106df13          	srai	t5,a3,0x10
    7c18:	0117f7b3          	and	a5,a5,a7
    7c1c:	06c2                	slli	a3,a3,0x10
    7c1e:	8fd5                	or	a5,a5,a3
    7c20:	fefe2e23          	sw	a5,-4(t3)
    7c24:	fa6a77e3          	bgeu	s4,t1,7bd2 <quorem+0x4a>
    7c28:	00082783          	lw	a5,0(a6)
    7c2c:	cbbd                	beqz	a5,7ca2 <quorem+0x11a>
    7c2e:	8aaa                	mv	s5,a0
    7c30:	6c2010ef          	jal	ra,92f2 <__mcmp>
    7c34:	04054963          	bltz	a0,7c86 <quorem+0xfe>
    7c38:	6641                	lui	a2,0x10
    7c3a:	0485                	addi	s1,s1,1
    7c3c:	85ca                	mv	a1,s2
    7c3e:	4501                	li	a0,0
    7c40:	167d                	addi	a2,a2,-1
    7c42:	0991                	addi	s3,s3,4
    7c44:	ffc9a803          	lw	a6,-4(s3)
    7c48:	4198                	lw	a4,0(a1)
    7c4a:	0591                	addi	a1,a1,4
    7c4c:	00c876b3          	and	a3,a6,a2
    7c50:	8d15                	sub	a0,a0,a3
    7c52:	00c776b3          	and	a3,a4,a2
    7c56:	96aa                	add	a3,a3,a0
    7c58:	01075793          	srli	a5,a4,0x10
    7c5c:	01085813          	srli	a6,a6,0x10
    7c60:	4106d713          	srai	a4,a3,0x10
    7c64:	410787b3          	sub	a5,a5,a6
    7c68:	97ba                	add	a5,a5,a4
    7c6a:	4107d513          	srai	a0,a5,0x10
    7c6e:	8ef1                	and	a3,a3,a2
    7c70:	07c2                	slli	a5,a5,0x10
    7c72:	8fd5                	or	a5,a5,a3
    7c74:	fef5ae23          	sw	a5,-4(a1)
    7c78:	fd3a75e3          	bgeu	s4,s3,7c42 <quorem+0xba>
    7c7c:	00241793          	slli	a5,s0,0x2
    7c80:	97ca                	add	a5,a5,s2
    7c82:	4398                	lw	a4,0(a5)
    7c84:	c71d                	beqz	a4,7cb2 <quorem+0x12a>
    7c86:	8526                	mv	a0,s1
    7c88:	40f2                	lw	ra,28(sp)
    7c8a:	4462                	lw	s0,24(sp)
    7c8c:	44d2                	lw	s1,20(sp)
    7c8e:	4942                	lw	s2,16(sp)
    7c90:	49b2                	lw	s3,12(sp)
    7c92:	4a22                	lw	s4,8(sp)
    7c94:	4a92                	lw	s5,4(sp)
    7c96:	6105                	addi	sp,sp,32
    7c98:	8082                	ret
    7c9a:	00082783          	lw	a5,0(a6)
    7c9e:	e789                	bnez	a5,7ca8 <quorem+0x120>
    7ca0:	147d                	addi	s0,s0,-1
    7ca2:	1871                	addi	a6,a6,-4
    7ca4:	ff096be3          	bltu	s2,a6,7c9a <quorem+0x112>
    7ca8:	c900                	sw	s0,16(a0)
    7caa:	b751                	j	7c2e <quorem+0xa6>
    7cac:	4398                	lw	a4,0(a5)
    7cae:	e709                	bnez	a4,7cb8 <quorem+0x130>
    7cb0:	147d                	addi	s0,s0,-1
    7cb2:	17f1                	addi	a5,a5,-4
    7cb4:	fef96ce3          	bltu	s2,a5,7cac <quorem+0x124>
    7cb8:	008aa823          	sw	s0,16(s5)
    7cbc:	b7e9                	j	7c86 <quorem+0xfe>
    7cbe:	4501                	li	a0,0
    7cc0:	b7e1                	j	7c88 <quorem+0x100>

00007cc2 <_dtoa_r>:
_dtoa_r():
    7cc2:	7175                	addi	sp,sp,-144
    7cc4:	d83e                	sw	a5,48(sp)
    7cc6:	515c                	lw	a5,36(a0)
    7cc8:	c522                	sw	s0,136(sp)
    7cca:	c326                	sw	s1,132(sp)
    7ccc:	c14a                	sw	s2,128(sp)
    7cce:	dece                	sw	s3,124(sp)
    7cd0:	dcd2                	sw	s4,120(sp)
    7cd2:	d4e2                	sw	s8,104(sp)
    7cd4:	c706                	sw	ra,140(sp)
    7cd6:	dad6                	sw	s5,116(sp)
    7cd8:	d8da                	sw	s6,112(sp)
    7cda:	d6de                	sw	s7,108(sp)
    7cdc:	d2e6                	sw	s9,100(sp)
    7cde:	d0ea                	sw	s10,96(sp)
    7ce0:	ceee                	sw	s11,92(sp)
    7ce2:	c236                	sw	a3,4(sp)
    7ce4:	c63a                	sw	a4,12(sp)
    7ce6:	ca46                	sw	a7,20(sp)
    7ce8:	84aa                	mv	s1,a0
    7cea:	842e                	mv	s0,a1
    7cec:	8932                	mv	s2,a2
    7cee:	89c2                	mv	s3,a6
    7cf0:	8a2e                	mv	s4,a1
    7cf2:	8c32                	mv	s8,a2
    7cf4:	ef89                	bnez	a5,7d0e <_dtoa_r+0x4c>
    7cf6:	4541                	li	a0,16
    7cf8:	0d4010ef          	jal	ra,8dcc <malloc>
    7cfc:	d0c8                	sw	a0,36(s1)
    7cfe:	00052223          	sw	zero,4(a0)
    7d02:	00052423          	sw	zero,8(a0)
    7d06:	00052023          	sw	zero,0(a0)
    7d0a:	00052623          	sw	zero,12(a0)
    7d0e:	50dc                	lw	a5,36(s1)
    7d10:	438c                	lw	a1,0(a5)
    7d12:	cd89                	beqz	a1,7d2c <_dtoa_r+0x6a>
    7d14:	43d8                	lw	a4,4(a5)
    7d16:	4785                	li	a5,1
    7d18:	8526                	mv	a0,s1
    7d1a:	00e797b3          	sll	a5,a5,a4
    7d1e:	c59c                	sw	a5,8(a1)
    7d20:	c1d8                	sw	a4,4(a1)
    7d22:	158010ef          	jal	ra,8e7a <_Bfree>
    7d26:	50dc                	lw	a5,36(s1)
    7d28:	0007a023          	sw	zero,0(a5)
    7d2c:	04095363          	bgez	s2,7d72 <_dtoa_r+0xb0>
    7d30:	4785                	li	a5,1
    7d32:	00191c13          	slli	s8,s2,0x1
    7d36:	00f9a023          	sw	a5,0(s3)
    7d3a:	001c5c13          	srli	s8,s8,0x1
    7d3e:	7ff007b7          	lui	a5,0x7ff00
    7d42:	00fc7733          	and	a4,s8,a5
    7d46:	06f71463          	bne	a4,a5,7dae <_dtoa_r+0xec>
    7d4a:	5742                	lw	a4,48(sp)
    7d4c:	6789                	lui	a5,0x2
    7d4e:	0c32                	slli	s8,s8,0xc
    7d50:	70f78793          	addi	a5,a5,1807 # 270f <TIM7_IRQHandler+0x3>
    7d54:	00cc5c13          	srli	s8,s8,0xc
    7d58:	c31c                	sw	a5,0(a4)
    7d5a:	008c6c33          	or	s8,s8,s0
    7d5e:	320c05e3          	beqz	s8,8888 <_dtoa_r+0xbc6>
    7d62:	47d2                	lw	a5,20(sp)
    7d64:	eb91                	bnez	a5,7d78 <_dtoa_r+0xb6>
    7d66:	00002797          	auipc	a5,0x2
    7d6a:	6f678793          	addi	a5,a5,1782 # a45c <__clz_tab+0x19c>
    7d6e:	c03e                	sw	a5,0(sp)
    7d70:	a839                	j	7d8e <_dtoa_r+0xcc>
    7d72:	0009a023          	sw	zero,0(s3)
    7d76:	b7e1                	j	7d3e <_dtoa_r+0x7c>
    7d78:	00002797          	auipc	a5,0x2
    7d7c:	6e478793          	addi	a5,a5,1764 # a45c <__clz_tab+0x19c>
    7d80:	c03e                	sw	a5,0(sp)
    7d82:	00002797          	auipc	a5,0x2
    7d86:	6dd78793          	addi	a5,a5,1757 # a45f <__clz_tab+0x19f>
    7d8a:	4752                	lw	a4,20(sp)
    7d8c:	c31c                	sw	a5,0(a4)
    7d8e:	40ba                	lw	ra,140(sp)
    7d90:	442a                	lw	s0,136(sp)
    7d92:	4502                	lw	a0,0(sp)
    7d94:	449a                	lw	s1,132(sp)
    7d96:	490a                	lw	s2,128(sp)
    7d98:	59f6                	lw	s3,124(sp)
    7d9a:	5a66                	lw	s4,120(sp)
    7d9c:	5ad6                	lw	s5,116(sp)
    7d9e:	5b46                	lw	s6,112(sp)
    7da0:	5bb6                	lw	s7,108(sp)
    7da2:	5c26                	lw	s8,104(sp)
    7da4:	5c96                	lw	s9,100(sp)
    7da6:	5d06                	lw	s10,96(sp)
    7da8:	4df6                	lw	s11,92(sp)
    7daa:	6149                	addi	sp,sp,144
    7dac:	8082                	ret
    7dae:	4601                	li	a2,0
    7db0:	4681                	li	a3,0
    7db2:	8522                	mv	a0,s0
    7db4:	85e2                	mv	a1,s8
    7db6:	ce22                	sw	s0,28(sp)
    7db8:	d462                	sw	s8,40(sp)
    7dba:	a96fe0ef          	jal	ra,6050 <__eqdf2>
    7dbe:	e105                	bnez	a0,7dde <_dtoa_r+0x11c>
    7dc0:	5742                	lw	a4,48(sp)
    7dc2:	4785                	li	a5,1
    7dc4:	c31c                	sw	a5,0(a4)
    7dc6:	00002797          	auipc	a5,0x2
    7dca:	61278793          	addi	a5,a5,1554 # a3d8 <__clz_tab+0x118>
    7dce:	c03e                	sw	a5,0(sp)
    7dd0:	47d2                	lw	a5,20(sp)
    7dd2:	dfd5                	beqz	a5,7d8e <_dtoa_r+0xcc>
    7dd4:	00002797          	auipc	a5,0x2
    7dd8:	60578793          	addi	a5,a5,1541 # a3d9 <__clz_tab+0x119>
    7ddc:	b77d                	j	7d8a <_dtoa_r+0xc8>
    7dde:	00b8                	addi	a4,sp,72
    7de0:	00f4                	addi	a3,sp,76
    7de2:	8662                	mv	a2,s8
    7de4:	85a2                	mv	a1,s0
    7de6:	8526                	mv	a0,s1
    7de8:	014c5913          	srli	s2,s8,0x14
    7dec:	62a010ef          	jal	ra,9416 <__d2b>
    7df0:	7ff97913          	andi	s2,s2,2047
    7df4:	89aa                	mv	s3,a0
    7df6:	4aa6                	lw	s5,72(sp)
    7df8:	10090d63          	beqz	s2,7f12 <_dtoa_r+0x250>
    7dfc:	57a2                	lw	a5,40(sp)
    7dfe:	4572                	lw	a0,28(sp)
    7e00:	c0190913          	addi	s2,s2,-1023
    7e04:	00c79593          	slli	a1,a5,0xc
    7e08:	81b1                	srli	a1,a1,0xc
    7e0a:	3ff007b7          	lui	a5,0x3ff00
    7e0e:	8ddd                	or	a1,a1,a5
    7e10:	dc02                	sw	zero,56(sp)
    7e12:	00002797          	auipc	a5,0x2
    7e16:	5f678793          	addi	a5,a5,1526 # a408 <__clz_tab+0x148>
    7e1a:	4390                	lw	a2,0(a5)
    7e1c:	43d4                	lw	a3,4(a5)
    7e1e:	80bfe0ef          	jal	ra,6628 <__subdf3>
    7e22:	00002797          	auipc	a5,0x2
    7e26:	5ee78793          	addi	a5,a5,1518 # a410 <__clz_tab+0x150>
    7e2a:	4390                	lw	a2,0(a5)
    7e2c:	43d4                	lw	a3,4(a5)
    7e2e:	b42fe0ef          	jal	ra,6170 <__muldf3>
    7e32:	00002797          	auipc	a5,0x2
    7e36:	5e678793          	addi	a5,a5,1510 # a418 <__clz_tab+0x158>
    7e3a:	4390                	lw	a2,0(a5)
    7e3c:	43d4                	lw	a3,4(a5)
    7e3e:	d2efd0ef          	jal	ra,536c <__adddf3>
    7e42:	8b2a                	mv	s6,a0
    7e44:	854a                	mv	a0,s2
    7e46:	8bae                	mv	s7,a1
    7e48:	f83fe0ef          	jal	ra,6dca <__floatsidf>
    7e4c:	00002797          	auipc	a5,0x2
    7e50:	5d478793          	addi	a5,a5,1492 # a420 <__clz_tab+0x160>
    7e54:	4390                	lw	a2,0(a5)
    7e56:	43d4                	lw	a3,4(a5)
    7e58:	b18fe0ef          	jal	ra,6170 <__muldf3>
    7e5c:	862a                	mv	a2,a0
    7e5e:	86ae                	mv	a3,a1
    7e60:	855a                	mv	a0,s6
    7e62:	85de                	mv	a1,s7
    7e64:	d08fd0ef          	jal	ra,536c <__adddf3>
    7e68:	8b2a                	mv	s6,a0
    7e6a:	8bae                	mv	s7,a1
    7e6c:	ef7fe0ef          	jal	ra,6d62 <__fixdfsi>
    7e70:	842a                	mv	s0,a0
    7e72:	4601                	li	a2,0
    7e74:	4681                	li	a3,0
    7e76:	855a                	mv	a0,s6
    7e78:	85de                	mv	a1,s7
    7e7a:	a40fe0ef          	jal	ra,60ba <__ledf2>
    7e7e:	00055b63          	bgez	a0,7e94 <_dtoa_r+0x1d2>
    7e82:	8522                	mv	a0,s0
    7e84:	f47fe0ef          	jal	ra,6dca <__floatsidf>
    7e88:	865a                	mv	a2,s6
    7e8a:	86de                	mv	a3,s7
    7e8c:	9c4fe0ef          	jal	ra,6050 <__eqdf2>
    7e90:	c111                	beqz	a0,7e94 <_dtoa_r+0x1d2>
    7e92:	147d                	addi	s0,s0,-1
    7e94:	4705                	li	a4,1
    7e96:	47d9                	li	a5,22
    7e98:	d63a                	sw	a4,44(sp)
    7e9a:	0287e363          	bltu	a5,s0,7ec0 <_dtoa_r+0x1fe>
    7e9e:	00341713          	slli	a4,s0,0x3
    7ea2:	00002797          	auipc	a5,0x2
    7ea6:	64678793          	addi	a5,a5,1606 # a4e8 <__mprec_tens>
    7eaa:	97ba                	add	a5,a5,a4
    7eac:	4390                	lw	a2,0(a5)
    7eae:	43d4                	lw	a3,4(a5)
    7eb0:	4572                	lw	a0,28(sp)
    7eb2:	55a2                	lw	a1,40(sp)
    7eb4:	a06fe0ef          	jal	ra,60ba <__ledf2>
    7eb8:	00055363          	bgez	a0,7ebe <_dtoa_r+0x1fc>
    7ebc:	147d                	addi	s0,s0,-1
    7ebe:	d602                	sw	zero,44(sp)
    7ec0:	412a8933          	sub	s2,s5,s2
    7ec4:	fff90b93          	addi	s7,s2,-1
    7ec8:	4b01                	li	s6,0
    7eca:	000bd663          	bgez	s7,7ed6 <_dtoa_r+0x214>
    7ece:	4b05                	li	s6,1
    7ed0:	412b0b33          	sub	s6,s6,s2
    7ed4:	4b81                	li	s7,0
    7ed6:	06044e63          	bltz	s0,7f52 <_dtoa_r+0x290>
    7eda:	9ba2                	add	s7,s7,s0
    7edc:	cc22                	sw	s0,24(sp)
    7ede:	4a81                	li	s5,0
    7ee0:	4712                	lw	a4,4(sp)
    7ee2:	47a5                	li	a5,9
    7ee4:	14e7e563          	bltu	a5,a4,802e <_dtoa_r+0x36c>
    7ee8:	4795                	li	a5,5
    7eea:	4c85                	li	s9,1
    7eec:	00e7d663          	bge	a5,a4,7ef8 <_dtoa_r+0x236>
    7ef0:	ffc70793          	addi	a5,a4,-4
    7ef4:	c23e                	sw	a5,4(sp)
    7ef6:	4c81                	li	s9,0
    7ef8:	4712                	lw	a4,4(sp)
    7efa:	478d                	li	a5,3
    7efc:	10f70e63          	beq	a4,a5,8018 <_dtoa_r+0x356>
    7f00:	04e7cf63          	blt	a5,a4,7f5e <_dtoa_r+0x29c>
    7f04:	4789                	li	a5,2
    7f06:	c802                	sw	zero,16(sp)
    7f08:	06f70d63          	beq	a4,a5,7f82 <_dtoa_r+0x2c0>
    7f0c:	4785                	li	a5,1
    7f0e:	c83e                	sw	a5,16(sp)
    7f10:	a08d                	j	7f72 <_dtoa_r+0x2b0>
    7f12:	4936                	lw	s2,76(sp)
    7f14:	02000793          	li	a5,32
    7f18:	9956                	add	s2,s2,s5
    7f1a:	43290713          	addi	a4,s2,1074
    7f1e:	02e7d563          	bge	a5,a4,7f48 <_dtoa_r+0x286>
    7f22:	04000513          	li	a0,64
    7f26:	8d19                	sub	a0,a0,a4
    7f28:	41290793          	addi	a5,s2,1042
    7f2c:	00ac1533          	sll	a0,s8,a0
    7f30:	00f45433          	srl	s0,s0,a5
    7f34:	8d41                	or	a0,a0,s0
    7f36:	585010ef          	jal	ra,9cba <__floatunsidf>
    7f3a:	fe1007b7          	lui	a5,0xfe100
    7f3e:	95be                	add	a1,a1,a5
    7f40:	4785                	li	a5,1
    7f42:	197d                	addi	s2,s2,-1
    7f44:	dc3e                	sw	a5,56(sp)
    7f46:	b5f1                	j	7e12 <_dtoa_r+0x150>
    7f48:	40e78533          	sub	a0,a5,a4
    7f4c:	00a41533          	sll	a0,s0,a0
    7f50:	b7dd                	j	7f36 <_dtoa_r+0x274>
    7f52:	408b0b33          	sub	s6,s6,s0
    7f56:	40800ab3          	neg	s5,s0
    7f5a:	cc02                	sw	zero,24(sp)
    7f5c:	b751                	j	7ee0 <_dtoa_r+0x21e>
    7f5e:	4712                	lw	a4,4(sp)
    7f60:	4791                	li	a5,4
    7f62:	00f70e63          	beq	a4,a5,7f7e <_dtoa_r+0x2bc>
    7f66:	4705                	li	a4,1
    7f68:	c83a                	sw	a4,16(sp)
    7f6a:	4712                	lw	a4,4(sp)
    7f6c:	4795                	li	a5,5
    7f6e:	0af70663          	beq	a4,a5,801a <_dtoa_r+0x358>
    7f72:	57fd                	li	a5,-1
    7f74:	c43e                	sw	a5,8(sp)
    7f76:	5dfd                	li	s11,-1
    7f78:	47c9                	li	a5,18
    7f7a:	c602                	sw	zero,12(sp)
    7f7c:	a819                	j	7f92 <_dtoa_r+0x2d0>
    7f7e:	4785                	li	a5,1
    7f80:	c83e                	sw	a5,16(sp)
    7f82:	47b2                	lw	a5,12(sp)
    7f84:	0af04863          	bgtz	a5,8034 <_dtoa_r+0x372>
    7f88:	4785                	li	a5,1
    7f8a:	4705                	li	a4,1
    7f8c:	c43e                	sw	a5,8(sp)
    7f8e:	4d85                	li	s11,1
    7f90:	c63a                	sw	a4,12(sp)
    7f92:	0244a903          	lw	s2,36(s1)
    7f96:	4711                	li	a4,4
    7f98:	00092223          	sw	zero,4(s2)
    7f9c:	01470693          	addi	a3,a4,20
    7fa0:	00492583          	lw	a1,4(s2)
    7fa4:	08d7fc63          	bgeu	a5,a3,803c <_dtoa_r+0x37a>
    7fa8:	8526                	mv	a0,s1
    7faa:	649000ef          	jal	ra,8df2 <_Balloc>
    7fae:	50dc                	lw	a5,36(s1)
    7fb0:	00a92023          	sw	a0,0(s2)
    7fb4:	439c                	lw	a5,0(a5)
    7fb6:	c03e                	sw	a5,0(sp)
    7fb8:	47b9                	li	a5,14
    7fba:	1db7e663          	bltu	a5,s11,8186 <_dtoa_r+0x4c4>
    7fbe:	1c0c8463          	beqz	s9,8186 <_dtoa_r+0x4c4>
    7fc2:	0a805e63          	blez	s0,807e <_dtoa_r+0x3bc>
    7fc6:	00f47793          	andi	a5,s0,15
    7fca:	00379713          	slli	a4,a5,0x3
    7fce:	40445c93          	srai	s9,s0,0x4
    7fd2:	00002797          	auipc	a5,0x2
    7fd6:	51678793          	addi	a5,a5,1302 # a4e8 <__mprec_tens>
    7fda:	97ba                	add	a5,a5,a4
    7fdc:	010cf693          	andi	a3,s9,16
    7fe0:	4398                	lw	a4,0(a5)
    7fe2:	4909                	li	s2,2
    7fe4:	43dc                	lw	a5,4(a5)
    7fe6:	c685                	beqz	a3,800e <_dtoa_r+0x34c>
    7fe8:	00002697          	auipc	a3,0x2
    7fec:	4d868693          	addi	a3,a3,1240 # a4c0 <__mprec_bigtens>
    7ff0:	5290                	lw	a2,32(a3)
    7ff2:	4572                	lw	a0,28(sp)
    7ff4:	52d4                	lw	a3,36(a3)
    7ff6:	55a2                	lw	a1,40(sp)
    7ff8:	d03a                	sw	a4,32(sp)
    7ffa:	d23e                	sw	a5,36(sp)
    7ffc:	aa1fd0ef          	jal	ra,5a9c <__divdf3>
    8000:	5702                	lw	a4,32(sp)
    8002:	5792                	lw	a5,36(sp)
    8004:	00fcfc93          	andi	s9,s9,15
    8008:	8a2a                	mv	s4,a0
    800a:	8c2e                	mv	s8,a1
    800c:	490d                	li	s2,3
    800e:	00002d17          	auipc	s10,0x2
    8012:	4b2d0d13          	addi	s10,s10,1202 # a4c0 <__mprec_bigtens>
    8016:	a889                	j	8068 <_dtoa_r+0x3a6>
    8018:	c802                	sw	zero,16(sp)
    801a:	47b2                	lw	a5,12(sp)
    801c:	97a2                	add	a5,a5,s0
    801e:	c43e                	sw	a5,8(sp)
    8020:	00178d93          	addi	s11,a5,1
    8024:	87ee                	mv	a5,s11
    8026:	f7b046e3          	bgtz	s11,7f92 <_dtoa_r+0x2d0>
    802a:	4785                	li	a5,1
    802c:	b79d                	j	7f92 <_dtoa_r+0x2d0>
    802e:	4c85                	li	s9,1
    8030:	c202                	sw	zero,4(sp)
    8032:	bde9                	j	7f0c <_dtoa_r+0x24a>
    8034:	47b2                	lw	a5,12(sp)
    8036:	c43e                	sw	a5,8(sp)
    8038:	8dbe                	mv	s11,a5
    803a:	bfa1                	j	7f92 <_dtoa_r+0x2d0>
    803c:	0585                	addi	a1,a1,1
    803e:	00b92223          	sw	a1,4(s2)
    8042:	0706                	slli	a4,a4,0x1
    8044:	bfa1                	j	7f9c <_dtoa_r+0x2da>
    8046:	001cf693          	andi	a3,s9,1
    804a:	ce81                	beqz	a3,8062 <_dtoa_r+0x3a0>
    804c:	000d2603          	lw	a2,0(s10)
    8050:	004d2683          	lw	a3,4(s10)
    8054:	853a                	mv	a0,a4
    8056:	85be                	mv	a1,a5
    8058:	918fe0ef          	jal	ra,6170 <__muldf3>
    805c:	0905                	addi	s2,s2,1
    805e:	872a                	mv	a4,a0
    8060:	87ae                	mv	a5,a1
    8062:	401cdc93          	srai	s9,s9,0x1
    8066:	0d21                	addi	s10,s10,8
    8068:	fc0c9fe3          	bnez	s9,8046 <_dtoa_r+0x384>
    806c:	863a                	mv	a2,a4
    806e:	86be                	mv	a3,a5
    8070:	8552                	mv	a0,s4
    8072:	85e2                	mv	a1,s8
    8074:	a29fd0ef          	jal	ra,5a9c <__divdf3>
    8078:	8a2a                	mv	s4,a0
    807a:	8c2e                	mv	s8,a1
    807c:	a081                	j	80bc <_dtoa_r+0x3fa>
    807e:	4909                	li	s2,2
    8080:	cc15                	beqz	s0,80bc <_dtoa_r+0x3fa>
    8082:	40800cb3          	neg	s9,s0
    8086:	00fcf793          	andi	a5,s9,15
    808a:	00379713          	slli	a4,a5,0x3
    808e:	00002797          	auipc	a5,0x2
    8092:	45a78793          	addi	a5,a5,1114 # a4e8 <__mprec_tens>
    8096:	97ba                	add	a5,a5,a4
    8098:	4390                	lw	a2,0(a5)
    809a:	43d4                	lw	a3,4(a5)
    809c:	4572                	lw	a0,28(sp)
    809e:	55a2                	lw	a1,40(sp)
    80a0:	404cdc93          	srai	s9,s9,0x4
    80a4:	00002d17          	auipc	s10,0x2
    80a8:	41cd0d13          	addi	s10,s10,1052 # a4c0 <__mprec_bigtens>
    80ac:	8c4fe0ef          	jal	ra,6170 <__muldf3>
    80b0:	8a2a                	mv	s4,a0
    80b2:	8c2e                	mv	s8,a1
    80b4:	4781                	li	a5,0
    80b6:	120c9c63          	bnez	s9,81ee <_dtoa_r+0x52c>
    80ba:	ffdd                	bnez	a5,8078 <_dtoa_r+0x3b6>
    80bc:	57b2                	lw	a5,44(sp)
    80be:	14078763          	beqz	a5,820c <_dtoa_r+0x54a>
    80c2:	00002717          	auipc	a4,0x2
    80c6:	36670713          	addi	a4,a4,870 # a428 <__clz_tab+0x168>
    80ca:	4310                	lw	a2,0(a4)
    80cc:	4354                	lw	a3,4(a4)
    80ce:	8552                	mv	a0,s4
    80d0:	85e2                	mv	a1,s8
    80d2:	d052                	sw	s4,32(sp)
    80d4:	fe7fd0ef          	jal	ra,60ba <__ledf2>
    80d8:	12055a63          	bgez	a0,820c <_dtoa_r+0x54a>
    80dc:	120d8b63          	beqz	s11,8212 <_dtoa_r+0x550>
    80e0:	47a2                	lw	a5,8(sp)
    80e2:	0af05063          	blez	a5,8182 <_dtoa_r+0x4c0>
    80e6:	00002717          	auipc	a4,0x2
    80ea:	34a70713          	addi	a4,a4,842 # a430 <__clz_tab+0x170>
    80ee:	5782                	lw	a5,32(sp)
    80f0:	4310                	lw	a2,0(a4)
    80f2:	4354                	lw	a3,4(a4)
    80f4:	853e                	mv	a0,a5
    80f6:	85e2                	mv	a1,s8
    80f8:	878fe0ef          	jal	ra,6170 <__muldf3>
    80fc:	47a2                	lw	a5,8(sp)
    80fe:	fff40d13          	addi	s10,s0,-1
    8102:	8a2a                	mv	s4,a0
    8104:	8c2e                	mv	s8,a1
    8106:	0905                	addi	s2,s2,1
    8108:	8762                	mv	a4,s8
    810a:	854a                	mv	a0,s2
    810c:	de3e                	sw	a5,60(sp)
    810e:	da52                	sw	s4,52(sp)
    8110:	8cba                	mv	s9,a4
    8112:	d03a                	sw	a4,32(sp)
    8114:	cb7fe0ef          	jal	ra,6dca <__floatsidf>
    8118:	5852                	lw	a6,52(sp)
    811a:	5702                	lw	a4,32(sp)
    811c:	fcc00937          	lui	s2,0xfcc00
    8120:	8642                	mv	a2,a6
    8122:	86ba                	mv	a3,a4
    8124:	84cfe0ef          	jal	ra,6170 <__muldf3>
    8128:	00002697          	auipc	a3,0x2
    812c:	31068693          	addi	a3,a3,784 # a438 <__clz_tab+0x178>
    8130:	4290                	lw	a2,0(a3)
    8132:	42d4                	lw	a3,4(a3)
    8134:	8c52                	mv	s8,s4
    8136:	a36fd0ef          	jal	ra,536c <__adddf3>
    813a:	57f2                	lw	a5,60(sp)
    813c:	8a2a                	mv	s4,a0
    813e:	992e                	add	s2,s2,a1
    8140:	efe1                	bnez	a5,8218 <_dtoa_r+0x556>
    8142:	00002797          	auipc	a5,0x2
    8146:	2fe78793          	addi	a5,a5,766 # a440 <__clz_tab+0x180>
    814a:	5852                	lw	a6,52(sp)
    814c:	5702                	lw	a4,32(sp)
    814e:	4390                	lw	a2,0(a5)
    8150:	43d4                	lw	a3,4(a5)
    8152:	8542                	mv	a0,a6
    8154:	85ba                	mv	a1,a4
    8156:	cd2fe0ef          	jal	ra,6628 <__subdf3>
    815a:	8652                	mv	a2,s4
    815c:	86ca                	mv	a3,s2
    815e:	8c2a                	mv	s8,a0
    8160:	8cae                	mv	s9,a1
    8162:	26f010ef          	jal	ra,9bd0 <__gedf2>
    8166:	54a04a63          	bgtz	a0,86ba <_dtoa_r+0x9f8>
    816a:	800007b7          	lui	a5,0x80000
    816e:	0127c7b3          	xor	a5,a5,s2
    8172:	8652                	mv	a2,s4
    8174:	86be                	mv	a3,a5
    8176:	8562                	mv	a0,s8
    8178:	85e6                	mv	a1,s9
    817a:	f41fd0ef          	jal	ra,60ba <__ledf2>
    817e:	52054b63          	bltz	a0,86b4 <_dtoa_r+0x9f2>
    8182:	4a72                	lw	s4,28(sp)
    8184:	5c22                	lw	s8,40(sp)
    8186:	47b6                	lw	a5,76(sp)
    8188:	3007c763          	bltz	a5,8496 <_dtoa_r+0x7d4>
    818c:	4739                	li	a4,14
    818e:	30874463          	blt	a4,s0,8496 <_dtoa_r+0x7d4>
    8192:	00341713          	slli	a4,s0,0x3
    8196:	00002797          	auipc	a5,0x2
    819a:	35278793          	addi	a5,a5,850 # a4e8 <__mprec_tens>
    819e:	97ba                	add	a5,a5,a4
    81a0:	0007ab03          	lw	s6,0(a5)
    81a4:	0047ab83          	lw	s7,4(a5)
    81a8:	47b2                	lw	a5,12(sp)
    81aa:	2007d263          	bgez	a5,83ae <_dtoa_r+0x6ec>
    81ae:	21b04063          	bgtz	s11,83ae <_dtoa_r+0x6ec>
    81b2:	500d9163          	bnez	s11,86b4 <_dtoa_r+0x9f2>
    81b6:	00002797          	auipc	a5,0x2
    81ba:	28a78793          	addi	a5,a5,650 # a440 <__clz_tab+0x180>
    81be:	4390                	lw	a2,0(a5)
    81c0:	43d4                	lw	a3,4(a5)
    81c2:	855a                	mv	a0,s6
    81c4:	85de                	mv	a1,s7
    81c6:	fabfd0ef          	jal	ra,6170 <__muldf3>
    81ca:	8652                	mv	a2,s4
    81cc:	86e2                	mv	a3,s8
    81ce:	203010ef          	jal	ra,9bd0 <__gedf2>
    81d2:	4a81                	li	s5,0
    81d4:	4901                	li	s2,0
    81d6:	4a055763          	bgez	a0,8684 <_dtoa_r+0x9c2>
    81da:	4782                	lw	a5,0(sp)
    81dc:	4702                	lw	a4,0(sp)
    81de:	0405                	addi	s0,s0,1
    81e0:	00178a13          	addi	s4,a5,1
    81e4:	03100793          	li	a5,49
    81e8:	00f70023          	sb	a5,0(a4)
    81ec:	a145                	j	868c <_dtoa_r+0x9ca>
    81ee:	001cf713          	andi	a4,s9,1
    81f2:	cb09                	beqz	a4,8204 <_dtoa_r+0x542>
    81f4:	000d2603          	lw	a2,0(s10)
    81f8:	004d2683          	lw	a3,4(s10)
    81fc:	0905                	addi	s2,s2,1
    81fe:	f73fd0ef          	jal	ra,6170 <__muldf3>
    8202:	4785                	li	a5,1
    8204:	401cdc93          	srai	s9,s9,0x1
    8208:	0d21                	addi	s10,s10,8
    820a:	b575                	j	80b6 <_dtoa_r+0x3f4>
    820c:	8d22                	mv	s10,s0
    820e:	87ee                	mv	a5,s11
    8210:	bde5                	j	8108 <_dtoa_r+0x446>
    8212:	8d22                	mv	s10,s0
    8214:	4781                	li	a5,0
    8216:	bdcd                	j	8108 <_dtoa_r+0x446>
    8218:	fff78693          	addi	a3,a5,-1
    821c:	00369613          	slli	a2,a3,0x3
    8220:	00002697          	auipc	a3,0x2
    8224:	2c868693          	addi	a3,a3,712 # a4e8 <__mprec_tens>
    8228:	96b2                	add	a3,a3,a2
    822a:	4288                	lw	a0,0(a3)
    822c:	42cc                	lw	a1,4(a3)
    822e:	4682                	lw	a3,0(sp)
    8230:	97b6                	add	a5,a5,a3
    8232:	da3e                	sw	a5,52(sp)
    8234:	47c2                	lw	a5,16(sp)
    8236:	c3e9                	beqz	a5,82f8 <_dtoa_r+0x636>
    8238:	00002797          	auipc	a5,0x2
    823c:	21078793          	addi	a5,a5,528 # a448 <__clz_tab+0x188>
    8240:	862a                	mv	a2,a0
    8242:	86ae                	mv	a3,a1
    8244:	4388                	lw	a0,0(a5)
    8246:	43cc                	lw	a1,4(a5)
    8248:	de4a                	sw	s2,60(sp)
    824a:	d052                	sw	s4,32(sp)
    824c:	851fd0ef          	jal	ra,5a9c <__divdf3>
    8250:	5802                	lw	a6,32(sp)
    8252:	5772                	lw	a4,60(sp)
    8254:	00002917          	auipc	s2,0x2
    8258:	1dc90913          	addi	s2,s2,476 # a430 <__clz_tab+0x170>
    825c:	8642                	mv	a2,a6
    825e:	86ba                	mv	a3,a4
    8260:	bc8fe0ef          	jal	ra,6628 <__subdf3>
    8264:	4a02                	lw	s4,0(sp)
    8266:	d02a                	sw	a0,32(sp)
    8268:	d22e                	sw	a1,36(sp)
    826a:	85e6                	mv	a1,s9
    826c:	8562                	mv	a0,s8
    826e:	af5fe0ef          	jal	ra,6d62 <__fixdfsi>
    8272:	de2a                	sw	a0,60(sp)
    8274:	b57fe0ef          	jal	ra,6dca <__floatsidf>
    8278:	862a                	mv	a2,a0
    827a:	86ae                	mv	a3,a1
    827c:	8562                	mv	a0,s8
    827e:	85e6                	mv	a1,s9
    8280:	ba8fe0ef          	jal	ra,6628 <__subdf3>
    8284:	57f2                	lw	a5,60(sp)
    8286:	8c2a                	mv	s8,a0
    8288:	8cae                	mv	s9,a1
    828a:	862a                	mv	a2,a0
    828c:	86ae                	mv	a3,a1
    828e:	5502                	lw	a0,32(sp)
    8290:	5592                	lw	a1,36(sp)
    8292:	0a05                	addi	s4,s4,1
    8294:	03078793          	addi	a5,a5,48
    8298:	fefa0fa3          	sb	a5,-1(s4)
    829c:	135010ef          	jal	ra,9bd0 <__gedf2>
    82a0:	0ea04863          	bgtz	a0,8390 <_dtoa_r+0x6ce>
    82a4:	00002797          	auipc	a5,0x2
    82a8:	18478793          	addi	a5,a5,388 # a428 <__clz_tab+0x168>
    82ac:	4388                	lw	a0,0(a5)
    82ae:	43cc                	lw	a1,4(a5)
    82b0:	8662                	mv	a2,s8
    82b2:	86e6                	mv	a3,s9
    82b4:	b74fe0ef          	jal	ra,6628 <__subdf3>
    82b8:	862a                	mv	a2,a0
    82ba:	86ae                	mv	a3,a1
    82bc:	5502                	lw	a0,32(sp)
    82be:	5592                	lw	a1,36(sp)
    82c0:	111010ef          	jal	ra,9bd0 <__gedf2>
    82c4:	18a04263          	bgtz	a0,8448 <_dtoa_r+0x786>
    82c8:	57d2                	lw	a5,52(sp)
    82ca:	eafa0ce3          	beq	s4,a5,8182 <_dtoa_r+0x4c0>
    82ce:	00092603          	lw	a2,0(s2)
    82d2:	00492683          	lw	a3,4(s2)
    82d6:	5502                	lw	a0,32(sp)
    82d8:	5592                	lw	a1,36(sp)
    82da:	e97fd0ef          	jal	ra,6170 <__muldf3>
    82de:	00092603          	lw	a2,0(s2)
    82e2:	00492683          	lw	a3,4(s2)
    82e6:	d02a                	sw	a0,32(sp)
    82e8:	d22e                	sw	a1,36(sp)
    82ea:	8562                	mv	a0,s8
    82ec:	85e6                	mv	a1,s9
    82ee:	e83fd0ef          	jal	ra,6170 <__muldf3>
    82f2:	8c2a                	mv	s8,a0
    82f4:	8cae                	mv	s9,a1
    82f6:	bf95                	j	826a <_dtoa_r+0x5a8>
    82f8:	8652                	mv	a2,s4
    82fa:	86ca                	mv	a3,s2
    82fc:	e75fd0ef          	jal	ra,6170 <__muldf3>
    8300:	5a52                	lw	s4,52(sp)
    8302:	4902                	lw	s2,0(sp)
    8304:	d02a                	sw	a0,32(sp)
    8306:	d22e                	sw	a1,36(sp)
    8308:	85e6                	mv	a1,s9
    830a:	8562                	mv	a0,s8
    830c:	a57fe0ef          	jal	ra,6d62 <__fixdfsi>
    8310:	de2a                	sw	a0,60(sp)
    8312:	ab9fe0ef          	jal	ra,6dca <__floatsidf>
    8316:	862a                	mv	a2,a0
    8318:	86ae                	mv	a3,a1
    831a:	8562                	mv	a0,s8
    831c:	85e6                	mv	a1,s9
    831e:	b0afe0ef          	jal	ra,6628 <__subdf3>
    8322:	5772                	lw	a4,60(sp)
    8324:	57d2                	lw	a5,52(sp)
    8326:	0905                	addi	s2,s2,1
    8328:	03070713          	addi	a4,a4,48
    832c:	fee90fa3          	sb	a4,-1(s2)
    8330:	8c2a                	mv	s8,a0
    8332:	8cae                	mv	s9,a1
    8334:	06f91263          	bne	s2,a5,8398 <_dtoa_r+0x6d6>
    8338:	00002917          	auipc	s2,0x2
    833c:	11090913          	addi	s2,s2,272 # a448 <__clz_tab+0x188>
    8340:	00092603          	lw	a2,0(s2)
    8344:	00492683          	lw	a3,4(s2)
    8348:	5502                	lw	a0,32(sp)
    834a:	5592                	lw	a1,36(sp)
    834c:	820fd0ef          	jal	ra,536c <__adddf3>
    8350:	862a                	mv	a2,a0
    8352:	86ae                	mv	a3,a1
    8354:	8562                	mv	a0,s8
    8356:	85e6                	mv	a1,s9
    8358:	079010ef          	jal	ra,9bd0 <__gedf2>
    835c:	0ea04663          	bgtz	a0,8448 <_dtoa_r+0x786>
    8360:	5602                	lw	a2,32(sp)
    8362:	5692                	lw	a3,36(sp)
    8364:	00092503          	lw	a0,0(s2)
    8368:	00492583          	lw	a1,4(s2)
    836c:	abcfe0ef          	jal	ra,6628 <__subdf3>
    8370:	862a                	mv	a2,a0
    8372:	86ae                	mv	a3,a1
    8374:	8562                	mv	a0,s8
    8376:	85e6                	mv	a1,s9
    8378:	d43fd0ef          	jal	ra,60ba <__ledf2>
    837c:	03000793          	li	a5,48
    8380:	e00551e3          	bgez	a0,8182 <_dtoa_r+0x4c0>
    8384:	fffa4703          	lbu	a4,-1(s4)
    8388:	fffa0693          	addi	a3,s4,-1
    838c:	00f70463          	beq	a4,a5,8394 <_dtoa_r+0x6d2>
    8390:	846a                	mv	s0,s10
    8392:	a859                	j	8428 <_dtoa_r+0x766>
    8394:	8a36                	mv	s4,a3
    8396:	b7fd                	j	8384 <_dtoa_r+0x6c2>
    8398:	00002797          	auipc	a5,0x2
    839c:	09878793          	addi	a5,a5,152 # a430 <__clz_tab+0x170>
    83a0:	4390                	lw	a2,0(a5)
    83a2:	43d4                	lw	a3,4(a5)
    83a4:	dcdfd0ef          	jal	ra,6170 <__muldf3>
    83a8:	8c2a                	mv	s8,a0
    83aa:	8cae                	mv	s9,a1
    83ac:	bfb1                	j	8308 <_dtoa_r+0x646>
    83ae:	87e2                	mv	a5,s8
    83b0:	8cbe                	mv	s9,a5
    83b2:	4782                	lw	a5,0(sp)
    83b4:	8c52                	mv	s8,s4
    83b6:	00002a97          	auipc	s5,0x2
    83ba:	07aa8a93          	addi	s5,s5,122 # a430 <__clz_tab+0x170>
    83be:	00178913          	addi	s2,a5,1
    83c2:	9dbe                	add	s11,s11,a5
    83c4:	865a                	mv	a2,s6
    83c6:	86de                	mv	a3,s7
    83c8:	8562                	mv	a0,s8
    83ca:	85e6                	mv	a1,s9
    83cc:	ed0fd0ef          	jal	ra,5a9c <__divdf3>
    83d0:	993fe0ef          	jal	ra,6d62 <__fixdfsi>
    83d4:	8d2a                	mv	s10,a0
    83d6:	9f5fe0ef          	jal	ra,6dca <__floatsidf>
    83da:	865a                	mv	a2,s6
    83dc:	86de                	mv	a3,s7
    83de:	d93fd0ef          	jal	ra,6170 <__muldf3>
    83e2:	862a                	mv	a2,a0
    83e4:	86ae                	mv	a3,a1
    83e6:	8562                	mv	a0,s8
    83e8:	85e6                	mv	a1,s9
    83ea:	a3efe0ef          	jal	ra,6628 <__subdf3>
    83ee:	030d0793          	addi	a5,s10,48
    83f2:	fef90fa3          	sb	a5,-1(s2)
    83f6:	862a                	mv	a2,a0
    83f8:	86ae                	mv	a3,a1
    83fa:	8a4a                	mv	s4,s2
    83fc:	072d9e63          	bne	s11,s2,8478 <_dtoa_r+0x7b6>
    8400:	f6dfc0ef          	jal	ra,536c <__adddf3>
    8404:	865a                	mv	a2,s6
    8406:	86de                	mv	a3,s7
    8408:	8c2a                	mv	s8,a0
    840a:	8cae                	mv	s9,a1
    840c:	7c4010ef          	jal	ra,9bd0 <__gedf2>
    8410:	02a04b63          	bgtz	a0,8446 <_dtoa_r+0x784>
    8414:	865a                	mv	a2,s6
    8416:	86de                	mv	a3,s7
    8418:	8562                	mv	a0,s8
    841a:	85e6                	mv	a1,s9
    841c:	c35fd0ef          	jal	ra,6050 <__eqdf2>
    8420:	e501                	bnez	a0,8428 <_dtoa_r+0x766>
    8422:	001d7793          	andi	a5,s10,1
    8426:	e385                	bnez	a5,8446 <_dtoa_r+0x784>
    8428:	85ce                	mv	a1,s3
    842a:	8526                	mv	a0,s1
    842c:	24f000ef          	jal	ra,8e7a <_Bfree>
    8430:	57c2                	lw	a5,48(sp)
    8432:	000a0023          	sb	zero,0(s4)
    8436:	0405                	addi	s0,s0,1
    8438:	c380                	sw	s0,0(a5)
    843a:	47d2                	lw	a5,20(sp)
    843c:	940789e3          	beqz	a5,7d8e <_dtoa_r+0xcc>
    8440:	0147a023          	sw	s4,0(a5)
    8444:	b2a9                	j	7d8e <_dtoa_r+0xcc>
    8446:	8d22                	mv	s10,s0
    8448:	03900713          	li	a4,57
    844c:	fffa4683          	lbu	a3,-1(s4)
    8450:	fffa0793          	addi	a5,s4,-1
    8454:	00e69a63          	bne	a3,a4,8468 <_dtoa_r+0x7a6>
    8458:	4682                	lw	a3,0(sp)
    845a:	00f69d63          	bne	a3,a5,8474 <_dtoa_r+0x7b2>
    845e:	03000713          	li	a4,48
    8462:	0d05                	addi	s10,s10,1
    8464:	00e68023          	sb	a4,0(a3)
    8468:	0007c703          	lbu	a4,0(a5)
    846c:	0705                	addi	a4,a4,1
    846e:	00e78023          	sb	a4,0(a5)
    8472:	bf39                	j	8390 <_dtoa_r+0x6ce>
    8474:	8a3e                	mv	s4,a5
    8476:	bfd9                	j	844c <_dtoa_r+0x78a>
    8478:	000aa603          	lw	a2,0(s5)
    847c:	004aa683          	lw	a3,4(s5)
    8480:	0905                	addi	s2,s2,1
    8482:	ceffd0ef          	jal	ra,6170 <__muldf3>
    8486:	4601                	li	a2,0
    8488:	4681                	li	a3,0
    848a:	8c2a                	mv	s8,a0
    848c:	8cae                	mv	s9,a1
    848e:	bc3fd0ef          	jal	ra,6050 <__eqdf2>
    8492:	f90d                	bnez	a0,83c4 <_dtoa_r+0x702>
    8494:	bf51                	j	8428 <_dtoa_r+0x766>
    8496:	4742                	lw	a4,16(sp)
    8498:	10070063          	beqz	a4,8598 <_dtoa_r+0x8d6>
    849c:	4692                	lw	a3,4(sp)
    849e:	4705                	li	a4,1
    84a0:	0cd74563          	blt	a4,a3,856a <_dtoa_r+0x8a8>
    84a4:	5762                	lw	a4,56(sp)
    84a6:	43378793          	addi	a5,a5,1075
    84aa:	e709                	bnez	a4,84b4 <_dtoa_r+0x7f2>
    84ac:	4726                	lw	a4,72(sp)
    84ae:	03600793          	li	a5,54
    84b2:	8f99                	sub	a5,a5,a4
    84b4:	8d56                	mv	s10,s5
    84b6:	8cda                	mv	s9,s6
    84b8:	4585                	li	a1,1
    84ba:	8526                	mv	a0,s1
    84bc:	9b3e                	add	s6,s6,a5
    84be:	9bbe                	add	s7,s7,a5
    84c0:	347000ef          	jal	ra,9006 <__i2b>
    84c4:	892a                	mv	s2,a0
    84c6:	01905e63          	blez	s9,84e2 <_dtoa_r+0x820>
    84ca:	01705c63          	blez	s7,84e2 <_dtoa_r+0x820>
    84ce:	87e6                	mv	a5,s9
    84d0:	019bd363          	bge	s7,s9,84d6 <_dtoa_r+0x814>
    84d4:	87de                	mv	a5,s7
    84d6:	40fb0b33          	sub	s6,s6,a5
    84da:	40fc8cb3          	sub	s9,s9,a5
    84de:	40fb8bb3          	sub	s7,s7,a5
    84e2:	040a8063          	beqz	s5,8522 <_dtoa_r+0x860>
    84e6:	47c2                	lw	a5,16(sp)
    84e8:	cfc5                	beqz	a5,85a0 <_dtoa_r+0x8de>
    84ea:	03a05463          	blez	s10,8512 <_dtoa_r+0x850>
    84ee:	85ca                	mv	a1,s2
    84f0:	866a                	mv	a2,s10
    84f2:	8526                	mv	a0,s1
    84f4:	473000ef          	jal	ra,9166 <__pow5mult>
    84f8:	864e                	mv	a2,s3
    84fa:	85aa                	mv	a1,a0
    84fc:	892a                	mv	s2,a0
    84fe:	8526                	mv	a0,s1
    8500:	323000ef          	jal	ra,9022 <__multiply>
    8504:	ce2a                	sw	a0,28(sp)
    8506:	85ce                	mv	a1,s3
    8508:	8526                	mv	a0,s1
    850a:	171000ef          	jal	ra,8e7a <_Bfree>
    850e:	47f2                	lw	a5,28(sp)
    8510:	89be                	mv	s3,a5
    8512:	41aa8633          	sub	a2,s5,s10
    8516:	c611                	beqz	a2,8522 <_dtoa_r+0x860>
    8518:	85ce                	mv	a1,s3
    851a:	8526                	mv	a0,s1
    851c:	44b000ef          	jal	ra,9166 <__pow5mult>
    8520:	89aa                	mv	s3,a0
    8522:	4585                	li	a1,1
    8524:	8526                	mv	a0,s1
    8526:	2e1000ef          	jal	ra,9006 <__i2b>
    852a:	47e2                	lw	a5,24(sp)
    852c:	8aaa                	mv	s5,a0
    852e:	06f05b63          	blez	a5,85a4 <_dtoa_r+0x8e2>
    8532:	863e                	mv	a2,a5
    8534:	85aa                	mv	a1,a0
    8536:	8526                	mv	a0,s1
    8538:	42f000ef          	jal	ra,9166 <__pow5mult>
    853c:	4712                	lw	a4,4(sp)
    853e:	4785                	li	a5,1
    8540:	8aaa                	mv	s5,a0
    8542:	4d01                	li	s10,0
    8544:	06e7c863          	blt	a5,a4,85b4 <_dtoa_r+0x8f2>
    8548:	4d01                	li	s10,0
    854a:	060a1263          	bnez	s4,85ae <_dtoa_r+0x8ec>
    854e:	00cc1793          	slli	a5,s8,0xc
    8552:	8d52                	mv	s10,s4
    8554:	efa9                	bnez	a5,85ae <_dtoa_r+0x8ec>
    8556:	7ff005b7          	lui	a1,0x7ff00
    855a:	00bc7c33          	and	s8,s8,a1
    855e:	040c0863          	beqz	s8,85ae <_dtoa_r+0x8ec>
    8562:	0b05                	addi	s6,s6,1
    8564:	0b85                	addi	s7,s7,1
    8566:	4d05                	li	s10,1
    8568:	a099                	j	85ae <_dtoa_r+0x8ec>
    856a:	fffd8d13          	addi	s10,s11,-1
    856e:	01aaca63          	blt	s5,s10,8582 <_dtoa_r+0x8c0>
    8572:	41aa8d33          	sub	s10,s5,s10
    8576:	000dde63          	bgez	s11,8592 <_dtoa_r+0x8d0>
    857a:	41bb0cb3          	sub	s9,s6,s11
    857e:	4781                	li	a5,0
    8580:	bf25                	j	84b8 <_dtoa_r+0x7f6>
    8582:	47e2                	lw	a5,24(sp)
    8584:	415d0ab3          	sub	s5,s10,s5
    8588:	97d6                	add	a5,a5,s5
    858a:	cc3e                	sw	a5,24(sp)
    858c:	8aea                	mv	s5,s10
    858e:	4d01                	li	s10,0
    8590:	b7dd                	j	8576 <_dtoa_r+0x8b4>
    8592:	8cda                	mv	s9,s6
    8594:	87ee                	mv	a5,s11
    8596:	b70d                	j	84b8 <_dtoa_r+0x7f6>
    8598:	8d56                	mv	s10,s5
    859a:	8cda                	mv	s9,s6
    859c:	4901                	li	s2,0
    859e:	b725                	j	84c6 <_dtoa_r+0x804>
    85a0:	8656                	mv	a2,s5
    85a2:	bf9d                	j	8518 <_dtoa_r+0x856>
    85a4:	4712                	lw	a4,4(sp)
    85a6:	4785                	li	a5,1
    85a8:	4d01                	li	s10,0
    85aa:	f8e7dfe3          	bge	a5,a4,8548 <_dtoa_r+0x886>
    85ae:	47e2                	lw	a5,24(sp)
    85b0:	4505                	li	a0,1
    85b2:	cf89                	beqz	a5,85cc <_dtoa_r+0x90a>
    85b4:	010aa783          	lw	a5,16(s5)
    85b8:	078d                	addi	a5,a5,3
    85ba:	078a                	slli	a5,a5,0x2
    85bc:	97d6                	add	a5,a5,s5
    85be:	43c8                	lw	a0,4(a5)
    85c0:	197000ef          	jal	ra,8f56 <__hi0bits>
    85c4:	02000793          	li	a5,32
    85c8:	40a78533          	sub	a0,a5,a0
    85cc:	955e                	add	a0,a0,s7
    85ce:	897d                	andi	a0,a0,31
    85d0:	c151                	beqz	a0,8654 <_dtoa_r+0x992>
    85d2:	02000793          	li	a5,32
    85d6:	8f89                	sub	a5,a5,a0
    85d8:	4711                	li	a4,4
    85da:	06f75a63          	bge	a4,a5,864e <_dtoa_r+0x98c>
    85de:	47f1                	li	a5,28
    85e0:	40a78533          	sub	a0,a5,a0
    85e4:	9b2a                	add	s6,s6,a0
    85e6:	9caa                	add	s9,s9,a0
    85e8:	9baa                	add	s7,s7,a0
    85ea:	01605863          	blez	s6,85fa <_dtoa_r+0x938>
    85ee:	85ce                	mv	a1,s3
    85f0:	865a                	mv	a2,s6
    85f2:	8526                	mv	a0,s1
    85f4:	431000ef          	jal	ra,9224 <__lshift>
    85f8:	89aa                	mv	s3,a0
    85fa:	01705863          	blez	s7,860a <_dtoa_r+0x948>
    85fe:	85d6                	mv	a1,s5
    8600:	865e                	mv	a2,s7
    8602:	8526                	mv	a0,s1
    8604:	421000ef          	jal	ra,9224 <__lshift>
    8608:	8aaa                	mv	s5,a0
    860a:	57b2                	lw	a5,44(sp)
    860c:	c7b1                	beqz	a5,8658 <_dtoa_r+0x996>
    860e:	85d6                	mv	a1,s5
    8610:	854e                	mv	a0,s3
    8612:	4e1000ef          	jal	ra,92f2 <__mcmp>
    8616:	04055163          	bgez	a0,8658 <_dtoa_r+0x996>
    861a:	85ce                	mv	a1,s3
    861c:	4681                	li	a3,0
    861e:	4629                	li	a2,10
    8620:	8526                	mv	a0,s1
    8622:	09d000ef          	jal	ra,8ebe <__multadd>
    8626:	47c2                	lw	a5,16(sp)
    8628:	147d                	addi	s0,s0,-1
    862a:	89aa                	mv	s3,a0
    862c:	26078c63          	beqz	a5,88a4 <_dtoa_r+0xbe2>
    8630:	85ca                	mv	a1,s2
    8632:	4681                	li	a3,0
    8634:	4629                	li	a2,10
    8636:	8526                	mv	a0,s1
    8638:	087000ef          	jal	ra,8ebe <__multadd>
    863c:	47a2                	lw	a5,8(sp)
    863e:	892a                	mv	s2,a0
    8640:	08f04563          	bgtz	a5,86ca <_dtoa_r+0xa08>
    8644:	4712                	lw	a4,4(sp)
    8646:	4789                	li	a5,2
    8648:	08e7d163          	bge	a5,a4,86ca <_dtoa_r+0xa08>
    864c:	a829                	j	8666 <_dtoa_r+0x9a4>
    864e:	f8e78ee3          	beq	a5,a4,85ea <_dtoa_r+0x928>
    8652:	853e                	mv	a0,a5
    8654:	0571                	addi	a0,a0,28
    8656:	b779                	j	85e4 <_dtoa_r+0x922>
    8658:	07b04563          	bgtz	s11,86c2 <_dtoa_r+0xa00>
    865c:	4712                	lw	a4,4(sp)
    865e:	4789                	li	a5,2
    8660:	06e7d163          	bge	a5,a4,86c2 <_dtoa_r+0xa00>
    8664:	c46e                	sw	s11,8(sp)
    8666:	47a2                	lw	a5,8(sp)
    8668:	ef91                	bnez	a5,8684 <_dtoa_r+0x9c2>
    866a:	85d6                	mv	a1,s5
    866c:	4681                	li	a3,0
    866e:	4615                	li	a2,5
    8670:	8526                	mv	a0,s1
    8672:	04d000ef          	jal	ra,8ebe <__multadd>
    8676:	8aaa                	mv	s5,a0
    8678:	85aa                	mv	a1,a0
    867a:	854e                	mv	a0,s3
    867c:	477000ef          	jal	ra,92f2 <__mcmp>
    8680:	b4a04de3          	bgtz	a0,81da <_dtoa_r+0x518>
    8684:	47b2                	lw	a5,12(sp)
    8686:	4a02                	lw	s4,0(sp)
    8688:	fff7c413          	not	s0,a5
    868c:	4b01                	li	s6,0
    868e:	85d6                	mv	a1,s5
    8690:	8526                	mv	a0,s1
    8692:	7e8000ef          	jal	ra,8e7a <_Bfree>
    8696:	d80909e3          	beqz	s2,8428 <_dtoa_r+0x766>
    869a:	000b0863          	beqz	s6,86aa <_dtoa_r+0x9e8>
    869e:	012b0663          	beq	s6,s2,86aa <_dtoa_r+0x9e8>
    86a2:	85da                	mv	a1,s6
    86a4:	8526                	mv	a0,s1
    86a6:	7d4000ef          	jal	ra,8e7a <_Bfree>
    86aa:	85ca                	mv	a1,s2
    86ac:	8526                	mv	a0,s1
    86ae:	7cc000ef          	jal	ra,8e7a <_Bfree>
    86b2:	bb9d                	j	8428 <_dtoa_r+0x766>
    86b4:	4a81                	li	s5,0
    86b6:	4901                	li	s2,0
    86b8:	b7f1                	j	8684 <_dtoa_r+0x9c2>
    86ba:	846a                	mv	s0,s10
    86bc:	4a81                	li	s5,0
    86be:	4901                	li	s2,0
    86c0:	be29                	j	81da <_dtoa_r+0x518>
    86c2:	47c2                	lw	a5,16(sp)
    86c4:	c46e                	sw	s11,8(sp)
    86c6:	1e078663          	beqz	a5,88b2 <_dtoa_r+0xbf0>
    86ca:	01905863          	blez	s9,86da <_dtoa_r+0xa18>
    86ce:	85ca                	mv	a1,s2
    86d0:	8666                	mv	a2,s9
    86d2:	8526                	mv	a0,s1
    86d4:	351000ef          	jal	ra,9224 <__lshift>
    86d8:	892a                	mv	s2,a0
    86da:	854a                	mv	a0,s2
    86dc:	020d0663          	beqz	s10,8708 <_dtoa_r+0xa46>
    86e0:	00492583          	lw	a1,4(s2)
    86e4:	8526                	mv	a0,s1
    86e6:	70c000ef          	jal	ra,8df2 <_Balloc>
    86ea:	01092603          	lw	a2,16(s2)
    86ee:	8b2a                	mv	s6,a0
    86f0:	00c90593          	addi	a1,s2,12
    86f4:	0609                	addi	a2,a2,2
    86f6:	060a                	slli	a2,a2,0x2
    86f8:	0531                	addi	a0,a0,12
    86fa:	fb6fe0ef          	jal	ra,6eb0 <memcpy>
    86fe:	4605                	li	a2,1
    8700:	85da                	mv	a1,s6
    8702:	8526                	mv	a0,s1
    8704:	321000ef          	jal	ra,9224 <__lshift>
    8708:	4782                	lw	a5,0(sp)
    870a:	4722                	lw	a4,8(sp)
    870c:	8b4a                	mv	s6,s2
    870e:	00178c13          	addi	s8,a5,1
    8712:	97ba                	add	a5,a5,a4
    8714:	c63e                	sw	a5,12(sp)
    8716:	001a7793          	andi	a5,s4,1
    871a:	892a                	mv	s2,a0
    871c:	c43e                	sw	a5,8(sp)
    871e:	85d6                	mv	a1,s5
    8720:	854e                	mv	a0,s3
    8722:	c66ff0ef          	jal	ra,7b88 <quorem>
    8726:	85da                	mv	a1,s6
    8728:	8d2a                	mv	s10,a0
    872a:	03050d93          	addi	s11,a0,48
    872e:	854e                	mv	a0,s3
    8730:	3c3000ef          	jal	ra,92f2 <__mcmp>
    8734:	864a                	mv	a2,s2
    8736:	8baa                	mv	s7,a0
    8738:	85d6                	mv	a1,s5
    873a:	8526                	mv	a0,s1
    873c:	3e9000ef          	jal	ra,9324 <__mdiff>
    8740:	4550                	lw	a2,12(a0)
    8742:	fffc0c93          	addi	s9,s8,-1
    8746:	8a2a                	mv	s4,a0
    8748:	4705                	li	a4,1
    874a:	e611                	bnez	a2,8756 <_dtoa_r+0xa94>
    874c:	85aa                	mv	a1,a0
    874e:	854e                	mv	a0,s3
    8750:	3a3000ef          	jal	ra,92f2 <__mcmp>
    8754:	872a                	mv	a4,a0
    8756:	85d2                	mv	a1,s4
    8758:	8526                	mv	a0,s1
    875a:	c83a                	sw	a4,16(sp)
    875c:	71e000ef          	jal	ra,8e7a <_Bfree>
    8760:	4792                	lw	a5,4(sp)
    8762:	4742                	lw	a4,16(sp)
    8764:	8a62                	mv	s4,s8
    8766:	00e7e6b3          	or	a3,a5,a4
    876a:	47a2                	lw	a5,8(sp)
    876c:	8edd                	or	a3,a3,a5
    876e:	ee81                	bnez	a3,8786 <_dtoa_r+0xac4>
    8770:	03900713          	li	a4,57
    8774:	04ed8863          	beq	s11,a4,87c4 <_dtoa_r+0xb02>
    8778:	01705463          	blez	s7,8780 <_dtoa_r+0xabe>
    877c:	031d0d93          	addi	s11,s10,49
    8780:	01bc8023          	sb	s11,0(s9)
    8784:	b729                	j	868e <_dtoa_r+0x9cc>
    8786:	000bca63          	bltz	s7,879a <_dtoa_r+0xad8>
    878a:	4792                	lw	a5,4(sp)
    878c:	0177ebb3          	or	s7,a5,s7
    8790:	47a2                	lw	a5,8(sp)
    8792:	00fbebb3          	or	s7,s7,a5
    8796:	040b9563          	bnez	s7,87e0 <_dtoa_r+0xb1e>
    879a:	fee053e3          	blez	a4,8780 <_dtoa_r+0xabe>
    879e:	85ce                	mv	a1,s3
    87a0:	4605                	li	a2,1
    87a2:	8526                	mv	a0,s1
    87a4:	281000ef          	jal	ra,9224 <__lshift>
    87a8:	85d6                	mv	a1,s5
    87aa:	89aa                	mv	s3,a0
    87ac:	347000ef          	jal	ra,92f2 <__mcmp>
    87b0:	00a04663          	bgtz	a0,87bc <_dtoa_r+0xafa>
    87b4:	f571                	bnez	a0,8780 <_dtoa_r+0xabe>
    87b6:	001df713          	andi	a4,s11,1
    87ba:	d379                	beqz	a4,8780 <_dtoa_r+0xabe>
    87bc:	03900713          	li	a4,57
    87c0:	faed9ee3          	bne	s11,a4,877c <_dtoa_r+0xaba>
    87c4:	03900793          	li	a5,57
    87c8:	00fc8023          	sb	a5,0(s9)
    87cc:	03900693          	li	a3,57
    87d0:	fffa4783          	lbu	a5,-1(s4)
    87d4:	fffa0713          	addi	a4,s4,-1
    87d8:	08d78c63          	beq	a5,a3,8870 <_dtoa_r+0xbae>
    87dc:	0785                	addi	a5,a5,1
    87de:	a045                	j	887e <_dtoa_r+0xbbc>
    87e0:	00e05b63          	blez	a4,87f6 <_dtoa_r+0xb34>
    87e4:	03900713          	li	a4,57
    87e8:	fced8ee3          	beq	s11,a4,87c4 <_dtoa_r+0xb02>
    87ec:	001d8793          	addi	a5,s11,1
    87f0:	00fc8023          	sb	a5,0(s9)
    87f4:	bd69                	j	868e <_dtoa_r+0x9cc>
    87f6:	47b2                	lw	a5,12(sp)
    87f8:	ffbc0fa3          	sb	s11,-1(s8)
    87fc:	05878163          	beq	a5,s8,883e <_dtoa_r+0xb7c>
    8800:	85ce                	mv	a1,s3
    8802:	4681                	li	a3,0
    8804:	4629                	li	a2,10
    8806:	8526                	mv	a0,s1
    8808:	6b6000ef          	jal	ra,8ebe <__multadd>
    880c:	89aa                	mv	s3,a0
    880e:	4681                	li	a3,0
    8810:	4629                	li	a2,10
    8812:	85da                	mv	a1,s6
    8814:	8526                	mv	a0,s1
    8816:	012b1863          	bne	s6,s2,8826 <_dtoa_r+0xb64>
    881a:	6a4000ef          	jal	ra,8ebe <__multadd>
    881e:	8b2a                	mv	s6,a0
    8820:	892a                	mv	s2,a0
    8822:	0c05                	addi	s8,s8,1
    8824:	bded                	j	871e <_dtoa_r+0xa5c>
    8826:	698000ef          	jal	ra,8ebe <__multadd>
    882a:	85ca                	mv	a1,s2
    882c:	8b2a                	mv	s6,a0
    882e:	4681                	li	a3,0
    8830:	4629                	li	a2,10
    8832:	8526                	mv	a0,s1
    8834:	68a000ef          	jal	ra,8ebe <__multadd>
    8838:	892a                	mv	s2,a0
    883a:	b7e5                	j	8822 <_dtoa_r+0xb60>
    883c:	4b01                	li	s6,0
    883e:	85ce                	mv	a1,s3
    8840:	4605                	li	a2,1
    8842:	8526                	mv	a0,s1
    8844:	1e1000ef          	jal	ra,9224 <__lshift>
    8848:	85d6                	mv	a1,s5
    884a:	89aa                	mv	s3,a0
    884c:	2a7000ef          	jal	ra,92f2 <__mcmp>
    8850:	f6a04ee3          	bgtz	a0,87cc <_dtoa_r+0xb0a>
    8854:	e501                	bnez	a0,885c <_dtoa_r+0xb9a>
    8856:	001df793          	andi	a5,s11,1
    885a:	fbad                	bnez	a5,87cc <_dtoa_r+0xb0a>
    885c:	03000793          	li	a5,48
    8860:	fffa4703          	lbu	a4,-1(s4)
    8864:	fffa0693          	addi	a3,s4,-1
    8868:	e2f713e3          	bne	a4,a5,868e <_dtoa_r+0x9cc>
    886c:	8a36                	mv	s4,a3
    886e:	bfcd                	j	8860 <_dtoa_r+0xb9e>
    8870:	4782                	lw	a5,0(sp)
    8872:	00e79963          	bne	a5,a4,8884 <_dtoa_r+0xbc2>
    8876:	4702                	lw	a4,0(sp)
    8878:	0405                	addi	s0,s0,1
    887a:	03100793          	li	a5,49
    887e:	00f70023          	sb	a5,0(a4)
    8882:	b531                	j	868e <_dtoa_r+0x9cc>
    8884:	8a3a                	mv	s4,a4
    8886:	b7a9                	j	87d0 <_dtoa_r+0xb0e>
    8888:	4752                	lw	a4,20(sp)
    888a:	00002797          	auipc	a5,0x2
    888e:	bc678793          	addi	a5,a5,-1082 # a450 <__clz_tab+0x190>
    8892:	c03e                	sw	a5,0(sp)
    8894:	00002797          	auipc	a5,0x2
    8898:	bc478793          	addi	a5,a5,-1084 # a458 <__clz_tab+0x198>
    889c:	ce071763          	bnez	a4,7d8a <_dtoa_r+0xc8>
    88a0:	ceeff06f          	j	7d8e <_dtoa_r+0xcc>
    88a4:	47a2                	lw	a5,8(sp)
    88a6:	00f04663          	bgtz	a5,88b2 <_dtoa_r+0xbf0>
    88aa:	4712                	lw	a4,4(sp)
    88ac:	4789                	li	a5,2
    88ae:	dae7cce3          	blt	a5,a4,8666 <_dtoa_r+0x9a4>
    88b2:	4a02                	lw	s4,0(sp)
    88b4:	85d6                	mv	a1,s5
    88b6:	854e                	mv	a0,s3
    88b8:	ad0ff0ef          	jal	ra,7b88 <quorem>
    88bc:	4782                	lw	a5,0(sp)
    88be:	0a05                	addi	s4,s4,1
    88c0:	03050d93          	addi	s11,a0,48
    88c4:	40fa0733          	sub	a4,s4,a5
    88c8:	47a2                	lw	a5,8(sp)
    88ca:	ffba0fa3          	sb	s11,-1(s4)
    88ce:	f6f757e3          	bge	a4,a5,883c <_dtoa_r+0xb7a>
    88d2:	85ce                	mv	a1,s3
    88d4:	4681                	li	a3,0
    88d6:	4629                	li	a2,10
    88d8:	8526                	mv	a0,s1
    88da:	23d5                	jal	8ebe <__multadd>
    88dc:	89aa                	mv	s3,a0
    88de:	bfd9                	j	88b4 <_dtoa_r+0xbf2>

000088e0 <__sflush_r>:
__sflush_r():
    88e0:	00c5d783          	lhu	a5,12(a1) # 7ff0000c <_eusrstack+0x5fef000c>
    88e4:	1101                	addi	sp,sp,-32
    88e6:	cc22                	sw	s0,24(sp)
    88e8:	ca26                	sw	s1,20(sp)
    88ea:	ce06                	sw	ra,28(sp)
    88ec:	c84a                	sw	s2,16(sp)
    88ee:	c64e                	sw	s3,12(sp)
    88f0:	0087f713          	andi	a4,a5,8
    88f4:	84aa                	mv	s1,a0
    88f6:	842e                	mv	s0,a1
    88f8:	ef79                	bnez	a4,89d6 <__sflush_r+0xf6>
    88fa:	41d8                	lw	a4,4(a1)
    88fc:	00e04d63          	bgtz	a4,8916 <__sflush_r+0x36>
    8900:	41b8                	lw	a4,64(a1)
    8902:	00e04a63          	bgtz	a4,8916 <__sflush_r+0x36>
    8906:	4501                	li	a0,0
    8908:	40f2                	lw	ra,28(sp)
    890a:	4462                	lw	s0,24(sp)
    890c:	44d2                	lw	s1,20(sp)
    890e:	4942                	lw	s2,16(sp)
    8910:	49b2                	lw	s3,12(sp)
    8912:	6105                	addi	sp,sp,32
    8914:	8082                	ret
    8916:	5458                	lw	a4,44(s0)
    8918:	d77d                	beqz	a4,8906 <__sflush_r+0x26>
    891a:	0004a903          	lw	s2,0(s1)
    891e:	01379693          	slli	a3,a5,0x13
    8922:	0004a023          	sw	zero,0(s1)
    8926:	0606de63          	bgez	a3,89a2 <__sflush_r+0xc2>
    892a:	4870                	lw	a2,84(s0)
    892c:	00c45783          	lhu	a5,12(s0)
    8930:	8b91                	andi	a5,a5,4
    8932:	c799                	beqz	a5,8940 <__sflush_r+0x60>
    8934:	405c                	lw	a5,4(s0)
    8936:	8e1d                	sub	a2,a2,a5
    8938:	585c                	lw	a5,52(s0)
    893a:	c399                	beqz	a5,8940 <__sflush_r+0x60>
    893c:	403c                	lw	a5,64(s0)
    893e:	8e1d                	sub	a2,a2,a5
    8940:	545c                	lw	a5,44(s0)
    8942:	500c                	lw	a1,32(s0)
    8944:	4681                	li	a3,0
    8946:	8526                	mv	a0,s1
    8948:	9782                	jalr	a5
    894a:	57fd                	li	a5,-1
    894c:	00c45703          	lhu	a4,12(s0)
    8950:	00f51d63          	bne	a0,a5,896a <__sflush_r+0x8a>
    8954:	4094                	lw	a3,0(s1)
    8956:	47f5                	li	a5,29
    8958:	06d7e963          	bltu	a5,a3,89ca <__sflush_r+0xea>
    895c:	204007b7          	lui	a5,0x20400
    8960:	0785                	addi	a5,a5,1
    8962:	00d7d7b3          	srl	a5,a5,a3
    8966:	8b85                	andi	a5,a5,1
    8968:	c3ad                	beqz	a5,89ca <__sflush_r+0xea>
    896a:	481c                	lw	a5,16(s0)
    896c:	00042223          	sw	zero,4(s0)
    8970:	c01c                	sw	a5,0(s0)
    8972:	01371793          	slli	a5,a4,0x13
    8976:	0007d863          	bgez	a5,8986 <__sflush_r+0xa6>
    897a:	57fd                	li	a5,-1
    897c:	00f51463          	bne	a0,a5,8984 <__sflush_r+0xa4>
    8980:	409c                	lw	a5,0(s1)
    8982:	e391                	bnez	a5,8986 <__sflush_r+0xa6>
    8984:	c868                	sw	a0,84(s0)
    8986:	584c                	lw	a1,52(s0)
    8988:	0124a023          	sw	s2,0(s1)
    898c:	ddad                	beqz	a1,8906 <__sflush_r+0x26>
    898e:	04440793          	addi	a5,s0,68
    8992:	00f58563          	beq	a1,a5,899c <__sflush_r+0xbc>
    8996:	8526                	mv	a0,s1
    8998:	379000ef          	jal	ra,9510 <_free_r>
    899c:	02042a23          	sw	zero,52(s0)
    89a0:	b79d                	j	8906 <__sflush_r+0x26>
    89a2:	500c                	lw	a1,32(s0)
    89a4:	4601                	li	a2,0
    89a6:	4685                	li	a3,1
    89a8:	8526                	mv	a0,s1
    89aa:	9702                	jalr	a4
    89ac:	57fd                	li	a5,-1
    89ae:	862a                	mv	a2,a0
    89b0:	f6f51ee3          	bne	a0,a5,892c <__sflush_r+0x4c>
    89b4:	409c                	lw	a5,0(s1)
    89b6:	dbbd                	beqz	a5,892c <__sflush_r+0x4c>
    89b8:	4775                	li	a4,29
    89ba:	00e78563          	beq	a5,a4,89c4 <__sflush_r+0xe4>
    89be:	4759                	li	a4,22
    89c0:	04e79463          	bne	a5,a4,8a08 <__sflush_r+0x128>
    89c4:	0124a023          	sw	s2,0(s1)
    89c8:	bf3d                	j	8906 <__sflush_r+0x26>
    89ca:	04076713          	ori	a4,a4,64
    89ce:	00e41623          	sh	a4,12(s0)
    89d2:	557d                	li	a0,-1
    89d4:	bf15                	j	8908 <__sflush_r+0x28>
    89d6:	0105a983          	lw	s3,16(a1)
    89da:	f20986e3          	beqz	s3,8906 <__sflush_r+0x26>
    89de:	0005a903          	lw	s2,0(a1)
    89e2:	8b8d                	andi	a5,a5,3
    89e4:	0135a023          	sw	s3,0(a1)
    89e8:	41390933          	sub	s2,s2,s3
    89ec:	4701                	li	a4,0
    89ee:	e391                	bnez	a5,89f2 <__sflush_r+0x112>
    89f0:	49d8                	lw	a4,20(a1)
    89f2:	c418                	sw	a4,8(s0)
    89f4:	f12059e3          	blez	s2,8906 <__sflush_r+0x26>
    89f8:	541c                	lw	a5,40(s0)
    89fa:	500c                	lw	a1,32(s0)
    89fc:	86ca                	mv	a3,s2
    89fe:	864e                	mv	a2,s3
    8a00:	8526                	mv	a0,s1
    8a02:	9782                	jalr	a5
    8a04:	00a04963          	bgtz	a0,8a16 <__sflush_r+0x136>
    8a08:	00c45783          	lhu	a5,12(s0)
    8a0c:	0407e793          	ori	a5,a5,64
    8a10:	00f41623          	sh	a5,12(s0)
    8a14:	bf7d                	j	89d2 <__sflush_r+0xf2>
    8a16:	99aa                	add	s3,s3,a0
    8a18:	40a90933          	sub	s2,s2,a0
    8a1c:	bfe1                	j	89f4 <__sflush_r+0x114>

00008a1e <_fflush_r>:
_fflush_r():
    8a1e:	499c                	lw	a5,16(a1)
    8a20:	c3a5                	beqz	a5,8a80 <_fflush_r+0x62>
    8a22:	1101                	addi	sp,sp,-32
    8a24:	cc22                	sw	s0,24(sp)
    8a26:	ce06                	sw	ra,28(sp)
    8a28:	842a                	mv	s0,a0
    8a2a:	c511                	beqz	a0,8a36 <_fflush_r+0x18>
    8a2c:	4d1c                	lw	a5,24(a0)
    8a2e:	e781                	bnez	a5,8a36 <_fflush_r+0x18>
    8a30:	c62e                	sw	a1,12(sp)
    8a32:	2239                	jal	8b40 <__sinit>
    8a34:	45b2                	lw	a1,12(sp)
    8a36:	00002797          	auipc	a5,0x2
    8a3a:	a4a78793          	addi	a5,a5,-1462 # a480 <__sf_fake_stdin>
    8a3e:	00f59c63          	bne	a1,a5,8a56 <_fflush_r+0x38>
    8a42:	404c                	lw	a1,4(s0)
    8a44:	00c59783          	lh	a5,12(a1)
    8a48:	c79d                	beqz	a5,8a76 <_fflush_r+0x58>
    8a4a:	8522                	mv	a0,s0
    8a4c:	4462                	lw	s0,24(sp)
    8a4e:	40f2                	lw	ra,28(sp)
    8a50:	6105                	addi	sp,sp,32
    8a52:	e8fff06f          	j	88e0 <__sflush_r>
    8a56:	00002797          	auipc	a5,0x2
    8a5a:	a4a78793          	addi	a5,a5,-1462 # a4a0 <__sf_fake_stdout>
    8a5e:	00f59463          	bne	a1,a5,8a66 <_fflush_r+0x48>
    8a62:	440c                	lw	a1,8(s0)
    8a64:	b7c5                	j	8a44 <_fflush_r+0x26>
    8a66:	00002797          	auipc	a5,0x2
    8a6a:	9fa78793          	addi	a5,a5,-1542 # a460 <__sf_fake_stderr>
    8a6e:	fcf59be3          	bne	a1,a5,8a44 <_fflush_r+0x26>
    8a72:	444c                	lw	a1,12(s0)
    8a74:	bfc1                	j	8a44 <_fflush_r+0x26>
    8a76:	40f2                	lw	ra,28(sp)
    8a78:	4462                	lw	s0,24(sp)
    8a7a:	4501                	li	a0,0
    8a7c:	6105                	addi	sp,sp,32
    8a7e:	8082                	ret
    8a80:	4501                	li	a0,0
    8a82:	8082                	ret

00008a84 <std>:
std():
    8a84:	1141                	addi	sp,sp,-16
    8a86:	c422                	sw	s0,8(sp)
    8a88:	c606                	sw	ra,12(sp)
    8a8a:	842a                	mv	s0,a0
    8a8c:	00b51623          	sh	a1,12(a0)
    8a90:	00c51723          	sh	a2,14(a0)
    8a94:	00052023          	sw	zero,0(a0)
    8a98:	00052223          	sw	zero,4(a0)
    8a9c:	00052423          	sw	zero,8(a0)
    8aa0:	06052223          	sw	zero,100(a0)
    8aa4:	00052823          	sw	zero,16(a0)
    8aa8:	00052a23          	sw	zero,20(a0)
    8aac:	00052c23          	sw	zero,24(a0)
    8ab0:	4621                	li	a2,8
    8ab2:	4581                	li	a1,0
    8ab4:	05c50513          	addi	a0,a0,92
    8ab8:	f5cf70ef          	jal	ra,214 <memset>
    8abc:	00001797          	auipc	a5,0x1
    8ac0:	efc78793          	addi	a5,a5,-260 # 99b8 <__sread>
    8ac4:	d05c                	sw	a5,36(s0)
    8ac6:	00001797          	auipc	a5,0x1
    8aca:	f2278793          	addi	a5,a5,-222 # 99e8 <__swrite>
    8ace:	d41c                	sw	a5,40(s0)
    8ad0:	00001797          	auipc	a5,0x1
    8ad4:	f6678793          	addi	a5,a5,-154 # 9a36 <__sseek>
    8ad8:	d45c                	sw	a5,44(s0)
    8ada:	00001797          	auipc	a5,0x1
    8ade:	f9278793          	addi	a5,a5,-110 # 9a6c <__sclose>
    8ae2:	d000                	sw	s0,32(s0)
    8ae4:	d81c                	sw	a5,48(s0)
    8ae6:	40b2                	lw	ra,12(sp)
    8ae8:	4422                	lw	s0,8(sp)
    8aea:	0141                	addi	sp,sp,16
    8aec:	8082                	ret

00008aee <_cleanup_r>:
_cleanup_r():
    8aee:	00000597          	auipc	a1,0x0
    8af2:	f3058593          	addi	a1,a1,-208 # 8a1e <_fflush_r>
    8af6:	aa99                	j	8c4c <_fwalk_reent>

00008af8 <__sfmoreglue>:
__sfmoreglue():
    8af8:	1141                	addi	sp,sp,-16
    8afa:	c226                	sw	s1,4(sp)
    8afc:	06800613          	li	a2,104
    8b00:	fff58493          	addi	s1,a1,-1
    8b04:	02c484b3          	mul	s1,s1,a2
    8b08:	c04a                	sw	s2,0(sp)
    8b0a:	892e                	mv	s2,a1
    8b0c:	c422                	sw	s0,8(sp)
    8b0e:	c606                	sw	ra,12(sp)
    8b10:	07448593          	addi	a1,s1,116
    8b14:	2a1000ef          	jal	ra,95b4 <_malloc_r>
    8b18:	842a                	mv	s0,a0
    8b1a:	cd01                	beqz	a0,8b32 <__sfmoreglue+0x3a>
    8b1c:	00052023          	sw	zero,0(a0)
    8b20:	01252223          	sw	s2,4(a0)
    8b24:	0531                	addi	a0,a0,12
    8b26:	c408                	sw	a0,8(s0)
    8b28:	06848613          	addi	a2,s1,104
    8b2c:	4581                	li	a1,0
    8b2e:	ee6f70ef          	jal	ra,214 <memset>
    8b32:	8522                	mv	a0,s0
    8b34:	40b2                	lw	ra,12(sp)
    8b36:	4422                	lw	s0,8(sp)
    8b38:	4492                	lw	s1,4(sp)
    8b3a:	4902                	lw	s2,0(sp)
    8b3c:	0141                	addi	sp,sp,16
    8b3e:	8082                	ret

00008b40 <__sinit>:
__sinit():
    8b40:	4d1c                	lw	a5,24(a0)
    8b42:	e7a5                	bnez	a5,8baa <__sinit+0x6a>
    8b44:	1141                	addi	sp,sp,-16
    8b46:	c606                	sw	ra,12(sp)
    8b48:	c422                	sw	s0,8(sp)
    8b4a:	00000797          	auipc	a5,0x0
    8b4e:	fa478793          	addi	a5,a5,-92 # 8aee <_cleanup_r>
    8b52:	d51c                	sw	a5,40(a0)
    8b54:	82418793          	addi	a5,gp,-2012 # 20000244 <_global_impure_ptr>
    8b58:	439c                	lw	a5,0(a5)
    8b5a:	04052423          	sw	zero,72(a0)
    8b5e:	04052623          	sw	zero,76(a0)
    8b62:	04052823          	sw	zero,80(a0)
    8b66:	00f51463          	bne	a0,a5,8b6e <__sinit+0x2e>
    8b6a:	4785                	li	a5,1
    8b6c:	cd1c                	sw	a5,24(a0)
    8b6e:	842a                	mv	s0,a0
    8b70:	2835                	jal	8bac <__sfp>
    8b72:	c048                	sw	a0,4(s0)
    8b74:	8522                	mv	a0,s0
    8b76:	281d                	jal	8bac <__sfp>
    8b78:	c408                	sw	a0,8(s0)
    8b7a:	8522                	mv	a0,s0
    8b7c:	2805                	jal	8bac <__sfp>
    8b7e:	c448                	sw	a0,12(s0)
    8b80:	4048                	lw	a0,4(s0)
    8b82:	4601                	li	a2,0
    8b84:	4591                	li	a1,4
    8b86:	effff0ef          	jal	ra,8a84 <std>
    8b8a:	4408                	lw	a0,8(s0)
    8b8c:	4605                	li	a2,1
    8b8e:	45a5                	li	a1,9
    8b90:	ef5ff0ef          	jal	ra,8a84 <std>
    8b94:	4448                	lw	a0,12(s0)
    8b96:	4609                	li	a2,2
    8b98:	45c9                	li	a1,18
    8b9a:	eebff0ef          	jal	ra,8a84 <std>
    8b9e:	4785                	li	a5,1
    8ba0:	cc1c                	sw	a5,24(s0)
    8ba2:	40b2                	lw	ra,12(sp)
    8ba4:	4422                	lw	s0,8(sp)
    8ba6:	0141                	addi	sp,sp,16
    8ba8:	8082                	ret
    8baa:	8082                	ret

00008bac <__sfp>:
__sfp():
    8bac:	1141                	addi	sp,sp,-16
    8bae:	82418793          	addi	a5,gp,-2012 # 20000244 <_global_impure_ptr>
    8bb2:	c226                	sw	s1,4(sp)
    8bb4:	4384                	lw	s1,0(a5)
    8bb6:	c04a                	sw	s2,0(sp)
    8bb8:	c606                	sw	ra,12(sp)
    8bba:	4c9c                	lw	a5,24(s1)
    8bbc:	c422                	sw	s0,8(sp)
    8bbe:	892a                	mv	s2,a0
    8bc0:	e781                	bnez	a5,8bc8 <__sfp+0x1c>
    8bc2:	8526                	mv	a0,s1
    8bc4:	f7dff0ef          	jal	ra,8b40 <__sinit>
    8bc8:	04848493          	addi	s1,s1,72
    8bcc:	4480                	lw	s0,8(s1)
    8bce:	40dc                	lw	a5,4(s1)
    8bd0:	17fd                	addi	a5,a5,-1
    8bd2:	0007d663          	bgez	a5,8bde <__sfp+0x32>
    8bd6:	409c                	lw	a5,0(s1)
    8bd8:	cfb9                	beqz	a5,8c36 <__sfp+0x8a>
    8bda:	4084                	lw	s1,0(s1)
    8bdc:	bfc5                	j	8bcc <__sfp+0x20>
    8bde:	00c41703          	lh	a4,12(s0)
    8be2:	e739                	bnez	a4,8c30 <__sfp+0x84>
    8be4:	77c1                	lui	a5,0xffff0
    8be6:	0785                	addi	a5,a5,1
    8be8:	06042223          	sw	zero,100(s0)
    8bec:	00042023          	sw	zero,0(s0)
    8bf0:	00042223          	sw	zero,4(s0)
    8bf4:	00042423          	sw	zero,8(s0)
    8bf8:	c45c                	sw	a5,12(s0)
    8bfa:	00042823          	sw	zero,16(s0)
    8bfe:	00042a23          	sw	zero,20(s0)
    8c02:	00042c23          	sw	zero,24(s0)
    8c06:	4621                	li	a2,8
    8c08:	4581                	li	a1,0
    8c0a:	05c40513          	addi	a0,s0,92
    8c0e:	e06f70ef          	jal	ra,214 <memset>
    8c12:	02042a23          	sw	zero,52(s0)
    8c16:	02042c23          	sw	zero,56(s0)
    8c1a:	04042423          	sw	zero,72(s0)
    8c1e:	04042623          	sw	zero,76(s0)
    8c22:	8522                	mv	a0,s0
    8c24:	40b2                	lw	ra,12(sp)
    8c26:	4422                	lw	s0,8(sp)
    8c28:	4492                	lw	s1,4(sp)
    8c2a:	4902                	lw	s2,0(sp)
    8c2c:	0141                	addi	sp,sp,16
    8c2e:	8082                	ret
    8c30:	06840413          	addi	s0,s0,104
    8c34:	bf71                	j	8bd0 <__sfp+0x24>
    8c36:	4591                	li	a1,4
    8c38:	854a                	mv	a0,s2
    8c3a:	ebfff0ef          	jal	ra,8af8 <__sfmoreglue>
    8c3e:	c088                	sw	a0,0(s1)
    8c40:	fd49                	bnez	a0,8bda <__sfp+0x2e>
    8c42:	47b1                	li	a5,12
    8c44:	00f92023          	sw	a5,0(s2)
    8c48:	4401                	li	s0,0
    8c4a:	bfe1                	j	8c22 <__sfp+0x76>

00008c4c <_fwalk_reent>:
_fwalk_reent():
    8c4c:	7179                	addi	sp,sp,-48
    8c4e:	d422                	sw	s0,40(sp)
    8c50:	d04a                	sw	s2,32(sp)
    8c52:	cc52                	sw	s4,24(sp)
    8c54:	ca56                	sw	s5,20(sp)
    8c56:	c85a                	sw	s6,16(sp)
    8c58:	c65e                	sw	s7,12(sp)
    8c5a:	d606                	sw	ra,44(sp)
    8c5c:	d226                	sw	s1,36(sp)
    8c5e:	ce4e                	sw	s3,28(sp)
    8c60:	8a2a                	mv	s4,a0
    8c62:	8aae                	mv	s5,a1
    8c64:	04850413          	addi	s0,a0,72
    8c68:	4901                	li	s2,0
    8c6a:	4b05                	li	s6,1
    8c6c:	5bfd                	li	s7,-1
    8c6e:	ec09                	bnez	s0,8c88 <_fwalk_reent+0x3c>
    8c70:	50b2                	lw	ra,44(sp)
    8c72:	5422                	lw	s0,40(sp)
    8c74:	854a                	mv	a0,s2
    8c76:	5492                	lw	s1,36(sp)
    8c78:	5902                	lw	s2,32(sp)
    8c7a:	49f2                	lw	s3,28(sp)
    8c7c:	4a62                	lw	s4,24(sp)
    8c7e:	4ad2                	lw	s5,20(sp)
    8c80:	4b42                	lw	s6,16(sp)
    8c82:	4bb2                	lw	s7,12(sp)
    8c84:	6145                	addi	sp,sp,48
    8c86:	8082                	ret
    8c88:	4404                	lw	s1,8(s0)
    8c8a:	00442983          	lw	s3,4(s0)
    8c8e:	19fd                	addi	s3,s3,-1
    8c90:	0009d463          	bgez	s3,8c98 <_fwalk_reent+0x4c>
    8c94:	4000                	lw	s0,0(s0)
    8c96:	bfe1                	j	8c6e <_fwalk_reent+0x22>
    8c98:	00c4d783          	lhu	a5,12(s1)
    8c9c:	00fb7b63          	bgeu	s6,a5,8cb2 <_fwalk_reent+0x66>
    8ca0:	00e49783          	lh	a5,14(s1)
    8ca4:	01778763          	beq	a5,s7,8cb2 <_fwalk_reent+0x66>
    8ca8:	85a6                	mv	a1,s1
    8caa:	8552                	mv	a0,s4
    8cac:	9a82                	jalr	s5
    8cae:	00a96933          	or	s2,s2,a0
    8cb2:	06848493          	addi	s1,s1,104
    8cb6:	bfe1                	j	8c8e <_fwalk_reent+0x42>

00008cb8 <_localeconv_r>:
_localeconv_r():
    8cb8:	81418793          	addi	a5,gp,-2028 # 20000234 <_impure_ptr>
    8cbc:	439c                	lw	a5,0(a5)
    8cbe:	5388                	lw	a0,32(a5)
    8cc0:	e509                	bnez	a0,8cca <_localeconv_r+0x12>
    8cc2:	1fff7517          	auipc	a0,0x1fff7
    8cc6:	3f250513          	addi	a0,a0,1010 # 200000b4 <__global_locale>
    8cca:	0f050513          	addi	a0,a0,240
    8cce:	8082                	ret

00008cd0 <__swhatbuf_r>:
__swhatbuf_r():
    8cd0:	7119                	addi	sp,sp,-128
    8cd2:	daa6                	sw	s1,116(sp)
    8cd4:	84ae                	mv	s1,a1
    8cd6:	00e59583          	lh	a1,14(a1)
    8cda:	dca2                	sw	s0,120(sp)
    8cdc:	de86                	sw	ra,124(sp)
    8cde:	8432                	mv	s0,a2
    8ce0:	0005dc63          	bgez	a1,8cf8 <__swhatbuf_r+0x28>
    8ce4:	00c4d783          	lhu	a5,12(s1)
    8ce8:	0006a023          	sw	zero,0(a3)
    8cec:	0807f793          	andi	a5,a5,128
    8cf0:	e785                	bnez	a5,8d18 <__swhatbuf_r+0x48>
    8cf2:	40000793          	li	a5,1024
    8cf6:	a01d                	j	8d1c <__swhatbuf_r+0x4c>
    8cf8:	0830                	addi	a2,sp,24
    8cfa:	c636                	sw	a3,12(sp)
    8cfc:	5cd000ef          	jal	ra,9ac8 <_fstat_r>
    8d00:	46b2                	lw	a3,12(sp)
    8d02:	fe0541e3          	bltz	a0,8ce4 <__swhatbuf_r+0x14>
    8d06:	4772                	lw	a4,28(sp)
    8d08:	67bd                	lui	a5,0xf
    8d0a:	8ff9                	and	a5,a5,a4
    8d0c:	7779                	lui	a4,0xffffe
    8d0e:	97ba                	add	a5,a5,a4
    8d10:	0017b793          	seqz	a5,a5
    8d14:	c29c                	sw	a5,0(a3)
    8d16:	bff1                	j	8cf2 <__swhatbuf_r+0x22>
    8d18:	04000793          	li	a5,64
    8d1c:	c01c                	sw	a5,0(s0)
    8d1e:	50f6                	lw	ra,124(sp)
    8d20:	5466                	lw	s0,120(sp)
    8d22:	54d6                	lw	s1,116(sp)
    8d24:	4501                	li	a0,0
    8d26:	6109                	addi	sp,sp,128
    8d28:	8082                	ret

00008d2a <__smakebuf_r>:
__smakebuf_r():
    8d2a:	00c5d783          	lhu	a5,12(a1)
    8d2e:	1101                	addi	sp,sp,-32
    8d30:	cc22                	sw	s0,24(sp)
    8d32:	ce06                	sw	ra,28(sp)
    8d34:	ca26                	sw	s1,20(sp)
    8d36:	c84a                	sw	s2,16(sp)
    8d38:	8b89                	andi	a5,a5,2
    8d3a:	842e                	mv	s0,a1
    8d3c:	cf89                	beqz	a5,8d56 <__smakebuf_r+0x2c>
    8d3e:	04740793          	addi	a5,s0,71
    8d42:	c01c                	sw	a5,0(s0)
    8d44:	c81c                	sw	a5,16(s0)
    8d46:	4785                	li	a5,1
    8d48:	c85c                	sw	a5,20(s0)
    8d4a:	40f2                	lw	ra,28(sp)
    8d4c:	4462                	lw	s0,24(sp)
    8d4e:	44d2                	lw	s1,20(sp)
    8d50:	4942                	lw	s2,16(sp)
    8d52:	6105                	addi	sp,sp,32
    8d54:	8082                	ret
    8d56:	0074                	addi	a3,sp,12
    8d58:	0030                	addi	a2,sp,8
    8d5a:	84aa                	mv	s1,a0
    8d5c:	f75ff0ef          	jal	ra,8cd0 <__swhatbuf_r>
    8d60:	45a2                	lw	a1,8(sp)
    8d62:	892a                	mv	s2,a0
    8d64:	8526                	mv	a0,s1
    8d66:	04f000ef          	jal	ra,95b4 <_malloc_r>
    8d6a:	ed01                	bnez	a0,8d82 <__smakebuf_r+0x58>
    8d6c:	00c41783          	lh	a5,12(s0)
    8d70:	2007f713          	andi	a4,a5,512
    8d74:	fb79                	bnez	a4,8d4a <__smakebuf_r+0x20>
    8d76:	9bf1                	andi	a5,a5,-4
    8d78:	0027e793          	ori	a5,a5,2
    8d7c:	00f41623          	sh	a5,12(s0)
    8d80:	bf7d                	j	8d3e <__smakebuf_r+0x14>
    8d82:	00000797          	auipc	a5,0x0
    8d86:	d6c78793          	addi	a5,a5,-660 # 8aee <_cleanup_r>
    8d8a:	d49c                	sw	a5,40(s1)
    8d8c:	00c45783          	lhu	a5,12(s0)
    8d90:	c008                	sw	a0,0(s0)
    8d92:	c808                	sw	a0,16(s0)
    8d94:	0807e793          	ori	a5,a5,128
    8d98:	00f41623          	sh	a5,12(s0)
    8d9c:	47a2                	lw	a5,8(sp)
    8d9e:	c85c                	sw	a5,20(s0)
    8da0:	47b2                	lw	a5,12(sp)
    8da2:	cf91                	beqz	a5,8dbe <__smakebuf_r+0x94>
    8da4:	00e41583          	lh	a1,14(s0)
    8da8:	8526                	mv	a0,s1
    8daa:	549000ef          	jal	ra,9af2 <_isatty_r>
    8dae:	c901                	beqz	a0,8dbe <__smakebuf_r+0x94>
    8db0:	00c45783          	lhu	a5,12(s0)
    8db4:	9bf1                	andi	a5,a5,-4
    8db6:	0017e793          	ori	a5,a5,1
    8dba:	00f41623          	sh	a5,12(s0)
    8dbe:	00c45783          	lhu	a5,12(s0)
    8dc2:	00f96933          	or	s2,s2,a5
    8dc6:	01241623          	sh	s2,12(s0)
    8dca:	b741                	j	8d4a <__smakebuf_r+0x20>

00008dcc <malloc>:
malloc():
    8dcc:	81418793          	addi	a5,gp,-2028 # 20000234 <_impure_ptr>
    8dd0:	85aa                	mv	a1,a0
    8dd2:	4388                	lw	a0,0(a5)
    8dd4:	7e00006f          	j	95b4 <_malloc_r>

00008dd8 <memchr>:
memchr():
    8dd8:	0ff5f593          	andi	a1,a1,255
    8ddc:	962a                	add	a2,a2,a0
    8dde:	00c51463          	bne	a0,a2,8de6 <memchr+0xe>
    8de2:	4501                	li	a0,0
    8de4:	8082                	ret
    8de6:	00054783          	lbu	a5,0(a0)
    8dea:	feb78de3          	beq	a5,a1,8de4 <memchr+0xc>
    8dee:	0505                	addi	a0,a0,1
    8df0:	b7fd                	j	8dde <memchr+0x6>

00008df2 <_Balloc>:
_Balloc():
    8df2:	515c                	lw	a5,36(a0)
    8df4:	1141                	addi	sp,sp,-16
    8df6:	c422                	sw	s0,8(sp)
    8df8:	c04a                	sw	s2,0(sp)
    8dfa:	c606                	sw	ra,12(sp)
    8dfc:	c226                	sw	s1,4(sp)
    8dfe:	842a                	mv	s0,a0
    8e00:	892e                	mv	s2,a1
    8e02:	ef89                	bnez	a5,8e1c <_Balloc+0x2a>
    8e04:	4541                	li	a0,16
    8e06:	fc7ff0ef          	jal	ra,8dcc <malloc>
    8e0a:	d048                	sw	a0,36(s0)
    8e0c:	00052223          	sw	zero,4(a0)
    8e10:	00052423          	sw	zero,8(a0)
    8e14:	00052023          	sw	zero,0(a0)
    8e18:	00052623          	sw	zero,12(a0)
    8e1c:	5044                	lw	s1,36(s0)
    8e1e:	44dc                	lw	a5,12(s1)
    8e20:	c795                	beqz	a5,8e4c <_Balloc+0x5a>
    8e22:	5058                	lw	a4,36(s0)
    8e24:	00291793          	slli	a5,s2,0x2
    8e28:	4758                	lw	a4,12(a4)
    8e2a:	97ba                	add	a5,a5,a4
    8e2c:	4388                	lw	a0,0(a5)
    8e2e:	ed1d                	bnez	a0,8e6c <_Balloc+0x7a>
    8e30:	4485                	li	s1,1
    8e32:	012494b3          	sll	s1,s1,s2
    8e36:	00548613          	addi	a2,s1,5
    8e3a:	060a                	slli	a2,a2,0x2
    8e3c:	4585                	li	a1,1
    8e3e:	8522                	mv	a0,s0
    8e40:	256d                	jal	94ea <_calloc_r>
    8e42:	cd11                	beqz	a0,8e5e <_Balloc+0x6c>
    8e44:	01252223          	sw	s2,4(a0)
    8e48:	c504                	sw	s1,8(a0)
    8e4a:	a01d                	j	8e70 <_Balloc+0x7e>
    8e4c:	02100613          	li	a2,33
    8e50:	4591                	li	a1,4
    8e52:	8522                	mv	a0,s0
    8e54:	2d59                	jal	94ea <_calloc_r>
    8e56:	505c                	lw	a5,36(s0)
    8e58:	c4c8                	sw	a0,12(s1)
    8e5a:	47dc                	lw	a5,12(a5)
    8e5c:	f3f9                	bnez	a5,8e22 <_Balloc+0x30>
    8e5e:	4501                	li	a0,0
    8e60:	40b2                	lw	ra,12(sp)
    8e62:	4422                	lw	s0,8(sp)
    8e64:	4492                	lw	s1,4(sp)
    8e66:	4902                	lw	s2,0(sp)
    8e68:	0141                	addi	sp,sp,16
    8e6a:	8082                	ret
    8e6c:	4118                	lw	a4,0(a0)
    8e6e:	c398                	sw	a4,0(a5)
    8e70:	00052823          	sw	zero,16(a0)
    8e74:	00052623          	sw	zero,12(a0)
    8e78:	b7e5                	j	8e60 <_Balloc+0x6e>

00008e7a <_Bfree>:
_Bfree():
    8e7a:	515c                	lw	a5,36(a0)
    8e7c:	1101                	addi	sp,sp,-32
    8e7e:	cc22                	sw	s0,24(sp)
    8e80:	ce06                	sw	ra,28(sp)
    8e82:	842a                	mv	s0,a0
    8e84:	ef99                	bnez	a5,8ea2 <_Bfree+0x28>
    8e86:	4541                	li	a0,16
    8e88:	c62e                	sw	a1,12(sp)
    8e8a:	f43ff0ef          	jal	ra,8dcc <malloc>
    8e8e:	45b2                	lw	a1,12(sp)
    8e90:	d048                	sw	a0,36(s0)
    8e92:	00052223          	sw	zero,4(a0)
    8e96:	00052423          	sw	zero,8(a0)
    8e9a:	00052023          	sw	zero,0(a0)
    8e9e:	00052623          	sw	zero,12(a0)
    8ea2:	c991                	beqz	a1,8eb6 <_Bfree+0x3c>
    8ea4:	5054                	lw	a3,36(s0)
    8ea6:	41dc                	lw	a5,4(a1)
    8ea8:	00279713          	slli	a4,a5,0x2
    8eac:	46dc                	lw	a5,12(a3)
    8eae:	97ba                	add	a5,a5,a4
    8eb0:	4398                	lw	a4,0(a5)
    8eb2:	c198                	sw	a4,0(a1)
    8eb4:	c38c                	sw	a1,0(a5)
    8eb6:	40f2                	lw	ra,28(sp)
    8eb8:	4462                	lw	s0,24(sp)
    8eba:	6105                	addi	sp,sp,32
    8ebc:	8082                	ret

00008ebe <__multadd>:
__multadd():
    8ebe:	7179                	addi	sp,sp,-48
    8ec0:	ce4e                	sw	s3,28(sp)
    8ec2:	89aa                	mv	s3,a0
    8ec4:	6541                	lui	a0,0x10
    8ec6:	d422                	sw	s0,40(sp)
    8ec8:	d226                	sw	s1,36(sp)
    8eca:	842e                	mv	s0,a1
    8ecc:	4984                	lw	s1,16(a1)
    8ece:	d606                	sw	ra,44(sp)
    8ed0:	d04a                	sw	s2,32(sp)
    8ed2:	05d1                	addi	a1,a1,20
    8ed4:	4801                	li	a6,0
    8ed6:	157d                	addi	a0,a0,-1
    8ed8:	419c                	lw	a5,0(a1)
    8eda:	0591                	addi	a1,a1,4
    8edc:	0805                	addi	a6,a6,1
    8ede:	00a7f733          	and	a4,a5,a0
    8ee2:	02c70733          	mul	a4,a4,a2
    8ee6:	83c1                	srli	a5,a5,0x10
    8ee8:	02c787b3          	mul	a5,a5,a2
    8eec:	9736                	add	a4,a4,a3
    8eee:	01075693          	srli	a3,a4,0x10
    8ef2:	8f69                	and	a4,a4,a0
    8ef4:	97b6                	add	a5,a5,a3
    8ef6:	0107d693          	srli	a3,a5,0x10
    8efa:	07c2                	slli	a5,a5,0x10
    8efc:	97ba                	add	a5,a5,a4
    8efe:	fef5ae23          	sw	a5,-4(a1)
    8f02:	fc984be3          	blt	a6,s1,8ed8 <__multadd+0x1a>
    8f06:	c2a1                	beqz	a3,8f46 <__multadd+0x88>
    8f08:	441c                	lw	a5,8(s0)
    8f0a:	02f4c763          	blt	s1,a5,8f38 <__multadd+0x7a>
    8f0e:	404c                	lw	a1,4(s0)
    8f10:	854e                	mv	a0,s3
    8f12:	c636                	sw	a3,12(sp)
    8f14:	0585                	addi	a1,a1,1
    8f16:	eddff0ef          	jal	ra,8df2 <_Balloc>
    8f1a:	4810                	lw	a2,16(s0)
    8f1c:	00c40593          	addi	a1,s0,12
    8f20:	892a                	mv	s2,a0
    8f22:	0609                	addi	a2,a2,2
    8f24:	060a                	slli	a2,a2,0x2
    8f26:	0531                	addi	a0,a0,12
    8f28:	f89fd0ef          	jal	ra,6eb0 <memcpy>
    8f2c:	85a2                	mv	a1,s0
    8f2e:	854e                	mv	a0,s3
    8f30:	f4bff0ef          	jal	ra,8e7a <_Bfree>
    8f34:	46b2                	lw	a3,12(sp)
    8f36:	844a                	mv	s0,s2
    8f38:	00448793          	addi	a5,s1,4
    8f3c:	078a                	slli	a5,a5,0x2
    8f3e:	97a2                	add	a5,a5,s0
    8f40:	c3d4                	sw	a3,4(a5)
    8f42:	0485                	addi	s1,s1,1
    8f44:	c804                	sw	s1,16(s0)
    8f46:	8522                	mv	a0,s0
    8f48:	50b2                	lw	ra,44(sp)
    8f4a:	5422                	lw	s0,40(sp)
    8f4c:	5492                	lw	s1,36(sp)
    8f4e:	5902                	lw	s2,32(sp)
    8f50:	49f2                	lw	s3,28(sp)
    8f52:	6145                	addi	sp,sp,48
    8f54:	8082                	ret

00008f56 <__hi0bits>:
__hi0bits():
    8f56:	7741                	lui	a4,0xffff0
    8f58:	8f69                	and	a4,a4,a0
    8f5a:	87aa                	mv	a5,a0
    8f5c:	4501                	li	a0,0
    8f5e:	e319                	bnez	a4,8f64 <__hi0bits+0xe>
    8f60:	07c2                	slli	a5,a5,0x10
    8f62:	4541                	li	a0,16
    8f64:	ff000737          	lui	a4,0xff000
    8f68:	8f7d                	and	a4,a4,a5
    8f6a:	e319                	bnez	a4,8f70 <__hi0bits+0x1a>
    8f6c:	0521                	addi	a0,a0,8
    8f6e:	07a2                	slli	a5,a5,0x8
    8f70:	f0000737          	lui	a4,0xf0000
    8f74:	8f7d                	and	a4,a4,a5
    8f76:	e319                	bnez	a4,8f7c <__hi0bits+0x26>
    8f78:	0511                	addi	a0,a0,4
    8f7a:	0792                	slli	a5,a5,0x4
    8f7c:	c0000737          	lui	a4,0xc0000
    8f80:	8f7d                	and	a4,a4,a5
    8f82:	e319                	bnez	a4,8f88 <__hi0bits+0x32>
    8f84:	0509                	addi	a0,a0,2
    8f86:	078a                	slli	a5,a5,0x2
    8f88:	0007c963          	bltz	a5,8f9a <__hi0bits+0x44>
    8f8c:	00179713          	slli	a4,a5,0x1
    8f90:	0505                	addi	a0,a0,1
    8f92:	00074463          	bltz	a4,8f9a <__hi0bits+0x44>
    8f96:	02000513          	li	a0,32
    8f9a:	8082                	ret

00008f9c <__lo0bits>:
__lo0bits():
    8f9c:	411c                	lw	a5,0(a0)
    8f9e:	0077f713          	andi	a4,a5,7
    8fa2:	c30d                	beqz	a4,8fc4 <__lo0bits+0x28>
    8fa4:	0017f693          	andi	a3,a5,1
    8fa8:	4701                	li	a4,0
    8faa:	e699                	bnez	a3,8fb8 <__lo0bits+0x1c>
    8fac:	0027f713          	andi	a4,a5,2
    8fb0:	c711                	beqz	a4,8fbc <__lo0bits+0x20>
    8fb2:	8385                	srli	a5,a5,0x1
    8fb4:	c11c                	sw	a5,0(a0)
    8fb6:	4705                	li	a4,1
    8fb8:	853a                	mv	a0,a4
    8fba:	8082                	ret
    8fbc:	8389                	srli	a5,a5,0x2
    8fbe:	c11c                	sw	a5,0(a0)
    8fc0:	4709                	li	a4,2
    8fc2:	bfdd                	j	8fb8 <__lo0bits+0x1c>
    8fc4:	01079693          	slli	a3,a5,0x10
    8fc8:	82c1                	srli	a3,a3,0x10
    8fca:	4701                	li	a4,0
    8fcc:	e299                	bnez	a3,8fd2 <__lo0bits+0x36>
    8fce:	83c1                	srli	a5,a5,0x10
    8fd0:	4741                	li	a4,16
    8fd2:	0ff7f693          	andi	a3,a5,255
    8fd6:	e299                	bnez	a3,8fdc <__lo0bits+0x40>
    8fd8:	0721                	addi	a4,a4,8
    8fda:	83a1                	srli	a5,a5,0x8
    8fdc:	00f7f693          	andi	a3,a5,15
    8fe0:	e299                	bnez	a3,8fe6 <__lo0bits+0x4a>
    8fe2:	0711                	addi	a4,a4,4
    8fe4:	8391                	srli	a5,a5,0x4
    8fe6:	0037f693          	andi	a3,a5,3
    8fea:	e299                	bnez	a3,8ff0 <__lo0bits+0x54>
    8fec:	0709                	addi	a4,a4,2
    8fee:	8389                	srli	a5,a5,0x2
    8ff0:	0017f693          	andi	a3,a5,1
    8ff4:	e681                	bnez	a3,8ffc <__lo0bits+0x60>
    8ff6:	8385                	srli	a5,a5,0x1
    8ff8:	0705                	addi	a4,a4,1
    8ffa:	c399                	beqz	a5,9000 <__lo0bits+0x64>
    8ffc:	c11c                	sw	a5,0(a0)
    8ffe:	bf6d                	j	8fb8 <__lo0bits+0x1c>
    9000:	02000713          	li	a4,32
    9004:	bf55                	j	8fb8 <__lo0bits+0x1c>

00009006 <__i2b>:
__i2b():
    9006:	1141                	addi	sp,sp,-16
    9008:	c422                	sw	s0,8(sp)
    900a:	842e                	mv	s0,a1
    900c:	4585                	li	a1,1
    900e:	c606                	sw	ra,12(sp)
    9010:	de3ff0ef          	jal	ra,8df2 <_Balloc>
    9014:	c940                	sw	s0,20(a0)
    9016:	40b2                	lw	ra,12(sp)
    9018:	4422                	lw	s0,8(sp)
    901a:	4705                	li	a4,1
    901c:	c918                	sw	a4,16(a0)
    901e:	0141                	addi	sp,sp,16
    9020:	8082                	ret

00009022 <__multiply>:
__multiply():
    9022:	4998                	lw	a4,16(a1)
    9024:	4a1c                	lw	a5,16(a2)
    9026:	7179                	addi	sp,sp,-48
    9028:	d226                	sw	s1,36(sp)
    902a:	d606                	sw	ra,44(sp)
    902c:	d422                	sw	s0,40(sp)
    902e:	d04a                	sw	s2,32(sp)
    9030:	ce4e                	sw	s3,28(sp)
    9032:	84ae                	mv	s1,a1
    9034:	00f75463          	bge	a4,a5,903c <__multiply+0x1a>
    9038:	84b2                	mv	s1,a2
    903a:	862e                	mv	a2,a1
    903c:	0104a983          	lw	s3,16(s1)
    9040:	01062903          	lw	s2,16(a2) # 10010 <_data_lma+0x592c>
    9044:	449c                	lw	a5,8(s1)
    9046:	40cc                	lw	a1,4(s1)
    9048:	01298433          	add	s0,s3,s2
    904c:	0087d363          	bge	a5,s0,9052 <__multiply+0x30>
    9050:	0585                	addi	a1,a1,1
    9052:	c632                	sw	a2,12(sp)
    9054:	d9fff0ef          	jal	ra,8df2 <_Balloc>
    9058:	4632                	lw	a2,12(sp)
    905a:	01450813          	addi	a6,a0,20 # 10014 <_data_lma+0x5930>
    905e:	00241313          	slli	t1,s0,0x2
    9062:	9342                	add	t1,t1,a6
    9064:	87c2                	mv	a5,a6
    9066:	0267ed63          	bltu	a5,t1,90a0 <__multiply+0x7e>
    906a:	01448593          	addi	a1,s1,20
    906e:	00299893          	slli	a7,s3,0x2
    9072:	0651                	addi	a2,a2,20
    9074:	00291e13          	slli	t3,s2,0x2
    9078:	66c1                	lui	a3,0x10
    907a:	98ae                	add	a7,a7,a1
    907c:	9e32                	add	t3,t3,a2
    907e:	16fd                	addi	a3,a3,-1
    9080:	03c66463          	bltu	a2,t3,90a8 <__multiply+0x86>
    9084:	00805663          	blez	s0,9090 <__multiply+0x6e>
    9088:	1371                	addi	t1,t1,-4
    908a:	00032783          	lw	a5,0(t1)
    908e:	cbf1                	beqz	a5,9162 <__multiply+0x140>
    9090:	c900                	sw	s0,16(a0)
    9092:	50b2                	lw	ra,44(sp)
    9094:	5422                	lw	s0,40(sp)
    9096:	5492                	lw	s1,36(sp)
    9098:	5902                	lw	s2,32(sp)
    909a:	49f2                	lw	s3,28(sp)
    909c:	6145                	addi	sp,sp,48
    909e:	8082                	ret
    90a0:	0007a023          	sw	zero,0(a5)
    90a4:	0791                	addi	a5,a5,4
    90a6:	b7c1                	j	9066 <__multiply+0x44>
    90a8:	00062f83          	lw	t6,0(a2)
    90ac:	00dfffb3          	and	t6,t6,a3
    90b0:	040f8a63          	beqz	t6,9104 <__multiply+0xe2>
    90b4:	8f42                	mv	t5,a6
    90b6:	82ae                	mv	t0,a1
    90b8:	4481                	li	s1,0
    90ba:	0002a703          	lw	a4,0(t0)
    90be:	000f2383          	lw	t2,0(t5)
    90c2:	0f11                	addi	t5,t5,4
    90c4:	00d77eb3          	and	t4,a4,a3
    90c8:	03fe8eb3          	mul	t4,t4,t6
    90cc:	00d3f7b3          	and	a5,t2,a3
    90d0:	0103d393          	srli	t2,t2,0x10
    90d4:	0291                	addi	t0,t0,4
    90d6:	9ebe                	add	t4,t4,a5
    90d8:	01075793          	srli	a5,a4,0x10
    90dc:	03f787b3          	mul	a5,a5,t6
    90e0:	9ea6                	add	t4,t4,s1
    90e2:	010ed713          	srli	a4,t4,0x10
    90e6:	00defeb3          	and	t4,t4,a3
    90ea:	979e                	add	a5,a5,t2
    90ec:	97ba                	add	a5,a5,a4
    90ee:	0107d493          	srli	s1,a5,0x10
    90f2:	07c2                	slli	a5,a5,0x10
    90f4:	01d7e7b3          	or	a5,a5,t4
    90f8:	feff2e23          	sw	a5,-4(t5)
    90fc:	fb12efe3          	bltu	t0,a7,90ba <__multiply+0x98>
    9100:	009f2023          	sw	s1,0(t5)
    9104:	00265283          	lhu	t0,2(a2)
    9108:	04028a63          	beqz	t0,915c <__multiply+0x13a>
    910c:	00082783          	lw	a5,0(a6)
    9110:	8ec2                	mv	t4,a6
    9112:	8f2e                	mv	t5,a1
    9114:	4f81                	li	t6,0
    9116:	000f2703          	lw	a4,0(t5)
    911a:	002ed383          	lhu	t2,2(t4)
    911e:	8ff5                	and	a5,a5,a3
    9120:	8f75                	and	a4,a4,a3
    9122:	02570733          	mul	a4,a4,t0
    9126:	0e91                	addi	t4,t4,4
    9128:	0f11                	addi	t5,t5,4
    912a:	971e                	add	a4,a4,t2
    912c:	977e                	add	a4,a4,t6
    912e:	01071f93          	slli	t6,a4,0x10
    9132:	00ffe7b3          	or	a5,t6,a5
    9136:	fefeae23          	sw	a5,-4(t4)
    913a:	ffef5783          	lhu	a5,-2(t5)
    913e:	000eaf83          	lw	t6,0(t4)
    9142:	8341                	srli	a4,a4,0x10
    9144:	025787b3          	mul	a5,a5,t0
    9148:	00dfffb3          	and	t6,t6,a3
    914c:	97fe                	add	a5,a5,t6
    914e:	97ba                	add	a5,a5,a4
    9150:	0107df93          	srli	t6,a5,0x10
    9154:	fd1f61e3          	bltu	t5,a7,9116 <__multiply+0xf4>
    9158:	00fea023          	sw	a5,0(t4)
    915c:	0611                	addi	a2,a2,4
    915e:	0811                	addi	a6,a6,4
    9160:	b705                	j	9080 <__multiply+0x5e>
    9162:	147d                	addi	s0,s0,-1
    9164:	b705                	j	9084 <__multiply+0x62>

00009166 <__pow5mult>:
__pow5mult():
    9166:	1101                	addi	sp,sp,-32
    9168:	ca26                	sw	s1,20(sp)
    916a:	c84a                	sw	s2,16(sp)
    916c:	c64e                	sw	s3,12(sp)
    916e:	ce06                	sw	ra,28(sp)
    9170:	cc22                	sw	s0,24(sp)
    9172:	c452                	sw	s4,8(sp)
    9174:	00367793          	andi	a5,a2,3
    9178:	892a                	mv	s2,a0
    917a:	84b2                	mv	s1,a2
    917c:	89ae                	mv	s3,a1
    917e:	cf89                	beqz	a5,9198 <__pow5mult+0x32>
    9180:	17fd                	addi	a5,a5,-1
    9182:	00001717          	auipc	a4,0x1
    9186:	42e70713          	addi	a4,a4,1070 # a5b0 <p05.3319>
    918a:	078a                	slli	a5,a5,0x2
    918c:	97ba                	add	a5,a5,a4
    918e:	4390                	lw	a2,0(a5)
    9190:	4681                	li	a3,0
    9192:	d2dff0ef          	jal	ra,8ebe <__multadd>
    9196:	89aa                	mv	s3,a0
    9198:	8489                	srai	s1,s1,0x2
    919a:	cca5                	beqz	s1,9212 <__pow5mult+0xac>
    919c:	02492783          	lw	a5,36(s2)
    91a0:	ef91                	bnez	a5,91bc <__pow5mult+0x56>
    91a2:	4541                	li	a0,16
    91a4:	c29ff0ef          	jal	ra,8dcc <malloc>
    91a8:	02a92223          	sw	a0,36(s2)
    91ac:	00052223          	sw	zero,4(a0)
    91b0:	00052423          	sw	zero,8(a0)
    91b4:	00052023          	sw	zero,0(a0)
    91b8:	00052623          	sw	zero,12(a0)
    91bc:	02492a03          	lw	s4,36(s2)
    91c0:	008a2403          	lw	s0,8(s4)
    91c4:	e819                	bnez	s0,91da <__pow5mult+0x74>
    91c6:	27100593          	li	a1,625
    91ca:	854a                	mv	a0,s2
    91cc:	e3bff0ef          	jal	ra,9006 <__i2b>
    91d0:	00aa2423          	sw	a0,8(s4)
    91d4:	842a                	mv	s0,a0
    91d6:	00052023          	sw	zero,0(a0)
    91da:	0014f793          	andi	a5,s1,1
    91de:	cf81                	beqz	a5,91f6 <__pow5mult+0x90>
    91e0:	85ce                	mv	a1,s3
    91e2:	8622                	mv	a2,s0
    91e4:	854a                	mv	a0,s2
    91e6:	e3dff0ef          	jal	ra,9022 <__multiply>
    91ea:	8a2a                	mv	s4,a0
    91ec:	85ce                	mv	a1,s3
    91ee:	854a                	mv	a0,s2
    91f0:	c8bff0ef          	jal	ra,8e7a <_Bfree>
    91f4:	89d2                	mv	s3,s4
    91f6:	8485                	srai	s1,s1,0x1
    91f8:	cc89                	beqz	s1,9212 <__pow5mult+0xac>
    91fa:	4008                	lw	a0,0(s0)
    91fc:	e909                	bnez	a0,920e <__pow5mult+0xa8>
    91fe:	8622                	mv	a2,s0
    9200:	85a2                	mv	a1,s0
    9202:	854a                	mv	a0,s2
    9204:	e1fff0ef          	jal	ra,9022 <__multiply>
    9208:	c008                	sw	a0,0(s0)
    920a:	00052023          	sw	zero,0(a0)
    920e:	842a                	mv	s0,a0
    9210:	b7e9                	j	91da <__pow5mult+0x74>
    9212:	40f2                	lw	ra,28(sp)
    9214:	4462                	lw	s0,24(sp)
    9216:	854e                	mv	a0,s3
    9218:	44d2                	lw	s1,20(sp)
    921a:	4942                	lw	s2,16(sp)
    921c:	49b2                	lw	s3,12(sp)
    921e:	4a22                	lw	s4,8(sp)
    9220:	6105                	addi	sp,sp,32
    9222:	8082                	ret

00009224 <__lshift>:
__lshift():
    9224:	7179                	addi	sp,sp,-48
    9226:	d226                	sw	s1,36(sp)
    9228:	84ae                	mv	s1,a1
    922a:	ce4e                	sw	s3,28(sp)
    922c:	0104a983          	lw	s3,16(s1)
    9230:	d422                	sw	s0,40(sp)
    9232:	41cc                	lw	a1,4(a1)
    9234:	40565413          	srai	s0,a2,0x5
    9238:	449c                	lw	a5,8(s1)
    923a:	99a2                	add	s3,s3,s0
    923c:	d04a                	sw	s2,32(sp)
    923e:	ca56                	sw	s5,20(sp)
    9240:	d606                	sw	ra,44(sp)
    9242:	cc52                	sw	s4,24(sp)
    9244:	8aaa                	mv	s5,a0
    9246:	00198913          	addi	s2,s3,1
    924a:	0927c463          	blt	a5,s2,92d2 <__lshift+0xae>
    924e:	8556                	mv	a0,s5
    9250:	c632                	sw	a2,12(sp)
    9252:	ba1ff0ef          	jal	ra,8df2 <_Balloc>
    9256:	4632                	lw	a2,12(sp)
    9258:	01450793          	addi	a5,a0,20
    925c:	8a2a                	mv	s4,a0
    925e:	86be                	mv	a3,a5
    9260:	4701                	li	a4,0
    9262:	0691                	addi	a3,a3,4
    9264:	06874a63          	blt	a4,s0,92d8 <__lshift+0xb4>
    9268:	00045363          	bgez	s0,926e <__lshift+0x4a>
    926c:	4401                	li	s0,0
    926e:	4894                	lw	a3,16(s1)
    9270:	040a                	slli	s0,s0,0x2
    9272:	00878733          	add	a4,a5,s0
    9276:	068a                	slli	a3,a3,0x2
    9278:	01448793          	addi	a5,s1,20
    927c:	8a7d                	andi	a2,a2,31
    927e:	96be                	add	a3,a3,a5
    9280:	c225                	beqz	a2,92e0 <__lshift+0xbc>
    9282:	02000813          	li	a6,32
    9286:	40c80833          	sub	a6,a6,a2
    928a:	4581                	li	a1,0
    928c:	4388                	lw	a0,0(a5)
    928e:	0711                	addi	a4,a4,4
    9290:	0791                	addi	a5,a5,4
    9292:	00c51533          	sll	a0,a0,a2
    9296:	8dc9                	or	a1,a1,a0
    9298:	feb72e23          	sw	a1,-4(a4)
    929c:	ffc7a583          	lw	a1,-4(a5)
    92a0:	0105d5b3          	srl	a1,a1,a6
    92a4:	fed7e4e3          	bltu	a5,a3,928c <__lshift+0x68>
    92a8:	c30c                	sw	a1,0(a4)
    92aa:	c199                	beqz	a1,92b0 <__lshift+0x8c>
    92ac:	00298913          	addi	s2,s3,2
    92b0:	197d                	addi	s2,s2,-1
    92b2:	012a2823          	sw	s2,16(s4)
    92b6:	8556                	mv	a0,s5
    92b8:	85a6                	mv	a1,s1
    92ba:	bc1ff0ef          	jal	ra,8e7a <_Bfree>
    92be:	50b2                	lw	ra,44(sp)
    92c0:	5422                	lw	s0,40(sp)
    92c2:	8552                	mv	a0,s4
    92c4:	5492                	lw	s1,36(sp)
    92c6:	5902                	lw	s2,32(sp)
    92c8:	49f2                	lw	s3,28(sp)
    92ca:	4a62                	lw	s4,24(sp)
    92cc:	4ad2                	lw	s5,20(sp)
    92ce:	6145                	addi	sp,sp,48
    92d0:	8082                	ret
    92d2:	0585                	addi	a1,a1,1
    92d4:	0786                	slli	a5,a5,0x1
    92d6:	bf95                	j	924a <__lshift+0x26>
    92d8:	fe06ae23          	sw	zero,-4(a3) # fffc <_data_lma+0x5918>
    92dc:	0705                	addi	a4,a4,1
    92de:	b751                	j	9262 <__lshift+0x3e>
    92e0:	0791                	addi	a5,a5,4
    92e2:	ffc7a603          	lw	a2,-4(a5)
    92e6:	0711                	addi	a4,a4,4
    92e8:	fec72e23          	sw	a2,-4(a4)
    92ec:	fed7eae3          	bltu	a5,a3,92e0 <__lshift+0xbc>
    92f0:	b7c1                	j	92b0 <__lshift+0x8c>

000092f2 <__mcmp>:
__mcmp():
    92f2:	491c                	lw	a5,16(a0)
    92f4:	4998                	lw	a4,16(a1)
    92f6:	8f99                	sub	a5,a5,a4
    92f8:	e38d                	bnez	a5,931a <__mcmp+0x28>
    92fa:	070a                	slli	a4,a4,0x2
    92fc:	0551                	addi	a0,a0,20
    92fe:	05d1                	addi	a1,a1,20
    9300:	00e506b3          	add	a3,a0,a4
    9304:	95ba                	add	a1,a1,a4
    9306:	16f1                	addi	a3,a3,-4
    9308:	15f1                	addi	a1,a1,-4
    930a:	4290                	lw	a2,0(a3)
    930c:	4198                	lw	a4,0(a1)
    930e:	00e60863          	beq	a2,a4,931e <__mcmp+0x2c>
    9312:	57fd                	li	a5,-1
    9314:	00e66363          	bltu	a2,a4,931a <__mcmp+0x28>
    9318:	4785                	li	a5,1
    931a:	853e                	mv	a0,a5
    931c:	8082                	ret
    931e:	fed564e3          	bltu	a0,a3,9306 <__mcmp+0x14>
    9322:	bfe5                	j	931a <__mcmp+0x28>

00009324 <__mdiff>:
__mdiff():
    9324:	1101                	addi	sp,sp,-32
    9326:	ca26                	sw	s1,20(sp)
    9328:	84ae                	mv	s1,a1
    932a:	c64e                	sw	s3,12(sp)
    932c:	85b2                	mv	a1,a2
    932e:	89aa                	mv	s3,a0
    9330:	8526                	mv	a0,s1
    9332:	cc22                	sw	s0,24(sp)
    9334:	ce06                	sw	ra,28(sp)
    9336:	c84a                	sw	s2,16(sp)
    9338:	8432                	mv	s0,a2
    933a:	fb9ff0ef          	jal	ra,92f2 <__mcmp>
    933e:	e105                	bnez	a0,935e <__mdiff+0x3a>
    9340:	4581                	li	a1,0
    9342:	854e                	mv	a0,s3
    9344:	aafff0ef          	jal	ra,8df2 <_Balloc>
    9348:	4785                	li	a5,1
    934a:	c91c                	sw	a5,16(a0)
    934c:	00052a23          	sw	zero,20(a0)
    9350:	40f2                	lw	ra,28(sp)
    9352:	4462                	lw	s0,24(sp)
    9354:	44d2                	lw	s1,20(sp)
    9356:	4942                	lw	s2,16(sp)
    9358:	49b2                	lw	s3,12(sp)
    935a:	6105                	addi	sp,sp,32
    935c:	8082                	ret
    935e:	4905                	li	s2,1
    9360:	00054663          	bltz	a0,936c <__mdiff+0x48>
    9364:	87a2                	mv	a5,s0
    9366:	4901                	li	s2,0
    9368:	8426                	mv	s0,s1
    936a:	84be                	mv	s1,a5
    936c:	404c                	lw	a1,4(s0)
    936e:	854e                	mv	a0,s3
    9370:	a83ff0ef          	jal	ra,8df2 <_Balloc>
    9374:	01042303          	lw	t1,16(s0)
    9378:	0104a883          	lw	a7,16(s1)
    937c:	01440613          	addi	a2,s0,20
    9380:	00231e13          	slli	t3,t1,0x2
    9384:	01448813          	addi	a6,s1,20
    9388:	088a                	slli	a7,a7,0x2
    938a:	6ec1                	lui	t4,0x10
    938c:	01252623          	sw	s2,12(a0)
    9390:	9e32                	add	t3,t3,a2
    9392:	98c2                	add	a7,a7,a6
    9394:	01450693          	addi	a3,a0,20
    9398:	4f01                	li	t5,0
    939a:	1efd                	addi	t4,t4,-1
    939c:	4218                	lw	a4,0(a2)
    939e:	00082f83          	lw	t6,0(a6)
    93a2:	0691                	addi	a3,a3,4
    93a4:	01d775b3          	and	a1,a4,t4
    93a8:	01dff7b3          	and	a5,t6,t4
    93ac:	95fa                	add	a1,a1,t5
    93ae:	8d9d                	sub	a1,a1,a5
    93b0:	010fdf93          	srli	t6,t6,0x10
    93b4:	01075793          	srli	a5,a4,0x10
    93b8:	41f787b3          	sub	a5,a5,t6
    93bc:	4105d713          	srai	a4,a1,0x10
    93c0:	97ba                	add	a5,a5,a4
    93c2:	4107df13          	srai	t5,a5,0x10
    93c6:	01d5f5b3          	and	a1,a1,t4
    93ca:	07c2                	slli	a5,a5,0x10
    93cc:	8fcd                	or	a5,a5,a1
    93ce:	0811                	addi	a6,a6,4
    93d0:	fef6ae23          	sw	a5,-4(a3)
    93d4:	0611                	addi	a2,a2,4
    93d6:	fd1863e3          	bltu	a6,a7,939c <__mdiff+0x78>
    93da:	65c1                	lui	a1,0x10
    93dc:	15fd                	addi	a1,a1,-1
    93de:	01c66863          	bltu	a2,t3,93ee <__mdiff+0xca>
    93e2:	16f1                	addi	a3,a3,-4
    93e4:	429c                	lw	a5,0(a3)
    93e6:	c795                	beqz	a5,9412 <__mdiff+0xee>
    93e8:	00652823          	sw	t1,16(a0)
    93ec:	b795                	j	9350 <__mdiff+0x2c>
    93ee:	421c                	lw	a5,0(a2)
    93f0:	0691                	addi	a3,a3,4
    93f2:	0611                	addi	a2,a2,4
    93f4:	00b7f733          	and	a4,a5,a1
    93f8:	977a                	add	a4,a4,t5
    93fa:	41075813          	srai	a6,a4,0x10
    93fe:	83c1                	srli	a5,a5,0x10
    9400:	97c2                	add	a5,a5,a6
    9402:	4107df13          	srai	t5,a5,0x10
    9406:	8f6d                	and	a4,a4,a1
    9408:	07c2                	slli	a5,a5,0x10
    940a:	8fd9                	or	a5,a5,a4
    940c:	fef6ae23          	sw	a5,-4(a3)
    9410:	b7f9                	j	93de <__mdiff+0xba>
    9412:	137d                	addi	t1,t1,-1
    9414:	b7f9                	j	93e2 <__mdiff+0xbe>

00009416 <__d2b>:
__d2b():
    9416:	7179                	addi	sp,sp,-48
    9418:	d422                	sw	s0,40(sp)
    941a:	842e                	mv	s0,a1
    941c:	4585                	li	a1,1
    941e:	d226                	sw	s1,36(sp)
    9420:	d04a                	sw	s2,32(sp)
    9422:	84b2                	mv	s1,a2
    9424:	ce4e                	sw	s3,28(sp)
    9426:	cc52                	sw	s4,24(sp)
    9428:	893a                	mv	s2,a4
    942a:	d606                	sw	ra,44(sp)
    942c:	8a36                	mv	s4,a3
    942e:	9c5ff0ef          	jal	ra,8df2 <_Balloc>
    9432:	00100737          	lui	a4,0x100
    9436:	fff70793          	addi	a5,a4,-1 # fffff <_data_lma+0xf591b>
    943a:	8fe5                	and	a5,a5,s1
    943c:	80d1                	srli	s1,s1,0x14
    943e:	7ff4f493          	andi	s1,s1,2047
    9442:	89aa                	mv	s3,a0
    9444:	e0b5                	bnez	s1,94a8 <__d2b+0x92>
    9446:	c63e                	sw	a5,12(sp)
    9448:	c42d                	beqz	s0,94b2 <__d2b+0x9c>
    944a:	0028                	addi	a0,sp,8
    944c:	c422                	sw	s0,8(sp)
    944e:	b4fff0ef          	jal	ra,8f9c <__lo0bits>
    9452:	46a2                	lw	a3,8(sp)
    9454:	cd21                	beqz	a0,94ac <__d2b+0x96>
    9456:	4732                	lw	a4,12(sp)
    9458:	02000793          	li	a5,32
    945c:	8f89                	sub	a5,a5,a0
    945e:	00f717b3          	sll	a5,a4,a5
    9462:	8fd5                	or	a5,a5,a3
    9464:	00a75733          	srl	a4,a4,a0
    9468:	00f9aa23          	sw	a5,20(s3)
    946c:	c63a                	sw	a4,12(sp)
    946e:	4432                	lw	s0,12(sp)
    9470:	0089ac23          	sw	s0,24(s3)
    9474:	00803433          	snez	s0,s0
    9478:	0405                	addi	s0,s0,1
    947a:	0089a823          	sw	s0,16(s3)
    947e:	c4b9                	beqz	s1,94cc <__d2b+0xb6>
    9480:	bcd48493          	addi	s1,s1,-1075
    9484:	94aa                	add	s1,s1,a0
    9486:	03500793          	li	a5,53
    948a:	009a2023          	sw	s1,0(s4)
    948e:	40a78533          	sub	a0,a5,a0
    9492:	00a92023          	sw	a0,0(s2)
    9496:	50b2                	lw	ra,44(sp)
    9498:	5422                	lw	s0,40(sp)
    949a:	854e                	mv	a0,s3
    949c:	5492                	lw	s1,36(sp)
    949e:	5902                	lw	s2,32(sp)
    94a0:	49f2                	lw	s3,28(sp)
    94a2:	4a62                	lw	s4,24(sp)
    94a4:	6145                	addi	sp,sp,48
    94a6:	8082                	ret
    94a8:	8fd9                	or	a5,a5,a4
    94aa:	bf71                	j	9446 <__d2b+0x30>
    94ac:	00d9aa23          	sw	a3,20(s3)
    94b0:	bf7d                	j	946e <__d2b+0x58>
    94b2:	0068                	addi	a0,sp,12
    94b4:	ae9ff0ef          	jal	ra,8f9c <__lo0bits>
    94b8:	47b2                	lw	a5,12(sp)
    94ba:	02050513          	addi	a0,a0,32
    94be:	4405                	li	s0,1
    94c0:	00f9aa23          	sw	a5,20(s3)
    94c4:	4785                	li	a5,1
    94c6:	00f9a823          	sw	a5,16(s3)
    94ca:	bf55                	j	947e <__d2b+0x68>
    94cc:	00241793          	slli	a5,s0,0x2
    94d0:	bce50513          	addi	a0,a0,-1074
    94d4:	97ce                	add	a5,a5,s3
    94d6:	00aa2023          	sw	a0,0(s4)
    94da:	4b88                	lw	a0,16(a5)
    94dc:	0416                	slli	s0,s0,0x5
    94de:	a79ff0ef          	jal	ra,8f56 <__hi0bits>
    94e2:	8c09                	sub	s0,s0,a0
    94e4:	00892023          	sw	s0,0(s2)
    94e8:	b77d                	j	9496 <__d2b+0x80>

000094ea <_calloc_r>:
_calloc_r():
    94ea:	02c58633          	mul	a2,a1,a2
    94ee:	1101                	addi	sp,sp,-32
    94f0:	cc22                	sw	s0,24(sp)
    94f2:	ce06                	sw	ra,28(sp)
    94f4:	85b2                	mv	a1,a2
    94f6:	c632                	sw	a2,12(sp)
    94f8:	2875                	jal	95b4 <_malloc_r>
    94fa:	842a                	mv	s0,a0
    94fc:	c509                	beqz	a0,9506 <_calloc_r+0x1c>
    94fe:	4632                	lw	a2,12(sp)
    9500:	4581                	li	a1,0
    9502:	d13f60ef          	jal	ra,214 <memset>
    9506:	8522                	mv	a0,s0
    9508:	40f2                	lw	ra,28(sp)
    950a:	4462                	lw	s0,24(sp)
    950c:	6105                	addi	sp,sp,32
    950e:	8082                	ret

00009510 <_free_r>:
_free_r():
    9510:	c1cd                	beqz	a1,95b2 <_free_r+0xa2>
    9512:	ffc5a783          	lw	a5,-4(a1) # fffc <_data_lma+0x5918>
    9516:	1141                	addi	sp,sp,-16
    9518:	c422                	sw	s0,8(sp)
    951a:	c606                	sw	ra,12(sp)
    951c:	c226                	sw	s1,4(sp)
    951e:	ffc58413          	addi	s0,a1,-4
    9522:	0007d363          	bgez	a5,9528 <_free_r+0x18>
    9526:	943e                	add	s0,s0,a5
    9528:	84aa                	mv	s1,a0
    952a:	2d99                	jal	9b80 <__malloc_lock>
    952c:	87818793          	addi	a5,gp,-1928 # 20000298 <__malloc_free_list>
    9530:	439c                	lw	a5,0(a5)
    9532:	eb99                	bnez	a5,9548 <_free_r+0x38>
    9534:	00042223          	sw	zero,4(s0)
    9538:	8681ac23          	sw	s0,-1928(gp) # 20000298 <__malloc_free_list>
    953c:	4422                	lw	s0,8(sp)
    953e:	40b2                	lw	ra,12(sp)
    9540:	8526                	mv	a0,s1
    9542:	4492                	lw	s1,4(sp)
    9544:	0141                	addi	sp,sp,16
    9546:	ad35                	j	9b82 <__malloc_unlock>
    9548:	00f47e63          	bgeu	s0,a5,9564 <_free_r+0x54>
    954c:	4014                	lw	a3,0(s0)
    954e:	00d40733          	add	a4,s0,a3
    9552:	00e79663          	bne	a5,a4,955e <_free_r+0x4e>
    9556:	4398                	lw	a4,0(a5)
    9558:	43dc                	lw	a5,4(a5)
    955a:	9736                	add	a4,a4,a3
    955c:	c018                	sw	a4,0(s0)
    955e:	c05c                	sw	a5,4(s0)
    9560:	bfe1                	j	9538 <_free_r+0x28>
    9562:	87ba                	mv	a5,a4
    9564:	43d8                	lw	a4,4(a5)
    9566:	c319                	beqz	a4,956c <_free_r+0x5c>
    9568:	fee47de3          	bgeu	s0,a4,9562 <_free_r+0x52>
    956c:	4394                	lw	a3,0(a5)
    956e:	00d78633          	add	a2,a5,a3
    9572:	00861f63          	bne	a2,s0,9590 <_free_r+0x80>
    9576:	4010                	lw	a2,0(s0)
    9578:	96b2                	add	a3,a3,a2
    957a:	c394                	sw	a3,0(a5)
    957c:	00d78633          	add	a2,a5,a3
    9580:	fac71ee3          	bne	a4,a2,953c <_free_r+0x2c>
    9584:	4310                	lw	a2,0(a4)
    9586:	4358                	lw	a4,4(a4)
    9588:	96b2                	add	a3,a3,a2
    958a:	c394                	sw	a3,0(a5)
    958c:	c3d8                	sw	a4,4(a5)
    958e:	b77d                	j	953c <_free_r+0x2c>
    9590:	00c47563          	bgeu	s0,a2,959a <_free_r+0x8a>
    9594:	47b1                	li	a5,12
    9596:	c09c                	sw	a5,0(s1)
    9598:	b755                	j	953c <_free_r+0x2c>
    959a:	4010                	lw	a2,0(s0)
    959c:	00c406b3          	add	a3,s0,a2
    95a0:	00d71663          	bne	a4,a3,95ac <_free_r+0x9c>
    95a4:	4314                	lw	a3,0(a4)
    95a6:	4358                	lw	a4,4(a4)
    95a8:	96b2                	add	a3,a3,a2
    95aa:	c014                	sw	a3,0(s0)
    95ac:	c058                	sw	a4,4(s0)
    95ae:	c3c0                	sw	s0,4(a5)
    95b0:	b771                	j	953c <_free_r+0x2c>
    95b2:	8082                	ret

000095b4 <_malloc_r>:
_malloc_r():
    95b4:	1101                	addi	sp,sp,-32
    95b6:	ca26                	sw	s1,20(sp)
    95b8:	00358493          	addi	s1,a1,3
    95bc:	98f1                	andi	s1,s1,-4
    95be:	ce06                	sw	ra,28(sp)
    95c0:	cc22                	sw	s0,24(sp)
    95c2:	c84a                	sw	s2,16(sp)
    95c4:	c64e                	sw	s3,12(sp)
    95c6:	04a1                	addi	s1,s1,8
    95c8:	47b1                	li	a5,12
    95ca:	04f4f163          	bgeu	s1,a5,960c <_malloc_r+0x58>
    95ce:	44b1                	li	s1,12
    95d0:	04b4e063          	bltu	s1,a1,9610 <_malloc_r+0x5c>
    95d4:	892a                	mv	s2,a0
    95d6:	236d                	jal	9b80 <__malloc_lock>
    95d8:	87818793          	addi	a5,gp,-1928 # 20000298 <__malloc_free_list>
    95dc:	4398                	lw	a4,0(a5)
    95de:	843a                	mv	s0,a4
    95e0:	e031                	bnez	s0,9624 <_malloc_r+0x70>
    95e2:	87c18793          	addi	a5,gp,-1924 # 2000029c <__malloc_sbrk_start>
    95e6:	439c                	lw	a5,0(a5)
    95e8:	e791                	bnez	a5,95f4 <_malloc_r+0x40>
    95ea:	4581                	li	a1,0
    95ec:	854a                	mv	a0,s2
    95ee:	264d                	jal	9990 <_sbrk_r>
    95f0:	86a1ae23          	sw	a0,-1924(gp) # 2000029c <__malloc_sbrk_start>
    95f4:	85a6                	mv	a1,s1
    95f6:	854a                	mv	a0,s2
    95f8:	2e61                	jal	9990 <_sbrk_r>
    95fa:	59fd                	li	s3,-1
    95fc:	07351763          	bne	a0,s3,966a <_malloc_r+0xb6>
    9600:	47b1                	li	a5,12
    9602:	00f92023          	sw	a5,0(s2)
    9606:	854a                	mv	a0,s2
    9608:	2bad                	jal	9b82 <__malloc_unlock>
    960a:	a029                	j	9614 <_malloc_r+0x60>
    960c:	fc04d2e3          	bgez	s1,95d0 <_malloc_r+0x1c>
    9610:	47b1                	li	a5,12
    9612:	c11c                	sw	a5,0(a0)
    9614:	4501                	li	a0,0
    9616:	40f2                	lw	ra,28(sp)
    9618:	4462                	lw	s0,24(sp)
    961a:	44d2                	lw	s1,20(sp)
    961c:	4942                	lw	s2,16(sp)
    961e:	49b2                	lw	s3,12(sp)
    9620:	6105                	addi	sp,sp,32
    9622:	8082                	ret
    9624:	401c                	lw	a5,0(s0)
    9626:	8f85                	sub	a5,a5,s1
    9628:	0207ce63          	bltz	a5,9664 <_malloc_r+0xb0>
    962c:	46ad                	li	a3,11
    962e:	00f6f663          	bgeu	a3,a5,963a <_malloc_r+0x86>
    9632:	c01c                	sw	a5,0(s0)
    9634:	943e                	add	s0,s0,a5
    9636:	c004                	sw	s1,0(s0)
    9638:	a031                	j	9644 <_malloc_r+0x90>
    963a:	405c                	lw	a5,4(s0)
    963c:	02871263          	bne	a4,s0,9660 <_malloc_r+0xac>
    9640:	86f1ac23          	sw	a5,-1928(gp) # 20000298 <__malloc_free_list>
    9644:	854a                	mv	a0,s2
    9646:	2b35                	jal	9b82 <__malloc_unlock>
    9648:	00b40513          	addi	a0,s0,11
    964c:	00440793          	addi	a5,s0,4
    9650:	9961                	andi	a0,a0,-8
    9652:	40f50733          	sub	a4,a0,a5
    9656:	d361                	beqz	a4,9616 <_malloc_r+0x62>
    9658:	943a                	add	s0,s0,a4
    965a:	8f89                	sub	a5,a5,a0
    965c:	c01c                	sw	a5,0(s0)
    965e:	bf65                	j	9616 <_malloc_r+0x62>
    9660:	c35c                	sw	a5,4(a4)
    9662:	b7cd                	j	9644 <_malloc_r+0x90>
    9664:	8722                	mv	a4,s0
    9666:	4040                	lw	s0,4(s0)
    9668:	bfa5                	j	95e0 <_malloc_r+0x2c>
    966a:	00350413          	addi	s0,a0,3
    966e:	9871                	andi	s0,s0,-4
    9670:	fc8503e3          	beq	a0,s0,9636 <_malloc_r+0x82>
    9674:	40a405b3          	sub	a1,s0,a0
    9678:	854a                	mv	a0,s2
    967a:	2e19                	jal	9990 <_sbrk_r>
    967c:	fb351de3          	bne	a0,s3,9636 <_malloc_r+0x82>
    9680:	b741                	j	9600 <_malloc_r+0x4c>

00009682 <__sfputc_r>:
__sfputc_r():
    9682:	461c                	lw	a5,8(a2)
    9684:	17fd                	addi	a5,a5,-1
    9686:	c61c                	sw	a5,8(a2)
    9688:	0007da63          	bgez	a5,969c <__sfputc_r+0x1a>
    968c:	4e18                	lw	a4,24(a2)
    968e:	00e7c563          	blt	a5,a4,9698 <__sfputc_r+0x16>
    9692:	47a9                	li	a5,10
    9694:	00f59463          	bne	a1,a5,969c <__sfputc_r+0x1a>
    9698:	b18fe06f          	j	79b0 <__swbuf_r>
    969c:	421c                	lw	a5,0(a2)
    969e:	852e                	mv	a0,a1
    96a0:	00178713          	addi	a4,a5,1
    96a4:	c218                	sw	a4,0(a2)
    96a6:	00b78023          	sb	a1,0(a5)
    96aa:	8082                	ret

000096ac <__sfputs_r>:
__sfputs_r():
    96ac:	1101                	addi	sp,sp,-32
    96ae:	cc22                	sw	s0,24(sp)
    96b0:	ca26                	sw	s1,20(sp)
    96b2:	c84a                	sw	s2,16(sp)
    96b4:	c64e                	sw	s3,12(sp)
    96b6:	c452                	sw	s4,8(sp)
    96b8:	ce06                	sw	ra,28(sp)
    96ba:	892a                	mv	s2,a0
    96bc:	89ae                	mv	s3,a1
    96be:	8432                	mv	s0,a2
    96c0:	00d604b3          	add	s1,a2,a3
    96c4:	5a7d                	li	s4,-1
    96c6:	00941463          	bne	s0,s1,96ce <__sfputs_r+0x22>
    96ca:	4501                	li	a0,0
    96cc:	a811                	j	96e0 <__sfputs_r+0x34>
    96ce:	00044583          	lbu	a1,0(s0)
    96d2:	864e                	mv	a2,s3
    96d4:	854a                	mv	a0,s2
    96d6:	fadff0ef          	jal	ra,9682 <__sfputc_r>
    96da:	0405                	addi	s0,s0,1
    96dc:	ff4515e3          	bne	a0,s4,96c6 <__sfputs_r+0x1a>
    96e0:	40f2                	lw	ra,28(sp)
    96e2:	4462                	lw	s0,24(sp)
    96e4:	44d2                	lw	s1,20(sp)
    96e6:	4942                	lw	s2,16(sp)
    96e8:	49b2                	lw	s3,12(sp)
    96ea:	4a22                	lw	s4,8(sp)
    96ec:	6105                	addi	sp,sp,32
    96ee:	8082                	ret

000096f0 <_vfiprintf_r>:
_vfiprintf_r():
    96f0:	7135                	addi	sp,sp,-160
    96f2:	cd22                	sw	s0,152(sp)
    96f4:	cb26                	sw	s1,148(sp)
    96f6:	c94a                	sw	s2,144(sp)
    96f8:	c74e                	sw	s3,140(sp)
    96fa:	cf06                	sw	ra,156(sp)
    96fc:	c552                	sw	s4,136(sp)
    96fe:	c356                	sw	s5,132(sp)
    9700:	c15a                	sw	s6,128(sp)
    9702:	dede                	sw	s7,124(sp)
    9704:	dce2                	sw	s8,120(sp)
    9706:	dae6                	sw	s9,116(sp)
    9708:	89aa                	mv	s3,a0
    970a:	84ae                	mv	s1,a1
    970c:	8932                	mv	s2,a2
    970e:	8436                	mv	s0,a3
    9710:	c509                	beqz	a0,971a <_vfiprintf_r+0x2a>
    9712:	4d1c                	lw	a5,24(a0)
    9714:	e399                	bnez	a5,971a <_vfiprintf_r+0x2a>
    9716:	c2aff0ef          	jal	ra,8b40 <__sinit>
    971a:	00001797          	auipc	a5,0x1
    971e:	d6678793          	addi	a5,a5,-666 # a480 <__sf_fake_stdin>
    9722:	0cf49d63          	bne	s1,a5,97fc <_vfiprintf_r+0x10c>
    9726:	0049a483          	lw	s1,4(s3)
    972a:	00c4d783          	lhu	a5,12(s1)
    972e:	8ba1                	andi	a5,a5,8
    9730:	cbe5                	beqz	a5,9820 <_vfiprintf_r+0x130>
    9732:	489c                	lw	a5,16(s1)
    9734:	c7f5                	beqz	a5,9820 <_vfiprintf_r+0x130>
    9736:	02000793          	li	a5,32
    973a:	02f104a3          	sb	a5,41(sp)
    973e:	03000793          	li	a5,48
    9742:	d202                	sw	zero,36(sp)
    9744:	02f10523          	sb	a5,42(sp)
    9748:	c622                	sw	s0,12(sp)
    974a:	02500b93          	li	s7,37
    974e:	00001a97          	auipc	s5,0x1
    9752:	e6ea8a93          	addi	s5,s5,-402 # a5bc <p05.3319+0xc>
    9756:	4c05                	li	s8,1
    9758:	4b29                	li	s6,10
    975a:	844a                	mv	s0,s2
    975c:	00044783          	lbu	a5,0(s0)
    9760:	c399                	beqz	a5,9766 <_vfiprintf_r+0x76>
    9762:	0f779263          	bne	a5,s7,9846 <_vfiprintf_r+0x156>
    9766:	41240cb3          	sub	s9,s0,s2
    976a:	000c8e63          	beqz	s9,9786 <_vfiprintf_r+0x96>
    976e:	86e6                	mv	a3,s9
    9770:	864a                	mv	a2,s2
    9772:	85a6                	mv	a1,s1
    9774:	854e                	mv	a0,s3
    9776:	f37ff0ef          	jal	ra,96ac <__sfputs_r>
    977a:	57fd                	li	a5,-1
    977c:	1ef50763          	beq	a0,a5,996a <_vfiprintf_r+0x27a>
    9780:	5692                	lw	a3,36(sp)
    9782:	96e6                	add	a3,a3,s9
    9784:	d236                	sw	a3,36(sp)
    9786:	00044783          	lbu	a5,0(s0)
    978a:	1e078063          	beqz	a5,996a <_vfiprintf_r+0x27a>
    978e:	57fd                	li	a5,-1
    9790:	00140913          	addi	s2,s0,1
    9794:	c802                	sw	zero,16(sp)
    9796:	ce02                	sw	zero,28(sp)
    9798:	ca3e                	sw	a5,20(sp)
    979a:	cc02                	sw	zero,24(sp)
    979c:	040109a3          	sb	zero,83(sp)
    97a0:	d482                	sw	zero,104(sp)
    97a2:	00094583          	lbu	a1,0(s2)
    97a6:	4615                	li	a2,5
    97a8:	8556                	mv	a0,s5
    97aa:	e2eff0ef          	jal	ra,8dd8 <memchr>
    97ae:	00190413          	addi	s0,s2,1
    97b2:	47c2                	lw	a5,16(sp)
    97b4:	e959                	bnez	a0,984a <_vfiprintf_r+0x15a>
    97b6:	0107f713          	andi	a4,a5,16
    97ba:	c709                	beqz	a4,97c4 <_vfiprintf_r+0xd4>
    97bc:	02000713          	li	a4,32
    97c0:	04e109a3          	sb	a4,83(sp)
    97c4:	0087f713          	andi	a4,a5,8
    97c8:	c709                	beqz	a4,97d2 <_vfiprintf_r+0xe2>
    97ca:	02b00713          	li	a4,43
    97ce:	04e109a3          	sb	a4,83(sp)
    97d2:	00094683          	lbu	a3,0(s2)
    97d6:	02a00713          	li	a4,42
    97da:	08e68063          	beq	a3,a4,985a <_vfiprintf_r+0x16a>
    97de:	47f2                	lw	a5,28(sp)
    97e0:	844a                	mv	s0,s2
    97e2:	4681                	li	a3,0
    97e4:	4625                	li	a2,9
    97e6:	00044703          	lbu	a4,0(s0)
    97ea:	00140593          	addi	a1,s0,1
    97ee:	fd070713          	addi	a4,a4,-48
    97f2:	0ae67963          	bgeu	a2,a4,98a4 <_vfiprintf_r+0x1b4>
    97f6:	cab5                	beqz	a3,986a <_vfiprintf_r+0x17a>
    97f8:	ce3e                	sw	a5,28(sp)
    97fa:	a885                	j	986a <_vfiprintf_r+0x17a>
    97fc:	00001797          	auipc	a5,0x1
    9800:	ca478793          	addi	a5,a5,-860 # a4a0 <__sf_fake_stdout>
    9804:	00f49563          	bne	s1,a5,980e <_vfiprintf_r+0x11e>
    9808:	0089a483          	lw	s1,8(s3)
    980c:	bf39                	j	972a <_vfiprintf_r+0x3a>
    980e:	00001797          	auipc	a5,0x1
    9812:	c5278793          	addi	a5,a5,-942 # a460 <__sf_fake_stderr>
    9816:	f0f49ae3          	bne	s1,a5,972a <_vfiprintf_r+0x3a>
    981a:	00c9a483          	lw	s1,12(s3)
    981e:	b731                	j	972a <_vfiprintf_r+0x3a>
    9820:	85a6                	mv	a1,s1
    9822:	854e                	mv	a0,s3
    9824:	a52fe0ef          	jal	ra,7a76 <__swsetup_r>
    9828:	d519                	beqz	a0,9736 <_vfiprintf_r+0x46>
    982a:	557d                	li	a0,-1
    982c:	40fa                	lw	ra,156(sp)
    982e:	446a                	lw	s0,152(sp)
    9830:	44da                	lw	s1,148(sp)
    9832:	494a                	lw	s2,144(sp)
    9834:	49ba                	lw	s3,140(sp)
    9836:	4a2a                	lw	s4,136(sp)
    9838:	4a9a                	lw	s5,132(sp)
    983a:	4b0a                	lw	s6,128(sp)
    983c:	5bf6                	lw	s7,124(sp)
    983e:	5c66                	lw	s8,120(sp)
    9840:	5cd6                	lw	s9,116(sp)
    9842:	610d                	addi	sp,sp,160
    9844:	8082                	ret
    9846:	0405                	addi	s0,s0,1
    9848:	bf11                	j	975c <_vfiprintf_r+0x6c>
    984a:	41550533          	sub	a0,a0,s5
    984e:	00ac1533          	sll	a0,s8,a0
    9852:	8fc9                	or	a5,a5,a0
    9854:	c83e                	sw	a5,16(sp)
    9856:	8922                	mv	s2,s0
    9858:	b7a9                	j	97a2 <_vfiprintf_r+0xb2>
    985a:	4732                	lw	a4,12(sp)
    985c:	00470693          	addi	a3,a4,4
    9860:	4318                	lw	a4,0(a4)
    9862:	c636                	sw	a3,12(sp)
    9864:	02074963          	bltz	a4,9896 <_vfiprintf_r+0x1a6>
    9868:	ce3a                	sw	a4,28(sp)
    986a:	00044703          	lbu	a4,0(s0)
    986e:	02e00793          	li	a5,46
    9872:	04f71f63          	bne	a4,a5,98d0 <_vfiprintf_r+0x1e0>
    9876:	00144703          	lbu	a4,1(s0)
    987a:	02a00793          	li	a5,42
    987e:	02f71b63          	bne	a4,a5,98b4 <_vfiprintf_r+0x1c4>
    9882:	47b2                	lw	a5,12(sp)
    9884:	0409                	addi	s0,s0,2
    9886:	00478713          	addi	a4,a5,4
    988a:	439c                	lw	a5,0(a5)
    988c:	c63a                	sw	a4,12(sp)
    988e:	0207c163          	bltz	a5,98b0 <_vfiprintf_r+0x1c0>
    9892:	ca3e                	sw	a5,20(sp)
    9894:	a835                	j	98d0 <_vfiprintf_r+0x1e0>
    9896:	40e00733          	neg	a4,a4
    989a:	0027e793          	ori	a5,a5,2
    989e:	ce3a                	sw	a4,28(sp)
    98a0:	c83e                	sw	a5,16(sp)
    98a2:	b7e1                	j	986a <_vfiprintf_r+0x17a>
    98a4:	036787b3          	mul	a5,a5,s6
    98a8:	4685                	li	a3,1
    98aa:	842e                	mv	s0,a1
    98ac:	97ba                	add	a5,a5,a4
    98ae:	bf25                	j	97e6 <_vfiprintf_r+0xf6>
    98b0:	57fd                	li	a5,-1
    98b2:	b7c5                	j	9892 <_vfiprintf_r+0x1a2>
    98b4:	0405                	addi	s0,s0,1
    98b6:	ca02                	sw	zero,20(sp)
    98b8:	4681                	li	a3,0
    98ba:	4781                	li	a5,0
    98bc:	4625                	li	a2,9
    98be:	00044703          	lbu	a4,0(s0)
    98c2:	00140593          	addi	a1,s0,1
    98c6:	fd070713          	addi	a4,a4,-48
    98ca:	06e67863          	bgeu	a2,a4,993a <_vfiprintf_r+0x24a>
    98ce:	f2f1                	bnez	a3,9892 <_vfiprintf_r+0x1a2>
    98d0:	00044583          	lbu	a1,0(s0)
    98d4:	460d                	li	a2,3
    98d6:	00001517          	auipc	a0,0x1
    98da:	cee50513          	addi	a0,a0,-786 # a5c4 <p05.3319+0x14>
    98de:	cfaff0ef          	jal	ra,8dd8 <memchr>
    98e2:	cd11                	beqz	a0,98fe <_vfiprintf_r+0x20e>
    98e4:	00001797          	auipc	a5,0x1
    98e8:	ce078793          	addi	a5,a5,-800 # a5c4 <p05.3319+0x14>
    98ec:	8d1d                	sub	a0,a0,a5
    98ee:	04000793          	li	a5,64
    98f2:	00a797b3          	sll	a5,a5,a0
    98f6:	4542                	lw	a0,16(sp)
    98f8:	0405                	addi	s0,s0,1
    98fa:	8d5d                	or	a0,a0,a5
    98fc:	c82a                	sw	a0,16(sp)
    98fe:	00044583          	lbu	a1,0(s0)
    9902:	4619                	li	a2,6
    9904:	00001517          	auipc	a0,0x1
    9908:	cc450513          	addi	a0,a0,-828 # a5c8 <p05.3319+0x18>
    990c:	00140913          	addi	s2,s0,1
    9910:	02b10423          	sb	a1,40(sp)
    9914:	cc4ff0ef          	jal	ra,8dd8 <memchr>
    9918:	c12d                	beqz	a0,997a <_vfiprintf_r+0x28a>
    991a:	ffffd797          	auipc	a5,0xffffd
    991e:	7c678793          	addi	a5,a5,1990 # 70e0 <_printf_float>
    9922:	e795                	bnez	a5,994e <_vfiprintf_r+0x25e>
    9924:	4742                	lw	a4,16(sp)
    9926:	47b2                	lw	a5,12(sp)
    9928:	10077713          	andi	a4,a4,256
    992c:	cf09                	beqz	a4,9946 <_vfiprintf_r+0x256>
    992e:	0791                	addi	a5,a5,4
    9930:	c63e                	sw	a5,12(sp)
    9932:	5792                	lw	a5,36(sp)
    9934:	97d2                	add	a5,a5,s4
    9936:	d23e                	sw	a5,36(sp)
    9938:	b50d                	j	975a <_vfiprintf_r+0x6a>
    993a:	036787b3          	mul	a5,a5,s6
    993e:	4685                	li	a3,1
    9940:	842e                	mv	s0,a1
    9942:	97ba                	add	a5,a5,a4
    9944:	bfad                	j	98be <_vfiprintf_r+0x1ce>
    9946:	079d                	addi	a5,a5,7
    9948:	9be1                	andi	a5,a5,-8
    994a:	07a1                	addi	a5,a5,8
    994c:	b7d5                	j	9930 <_vfiprintf_r+0x240>
    994e:	0078                	addi	a4,sp,12
    9950:	00000697          	auipc	a3,0x0
    9954:	d5c68693          	addi	a3,a3,-676 # 96ac <__sfputs_r>
    9958:	8626                	mv	a2,s1
    995a:	080c                	addi	a1,sp,16
    995c:	854e                	mv	a0,s3
    995e:	f82fd0ef          	jal	ra,70e0 <_printf_float>
    9962:	57fd                	li	a5,-1
    9964:	8a2a                	mv	s4,a0
    9966:	fcf516e3          	bne	a0,a5,9932 <_vfiprintf_r+0x242>
    996a:	00c4d783          	lhu	a5,12(s1)
    996e:	0407f793          	andi	a5,a5,64
    9972:	ea079ce3          	bnez	a5,982a <_vfiprintf_r+0x13a>
    9976:	5512                	lw	a0,36(sp)
    9978:	bd55                	j	982c <_vfiprintf_r+0x13c>
    997a:	0078                	addi	a4,sp,12
    997c:	00000697          	auipc	a3,0x0
    9980:	d3068693          	addi	a3,a3,-720 # 96ac <__sfputs_r>
    9984:	8626                	mv	a2,s1
    9986:	080c                	addi	a1,sp,16
    9988:	854e                	mv	a0,s3
    998a:	d27fd0ef          	jal	ra,76b0 <_printf_i>
    998e:	bfd1                	j	9962 <_vfiprintf_r+0x272>

00009990 <_sbrk_r>:
_sbrk_r():
    9990:	1141                	addi	sp,sp,-16
    9992:	c422                	sw	s0,8(sp)
    9994:	842a                	mv	s0,a0
    9996:	852e                	mv	a0,a1
    9998:	8e01ae23          	sw	zero,-1796(gp) # 2000031c <errno>
    999c:	c606                	sw	ra,12(sp)
    999e:	2bf9                	jal	9f7c <_sbrk>
    99a0:	57fd                	li	a5,-1
    99a2:	00f51763          	bne	a0,a5,99b0 <_sbrk_r+0x20>
    99a6:	8fc18793          	addi	a5,gp,-1796 # 2000031c <errno>
    99aa:	439c                	lw	a5,0(a5)
    99ac:	c391                	beqz	a5,99b0 <_sbrk_r+0x20>
    99ae:	c01c                	sw	a5,0(s0)
    99b0:	40b2                	lw	ra,12(sp)
    99b2:	4422                	lw	s0,8(sp)
    99b4:	0141                	addi	sp,sp,16
    99b6:	8082                	ret

000099b8 <__sread>:
__sread():
    99b8:	1141                	addi	sp,sp,-16
    99ba:	c422                	sw	s0,8(sp)
    99bc:	842e                	mv	s0,a1
    99be:	00e59583          	lh	a1,14(a1)
    99c2:	c606                	sw	ra,12(sp)
    99c4:	22c1                	jal	9b84 <_read_r>
    99c6:	00054963          	bltz	a0,99d8 <__sread+0x20>
    99ca:	487c                	lw	a5,84(s0)
    99cc:	97aa                	add	a5,a5,a0
    99ce:	c87c                	sw	a5,84(s0)
    99d0:	40b2                	lw	ra,12(sp)
    99d2:	4422                	lw	s0,8(sp)
    99d4:	0141                	addi	sp,sp,16
    99d6:	8082                	ret
    99d8:	00c45783          	lhu	a5,12(s0)
    99dc:	777d                	lui	a4,0xfffff
    99de:	177d                	addi	a4,a4,-1
    99e0:	8ff9                	and	a5,a5,a4
    99e2:	00f41623          	sh	a5,12(s0)
    99e6:	b7ed                	j	99d0 <__sread+0x18>

000099e8 <__swrite>:
__swrite():
    99e8:	00c5d783          	lhu	a5,12(a1)
    99ec:	1101                	addi	sp,sp,-32
    99ee:	cc22                	sw	s0,24(sp)
    99f0:	ca26                	sw	s1,20(sp)
    99f2:	c84a                	sw	s2,16(sp)
    99f4:	c64e                	sw	s3,12(sp)
    99f6:	ce06                	sw	ra,28(sp)
    99f8:	1007f793          	andi	a5,a5,256
    99fc:	84aa                	mv	s1,a0
    99fe:	842e                	mv	s0,a1
    9a00:	8932                	mv	s2,a2
    9a02:	89b6                	mv	s3,a3
    9a04:	c791                	beqz	a5,9a10 <__swrite+0x28>
    9a06:	00e59583          	lh	a1,14(a1)
    9a0a:	4689                	li	a3,2
    9a0c:	4601                	li	a2,0
    9a0e:	2231                	jal	9b1a <_lseek_r>
    9a10:	00c45783          	lhu	a5,12(s0)
    9a14:	777d                	lui	a4,0xfffff
    9a16:	177d                	addi	a4,a4,-1
    9a18:	8ff9                	and	a5,a5,a4
    9a1a:	00f41623          	sh	a5,12(s0)
    9a1e:	00e41583          	lh	a1,14(s0)
    9a22:	4462                	lw	s0,24(sp)
    9a24:	40f2                	lw	ra,28(sp)
    9a26:	86ce                	mv	a3,s3
    9a28:	864a                	mv	a2,s2
    9a2a:	49b2                	lw	s3,12(sp)
    9a2c:	4942                	lw	s2,16(sp)
    9a2e:	8526                	mv	a0,s1
    9a30:	44d2                	lw	s1,20(sp)
    9a32:	6105                	addi	sp,sp,32
    9a34:	a83d                	j	9a72 <_write_r>

00009a36 <__sseek>:
__sseek():
    9a36:	1141                	addi	sp,sp,-16
    9a38:	c422                	sw	s0,8(sp)
    9a3a:	842e                	mv	s0,a1
    9a3c:	00e59583          	lh	a1,14(a1)
    9a40:	c606                	sw	ra,12(sp)
    9a42:	28e1                	jal	9b1a <_lseek_r>
    9a44:	57fd                	li	a5,-1
    9a46:	00c45703          	lhu	a4,12(s0)
    9a4a:	00f51b63          	bne	a0,a5,9a60 <__sseek+0x2a>
    9a4e:	77fd                	lui	a5,0xfffff
    9a50:	17fd                	addi	a5,a5,-1
    9a52:	8ff9                	and	a5,a5,a4
    9a54:	00f41623          	sh	a5,12(s0)
    9a58:	40b2                	lw	ra,12(sp)
    9a5a:	4422                	lw	s0,8(sp)
    9a5c:	0141                	addi	sp,sp,16
    9a5e:	8082                	ret
    9a60:	6785                	lui	a5,0x1
    9a62:	8fd9                	or	a5,a5,a4
    9a64:	00f41623          	sh	a5,12(s0)
    9a68:	c868                	sw	a0,84(s0)
    9a6a:	b7fd                	j	9a58 <__sseek+0x22>

00009a6c <__sclose>:
__sclose():
    9a6c:	00e59583          	lh	a1,14(a1)
    9a70:	a805                	j	9aa0 <_close_r>

00009a72 <_write_r>:
_write_r():
    9a72:	1141                	addi	sp,sp,-16
    9a74:	c422                	sw	s0,8(sp)
    9a76:	842a                	mv	s0,a0
    9a78:	852e                	mv	a0,a1
    9a7a:	85b2                	mv	a1,a2
    9a7c:	8636                	mv	a2,a3
    9a7e:	8e01ae23          	sw	zero,-1796(gp) # 2000031c <errno>
    9a82:	c606                	sw	ra,12(sp)
    9a84:	cbef80ef          	jal	ra,1f42 <_write>
    9a88:	57fd                	li	a5,-1
    9a8a:	00f51763          	bne	a0,a5,9a98 <_write_r+0x26>
    9a8e:	8fc18793          	addi	a5,gp,-1796 # 2000031c <errno>
    9a92:	439c                	lw	a5,0(a5)
    9a94:	c391                	beqz	a5,9a98 <_write_r+0x26>
    9a96:	c01c                	sw	a5,0(s0)
    9a98:	40b2                	lw	ra,12(sp)
    9a9a:	4422                	lw	s0,8(sp)
    9a9c:	0141                	addi	sp,sp,16
    9a9e:	8082                	ret

00009aa0 <_close_r>:
_close_r():
    9aa0:	1141                	addi	sp,sp,-16
    9aa2:	c422                	sw	s0,8(sp)
    9aa4:	842a                	mv	s0,a0
    9aa6:	852e                	mv	a0,a1
    9aa8:	8e01ae23          	sw	zero,-1796(gp) # 2000031c <errno>
    9aac:	c606                	sw	ra,12(sp)
    9aae:	2949                	jal	9f40 <_close>
    9ab0:	57fd                	li	a5,-1
    9ab2:	00f51763          	bne	a0,a5,9ac0 <_close_r+0x20>
    9ab6:	8fc18793          	addi	a5,gp,-1796 # 2000031c <errno>
    9aba:	439c                	lw	a5,0(a5)
    9abc:	c391                	beqz	a5,9ac0 <_close_r+0x20>
    9abe:	c01c                	sw	a5,0(s0)
    9ac0:	40b2                	lw	ra,12(sp)
    9ac2:	4422                	lw	s0,8(sp)
    9ac4:	0141                	addi	sp,sp,16
    9ac6:	8082                	ret

00009ac8 <_fstat_r>:
_fstat_r():
    9ac8:	1141                	addi	sp,sp,-16
    9aca:	c422                	sw	s0,8(sp)
    9acc:	842a                	mv	s0,a0
    9ace:	852e                	mv	a0,a1
    9ad0:	85b2                	mv	a1,a2
    9ad2:	8e01ae23          	sw	zero,-1796(gp) # 2000031c <errno>
    9ad6:	c606                	sw	ra,12(sp)
    9ad8:	2995                	jal	9f4c <_fstat>
    9ada:	57fd                	li	a5,-1
    9adc:	00f51763          	bne	a0,a5,9aea <_fstat_r+0x22>
    9ae0:	8fc18793          	addi	a5,gp,-1796 # 2000031c <errno>
    9ae4:	439c                	lw	a5,0(a5)
    9ae6:	c391                	beqz	a5,9aea <_fstat_r+0x22>
    9ae8:	c01c                	sw	a5,0(s0)
    9aea:	40b2                	lw	ra,12(sp)
    9aec:	4422                	lw	s0,8(sp)
    9aee:	0141                	addi	sp,sp,16
    9af0:	8082                	ret

00009af2 <_isatty_r>:
_isatty_r():
    9af2:	1141                	addi	sp,sp,-16
    9af4:	c422                	sw	s0,8(sp)
    9af6:	842a                	mv	s0,a0
    9af8:	852e                	mv	a0,a1
    9afa:	8e01ae23          	sw	zero,-1796(gp) # 2000031c <errno>
    9afe:	c606                	sw	ra,12(sp)
    9b00:	29a1                	jal	9f58 <_isatty>
    9b02:	57fd                	li	a5,-1
    9b04:	00f51763          	bne	a0,a5,9b12 <_isatty_r+0x20>
    9b08:	8fc18793          	addi	a5,gp,-1796 # 2000031c <errno>
    9b0c:	439c                	lw	a5,0(a5)
    9b0e:	c391                	beqz	a5,9b12 <_isatty_r+0x20>
    9b10:	c01c                	sw	a5,0(s0)
    9b12:	40b2                	lw	ra,12(sp)
    9b14:	4422                	lw	s0,8(sp)
    9b16:	0141                	addi	sp,sp,16
    9b18:	8082                	ret

00009b1a <_lseek_r>:
_lseek_r():
    9b1a:	1141                	addi	sp,sp,-16
    9b1c:	c422                	sw	s0,8(sp)
    9b1e:	842a                	mv	s0,a0
    9b20:	852e                	mv	a0,a1
    9b22:	85b2                	mv	a1,a2
    9b24:	8636                	mv	a2,a3
    9b26:	8e01ae23          	sw	zero,-1796(gp) # 2000031c <errno>
    9b2a:	c606                	sw	ra,12(sp)
    9b2c:	2925                	jal	9f64 <_lseek>
    9b2e:	57fd                	li	a5,-1
    9b30:	00f51763          	bne	a0,a5,9b3e <_lseek_r+0x24>
    9b34:	8fc18793          	addi	a5,gp,-1796 # 2000031c <errno>
    9b38:	439c                	lw	a5,0(a5)
    9b3a:	c391                	beqz	a5,9b3e <_lseek_r+0x24>
    9b3c:	c01c                	sw	a5,0(s0)
    9b3e:	40b2                	lw	ra,12(sp)
    9b40:	4422                	lw	s0,8(sp)
    9b42:	0141                	addi	sp,sp,16
    9b44:	8082                	ret

00009b46 <__ascii_mbtowc>:
__ascii_mbtowc():
    9b46:	e185                	bnez	a1,9b66 <__ascii_mbtowc+0x20>
    9b48:	1141                	addi	sp,sp,-16
    9b4a:	006c                	addi	a1,sp,12
    9b4c:	4501                	li	a0,0
    9b4e:	ca11                	beqz	a2,9b62 <__ascii_mbtowc+0x1c>
    9b50:	5579                	li	a0,-2
    9b52:	ca81                	beqz	a3,9b62 <__ascii_mbtowc+0x1c>
    9b54:	00064783          	lbu	a5,0(a2)
    9b58:	c19c                	sw	a5,0(a1)
    9b5a:	00064503          	lbu	a0,0(a2)
    9b5e:	00a03533          	snez	a0,a0
    9b62:	0141                	addi	sp,sp,16
    9b64:	8082                	ret
    9b66:	4501                	li	a0,0
    9b68:	ca19                	beqz	a2,9b7e <__ascii_mbtowc+0x38>
    9b6a:	5579                	li	a0,-2
    9b6c:	ca89                	beqz	a3,9b7e <__ascii_mbtowc+0x38>
    9b6e:	00064783          	lbu	a5,0(a2)
    9b72:	c19c                	sw	a5,0(a1)
    9b74:	00064503          	lbu	a0,0(a2)
    9b78:	00a03533          	snez	a0,a0
    9b7c:	8082                	ret
    9b7e:	8082                	ret

00009b80 <__malloc_lock>:
__malloc_lock():
    9b80:	8082                	ret

00009b82 <__malloc_unlock>:
__malloc_unlock():
    9b82:	8082                	ret

00009b84 <_read_r>:
_read_r():
    9b84:	1141                	addi	sp,sp,-16
    9b86:	c422                	sw	s0,8(sp)
    9b88:	842a                	mv	s0,a0
    9b8a:	852e                	mv	a0,a1
    9b8c:	85b2                	mv	a1,a2
    9b8e:	8636                	mv	a2,a3
    9b90:	8e01ae23          	sw	zero,-1796(gp) # 2000031c <errno>
    9b94:	c606                	sw	ra,12(sp)
    9b96:	2ee9                	jal	9f70 <_read>
    9b98:	57fd                	li	a5,-1
    9b9a:	00f51763          	bne	a0,a5,9ba8 <_read_r+0x24>
    9b9e:	8fc18793          	addi	a5,gp,-1796 # 2000031c <errno>
    9ba2:	439c                	lw	a5,0(a5)
    9ba4:	c391                	beqz	a5,9ba8 <_read_r+0x24>
    9ba6:	c01c                	sw	a5,0(s0)
    9ba8:	40b2                	lw	ra,12(sp)
    9baa:	4422                	lw	s0,8(sp)
    9bac:	0141                	addi	sp,sp,16
    9bae:	8082                	ret

00009bb0 <__ascii_wctomb>:
__ascii_wctomb():
    9bb0:	cd91                	beqz	a1,9bcc <__ascii_wctomb+0x1c>
    9bb2:	0ff00793          	li	a5,255
    9bb6:	00c7f763          	bgeu	a5,a2,9bc4 <__ascii_wctomb+0x14>
    9bba:	08a00793          	li	a5,138
    9bbe:	c11c                	sw	a5,0(a0)
    9bc0:	557d                	li	a0,-1
    9bc2:	8082                	ret
    9bc4:	00c58023          	sb	a2,0(a1)
    9bc8:	4505                	li	a0,1
    9bca:	8082                	ret
    9bcc:	4501                	li	a0,0
    9bce:	8082                	ret

00009bd0 <__gedf2>:
__gtdf2():
    9bd0:	0145d713          	srli	a4,a1,0x14
    9bd4:	001007b7          	lui	a5,0x100
    9bd8:	17fd                	addi	a5,a5,-1
    9bda:	0146d813          	srli	a6,a3,0x14
    9bde:	7ff77713          	andi	a4,a4,2047
    9be2:	7ff00893          	li	a7,2047
    9be6:	00b7f333          	and	t1,a5,a1
    9bea:	8e2a                	mv	t3,a0
    9bec:	8ff5                	and	a5,a5,a3
    9bee:	81fd                	srli	a1,a1,0x1f
    9bf0:	8eb2                	mv	t4,a2
    9bf2:	7ff87813          	andi	a6,a6,2047
    9bf6:	82fd                	srli	a3,a3,0x1f
    9bf8:	03170863          	beq	a4,a7,9c28 <__gedf2+0x58>
    9bfc:	03180063          	beq	a6,a7,9c1c <__gedf2+0x4c>
    9c00:	eb0d                	bnez	a4,9c32 <__gedf2+0x62>
    9c02:	00a368b3          	or	a7,t1,a0
    9c06:	00081463          	bnez	a6,9c0e <__gedf2+0x3e>
    9c0a:	8e5d                	or	a2,a2,a5
    9c0c:	ca29                	beqz	a2,9c5e <__gedf2+0x8e>
    9c0e:	04088563          	beqz	a7,9c58 <__gedf2+0x88>
    9c12:	02d58863          	beq	a1,a3,9c42 <__gedf2+0x72>
    9c16:	4505                	li	a0,1
    9c18:	ed95                	bnez	a1,9c54 <__gedf2+0x84>
    9c1a:	8082                	ret
    9c1c:	00c7e8b3          	or	a7,a5,a2
    9c20:	fe0880e3          	beqz	a7,9c00 <__gedf2+0x30>
    9c24:	5579                	li	a0,-2
    9c26:	8082                	ret
    9c28:	00a36533          	or	a0,t1,a0
    9c2c:	fd65                	bnez	a0,9c24 <__gedf2+0x54>
    9c2e:	02e80c63          	beq	a6,a4,9c66 <__gedf2+0x96>
    9c32:	00081463          	bnez	a6,9c3a <__gedf2+0x6a>
    9c36:	8e5d                	or	a2,a2,a5
    9c38:	de79                	beqz	a2,9c16 <__gedf2+0x46>
    9c3a:	fcd59ee3          	bne	a1,a3,9c16 <__gedf2+0x46>
    9c3e:	fce84ce3          	blt	a6,a4,9c16 <__gedf2+0x46>
    9c42:	01074863          	blt	a4,a6,9c52 <__gedf2+0x82>
    9c46:	fc67e8e3          	bltu	a5,t1,9c16 <__gedf2+0x46>
    9c4a:	02f30363          	beq	t1,a5,9c70 <__gedf2+0xa0>
    9c4e:	00f37f63          	bgeu	t1,a5,9c6c <__gedf2+0x9c>
    9c52:	e581                	bnez	a1,9c5a <__gedf2+0x8a>
    9c54:	557d                	li	a0,-1
    9c56:	8082                	ret
    9c58:	def5                	beqz	a3,9c54 <__gedf2+0x84>
    9c5a:	4505                	li	a0,1
    9c5c:	8082                	ret
    9c5e:	4501                	li	a0,0
    9c60:	fa089be3          	bnez	a7,9c16 <__gedf2+0x46>
    9c64:	8082                	ret
    9c66:	8e5d                	or	a2,a2,a5
    9c68:	da69                	beqz	a2,9c3a <__gedf2+0x6a>
    9c6a:	bf6d                	j	9c24 <__gedf2+0x54>
    9c6c:	4501                	li	a0,0
    9c6e:	8082                	ret
    9c70:	fbcee3e3          	bltu	t4,t3,9c16 <__gedf2+0x46>
    9c74:	4501                	li	a0,0
    9c76:	fbde72e3          	bgeu	t3,t4,9c1a <__gedf2+0x4a>
    9c7a:	f1e5                	bnez	a1,9c5a <__gedf2+0x8a>
    9c7c:	bfe1                	j	9c54 <__gedf2+0x84>

00009c7e <__unorddf2>:
__unorddf2():
    9c7e:	0145d713          	srli	a4,a1,0x14
    9c82:	001007b7          	lui	a5,0x100
    9c86:	17fd                	addi	a5,a5,-1
    9c88:	fff74713          	not	a4,a4
    9c8c:	0146d813          	srli	a6,a3,0x14
    9c90:	8dfd                	and	a1,a1,a5
    9c92:	8ff5                	and	a5,a5,a3
    9c94:	01571693          	slli	a3,a4,0x15
    9c98:	7ff87813          	andi	a6,a6,2047
    9c9c:	ca99                	beqz	a3,9cb2 <__unorddf2+0x34>
    9c9e:	7ff00713          	li	a4,2047
    9ca2:	4501                	li	a0,0
    9ca4:	00e80363          	beq	a6,a4,9caa <__unorddf2+0x2c>
    9ca8:	8082                	ret
    9caa:	8fd1                	or	a5,a5,a2
    9cac:	00f03533          	snez	a0,a5
    9cb0:	8082                	ret
    9cb2:	8dc9                	or	a1,a1,a0
    9cb4:	4505                	li	a0,1
    9cb6:	d5e5                	beqz	a1,9c9e <__unorddf2+0x20>
    9cb8:	8082                	ret

00009cba <__floatunsidf>:
__floatunsidf():
    9cba:	cd1d                	beqz	a0,9cf8 <__floatunsidf+0x3e>
    9cbc:	1141                	addi	sp,sp,-16
    9cbe:	c422                	sw	s0,8(sp)
    9cc0:	c606                	sw	ra,12(sp)
    9cc2:	842a                	mv	s0,a0
    9cc4:	976fd0ef          	jal	ra,6e3a <__clzsi2>
    9cc8:	41e00693          	li	a3,1054
    9ccc:	8e89                	sub	a3,a3,a0
    9cce:	47a9                	li	a5,10
    9cd0:	7ff6f693          	andi	a3,a3,2047
    9cd4:	02a7dc63          	bge	a5,a0,9d0c <__floatunsidf+0x52>
    9cd8:	1555                	addi	a0,a0,-11
    9cda:	00a417b3          	sll	a5,s0,a0
    9cde:	07b2                	slli	a5,a5,0xc
    9ce0:	83b1                	srli	a5,a5,0xc
    9ce2:	4701                	li	a4,0
    9ce4:	40b2                	lw	ra,12(sp)
    9ce6:	4422                	lw	s0,8(sp)
    9ce8:	07b2                	slli	a5,a5,0xc
    9cea:	06d2                	slli	a3,a3,0x14
    9cec:	83b1                	srli	a5,a5,0xc
    9cee:	8fd5                	or	a5,a5,a3
    9cf0:	853a                	mv	a0,a4
    9cf2:	85be                	mv	a1,a5
    9cf4:	0141                	addi	sp,sp,16
    9cf6:	8082                	ret
    9cf8:	4781                	li	a5,0
    9cfa:	4681                	li	a3,0
    9cfc:	07b2                	slli	a5,a5,0xc
    9cfe:	06d2                	slli	a3,a3,0x14
    9d00:	83b1                	srli	a5,a5,0xc
    9d02:	4701                	li	a4,0
    9d04:	8fd5                	or	a5,a5,a3
    9d06:	853a                	mv	a0,a4
    9d08:	85be                	mv	a1,a5
    9d0a:	8082                	ret
    9d0c:	472d                	li	a4,11
    9d0e:	8f09                	sub	a4,a4,a0
    9d10:	00e457b3          	srl	a5,s0,a4
    9d14:	07b2                	slli	a5,a5,0xc
    9d16:	01550713          	addi	a4,a0,21
    9d1a:	00e41733          	sll	a4,s0,a4
    9d1e:	83b1                	srli	a5,a5,0xc
    9d20:	b7d1                	j	9ce4 <__floatunsidf+0x2a>

00009d22 <__trunctfdf2>:
__trunctfdf2():
    9d22:	00c52803          	lw	a6,12(a0)
    9d26:	4118                	lw	a4,0(a0)
    9d28:	4154                	lw	a3,4(a0)
    9d2a:	450c                	lw	a1,8(a0)
    9d2c:	6521                	lui	a0,0x8
    9d2e:	fff50793          	addi	a5,a0,-1 # 7fff <_dtoa_r+0x33d>
    9d32:	01085613          	srli	a2,a6,0x10
    9d36:	00359e13          	slli	t3,a1,0x3
    9d3a:	8e7d                	and	a2,a2,a5
    9d3c:	01d75893          	srli	a7,a4,0x1d
    9d40:	01d6d793          	srli	a5,a3,0x1d
    9d44:	01081313          	slli	t1,a6,0x10
    9d48:	068e                	slli	a3,a3,0x3
    9d4a:	1141                	addi	sp,sp,-16
    9d4c:	01c7e7b3          	or	a5,a5,t3
    9d50:	0116e6b3          	or	a3,a3,a7
    9d54:	01035313          	srli	t1,t1,0x10
    9d58:	00371e13          	slli	t3,a4,0x3
    9d5c:	00160893          	addi	a7,a2,1
    9d60:	1579                	addi	a0,a0,-2
    9d62:	81f5                	srli	a1,a1,0x1d
    9d64:	030e                	slli	t1,t1,0x3
    9d66:	c43e                	sw	a5,8(sp)
    9d68:	c236                	sw	a3,4(sp)
    9d6a:	c072                	sw	t3,0(sp)
    9d6c:	00a8f533          	and	a0,a7,a0
    9d70:	01f85813          	srli	a6,a6,0x1f
    9d74:	0065e5b3          	or	a1,a1,t1
    9d78:	c905                	beqz	a0,9da8 <__trunctfdf2+0x86>
    9d7a:	7771                	lui	a4,0xffffc
    9d7c:	40070713          	addi	a4,a4,1024 # ffffc400 <_eusrstack+0xdffec400>
    9d80:	963a                	add	a2,a2,a4
    9d82:	7fe00713          	li	a4,2046
    9d86:	04c75d63          	bge	a4,a2,9de0 <__trunctfdf2+0xbe>
    9d8a:	7ff00613          	li	a2,2047
    9d8e:	4701                	li	a4,0
    9d90:	4781                	li	a5,0
    9d92:	0732                	slli	a4,a4,0xc
    9d94:	0652                	slli	a2,a2,0x14
    9d96:	8331                	srli	a4,a4,0xc
    9d98:	087e                	slli	a6,a6,0x1f
    9d9a:	8f51                	or	a4,a4,a2
    9d9c:	01076733          	or	a4,a4,a6
    9da0:	853e                	mv	a0,a5
    9da2:	85ba                	mv	a1,a4
    9da4:	0141                	addi	sp,sp,16
    9da6:	8082                	ret
    9da8:	8fd5                	or	a5,a5,a3
    9daa:	8fcd                	or	a5,a5,a1
    9dac:	01c7e7b3          	or	a5,a5,t3
    9db0:	e205                	bnez	a2,9dd0 <__trunctfdf2+0xae>
    9db2:	cbf1                	beqz	a5,9e86 <__trunctfdf2+0x164>
    9db4:	4781                	li	a5,0
    9db6:	4695                	li	a3,5
    9db8:	0036d593          	srli	a1,a3,0x3
    9dbc:	00979713          	slli	a4,a5,0x9
    9dc0:	01d79693          	slli	a3,a5,0x1d
    9dc4:	00b6e7b3          	or	a5,a3,a1
    9dc8:	8331                	srli	a4,a4,0xc
    9dca:	7ff67613          	andi	a2,a2,2047
    9dce:	b7d1                	j	9d92 <__trunctfdf2+0x70>
    9dd0:	dfcd                	beqz	a5,9d8a <__trunctfdf2+0x68>
    9dd2:	4801                	li	a6,0
    9dd4:	7ff00613          	li	a2,2047
    9dd8:	00080737          	lui	a4,0x80
    9ddc:	4781                	li	a5,0
    9dde:	bf55                	j	9d92 <__trunctfdf2+0x70>
    9de0:	0ac04663          	bgtz	a2,9e8c <__trunctfdf2+0x16a>
    9de4:	fcc00793          	li	a5,-52
    9de8:	0ef64f63          	blt	a2,a5,9ee6 <__trunctfdf2+0x1c4>
    9dec:	03d00793          	li	a5,61
    9df0:	40c78633          	sub	a2,a5,a2
    9df4:	40565793          	srai	a5,a2,0x5
    9df8:	00080737          	lui	a4,0x80
    9dfc:	8dd9                	or	a1,a1,a4
    9dfe:	00279513          	slli	a0,a5,0x2
    9e02:	870a                	mv	a4,sp
    9e04:	4681                	li	a3,0
    9e06:	c62e                	sw	a1,12(sp)
    9e08:	00a108b3          	add	a7,sp,a0
    9e0c:	0711                	addi	a4,a4,4
    9e0e:	8a7d                	andi	a2,a2,31
    9e10:	01c6e6b3          	or	a3,a3,t3
    9e14:	01170963          	beq	a4,a7,9e26 <__trunctfdf2+0x104>
    9e18:	00072e03          	lw	t3,0(a4) # 80000 <_data_lma+0x7591c>
    9e1c:	0711                	addi	a4,a4,4
    9e1e:	01c6e6b3          	or	a3,a3,t3
    9e22:	ff171be3          	bne	a4,a7,9e18 <__trunctfdf2+0xf6>
    9e26:	470d                	li	a4,3
    9e28:	8f1d                	sub	a4,a4,a5
    9e2a:	ca79                	beqz	a2,9f00 <__trunctfdf2+0x1de>
    9e2c:	01010893          	addi	a7,sp,16
    9e30:	98aa                	add	a7,a7,a0
    9e32:	ff08a883          	lw	a7,-16(a7) # fff0 <_data_lma+0x590c>
    9e36:	02000e13          	li	t3,32
    9e3a:	40ce0e33          	sub	t3,t3,a2
    9e3e:	01c898b3          	sll	a7,a7,t3
    9e42:	0116e6b3          	or	a3,a3,a7
    9e46:	cb75                	beqz	a4,9f3a <__trunctfdf2+0x218>
    9e48:	070a                	slli	a4,a4,0x2
    9e4a:	950a                	add	a0,a0,sp
    9e4c:	00e10eb3          	add	t4,sp,a4
    9e50:	888a                	mv	a7,sp
    9e52:	410c                	lw	a1,0(a0)
    9e54:	00452303          	lw	t1,4(a0)
    9e58:	0891                	addi	a7,a7,4
    9e5a:	00c5d5b3          	srl	a1,a1,a2
    9e5e:	01c31333          	sll	t1,t1,t3
    9e62:	0065e5b3          	or	a1,a1,t1
    9e66:	feb8ae23          	sw	a1,-4(a7)
    9e6a:	0511                	addi	a0,a0,4
    9e6c:	ff1e93e3          	bne	t4,a7,9e52 <__trunctfdf2+0x130>
    9e70:	4591                	li	a1,4
    9e72:	40f587b3          	sub	a5,a1,a5
    9e76:	45b2                	lw	a1,12(sp)
    9e78:	0808                	addi	a0,sp,16
    9e7a:	972a                	add	a4,a4,a0
    9e7c:	00c5d5b3          	srl	a1,a1,a2
    9e80:	feb72823          	sw	a1,-16(a4)
    9e84:	a861                	j	9f1c <__trunctfdf2+0x1fa>
    9e86:	4601                	li	a2,0
    9e88:	4701                	li	a4,0
    9e8a:	b721                	j	9d92 <__trunctfdf2+0x70>
    9e8c:	00469713          	slli	a4,a3,0x4
    9e90:	00479513          	slli	a0,a5,0x4
    9e94:	01c76733          	or	a4,a4,t3
    9e98:	82f1                	srli	a3,a3,0x1c
    9e9a:	83f1                	srli	a5,a5,0x1c
    9e9c:	0592                	slli	a1,a1,0x4
    9e9e:	00e03733          	snez	a4,a4
    9ea2:	8ec9                	or	a3,a3,a0
    9ea4:	8fcd                	or	a5,a5,a1
    9ea6:	8ed9                	or	a3,a3,a4
    9ea8:	0076f713          	andi	a4,a3,7
    9eac:	c711                	beqz	a4,9eb8 <__trunctfdf2+0x196>
    9eae:	00f6f713          	andi	a4,a3,15
    9eb2:	4591                	li	a1,4
    9eb4:	02b71c63          	bne	a4,a1,9eec <__trunctfdf2+0x1ca>
    9eb8:	00800737          	lui	a4,0x800
    9ebc:	8f7d                	and	a4,a4,a5
    9ebe:	ee070de3          	beqz	a4,9db8 <__trunctfdf2+0x96>
    9ec2:	0605                	addi	a2,a2,1
    9ec4:	7ff00713          	li	a4,2047
    9ec8:	ece601e3          	beq	a2,a4,9d8a <__trunctfdf2+0x68>
    9ecc:	ff800737          	lui	a4,0xff800
    9ed0:	177d                	addi	a4,a4,-1
    9ed2:	8f7d                	and	a4,a4,a5
    9ed4:	01d71793          	slli	a5,a4,0x1d
    9ed8:	828d                	srli	a3,a3,0x3
    9eda:	0726                	slli	a4,a4,0x9
    9edc:	7ff67613          	andi	a2,a2,2047
    9ee0:	8fd5                	or	a5,a5,a3
    9ee2:	8331                	srli	a4,a4,0xc
    9ee4:	b57d                	j	9d92 <__trunctfdf2+0x70>
    9ee6:	4685                	li	a3,1
    9ee8:	4781                	li	a5,0
    9eea:	4601                	li	a2,0
    9eec:	ffc6b713          	sltiu	a4,a3,-4
    9ef0:	00174713          	xori	a4,a4,1
    9ef4:	97ba                	add	a5,a5,a4
    9ef6:	00800737          	lui	a4,0x800
    9efa:	0691                	addi	a3,a3,4
    9efc:	8f7d                	and	a4,a4,a5
    9efe:	b7c1                	j	9ebe <__trunctfdf2+0x19c>
    9f00:	858a                	mv	a1,sp
    9f02:	00a588b3          	add	a7,a1,a0
    9f06:	0008a883          	lw	a7,0(a7)
    9f0a:	0591                	addi	a1,a1,4
    9f0c:	0605                	addi	a2,a2,1
    9f0e:	ff15ae23          	sw	a7,-4(a1)
    9f12:	fec758e3          	bge	a4,a2,9f02 <__trunctfdf2+0x1e0>
    9f16:	4711                	li	a4,4
    9f18:	40f707b3          	sub	a5,a4,a5
    9f1c:	078a                	slli	a5,a5,0x2
    9f1e:	978a                	add	a5,a5,sp
    9f20:	0818                	addi	a4,sp,16
    9f22:	0007a023          	sw	zero,0(a5) # 100000 <_data_lma+0xf591c>
    9f26:	0791                	addi	a5,a5,4
    9f28:	fee79de3          	bne	a5,a4,9f22 <__trunctfdf2+0x200>
    9f2c:	4702                	lw	a4,0(sp)
    9f2e:	00d036b3          	snez	a3,a3
    9f32:	4792                	lw	a5,4(sp)
    9f34:	8ed9                	or	a3,a3,a4
    9f36:	4601                	li	a2,0
    9f38:	bf85                	j	9ea8 <__trunctfdf2+0x186>
    9f3a:	4785                	li	a5,1
    9f3c:	4701                	li	a4,0
    9f3e:	bf2d                	j	9e78 <__trunctfdf2+0x156>

00009f40 <_close>:
_close():
    9f40:	05800793          	li	a5,88
    9f44:	8ef1ae23          	sw	a5,-1796(gp) # 2000031c <errno>
    9f48:	557d                	li	a0,-1
    9f4a:	8082                	ret

00009f4c <_fstat>:
_fstat():
    9f4c:	05800793          	li	a5,88
    9f50:	8ef1ae23          	sw	a5,-1796(gp) # 2000031c <errno>
    9f54:	557d                	li	a0,-1
    9f56:	8082                	ret

00009f58 <_isatty>:
_isatty():
    9f58:	05800793          	li	a5,88
    9f5c:	8ef1ae23          	sw	a5,-1796(gp) # 2000031c <errno>
    9f60:	4501                	li	a0,0
    9f62:	8082                	ret

00009f64 <_lseek>:
_lseek():
    9f64:	05800793          	li	a5,88
    9f68:	8ef1ae23          	sw	a5,-1796(gp) # 2000031c <errno>
    9f6c:	557d                	li	a0,-1
    9f6e:	8082                	ret

00009f70 <_read>:
_read():
    9f70:	05800793          	li	a5,88
    9f74:	8ef1ae23          	sw	a5,-1796(gp) # 2000031c <errno>
    9f78:	557d                	li	a0,-1
    9f7a:	8082                	ret

00009f7c <_sbrk>:
_sbrk():
    9f7c:	88018793          	addi	a5,gp,-1920 # 200002a0 <heap_end.1518>
    9f80:	439c                	lw	a5,0(a5)
    9f82:	c791                	beqz	a5,9f8e <_sbrk+0x12>
    9f84:	953e                	add	a0,a0,a5
    9f86:	88a1a023          	sw	a0,-1920(gp) # 200002a0 <heap_end.1518>
    9f8a:	853e                	mv	a0,a5
    9f8c:	8082                	ret
    9f8e:	90018793          	addi	a5,gp,-1792 # 20000320 <_ebss>
    9f92:	953e                	add	a0,a0,a5
    9f94:	88a1a023          	sw	a0,-1920(gp) # 200002a0 <heap_end.1518>
    9f98:	853e                	mv	a0,a5
    9f9a:	8082                	ret
    9f9c:	3a44                	fld	fs1,176(a2)
    9f9e:	6f72702f          	0x6f72702f
    9fa2:	656a                	flw	fa0,152(sp)
    9fa4:	2f737463          	bgeu	t1,s7,a28c <MyUSBQUADescHD+0x114>
    9fa8:	656d                	lui	a0,0x1b
    9faa:	6e616863          	bltu	sp,t1,a69a <_ctype_+0xba>
    9fae:	6369                	lui	t1,0x1a
    9fb0:	6c61                	lui	s8,0x18
    9fb2:	615f 6d72 432f      	0x432f6d72615f
    9fb8:	7274                	flw	fa3,100(a2)
    9fba:	5f6c                	lw	a1,124(a4)
    9fbc:	70657453          	0x70657453
    9fc0:	6570                	flw	fa2,76(a0)
    9fc2:	5f72                	lw	t5,60(sp)
    9fc4:	6f4d                	lui	t5,0x13
    9fc6:	6f74                	flw	fa3,92(a4)
    9fc8:	2f72                	fld	ft10,280(sp)
    9fca:	696c                	flw	fa1,84(a0)
    9fcc:	7262                	flw	ft4,56(sp)
    9fce:	7261                	lui	tp,0xffff8
    9fd0:	6569                	lui	a0,0x1a
    9fd2:	667a2f73          	csrrs	t5,0x667,s4
    9fd6:	645f 6972 6576      	0x65766972645f
    9fdc:	2f72                	fld	ft10,280(sp)
    9fde:	667a                	flw	fa2,156(sp)
    9fe0:	645f 6972 6576      	0x65766972645f
    9fe6:	5f72                	lw	t5,60(sp)
    9fe8:	7770                	flw	fa2,108(a4)
    9fea:	2e6d                	jal	a3a4 <__clz_tab+0xe4>
    9fec:	00000063          	beqz	zero,9fec <_sbrk+0x70>
    9ff0:	7341                	lui	t1,0xffff0
    9ff2:	74726573          	csrrsi	a0,0x747,4
    9ff6:	6520                	flw	fs0,72(a0)
    9ff8:	7272                	flw	ft4,60(sp)
    9ffa:	6920726f          	jal	tp,1168c <_data_lma+0x6fa8>
    9ffe:	206e                	fld	ft0,216(sp)
    a000:	7325                	lui	t1,0xfffe9
    a002:	6c20                	flw	fs0,88(s0)
    a004:	6e69                	lui	t3,0x1a
    a006:	2065                	jal	a0ae <tim_index+0x1e>
    a008:	6425                	lui	s0,0x9
    a00a:	0d2e                	slli	s10,s10,0xb
    a00c:	000a                	c.slli	zero,0x2
    a00e:	0000                	unimp
    a010:	6f4c                	flw	fa1,28(a4)
    a012:	656d2067          	0x656d2067
    a016:	67617373          	csrrci	t1,0x676,2
    a01a:	2065                	jal	a0c2 <uart_index+0xa>
    a01c:	7266                	flw	ft4,120(sp)
    a01e:	25206d6f          	jal	s10,10270 <_data_lma+0x5b8c>
    a022:	696c2073          	csrs	0x696,s8
    a026:	656e                	flw	fa0,216(sp)
    a028:	2520                	fld	fs0,72(a0)
    a02a:	2064                	fld	fs1,192(s0)
    a02c:	223a                	fld	ft4,392(sp)
    a02e:	7325                	lui	t1,0xfffe9
    a030:	2e22                	fld	ft8,8(sp)
    a032:	0a0d                	addi	s4,s4,3
    a034:	0000                	unimp
    a036:	0000                	unimp
    a038:	420a                	lw	tp,128(sp)
    a03a:	7561                	lui	a0,0xffff8
    a03c:	2064                	fld	fs1,192(s0)
    a03e:	6152                	flw	ft2,20(sp)
    a040:	6574                	flw	fa3,76(a0)
    a042:	3d20                	fld	fs0,120(a0)
    a044:	2520                	fld	fs0,72(a0)
    a046:	0064                	addi	s1,sp,12
    a048:	640a                	flw	fs0,128(sp)
    a04a:	7461                	lui	s0,0xffff8
    a04c:	4261                	li	tp,24
    a04e:	7469                	lui	s0,0xffffa
    a050:	3d20                	fld	fs0,120(a0)
    a052:	2520                	fld	fs0,72(a0)
    a054:	0064                	addi	s1,sp,12
    a056:	0000                	unimp
    a058:	730a                	flw	ft6,160(sp)
    a05a:	6f74                	flw	fa3,92(a4)
    a05c:	4270                	lw	a2,68(a2)
    a05e:	7469                	lui	s0,0xffffa
    a060:	3d20                	fld	fs0,120(a0)
    a062:	2520                	fld	fs0,72(a0)
    a064:	0064                	addi	s1,sp,12
    a066:	0000                	unimp
    a068:	700a                	flw	ft0,160(sp)
    a06a:	7261                	lui	tp,0xffff8
    a06c:	7469                	lui	s0,0xffffa
    a06e:	5479                	li	s0,-2
    a070:	7079                	c.lui	zero,0xffffe
    a072:	2065                	jal	a11a <MyCfgDescrHD+0x2e>
    a074:	203d                	jal	a0a2 <tim_index+0x12>
    a076:	6425                	lui	s0,0x9
    a078:	0000                	unimp
	...

0000a07c <gpio_group>:
    a07c:	0800 4001 0c00 4001 1000 4001 1400 4001     ...@...@...@...@
    a08c:	1800 4001                                   ...@

0000a090 <tim_index>:
    a090:	2c00 4001 0000 4000 0400 4000 0800 4000     .,.@...@...@...@
    a0a0:	0c00 4000 1000 4000 1400 4000 3400 4001     ...@...@...@.4.@
    a0b0:	4c00 4001 5000 4001                         .L.@.P.@

0000a0b8 <uart_index>:
    a0b8:	3800 4001 4400 4000 4800 4000 4c00 4000     .8.@.D.@.H.@.L.@
    a0c8:	5000 4000 1800 4000 1c00 4000 2000 4000     .P.@...@...@. .@

0000a0d8 <MyDevDescrHD>:
    a0d8:	0112 0200 0002 0800 1a86 5722 0100 0201     .........."W....
    a0e8:	0103 0000                                   ....

0000a0ec <MyCfgDescrHD>:
    a0ec:	0209 0043 0102 a000 0932 0004 0100 0202     ..C.....2.......
    a0fc:	0001 2405 1000 0501 0124 0000 2404 0202     ...$....$....$..
    a10c:	2405 0006 0701 8105 4003 ff00 0409 0001     .$.......@......
    a11c:	0a02 0000 0700 0205 4002 0000 0507 0282     .........@......
    a12c:	0040 0000                                   @...

0000a130 <MyReportDescHD>:
    a130:	0314 0032 0030 0031 0037 002d 0032 002d     ..2.0.1.7.-.2.-.
    a140:	0032 0035                                   2.5.

0000a144 <MyManuInfoHD>:
    a144:	030e 0077 0063 0068 002e 0063 006e 0000     ..w.c.h...c.n...

0000a154 <MyProdInfoHD>:
    a154:	030c 0043 0048 0033 0030 0037               ..C.H.3.0.7.

0000a160 <MySerNumInfoHD>:
    a160:	0316 0030 0031 0032 0033 0034 0035 0036     ..0.1.2.3.4.5.6.
    a170:	0037 0038 0039 0000                         7.8.9...

0000a178 <MyUSBQUADescHD>:
    a178:	060a 0200 00ff 40ff 0001 0000 4dce 0000     .......@.....M..
    a188:	4b22 0000 4edc 0000 4c18 0000 4edc 0000     "K...N...L...N..
    a198:	4ab8 0000 48fa 0000 4edc 0000 4adc 0000     .J...H...N...J..
    a1a8:	4b04 0000 4d92 0000 4db2 0000 4a42 0000     .K...M...M..BJ..
    a1b8:	492c 0000 493e 0000 4952 0000 4a42 0000     ,I..>I..RI..BJ..
    a1c8:	4a42 0000 49ea 0000 49fc 0000 4a42 0000     BJ...I...I..BJ..
    a1d8:	4a42 0000 4a42 0000 4a42 0000 4a42 0000     BJ..BJ..BJ..BJ..
    a1e8:	4a42 0000 4a42 0000 4a3a 0000 4a42 0000     BJ..BJ..:J..BJ..
    a1f8:	4a42 0000 4a42 0000 4a42 0000 4a42 0000     BJ..BJ..BJ..BJ..
    a208:	4a42 0000 4a42 0000 4a42 0000 4a42 0000     BJ..BJ..BJ..BJ..
    a218:	4a42 0000 4a42 0000 4a42 0000 4a42 0000     BJ..BJ..BJ..BJ..
    a228:	4a42 0000 4a42 0000 4a42 0000 4a42 0000     BJ..BJ..BJ..BJ..
    a238:	4a42 0000 49d8 0000 ba9e ffff b922 ffff     BJ...I......"...
    a248:	ba32 ffff ba3a ffff ba32 ffff b952 ffff     2...:...2...R...
    a258:	ba32 ffff ba3a ffff b922 ffff b922 ffff     2...:..."..."...
    a268:	b952 ffff ba3a ffff ba94 ffff ba94 ffff     R...:...........
    a278:	ba94 ffff b952 ffff c100 ffff bff2 ffff     ....R...........
    a288:	bff2 ffff bff0 ffff bff8 ffff bff8 ffff     ................
    a298:	bfbe ffff bff0 ffff bff8 ffff bfbe ffff     ................
    a2a8:	bff8 ffff bff0 ffff c0ec ffff c0ec ffff     ................
    a2b8:	c0ec ffff bfbe ffff                         ........

0000a2c0 <__clz_tab>:
    a2c0:	0100 0202 0303 0303 0404 0404 0404 0404     ................
    a2d0:	0505 0505 0505 0505 0505 0505 0505 0505     ................
    a2e0:	0606 0606 0606 0606 0606 0606 0606 0606     ................
    a2f0:	0606 0606 0606 0606 0606 0606 0606 0606     ................
    a300:	0707 0707 0707 0707 0707 0707 0707 0707     ................
    a310:	0707 0707 0707 0707 0707 0707 0707 0707     ................
    a320:	0707 0707 0707 0707 0707 0707 0707 0707     ................
    a330:	0707 0707 0707 0707 0707 0707 0707 0707     ................
    a340:	0808 0808 0808 0808 0808 0808 0808 0808     ................
    a350:	0808 0808 0808 0808 0808 0808 0808 0808     ................
    a360:	0808 0808 0808 0808 0808 0808 0808 0808     ................
    a370:	0808 0808 0808 0808 0808 0808 0808 0808     ................
    a380:	0808 0808 0808 0808 0808 0808 0808 0808     ................
    a390:	0808 0808 0808 0808 0808 0808 0808 0808     ................
    a3a0:	0808 0808 0808 0808 0808 0808 0808 0808     ................
    a3b0:	0808 0808 0808 0808 0808 0808 0808 0808     ................
    a3c0:	ffff ffff ffff 7fef 4e49 0046 6e69 0066     ........INF.inf.
    a3d0:	414e 004e 616e 006e 0030 0000 3130 3332     NAN.nan.0...0123
    a3e0:	3534 3736 3938 4241 4443 4645 0000 0000     456789ABCDEF....
    a3f0:	3130 3332 3534 3736 3938 6261 6463 6665     0123456789abcdef
	...
    a40c:	0000 3ff8 4361 636f 87a7 3fd2 c8b3 8b60     ...?aCoc...?..`.
    a41c:	8a28 3fc6 79fb 509f 4413 3fd3 0000 0000     (..?.y.P.D.?....
    a42c:	0000 3ff0 0000 0000 0000 4024 0000 0000     ...?......$@....
    a43c:	0000 401c 0000 0000 0000 4014 0000 0000     ...@.......@....
    a44c:	0000 3fe0 6e49 6966 696e 7974 0000 0000     ...?Infinity....
    a45c:	614e 004e                                   NaN.

0000a460 <__sf_fake_stderr>:
	...

0000a480 <__sf_fake_stdin>:
	...

0000a4a0 <__sf_fake_stdout>:
	...

0000a4c0 <__mprec_bigtens>:
    a4c0:	8000 37e0 c379 4341 6e17 b505 b8b5 4693     ...7y.AC.n.....F
    a4d0:	f9f5 e93f 4f03 4d38 1d32 f930 7748 5a82     ..?..O8M2.0.Hw.Z
    a4e0:	bf3c 7f73 4fdd 7515                         <.s..O.u

0000a4e8 <__mprec_tens>:
    a4e8:	0000 0000 0000 3ff0 0000 0000 0000 4024     .......?......$@
    a4f8:	0000 0000 0000 4059 0000 0000 4000 408f     ......Y@.....@.@
    a508:	0000 0000 8800 40c3 0000 0000 6a00 40f8     .......@.....j.@
    a518:	0000 0000 8480 412e 0000 0000 12d0 4163     .......A......cA
    a528:	0000 0000 d784 4197 0000 0000 cd65 41cd     .......A....e..A
    a538:	0000 2000 a05f 4202 0000 e800 4876 4237     ... _..B....vH7B
    a548:	0000 a200 1a94 426d 0000 e540 309c 42a2     ......mB..@..0.B
    a558:	0000 1e90 bcc4 42d6 0000 2634 6bf5 430c     .......B..4&.k.C
    a568:	8000 37e0 c379 4341 a000 85d8 3457 4376     ...7y.AC....W4vC
    a578:	c800 674e c16d 43ab 3d00 6091 58e4 43e1     ..Ngm..C.=.`.X.C
    a588:	8c40 78b5 af1d 4415 ef50 d6e2 1ae4 444b     @..x...DP.....KD
    a598:	d592 064d f0cf 4480 4af6 c7e1 2d02 44b5     ..M....D.J...-.D
    a5a8:	9db4 79d9 7843 44ea                         ...yCx.D

0000a5b0 <p05.3319>:
    a5b0:	0005 0000 0019 0000 007d 0000 2d23 2b30     ........}...#-0+
    a5c0:	0020 0000 6c68 004c 6665 4567 4746 0000      ...hlL.efgEFG..
    a5d0:	0043 0000 4f50 4953 0058 0000 002e 0000     C...POSIX.......

0000a5e0 <_ctype_>:
    a5e0:	2000 2020 2020 2020 2020 2828 2828 2028     .         ((((( 
    a5f0:	2020 2020 2020 2020 2020 2020 2020 2020                     
    a600:	8820 1010 1010 1010 1010 1010 1010 1010      ...............
    a610:	0410 0404 0404 0404 0404 1004 1010 1010     ................
    a620:	1010 4141 4141 4141 0101 0101 0101 0101     ..AAAAAA........
    a630:	0101 0101 0101 0101 0101 0101 1010 1010     ................
    a640:	1010 4242 4242 4242 0202 0202 0202 0202     ..BBBBBB........
    a650:	0202 0202 0202 0202 0202 0202 1010 1010     ................
    a660:	0020 0000 0000 0000 0000 0000 0000 0000      ...............
	...
