
CarLocateUWB.elf:     file format elf32-littleriscv
CarLocateUWB.elf
architecture: riscv:rv32, flags 0x00000112:
EXEC_P, HAS_SYMS, D_PAGED
start address 0x00000000

Program Header:
    LOAD off    0x00001000 vaddr 0x00000000 paddr 0x00000000 align 2**12
         filesz 0x0000a424 memsz 0x0000a424 flags r-x
    LOAD off    0x0000c000 vaddr 0x20000000 paddr 0x0000a424 align 2**12
         filesz 0x00000280 memsz 0x0000036c flags rw-
    LOAD off    0x0000c800 vaddr 0x2000f800 paddr 0x2000f800 align 2**12
         filesz 0x00000000 memsz 0x00000800 flags rw-

Sections:
Idx Name           Size      VMA       LMA       File off  Algn  Flags
  0 .init          00000038  00000000  00000000  00001000  2**1  CONTENTS, ALLOC, LOAD, READONLY, CODE
  1 .vector        000001c8  00000038  00000038  00001038  2**1  CONTENTS, ALLOC, LOAD, READONLY, CODE
  2 .text          0000a224  00000200  00000200  00001200  2**3  CONTENTS, ALLOC, LOAD, READONLY, CODE
  3 .fini          00000000  0000a424  0000a424  0000c280  2**0  CONTENTS, ALLOC, LOAD, CODE
  4 .dalign        00000000  20000000  20000000  0000c280  2**0  CONTENTS
  5 .dlalign       00000000  0000a424  0000a424  0000c280  2**0  CONTENTS
  6 .data          00000280  20000000  0000a424  0000c000  2**2  CONTENTS, ALLOC, LOAD, DATA
  7 .bss           000000ec  20000280  0000a6a4  0000c280  2**2  ALLOC
  8 .stack         00000800  2000f800  2000f800  0000c800  2**0  ALLOC
  9 .debug_info    0001b01e  00000000  00000000  0000c280  2**0  CONTENTS, READONLY, DEBUGGING
 10 .debug_abbrev  0000452a  00000000  00000000  0002729e  2**0  CONTENTS, READONLY, DEBUGGING
 11 .debug_aranges 000011d8  00000000  00000000  0002b7c8  2**3  CONTENTS, READONLY, DEBUGGING
 12 .debug_ranges  00000fb8  00000000  00000000  0002c9a0  2**3  CONTENTS, READONLY, DEBUGGING
 13 .debug_line    00012d1f  00000000  00000000  0002d958  2**0  CONTENTS, READONLY, DEBUGGING
 14 .debug_str     00006010  00000000  00000000  00040677  2**0  CONTENTS, READONLY, DEBUGGING
 15 .comment       00000033  00000000  00000000  00046687  2**0  CONTENTS, READONLY
 16 .debug_frame   000052ac  00000000  00000000  000466bc  2**2  CONTENTS, READONLY, DEBUGGING
 17 .stab          00000084  00000000  00000000  0004b968  2**2  CONTENTS, READONLY, DEBUGGING
 18 .stabstr       00000117  00000000  00000000  0004b9ec  2**0  CONTENTS, READONLY, DEBUGGING
SYMBOL TABLE:
00000000 l    d  .init	00000000 .init
00000038 l    d  .vector	00000000 .vector
00000200 l    d  .text	00000000 .text
0000a424 l    d  .fini	00000000 .fini
20000000 l    d  .dalign	00000000 .dalign
0000a424 l    d  .dlalign	00000000 .dlalign
20000000 l    d  .data	00000000 .data
20000280 l    d  .bss	00000000 .bss
2000f800 l    d  .stack	00000000 .stack
00000000 l    d  .debug_info	00000000 .debug_info
00000000 l    d  .debug_abbrev	00000000 .debug_abbrev
00000000 l    d  .debug_aranges	00000000 .debug_aranges
00000000 l    d  .debug_ranges	00000000 .debug_ranges
00000000 l    d  .debug_line	00000000 .debug_line
00000000 l    d  .debug_str	00000000 .debug_str
00000000 l    d  .comment	00000000 .comment
00000000 l    d  .debug_frame	00000000 .debug_frame
00000000 l    d  .stab	00000000 .stab
00000000 l    d  .stabstr	00000000 .stabstr
00000000 l    df *ABS*	00000000 ./sdk/Startup/startup_ch32v30x.o
00000038 l       .vector	00000000 _vector_base
00000000 l    df *ABS*	00000000 zf_driver_delay.c
00000000 l    df *ABS*	00000000 zf_driver_gpio.c
00000000 l    df *ABS*	00000000 zf_driver_uart.c
00000000 l    df *ABS*	00000000 zf_device_bluetooth_ch9141.c
200002e0 l     O .bss	00000014 bluetooth_ch9141_fifo
20000280 l     O .bss	00000001 bluetooth_ch9141_data
00000000 l    df *ABS*	00000000 zf_device_bluetooth_ch9141_ch2.c
200002f4 l     O .bss	00000014 bluetooth_ch9141_fifo_ch2
20000281 l     O .bss	00000001 bluetooth_ch9141_data_ch2
00000000 l    df *ABS*	00000000 zf_device_camera.c
00000000 l    df *ABS*	00000000 zf_device_mt9v03x_dvp.c
20000284 l     O .bss	00000003 receive_dvp
20000287 l     O .bss	00000001 receive_num_dvp
20000288 l     O .bss	00000001 uart_receive_flag_dvp
00000000 l    df *ABS*	00000000 zf_device_scc8660_dvp.c
00000000 l    df *ABS*	00000000 zf_device_wireless_ch573.c
20000308 l     O .bss	00000014 wireless_ch573_fifo
2000029c l     O .bss	00000001 wireless_ch573_data
00000000 l    df *ABS*	00000000 zf_device_wireless_uart.c
2000031c l     O .bss	00000014 wireless_uart_fifo
2000029d l     O .bss	00000001 wireless_uart_data
00000000 l    df *ABS*	00000000 zf_common_clock.c
00000e7c l     F .text	00000076 clock_reset
00000ef2 l     F .text	00000260 clock_set_freq
00000000 l    df *ABS*	00000000 zf_common_debug.c
00000000 l    df *ABS*	00000000 zf_common_fifo.c
00000000 l    df *ABS*	00000000 zf_common_interrupt.c
00001350 l     F .text	00000032 NVIC_EnableIRQ
00001382 l     F .text	00000032 NVIC_DisableIRQ
200002a8 l     O .bss	00000004 interrupt_nest_count
00000000 l    df *ABS*	00000000 isr.c
00000000 l    df *ABS*	00000000 main.c
20000000 l     O .data	0000000c config
00000000 l    df *ABS*	00000000 system_ch32v30x.c
00001c6c l     F .text	00000014 SetSysClock
00001c80 l     F .text	00000162 SetSysClockTo144
00000000 l    df *ABS*	00000000 ch32v30x_exti.c
00000000 l    df *ABS*	00000000 ch32v30x_gpio.c
00000000 l    df *ABS*	00000000 ch32v30x_rcc.c
2000000c l     O .data	00000010 APBAHBPrescTable
20000230 l     O .data	00000004 ADCPrescTable
00000000 l    df *ABS*	00000000 ch32v30x_spi.c
00000000 l    df *ABS*	00000000 ch32v30x_tim.c
00000000 l    df *ABS*	00000000 ch32v30x_usart.c
00000000 l    df *ABS*	00000000 ch32v30x_usbotg_device.c
00000000 l    df *ABS*	00000000 deca_mutex.c
00003b8c l     F .text	00000032 NVIC_EnableIRQ
00003bbe l     F .text	00000032 NVIC_DisableIRQ
00000000 l    df *ABS*	00000000 deca_sleep.c
00000000 l    df *ABS*	00000000 deca_spi.c
00000000 l    df *ABS*	00000000 port.c
00003d8a l     F .text	00000032 NVIC_EnableIRQ
00003dbc l     F .text	00000032 NVIC_DisableIRQ
200002cc l     O .bss	00000002 p_ms
00000000 l    df *ABS*	00000000 deca_device.c
20000330 l     O .bss	00000038 dw1000local
20000240 l     O .data	00000004 pdw1000local
00000000 l    df *ABS*	00000000 adddf3.c
00000000 l    df *ABS*	00000000 divdf3.c
00000000 l    df *ABS*	00000000 eqdf2.c
00000000 l    df *ABS*	00000000 ledf2.c
00000000 l    df *ABS*	00000000 muldf3.c
00000000 l    df *ABS*	00000000 subdf3.c
00000000 l    df *ABS*	00000000 fixdfsi.c
00000000 l    df *ABS*	00000000 floatsidf.c
00000000 l    df *ABS*	00000000 libgcc2.c
00000000 l    df *ABS*	00000000 memcpy.c
00000000 l    df *ABS*	00000000 nano-vfprintf_float.c
00000000 l    df *ABS*	00000000 nano-vfprintf_i.c
00000000 l    df *ABS*	00000000 printf.c
00000000 l    df *ABS*	00000000 strlen.c
00000000 l    df *ABS*	00000000 wbuf.c
00000000 l    df *ABS*	00000000 wsetup.c
00000000 l    df *ABS*	00000000 dtoa.c
000078b4 l     F .text	0000013a quorem
00000000 l    df *ABS*	00000000 fflush.c
00000000 l    df *ABS*	00000000 findfp.c
000087b0 l     F .text	0000006a std
00000000 l    df *ABS*	00000000 fwalk.c
00000000 l    df *ABS*	00000000 localeconv.c
00000000 l    df *ABS*	00000000 makebuf.c
00000000 l    df *ABS*	00000000 malloc.c
00000000 l    df *ABS*	00000000 memchr.c
00000000 l    df *ABS*	00000000 mprec.c
0000a2f0 l     O .text	0000000c p05.3319
00000000 l    df *ABS*	00000000 nano-mallocr.c
00000000 l    df *ABS*	00000000 nano-mallocr.c
00000000 l    df *ABS*	00000000 nano-mallocr.c
00000000 l    df *ABS*	00000000 nano-vfprintf.c
000093ae l     F .text	0000002a __sfputc_r
00000000 l    df *ABS*	00000000 sbrkr.c
00000000 l    df *ABS*	00000000 stdio.c
00000000 l    df *ABS*	00000000 writer.c
00000000 l    df *ABS*	00000000 closer.c
00000000 l    df *ABS*	00000000 fstatr.c
00000000 l    df *ABS*	00000000 isattyr.c
00000000 l    df *ABS*	00000000 lseekr.c
00000000 l    df *ABS*	00000000 mbtowc_r.c
00000000 l    df *ABS*	00000000 mlock.c
00000000 l    df *ABS*	00000000 readr.c
00000000 l    df *ABS*	00000000 wctomb_r.c
00000000 l    df *ABS*	00000000 gedf2.c
00000000 l    df *ABS*	00000000 unorddf2.c
00000000 l    df *ABS*	00000000 floatunsidf.c
00000000 l    df *ABS*	00000000 trunctfdf2.c
00000000 l    df *ABS*	00000000 close.c
00000000 l    df *ABS*	00000000 fstat.c
00000000 l    df *ABS*	00000000 isatty.c
00000000 l    df *ABS*	00000000 lseek.c
00000000 l    df *ABS*	00000000 read.c
00000000 l    df *ABS*	00000000 sbrk.c
200002dc l     O .bss	00000004 heap_end.1518
00000000 l    df *ABS*	00000000 deca_params_init.c
00000000 l    df *ABS*	00000000 libgcc2.c
00000000 l    df *ABS*	00000000 locale.c
00000000 l    df *ABS*	00000000 ctype_.c
00000000 l    df *ABS*	00000000 impure.c
20000060 l     O .data	00000060 impure_data
00000000 l    df *ABS*	00000000 zf_device_type.c
00000000 l    df *ABS*	00000000 reent.c
00006c92 g     F .text	000000ee __cvt
000016b0 g     F .text	00000042 EXTI2_IRQHandler
20000298 g     O .bss	00000004 wireless_type
00001b0c  w      .text	00000000 TIM8_TRG_COM_IRQHandler
00001b0e  w      .text	00000000 TIM8_CC_IRQHandler
0000095c g     F .text	0000005e uart_query_byte
200002c6 g     O .bss	00000001 USBHD_Dev_SleepStatus
0000981e g     F .text	00000028 _isatty_r
00002dcc g     F .text	0000003e DevEP1_IN_Deal
00009846 g     F .text	0000002c _lseek_r
0000409a g     F .text	00000040 port_set_deca_isr
20000290 g     O .bss	00000001 scc8660_uart_receive_flag_dvp
000015fe g     F .text	0000002c UART8_IRQHandler
00005d7c g     F .text	0000006a .hidden __eqdf2
00007688 g     F .text	00000042 printf
20000a30 g       .data	00000000 __global_pointer$
00001ae8  w      .text	00000000 TIM1_CC_IRQHandler
00000318 g     F .text	00000066 gpio_toggle_level
00009762 g     F .text	00000036 __sseek
0000886c g     F .text	0000006c __sinit
000076dc g     F .text	000000c6 __swbuf_r
00001250 g     F .text	00000100 fifo_write_buffer
00001a0a g     F .text	00000008 HardFault_Handler
00008824 g     F .text	00000048 __sfmoreglue
000098ae g     F .text	00000002 __malloc_unlock
00000cb6 g     F .text	00000036 camera_uart_handler
00000e08 g     F .text	00000026 wireless_ch573_callback
0000191a g     F .text	00000028 TIM6_IRQHandler
00009eec g     O .text	00000018 tx_config
00001aae  w      .text	00000000 SysTick_Handler
00001ab4  w      .text	00000000 PVD_IRQHandler
00001b14  w      .text	00000000 SDIO_IRQHandler
00001b46  w      .text	00000000 TIM9_BRK_IRQHandler
00000d90 g     F .text	00000064 scc8660_uart_callback_dvp
00002656 g     F .text	0000006a SPI_I2S_DeInit
00001b5a  w      .text	00000000 DMA2_Channel8_IRQHandler
000019fa g     F .text	00000010 NMI_Handler
00008b1e g     F .text	00000088 _Balloc
00001b34  w      .text	00000000 CAN2_RX1_IRQHandler
000016f2 g     F .text	00000024 EXTI3_IRQHandler
00009f1c g     O .text	0000000c sftsh
20000294 g     O .bss	00000004 camera_type
000098fc g     F .text	000000ae .hidden __gtdf2
000042d6 g     F .text	000003b0 dwt_configure
00001b3c  w      .text	00000000 USBHS_IRQHandler
00001ab0  w      .text	00000000 SW_handler
00002c36 g     F .text	00000046 USART_GetFlagStatus
00001b5c  w      .text	00000000 DMA2_Channel9_IRQHandler
000097f4 g     F .text	0000002a _fstat_r
00009da0 g     O .text	00000014 MyReportDescHD
00001b54  w      .text	00000000 TIM10_CC_IRQHandler
20000368 g     O .bss	00000004 errno
2000001c g     O .data	00000043 TAB_USB_FS_OSC_DESC
00004686 g     F .text	00000114 dwt_writetodevice
20000280 g       .bss	00000000 _sbss
00000800 g       *ABS*	00000000 __stack_size
00004fd2 g     F .text	0000002e dwt_rxreset
00000206 g       .text	00000000 en_interrupt
200002c7 g     O .bss	00000001 DevConfig
000013d0 g     F .text	0000001c interrupt_disable
00005000 g     F .text	0000005a dwt_softreset
00004b18 g     F .text	0000002a _dwt_aonarrayupload
00000c6a g     F .text	00000026 bluetooth_ch9141_uart_callback_ch1
00006bdc g     F .text	000000b6 memcpy
20000248 g     O .data	00000008 uart_irq
0000881a g     F .text	0000000a _cleanup_r
00002138 g     F .text	0000013c GPIO_PinRemapConfig
00006af6 g     F .text	00000070 .hidden __floatsidf
20000291 g     O .bss	00000001 scc8660_finish_flag_dvp
00005de6 g     F .text	000000b6 .hidden __ltdf2
00004b98 g     F .text	0000002c _dwt_loaducodefromrom
00001668 g     F .text	00000024 EXTI0_IRQHandler
00001af4  w      .text	00000000 I2C2_EV_IRQHandler
00001b52  w      .text	00000000 TIM10_TRG_COM_IRQHandler
200002ca g     O .bss	00000002 SetupReqLen
00009dd0 g     O .text	00000016 MySerNumInfoHD
00003c56 g     F .text	00000092 writetospi
00008af8 g     F .text	0000000c malloc
00009c78 g     F .text	0000000c _fstat
0000a228 g     O .text	000000c8 __mprec_tens
00000038 g       .init	00000000 _einit
00002882 g     F .text	0000002e TIM_ClearITPendingBit
00009de8 g     O .text	0000000a MyUSBQUADescHD
000013ec g     F .text	0000000e interrupt_init
0000253e g     F .text	00000046 RCC_APB2PeriphClockCmd
00001b36  w      .text	00000000 CAN2_SCE_IRQHandler
00001ad6  w      .text	00000000 ADC1_2_IRQHandler
00001e58 g     F .text	0000022a GPIO_Init
200002d0 g     O .bss	00000004 port_deca_isr
00001aac  w      .text	00000000 Break_Point_Handler
200002c8 g     O .bss	00000001 SetupReqCode
000089e4 g     F .text	00000018 _localeconv_r
00008d32 g     F .text	0000001c __i2b
00001202 g     F .text	0000004e fifo_head_offset
00001af8  w      .text	00000000 SPI1_IRQHandler
00002ae4 g     F .text	00000060 USART_Cmd
000096bc g     F .text	00000028 _sbrk_r
00001ab6  w      .text	00000000 TAMPER_IRQHandler
000098b0 g     F .text	0000002c _read_r
00002d7e g     F .text	0000004e USART_ClearITPendingBit
00001b32  w      .text	00000000 CAN2_RX0_IRQHandler
00001972 g     F .text	00000030 TIM8_UP_IRQHandler
00002584 g     F .text	00000046 RCC_APB1PeriphClockCmd
00005098 g     F .text	00000730 .hidden __adddf3
00001aa8  w      .text	00000000 Ecall_M_Mode_Handler
00009f48 g     O .text	00000032 lde_replicaCoeff
00000df4 g     F .text	00000014 scc8660_vsync_dvp
00009c84 g     F .text	0000000c _isatty
00004028 g     F .text	00000072 reset_DW1000
20000278 g     O .data	00000004 _global_impure_ptr
00003e62 g     F .text	00000044 EXTI_GetITEnStatus
00001b24  w      .text	00000000 DMA2_Channel2_IRQHandler
00001ace  w      .text	00000000 DMA1_Channel4_IRQHandler
0000a200 g     O .text	00000028 __mprec_bigtens
000099e6 g     F .text	00000068 .hidden __floatunsidf
00009ca8 g     F .text	00000020 _sbrk
0000901e g     F .text	00000032 __mcmp
00000d18 g     F .text	00000064 mt9v03x_uart_callback_dvp
000019a2 g     F .text	00000030 TIM9_UP_IRQHandler
000014e6 g     F .text	00000034 USART3_IRQHandler
00001e38 g     F .text	00000020 EXTI_ClearITPendingBit
00001ab8  w      .text	00000000 RTC_IRQHandler
2000036c g       .bss	00000000 _ebss
00002c7c g     F .text	00000102 USART_GetITStatus
00001ad4  w      .text	00000000 DMA1_Channel7_IRQHandler
0000410e g     F .text	000001ae dwt_initialise
00009dc4 g     O .text	0000000c MyProdInfoHD
00008c82 g     F .text	00000046 __hi0bits
00009f28 g     O .text	00000020 digital_bb_config
00001adc  w      .text	00000000 CAN1_RX1_IRQHandler
00006a8e g     F .text	00000068 .hidden __fixdfsi
20000264 g     O .data	00000002 rx_config
0000162a g     F .text	0000003e DVP_IRQHandler
0000154e g     F .text	00000030 UART5_IRQHandler
200002c0 g     O .bss	00000004 pDescr
20000250 g     O .data	00000004 MyLangDescrHD
200002a0 g     O .bss	00000004 system_clock
00004f2c g     F .text	0000006a dwt_forcetrxoff
000020bc g     F .text	00000022 GPIO_SetBits
000018ba g     F .text	00000030 TIM4_IRQHandler
00005de6 g     F .text	000000b6 .hidden __ledf2
00002100 g     F .text	00000038 GPIO_WriteBit
00000e54 g     F .text	00000028 clock_init
00001b22  w      .text	00000000 DMA2_Channel1_IRQHandler
00008e92 g     F .text	000000be __pow5mult
0000a1a0 g     O .text	00000020 __sf_fake_stderr
2000036c g       .bss	00000000 end
20000238 g     O .data	00000007 LineCoding
00001af0  w      .text	00000000 I2C1_EV_IRQHandler
000049f2 g     F .text	0000005c dwt_write16bitoffsetreg
00009f04 g     O .text	00000018 fs_pll_cfg
00002812 g     F .text	00000070 TIM_GetITStatus
00002274 g     F .text	000002ca RCC_GetClocksFreq
000049b4 g     F .text	0000003e dwt_write8bitoffsetreg
00001ad2  w      .text	00000000 DMA1_Channel6_IRQHandler
00006b66 g     F .text	00000076 .hidden __clzsi2
000093d8 g     F .text	00000044 __sfputs_r
000009ba g     F .text	000002b0 uart_init
0000151a g     F .text	00000034 UART4_IRQHandler
00001b28  w      .text	00000000 DMA2_Channel4_IRQHandler
00008b04 g     F .text	0000001a memchr
00006e0c  w    F .text	000004c4 _printf_float
000028b0 g     F .text	00000234 USART_Init
0000923c g     F .text	000000a4 _free_r
0000188a g     F .text	00000030 TIM3_IRQHandler
00001abc  w      .text	00000000 RCC_IRQHandler
00000514 g     F .text	000003c2 uart_gpio_init
00001ae6  w      .text	00000000 TIM1_TRG_COM_IRQHandler
000042bc g     F .text	0000001a dwt_readdevid
00001ac8  w      .text	00000000 DMA1_Channel1_IRQHandler
00000000 g       .init	00000000 _start
00001b58  w      .text	00000000 DMA2_Channel7_IRQHandler
00003ea6 g     F .text	0000004a SPI_ChangeRate
0000505a g     F .text	0000003e dwt_setxtaltrim
00004ac4 g     F .text	00000054 _dwt_otpread
00009c90 g     F .text	0000000c _lseek
00008f50 g     F .text	000000ce __lshift
00004bc4 g     F .text	000001dc dwt_isr
000017ae g     F .text	0000007c EXTI15_10_IRQHandler
000048a6 g     F .text	00000074 dwt_read32bitoffsetreg
00000200 g       .text	00000000 dis_interrupt
000008d6 g     F .text	00000086 uart_rx_interrupt
00002b44 g     F .text	000000c4 USART_ITConfig
200002bc g     O .bss	00000004 pEP2_RAM_Addr
00003f06 g     F .text	00000122 SPI_DW_Configuration
00008d4e g     F .text	00000144 __multiply
00003ef0 g     F .text	00000016 spi_set_rate_high
00009142 g     F .text	000000d4 __d2b
00000c90 g     F .text	00000026 bluetooth_ch9141_uart_callback_ch2
00004978 g     F .text	0000003c dwt_read8bitoffsetreg
000020de g     F .text	00000022 GPIO_ResetBits
000002bc g     F .text	0000005c system_delay
00001942 g     F .text	00000030 TIM7_IRQHandler
000097cc g     F .text	00000028 _close_r
00001b30  w      .text	00000000 CAN2_TX_IRQHandler
20000000 g       .dalign	00000000 _data_vma
000018ea g     F .text	00000030 TIM5_IRQHandler
00002eac g     F .text	00000064 DevEP2_OUT_Deal
000077a2 g     F .text	00000112 __swsetup_r
00001738 g     F .text	00000076 EXTI9_5_IRQHandler
000057c8 g     F .text	000005b4 .hidden __divdf3
000088d8 g     F .text	000000a0 __sfp
00003ce8 g     F .text	000000a2 readfromspi
00005e9c g     F .text	000004b8 .hidden __muldf3
000096e4 g     F .text	00000030 __sread
00001b2e  w      .text	00000000 ETH_WKUP_IRQHandler
00002e48 g     F .text	00000064 DevEP1_OUT_Deal
000098ac g     F .text	00000002 __malloc_lock
0000874a g     F .text	00000066 _fflush_r
00009216 g     F .text	00000026 _calloc_r
00001de2 g     F .text	00000056 EXTI_GetITStatus
200002b4 g     O .bss	00000004 pEP0_RAM_Addr
20000282 g     O .bss	00000001 mt9v03x_finish_flag_dvp
00001afa  w      .text	00000000 SPI2_IRQHandler
20000270 g     O .data	00000003 dwnsSFDlen
0000a1c0 g     O .text	00000020 __sf_fake_stdin
00009d48 g     O .text	00000012 MyDevDescrHD
00000214 g     F .text	000000a8 memset
00001a12 g     F .text	00000092 main
20000268 g     O .data	00000008 agc_config
00001b4e  w      .text	00000000 TIM10_BRK_IRQHandler
00001b4c  w      .text	00000000 TIM9_CC_IRQHandler
0000479a g     F .text	0000010c dwt_readfromdevice
00009798 g     F .text	00000006 __sclose
00001b2a  w      .text	00000000 DMA2_Channel5_IRQHandler
20000234 g     O .data	00000001 USBHD_Dev_Speed
2000028f g     O .bss	00000001 scc8660_uart_receive_num_dvp
000079ee g     F .text	00000c1e _dtoa_r
000092e0 g     F .text	000000ce _malloc_r
000098dc g     F .text	00000020 __ascii_wctomb
20000274 g     O .data	00000004 dtune1
00009db4 g     O .text	0000000e MyManuInfoHD
2000028c g     O .bss	00000003 scc8660_uart_receive_dvp
00001ad0  w      .text	00000000 DMA1_Channel5_IRQHandler
200002a4 g     O .bss	00000001 zf_debug_init_flag
00009d28 g     O .text	00000020 uart_index
00001716 g     F .text	00000022 EXTI4_IRQHandler
00003dee g     F .text	00000074 Delay_Ms
00001ada  w      .text	00000000 USB_LP_CAN1_RX0_IRQHandler
00000d7c g     F .text	00000014 mt9v03x_handler_dvp
000027b8 g     F .text	0000005a SPI_Cmd
00001152 g     F .text	00000034 debug_init
00001bf0 g     F .text	0000007c SystemInit
00001b10  w      .text	00000000 RNG_IRQHandler
00005d7c g     F .text	0000006a .hidden __nedf2
00007688 g     F .text	00000042 iprintf
200002ac g     O .bss	00000008 EP0_DatabufHD
00003c3a g     F .text	0000001c deca_sleep
00001ad8  w      .text	00000000 USB_HP_CAN1_TX_IRQHandler
00004f08 g     F .text	00000024 _dwt_disablesequencing
00009ffc g     O .text	00000100 .hidden __clz_tab
00006d80 g     F .text	0000008c __exponent
00000000 g       .init	00000000 _sinit
00002e0a g     F .text	0000003e DevEP2_IN_Deal
0000979e g     F .text	0000002e _write_r
00001acc  w      .text	00000000 DMA1_Channel3_IRQHandler
00001b12  w      .text	00000000 FSMC_IRQHandler
2000025c g     O .data	00000006 fs_pll_tune
00001b2c  w      .text	00000000 ETH_IRQHandler
000072d0 g     F .text	0000010c _printf_common
20000244 g     O .data	00000004 _impure_ptr
0000182a g     F .text	00000030 TIM1_UP_IRQHandler
0000860c g     F .text	0000013e __sflush_r
000040da g     F .text	00000034 GPIO_RCC_Configuration
00001ab2  w      .text	00000000 WWDG_IRQHandler
00001b3a  w      .text	00000000 USBHSWakeup_IRQHandler
00001b60  w      .text	00000000 DMA2_Channel11_IRQHandler
00002610 g     F .text	00000046 RCC_APB1PeriphResetCmd
00009872 g     F .text	0000003a __ascii_mbtowc
00001aaa  w      .text	00000000 Ecall_U_Mode_Handler
00001b56  w      .text	00000000 DMA2_Channel6_IRQHandler
0000185a g     F .text	00000030 TIM2_IRQHandler
20010000 g       .stack	00000000 _eusrstack
00009d5c g     O .text	00000043 MyCfgDescrHD
00001ae2  w      .text	00000000 TIM1_BRK_IRQHandler
000089fc g     F .text	0000005a __swhatbuf_r
0000491a g     F .text	0000005e dwt_read16bitoffsetreg
00003bf0 g     F .text	0000002a decamutexon
00002c08 g     F .text	0000002e USART_SendData
00003c1a g     F .text	00000020 decamutexoff
00001b5e  w      .text	00000000 DMA2_Channel10_IRQHandler
0000168c g     F .text	00000024 EXTI1_IRQHandler
00001186 g     F .text	0000007c _write
20000280 g       .data	00000000 _edata
00000e2e g     F .text	00000026 wireless_uart_callback
200002c4 g     O .bss	00000002 USBHD_Dev_SetupReqLen
00001b04  w      .text	00000000 RTCAlarm_IRQHandler
20000254 g     O .data	00000008 chan_idx
0000a424 g       .dlalign	00000000 _data_lma
000019d2 g     F .text	00000028 TIM10_UP_IRQHandler
00001b4a  w      .text	00000000 TIM9_TRG_COM_IRQHandler
000015b2 g     F .text	0000004c UART7_IRQHandler
00001484 g     F .text	00000062 USART2_IRQHandler
0000157e g     F .text	00000034 UART6_IRQHandler
00009714 g     F .text	0000004e __swrite
0000941c g     F .text	000002a0 _vfiprintf_r
00008978 g     F .text	0000006c _fwalk_reent
00009050 g     F .text	000000f2 __mdiff
000013fa g     F .text	0000002e interrupt_global_enable
00001af6  w      .text	00000000 I2C2_ER_IRQHandler
00001aca  w      .text	00000000 DMA1_Channel2_IRQHandler
0000a1e0 g     O .text	00000020 __sf_fake_stdout
00001b08  w      .text	00000000 TIM8_BRK_IRQHandler
0000a320 g     O .text	00000101 _ctype_
00009c9c g     F .text	0000000c _read
000099aa g     F .text	0000003c .hidden __unorddf2
00001b62  w      .text	00000000 handle_reset
00004b42 g     F .text	00000056 _dwt_configlde
00001ade  w      .text	00000000 CAN1_SCE_IRQHandler
00009d14 g     O .text	00000014 gpio_group
00001aba  w      .text	00000000 FLASH_IRQHandler
00001450 g     F .text	00000034 USART1_IRQHandler
00008a56 g     F .text	000000a2 __smakebuf_r
000013b4 g     F .text	0000001c interrupt_enable
000076ca g     F .text	00000012 strlen
00002f10 g     F .text	00000c7c OTG_FS_IRQHandler
000073dc g     F .text	000002ac _printf_i
00001b18  w      .text	00000000 SPI3_IRQHandler
00000cec g     F .text	0000002c camera_dvp_handler
000098fc g     F .text	000000ae .hidden __gedf2
200002d8 g     O .bss	00000004 __malloc_sbrk_start
000025ca g     F .text	00000046 RCC_APB2PeriphResetCmd
00001af2  w      .text	00000000 I2C1_ER_IRQHandler
000026c0 g     F .text	000000f8 SPI_Init
0000037e g     F .text	00000196 gpio_init
200002d4 g     O .bss	00000004 __malloc_free_list
00004a4e g     F .text	00000076 dwt_write32bitoffsetreg
00006354 g     F .text	0000073a .hidden __subdf3
0000941c g     F .text	000002a0 _vfprintf_r
00008cc8 g     F .text	0000006a __lo0bits
200002b8 g     O .bss	00000004 pEP1_RAM_Addr
00002082 g     F .text	0000003a GPIO_ReadInputDataBit
00004f96 g     F .text	0000003c dwt_syncrxbufptrs
00004da0 g     F .text	00000168 _dwt_enableclocks
200000c0 g     O .data	0000016c __global_locale
00001b06  w      .text	00000000 USBWakeUp_IRQHandler
00009a4e g     F .text	0000021e .hidden __trunctfdf2
00009c6c g     F .text	0000000c _close
00001b26  w      .text	00000000 DMA2_Channel3_IRQHandler
00008bea g     F .text	00000098 __multadd
00001428 g     F .text	00000028 interrupt_global_disable
00008ba6 g     F .text	00000044 _Bfree



Disassembly of section .init:

00000000 <_sinit>:
_start():
D:/projects/mechanical_arm/Firmware/UWB/libraries/sdk/Startup/startup_ch32v30x.S:13

	.section	.init,"ax",@progbits
	.global	_start
	.align	1
_start:
	j	handle_reset
   0:	3630106f          	j	1b62 <handle_reset>
   4:	00000013          	nop
   8:	00000013          	nop
   c:	00000013          	nop
  10:	00000013          	nop
  14:	00000013          	nop
  18:	00000013          	nop
  1c:	00000013          	nop
  20:	00000013          	nop
  24:	00000013          	nop
  28:	00000013          	nop
  2c:	00000013          	nop
  30:	00000013          	nop
  34:	00100073          	ebreak

Disassembly of section .vector:

00000038 <_vector_base>:
	...
_vector_base():
  40:	19fa                	slli	s3,s3,0x3e
  42:	0000                	unimp
  44:	1a0a                	slli	s4,s4,0x22
  46:	0000                	unimp
  48:	0000                	unimp
  4a:	0000                	unimp
  4c:	1aa8                	addi	a0,sp,376
	...
  56:	0000                	unimp
  58:	1aaa                	slli	s5,s5,0x2a
  5a:	0000                	unimp
  5c:	1aac                	addi	a1,sp,376
	...
  66:	0000                	unimp
  68:	1aae                	slli	s5,s5,0x2b
  6a:	0000                	unimp
  6c:	0000                	unimp
  6e:	0000                	unimp
  70:	1ab0                	addi	a2,sp,376
  72:	0000                	unimp
  74:	0000                	unimp
  76:	0000                	unimp
  78:	1ab2                	slli	s5,s5,0x2c
  7a:	0000                	unimp
  7c:	1ab4                	addi	a3,sp,376
  7e:	0000                	unimp
  80:	1ab6                	slli	s5,s5,0x2d
  82:	0000                	unimp
  84:	1ab8                	addi	a4,sp,376
  86:	0000                	unimp
  88:	1aba                	slli	s5,s5,0x2e
  8a:	0000                	unimp
  8c:	1abc                	addi	a5,sp,376
  8e:	0000                	unimp
  90:	1668                	addi	a0,sp,812
  92:	0000                	unimp
  94:	168c                	addi	a1,sp,864
  96:	0000                	unimp
  98:	16b0                	addi	a2,sp,872
  9a:	0000                	unimp
  9c:	16f2                	slli	a3,a3,0x3c
  9e:	0000                	unimp
  a0:	1716                	slli	a4,a4,0x25
  a2:	0000                	unimp
  a4:	1ac8                	addi	a0,sp,372
  a6:	0000                	unimp
  a8:	1aca                	slli	s5,s5,0x32
  aa:	0000                	unimp
  ac:	1acc                	addi	a1,sp,372
  ae:	0000                	unimp
  b0:	1ace                	slli	s5,s5,0x33
  b2:	0000                	unimp
  b4:	1ad0                	addi	a2,sp,372
  b6:	0000                	unimp
  b8:	1ad2                	slli	s5,s5,0x34
  ba:	0000                	unimp
  bc:	1ad4                	addi	a3,sp,372
  be:	0000                	unimp
  c0:	1ad6                	slli	s5,s5,0x35
  c2:	0000                	unimp
  c4:	1ad8                	addi	a4,sp,372
  c6:	0000                	unimp
  c8:	1ada                	slli	s5,s5,0x36
  ca:	0000                	unimp
  cc:	1adc                	addi	a5,sp,372
  ce:	0000                	unimp
  d0:	1ade                	slli	s5,s5,0x37
  d2:	0000                	unimp
  d4:	1738                	addi	a4,sp,936
  d6:	0000                	unimp
  d8:	1ae2                	slli	s5,s5,0x38
  da:	0000                	unimp
  dc:	182a                	slli	a6,a6,0x2a
  de:	0000                	unimp
  e0:	1ae6                	slli	s5,s5,0x39
  e2:	0000                	unimp
  e4:	1ae8                	addi	a0,sp,380
  e6:	0000                	unimp
  e8:	185a                	slli	a6,a6,0x36
  ea:	0000                	unimp
  ec:	188a                	slli	a7,a7,0x22
  ee:	0000                	unimp
  f0:	18ba                	slli	a7,a7,0x2e
  f2:	0000                	unimp
  f4:	1af0                	addi	a2,sp,380
  f6:	0000                	unimp
  f8:	1af2                	slli	s5,s5,0x3c
  fa:	0000                	unimp
  fc:	1af4                	addi	a3,sp,380
  fe:	0000                	unimp
 100:	1af6                	slli	s5,s5,0x3d
 102:	0000                	unimp
 104:	1af8                	addi	a4,sp,380
 106:	0000                	unimp
 108:	1afa                	slli	s5,s5,0x3e
 10a:	0000                	unimp
 10c:	1450                	addi	a2,sp,548
 10e:	0000                	unimp
 110:	1484                	addi	s1,sp,608
 112:	0000                	unimp
 114:	14e6                	slli	s1,s1,0x39
 116:	0000                	unimp
 118:	17ae                	slli	a5,a5,0x2b
 11a:	0000                	unimp
 11c:	1b04                	addi	s1,sp,432
 11e:	0000                	unimp
 120:	1b06                	slli	s6,s6,0x21
 122:	0000                	unimp
 124:	1b08                	addi	a0,sp,432
 126:	0000                	unimp
 128:	1972                	slli	s2,s2,0x3c
 12a:	0000                	unimp
 12c:	1b0c                	addi	a1,sp,432
 12e:	0000                	unimp
 130:	1b0e                	slli	s6,s6,0x23
 132:	0000                	unimp
 134:	1b10                	addi	a2,sp,432
 136:	0000                	unimp
 138:	1b12                	slli	s6,s6,0x24
 13a:	0000                	unimp
 13c:	1b14                	addi	a3,sp,432
 13e:	0000                	unimp
 140:	18ea                	slli	a7,a7,0x3a
 142:	0000                	unimp
 144:	1b18                	addi	a4,sp,432
 146:	0000                	unimp
 148:	151a                	slli	a0,a0,0x26
 14a:	0000                	unimp
 14c:	154e                	slli	a0,a0,0x33
 14e:	0000                	unimp
 150:	191a                	slli	s2,s2,0x26
 152:	0000                	unimp
 154:	1942                	slli	s2,s2,0x30
 156:	0000                	unimp
 158:	1b22                	slli	s6,s6,0x28
 15a:	0000                	unimp
 15c:	1b24                	addi	s1,sp,440
 15e:	0000                	unimp
 160:	1b26                	slli	s6,s6,0x29
 162:	0000                	unimp
 164:	1b28                	addi	a0,sp,440
 166:	0000                	unimp
 168:	1b2a                	slli	s6,s6,0x2a
 16a:	0000                	unimp
 16c:	1b2c                	addi	a1,sp,440
 16e:	0000                	unimp
 170:	1b2e                	slli	s6,s6,0x2b
 172:	0000                	unimp
 174:	1b30                	addi	a2,sp,440
 176:	0000                	unimp
 178:	1b32                	slli	s6,s6,0x2c
 17a:	0000                	unimp
 17c:	1b34                	addi	a3,sp,440
 17e:	0000                	unimp
 180:	1b36                	slli	s6,s6,0x2d
 182:	0000                	unimp
 184:	2f10                	fld	fa2,24(a4)
 186:	0000                	unimp
 188:	1b3a                	slli	s6,s6,0x2e
 18a:	0000                	unimp
 18c:	1b3c                	addi	a5,sp,440
 18e:	0000                	unimp
 190:	162a                	slli	a2,a2,0x2a
 192:	0000                	unimp
 194:	157e                	slli	a0,a0,0x3f
 196:	0000                	unimp
 198:	15b2                	slli	a1,a1,0x2c
 19a:	0000                	unimp
 19c:	15fe                	slli	a1,a1,0x3f
 19e:	0000                	unimp
 1a0:	1b46                	slli	s6,s6,0x31
 1a2:	0000                	unimp
 1a4:	19a2                	slli	s3,s3,0x28
 1a6:	0000                	unimp
 1a8:	1b4a                	slli	s6,s6,0x32
 1aa:	0000                	unimp
 1ac:	1b4c                	addi	a1,sp,436
 1ae:	0000                	unimp
 1b0:	1b4e                	slli	s6,s6,0x33
 1b2:	0000                	unimp
 1b4:	19d2                	slli	s3,s3,0x34
 1b6:	0000                	unimp
 1b8:	1b52                	slli	s6,s6,0x34
 1ba:	0000                	unimp
 1bc:	1b54                	addi	a3,sp,436
 1be:	0000                	unimp
 1c0:	1b56                	slli	s6,s6,0x35
 1c2:	0000                	unimp
 1c4:	1b58                	addi	a4,sp,436
 1c6:	0000                	unimp
 1c8:	1b5a                	slli	s6,s6,0x36
 1ca:	0000                	unimp
 1cc:	1b5c                	addi	a5,sp,436
 1ce:	0000                	unimp
 1d0:	1b5e                	slli	s6,s6,0x37
 1d2:	0000                	unimp
 1d4:	1b60                	addi	s0,sp,444
	...

Disassembly of section .text:

00000200 <dis_interrupt>:
dis_interrupt():
D:/projects/mechanical_arm/Firmware/UWB/libraries/zf_driver/zf_driver_irq.S:39
#a0 = 0x7888
#mstatus中的第11 12位MPP
#00 用户模式  (U)
#01 监管者模式(S)
#11 机器模式  (M) 只有该模式允许使用SCR指令
    csrrci a0, mstatus, 0x8
     200:	30047573          	csrrci	a0,mstatus,8
D:/projects/mechanical_arm/Firmware/UWB/libraries/zf_driver/zf_driver_irq.S:40
    ret
     204:	8082                	ret

00000206 <en_interrupt>:
en_interrupt():
D:/projects/mechanical_arm/Firmware/UWB/libraries/zf_driver/zf_driver_irq.S:57

#	li t0, 0x1f
#	csrw 0x804, t0

#mstatus寄存器中的MIE位置1，切换为用户模式
   	li t0, 0x6088
     206:	000062b7          	lui	t0,0x6
     20a:	08828293          	addi	t0,t0,136 # 6088 <__muldf3+0x1ec>
D:/projects/mechanical_arm/Firmware/UWB/libraries/zf_driver/zf_driver_irq.S:58
   	csrs mstatus, t0
     20e:	3002a073          	csrs	mstatus,t0
D:/projects/mechanical_arm/Firmware/UWB/libraries/zf_driver/zf_driver_irq.S:59
    ret
     212:	8082                	ret

00000214 <memset>:
memset():
     214:	433d                	li	t1,15
     216:	872a                	mv	a4,a0
     218:	02c37363          	bgeu	t1,a2,23e <memset+0x2a>
     21c:	00f77793          	andi	a5,a4,15
     220:	efbd                	bnez	a5,29e <memset+0x8a>
     222:	e5ad                	bnez	a1,28c <memset+0x78>
     224:	ff067693          	andi	a3,a2,-16
     228:	8a3d                	andi	a2,a2,15
     22a:	96ba                	add	a3,a3,a4
     22c:	c30c                	sw	a1,0(a4)
     22e:	c34c                	sw	a1,4(a4)
     230:	c70c                	sw	a1,8(a4)
     232:	c74c                	sw	a1,12(a4)
     234:	0741                	addi	a4,a4,16
     236:	fed76be3          	bltu	a4,a3,22c <memset+0x18>
     23a:	e211                	bnez	a2,23e <memset+0x2a>
     23c:	8082                	ret
     23e:	40c306b3          	sub	a3,t1,a2
     242:	068a                	slli	a3,a3,0x2
     244:	00000297          	auipc	t0,0x0
     248:	9696                	add	a3,a3,t0
     24a:	00a68067          	jr	10(a3)
     24e:	00b70723          	sb	a1,14(a4)
     252:	00b706a3          	sb	a1,13(a4)
     256:	00b70623          	sb	a1,12(a4)
     25a:	00b705a3          	sb	a1,11(a4)
     25e:	00b70523          	sb	a1,10(a4)
     262:	00b704a3          	sb	a1,9(a4)
     266:	00b70423          	sb	a1,8(a4)
     26a:	00b703a3          	sb	a1,7(a4)
     26e:	00b70323          	sb	a1,6(a4)
     272:	00b702a3          	sb	a1,5(a4)
     276:	00b70223          	sb	a1,4(a4)
     27a:	00b701a3          	sb	a1,3(a4)
     27e:	00b70123          	sb	a1,2(a4)
     282:	00b700a3          	sb	a1,1(a4)
     286:	00b70023          	sb	a1,0(a4)
     28a:	8082                	ret
     28c:	0ff5f593          	andi	a1,a1,255
     290:	00859693          	slli	a3,a1,0x8
     294:	8dd5                	or	a1,a1,a3
     296:	01059693          	slli	a3,a1,0x10
     29a:	8dd5                	or	a1,a1,a3
     29c:	b761                	j	224 <memset+0x10>
     29e:	00279693          	slli	a3,a5,0x2
     2a2:	00000297          	auipc	t0,0x0
     2a6:	9696                	add	a3,a3,t0
     2a8:	8286                	mv	t0,ra
     2aa:	fa8680e7          	jalr	-88(a3)
     2ae:	8096                	mv	ra,t0
     2b0:	17c1                	addi	a5,a5,-16
     2b2:	8f1d                	sub	a4,a4,a5
     2b4:	963e                	add	a2,a2,a5
     2b6:	f8c374e3          	bgeu	t1,a2,23e <memset+0x2a>
     2ba:	b7a5                	j	222 <memset+0xe>

000002bc <system_delay>:
system_delay():
D:/projects/mechanical_arm/Firmware/UWB/libraries/zf_driver/zf_driver_delay.c:28
//  @param      time                us
//  @return     void
//  Sample usage:                   内部使用，用户无需关心
//-------------------------------------------------------------------------------------------------------------------
void system_delay(uint64_t time)
{
     2bc:	1101                	addi	sp,sp,-32
     2be:	ce22                	sw	s0,28(sp)
     2c0:	1000                	addi	s0,sp,32
     2c2:	fea42423          	sw	a0,-24(s0)
     2c6:	feb42623          	sw	a1,-20(s0)
D:/projects/mechanical_arm/Firmware/UWB/libraries/zf_driver/zf_driver_delay.c:29
    SysTick->CTLR = 0;
     2ca:	e000f7b7          	lui	a5,0xe000f
     2ce:	0007a023          	sw	zero,0(a5) # e000f000 <_eusrstack+0xbffff000>
D:/projects/mechanical_arm/Firmware/UWB/libraries/zf_driver/zf_driver_delay.c:30
    SysTick->CNT  = 0;
     2d2:	e000f7b7          	lui	a5,0xe000f
     2d6:	4681                	li	a3,0
     2d8:	4701                	li	a4,0
     2da:	c794                	sw	a3,8(a5)
     2dc:	c7d8                	sw	a4,12(a5)
D:/projects/mechanical_arm/Firmware/UWB/libraries/zf_driver/zf_driver_delay.c:31
    SysTick->CTLR = 1;          //启动系统计数器 systick（HCLK/8 时基） us
     2de:	e000f7b7          	lui	a5,0xe000f
     2e2:	4705                	li	a4,1
     2e4:	c398                	sw	a4,0(a5)
D:/projects/mechanical_arm/Firmware/UWB/libraries/zf_driver/zf_driver_delay.c:34

    //while((*(volatile uint32*)0xE000F004) <= time);
    while(SysTick->CNT <= time);
     2e6:	0001                	nop
D:/projects/mechanical_arm/Firmware/UWB/libraries/zf_driver/zf_driver_delay.c:34 (discriminator 1)
     2e8:	e000f7b7          	lui	a5,0xe000f
     2ec:	00c7a803          	lw	a6,12(a5) # e000f00c <_eusrstack+0xbffff00c>
     2f0:	479c                	lw	a5,8(a5)
     2f2:	fec42703          	lw	a4,-20(s0)
     2f6:	86c2                	mv	a3,a6
     2f8:	00d76c63          	bltu	a4,a3,310 <system_delay+0x54>
     2fc:	fec42703          	lw	a4,-20(s0)
     300:	86c2                	mv	a3,a6
     302:	fed713e3          	bne	a4,a3,2e8 <system_delay+0x2c>
     306:	fe842703          	lw	a4,-24(s0)
     30a:	00f76363          	bltu	a4,a5,310 <system_delay+0x54>
     30e:	bfe9                	j	2e8 <system_delay+0x2c>
D:/projects/mechanical_arm/Firmware/UWB/libraries/zf_driver/zf_driver_delay.c:36

}
     310:	0001                	nop
     312:	4472                	lw	s0,28(sp)
     314:	6105                	addi	sp,sp,32
     316:	8082                	ret

00000318 <gpio_toggle_level>:
gpio_toggle_level():
D:/projects/mechanical_arm/Firmware/UWB/libraries/zf_driver/zf_driver_gpio.c:63
//  @param      pin         选择的引脚 (可选择范围由 common.h 内GPIO_PIN_enum枚举值确定)
//  @return     void        
//  Sample usage:           gpio_toggle_level(D5);//D5引脚电平翻转
//-------------------------------------------------------------------------------------------------------------------
void gpio_toggle_level(gpio_pin_enum pin)
{
     318:	7179                	addi	sp,sp,-48
     31a:	d622                	sw	s0,44(sp)
     31c:	1800                	addi	s0,sp,48
     31e:	fca42e23          	sw	a0,-36(s0)
D:/projects/mechanical_arm/Firmware/UWB/libraries/zf_driver/zf_driver_gpio.c:64
    uint8 io_group = (pin & 0xF0) >> 5;
     322:	fdc42783          	lw	a5,-36(s0)
     326:	8395                	srli	a5,a5,0x5
     328:	0ff7f793          	andi	a5,a5,255
     32c:	8b9d                	andi	a5,a5,7
     32e:	fef407a3          	sb	a5,-17(s0)
D:/projects/mechanical_arm/Firmware/UWB/libraries/zf_driver/zf_driver_gpio.c:65
    uint8 io_pin = pin & 0x0F;
     332:	fdc42783          	lw	a5,-36(s0)
     336:	0ff7f793          	andi	a5,a5,255
     33a:	8bbd                	andi	a5,a5,15
     33c:	fef40723          	sb	a5,-18(s0)
D:/projects/mechanical_arm/Firmware/UWB/libraries/zf_driver/zf_driver_gpio.c:67

    ((GPIO_TypeDef*)(gpio_group[io_group]))->OUTDR ^= (uint16)(1 << io_pin);
     340:	fef44703          	lbu	a4,-17(s0)
     344:	67a9                	lui	a5,0xa
     346:	070a                	slli	a4,a4,0x2
     348:	d1478793          	addi	a5,a5,-748 # 9d14 <gpio_group>
     34c:	97ba                	add	a5,a5,a4
     34e:	439c                	lw	a5,0(a5)
     350:	47dc                	lw	a5,12(a5)
     352:	fee44703          	lbu	a4,-18(s0)
     356:	4685                	li	a3,1
     358:	00e69733          	sll	a4,a3,a4
     35c:	0742                	slli	a4,a4,0x10
     35e:	8341                	srli	a4,a4,0x10
     360:	863a                	mv	a2,a4
     362:	fef44683          	lbu	a3,-17(s0)
     366:	6729                	lui	a4,0xa
     368:	068a                	slli	a3,a3,0x2
     36a:	d1470713          	addi	a4,a4,-748 # 9d14 <gpio_group>
     36e:	9736                	add	a4,a4,a3
     370:	4318                	lw	a4,0(a4)
     372:	8fb1                	xor	a5,a5,a2
     374:	c75c                	sw	a5,12(a4)
D:/projects/mechanical_arm/Firmware/UWB/libraries/zf_driver/zf_driver_gpio.c:68
}
     376:	0001                	nop
     378:	5432                	lw	s0,44(sp)
     37a:	6145                	addi	sp,sp,48
     37c:	8082                	ret

0000037e <gpio_init>:
gpio_init():
D:/projects/mechanical_arm/Firmware/UWB/libraries/zf_driver/zf_driver_gpio.c:80
//  @param      pinconf     引脚配置（可设置参数由zf_gpio.h文件内GPIOSPEED_enum与GPIOMODE_enum枚举值确定，多个条件使用 | 相或）
//  @return     void
//  Sample usage:           gpio_init(D0, GPO, 1, GPIO_PIN_CONFIG);//D0初始化为GPIO功能、输出模式、输出高电平、速度100MHZ 推挽输出
//-------------------------------------------------------------------------------------------------------------------
void gpio_init(gpio_pin_enum gpio_pin, gpio_dir_enum gpio_dir, gpio_level_enum dat, uint32 pinconf)
{
     37e:	7179                	addi	sp,sp,-48
     380:	d606                	sw	ra,44(sp)
     382:	d422                	sw	s0,40(sp)
     384:	1800                	addi	s0,sp,48
     386:	fca42e23          	sw	a0,-36(s0)
     38a:	fcb42c23          	sw	a1,-40(s0)
     38e:	fcc42a23          	sw	a2,-44(s0)
     392:	fcd42823          	sw	a3,-48(s0)
D:/projects/mechanical_arm/Firmware/UWB/libraries/zf_driver/zf_driver_gpio.c:82
    GPIO_InitTypeDef GPIO_InitStructure;
    uint8 io_group = (gpio_pin & 0xF0) >> 5;
     396:	fdc42783          	lw	a5,-36(s0)
     39a:	8395                	srli	a5,a5,0x5
     39c:	0ff7f793          	andi	a5,a5,255
     3a0:	8b9d                	andi	a5,a5,7
     3a2:	fef407a3          	sb	a5,-17(s0)
D:/projects/mechanical_arm/Firmware/UWB/libraries/zf_driver/zf_driver_gpio.c:83
    uint8 io_pin = gpio_pin & 0x0F;
     3a6:	fdc42783          	lw	a5,-36(s0)
     3aa:	0ff7f793          	andi	a5,a5,255
     3ae:	8bbd                	andi	a5,a5,15
     3b0:	fef40723          	sb	a5,-18(s0)
D:/projects/mechanical_arm/Firmware/UWB/libraries/zf_driver/zf_driver_gpio.c:87

    //GPIO_DeInit((GPIO_TypeDef *)(GPION[io_group]));
    //  空引脚则返回
    if(PIN_NULL == gpio_pin) return;
     3b4:	fdc42703          	lw	a4,-36(s0)
     3b8:	0ff00793          	li	a5,255
     3bc:	14f70563          	beq	a4,a5,506 <gpio_init+0x188>
D:/projects/mechanical_arm/Firmware/UWB/libraries/zf_driver/zf_driver_gpio.c:88
    if(SPI_CS_NULL == gpio_pin) return;
     3c0:	fdc42703          	lw	a4,-36(s0)
     3c4:	0ff00793          	li	a5,255
     3c8:	14f70163          	beq	a4,a5,50a <gpio_init+0x18c>
D:/projects/mechanical_arm/Firmware/UWB/libraries/zf_driver/zf_driver_gpio.c:91

    //  GPIO总线使能
    if(0 == io_group)      RCC_APB2PeriphClockCmd(RCC_APB2Periph_GPIOA, ENABLE);
     3cc:	fef44783          	lbu	a5,-17(s0)
     3d0:	e791                	bnez	a5,3dc <gpio_init+0x5e>
D:/projects/mechanical_arm/Firmware/UWB/libraries/zf_driver/zf_driver_gpio.c:91 (discriminator 1)
     3d2:	4585                	li	a1,1
     3d4:	4511                	li	a0,4
     3d6:	168020ef          	jal	ra,253e <RCC_APB2PeriphClockCmd>
     3da:	a041                	j	45a <gpio_init+0xdc>
D:/projects/mechanical_arm/Firmware/UWB/libraries/zf_driver/zf_driver_gpio.c:92
    else if(1 == io_group) RCC_APB2PeriphClockCmd(RCC_APB2Periph_GPIOB, ENABLE);
     3dc:	fef44703          	lbu	a4,-17(s0)
     3e0:	4785                	li	a5,1
     3e2:	00f71763          	bne	a4,a5,3f0 <gpio_init+0x72>
D:/projects/mechanical_arm/Firmware/UWB/libraries/zf_driver/zf_driver_gpio.c:92 (discriminator 1)
     3e6:	4585                	li	a1,1
     3e8:	4521                	li	a0,8
     3ea:	154020ef          	jal	ra,253e <RCC_APB2PeriphClockCmd>
     3ee:	a0b5                	j	45a <gpio_init+0xdc>
D:/projects/mechanical_arm/Firmware/UWB/libraries/zf_driver/zf_driver_gpio.c:93
    else if(2 == io_group) RCC_APB2PeriphClockCmd(RCC_APB2Periph_GPIOC, ENABLE);
     3f0:	fef44703          	lbu	a4,-17(s0)
     3f4:	4789                	li	a5,2
     3f6:	00f71763          	bne	a4,a5,404 <gpio_init+0x86>
D:/projects/mechanical_arm/Firmware/UWB/libraries/zf_driver/zf_driver_gpio.c:93 (discriminator 1)
     3fa:	4585                	li	a1,1
     3fc:	4541                	li	a0,16
     3fe:	140020ef          	jal	ra,253e <RCC_APB2PeriphClockCmd>
     402:	a8a1                	j	45a <gpio_init+0xdc>
D:/projects/mechanical_arm/Firmware/UWB/libraries/zf_driver/zf_driver_gpio.c:94
    else if(3 == io_group) RCC_APB2PeriphClockCmd(RCC_APB2Periph_GPIOD, ENABLE);
     404:	fef44703          	lbu	a4,-17(s0)
     408:	478d                	li	a5,3
     40a:	00f71863          	bne	a4,a5,41a <gpio_init+0x9c>
D:/projects/mechanical_arm/Firmware/UWB/libraries/zf_driver/zf_driver_gpio.c:94 (discriminator 1)
     40e:	4585                	li	a1,1
     410:	02000513          	li	a0,32
     414:	12a020ef          	jal	ra,253e <RCC_APB2PeriphClockCmd>
     418:	a089                	j	45a <gpio_init+0xdc>
D:/projects/mechanical_arm/Firmware/UWB/libraries/zf_driver/zf_driver_gpio.c:95
    else if(4 == io_group) RCC_APB2PeriphClockCmd(RCC_APB2Periph_GPIOE, ENABLE);
     41a:	fef44703          	lbu	a4,-17(s0)
     41e:	4791                	li	a5,4
     420:	00f71863          	bne	a4,a5,430 <gpio_init+0xb2>
D:/projects/mechanical_arm/Firmware/UWB/libraries/zf_driver/zf_driver_gpio.c:95 (discriminator 1)
     424:	4585                	li	a1,1
     426:	04000513          	li	a0,64
     42a:	114020ef          	jal	ra,253e <RCC_APB2PeriphClockCmd>
     42e:	a035                	j	45a <gpio_init+0xdc>
D:/projects/mechanical_arm/Firmware/UWB/libraries/zf_driver/zf_driver_gpio.c:96
    else if(5 == io_group) RCC_APB2PeriphClockCmd(RCC_APB2Periph_GPIOF, ENABLE);
     430:	fef44703          	lbu	a4,-17(s0)
     434:	4795                	li	a5,5
     436:	00f71863          	bne	a4,a5,446 <gpio_init+0xc8>
D:/projects/mechanical_arm/Firmware/UWB/libraries/zf_driver/zf_driver_gpio.c:96 (discriminator 1)
     43a:	4585                	li	a1,1
     43c:	08000513          	li	a0,128
     440:	0fe020ef          	jal	ra,253e <RCC_APB2PeriphClockCmd>
     444:	a819                	j	45a <gpio_init+0xdc>
D:/projects/mechanical_arm/Firmware/UWB/libraries/zf_driver/zf_driver_gpio.c:97
    else if(6 == io_group) RCC_APB2PeriphClockCmd(RCC_APB2Periph_GPIOG, ENABLE);
     446:	fef44703          	lbu	a4,-17(s0)
     44a:	4799                	li	a5,6
     44c:	00f71763          	bne	a4,a5,45a <gpio_init+0xdc>
D:/projects/mechanical_arm/Firmware/UWB/libraries/zf_driver/zf_driver_gpio.c:97 (discriminator 1)
     450:	4585                	li	a1,1
     452:	10000513          	li	a0,256
     456:	0e8020ef          	jal	ra,253e <RCC_APB2PeriphClockCmd>
D:/projects/mechanical_arm/Firmware/UWB/libraries/zf_driver/zf_driver_gpio.c:100

    //  设置引脚号
    GPIO_InitStructure.GPIO_Pin = (uint16)(1 << io_pin);
     45a:	fee44783          	lbu	a5,-18(s0)
     45e:	4705                	li	a4,1
     460:	00f717b3          	sll	a5,a4,a5
     464:	07c2                	slli	a5,a5,0x10
     466:	83c1                	srli	a5,a5,0x10
     468:	fef41023          	sh	a5,-32(s0)
D:/projects/mechanical_arm/Firmware/UWB/libraries/zf_driver/zf_driver_gpio.c:103

    //  只有输出需要设置速度
    if(GPO == gpio_dir)
     46c:	fd842703          	lw	a4,-40(s0)
     470:	4785                	li	a5,1
     472:	02f71763          	bne	a4,a5,4a0 <gpio_init+0x122>
D:/projects/mechanical_arm/Firmware/UWB/libraries/zf_driver/zf_driver_gpio.c:105
    {
        if((uint16)pinconf >> 8 == 0) GPIO_InitStructure.GPIO_Speed = (GPIOSpeed_TypeDef)(GPIO_Speed_50MHz);            //防止没有填写这个参数,默认设置50Mhz
     476:	fd042783          	lw	a5,-48(s0)
     47a:	07c2                	slli	a5,a5,0x10
     47c:	83c1                	srli	a5,a5,0x10
     47e:	83a1                	srli	a5,a5,0x8
     480:	07c2                	slli	a5,a5,0x10
     482:	83c1                	srli	a5,a5,0x10
     484:	e789                	bnez	a5,48e <gpio_init+0x110>
D:/projects/mechanical_arm/Firmware/UWB/libraries/zf_driver/zf_driver_gpio.c:105 (discriminator 1)
     486:	478d                	li	a5,3
     488:	fef42223          	sw	a5,-28(s0)
     48c:	a811                	j	4a0 <gpio_init+0x122>
D:/projects/mechanical_arm/Firmware/UWB/libraries/zf_driver/zf_driver_gpio.c:106
        else GPIO_InitStructure.GPIO_Speed = (gpio_speed_enum)((uint16)pinconf >> 8);         //已经填写了该参数。根据值来设置
     48e:	fd042783          	lw	a5,-48(s0)
     492:	07c2                	slli	a5,a5,0x10
     494:	83c1                	srli	a5,a5,0x10
     496:	83a1                	srli	a5,a5,0x8
     498:	07c2                	slli	a5,a5,0x10
     49a:	83c1                	srli	a5,a5,0x10
     49c:	fef42223          	sw	a5,-28(s0)
D:/projects/mechanical_arm/Firmware/UWB/libraries/zf_driver/zf_driver_gpio.c:110
    }

    //  设置模式
    GPIO_InitStructure.GPIO_Mode = (GPIOMode_TypeDef)((uint16)pinconf & 0xFF);
     4a0:	fd042783          	lw	a5,-48(s0)
     4a4:	07c2                	slli	a5,a5,0x10
     4a6:	83c1                	srli	a5,a5,0x10
     4a8:	0ff7f793          	andi	a5,a5,255
     4ac:	fef42423          	sw	a5,-24(s0)
D:/projects/mechanical_arm/Firmware/UWB/libraries/zf_driver/zf_driver_gpio.c:111
    GPIO_Init((GPIO_TypeDef*)gpio_group[io_group], &GPIO_InitStructure);
     4b0:	fef44703          	lbu	a4,-17(s0)
     4b4:	67a9                	lui	a5,0xa
     4b6:	070a                	slli	a4,a4,0x2
     4b8:	d1478793          	addi	a5,a5,-748 # 9d14 <gpio_group>
     4bc:	97ba                	add	a5,a5,a4
     4be:	439c                	lw	a5,0(a5)
     4c0:	873e                	mv	a4,a5
     4c2:	fe040793          	addi	a5,s0,-32
     4c6:	85be                	mv	a1,a5
     4c8:	853a                	mv	a0,a4
     4ca:	18f010ef          	jal	ra,1e58 <GPIO_Init>
D:/projects/mechanical_arm/Firmware/UWB/libraries/zf_driver/zf_driver_gpio.c:114

    //  只有输出需要设置引脚状态
    if(GPO == gpio_dir)
     4ce:	fd842703          	lw	a4,-40(s0)
     4d2:	4785                	li	a5,1
     4d4:	02f71c63          	bne	a4,a5,50c <gpio_init+0x18e>
D:/projects/mechanical_arm/Firmware/UWB/libraries/zf_driver/zf_driver_gpio.c:116
    {
        GPIO_WriteBit((GPIO_TypeDef*)gpio_group[io_group], (uint16)(1 << io_pin), dat);
     4d8:	fef44703          	lbu	a4,-17(s0)
     4dc:	67a9                	lui	a5,0xa
     4de:	070a                	slli	a4,a4,0x2
     4e0:	d1478793          	addi	a5,a5,-748 # 9d14 <gpio_group>
     4e4:	97ba                	add	a5,a5,a4
     4e6:	439c                	lw	a5,0(a5)
     4e8:	86be                	mv	a3,a5
     4ea:	fee44783          	lbu	a5,-18(s0)
     4ee:	4705                	li	a4,1
     4f0:	00f717b3          	sll	a5,a4,a5
     4f4:	07c2                	slli	a5,a5,0x10
     4f6:	83c1                	srli	a5,a5,0x10
     4f8:	fd442603          	lw	a2,-44(s0)
     4fc:	85be                	mv	a1,a5
     4fe:	8536                	mv	a0,a3
     500:	401010ef          	jal	ra,2100 <GPIO_WriteBit>
     504:	a021                	j	50c <gpio_init+0x18e>
D:/projects/mechanical_arm/Firmware/UWB/libraries/zf_driver/zf_driver_gpio.c:87
    if(PIN_NULL == gpio_pin) return;
     506:	0001                	nop
     508:	a011                	j	50c <gpio_init+0x18e>
D:/projects/mechanical_arm/Firmware/UWB/libraries/zf_driver/zf_driver_gpio.c:88
    if(SPI_CS_NULL == gpio_pin) return;
     50a:	0001                	nop
D:/projects/mechanical_arm/Firmware/UWB/libraries/zf_driver/zf_driver_gpio.c:118
    }
}
     50c:	50b2                	lw	ra,44(sp)
     50e:	5422                	lw	s0,40(sp)
     510:	6145                	addi	sp,sp,48
     512:	8082                	ret

00000514 <uart_gpio_init>:
uart_gpio_init():
D:/projects/mechanical_arm/Firmware/UWB/libraries/zf_driver/zf_driver_uart.c:40
//  @param      rx_pin      串口接收引脚号
//  @return     void
//  Sample usage:           内部使用，用户无需关心
//-------------------------------------------------------------------------------------------------------------------
void uart_gpio_init(uart_pin_enum tx_pin, uart_pin_enum rx_pin)
{
     514:	1101                	addi	sp,sp,-32
     516:	ce06                	sw	ra,28(sp)
     518:	cc22                	sw	s0,24(sp)
     51a:	1000                	addi	s0,sp,32
     51c:	fea42623          	sw	a0,-20(s0)
     520:	feb42423          	sw	a1,-24(s0)
D:/projects/mechanical_arm/Firmware/UWB/libraries/zf_driver/zf_driver_uart.c:41
    if     (tx_pin == UART1_TX_A9 )     gpio_init(A9,  GPO, 0, GPO_AF_PUSH_PULL);
     524:	fec42783          	lw	a5,-20(s0)
     528:	e799                	bnez	a5,536 <uart_gpio_init+0x22>
D:/projects/mechanical_arm/Firmware/UWB/libraries/zf_driver/zf_driver_uart.c:41 (discriminator 1)
     52a:	46e1                	li	a3,24
     52c:	4601                	li	a2,0
     52e:	4585                	li	a1,1
     530:	4525                	li	a0,9
     532:	35b1                	jal	37e <gpio_init>
     534:	aa45                	j	6e4 <uart_gpio_init+0x1d0>
D:/projects/mechanical_arm/Firmware/UWB/libraries/zf_driver/zf_driver_uart.c:42
    else if(tx_pin == UART1_TX_B6 )     gpio_init(B6,  GPO, 0, GPO_AF_PUSH_PULL);
     536:	fec42703          	lw	a4,-20(s0)
     53a:	4789                	li	a5,2
     53c:	00f71963          	bne	a4,a5,54e <uart_gpio_init+0x3a>
D:/projects/mechanical_arm/Firmware/UWB/libraries/zf_driver/zf_driver_uart.c:42 (discriminator 1)
     540:	46e1                	li	a3,24
     542:	4601                	li	a2,0
     544:	4585                	li	a1,1
     546:	02600513          	li	a0,38
     54a:	3d15                	jal	37e <gpio_init>
     54c:	aa61                	j	6e4 <uart_gpio_init+0x1d0>
D:/projects/mechanical_arm/Firmware/UWB/libraries/zf_driver/zf_driver_uart.c:43
    else if(tx_pin == UART2_TX_A2 )     gpio_init(A2,  GPO, 0, GPO_AF_PUSH_PULL);
     54e:	fec42703          	lw	a4,-20(s0)
     552:	47c1                	li	a5,16
     554:	00f71863          	bne	a4,a5,564 <uart_gpio_init+0x50>
D:/projects/mechanical_arm/Firmware/UWB/libraries/zf_driver/zf_driver_uart.c:43 (discriminator 1)
     558:	46e1                	li	a3,24
     55a:	4601                	li	a2,0
     55c:	4585                	li	a1,1
     55e:	4509                	li	a0,2
     560:	3d39                	jal	37e <gpio_init>
     562:	a249                	j	6e4 <uart_gpio_init+0x1d0>
D:/projects/mechanical_arm/Firmware/UWB/libraries/zf_driver/zf_driver_uart.c:44
    else if(tx_pin == UART2_TX_D5 )     gpio_init(D5,  GPO, 0, GPO_AF_PUSH_PULL);
     564:	fec42703          	lw	a4,-20(s0)
     568:	47c9                	li	a5,18
     56a:	00f71963          	bne	a4,a5,57c <uart_gpio_init+0x68>
D:/projects/mechanical_arm/Firmware/UWB/libraries/zf_driver/zf_driver_uart.c:44 (discriminator 1)
     56e:	46e1                	li	a3,24
     570:	4601                	li	a2,0
     572:	4585                	li	a1,1
     574:	06500513          	li	a0,101
     578:	3519                	jal	37e <gpio_init>
     57a:	a2ad                	j	6e4 <uart_gpio_init+0x1d0>
D:/projects/mechanical_arm/Firmware/UWB/libraries/zf_driver/zf_driver_uart.c:45
    else if(tx_pin == UART3_TX_B10)     gpio_init(B10, GPO, 0, GPO_AF_PUSH_PULL);
     57c:	fec42703          	lw	a4,-20(s0)
     580:	02000793          	li	a5,32
     584:	00f71963          	bne	a4,a5,596 <uart_gpio_init+0x82>
D:/projects/mechanical_arm/Firmware/UWB/libraries/zf_driver/zf_driver_uart.c:45 (discriminator 1)
     588:	46e1                	li	a3,24
     58a:	4601                	li	a2,0
     58c:	4585                	li	a1,1
     58e:	02a00513          	li	a0,42
     592:	33f5                	jal	37e <gpio_init>
     594:	aa81                	j	6e4 <uart_gpio_init+0x1d0>
D:/projects/mechanical_arm/Firmware/UWB/libraries/zf_driver/zf_driver_uart.c:46
    else if(tx_pin == UART3_TX_C10)     gpio_init(C10, GPO, 0, GPO_AF_PUSH_PULL);
     596:	fec42703          	lw	a4,-20(s0)
     59a:	02200793          	li	a5,34
     59e:	00f71963          	bne	a4,a5,5b0 <uart_gpio_init+0x9c>
D:/projects/mechanical_arm/Firmware/UWB/libraries/zf_driver/zf_driver_uart.c:46 (discriminator 1)
     5a2:	46e1                	li	a3,24
     5a4:	4601                	li	a2,0
     5a6:	4585                	li	a1,1
     5a8:	04a00513          	li	a0,74
     5ac:	3bc9                	jal	37e <gpio_init>
     5ae:	aa1d                	j	6e4 <uart_gpio_init+0x1d0>
D:/projects/mechanical_arm/Firmware/UWB/libraries/zf_driver/zf_driver_uart.c:47
    else if(tx_pin == UART3_TX_D8 )     gpio_init(D8,  GPO, 0, GPO_AF_PUSH_PULL);
     5b0:	fec42703          	lw	a4,-20(s0)
     5b4:	02400793          	li	a5,36
     5b8:	00f71963          	bne	a4,a5,5ca <uart_gpio_init+0xb6>
D:/projects/mechanical_arm/Firmware/UWB/libraries/zf_driver/zf_driver_uart.c:47 (discriminator 1)
     5bc:	46e1                	li	a3,24
     5be:	4601                	li	a2,0
     5c0:	4585                	li	a1,1
     5c2:	06800513          	li	a0,104
     5c6:	3b65                	jal	37e <gpio_init>
     5c8:	aa31                	j	6e4 <uart_gpio_init+0x1d0>
D:/projects/mechanical_arm/Firmware/UWB/libraries/zf_driver/zf_driver_uart.c:48
    else if(tx_pin == UART4_TX_C10)     gpio_init(C10, GPO, 0, GPO_AF_PUSH_PULL);
     5ca:	fec42703          	lw	a4,-20(s0)
     5ce:	04000793          	li	a5,64
     5d2:	00f71963          	bne	a4,a5,5e4 <uart_gpio_init+0xd0>
D:/projects/mechanical_arm/Firmware/UWB/libraries/zf_driver/zf_driver_uart.c:48 (discriminator 1)
     5d6:	46e1                	li	a3,24
     5d8:	4601                	li	a2,0
     5da:	4585                	li	a1,1
     5dc:	04a00513          	li	a0,74
     5e0:	3b79                	jal	37e <gpio_init>
     5e2:	a209                	j	6e4 <uart_gpio_init+0x1d0>
D:/projects/mechanical_arm/Firmware/UWB/libraries/zf_driver/zf_driver_uart.c:49
    else if(tx_pin == UART4_TX_B0)      gpio_init(B0, GPO, 0, GPO_AF_PUSH_PULL);
     5e4:	fec42703          	lw	a4,-20(s0)
     5e8:	04200793          	li	a5,66
     5ec:	00f71963          	bne	a4,a5,5fe <uart_gpio_init+0xea>
D:/projects/mechanical_arm/Firmware/UWB/libraries/zf_driver/zf_driver_uart.c:49 (discriminator 1)
     5f0:	46e1                	li	a3,24
     5f2:	4601                	li	a2,0
     5f4:	4585                	li	a1,1
     5f6:	02000513          	li	a0,32
     5fa:	3351                	jal	37e <gpio_init>
     5fc:	a0e5                	j	6e4 <uart_gpio_init+0x1d0>
D:/projects/mechanical_arm/Firmware/UWB/libraries/zf_driver/zf_driver_uart.c:50
    else if(tx_pin == UART5_TX_C12)     gpio_init(C12, GPO, 0, GPO_AF_PUSH_PULL);
     5fe:	fec42703          	lw	a4,-20(s0)
     602:	05000793          	li	a5,80
     606:	00f71963          	bne	a4,a5,618 <uart_gpio_init+0x104>
D:/projects/mechanical_arm/Firmware/UWB/libraries/zf_driver/zf_driver_uart.c:50 (discriminator 1)
     60a:	46e1                	li	a3,24
     60c:	4601                	li	a2,0
     60e:	4585                	li	a1,1
     610:	04c00513          	li	a0,76
     614:	33ad                	jal	37e <gpio_init>
     616:	a0f9                	j	6e4 <uart_gpio_init+0x1d0>
D:/projects/mechanical_arm/Firmware/UWB/libraries/zf_driver/zf_driver_uart.c:51
    else if(tx_pin == UART5_TX_E8)      gpio_init(E8, GPO, 0, GPO_AF_PUSH_PULL);
     618:	fec42703          	lw	a4,-20(s0)
     61c:	05200793          	li	a5,82
     620:	00f71963          	bne	a4,a5,632 <uart_gpio_init+0x11e>
D:/projects/mechanical_arm/Firmware/UWB/libraries/zf_driver/zf_driver_uart.c:51 (discriminator 1)
     624:	46e1                	li	a3,24
     626:	4601                	li	a2,0
     628:	4585                	li	a1,1
     62a:	08800513          	li	a0,136
     62e:	3b81                	jal	37e <gpio_init>
     630:	a855                	j	6e4 <uart_gpio_init+0x1d0>
D:/projects/mechanical_arm/Firmware/UWB/libraries/zf_driver/zf_driver_uart.c:52
    else if(tx_pin == UART6_TX_C0 )     gpio_init(C0,  GPO, 0, GPO_AF_PUSH_PULL);
     632:	fec42703          	lw	a4,-20(s0)
     636:	06000793          	li	a5,96
     63a:	00f71963          	bne	a4,a5,64c <uart_gpio_init+0x138>
D:/projects/mechanical_arm/Firmware/UWB/libraries/zf_driver/zf_driver_uart.c:52 (discriminator 1)
     63e:	46e1                	li	a3,24
     640:	4601                	li	a2,0
     642:	4585                	li	a1,1
     644:	04000513          	li	a0,64
     648:	3b1d                	jal	37e <gpio_init>
     64a:	a869                	j	6e4 <uart_gpio_init+0x1d0>
D:/projects/mechanical_arm/Firmware/UWB/libraries/zf_driver/zf_driver_uart.c:53
    else if(tx_pin == UART6_TX_E10 )    gpio_init(C0,  GPO, 0, GPO_AF_PUSH_PULL);
     64c:	fec42703          	lw	a4,-20(s0)
     650:	06200793          	li	a5,98
     654:	00f71963          	bne	a4,a5,666 <uart_gpio_init+0x152>
D:/projects/mechanical_arm/Firmware/UWB/libraries/zf_driver/zf_driver_uart.c:53 (discriminator 1)
     658:	46e1                	li	a3,24
     65a:	4601                	li	a2,0
     65c:	4585                	li	a1,1
     65e:	04000513          	li	a0,64
     662:	3b31                	jal	37e <gpio_init>
     664:	a041                	j	6e4 <uart_gpio_init+0x1d0>
D:/projects/mechanical_arm/Firmware/UWB/libraries/zf_driver/zf_driver_uart.c:54
    else if(tx_pin == UART7_TX_C2 )     gpio_init(C2,  GPO, 0, GPO_AF_PUSH_PULL);
     666:	fec42703          	lw	a4,-20(s0)
     66a:	07000793          	li	a5,112
     66e:	00f71963          	bne	a4,a5,680 <uart_gpio_init+0x16c>
D:/projects/mechanical_arm/Firmware/UWB/libraries/zf_driver/zf_driver_uart.c:54 (discriminator 1)
     672:	46e1                	li	a3,24
     674:	4601                	li	a2,0
     676:	4585                	li	a1,1
     678:	04200513          	li	a0,66
     67c:	3309                	jal	37e <gpio_init>
     67e:	a09d                	j	6e4 <uart_gpio_init+0x1d0>
D:/projects/mechanical_arm/Firmware/UWB/libraries/zf_driver/zf_driver_uart.c:55
    else if(tx_pin == UART7_TX_A6 )     gpio_init(A6,  GPO, 0, GPO_AF_PUSH_PULL);
     680:	fec42703          	lw	a4,-20(s0)
     684:	07200793          	li	a5,114
     688:	00f71863          	bne	a4,a5,698 <uart_gpio_init+0x184>
D:/projects/mechanical_arm/Firmware/UWB/libraries/zf_driver/zf_driver_uart.c:55 (discriminator 1)
     68c:	46e1                	li	a3,24
     68e:	4601                	li	a2,0
     690:	4585                	li	a1,1
     692:	4519                	li	a0,6
     694:	31ed                	jal	37e <gpio_init>
     696:	a0b9                	j	6e4 <uart_gpio_init+0x1d0>
D:/projects/mechanical_arm/Firmware/UWB/libraries/zf_driver/zf_driver_uart.c:56
    else if(tx_pin == UART7_TX_E12 )    gpio_init(E12,  GPO, 0, GPO_AF_PUSH_PULL);
     698:	fec42703          	lw	a4,-20(s0)
     69c:	07400793          	li	a5,116
     6a0:	00f71963          	bne	a4,a5,6b2 <uart_gpio_init+0x19e>
D:/projects/mechanical_arm/Firmware/UWB/libraries/zf_driver/zf_driver_uart.c:56 (discriminator 1)
     6a4:	46e1                	li	a3,24
     6a6:	4601                	li	a2,0
     6a8:	4585                	li	a1,1
     6aa:	08c00513          	li	a0,140
     6ae:	39c1                	jal	37e <gpio_init>
     6b0:	a815                	j	6e4 <uart_gpio_init+0x1d0>
D:/projects/mechanical_arm/Firmware/UWB/libraries/zf_driver/zf_driver_uart.c:57
    else if(tx_pin == UART8_TX_C4 )     gpio_init(C4,  GPO, 0, GPO_AF_PUSH_PULL);
     6b2:	fec42703          	lw	a4,-20(s0)
     6b6:	08000793          	li	a5,128
     6ba:	00f71963          	bne	a4,a5,6cc <uart_gpio_init+0x1b8>
D:/projects/mechanical_arm/Firmware/UWB/libraries/zf_driver/zf_driver_uart.c:57 (discriminator 1)
     6be:	46e1                	li	a3,24
     6c0:	4601                	li	a2,0
     6c2:	4585                	li	a1,1
     6c4:	04400513          	li	a0,68
     6c8:	395d                	jal	37e <gpio_init>
     6ca:	a829                	j	6e4 <uart_gpio_init+0x1d0>
D:/projects/mechanical_arm/Firmware/UWB/libraries/zf_driver/zf_driver_uart.c:58
    else if(tx_pin == UART8_TX_E14 )    gpio_init(E14,  GPO, 0, GPO_AF_PUSH_PULL);
     6cc:	fec42703          	lw	a4,-20(s0)
     6d0:	08200793          	li	a5,130
     6d4:	00f71863          	bne	a4,a5,6e4 <uart_gpio_init+0x1d0>
D:/projects/mechanical_arm/Firmware/UWB/libraries/zf_driver/zf_driver_uart.c:58 (discriminator 1)
     6d8:	46e1                	li	a3,24
     6da:	4601                	li	a2,0
     6dc:	4585                	li	a1,1
     6de:	08e00513          	li	a0,142
     6e2:	3971                	jal	37e <gpio_init>
D:/projects/mechanical_arm/Firmware/UWB/libraries/zf_driver/zf_driver_uart.c:60

    if     (rx_pin == UART1_RX_A10)     gpio_init(A10, GPI, 0, GPI_PULL_UP);
     6e4:	fe842703          	lw	a4,-24(s0)
     6e8:	4785                	li	a5,1
     6ea:	00f71963          	bne	a4,a5,6fc <uart_gpio_init+0x1e8>
D:/projects/mechanical_arm/Firmware/UWB/libraries/zf_driver/zf_driver_uart.c:60 (discriminator 1)
     6ee:	04800693          	li	a3,72
     6f2:	4601                	li	a2,0
     6f4:	4581                	li	a1,0
     6f6:	4529                	li	a0,10
     6f8:	3159                	jal	37e <gpio_init>
D:/projects/mechanical_arm/Firmware/UWB/libraries/zf_driver/zf_driver_uart.c:78 (discriminator 1)
    else if(rx_pin == UART7_RX_C3 )     gpio_init(C3,  GPI, 0, GPI_PULL_UP);
    else if(rx_pin == UART7_RX_A7 )     gpio_init(A7,  GPI, 0, GPI_PULL_UP);
    else if(rx_pin == UART7_RX_E13 )    gpio_init(E13,  GPI, 0, GPI_PULL_UP);
    else if(rx_pin == UART8_RX_C5 )     gpio_init(C5,  GPI, 0, GPI_PULL_UP);
    else if(rx_pin == UART8_RX_E15 )    gpio_init(E15,  GPI, 0, GPI_PULL_UP);
}
     6fa:	aac9                	j	8cc <__stack_size+0xcc>
D:/projects/mechanical_arm/Firmware/UWB/libraries/zf_driver/zf_driver_uart.c:61
    else if(rx_pin == UART1_RX_B7 )     gpio_init(B7,  GPI, 0, GPI_PULL_UP);
     6fc:	fe842703          	lw	a4,-24(s0)
     700:	478d                	li	a5,3
     702:	00f71a63          	bne	a4,a5,716 <uart_gpio_init+0x202>
D:/projects/mechanical_arm/Firmware/UWB/libraries/zf_driver/zf_driver_uart.c:61 (discriminator 1)
     706:	04800693          	li	a3,72
     70a:	4601                	li	a2,0
     70c:	4581                	li	a1,0
     70e:	02700513          	li	a0,39
     712:	31b5                	jal	37e <gpio_init>
D:/projects/mechanical_arm/Firmware/UWB/libraries/zf_driver/zf_driver_uart.c:78 (discriminator 1)
}
     714:	aa65                	j	8cc <__stack_size+0xcc>
D:/projects/mechanical_arm/Firmware/UWB/libraries/zf_driver/zf_driver_uart.c:62
    else if(rx_pin == UART2_RX_A3 )     gpio_init(A3,  GPI, 0, GPI_PULL_UP);
     716:	fe842703          	lw	a4,-24(s0)
     71a:	47c5                	li	a5,17
     71c:	00f71963          	bne	a4,a5,72e <uart_gpio_init+0x21a>
D:/projects/mechanical_arm/Firmware/UWB/libraries/zf_driver/zf_driver_uart.c:62 (discriminator 1)
     720:	04800693          	li	a3,72
     724:	4601                	li	a2,0
     726:	4581                	li	a1,0
     728:	450d                	li	a0,3
     72a:	3991                	jal	37e <gpio_init>
D:/projects/mechanical_arm/Firmware/UWB/libraries/zf_driver/zf_driver_uart.c:78 (discriminator 1)
}
     72c:	a245                	j	8cc <__stack_size+0xcc>
D:/projects/mechanical_arm/Firmware/UWB/libraries/zf_driver/zf_driver_uart.c:63
    else if(rx_pin == UART2_RX_D6 )     gpio_init(D6,  GPI, 0, GPI_PULL_UP);
     72e:	fe842703          	lw	a4,-24(s0)
     732:	47cd                	li	a5,19
     734:	00f71a63          	bne	a4,a5,748 <uart_gpio_init+0x234>
D:/projects/mechanical_arm/Firmware/UWB/libraries/zf_driver/zf_driver_uart.c:63 (discriminator 1)
     738:	04800693          	li	a3,72
     73c:	4601                	li	a2,0
     73e:	4581                	li	a1,0
     740:	06600513          	li	a0,102
     744:	392d                	jal	37e <gpio_init>
D:/projects/mechanical_arm/Firmware/UWB/libraries/zf_driver/zf_driver_uart.c:78 (discriminator 1)
}
     746:	a259                	j	8cc <__stack_size+0xcc>
D:/projects/mechanical_arm/Firmware/UWB/libraries/zf_driver/zf_driver_uart.c:64
    else if(rx_pin == UART3_RX_B11)     gpio_init(B11, GPI, 0, GPI_PULL_UP);
     748:	fe842703          	lw	a4,-24(s0)
     74c:	02100793          	li	a5,33
     750:	00f71a63          	bne	a4,a5,764 <uart_gpio_init+0x250>
D:/projects/mechanical_arm/Firmware/UWB/libraries/zf_driver/zf_driver_uart.c:64 (discriminator 1)
     754:	04800693          	li	a3,72
     758:	4601                	li	a2,0
     75a:	4581                	li	a1,0
     75c:	02b00513          	li	a0,43
     760:	3939                	jal	37e <gpio_init>
D:/projects/mechanical_arm/Firmware/UWB/libraries/zf_driver/zf_driver_uart.c:78 (discriminator 1)
}
     762:	a2ad                	j	8cc <__stack_size+0xcc>
D:/projects/mechanical_arm/Firmware/UWB/libraries/zf_driver/zf_driver_uart.c:65
    else if(rx_pin == UART3_RX_C11)     gpio_init(C11, GPI, 0, GPI_PULL_UP);
     764:	fe842703          	lw	a4,-24(s0)
     768:	02300793          	li	a5,35
     76c:	00f71a63          	bne	a4,a5,780 <uart_gpio_init+0x26c>
D:/projects/mechanical_arm/Firmware/UWB/libraries/zf_driver/zf_driver_uart.c:65 (discriminator 1)
     770:	04800693          	li	a3,72
     774:	4601                	li	a2,0
     776:	4581                	li	a1,0
     778:	04b00513          	li	a0,75
     77c:	3109                	jal	37e <gpio_init>
D:/projects/mechanical_arm/Firmware/UWB/libraries/zf_driver/zf_driver_uart.c:78 (discriminator 1)
}
     77e:	a2b9                	j	8cc <__stack_size+0xcc>
D:/projects/mechanical_arm/Firmware/UWB/libraries/zf_driver/zf_driver_uart.c:66
    else if(rx_pin == UART3_RX_D9 )     gpio_init(D9,  GPI, 0, GPI_PULL_UP);
     780:	fe842703          	lw	a4,-24(s0)
     784:	02500793          	li	a5,37
     788:	00f71a63          	bne	a4,a5,79c <uart_gpio_init+0x288>
D:/projects/mechanical_arm/Firmware/UWB/libraries/zf_driver/zf_driver_uart.c:66 (discriminator 1)
     78c:	04800693          	li	a3,72
     790:	4601                	li	a2,0
     792:	4581                	li	a1,0
     794:	06900513          	li	a0,105
     798:	36dd                	jal	37e <gpio_init>
D:/projects/mechanical_arm/Firmware/UWB/libraries/zf_driver/zf_driver_uart.c:78 (discriminator 1)
}
     79a:	aa0d                	j	8cc <__stack_size+0xcc>
D:/projects/mechanical_arm/Firmware/UWB/libraries/zf_driver/zf_driver_uart.c:67
    else if(rx_pin == UART4_RX_C11)     gpio_init(C11, GPI, 0, GPI_PULL_UP);
     79c:	fe842703          	lw	a4,-24(s0)
     7a0:	04100793          	li	a5,65
     7a4:	00f71a63          	bne	a4,a5,7b8 <uart_gpio_init+0x2a4>
D:/projects/mechanical_arm/Firmware/UWB/libraries/zf_driver/zf_driver_uart.c:67 (discriminator 1)
     7a8:	04800693          	li	a3,72
     7ac:	4601                	li	a2,0
     7ae:	4581                	li	a1,0
     7b0:	04b00513          	li	a0,75
     7b4:	36e9                	jal	37e <gpio_init>
D:/projects/mechanical_arm/Firmware/UWB/libraries/zf_driver/zf_driver_uart.c:78 (discriminator 1)
}
     7b6:	aa19                	j	8cc <__stack_size+0xcc>
D:/projects/mechanical_arm/Firmware/UWB/libraries/zf_driver/zf_driver_uart.c:68
    else if(rx_pin == UART4_RX_B1)      gpio_init(B1, GPI, 0, GPI_PULL_UP);
     7b8:	fe842703          	lw	a4,-24(s0)
     7bc:	04300793          	li	a5,67
     7c0:	00f71a63          	bne	a4,a5,7d4 <uart_gpio_init+0x2c0>
D:/projects/mechanical_arm/Firmware/UWB/libraries/zf_driver/zf_driver_uart.c:68 (discriminator 1)
     7c4:	04800693          	li	a3,72
     7c8:	4601                	li	a2,0
     7ca:	4581                	li	a1,0
     7cc:	02100513          	li	a0,33
     7d0:	367d                	jal	37e <gpio_init>
D:/projects/mechanical_arm/Firmware/UWB/libraries/zf_driver/zf_driver_uart.c:78 (discriminator 1)
}
     7d2:	a8ed                	j	8cc <__stack_size+0xcc>
D:/projects/mechanical_arm/Firmware/UWB/libraries/zf_driver/zf_driver_uart.c:69
    else if(rx_pin == UART5_RX_D2 )     gpio_init(D2,  GPI, 0, GPI_PULL_UP);
     7d4:	fe842703          	lw	a4,-24(s0)
     7d8:	05100793          	li	a5,81
     7dc:	00f71a63          	bne	a4,a5,7f0 <uart_gpio_init+0x2dc>
D:/projects/mechanical_arm/Firmware/UWB/libraries/zf_driver/zf_driver_uart.c:69 (discriminator 1)
     7e0:	04800693          	li	a3,72
     7e4:	4601                	li	a2,0
     7e6:	4581                	li	a1,0
     7e8:	06200513          	li	a0,98
     7ec:	3e49                	jal	37e <gpio_init>
D:/projects/mechanical_arm/Firmware/UWB/libraries/zf_driver/zf_driver_uart.c:78 (discriminator 1)
}
     7ee:	a8f9                	j	8cc <__stack_size+0xcc>
D:/projects/mechanical_arm/Firmware/UWB/libraries/zf_driver/zf_driver_uart.c:70
    else if(rx_pin == UART5_RX_E9 )     gpio_init(E9,  GPI, 0, GPI_PULL_UP);
     7f0:	fe842703          	lw	a4,-24(s0)
     7f4:	05300793          	li	a5,83
     7f8:	00f71a63          	bne	a4,a5,80c <__stack_size+0xc>
D:/projects/mechanical_arm/Firmware/UWB/libraries/zf_driver/zf_driver_uart.c:70 (discriminator 1)
     7fc:	04800693          	li	a3,72
     800:	4601                	li	a2,0
     802:	4581                	li	a1,0
     804:	08900513          	li	a0,137
     808:	3e9d                	jal	37e <gpio_init>
D:/projects/mechanical_arm/Firmware/UWB/libraries/zf_driver/zf_driver_uart.c:78 (discriminator 1)
}
     80a:	a0c9                	j	8cc <__stack_size+0xcc>
D:/projects/mechanical_arm/Firmware/UWB/libraries/zf_driver/zf_driver_uart.c:71
    else if(rx_pin == UART6_RX_C1 )     gpio_init(C1,  GPI, 0, GPI_PULL_UP);
     80c:	fe842703          	lw	a4,-24(s0)
     810:	06100793          	li	a5,97
     814:	00f71a63          	bne	a4,a5,828 <__stack_size+0x28>
D:/projects/mechanical_arm/Firmware/UWB/libraries/zf_driver/zf_driver_uart.c:71 (discriminator 1)
     818:	04800693          	li	a3,72
     81c:	4601                	li	a2,0
     81e:	4581                	li	a1,0
     820:	04100513          	li	a0,65
     824:	3ea9                	jal	37e <gpio_init>
D:/projects/mechanical_arm/Firmware/UWB/libraries/zf_driver/zf_driver_uart.c:78 (discriminator 1)
}
     826:	a05d                	j	8cc <__stack_size+0xcc>
D:/projects/mechanical_arm/Firmware/UWB/libraries/zf_driver/zf_driver_uart.c:72
    else if(rx_pin == UART6_RX_E11 )    gpio_init(E11,  GPI, 0, GPI_PULL_UP);
     828:	fe842703          	lw	a4,-24(s0)
     82c:	06300793          	li	a5,99
     830:	00f71a63          	bne	a4,a5,844 <__stack_size+0x44>
D:/projects/mechanical_arm/Firmware/UWB/libraries/zf_driver/zf_driver_uart.c:72 (discriminator 1)
     834:	04800693          	li	a3,72
     838:	4601                	li	a2,0
     83a:	4581                	li	a1,0
     83c:	08b00513          	li	a0,139
     840:	3e3d                	jal	37e <gpio_init>
D:/projects/mechanical_arm/Firmware/UWB/libraries/zf_driver/zf_driver_uart.c:78 (discriminator 1)
}
     842:	a069                	j	8cc <__stack_size+0xcc>
D:/projects/mechanical_arm/Firmware/UWB/libraries/zf_driver/zf_driver_uart.c:73
    else if(rx_pin == UART7_RX_C3 )     gpio_init(C3,  GPI, 0, GPI_PULL_UP);
     844:	fe842703          	lw	a4,-24(s0)
     848:	07100793          	li	a5,113
     84c:	00f71a63          	bne	a4,a5,860 <__stack_size+0x60>
D:/projects/mechanical_arm/Firmware/UWB/libraries/zf_driver/zf_driver_uart.c:73 (discriminator 1)
     850:	04800693          	li	a3,72
     854:	4601                	li	a2,0
     856:	4581                	li	a1,0
     858:	04300513          	li	a0,67
     85c:	360d                	jal	37e <gpio_init>
D:/projects/mechanical_arm/Firmware/UWB/libraries/zf_driver/zf_driver_uart.c:78 (discriminator 1)
}
     85e:	a0bd                	j	8cc <__stack_size+0xcc>
D:/projects/mechanical_arm/Firmware/UWB/libraries/zf_driver/zf_driver_uart.c:74
    else if(rx_pin == UART7_RX_A7 )     gpio_init(A7,  GPI, 0, GPI_PULL_UP);
     860:	fe842703          	lw	a4,-24(s0)
     864:	07300793          	li	a5,115
     868:	00f71963          	bne	a4,a5,87a <__stack_size+0x7a>
D:/projects/mechanical_arm/Firmware/UWB/libraries/zf_driver/zf_driver_uart.c:74 (discriminator 1)
     86c:	04800693          	li	a3,72
     870:	4601                	li	a2,0
     872:	4581                	li	a1,0
     874:	451d                	li	a0,7
     876:	3621                	jal	37e <gpio_init>
D:/projects/mechanical_arm/Firmware/UWB/libraries/zf_driver/zf_driver_uart.c:78 (discriminator 1)
}
     878:	a891                	j	8cc <__stack_size+0xcc>
D:/projects/mechanical_arm/Firmware/UWB/libraries/zf_driver/zf_driver_uart.c:75
    else if(rx_pin == UART7_RX_E13 )    gpio_init(E13,  GPI, 0, GPI_PULL_UP);
     87a:	fe842703          	lw	a4,-24(s0)
     87e:	07500793          	li	a5,117
     882:	00f71a63          	bne	a4,a5,896 <__stack_size+0x96>
D:/projects/mechanical_arm/Firmware/UWB/libraries/zf_driver/zf_driver_uart.c:75 (discriminator 1)
     886:	04800693          	li	a3,72
     88a:	4601                	li	a2,0
     88c:	4581                	li	a1,0
     88e:	08d00513          	li	a0,141
     892:	34f5                	jal	37e <gpio_init>
D:/projects/mechanical_arm/Firmware/UWB/libraries/zf_driver/zf_driver_uart.c:78 (discriminator 1)
}
     894:	a825                	j	8cc <__stack_size+0xcc>
D:/projects/mechanical_arm/Firmware/UWB/libraries/zf_driver/zf_driver_uart.c:76
    else if(rx_pin == UART8_RX_C5 )     gpio_init(C5,  GPI, 0, GPI_PULL_UP);
     896:	fe842703          	lw	a4,-24(s0)
     89a:	08100793          	li	a5,129
     89e:	00f71a63          	bne	a4,a5,8b2 <__stack_size+0xb2>
D:/projects/mechanical_arm/Firmware/UWB/libraries/zf_driver/zf_driver_uart.c:76 (discriminator 1)
     8a2:	04800693          	li	a3,72
     8a6:	4601                	li	a2,0
     8a8:	4581                	li	a1,0
     8aa:	04500513          	li	a0,69
     8ae:	3cc1                	jal	37e <gpio_init>
D:/projects/mechanical_arm/Firmware/UWB/libraries/zf_driver/zf_driver_uart.c:78 (discriminator 1)
}
     8b0:	a831                	j	8cc <__stack_size+0xcc>
D:/projects/mechanical_arm/Firmware/UWB/libraries/zf_driver/zf_driver_uart.c:77
    else if(rx_pin == UART8_RX_E15 )    gpio_init(E15,  GPI, 0, GPI_PULL_UP);
     8b2:	fe842703          	lw	a4,-24(s0)
     8b6:	08300793          	li	a5,131
     8ba:	00f71963          	bne	a4,a5,8cc <__stack_size+0xcc>
D:/projects/mechanical_arm/Firmware/UWB/libraries/zf_driver/zf_driver_uart.c:77 (discriminator 1)
     8be:	04800693          	li	a3,72
     8c2:	4601                	li	a2,0
     8c4:	4581                	li	a1,0
     8c6:	08f00513          	li	a0,143
     8ca:	3c55                	jal	37e <gpio_init>
D:/projects/mechanical_arm/Firmware/UWB/libraries/zf_driver/zf_driver_uart.c:78
}
     8cc:	0001                	nop
     8ce:	40f2                	lw	ra,28(sp)
     8d0:	4462                	lw	s0,24(sp)
     8d2:	6105                	addi	sp,sp,32
     8d4:	8082                	ret

000008d6 <uart_rx_interrupt>:
uart_rx_interrupt():
D:/projects/mechanical_arm/Firmware/UWB/libraries/zf_driver/zf_driver_uart.c:153
//  @param      status      使能或者失能
//  @return     void
//  Sample usage:           uart_rx_irq(UART_1, ENABLE);        //打开串口1接收中断
//-------------------------------------------------------------------------------------------------------------------
void uart_rx_interrupt(uart_index_enum uartn, uint8 status)
{
     8d6:	1101                	addi	sp,sp,-32
     8d8:	ce06                	sw	ra,28(sp)
     8da:	cc22                	sw	s0,24(sp)
     8dc:	1000                	addi	s0,sp,32
     8de:	fea42623          	sw	a0,-20(s0)
     8e2:	87ae                	mv	a5,a1
     8e4:	fef405a3          	sb	a5,-21(s0)
D:/projects/mechanical_arm/Firmware/UWB/libraries/zf_driver/zf_driver_uart.c:154
    USART_ITConfig(((USART_TypeDef*)uart_index[uartn]), USART_IT_RXNE, status);
     8e8:	67a9                	lui	a5,0xa
     8ea:	fec42703          	lw	a4,-20(s0)
     8ee:	070a                	slli	a4,a4,0x2
     8f0:	d2878793          	addi	a5,a5,-728 # 9d28 <uart_index>
     8f4:	97ba                	add	a5,a5,a4
     8f6:	439c                	lw	a5,0(a5)
     8f8:	873e                	mv	a4,a5
     8fa:	feb44783          	lbu	a5,-21(s0)
     8fe:	863e                	mv	a2,a5
     900:	52500593          	li	a1,1317
     904:	853a                	mv	a0,a4
     906:	23e020ef          	jal	ra,2b44 <USART_ITConfig>
D:/projects/mechanical_arm/Firmware/UWB/libraries/zf_driver/zf_driver_uart.c:156

    NVIC->IPRIOR[(uint32)((IRQn_Type)uart_irq[uartn])] = 0;
     90a:	e000e7b7          	lui	a5,0xe000e
     90e:	81818693          	addi	a3,gp,-2024 # 20000248 <uart_irq>
     912:	fec42703          	lw	a4,-20(s0)
     916:	9736                	add	a4,a4,a3
     918:	00074703          	lbu	a4,0(a4)
     91c:	97ba                	add	a5,a5,a4
     91e:	40078023          	sb	zero,1024(a5) # e000e400 <_eusrstack+0xbfffe400>
D:/projects/mechanical_arm/Firmware/UWB/libraries/zf_driver/zf_driver_uart.c:158

    if(status)  interrupt_enable((IRQn_Type)uart_irq[uartn]);
     922:	feb44783          	lbu	a5,-21(s0)
     926:	cf81                	beqz	a5,93e <uart_rx_interrupt+0x68>
D:/projects/mechanical_arm/Firmware/UWB/libraries/zf_driver/zf_driver_uart.c:158 (discriminator 1)
     928:	81818713          	addi	a4,gp,-2024 # 20000248 <uart_irq>
     92c:	fec42783          	lw	a5,-20(s0)
     930:	97ba                	add	a5,a5,a4
     932:	0007c783          	lbu	a5,0(a5)
     936:	853e                	mv	a0,a5
     938:	27d000ef          	jal	ra,13b4 <interrupt_enable>
D:/projects/mechanical_arm/Firmware/UWB/libraries/zf_driver/zf_driver_uart.c:162 (discriminator 1)
    else        interrupt_disable((IRQn_Type)uart_irq[uartn]);

    //nvic_init((IRQn_Type)uart_irq[uartn], 1, 0, status);
}
     93c:	a819                	j	952 <uart_rx_interrupt+0x7c>
D:/projects/mechanical_arm/Firmware/UWB/libraries/zf_driver/zf_driver_uart.c:159
    else        interrupt_disable((IRQn_Type)uart_irq[uartn]);
     93e:	81818713          	addi	a4,gp,-2024 # 20000248 <uart_irq>
     942:	fec42783          	lw	a5,-20(s0)
     946:	97ba                	add	a5,a5,a4
     948:	0007c783          	lbu	a5,0(a5)
     94c:	853e                	mv	a0,a5
     94e:	283000ef          	jal	ra,13d0 <interrupt_disable>
D:/projects/mechanical_arm/Firmware/UWB/libraries/zf_driver/zf_driver_uart.c:162
}
     952:	0001                	nop
     954:	40f2                	lw	ra,28(sp)
     956:	4462                	lw	s0,24(sp)
     958:	6105                	addi	sp,sp,32
     95a:	8082                	ret

0000095c <uart_query_byte>:
uart_query_byte():
D:/projects/mechanical_arm/Firmware/UWB/libraries/zf_driver/zf_driver_uart.c:203
//  @param      *dat            接收数据的地址
//  @return     uint8           1：接收成功   0：未接收到数据
//  Sample usage:               uint8 dat; uart_query_byte(USART_1,&dat);       // 接收串口1数据  存在在dat变量里
//-------------------------------------------------------------------------------------------------------------------
uint8 uart_query_byte(uart_index_enum uartn, uint8 *dat)
{
     95c:	1101                	addi	sp,sp,-32
     95e:	ce22                	sw	s0,28(sp)
     960:	1000                	addi	s0,sp,32
     962:	fea42623          	sw	a0,-20(s0)
     966:	feb42423          	sw	a1,-24(s0)
D:/projects/mechanical_arm/Firmware/UWB/libraries/zf_driver/zf_driver_uart.c:204
    if((((USART_TypeDef*)uart_index[uartn])->STATR & USART_FLAG_RXNE) != 0)
     96a:	67a9                	lui	a5,0xa
     96c:	fec42703          	lw	a4,-20(s0)
     970:	070a                	slli	a4,a4,0x2
     972:	d2878793          	addi	a5,a5,-728 # 9d28 <uart_index>
     976:	97ba                	add	a5,a5,a4
     978:	439c                	lw	a5,0(a5)
     97a:	0007d783          	lhu	a5,0(a5)
     97e:	07c2                	slli	a5,a5,0x10
     980:	83c1                	srli	a5,a5,0x10
     982:	0207f793          	andi	a5,a5,32
     986:	c78d                	beqz	a5,9b0 <uart_query_byte+0x54>
D:/projects/mechanical_arm/Firmware/UWB/libraries/zf_driver/zf_driver_uart.c:206
    {
        *dat = (((USART_TypeDef*)uart_index[uartn])->DATAR & 0xFF);
     988:	67a9                	lui	a5,0xa
     98a:	fec42703          	lw	a4,-20(s0)
     98e:	070a                	slli	a4,a4,0x2
     990:	d2878793          	addi	a5,a5,-728 # 9d28 <uart_index>
     994:	97ba                	add	a5,a5,a4
     996:	439c                	lw	a5,0(a5)
     998:	0047d783          	lhu	a5,4(a5)
     99c:	07c2                	slli	a5,a5,0x10
     99e:	83c1                	srli	a5,a5,0x10
     9a0:	0ff7f713          	andi	a4,a5,255
     9a4:	fe842783          	lw	a5,-24(s0)
     9a8:	00e78023          	sb	a4,0(a5)
D:/projects/mechanical_arm/Firmware/UWB/libraries/zf_driver/zf_driver_uart.c:207
        return 1;
     9ac:	4785                	li	a5,1
     9ae:	a011                	j	9b2 <uart_query_byte+0x56>
D:/projects/mechanical_arm/Firmware/UWB/libraries/zf_driver/zf_driver_uart.c:209
    }
    return 0;
     9b0:	4781                	li	a5,0
D:/projects/mechanical_arm/Firmware/UWB/libraries/zf_driver/zf_driver_uart.c:210
}
     9b2:	853e                	mv	a0,a5
     9b4:	4472                	lw	s0,28(sp)
     9b6:	6105                	addi	sp,sp,32
     9b8:	8082                	ret

000009ba <uart_init>:
uart_init():
D:/projects/mechanical_arm/Firmware/UWB/libraries/zf_driver/zf_driver_uart.c:222
//  @param      rx_pin      串口接收引脚号
//  @return     void
//  Sample usage:           uart_init(UART_1, 115200, UART1_TX_A9, UART1_RX_A10); //串口1初始化引脚号,TX为A9,RX为A10
//-------------------------------------------------------------------------------------------------------------------
void uart_init(uart_index_enum uart_num, uint32 baud, uart_pin_enum tx_pin, uart_pin_enum rx_pin)
{
     9ba:	7179                	addi	sp,sp,-48
     9bc:	d606                	sw	ra,44(sp)
     9be:	d422                	sw	s0,40(sp)
     9c0:	1800                	addi	s0,sp,48
     9c2:	fca42e23          	sw	a0,-36(s0)
     9c6:	fcb42c23          	sw	a1,-40(s0)
     9ca:	fcc42a23          	sw	a2,-44(s0)
     9ce:	fcd42823          	sw	a3,-48(s0)
D:/projects/mechanical_arm/Firmware/UWB/libraries/zf_driver/zf_driver_uart.c:226
    USART_InitTypeDef USART_InitStructure;

    // AFIO总线开启
    RCC_APB2PeriphClockCmd(RCC_APB2Periph_AFIO, ENABLE);
     9d2:	4585                	li	a1,1
     9d4:	4505                	li	a0,1
     9d6:	369010ef          	jal	ra,253e <RCC_APB2PeriphClockCmd>
D:/projects/mechanical_arm/Firmware/UWB/libraries/zf_driver/zf_driver_uart.c:233

    // RX引脚和TX引脚必须组传入
//    zf_assert(((rx_pin - 1) == tx_pin) || (tx_pin == UART5_TX_C12 && UART5_RX_D2 == rx_pin));

    // 引脚初始化
    uart_gpio_init(tx_pin, rx_pin);
     9da:	fd042583          	lw	a1,-48(s0)
     9de:	fd442503          	lw	a0,-44(s0)
     9e2:	3e0d                	jal	514 <uart_gpio_init>
D:/projects/mechanical_arm/Firmware/UWB/libraries/zf_driver/zf_driver_uart.c:236

    // 端口重映射
    if(UART1_TX_B6 == tx_pin && UART1_RX_B7 == rx_pin)
     9e4:	fd442703          	lw	a4,-44(s0)
     9e8:	4789                	li	a5,2
     9ea:	00f71c63          	bne	a4,a5,a02 <uart_init+0x48>
D:/projects/mechanical_arm/Firmware/UWB/libraries/zf_driver/zf_driver_uart.c:236 (discriminator 1)
     9ee:	fd042703          	lw	a4,-48(s0)
     9f2:	478d                	li	a5,3
     9f4:	00f71763          	bne	a4,a5,a02 <uart_init+0x48>
D:/projects/mechanical_arm/Firmware/UWB/libraries/zf_driver/zf_driver_uart.c:237
        GPIO_PinRemapConfig(GPIO_Remap_USART1, ENABLE);
     9f8:	4585                	li	a1,1
     9fa:	4511                	li	a0,4
     9fc:	73c010ef          	jal	ra,2138 <GPIO_PinRemapConfig>
     a00:	a295                	j	b64 <uart_init+0x1aa>
D:/projects/mechanical_arm/Firmware/UWB/libraries/zf_driver/zf_driver_uart.c:238
    else if(UART2_TX_D5 == tx_pin && UART2_RX_D6 == rx_pin)
     a02:	fd442703          	lw	a4,-44(s0)
     a06:	47c9                	li	a5,18
     a08:	00f71c63          	bne	a4,a5,a20 <uart_init+0x66>
D:/projects/mechanical_arm/Firmware/UWB/libraries/zf_driver/zf_driver_uart.c:238 (discriminator 1)
     a0c:	fd042703          	lw	a4,-48(s0)
     a10:	47cd                	li	a5,19
     a12:	00f71763          	bne	a4,a5,a20 <uart_init+0x66>
D:/projects/mechanical_arm/Firmware/UWB/libraries/zf_driver/zf_driver_uart.c:239
        GPIO_PinRemapConfig(GPIO_Remap_USART2, ENABLE);
     a16:	4585                	li	a1,1
     a18:	4521                	li	a0,8
     a1a:	71e010ef          	jal	ra,2138 <GPIO_PinRemapConfig>
     a1e:	a299                	j	b64 <uart_init+0x1aa>
D:/projects/mechanical_arm/Firmware/UWB/libraries/zf_driver/zf_driver_uart.c:240
    else if(UART3_TX_C10 == tx_pin && UART3_RX_C11 == rx_pin)
     a20:	fd442703          	lw	a4,-44(s0)
     a24:	02200793          	li	a5,34
     a28:	02f71063          	bne	a4,a5,a48 <uart_init+0x8e>
D:/projects/mechanical_arm/Firmware/UWB/libraries/zf_driver/zf_driver_uart.c:240 (discriminator 1)
     a2c:	fd042703          	lw	a4,-48(s0)
     a30:	02300793          	li	a5,35
     a34:	00f71a63          	bne	a4,a5,a48 <uart_init+0x8e>
D:/projects/mechanical_arm/Firmware/UWB/libraries/zf_driver/zf_driver_uart.c:241
        GPIO_PinRemapConfig(GPIO_PartialRemap_USART3, ENABLE);
     a38:	4585                	li	a1,1
     a3a:	001407b7          	lui	a5,0x140
     a3e:	01078513          	addi	a0,a5,16 # 140010 <_data_lma+0x135bec>
     a42:	6f6010ef          	jal	ra,2138 <GPIO_PinRemapConfig>
     a46:	aa39                	j	b64 <uart_init+0x1aa>
D:/projects/mechanical_arm/Firmware/UWB/libraries/zf_driver/zf_driver_uart.c:242
    else if(UART3_TX_D8 == tx_pin && UART3_RX_D9 == rx_pin)
     a48:	fd442703          	lw	a4,-44(s0)
     a4c:	02400793          	li	a5,36
     a50:	02f71063          	bne	a4,a5,a70 <uart_init+0xb6>
D:/projects/mechanical_arm/Firmware/UWB/libraries/zf_driver/zf_driver_uart.c:242 (discriminator 1)
     a54:	fd042703          	lw	a4,-48(s0)
     a58:	02500793          	li	a5,37
     a5c:	00f71a63          	bne	a4,a5,a70 <uart_init+0xb6>
D:/projects/mechanical_arm/Firmware/UWB/libraries/zf_driver/zf_driver_uart.c:243
        GPIO_PinRemapConfig(GPIO_FullRemap_USART3, ENABLE);
     a60:	4585                	li	a1,1
     a62:	001407b7          	lui	a5,0x140
     a66:	03078513          	addi	a0,a5,48 # 140030 <_data_lma+0x135c0c>
     a6a:	6ce010ef          	jal	ra,2138 <GPIO_PinRemapConfig>
     a6e:	a8dd                	j	b64 <uart_init+0x1aa>
D:/projects/mechanical_arm/Firmware/UWB/libraries/zf_driver/zf_driver_uart.c:244
    else if(UART4_TX_B0 == tx_pin && UART4_RX_B1 == rx_pin)
     a70:	fd442703          	lw	a4,-44(s0)
     a74:	04200793          	li	a5,66
     a78:	00f71d63          	bne	a4,a5,a92 <uart_init+0xd8>
D:/projects/mechanical_arm/Firmware/UWB/libraries/zf_driver/zf_driver_uart.c:244 (discriminator 1)
     a7c:	fd042703          	lw	a4,-48(s0)
     a80:	04300793          	li	a5,67
     a84:	00f71763          	bne	a4,a5,a92 <uart_init+0xd8>
D:/projects/mechanical_arm/Firmware/UWB/libraries/zf_driver/zf_driver_uart.c:245
        GPIO_PinRemapConfig(GPIO_Remap_TIM4, ENABLE);
     a88:	4585                	li	a1,1
     a8a:	6505                	lui	a0,0x1
     a8c:	6ac010ef          	jal	ra,2138 <GPIO_PinRemapConfig>
     a90:	a8d1                	j	b64 <uart_init+0x1aa>
D:/projects/mechanical_arm/Firmware/UWB/libraries/zf_driver/zf_driver_uart.c:246
    else if(UART5_TX_E8 == tx_pin && UART5_RX_E9 == rx_pin)
     a92:	fd442703          	lw	a4,-44(s0)
     a96:	05200793          	li	a5,82
     a9a:	02f71063          	bne	a4,a5,aba <uart_init+0x100>
D:/projects/mechanical_arm/Firmware/UWB/libraries/zf_driver/zf_driver_uart.c:246 (discriminator 1)
     a9e:	fd042703          	lw	a4,-48(s0)
     aa2:	05300793          	li	a5,83
     aa6:	00f71a63          	bne	a4,a5,aba <uart_init+0x100>
D:/projects/mechanical_arm/Firmware/UWB/libraries/zf_driver/zf_driver_uart.c:247
        GPIO_PinRemapConfig(GPIO_Remap_TIM5CH4_LSI, ENABLE);
     aaa:	4585                	li	a1,1
     aac:	002007b7          	lui	a5,0x200
     ab0:	00178513          	addi	a0,a5,1 # 200001 <_data_lma+0x1f5bdd>
     ab4:	684010ef          	jal	ra,2138 <GPIO_PinRemapConfig>
     ab8:	a075                	j	b64 <uart_init+0x1aa>
D:/projects/mechanical_arm/Firmware/UWB/libraries/zf_driver/zf_driver_uart.c:248
    else if(UART6_TX_E10 == tx_pin && UART6_RX_E11 == rx_pin)
     aba:	fd442703          	lw	a4,-44(s0)
     abe:	06200793          	li	a5,98
     ac2:	02f71063          	bne	a4,a5,ae2 <uart_init+0x128>
D:/projects/mechanical_arm/Firmware/UWB/libraries/zf_driver/zf_driver_uart.c:248 (discriminator 1)
     ac6:	fd042703          	lw	a4,-48(s0)
     aca:	06300793          	li	a5,99
     ace:	00f71a63          	bne	a4,a5,ae2 <uart_init+0x128>
D:/projects/mechanical_arm/Firmware/UWB/libraries/zf_driver/zf_driver_uart.c:249
        GPIO_PinRemapConfig(GPIO_Remap_TIM67_DAC_DMA, ENABLE);
     ad2:	4585                	li	a1,1
     ad4:	800017b7          	lui	a5,0x80001
     ad8:	80078513          	addi	a0,a5,-2048 # 80000800 <_eusrstack+0x5fff0800>
     adc:	65c010ef          	jal	ra,2138 <GPIO_PinRemapConfig>
     ae0:	a051                	j	b64 <uart_init+0x1aa>
D:/projects/mechanical_arm/Firmware/UWB/libraries/zf_driver/zf_driver_uart.c:251

    else if(UART7_TX_A6 == tx_pin && UART7_RX_A7 == rx_pin)
     ae2:	fd442703          	lw	a4,-44(s0)
     ae6:	07200793          	li	a5,114
     aea:	02f71263          	bne	a4,a5,b0e <uart_init+0x154>
D:/projects/mechanical_arm/Firmware/UWB/libraries/zf_driver/zf_driver_uart.c:251 (discriminator 1)
     aee:	fd042703          	lw	a4,-48(s0)
     af2:	07300793          	li	a5,115
     af6:	00f71c63          	bne	a4,a5,b0e <uart_init+0x154>
D:/projects/mechanical_arm/Firmware/UWB/libraries/zf_driver/zf_driver_uart.c:252
        AFIO->PCFR2 |= 0x01<<22;                       //[23:22]
     afa:	400107b7          	lui	a5,0x40010
     afe:	4fd4                	lw	a3,28(a5)
     b00:	400107b7          	lui	a5,0x40010
     b04:	00400737          	lui	a4,0x400
     b08:	8f55                	or	a4,a4,a3
     b0a:	cfd8                	sw	a4,28(a5)
     b0c:	a8a1                	j	b64 <uart_init+0x1aa>
D:/projects/mechanical_arm/Firmware/UWB/libraries/zf_driver/zf_driver_uart.c:253
    else if(UART7_TX_E12 == tx_pin && UART7_RX_E13 == rx_pin)
     b0e:	fd442703          	lw	a4,-44(s0)
     b12:	07400793          	li	a5,116
     b16:	02f71263          	bne	a4,a5,b3a <uart_init+0x180>
D:/projects/mechanical_arm/Firmware/UWB/libraries/zf_driver/zf_driver_uart.c:253 (discriminator 1)
     b1a:	fd042703          	lw	a4,-48(s0)
     b1e:	07500793          	li	a5,117
     b22:	00f71c63          	bne	a4,a5,b3a <uart_init+0x180>
D:/projects/mechanical_arm/Firmware/UWB/libraries/zf_driver/zf_driver_uart.c:254
        AFIO->PCFR2 |= 0x01<<23;                       //[23:22]
     b26:	400107b7          	lui	a5,0x40010
     b2a:	4fd4                	lw	a3,28(a5)
     b2c:	400107b7          	lui	a5,0x40010
     b30:	00800737          	lui	a4,0x800
     b34:	8f55                	or	a4,a4,a3
     b36:	cfd8                	sw	a4,28(a5)
     b38:	a035                	j	b64 <uart_init+0x1aa>
D:/projects/mechanical_arm/Firmware/UWB/libraries/zf_driver/zf_driver_uart.c:256

    else if(UART8_TX_E14 == tx_pin && UART8_RX_E15 == rx_pin)
     b3a:	fd442703          	lw	a4,-44(s0)
     b3e:	08200793          	li	a5,130
     b42:	02f71163          	bne	a4,a5,b64 <uart_init+0x1aa>
D:/projects/mechanical_arm/Firmware/UWB/libraries/zf_driver/zf_driver_uart.c:256 (discriminator 1)
     b46:	fd042703          	lw	a4,-48(s0)
     b4a:	08300793          	li	a5,131
     b4e:	00f71b63          	bne	a4,a5,b64 <uart_init+0x1aa>
D:/projects/mechanical_arm/Firmware/UWB/libraries/zf_driver/zf_driver_uart.c:257
        AFIO->PCFR2 |= 1<<25;    //[25:24]
     b52:	400107b7          	lui	a5,0x40010
     b56:	4fd4                	lw	a3,28(a5)
     b58:	400107b7          	lui	a5,0x40010
     b5c:	02000737          	lui	a4,0x2000
     b60:	8f55                	or	a4,a4,a3
     b62:	cfd8                	sw	a4,28(a5)
D:/projects/mechanical_arm/Firmware/UWB/libraries/zf_driver/zf_driver_uart.c:260

    //  串口总线使能
    if(UART_1 == uart_num) RCC_APB2PeriphClockCmd(RCC_APB2Periph_USART1, ENABLE);
     b64:	fdc42783          	lw	a5,-36(s0)
     b68:	e791                	bnez	a5,b74 <uart_init+0x1ba>
D:/projects/mechanical_arm/Firmware/UWB/libraries/zf_driver/zf_driver_uart.c:260 (discriminator 1)
     b6a:	4585                	li	a1,1
     b6c:	6511                	lui	a0,0x4
     b6e:	1d1010ef          	jal	ra,253e <RCC_APB2PeriphClockCmd>
     b72:	a869                	j	c0c <uart_init+0x252>
D:/projects/mechanical_arm/Firmware/UWB/libraries/zf_driver/zf_driver_uart.c:261
    else if(UART_2 == uart_num) RCC_APB1PeriphClockCmd(RCC_APB1Periph_USART2, ENABLE);
     b74:	fdc42703          	lw	a4,-36(s0)
     b78:	4785                	li	a5,1
     b7a:	00f71863          	bne	a4,a5,b8a <uart_init+0x1d0>
D:/projects/mechanical_arm/Firmware/UWB/libraries/zf_driver/zf_driver_uart.c:261 (discriminator 1)
     b7e:	4585                	li	a1,1
     b80:	00020537          	lui	a0,0x20
     b84:	201010ef          	jal	ra,2584 <RCC_APB1PeriphClockCmd>
     b88:	a051                	j	c0c <uart_init+0x252>
D:/projects/mechanical_arm/Firmware/UWB/libraries/zf_driver/zf_driver_uart.c:262
    else if(UART_3 == uart_num) RCC_APB1PeriphClockCmd(RCC_APB1Periph_USART3, ENABLE);
     b8a:	fdc42703          	lw	a4,-36(s0)
     b8e:	4789                	li	a5,2
     b90:	00f71863          	bne	a4,a5,ba0 <uart_init+0x1e6>
D:/projects/mechanical_arm/Firmware/UWB/libraries/zf_driver/zf_driver_uart.c:262 (discriminator 1)
     b94:	4585                	li	a1,1
     b96:	00040537          	lui	a0,0x40
     b9a:	1eb010ef          	jal	ra,2584 <RCC_APB1PeriphClockCmd>
     b9e:	a0bd                	j	c0c <uart_init+0x252>
D:/projects/mechanical_arm/Firmware/UWB/libraries/zf_driver/zf_driver_uart.c:263
    else if(UART_4 == uart_num) RCC_APB1PeriphClockCmd(RCC_APB1Periph_UART4, ENABLE);
     ba0:	fdc42703          	lw	a4,-36(s0)
     ba4:	478d                	li	a5,3
     ba6:	00f71863          	bne	a4,a5,bb6 <uart_init+0x1fc>
D:/projects/mechanical_arm/Firmware/UWB/libraries/zf_driver/zf_driver_uart.c:263 (discriminator 1)
     baa:	4585                	li	a1,1
     bac:	00080537          	lui	a0,0x80
     bb0:	1d5010ef          	jal	ra,2584 <RCC_APB1PeriphClockCmd>
     bb4:	a8a1                	j	c0c <uart_init+0x252>
D:/projects/mechanical_arm/Firmware/UWB/libraries/zf_driver/zf_driver_uart.c:264
    else if(UART_5 == uart_num) RCC_APB1PeriphClockCmd(RCC_APB1Periph_UART5, ENABLE);
     bb6:	fdc42703          	lw	a4,-36(s0)
     bba:	4791                	li	a5,4
     bbc:	00f71863          	bne	a4,a5,bcc <uart_init+0x212>
D:/projects/mechanical_arm/Firmware/UWB/libraries/zf_driver/zf_driver_uart.c:264 (discriminator 1)
     bc0:	4585                	li	a1,1
     bc2:	00100537          	lui	a0,0x100
     bc6:	1bf010ef          	jal	ra,2584 <RCC_APB1PeriphClockCmd>
     bca:	a089                	j	c0c <uart_init+0x252>
D:/projects/mechanical_arm/Firmware/UWB/libraries/zf_driver/zf_driver_uart.c:265
    else if(UART_6 == uart_num) RCC_APB1PeriphClockCmd(RCC_APB1Periph_UART6, ENABLE);
     bcc:	fdc42703          	lw	a4,-36(s0)
     bd0:	4795                	li	a5,5
     bd2:	00f71863          	bne	a4,a5,be2 <uart_init+0x228>
D:/projects/mechanical_arm/Firmware/UWB/libraries/zf_driver/zf_driver_uart.c:265 (discriminator 1)
     bd6:	4585                	li	a1,1
     bd8:	04000513          	li	a0,64
     bdc:	1a9010ef          	jal	ra,2584 <RCC_APB1PeriphClockCmd>
     be0:	a035                	j	c0c <uart_init+0x252>
D:/projects/mechanical_arm/Firmware/UWB/libraries/zf_driver/zf_driver_uart.c:266
    else if(UART_7 == uart_num) RCC_APB1PeriphClockCmd(RCC_APB1Periph_UART7, ENABLE);
     be2:	fdc42703          	lw	a4,-36(s0)
     be6:	4799                	li	a5,6
     be8:	00f71863          	bne	a4,a5,bf8 <uart_init+0x23e>
D:/projects/mechanical_arm/Firmware/UWB/libraries/zf_driver/zf_driver_uart.c:266 (discriminator 1)
     bec:	4585                	li	a1,1
     bee:	08000513          	li	a0,128
     bf2:	193010ef          	jal	ra,2584 <RCC_APB1PeriphClockCmd>
     bf6:	a819                	j	c0c <uart_init+0x252>
D:/projects/mechanical_arm/Firmware/UWB/libraries/zf_driver/zf_driver_uart.c:267
    else if(UART_8 == uart_num) RCC_APB1PeriphClockCmd(RCC_APB1Periph_UART8, ENABLE);
     bf8:	fdc42703          	lw	a4,-36(s0)
     bfc:	479d                	li	a5,7
     bfe:	00f71763          	bne	a4,a5,c0c <uart_init+0x252>
D:/projects/mechanical_arm/Firmware/UWB/libraries/zf_driver/zf_driver_uart.c:267 (discriminator 1)
     c02:	4585                	li	a1,1
     c04:	10000513          	li	a0,256
     c08:	17d010ef          	jal	ra,2584 <RCC_APB1PeriphClockCmd>
D:/projects/mechanical_arm/Firmware/UWB/libraries/zf_driver/zf_driver_uart.c:271


    //  串口参数配置
    USART_InitStructure.USART_BaudRate = baud;
     c0c:	fd842783          	lw	a5,-40(s0)
     c10:	fef42023          	sw	a5,-32(s0)
D:/projects/mechanical_arm/Firmware/UWB/libraries/zf_driver/zf_driver_uart.c:272
    USART_InitStructure.USART_WordLength = USART_WordLength_8b;
     c14:	fe041223          	sh	zero,-28(s0)
D:/projects/mechanical_arm/Firmware/UWB/libraries/zf_driver/zf_driver_uart.c:273
    USART_InitStructure.USART_StopBits = USART_StopBits_1;
     c18:	fe041323          	sh	zero,-26(s0)
D:/projects/mechanical_arm/Firmware/UWB/libraries/zf_driver/zf_driver_uart.c:274
    USART_InitStructure.USART_Parity = USART_Parity_No;
     c1c:	fe041423          	sh	zero,-24(s0)
D:/projects/mechanical_arm/Firmware/UWB/libraries/zf_driver/zf_driver_uart.c:275
    USART_InitStructure.USART_HardwareFlowControl = USART_HardwareFlowControl_None;
     c20:	fe041623          	sh	zero,-20(s0)
D:/projects/mechanical_arm/Firmware/UWB/libraries/zf_driver/zf_driver_uart.c:276
    USART_InitStructure.USART_Mode = USART_Mode_Tx | USART_Mode_Rx;
     c24:	47b1                	li	a5,12
     c26:	fef41523          	sh	a5,-22(s0)
D:/projects/mechanical_arm/Firmware/UWB/libraries/zf_driver/zf_driver_uart.c:279

    //  使能串口
    USART_Init((USART_TypeDef*)uart_index[uart_num], &USART_InitStructure);
     c2a:	67a9                	lui	a5,0xa
     c2c:	fdc42703          	lw	a4,-36(s0)
     c30:	070a                	slli	a4,a4,0x2
     c32:	d2878793          	addi	a5,a5,-728 # 9d28 <uart_index>
     c36:	97ba                	add	a5,a5,a4
     c38:	439c                	lw	a5,0(a5)
     c3a:	873e                	mv	a4,a5
     c3c:	fe040793          	addi	a5,s0,-32
     c40:	85be                	mv	a1,a5
     c42:	853a                	mv	a0,a4
     c44:	46d010ef          	jal	ra,28b0 <USART_Init>
D:/projects/mechanical_arm/Firmware/UWB/libraries/zf_driver/zf_driver_uart.c:280
    USART_Cmd((USART_TypeDef*)uart_index[uart_num], ENABLE);
     c48:	67a9                	lui	a5,0xa
     c4a:	fdc42703          	lw	a4,-36(s0)
     c4e:	070a                	slli	a4,a4,0x2
     c50:	d2878793          	addi	a5,a5,-728 # 9d28 <uart_index>
     c54:	97ba                	add	a5,a5,a4
     c56:	439c                	lw	a5,0(a5)
     c58:	4585                	li	a1,1
     c5a:	853e                	mv	a0,a5
     c5c:	689010ef          	jal	ra,2ae4 <USART_Cmd>
D:/projects/mechanical_arm/Firmware/UWB/libraries/zf_driver/zf_driver_uart.c:282

}
     c60:	0001                	nop
     c62:	50b2                	lw	ra,44(sp)
     c64:	5422                	lw	s0,40(sp)
     c66:	6145                	addi	sp,sp,48
     c68:	8082                	ret

00000c6a <bluetooth_ch9141_uart_callback_ch1>:
bluetooth_ch9141_uart_callback_ch1():
D:/projects/mechanical_arm/Firmware/UWB/libraries/zf_device/zf_device_bluetooth_ch9141.c:39
//  @since      v1.0
//  Sample usage:
//  @note       该函数在ISR文件 串口8中断程序被调用
//-------------------------------------------------------------------------------------------------------------------
void bluetooth_ch9141_uart_callback_ch1 (void)
{
     c6a:	1141                	addi	sp,sp,-16
     c6c:	c606                	sw	ra,12(sp)
     c6e:	c422                	sw	s0,8(sp)
     c70:	0800                	addi	s0,sp,16
D:/projects/mechanical_arm/Firmware/UWB/libraries/zf_device/zf_device_bluetooth_ch9141.c:40
    uart_query_byte(BLUETOOTH_CH9141_INDEX, &bluetooth_ch9141_data);                // 读取串口数据
     c72:	85018593          	addi	a1,gp,-1968 # 20000280 <_edata>
     c76:	4519                	li	a0,6
     c78:	31d5                	jal	95c <uart_query_byte>
D:/projects/mechanical_arm/Firmware/UWB/libraries/zf_device/zf_device_bluetooth_ch9141.c:41
    fifo_write_buffer(&bluetooth_ch9141_fifo, &bluetooth_ch9141_data, 1);           // 存入 FIFO
     c7a:	4605                	li	a2,1
     c7c:	85018593          	addi	a1,gp,-1968 # 20000280 <_edata>
     c80:	8b018513          	addi	a0,gp,-1872 # 200002e0 <bluetooth_ch9141_fifo>
     c84:	23f1                	jal	1250 <fifo_write_buffer>
D:/projects/mechanical_arm/Firmware/UWB/libraries/zf_device/zf_device_bluetooth_ch9141.c:42
}
     c86:	0001                	nop
     c88:	40b2                	lw	ra,12(sp)
     c8a:	4422                	lw	s0,8(sp)
     c8c:	0141                	addi	sp,sp,16
     c8e:	8082                	ret

00000c90 <bluetooth_ch9141_uart_callback_ch2>:
bluetooth_ch9141_uart_callback_ch2():
D:/projects/mechanical_arm/Firmware/UWB/libraries/zf_device/zf_device_bluetooth_ch9141_ch2.c:41
//  @since      v1.0
//  Sample usage:
//  @note       该函数在ISR文件 串口8中断程序被调用
//-------------------------------------------------------------------------------------------------------------------
void bluetooth_ch9141_uart_callback_ch2 (void)
{
     c90:	1141                	addi	sp,sp,-16
     c92:	c606                	sw	ra,12(sp)
     c94:	c422                	sw	s0,8(sp)
     c96:	0800                	addi	s0,sp,16
D:/projects/mechanical_arm/Firmware/UWB/libraries/zf_device/zf_device_bluetooth_ch9141_ch2.c:42
    uart_query_byte(BLUETOOTH_CH9141_INDEX_CH2, &bluetooth_ch9141_data_ch2);                // 读取串口数据
     c98:	85118593          	addi	a1,gp,-1967 # 20000281 <bluetooth_ch9141_data_ch2>
     c9c:	4505                	li	a0,1
     c9e:	397d                	jal	95c <uart_query_byte>
D:/projects/mechanical_arm/Firmware/UWB/libraries/zf_device/zf_device_bluetooth_ch9141_ch2.c:43
    fifo_write_buffer(&bluetooth_ch9141_fifo_ch2, &bluetooth_ch9141_data_ch2, 1);           // 存入 FIFO
     ca0:	4605                	li	a2,1
     ca2:	85118593          	addi	a1,gp,-1967 # 20000281 <bluetooth_ch9141_data_ch2>
     ca6:	8c418513          	addi	a0,gp,-1852 # 200002f4 <bluetooth_ch9141_fifo_ch2>
     caa:	235d                	jal	1250 <fifo_write_buffer>
D:/projects/mechanical_arm/Firmware/UWB/libraries/zf_device/zf_device_bluetooth_ch9141_ch2.c:45

}
     cac:	0001                	nop
     cae:	40b2                	lw	ra,12(sp)
     cb0:	4422                	lw	s0,8(sp)
     cb2:	0141                	addi	sp,sp,16
     cb4:	8082                	ret

00000cb6 <camera_uart_handler>:
camera_uart_handler():
D:/projects/mechanical_arm/Firmware/UWB/libraries/zf_device/zf_device_camera.c:35
// @param       void
// @return      void
// Sample usage:
//-------------------------------------------------------------------------------------------------------------------
void camera_uart_handler (void)
{
     cb6:	1141                	addi	sp,sp,-16
     cb8:	c606                	sw	ra,12(sp)
     cba:	c422                	sw	s0,8(sp)
     cbc:	0800                	addi	s0,sp,16
D:/projects/mechanical_arm/Firmware/UWB/libraries/zf_device/zf_device_camera.c:36
    if(camera_type == CAMERA_BIN_UART)
     cbe:	8641a703          	lw	a4,-1948(gp) # 20000294 <camera_type>
     cc2:	4789                	li	a5,2
     cc4:	00f70f63          	beq	a4,a5,ce2 <camera_uart_handler+0x2c>
D:/projects/mechanical_arm/Firmware/UWB/libraries/zf_device/zf_device_camera.c:41
    {
        // 小钻风暂不支持
        //ov7725_cof_uart_interrupt();
    }
    else if(camera_type == CAMERA_GRAYSCALE)
     cc8:	8641a703          	lw	a4,-1948(gp) # 20000294 <camera_type>
     ccc:	478d                	li	a5,3
     cce:	00f71463          	bne	a4,a5,cd6 <camera_uart_handler+0x20>
D:/projects/mechanical_arm/Firmware/UWB/libraries/zf_device/zf_device_camera.c:44
    {
        // 总钻风串口回调函数
        mt9v03x_uart_callback_dvp();
     cd2:	2099                	jal	d18 <mt9v03x_uart_callback_dvp>
D:/projects/mechanical_arm/Firmware/UWB/libraries/zf_device/zf_device_camera.c:51
    else if(camera_type == CAMERA_COLOR)
    {
        //凌瞳串口回调函数
        scc8660_uart_callback_dvp();
    }
}
     cd4:	a039                	j	ce2 <camera_uart_handler+0x2c>
D:/projects/mechanical_arm/Firmware/UWB/libraries/zf_device/zf_device_camera.c:46
    else if(camera_type == CAMERA_COLOR)
     cd6:	8641a703          	lw	a4,-1948(gp) # 20000294 <camera_type>
     cda:	4791                	li	a5,4
     cdc:	00f71363          	bne	a4,a5,ce2 <camera_uart_handler+0x2c>
D:/projects/mechanical_arm/Firmware/UWB/libraries/zf_device/zf_device_camera.c:49
        scc8660_uart_callback_dvp();
     ce0:	2845                	jal	d90 <scc8660_uart_callback_dvp>
D:/projects/mechanical_arm/Firmware/UWB/libraries/zf_device/zf_device_camera.c:51
}
     ce2:	0001                	nop
     ce4:	40b2                	lw	ra,12(sp)
     ce6:	4422                	lw	s0,8(sp)
     ce8:	0141                	addi	sp,sp,16
     cea:	8082                	ret

00000cec <camera_dvp_handler>:
camera_dvp_handler():
D:/projects/mechanical_arm/Firmware/UWB/libraries/zf_device/zf_device_camera.c:82
// @param       void
// @return      void
// Sample usage:
//-------------------------------------------------------------------------------------------------------------------
void camera_dvp_handler(void)
{
     cec:	1141                	addi	sp,sp,-16
     cee:	c606                	sw	ra,12(sp)
     cf0:	c422                	sw	s0,8(sp)
     cf2:	0800                	addi	s0,sp,16
D:/projects/mechanical_arm/Firmware/UWB/libraries/zf_device/zf_device_camera.c:83
    if(camera_type == CAMERA_COLOR)
     cf4:	8641a703          	lw	a4,-1948(gp) # 20000294 <camera_type>
     cf8:	4791                	li	a5,4
     cfa:	00f71463          	bne	a4,a5,d02 <camera_dvp_handler+0x16>
D:/projects/mechanical_arm/Firmware/UWB/libraries/zf_device/zf_device_camera.c:85
    {
        scc8660_vsync_dvp();
     cfe:	28dd                	jal	df4 <scc8660_vsync_dvp>
D:/projects/mechanical_arm/Firmware/UWB/libraries/zf_device/zf_device_camera.c:95
    }
    else if(camera_type == CAMERA_BIN_UART)
    {
        //小钻风不支持
    }
}
     d00:	a039                	j	d0e <camera_dvp_handler+0x22>
D:/projects/mechanical_arm/Firmware/UWB/libraries/zf_device/zf_device_camera.c:87
    else if(camera_type == CAMERA_GRAYSCALE)
     d02:	8641a703          	lw	a4,-1948(gp) # 20000294 <camera_type>
     d06:	478d                	li	a5,3
     d08:	00f71363          	bne	a4,a5,d0e <camera_dvp_handler+0x22>
D:/projects/mechanical_arm/Firmware/UWB/libraries/zf_device/zf_device_camera.c:89
        mt9v03x_handler_dvp();
     d0c:	2885                	jal	d7c <mt9v03x_handler_dvp>
D:/projects/mechanical_arm/Firmware/UWB/libraries/zf_device/zf_device_camera.c:95
}
     d0e:	0001                	nop
     d10:	40b2                	lw	ra,12(sp)
     d12:	4422                	lw	s0,8(sp)
     d14:	0141                	addi	sp,sp,16
     d16:	8082                	ret

00000d18 <mt9v03x_uart_callback_dvp>:
mt9v03x_uart_callback_dvp():
D:/projects/mechanical_arm/Firmware/UWB/libraries/zf_device/zf_device_mt9v03x_dvp.c:177
// @param       void
// @return      void
// Sample usage:
//-------------------------------------------------------------------------------------------------------------------
void mt9v03x_uart_callback_dvp (void)
{
     d18:	1141                	addi	sp,sp,-16
     d1a:	c606                	sw	ra,12(sp)
     d1c:	c422                	sw	s0,8(sp)
     d1e:	0800                	addi	s0,sp,16
D:/projects/mechanical_arm/Firmware/UWB/libraries/zf_device/zf_device_mt9v03x_dvp.c:181
//    receive_dvp[receive_num_dvp] = ((USART_TypeDef*)uart_index[MT9V03X_COF_UART_DVP])->DATAR & 0xFF;
//    receive_num_dvp++;

    if(uart_query_byte(MT9V03X_COF_UART_DVP, &receive_dvp[receive_num_dvp]))
     d20:	8571c783          	lbu	a5,-1961(gp) # 20000287 <receive_num_dvp>
     d24:	873e                	mv	a4,a5
     d26:	85418793          	addi	a5,gp,-1964 # 20000284 <receive_dvp>
     d2a:	97ba                	add	a5,a5,a4
     d2c:	85be                	mv	a1,a5
     d2e:	4511                	li	a0,4
     d30:	3135                	jal	95c <uart_query_byte>
     d32:	87aa                	mv	a5,a0
     d34:	cb81                	beqz	a5,d44 <mt9v03x_uart_callback_dvp+0x2c>
D:/projects/mechanical_arm/Firmware/UWB/libraries/zf_device/zf_device_mt9v03x_dvp.c:182
        receive_num_dvp++;
     d36:	8571c783          	lbu	a5,-1961(gp) # 20000287 <receive_num_dvp>
     d3a:	0785                	addi	a5,a5,1
     d3c:	0ff7f713          	andi	a4,a5,255
     d40:	84e18ba3          	sb	a4,-1961(gp) # 20000287 <receive_num_dvp>
D:/projects/mechanical_arm/Firmware/UWB/libraries/zf_device/zf_device_mt9v03x_dvp.c:184

    if(1 == receive_num_dvp && 0XA5!=receive_dvp[0])
     d44:	8571c703          	lbu	a4,-1961(gp) # 20000287 <receive_num_dvp>
     d48:	4785                	li	a5,1
     d4a:	00f71a63          	bne	a4,a5,d5e <mt9v03x_uart_callback_dvp+0x46>
D:/projects/mechanical_arm/Firmware/UWB/libraries/zf_device/zf_device_mt9v03x_dvp.c:184 (discriminator 1)
     d4e:	8541c703          	lbu	a4,-1964(gp) # 20000284 <receive_dvp>
     d52:	0a500793          	li	a5,165
     d56:	00f70463          	beq	a4,a5,d5e <mt9v03x_uart_callback_dvp+0x46>
D:/projects/mechanical_arm/Firmware/UWB/libraries/zf_device/zf_device_mt9v03x_dvp.c:185
        receive_num_dvp = 0;
     d5a:	84018ba3          	sb	zero,-1961(gp) # 20000287 <receive_num_dvp>
D:/projects/mechanical_arm/Firmware/UWB/libraries/zf_device/zf_device_mt9v03x_dvp.c:186
    if(3 == receive_num_dvp)
     d5e:	8571c703          	lbu	a4,-1961(gp) # 20000287 <receive_num_dvp>
     d62:	478d                	li	a5,3
     d64:	00f71763          	bne	a4,a5,d72 <mt9v03x_uart_callback_dvp+0x5a>
D:/projects/mechanical_arm/Firmware/UWB/libraries/zf_device/zf_device_mt9v03x_dvp.c:188
    {
        receive_num_dvp = 0;
     d68:	84018ba3          	sb	zero,-1961(gp) # 20000287 <receive_num_dvp>
D:/projects/mechanical_arm/Firmware/UWB/libraries/zf_device/zf_device_mt9v03x_dvp.c:189
        uart_receive_flag_dvp = 1;
     d6c:	4705                	li	a4,1
     d6e:	84e18c23          	sb	a4,-1960(gp) # 20000288 <uart_receive_flag_dvp>
D:/projects/mechanical_arm/Firmware/UWB/libraries/zf_device/zf_device_mt9v03x_dvp.c:191
    }
}
     d72:	0001                	nop
     d74:	40b2                	lw	ra,12(sp)
     d76:	4422                	lw	s0,8(sp)
     d78:	0141                	addi	sp,sp,16
     d7a:	8082                	ret

00000d7c <mt9v03x_handler_dvp>:
mt9v03x_handler_dvp():
D:/projects/mechanical_arm/Firmware/UWB/libraries/zf_device/zf_device_mt9v03x_dvp.c:306
//  @return     void
//  @since      v1.0
//  Sample usage:               在isr.c里面先创建对应的中断函数，然后调用该函数(之后别忘记清除中断标志位)
//-------------------------------------------------------------------------------------------------------------------
void mt9v03x_handler_dvp(void)
{
     d7c:	1141                	addi	sp,sp,-16
     d7e:	c622                	sw	s0,12(sp)
     d80:	0800                	addi	s0,sp,16
D:/projects/mechanical_arm/Firmware/UWB/libraries/zf_device/zf_device_mt9v03x_dvp.c:309
    //已经修改为循环采集模式。不需要设置地址和开启DVP
    //DVP->DMA_BUF0 = (uint32)camera_buffer_addr;       // 恢复DMA地址
    mt9v03x_finish_flag_dvp = 1;                        // 摄像头采集完成标志位置1
     d82:	4705                	li	a4,1
     d84:	84e18923          	sb	a4,-1966(gp) # 20000282 <mt9v03x_finish_flag_dvp>
D:/projects/mechanical_arm/Firmware/UWB/libraries/zf_device/zf_device_mt9v03x_dvp.c:312
    //已经修改为循环采集模式。不需要设置地址和开启DVP
    //DVP->CR0 |= RB_DVP_ENABLE;                          // 重新打开DVP，采集下一副图像
}
     d88:	0001                	nop
     d8a:	4432                	lw	s0,12(sp)
     d8c:	0141                	addi	sp,sp,16
     d8e:	8082                	ret

00000d90 <scc8660_uart_callback_dvp>:
scc8660_uart_callback_dvp():
D:/projects/mechanical_arm/Firmware/UWB/libraries/zf_device/zf_device_scc8660_dvp.c:106
//  @since      v1.0
//  Sample usage:	
//  @note       该函数在SDK底层fsl_lpuart文件中的串口3中断函数内调用
//-------------------------------------------------------------------------------------------------------------------
void scc8660_uart_callback_dvp(void)
{
     d90:	1141                	addi	sp,sp,-16
     d92:	c606                	sw	ra,12(sp)
     d94:	c422                	sw	s0,8(sp)
     d96:	0800                	addi	s0,sp,16
D:/projects/mechanical_arm/Firmware/UWB/libraries/zf_device/zf_device_scc8660_dvp.c:107
    if(uart_query_byte(SCC8660_COF_UART_DVP, &scc8660_uart_receive_dvp[scc8660_uart_receive_num_dvp]))
     d98:	85f1c783          	lbu	a5,-1953(gp) # 2000028f <scc8660_uart_receive_num_dvp>
     d9c:	873e                	mv	a4,a5
     d9e:	85c18793          	addi	a5,gp,-1956 # 2000028c <scc8660_uart_receive_dvp>
     da2:	97ba                	add	a5,a5,a4
     da4:	85be                	mv	a1,a5
     da6:	4511                	li	a0,4
     da8:	3e55                	jal	95c <uart_query_byte>
     daa:	87aa                	mv	a5,a0
     dac:	cb81                	beqz	a5,dbc <scc8660_uart_callback_dvp+0x2c>
D:/projects/mechanical_arm/Firmware/UWB/libraries/zf_device/zf_device_scc8660_dvp.c:108
        scc8660_uart_receive_num_dvp++;
     dae:	85f1c783          	lbu	a5,-1953(gp) # 2000028f <scc8660_uart_receive_num_dvp>
     db2:	0785                	addi	a5,a5,1
     db4:	0ff7f713          	andi	a4,a5,255
     db8:	84e18fa3          	sb	a4,-1953(gp) # 2000028f <scc8660_uart_receive_num_dvp>
D:/projects/mechanical_arm/Firmware/UWB/libraries/zf_device/zf_device_scc8660_dvp.c:110

    if(1==scc8660_uart_receive_num_dvp && 0XA5!=scc8660_uart_receive_dvp[0])  scc8660_uart_receive_num_dvp = 0;
     dbc:	85f1c703          	lbu	a4,-1953(gp) # 2000028f <scc8660_uart_receive_num_dvp>
     dc0:	4785                	li	a5,1
     dc2:	00f71a63          	bne	a4,a5,dd6 <scc8660_uart_callback_dvp+0x46>
D:/projects/mechanical_arm/Firmware/UWB/libraries/zf_device/zf_device_scc8660_dvp.c:110 (discriminator 1)
     dc6:	85c1c703          	lbu	a4,-1956(gp) # 2000028c <scc8660_uart_receive_dvp>
     dca:	0a500793          	li	a5,165
     dce:	00f70463          	beq	a4,a5,dd6 <scc8660_uart_callback_dvp+0x46>
D:/projects/mechanical_arm/Firmware/UWB/libraries/zf_device/zf_device_scc8660_dvp.c:110 (discriminator 2)
     dd2:	84018fa3          	sb	zero,-1953(gp) # 2000028f <scc8660_uart_receive_num_dvp>
D:/projects/mechanical_arm/Firmware/UWB/libraries/zf_device/zf_device_scc8660_dvp.c:111
    if(3 == scc8660_uart_receive_num_dvp)
     dd6:	85f1c703          	lbu	a4,-1953(gp) # 2000028f <scc8660_uart_receive_num_dvp>
     dda:	478d                	li	a5,3
     ddc:	00f71763          	bne	a4,a5,dea <scc8660_uart_callback_dvp+0x5a>
D:/projects/mechanical_arm/Firmware/UWB/libraries/zf_device/zf_device_scc8660_dvp.c:113
    {
        scc8660_uart_receive_num_dvp = 0;
     de0:	84018fa3          	sb	zero,-1953(gp) # 2000028f <scc8660_uart_receive_num_dvp>
D:/projects/mechanical_arm/Firmware/UWB/libraries/zf_device/zf_device_scc8660_dvp.c:114
        scc8660_uart_receive_flag_dvp = 1;
     de4:	4705                	li	a4,1
     de6:	86e18023          	sb	a4,-1952(gp) # 20000290 <scc8660_uart_receive_flag_dvp>
D:/projects/mechanical_arm/Firmware/UWB/libraries/zf_device/zf_device_scc8660_dvp.c:116
    }
}
     dea:	0001                	nop
     dec:	40b2                	lw	ra,12(sp)
     dee:	4422                	lw	s0,8(sp)
     df0:	0141                	addi	sp,sp,16
     df2:	8082                	ret

00000df4 <scc8660_vsync_dvp>:
scc8660_vsync_dvp():
D:/projects/mechanical_arm/Firmware/UWB/libraries/zf_device/zf_device_scc8660_dvp.c:452
//  @return     void
//  @since      v1.0
//  Sample usage:               在isr.c里面先创建对应的中断函数，然后调用该函数(之后别忘记清除中断标志位)
//-------------------------------------------------------------------------------------------------------------------
void scc8660_vsync_dvp(void)
{
     df4:	1141                	addi	sp,sp,-16
     df6:	c622                	sw	s0,12(sp)
     df8:	0800                	addi	s0,sp,16
D:/projects/mechanical_arm/Firmware/UWB/libraries/zf_device/zf_device_scc8660_dvp.c:458
    //已经修改为循环采集模式。不需要设置地址和开启DVP
    //恢复DMA地址
    //DVP->DMA_BUF0 = (uint32)camera_buffer_addr;

    //采集完成标志位置1
    scc8660_finish_flag_dvp = 1;
     dfa:	4705                	li	a4,1
     dfc:	86e180a3          	sb	a4,-1951(gp) # 20000291 <scc8660_finish_flag_dvp>
D:/projects/mechanical_arm/Firmware/UWB/libraries/zf_device/zf_device_scc8660_dvp.c:463

    //已经修改为循环采集模式。不需要设置地址和开启DVP
    //开启DVP
    //DVP->CR0 |= RB_DVP_ENABLE;
}
     e00:	0001                	nop
     e02:	4432                	lw	s0,12(sp)
     e04:	0141                	addi	sp,sp,16
     e06:	8082                	ret

00000e08 <wireless_ch573_callback>:
wireless_ch573_callback():
D:/projects/mechanical_arm/Firmware/UWB/libraries/zf_device/zf_device_wireless_ch573.c:37
// @return      void
// Sample usage:
// @note
//-------------------------------------------------------------------------------------------------------------------
void wireless_ch573_callback (void)
{
     e08:	1141                	addi	sp,sp,-16
     e0a:	c606                	sw	ra,12(sp)
     e0c:	c422                	sw	s0,8(sp)
     e0e:	0800                	addi	s0,sp,16
D:/projects/mechanical_arm/Firmware/UWB/libraries/zf_device/zf_device_wireless_ch573.c:38
    uart_query_byte(WIRELESS_CH573_INDEX, &wireless_ch573_data);
     e10:	86c18593          	addi	a1,gp,-1940 # 2000029c <wireless_ch573_data>
     e14:	4505                	li	a0,1
     e16:	3699                	jal	95c <uart_query_byte>
D:/projects/mechanical_arm/Firmware/UWB/libraries/zf_device/zf_device_wireless_ch573.c:39
    fifo_write_buffer(&wireless_ch573_fifo, &wireless_ch573_data, 1);
     e18:	4605                	li	a2,1
     e1a:	86c18593          	addi	a1,gp,-1940 # 2000029c <wireless_ch573_data>
     e1e:	8d818513          	addi	a0,gp,-1832 # 20000308 <wireless_ch573_fifo>
     e22:	213d                	jal	1250 <fifo_write_buffer>
D:/projects/mechanical_arm/Firmware/UWB/libraries/zf_device/zf_device_wireless_ch573.c:41

}
     e24:	0001                	nop
     e26:	40b2                	lw	ra,12(sp)
     e28:	4422                	lw	s0,8(sp)
     e2a:	0141                	addi	sp,sp,16
     e2c:	8082                	ret

00000e2e <wireless_uart_callback>:
wireless_uart_callback():
D:/projects/mechanical_arm/Firmware/UWB/libraries/zf_device/zf_device_wireless_uart.c:41
// @return      void
// Sample usage:
// @note
//-------------------------------------------------------------------------------------------------------------------
void wireless_uart_callback (void)
{
     e2e:	1141                	addi	sp,sp,-16
     e30:	c606                	sw	ra,12(sp)
     e32:	c422                	sw	s0,8(sp)
     e34:	0800                	addi	s0,sp,16
D:/projects/mechanical_arm/Firmware/UWB/libraries/zf_device/zf_device_wireless_uart.c:42
    uart_query_byte(WIRELESS_UART_INDEX, &wireless_uart_data);
     e36:	86d18593          	addi	a1,gp,-1939 # 2000029d <wireless_uart_data>
     e3a:	4505                	li	a0,1
     e3c:	3605                	jal	95c <uart_query_byte>
D:/projects/mechanical_arm/Firmware/UWB/libraries/zf_device/zf_device_wireless_uart.c:43
    fifo_write_buffer(&wireless_uart_fifo, &wireless_uart_data, 1);
     e3e:	4605                	li	a2,1
     e40:	86d18593          	addi	a1,gp,-1939 # 2000029d <wireless_uart_data>
     e44:	8ec18513          	addi	a0,gp,-1812 # 2000031c <wireless_uart_fifo>
     e48:	2121                	jal	1250 <fifo_write_buffer>
D:/projects/mechanical_arm/Firmware/UWB/libraries/zf_device/zf_device_wireless_uart.c:51
    {
        wireless_auto_baud_flag = 3;
        fifo_read_buffer(&wireless_uart_fifo, (uint8 *)wireless_auto_baud_data, (uint32 *)&wireless_auto_baud_flag, FIFO_READ_AND_CLEAN);
    }
#endif
}
     e4a:	0001                	nop
     e4c:	40b2                	lw	ra,12(sp)
     e4e:	4422                	lw	s0,8(sp)
     e50:	0141                	addi	sp,sp,16
     e52:	8082                	ret

00000e54 <clock_init>:
clock_init():
D:/projects/mechanical_arm/Firmware/UWB/libraries/zf_common/zf_common_clock.c:36
// @param       clock           时钟频率 推荐使用 zf_common_clock.h 中 system_clock_enum 定义的选项
// @return      void
// Sample usage:                clock_init(SYSTEM_CLOCK_144M);                   // 初始化核心时钟为 144MHz
//-------------------------------------------------------------------------------------------------------------------
void clock_init (uint32 clock)
{
     e54:	1101                	addi	sp,sp,-32
     e56:	ce06                	sw	ra,28(sp)
     e58:	cc22                	sw	s0,24(sp)
     e5a:	1000                	addi	s0,sp,32
     e5c:	fea42623          	sw	a0,-20(s0)
D:/projects/mechanical_arm/Firmware/UWB/libraries/zf_common/zf_common_clock.c:37
    system_clock = clock;                                                       // 记录核心时钟频率
     e60:	fec42703          	lw	a4,-20(s0)
     e64:	86e1a823          	sw	a4,-1936(gp) # 200002a0 <system_clock>
D:/projects/mechanical_arm/Firmware/UWB/libraries/zf_common/zf_common_clock.c:38
    clock_reset();
     e68:	2811                	jal	e7c <clock_reset>
D:/projects/mechanical_arm/Firmware/UWB/libraries/zf_common/zf_common_clock.c:39
    clock_set_freq(clock);
     e6a:	fec42503          	lw	a0,-20(s0)
     e6e:	2051                	jal	ef2 <clock_set_freq>
D:/projects/mechanical_arm/Firmware/UWB/libraries/zf_common/zf_common_clock.c:40
    interrupt_init();
     e70:	2bb5                	jal	13ec <interrupt_init>
D:/projects/mechanical_arm/Firmware/UWB/libraries/zf_common/zf_common_clock.c:41
}
     e72:	0001                	nop
     e74:	40f2                	lw	ra,28(sp)
     e76:	4462                	lw	s0,24(sp)
     e78:	6105                	addi	sp,sp,32
     e7a:	8082                	ret

00000e7c <clock_reset>:
clock_reset():
D:/projects/mechanical_arm/Firmware/UWB/libraries/zf_common/zf_common_clock.c:49
// @brief       核心时钟恢复初始设置 内部调用
// @param       void
// @return      void
//-------------------------------------------------------------------------------------------------------------------
static void clock_reset (void)
{
     e7c:	1141                	addi	sp,sp,-16
     e7e:	c622                	sw	s0,12(sp)
     e80:	0800                	addi	s0,sp,16
D:/projects/mechanical_arm/Firmware/UWB/libraries/zf_common/zf_common_clock.c:50
    RCC->CTLR |= (uint32)0x00000001;      //使能HSI振荡器
     e82:	400217b7          	lui	a5,0x40021
     e86:	4398                	lw	a4,0(a5)
     e88:	400217b7          	lui	a5,0x40021
     e8c:	00176713          	ori	a4,a4,1
     e90:	c398                	sw	a4,0(a5)
D:/projects/mechanical_arm/Firmware/UWB/libraries/zf_common/zf_common_clock.c:51
    RCC->CFGR0 &= (uint32)0xF8FF0000;
     e92:	400217b7          	lui	a5,0x40021
     e96:	43d4                	lw	a3,4(a5)
     e98:	400217b7          	lui	a5,0x40021
     e9c:	f8ff0737          	lui	a4,0xf8ff0
     ea0:	8f75                	and	a4,a4,a3
     ea2:	c3d8                	sw	a4,4(a5)
D:/projects/mechanical_arm/Firmware/UWB/libraries/zf_common/zf_common_clock.c:52
    RCC->CTLR &= (uint32)0xFEF6FFFF;
     ea4:	400217b7          	lui	a5,0x40021
     ea8:	4394                	lw	a3,0(a5)
     eaa:	400217b7          	lui	a5,0x40021
     eae:	fef70737          	lui	a4,0xfef70
     eb2:	177d                	addi	a4,a4,-1
     eb4:	8f75                	and	a4,a4,a3
     eb6:	c398                	sw	a4,0(a5)
D:/projects/mechanical_arm/Firmware/UWB/libraries/zf_common/zf_common_clock.c:53
    RCC->CTLR &= (uint32)0xFFFBFFFF;
     eb8:	400217b7          	lui	a5,0x40021
     ebc:	4394                	lw	a3,0(a5)
     ebe:	400217b7          	lui	a5,0x40021
     ec2:	fffc0737          	lui	a4,0xfffc0
     ec6:	177d                	addi	a4,a4,-1
     ec8:	8f75                	and	a4,a4,a3
     eca:	c398                	sw	a4,0(a5)
D:/projects/mechanical_arm/Firmware/UWB/libraries/zf_common/zf_common_clock.c:54
    RCC->CFGR0 &= (uint32)0xFF80FFFF;
     ecc:	400217b7          	lui	a5,0x40021
     ed0:	43d4                	lw	a3,4(a5)
     ed2:	400217b7          	lui	a5,0x40021
     ed6:	ff810737          	lui	a4,0xff810
     eda:	177d                	addi	a4,a4,-1
     edc:	8f75                	and	a4,a4,a3
     ede:	c3d8                	sw	a4,4(a5)
D:/projects/mechanical_arm/Firmware/UWB/libraries/zf_common/zf_common_clock.c:55
    RCC->INTR = 0x009F0000;                 // 禁用所有中断并清除挂起位
     ee0:	400217b7          	lui	a5,0x40021
     ee4:	009f0737          	lui	a4,0x9f0
     ee8:	c798                	sw	a4,8(a5)
D:/projects/mechanical_arm/Firmware/UWB/libraries/zf_common/zf_common_clock.c:56
}
     eea:	0001                	nop
     eec:	4432                	lw	s0,12(sp)
     eee:	0141                	addi	sp,sp,16
     ef0:	8082                	ret

00000ef2 <clock_set_freq>:
clock_set_freq():
D:/projects/mechanical_arm/Firmware/UWB/libraries/zf_common/zf_common_clock.c:66
// @brief       核心时钟设置
// @param       clock           时钟频率 推荐使用 zf_common_clock.h 中 system_clock_enum 定义的选项
// @return      void
//-------------------------------------------------------------------------------------------------------------------
static void clock_set_freq (uint32 clock)
{
     ef2:	7179                	addi	sp,sp,-48
     ef4:	d622                	sw	s0,44(sp)
     ef6:	1800                	addi	s0,sp,48
     ef8:	fca42e23          	sw	a0,-36(s0)
D:/projects/mechanical_arm/Firmware/UWB/libraries/zf_common/zf_common_clock.c:67
    __IO uint32 StartUpCounter = 0, HSEStatus = 0;
     efc:	fe042623          	sw	zero,-20(s0)
     f00:	fe042423          	sw	zero,-24(s0)
D:/projects/mechanical_arm/Firmware/UWB/libraries/zf_common/zf_common_clock.c:69

    RCC->CTLR |= ((uint32)RCC_HSEON);
     f04:	400217b7          	lui	a5,0x40021
     f08:	4394                	lw	a3,0(a5)
     f0a:	400217b7          	lui	a5,0x40021
     f0e:	6741                	lui	a4,0x10
     f10:	8f55                	or	a4,a4,a3
     f12:	c398                	sw	a4,0(a5)
D:/projects/mechanical_arm/Firmware/UWB/libraries/zf_common/zf_common_clock.c:74 (discriminator 2)

    /* Wait till HSE is ready and if Time out is reached exit */
    do
    {
        HSEStatus = RCC->CTLR & RCC_HSERDY;
     f14:	400217b7          	lui	a5,0x40021
     f18:	4398                	lw	a4,0(a5)
     f1a:	000207b7          	lui	a5,0x20
     f1e:	8ff9                	and	a5,a5,a4
     f20:	fef42423          	sw	a5,-24(s0)
D:/projects/mechanical_arm/Firmware/UWB/libraries/zf_common/zf_common_clock.c:75 (discriminator 2)
        StartUpCounter++;
     f24:	fec42783          	lw	a5,-20(s0)
     f28:	0785                	addi	a5,a5,1
     f2a:	fef42623          	sw	a5,-20(s0)
D:/projects/mechanical_arm/Firmware/UWB/libraries/zf_common/zf_common_clock.c:76 (discriminator 2)
    } while((HSEStatus == 0) && (StartUpCounter != HSE_STARTUP_TIMEOUT));
     f2e:	fe842783          	lw	a5,-24(s0)
     f32:	e799                	bnez	a5,f40 <clock_set_freq+0x4e>
D:/projects/mechanical_arm/Firmware/UWB/libraries/zf_common/zf_common_clock.c:76 (discriminator 1)
     f34:	fec42703          	lw	a4,-20(s0)
     f38:	50000793          	li	a5,1280
     f3c:	fcf71ce3          	bne	a4,a5,f14 <clock_set_freq+0x22>
D:/projects/mechanical_arm/Firmware/UWB/libraries/zf_common/zf_common_clock.c:78

    if ((RCC->CTLR & RCC_HSERDY) != RESET)
     f40:	400217b7          	lui	a5,0x40021
     f44:	4398                	lw	a4,0(a5)
     f46:	000207b7          	lui	a5,0x20
     f4a:	8ff9                	and	a5,a5,a4
     f4c:	c789                	beqz	a5,f56 <clock_set_freq+0x64>
D:/projects/mechanical_arm/Firmware/UWB/libraries/zf_common/zf_common_clock.c:80
    {
        HSEStatus = (uint32)0x01;
     f4e:	4785                	li	a5,1
     f50:	fef42423          	sw	a5,-24(s0)
     f54:	a019                	j	f5a <clock_set_freq+0x68>
D:/projects/mechanical_arm/Firmware/UWB/libraries/zf_common/zf_common_clock.c:84
    }
    else
    {
        HSEStatus = (uint32)0x00;
     f56:	fe042423          	sw	zero,-24(s0)
D:/projects/mechanical_arm/Firmware/UWB/libraries/zf_common/zf_common_clock.c:87
    }

    if (HSEStatus == (uint32)0x01)
     f5a:	fe842703          	lw	a4,-24(s0)
     f5e:	4785                	li	a5,1
     f60:	1ef71563          	bne	a4,a5,114a <clock_set_freq+0x258>
D:/projects/mechanical_arm/Firmware/UWB/libraries/zf_common/zf_common_clock.c:90
    {
        /* Enable Prefetch Buffer */
        FLASH->ACTLR |= FLASH_ACTLR_PRFTBE;
     f64:	400227b7          	lui	a5,0x40022
     f68:	4398                	lw	a4,0(a5)
     f6a:	400227b7          	lui	a5,0x40022
     f6e:	01076713          	ori	a4,a4,16
     f72:	c398                	sw	a4,0(a5)
D:/projects/mechanical_arm/Firmware/UWB/libraries/zf_common/zf_common_clock.c:93

        /* Flash wait state */
        FLASH->ACTLR &= (uint32)((uint32)~FLASH_ACTLR_LATENCY);
     f74:	400227b7          	lui	a5,0x40022
     f78:	4398                	lw	a4,0(a5)
     f7a:	400227b7          	lui	a5,0x40022
     f7e:	9b71                	andi	a4,a4,-4
     f80:	c398                	sw	a4,0(a5)
D:/projects/mechanical_arm/Firmware/UWB/libraries/zf_common/zf_common_clock.c:95

        FLASH->ACTLR |= (((clock-1)/24000000)&0x07);
     f82:	400227b7          	lui	a5,0x40022
     f86:	4394                	lw	a3,0(a5)
     f88:	fdc42783          	lw	a5,-36(s0)
     f8c:	fff78713          	addi	a4,a5,-1 # 40021fff <_eusrstack+0x20011fff>
     f90:	016e37b7          	lui	a5,0x16e3
     f94:	60078793          	addi	a5,a5,1536 # 16e3600 <_data_lma+0x16d91dc>
     f98:	02f757b3          	divu	a5,a4,a5
     f9c:	0077f713          	andi	a4,a5,7
     fa0:	400227b7          	lui	a5,0x40022
     fa4:	8f55                	or	a4,a4,a3
     fa6:	c398                	sw	a4,0(a5)
D:/projects/mechanical_arm/Firmware/UWB/libraries/zf_common/zf_common_clock.c:98

        /* HCLK = SYSCLK */
        RCC->CFGR0 |= (uint32)RCC_HPRE_DIV1;
     fa8:	40021737          	lui	a4,0x40021
     fac:	400217b7          	lui	a5,0x40021
     fb0:	4358                	lw	a4,4(a4)
     fb2:	c3d8                	sw	a4,4(a5)
D:/projects/mechanical_arm/Firmware/UWB/libraries/zf_common/zf_common_clock.c:100
        /* PCLK2 = HCLK */
        RCC->CFGR0 |= (uint32)RCC_PPRE2_DIV1;
     fb4:	40021737          	lui	a4,0x40021
     fb8:	400217b7          	lui	a5,0x40021
     fbc:	4358                	lw	a4,4(a4)
     fbe:	c3d8                	sw	a4,4(a5)
D:/projects/mechanical_arm/Firmware/UWB/libraries/zf_common/zf_common_clock.c:102
        /* PCLK1 = HCLK */
        RCC->CFGR0 |= (uint32)RCC_PPRE1_DIV1;
     fc0:	40021737          	lui	a4,0x40021
     fc4:	400217b7          	lui	a5,0x40021
     fc8:	4358                	lw	a4,4(a4)
     fca:	c3d8                	sw	a4,4(a5)
D:/projects/mechanical_arm/Firmware/UWB/libraries/zf_common/zf_common_clock.c:105


        if(clock == SYSTEM_CLOCK_XTAL)
     fcc:	fdc42703          	lw	a4,-36(s0)
     fd0:	007a17b7          	lui	a5,0x7a1
     fd4:	20078793          	addi	a5,a5,512 # 7a1200 <_data_lma+0x796ddc>
     fd8:	02f71b63          	bne	a4,a5,100e <clock_set_freq+0x11c>
D:/projects/mechanical_arm/Firmware/UWB/libraries/zf_common/zf_common_clock.c:108
        {
            /* Select HSE as system clock source */
            RCC->CFGR0 &= (uint32)((uint32)~(RCC_SW));
     fdc:	400217b7          	lui	a5,0x40021
     fe0:	43d8                	lw	a4,4(a5)
     fe2:	400217b7          	lui	a5,0x40021
     fe6:	9b71                	andi	a4,a4,-4
     fe8:	c3d8                	sw	a4,4(a5)
D:/projects/mechanical_arm/Firmware/UWB/libraries/zf_common/zf_common_clock.c:109
            RCC->CFGR0 |= (uint32)RCC_SW_HSE;
     fea:	400217b7          	lui	a5,0x40021
     fee:	43d8                	lw	a4,4(a5)
     ff0:	400217b7          	lui	a5,0x40021
     ff4:	00176713          	ori	a4,a4,1
     ff8:	c3d8                	sw	a4,4(a5)
D:/projects/mechanical_arm/Firmware/UWB/libraries/zf_common/zf_common_clock.c:111
            /* Wait till HSE is used as system clock source */
            while ((RCC->CFGR0 & (uint32)RCC_SWS) != (uint32)0x04)
     ffa:	0001                	nop
D:/projects/mechanical_arm/Firmware/UWB/libraries/zf_common/zf_common_clock.c:111 (discriminator 1)
     ffc:	400217b7          	lui	a5,0x40021
    1000:	43dc                	lw	a5,4(a5)
    1002:	00c7f713          	andi	a4,a5,12
    1006:	4791                	li	a5,4
    1008:	fef71ae3          	bne	a4,a5,ffc <clock_set_freq+0x10a>
D:/projects/mechanical_arm/Firmware/UWB/libraries/zf_common/zf_common_clock.c:161
        /*
        * If HSE fails to start-up, the application will have wrong clock
        * configuration. User can add here some code to deal with this error
        */
    }
}
    100c:	a281                	j	114c <clock_set_freq+0x25a>
D:/projects/mechanical_arm/Firmware/UWB/libraries/zf_common/zf_common_clock.c:118
            RCC->CFGR0 &= (uint32)((uint32)~(RCC_PLLSRC | RCC_PLLXTPRE | RCC_PLLMULL));
    100e:	400217b7          	lui	a5,0x40021
    1012:	43d4                	lw	a3,4(a5)
    1014:	400217b7          	lui	a5,0x40021
    1018:	ffc10737          	lui	a4,0xffc10
    101c:	177d                	addi	a4,a4,-1
    101e:	8f75                	and	a4,a4,a3
    1020:	c3d8                	sw	a4,4(a5)
D:/projects/mechanical_arm/Firmware/UWB/libraries/zf_common/zf_common_clock.c:120
            if(clock == SYSTEM_CLOCK_144M)
    1022:	fdc42703          	lw	a4,-36(s0)
    1026:	089547b7          	lui	a5,0x8954
    102a:	40078793          	addi	a5,a5,1024 # 8954400 <_data_lma+0x8949fdc>
    102e:	00f71b63          	bne	a4,a5,1044 <clock_set_freq+0x152>
D:/projects/mechanical_arm/Firmware/UWB/libraries/zf_common/zf_common_clock.c:121
            RCC->CFGR0 |= (uint32)(RCC_PLLSRC_HSE | RCC_PLLXTPRE_HSE | RCC_PLLMULL18_EXTEN);
    1032:	400217b7          	lui	a5,0x40021
    1036:	43d4                	lw	a3,4(a5)
    1038:	400217b7          	lui	a5,0x40021
    103c:	6741                	lui	a4,0x10
    103e:	8f55                	or	a4,a4,a3
    1040:	c3d8                	sw	a4,4(a5)
    1042:	a855                	j	10f6 <clock_set_freq+0x204>
D:/projects/mechanical_arm/Firmware/UWB/libraries/zf_common/zf_common_clock.c:122
            else if(clock == SYSTEM_CLOCK_120M)
    1044:	fdc42703          	lw	a4,-36(s0)
    1048:	072717b7          	lui	a5,0x7271
    104c:	e0078793          	addi	a5,a5,-512 # 7270e00 <_data_lma+0x72669dc>
    1050:	00f71c63          	bne	a4,a5,1068 <clock_set_freq+0x176>
D:/projects/mechanical_arm/Firmware/UWB/libraries/zf_common/zf_common_clock.c:123
            RCC->CFGR0 |= (uint32)(RCC_PLLSRC_HSE | RCC_PLLXTPRE_HSE | RCC_PLLMULL15_EXTEN);
    1054:	400217b7          	lui	a5,0x40021
    1058:	43d4                	lw	a3,4(a5)
    105a:	400217b7          	lui	a5,0x40021
    105e:	00390737          	lui	a4,0x390
    1062:	8f55                	or	a4,a4,a3
    1064:	c3d8                	sw	a4,4(a5)
    1066:	a841                	j	10f6 <clock_set_freq+0x204>
D:/projects/mechanical_arm/Firmware/UWB/libraries/zf_common/zf_common_clock.c:124
            else if(clock == SYSTEM_CLOCK_96M)
    1068:	fdc42703          	lw	a4,-36(s0)
    106c:	05b8e7b7          	lui	a5,0x5b8e
    1070:	80078793          	addi	a5,a5,-2048 # 5b8d800 <_data_lma+0x5b833dc>
    1074:	00f71c63          	bne	a4,a5,108c <clock_set_freq+0x19a>
D:/projects/mechanical_arm/Firmware/UWB/libraries/zf_common/zf_common_clock.c:125
            RCC->CFGR0 |= (uint32)(RCC_PLLSRC_HSE | RCC_PLLXTPRE_HSE | RCC_PLLMULL12_EXTEN);
    1078:	400217b7          	lui	a5,0x40021
    107c:	43d4                	lw	a3,4(a5)
    107e:	400217b7          	lui	a5,0x40021
    1082:	00290737          	lui	a4,0x290
    1086:	8f55                	or	a4,a4,a3
    1088:	c3d8                	sw	a4,4(a5)
    108a:	a0b5                	j	10f6 <clock_set_freq+0x204>
D:/projects/mechanical_arm/Firmware/UWB/libraries/zf_common/zf_common_clock.c:126
            else if(clock == SYSTEM_CLOCK_72M)
    108c:	fdc42703          	lw	a4,-36(s0)
    1090:	044aa7b7          	lui	a5,0x44aa
    1094:	20078793          	addi	a5,a5,512 # 44aa200 <_data_lma+0x449fddc>
    1098:	00f71c63          	bne	a4,a5,10b0 <clock_set_freq+0x1be>
D:/projects/mechanical_arm/Firmware/UWB/libraries/zf_common/zf_common_clock.c:127
            RCC->CFGR0 |= (uint32)(RCC_PLLSRC_HSE | RCC_PLLXTPRE_HSE | RCC_PLLMULL9_EXTEN);
    109c:	400217b7          	lui	a5,0x40021
    10a0:	43d4                	lw	a3,4(a5)
    10a2:	400217b7          	lui	a5,0x40021
    10a6:	001d0737          	lui	a4,0x1d0
    10aa:	8f55                	or	a4,a4,a3
    10ac:	c3d8                	sw	a4,4(a5)
    10ae:	a0a1                	j	10f6 <clock_set_freq+0x204>
D:/projects/mechanical_arm/Firmware/UWB/libraries/zf_common/zf_common_clock.c:128
            else if(clock == SYSTEM_CLOCK_48M)
    10b0:	fdc42703          	lw	a4,-36(s0)
    10b4:	02dc77b7          	lui	a5,0x2dc7
    10b8:	c0078793          	addi	a5,a5,-1024 # 2dc6c00 <_data_lma+0x2dbc7dc>
    10bc:	00f71c63          	bne	a4,a5,10d4 <clock_set_freq+0x1e2>
D:/projects/mechanical_arm/Firmware/UWB/libraries/zf_common/zf_common_clock.c:129
            RCC->CFGR0 |= (uint32)(RCC_PLLSRC_HSE | RCC_PLLXTPRE_HSE | RCC_PLLMULL6_EXTEN);
    10c0:	400217b7          	lui	a5,0x40021
    10c4:	43d4                	lw	a3,4(a5)
    10c6:	400217b7          	lui	a5,0x40021
    10ca:	00110737          	lui	a4,0x110
    10ce:	8f55                	or	a4,a4,a3
    10d0:	c3d8                	sw	a4,4(a5)
    10d2:	a015                	j	10f6 <clock_set_freq+0x204>
D:/projects/mechanical_arm/Firmware/UWB/libraries/zf_common/zf_common_clock.c:130
            else if(clock == SYSTEM_CLOCK_24M)
    10d4:	fdc42703          	lw	a4,-36(s0)
    10d8:	016e37b7          	lui	a5,0x16e3
    10dc:	60078793          	addi	a5,a5,1536 # 16e3600 <_data_lma+0x16d91dc>
    10e0:	00f71b63          	bne	a4,a5,10f6 <clock_set_freq+0x204>
D:/projects/mechanical_arm/Firmware/UWB/libraries/zf_common/zf_common_clock.c:131
            RCC->CFGR0 |= (uint32)(RCC_PLLSRC_HSE | RCC_PLLXTPRE_HSE | RCC_PLLMULL3_EXTEN);
    10e4:	400217b7          	lui	a5,0x40021
    10e8:	43d4                	lw	a3,4(a5)
    10ea:	400217b7          	lui	a5,0x40021
    10ee:	00050737          	lui	a4,0x50
    10f2:	8f55                	or	a4,a4,a3
    10f4:	c3d8                	sw	a4,4(a5)
D:/projects/mechanical_arm/Firmware/UWB/libraries/zf_common/zf_common_clock.c:138
            RCC->CTLR |= RCC_PLLON;
    10f6:	400217b7          	lui	a5,0x40021
    10fa:	4394                	lw	a3,0(a5)
    10fc:	400217b7          	lui	a5,0x40021
    1100:	01000737          	lui	a4,0x1000
    1104:	8f55                	or	a4,a4,a3
    1106:	c398                	sw	a4,0(a5)
D:/projects/mechanical_arm/Firmware/UWB/libraries/zf_common/zf_common_clock.c:140
            while((RCC->CTLR & RCC_PLLRDY) == 0)
    1108:	0001                	nop
D:/projects/mechanical_arm/Firmware/UWB/libraries/zf_common/zf_common_clock.c:140 (discriminator 1)
    110a:	400217b7          	lui	a5,0x40021
    110e:	4398                	lw	a4,0(a5)
    1110:	020007b7          	lui	a5,0x2000
    1114:	8ff9                	and	a5,a5,a4
    1116:	dbf5                	beqz	a5,110a <clock_set_freq+0x218>
D:/projects/mechanical_arm/Firmware/UWB/libraries/zf_common/zf_common_clock.c:144
            RCC->CFGR0 &= (uint32)((uint32)~(RCC_SW));
    1118:	400217b7          	lui	a5,0x40021
    111c:	43d8                	lw	a4,4(a5)
    111e:	400217b7          	lui	a5,0x40021
    1122:	9b71                	andi	a4,a4,-4
    1124:	c3d8                	sw	a4,4(a5)
D:/projects/mechanical_arm/Firmware/UWB/libraries/zf_common/zf_common_clock.c:145
            RCC->CFGR0 |= (uint32)RCC_SW_PLL;
    1126:	400217b7          	lui	a5,0x40021
    112a:	43d8                	lw	a4,4(a5)
    112c:	400217b7          	lui	a5,0x40021
    1130:	00276713          	ori	a4,a4,2
    1134:	c3d8                	sw	a4,4(a5)
D:/projects/mechanical_arm/Firmware/UWB/libraries/zf_common/zf_common_clock.c:147
            while ((RCC->CFGR0 & (uint32)RCC_SWS) != (uint32)0x08)
    1136:	0001                	nop
D:/projects/mechanical_arm/Firmware/UWB/libraries/zf_common/zf_common_clock.c:147 (discriminator 1)
    1138:	400217b7          	lui	a5,0x40021
    113c:	43dc                	lw	a5,4(a5)
    113e:	00c7f713          	andi	a4,a5,12
    1142:	47a1                	li	a5,8
    1144:	fef71ae3          	bne	a4,a5,1138 <clock_set_freq+0x246>
D:/projects/mechanical_arm/Firmware/UWB/libraries/zf_common/zf_common_clock.c:161
}
    1148:	a011                	j	114c <clock_set_freq+0x25a>
D:/projects/mechanical_arm/Firmware/UWB/libraries/zf_common/zf_common_clock.c:155 (discriminator 2)
        while(1);           // 外部晶振不稳定或缺失 时钟设置失败
    114a:	a001                	j	114a <clock_set_freq+0x258>
D:/projects/mechanical_arm/Firmware/UWB/libraries/zf_common/zf_common_clock.c:161
}
    114c:	5432                	lw	s0,44(sp)
    114e:	6145                	addi	sp,sp,48
    1150:	8082                	ret

00001152 <debug_init>:
debug_init():
D:/projects/mechanical_arm/Firmware/UWB/libraries/zf_common/zf_common_debug.c:41
// @param       void
// @return      void
// Sample usage:
//-------------------------------------------------------------------------------------------------------------------
void debug_init (void)
{
    1152:	1141                	addi	sp,sp,-16
    1154:	c606                	sw	ra,12(sp)
    1156:	c422                	sw	s0,8(sp)
    1158:	0800                	addi	s0,sp,16
D:/projects/mechanical_arm/Firmware/UWB/libraries/zf_common/zf_common_debug.c:48
//    GPIO_DeInit(GPIOB);
//    GPIO_DeInit(GPIOC);
//    GPIO_DeInit(GPIOD);
//    GPIO_DeInit(GPIOE);

    uart_init(
    115a:	02100693          	li	a3,33
    115e:	02000613          	li	a2,32
    1162:	67f1                	lui	a5,0x1c
    1164:	20078593          	addi	a1,a5,512 # 1c200 <_data_lma+0x11ddc>
    1168:	4509                	li	a0,2
    116a:	851ff0ef          	jal	ra,9ba <uart_init>
D:/projects/mechanical_arm/Firmware/UWB/libraries/zf_common/zf_common_debug.c:56
        DEBUG_UART_TX_PIN,                                                      // 在 zf_common_debug.h 中查看对应值
        DEBUG_UART_RX_PIN);                                                     // 在 zf_common_debug.h 中查看对应值

    if(DEBUG_UART_USE_INTERRUPT)                                                // 如果启用串口中断
    {
        uart_rx_interrupt(DEBUG_UART_INDEX, 1);                                 // 使能对应串口接收中断
    116e:	4585                	li	a1,1
    1170:	4509                	li	a0,2
    1172:	f64ff0ef          	jal	ra,8d6 <uart_rx_interrupt>
D:/projects/mechanical_arm/Firmware/UWB/libraries/zf_common/zf_common_debug.c:58
    }
    zf_debug_init_flag = 1;
    1176:	4705                	li	a4,1
    1178:	86e18a23          	sb	a4,-1932(gp) # 200002a4 <zf_debug_init_flag>
D:/projects/mechanical_arm/Firmware/UWB/libraries/zf_common/zf_common_debug.c:59
}
    117c:	0001                	nop
    117e:	40b2                	lw	ra,12(sp)
    1180:	4422                	lw	s0,8(sp)
    1182:	0141                	addi	sp,sp,16
    1184:	8082                	ret

00001186 <_write>:
_write():
D:/projects/mechanical_arm/Firmware/UWB/libraries/zf_common/zf_common_debug.c:159
//  @since      v1.0
//  Sample usage:              重定向printf到DEBUG串口上
//-------------------------------------------------------------------------------------------------------------------
#if (1 == PRINTF_ENABLE)
int _write(int fd, char *buf, int size)
{
    1186:	7179                	addi	sp,sp,-48
    1188:	d606                	sw	ra,44(sp)
    118a:	d422                	sw	s0,40(sp)
    118c:	1800                	addi	s0,sp,48
    118e:	fca42e23          	sw	a0,-36(s0)
    1192:	fcb42c23          	sw	a1,-40(s0)
    1196:	fcc42a23          	sw	a2,-44(s0)
D:/projects/mechanical_arm/Firmware/UWB/libraries/zf_common/zf_common_debug.c:161
    int i;
    for(i=0; i<size; i++)
    119a:	fe042623          	sw	zero,-20(s0)
    119e:	a0a9                	j	11e8 <_write+0x62>
D:/projects/mechanical_arm/Firmware/UWB/libraries/zf_common/zf_common_debug.c:163
    {
        while (USART_GetFlagStatus((USART_TypeDef*)uart_index[DEBUG_UART_INDEX], USART_FLAG_TC) == RESET);
    11a0:	0001                	nop
D:/projects/mechanical_arm/Firmware/UWB/libraries/zf_common/zf_common_debug.c:163 (discriminator 1)
    11a2:	67a9                	lui	a5,0xa
    11a4:	d2878793          	addi	a5,a5,-728 # 9d28 <uart_index>
    11a8:	479c                	lw	a5,8(a5)
    11aa:	04000593          	li	a1,64
    11ae:	853e                	mv	a0,a5
    11b0:	287010ef          	jal	ra,2c36 <USART_GetFlagStatus>
    11b4:	87aa                	mv	a5,a0
    11b6:	d7f5                	beqz	a5,11a2 <_write+0x1c>
D:/projects/mechanical_arm/Firmware/UWB/libraries/zf_common/zf_common_debug.c:164 (discriminator 2)
        USART_SendData((USART_TypeDef*)uart_index[DEBUG_UART_INDEX], *buf++);
    11b8:	67a9                	lui	a5,0xa
    11ba:	d2878793          	addi	a5,a5,-728 # 9d28 <uart_index>
    11be:	479c                	lw	a5,8(a5)
    11c0:	86be                	mv	a3,a5
    11c2:	fd842783          	lw	a5,-40(s0)
    11c6:	00178713          	addi	a4,a5,1
    11ca:	fce42c23          	sw	a4,-40(s0)
    11ce:	00078783          	lb	a5,0(a5)
    11d2:	07c2                	slli	a5,a5,0x10
    11d4:	83c1                	srli	a5,a5,0x10
    11d6:	85be                	mv	a1,a5
    11d8:	8536                	mv	a0,a3
    11da:	22f010ef          	jal	ra,2c08 <USART_SendData>
D:/projects/mechanical_arm/Firmware/UWB/libraries/zf_common/zf_common_debug.c:161 (discriminator 2)
    for(i=0; i<size; i++)
    11de:	fec42783          	lw	a5,-20(s0)
    11e2:	0785                	addi	a5,a5,1
    11e4:	fef42623          	sw	a5,-20(s0)
D:/projects/mechanical_arm/Firmware/UWB/libraries/zf_common/zf_common_debug.c:161 (discriminator 1)
    11e8:	fec42703          	lw	a4,-20(s0)
    11ec:	fd442783          	lw	a5,-44(s0)
    11f0:	faf748e3          	blt	a4,a5,11a0 <_write+0x1a>
D:/projects/mechanical_arm/Firmware/UWB/libraries/zf_common/zf_common_debug.c:167

    }
    return size;
    11f4:	fd442783          	lw	a5,-44(s0)
D:/projects/mechanical_arm/Firmware/UWB/libraries/zf_common/zf_common_debug.c:168
}
    11f8:	853e                	mv	a0,a5
    11fa:	50b2                	lw	ra,44(sp)
    11fc:	5422                	lw	s0,40(sp)
    11fe:	6145                	addi	sp,sp,48
    1200:	8082                	ret

00001202 <fifo_head_offset>:
fifo_head_offset():
D:/projects/mechanical_arm/Firmware/UWB/libraries/zf_common/zf_common_fifo.c:53
// @param       offset          偏移量
// @return      void
// Sample usage:
//-------------------------------------------------------------------------------------------------------------------
void fifo_head_offset (fifo_struct *fifo, uint32 offset)
{
    1202:	1101                	addi	sp,sp,-32
    1204:	ce22                	sw	s0,28(sp)
    1206:	1000                	addi	s0,sp,32
    1208:	fea42623          	sw	a0,-20(s0)
    120c:	feb42423          	sw	a1,-24(s0)
D:/projects/mechanical_arm/Firmware/UWB/libraries/zf_common/zf_common_fifo.c:54
    fifo->head += offset;
    1210:	fec42783          	lw	a5,-20(s0)
    1214:	43d8                	lw	a4,4(a5)
    1216:	fe842783          	lw	a5,-24(s0)
    121a:	973e                	add	a4,a4,a5
    121c:	fec42783          	lw	a5,-20(s0)
    1220:	c3d8                	sw	a4,4(a5)
D:/projects/mechanical_arm/Firmware/UWB/libraries/zf_common/zf_common_fifo.c:56
    
    while(fifo->max <= fifo->head)                                              // 如果范围超过则减缓冲区大小 直到小于最大缓冲区大小
    1222:	a819                	j	1238 <fifo_head_offset+0x36>
D:/projects/mechanical_arm/Firmware/UWB/libraries/zf_common/zf_common_fifo.c:58
    {
        fifo->head -= fifo->max;
    1224:	fec42783          	lw	a5,-20(s0)
    1228:	43d8                	lw	a4,4(a5)
    122a:	fec42783          	lw	a5,-20(s0)
    122e:	4b9c                	lw	a5,16(a5)
    1230:	8f1d                	sub	a4,a4,a5
    1232:	fec42783          	lw	a5,-20(s0)
    1236:	c3d8                	sw	a4,4(a5)
D:/projects/mechanical_arm/Firmware/UWB/libraries/zf_common/zf_common_fifo.c:56
    while(fifo->max <= fifo->head)                                              // 如果范围超过则减缓冲区大小 直到小于最大缓冲区大小
    1238:	fec42783          	lw	a5,-20(s0)
    123c:	4b98                	lw	a4,16(a5)
    123e:	fec42783          	lw	a5,-20(s0)
    1242:	43dc                	lw	a5,4(a5)
    1244:	fee7f0e3          	bgeu	a5,a4,1224 <fifo_head_offset+0x22>
D:/projects/mechanical_arm/Firmware/UWB/libraries/zf_common/zf_common_fifo.c:60
    }
}
    1248:	0001                	nop
    124a:	4472                	lw	s0,28(sp)
    124c:	6105                	addi	sp,sp,32
    124e:	8082                	ret

00001250 <fifo_write_buffer>:
fifo_write_buffer():
D:/projects/mechanical_arm/Firmware/UWB/libraries/zf_common/zf_common_fifo.c:112
// @param       length          需要写入的数据长度
// @return      fifo_state_enum 操作状态
// Sample usage:                if(fifo_write(&fifo,data,32)!=FIFO_SUCCESS) while(1);
//-------------------------------------------------------------------------------------------------------------------
fifo_state_enum fifo_write_buffer (fifo_struct *fifo, uint8 *dat, uint32 length)
{
    1250:	7179                	addi	sp,sp,-48
    1252:	d606                	sw	ra,44(sp)
    1254:	d422                	sw	s0,40(sp)
    1256:	1800                	addi	s0,sp,48
    1258:	fca42e23          	sw	a0,-36(s0)
    125c:	fcb42c23          	sw	a1,-40(s0)
    1260:	fcc42a23          	sw	a2,-44(s0)
D:/projects/mechanical_arm/Firmware/UWB/libraries/zf_common/zf_common_fifo.c:115
    uint32 temp_length;
    
    if(length < fifo->size)                                                     // 剩余空间足够装下本次数据
    1264:	fdc42783          	lw	a5,-36(s0)
    1268:	47dc                	lw	a5,12(a5)
    126a:	fd442703          	lw	a4,-44(s0)
    126e:	0cf77b63          	bgeu	a4,a5,1344 <fifo_write_buffer+0xf4>
D:/projects/mechanical_arm/Firmware/UWB/libraries/zf_common/zf_common_fifo.c:117
    {
        interrupt_global_disable();
    1272:	2a5d                	jal	1428 <interrupt_global_disable>
D:/projects/mechanical_arm/Firmware/UWB/libraries/zf_common/zf_common_fifo.c:118
        temp_length = fifo->max - fifo->head;                                   // 计算头指针距离缓冲区尾还有多少空间
    1274:	fdc42783          	lw	a5,-36(s0)
    1278:	4b98                	lw	a4,16(a5)
    127a:	fdc42783          	lw	a5,-36(s0)
    127e:	43dc                	lw	a5,4(a5)
    1280:	40f707b3          	sub	a5,a4,a5
    1284:	fef42623          	sw	a5,-20(s0)
D:/projects/mechanical_arm/Firmware/UWB/libraries/zf_common/zf_common_fifo.c:120

        if(length > temp_length)                                                // 距离缓冲区尾长度不足写入数据 环形缓冲区分段操作
    1288:	fd442703          	lw	a4,-44(s0)
    128c:	fec42783          	lw	a5,-20(s0)
    1290:	06e7fb63          	bgeu	a5,a4,1306 <fifo_write_buffer+0xb6>
D:/projects/mechanical_arm/Firmware/UWB/libraries/zf_common/zf_common_fifo.c:122
        {
            memcpy(&fifo->buffer[fifo->head], dat, temp_length);                // 拷贝第一段数据
    1294:	fdc42783          	lw	a5,-36(s0)
    1298:	4398                	lw	a4,0(a5)
    129a:	fdc42783          	lw	a5,-36(s0)
    129e:	43dc                	lw	a5,4(a5)
    12a0:	97ba                	add	a5,a5,a4
    12a2:	fec42603          	lw	a2,-20(s0)
    12a6:	fd842583          	lw	a1,-40(s0)
    12aa:	853e                	mv	a0,a5
    12ac:	131050ef          	jal	ra,6bdc <memcpy>
D:/projects/mechanical_arm/Firmware/UWB/libraries/zf_common/zf_common_fifo.c:123
            fifo_head_offset(fifo, temp_length);                                // 头指针偏移
    12b0:	fec42583          	lw	a1,-20(s0)
    12b4:	fdc42503          	lw	a0,-36(s0)
    12b8:	37a9                	jal	1202 <fifo_head_offset>
D:/projects/mechanical_arm/Firmware/UWB/libraries/zf_common/zf_common_fifo.c:124
            dat += temp_length;                                                 // 读取缓冲偏移
    12ba:	fd842703          	lw	a4,-40(s0)
    12be:	fec42783          	lw	a5,-20(s0)
    12c2:	97ba                	add	a5,a5,a4
    12c4:	fcf42c23          	sw	a5,-40(s0)
D:/projects/mechanical_arm/Firmware/UWB/libraries/zf_common/zf_common_fifo.c:125
            memcpy(&fifo->buffer[fifo->head], dat, length - temp_length);       // 拷贝第一段数据
    12c8:	fdc42783          	lw	a5,-36(s0)
    12cc:	4398                	lw	a4,0(a5)
    12ce:	fdc42783          	lw	a5,-36(s0)
    12d2:	43dc                	lw	a5,4(a5)
    12d4:	00f706b3          	add	a3,a4,a5
    12d8:	fd442703          	lw	a4,-44(s0)
    12dc:	fec42783          	lw	a5,-20(s0)
    12e0:	40f707b3          	sub	a5,a4,a5
    12e4:	863e                	mv	a2,a5
    12e6:	fd842583          	lw	a1,-40(s0)
    12ea:	8536                	mv	a0,a3
    12ec:	0f1050ef          	jal	ra,6bdc <memcpy>
D:/projects/mechanical_arm/Firmware/UWB/libraries/zf_common/zf_common_fifo.c:126
            fifo_head_offset(fifo, length - temp_length);                       // 头指针偏移
    12f0:	fd442703          	lw	a4,-44(s0)
    12f4:	fec42783          	lw	a5,-20(s0)
    12f8:	40f707b3          	sub	a5,a4,a5
    12fc:	85be                	mv	a1,a5
    12fe:	fdc42503          	lw	a0,-36(s0)
    1302:	3701                	jal	1202 <fifo_head_offset>
    1304:	a025                	j	132c <fifo_write_buffer+0xdc>
D:/projects/mechanical_arm/Firmware/UWB/libraries/zf_common/zf_common_fifo.c:130
        }
        else
        {
            memcpy(&fifo->buffer[fifo->head], dat, length);                     // 一次完整写入
    1306:	fdc42783          	lw	a5,-36(s0)
    130a:	4398                	lw	a4,0(a5)
    130c:	fdc42783          	lw	a5,-36(s0)
    1310:	43dc                	lw	a5,4(a5)
    1312:	97ba                	add	a5,a5,a4
    1314:	fd442603          	lw	a2,-44(s0)
    1318:	fd842583          	lw	a1,-40(s0)
    131c:	853e                	mv	a0,a5
    131e:	0bf050ef          	jal	ra,6bdc <memcpy>
D:/projects/mechanical_arm/Firmware/UWB/libraries/zf_common/zf_common_fifo.c:131
            fifo_head_offset(fifo, length);                                     // 头指针偏移
    1322:	fd442583          	lw	a1,-44(s0)
    1326:	fdc42503          	lw	a0,-36(s0)
    132a:	3de1                	jal	1202 <fifo_head_offset>
D:/projects/mechanical_arm/Firmware/UWB/libraries/zf_common/zf_common_fifo.c:134
        }

        fifo->size -= length;                                                   // 缓冲区剩余长度减小
    132c:	fdc42783          	lw	a5,-36(s0)
    1330:	47d8                	lw	a4,12(a5)
    1332:	fd442783          	lw	a5,-44(s0)
    1336:	8f1d                	sub	a4,a4,a5
    1338:	fdc42783          	lw	a5,-36(s0)
    133c:	c7d8                	sw	a4,12(a5)
D:/projects/mechanical_arm/Firmware/UWB/libraries/zf_common/zf_common_fifo.c:135
        interrupt_global_enable();
    133e:	2875                	jal	13fa <interrupt_global_enable>
D:/projects/mechanical_arm/Firmware/UWB/libraries/zf_common/zf_common_fifo.c:142
    else
    {
        return FIFO_SPACE_NO_ENOUGH;
    }
    
    return FIFO_SUCCESS;
    1340:	4781                	li	a5,0
    1342:	a011                	j	1346 <fifo_write_buffer+0xf6>
D:/projects/mechanical_arm/Firmware/UWB/libraries/zf_common/zf_common_fifo.c:139
        return FIFO_SPACE_NO_ENOUGH;
    1344:	4789                	li	a5,2
D:/projects/mechanical_arm/Firmware/UWB/libraries/zf_common/zf_common_fifo.c:143
}
    1346:	853e                	mv	a0,a5
    1348:	50b2                	lw	ra,44(sp)
    134a:	5422                	lw	s0,40(sp)
    134c:	6145                	addi	sp,sp,48
    134e:	8082                	ret

00001350 <NVIC_EnableIRQ>:
NVIC_EnableIRQ():
D:\projects\mechanical_arm\Firmware\UWB\libraries\sdk\Core/core_riscv.h:129
* Function Name  : NVIC_EnableIRQ
* Description    : Enable Interrupt
* Input          : IRQn: Interrupt Numbers
* Return         : None
*******************************************************************************/
RV_STATIC_INLINE void NVIC_EnableIRQ(IRQn_Type IRQn){
    1350:	1101                	addi	sp,sp,-32
    1352:	ce22                	sw	s0,28(sp)
    1354:	1000                	addi	s0,sp,32
    1356:	fea42623          	sw	a0,-20(s0)
D:\projects\mechanical_arm\Firmware\UWB\libraries\sdk\Core/core_riscv.h:130
  NVIC->IENR[((uint32_t)(IRQn) >> 5)] = (1 << ((uint32_t)(IRQn) & 0x1F));
    135a:	fec42783          	lw	a5,-20(s0)
    135e:	8bfd                	andi	a5,a5,31
    1360:	4705                	li	a4,1
    1362:	00f716b3          	sll	a3,a4,a5
    1366:	e000e737          	lui	a4,0xe000e
    136a:	fec42783          	lw	a5,-20(s0)
    136e:	8395                	srli	a5,a5,0x5
    1370:	04078793          	addi	a5,a5,64
    1374:	078a                	slli	a5,a5,0x2
    1376:	97ba                	add	a5,a5,a4
    1378:	c394                	sw	a3,0(a5)
D:\projects\mechanical_arm\Firmware\UWB\libraries\sdk\Core/core_riscv.h:131
}
    137a:	0001                	nop
    137c:	4472                	lw	s0,28(sp)
    137e:	6105                	addi	sp,sp,32
    1380:	8082                	ret

00001382 <NVIC_DisableIRQ>:
NVIC_DisableIRQ():
D:\projects\mechanical_arm\Firmware\UWB\libraries\sdk\Core/core_riscv.h:140
* Description    : Disable Interrupt
* Input          : IRQn: Interrupt Numbers
* Return         : None
*******************************************************************************/
RV_STATIC_INLINE void NVIC_DisableIRQ(IRQn_Type IRQn)
{
    1382:	1101                	addi	sp,sp,-32
    1384:	ce22                	sw	s0,28(sp)
    1386:	1000                	addi	s0,sp,32
    1388:	fea42623          	sw	a0,-20(s0)
D:\projects\mechanical_arm\Firmware\UWB\libraries\sdk\Core/core_riscv.h:141
  NVIC->IRER[((uint32_t)(IRQn) >> 5)] = (1 << ((uint32_t)(IRQn) & 0x1F));
    138c:	fec42783          	lw	a5,-20(s0)
    1390:	8bfd                	andi	a5,a5,31
    1392:	4705                	li	a4,1
    1394:	00f716b3          	sll	a3,a4,a5
    1398:	e000e737          	lui	a4,0xe000e
    139c:	fec42783          	lw	a5,-20(s0)
    13a0:	8395                	srli	a5,a5,0x5
    13a2:	06078793          	addi	a5,a5,96
    13a6:	078a                	slli	a5,a5,0x2
    13a8:	97ba                	add	a5,a5,a4
    13aa:	c394                	sw	a3,0(a5)
D:\projects\mechanical_arm\Firmware\UWB\libraries\sdk\Core/core_riscv.h:142
}
    13ac:	0001                	nop
    13ae:	4472                	lw	s0,28(sp)
    13b0:	6105                	addi	sp,sp,32
    13b2:	8082                	ret

000013b4 <interrupt_enable>:
interrupt_enable():
D:/projects/mechanical_arm/Firmware/UWB/libraries/zf_common/zf_common_interrupt.c:34
// @param       irqn            指定中断号 可查看 isr.c 对应中断服务函数的标注
// @return      void
// Sample usage:                interrupt_enable(UART1_IRQn);
//-------------------------------------------------------------------------------------------------------------------
void interrupt_enable (IRQn_Type irqn)
{
    13b4:	1101                	addi	sp,sp,-32
    13b6:	ce06                	sw	ra,28(sp)
    13b8:	cc22                	sw	s0,24(sp)
    13ba:	1000                	addi	s0,sp,32
    13bc:	fea42623          	sw	a0,-20(s0)
D:/projects/mechanical_arm/Firmware/UWB/libraries/zf_common/zf_common_interrupt.c:35
    NVIC_EnableIRQ(irqn);
    13c0:	fec42503          	lw	a0,-20(s0)
    13c4:	3771                	jal	1350 <NVIC_EnableIRQ>
D:/projects/mechanical_arm/Firmware/UWB/libraries/zf_common/zf_common_interrupt.c:36
}
    13c6:	0001                	nop
    13c8:	40f2                	lw	ra,28(sp)
    13ca:	4462                	lw	s0,24(sp)
    13cc:	6105                	addi	sp,sp,32
    13ce:	8082                	ret

000013d0 <interrupt_disable>:
interrupt_disable():
D:/projects/mechanical_arm/Firmware/UWB/libraries/zf_common/zf_common_interrupt.c:45
// @param       irqn            指定中断号 可查看 isr.c 对应中断服务函数的标注
// @return      void
// Sample usage:                interrupt_disable(UART1_IRQn);
//-------------------------------------------------------------------------------------------------------------------
void interrupt_disable (IRQn_Type irqn)
{
    13d0:	1101                	addi	sp,sp,-32
    13d2:	ce06                	sw	ra,28(sp)
    13d4:	cc22                	sw	s0,24(sp)
    13d6:	1000                	addi	s0,sp,32
    13d8:	fea42623          	sw	a0,-20(s0)
D:/projects/mechanical_arm/Firmware/UWB/libraries/zf_common/zf_common_interrupt.c:46
    NVIC_DisableIRQ(irqn);
    13dc:	fec42503          	lw	a0,-20(s0)
    13e0:	374d                	jal	1382 <NVIC_DisableIRQ>
D:/projects/mechanical_arm/Firmware/UWB/libraries/zf_common/zf_common_interrupt.c:47
}
    13e2:	0001                	nop
    13e4:	40f2                	lw	ra,28(sp)
    13e6:	4462                	lw	s0,24(sp)
    13e8:	6105                	addi	sp,sp,32
    13ea:	8082                	ret

000013ec <interrupt_init>:
interrupt_init():
D:/projects/mechanical_arm/Firmware/UWB/libraries/zf_common/zf_common_interrupt.c:69
// @param       void
// @return      void
// Sample usage:                interrupt_init();
//-------------------------------------------------------------------------------------------------------------------
void interrupt_init (void)
{
    13ec:	1141                	addi	sp,sp,-16
    13ee:	c622                	sw	s0,12(sp)
    13f0:	0800                	addi	s0,sp,16
D:/projects/mechanical_arm/Firmware/UWB/libraries/zf_common/zf_common_interrupt.c:72
    //NVIC_SetPriorityGrouping(4);

}
    13f2:	0001                	nop
    13f4:	4432                	lw	s0,12(sp)
    13f6:	0141                	addi	sp,sp,16
    13f8:	8082                	ret

000013fa <interrupt_global_enable>:
interrupt_global_enable():
D:/projects/mechanical_arm/Firmware/UWB/libraries/zf_common/zf_common_interrupt.c:81
// @param       void            还原的嵌套层 如果传入 0 则直接清空嵌套层数开启总中断
// @return      void
// Sample usage:                interrupt_global_enable();
//-------------------------------------------------------------------------------------------------------------------
void interrupt_global_enable (void)
{
    13fa:	1141                	addi	sp,sp,-16
    13fc:	c606                	sw	ra,12(sp)
    13fe:	c422                	sw	s0,8(sp)
    1400:	0800                	addi	s0,sp,16
D:/projects/mechanical_arm/Firmware/UWB/libraries/zf_common/zf_common_interrupt.c:82
    if(interrupt_nest_count)
    1402:	8781a783          	lw	a5,-1928(gp) # 200002a8 <interrupt_nest_count>
    1406:	c799                	beqz	a5,1414 <interrupt_global_enable+0x1a>
D:/projects/mechanical_arm/Firmware/UWB/libraries/zf_common/zf_common_interrupt.c:83
        interrupt_nest_count--;
    1408:	8781a783          	lw	a5,-1928(gp) # 200002a8 <interrupt_nest_count>
    140c:	fff78713          	addi	a4,a5,-1
    1410:	86e1ac23          	sw	a4,-1928(gp) # 200002a8 <interrupt_nest_count>
D:/projects/mechanical_arm/Firmware/UWB/libraries/zf_common/zf_common_interrupt.c:85

    if(interrupt_nest_count == 0)
    1414:	8781a783          	lw	a5,-1928(gp) # 200002a8 <interrupt_nest_count>
    1418:	e399                	bnez	a5,141e <interrupt_global_enable+0x24>
D:/projects/mechanical_arm/Firmware/UWB/libraries/zf_common/zf_common_interrupt.c:88
    {
        extern void en_interrupt();
        en_interrupt();
    141a:	dedfe0ef          	jal	ra,206 <en_interrupt>
D:/projects/mechanical_arm/Firmware/UWB/libraries/zf_common/zf_common_interrupt.c:90
    }
}
    141e:	0001                	nop
    1420:	40b2                	lw	ra,12(sp)
    1422:	4422                	lw	s0,8(sp)
    1424:	0141                	addi	sp,sp,16
    1426:	8082                	ret

00001428 <interrupt_global_disable>:
interrupt_global_disable():
D:/projects/mechanical_arm/Firmware/UWB/libraries/zf_common/zf_common_interrupt.c:99
// @param       void
// @return      void
// Sample usage:                interrupt_disable_all();
//-------------------------------------------------------------------------------------------------------------------
void interrupt_global_disable (void)
{
    1428:	1141                	addi	sp,sp,-16
    142a:	c606                	sw	ra,12(sp)
    142c:	c422                	sw	s0,8(sp)
    142e:	0800                	addi	s0,sp,16
D:/projects/mechanical_arm/Firmware/UWB/libraries/zf_common/zf_common_interrupt.c:100
    if(!interrupt_nest_count)
    1430:	8781a783          	lw	a5,-1928(gp) # 200002a8 <interrupt_nest_count>
    1434:	e399                	bnez	a5,143a <interrupt_global_disable+0x12>
D:/projects/mechanical_arm/Firmware/UWB/libraries/zf_common/zf_common_interrupt.c:103
    {
        extern void dis_interrupt();
        dis_interrupt();
    1436:	dcbfe0ef          	jal	ra,200 <dis_interrupt>
D:/projects/mechanical_arm/Firmware/UWB/libraries/zf_common/zf_common_interrupt.c:105
    }
    interrupt_nest_count++;
    143a:	8781a783          	lw	a5,-1928(gp) # 200002a8 <interrupt_nest_count>
    143e:	00178713          	addi	a4,a5,1
    1442:	86e1ac23          	sw	a4,-1928(gp) # 200002a8 <interrupt_nest_count>
D:/projects/mechanical_arm/Firmware/UWB/libraries/zf_common/zf_common_interrupt.c:110
    //返回当前mstatus寄存器的值
//    uint32 temp;
//    temp = __get_MSTATUS();
//    return temp;
}
    1446:	0001                	nop
    1448:	40b2                	lw	ra,12(sp)
    144a:	4422                	lw	s0,8(sp)
    144c:	0141                	addi	sp,sp,16
    144e:	8082                	ret

00001450 <USART1_IRQHandler>:
USART1_IRQHandler():
D:/projects/mechanical_arm/Firmware/UWB/project/user/src/isr.c:66
void EXTI4_IRQHandler(void) __attribute__((interrupt("WCH-Interrupt-fast")));
void EXTI9_5_IRQHandler(void) __attribute__((interrupt("WCH-Interrupt-fast")));
void EXTI15_10_IRQHandler(void) __attribute__((interrupt("WCH-Interrupt-fast")));

void USART1_IRQHandler(void)
{
    1450:	1141                	addi	sp,sp,-16
    1452:	c622                	sw	s0,12(sp)
    1454:	0800                	addi	s0,sp,16
D:/projects/mechanical_arm/Firmware/UWB/project/user/src/isr.c:67
    if(USART_GetITStatus(USART1, USART_IT_RXNE) != RESET)
    1456:	52500593          	li	a1,1317
    145a:	400147b7          	lui	a5,0x40014
    145e:	80078513          	addi	a0,a5,-2048 # 40013800 <_eusrstack+0x20003800>
    1462:	01b010ef          	jal	ra,2c7c <USART_GetITStatus>
    1466:	87aa                	mv	a5,a0
    1468:	cb89                	beqz	a5,147a <USART1_IRQHandler+0x2a>
D:/projects/mechanical_arm/Firmware/UWB/project/user/src/isr.c:70
    {

        USART_ClearITPendingBit(USART1, USART_IT_RXNE);
    146a:	52500593          	li	a1,1317
    146e:	400147b7          	lui	a5,0x40014
    1472:	80078513          	addi	a0,a5,-2048 # 40013800 <_eusrstack+0x20003800>
    1476:	109010ef          	jal	ra,2d7e <USART_ClearITPendingBit>
D:/projects/mechanical_arm/Firmware/UWB/project/user/src/isr.c:72
    }
}
    147a:	0001                	nop
    147c:	4432                	lw	s0,12(sp)
    147e:	0141                	addi	sp,sp,16
    1480:	30200073          	mret

00001484 <USART2_IRQHandler>:
USART2_IRQHandler():
D:/projects/mechanical_arm/Firmware/UWB/project/user/src/isr.c:74
void USART2_IRQHandler(void)
{
    1484:	1141                	addi	sp,sp,-16
    1486:	c622                	sw	s0,12(sp)
    1488:	0800                	addi	s0,sp,16
D:/projects/mechanical_arm/Firmware/UWB/project/user/src/isr.c:75
    if(USART_GetITStatus(USART2, USART_IT_RXNE) != RESET)
    148a:	52500593          	li	a1,1317
    148e:	400047b7          	lui	a5,0x40004
    1492:	40078513          	addi	a0,a5,1024 # 40004400 <_eusrstack+0x1fff4400>
    1496:	7e6010ef          	jal	ra,2c7c <USART_GetITStatus>
    149a:	87aa                	mv	a5,a0
    149c:	c3a1                	beqz	a5,14dc <USART2_IRQHandler+0x58>
D:/projects/mechanical_arm/Firmware/UWB/project/user/src/isr.c:77
    {
        if(wireless_type == WIRELESS_UART)
    149e:	8681a703          	lw	a4,-1944(gp) # 20000298 <wireless_type>
    14a2:	4785                	li	a5,1
    14a4:	00f71563          	bne	a4,a5,14ae <USART2_IRQHandler+0x2a>
D:/projects/mechanical_arm/Firmware/UWB/project/user/src/isr.c:79
        {
            wireless_uart_callback();
    14a8:	987ff0ef          	jal	ra,e2e <wireless_uart_callback>
    14ac:	a005                	j	14cc <USART2_IRQHandler+0x48>
D:/projects/mechanical_arm/Firmware/UWB/project/user/src/isr.c:81
        }
        else if(wireless_type == BLUETOOTH_CH9141)
    14ae:	8681a703          	lw	a4,-1944(gp) # 20000298 <wireless_type>
    14b2:	4789                	li	a5,2
    14b4:	00f71563          	bne	a4,a5,14be <USART2_IRQHandler+0x3a>
D:/projects/mechanical_arm/Firmware/UWB/project/user/src/isr.c:83
        {
            bluetooth_ch9141_uart_callback_ch2();
    14b8:	fd8ff0ef          	jal	ra,c90 <bluetooth_ch9141_uart_callback_ch2>
    14bc:	a801                	j	14cc <USART2_IRQHandler+0x48>
D:/projects/mechanical_arm/Firmware/UWB/project/user/src/isr.c:85
        }
        else if(wireless_type == WIRELESS_CH573)
    14be:	8681a703          	lw	a4,-1944(gp) # 20000298 <wireless_type>
    14c2:	478d                	li	a5,3
    14c4:	00f71463          	bne	a4,a5,14cc <USART2_IRQHandler+0x48>
D:/projects/mechanical_arm/Firmware/UWB/project/user/src/isr.c:87
        {
            wireless_ch573_callback();
    14c8:	941ff0ef          	jal	ra,e08 <wireless_ch573_callback>
D:/projects/mechanical_arm/Firmware/UWB/project/user/src/isr.c:89
        }
        USART_ClearITPendingBit(USART2, USART_IT_RXNE);
    14cc:	52500593          	li	a1,1317
    14d0:	400047b7          	lui	a5,0x40004
    14d4:	40078513          	addi	a0,a5,1024 # 40004400 <_eusrstack+0x1fff4400>
    14d8:	0a7010ef          	jal	ra,2d7e <USART_ClearITPendingBit>
D:/projects/mechanical_arm/Firmware/UWB/project/user/src/isr.c:91
    }
}
    14dc:	0001                	nop
    14de:	4432                	lw	s0,12(sp)
    14e0:	0141                	addi	sp,sp,16
    14e2:	30200073          	mret

000014e6 <USART3_IRQHandler>:
USART3_IRQHandler():
D:/projects/mechanical_arm/Firmware/UWB/project/user/src/isr.c:93
void USART3_IRQHandler(void)
{
    14e6:	1141                	addi	sp,sp,-16
    14e8:	c622                	sw	s0,12(sp)
    14ea:	0800                	addi	s0,sp,16
D:/projects/mechanical_arm/Firmware/UWB/project/user/src/isr.c:94
    if(USART_GetITStatus(USART3, USART_IT_RXNE) != RESET)
    14ec:	52500593          	li	a1,1317
    14f0:	400057b7          	lui	a5,0x40005
    14f4:	80078513          	addi	a0,a5,-2048 # 40004800 <_eusrstack+0x1fff4800>
    14f8:	784010ef          	jal	ra,2c7c <USART_GetITStatus>
    14fc:	87aa                	mv	a5,a0
    14fe:	cb89                	beqz	a5,1510 <USART3_IRQHandler+0x2a>
D:/projects/mechanical_arm/Firmware/UWB/project/user/src/isr.c:97
    {

        USART_ClearITPendingBit(USART3, USART_IT_RXNE);
    1500:	52500593          	li	a1,1317
    1504:	400057b7          	lui	a5,0x40005
    1508:	80078513          	addi	a0,a5,-2048 # 40004800 <_eusrstack+0x1fff4800>
    150c:	073010ef          	jal	ra,2d7e <USART_ClearITPendingBit>
D:/projects/mechanical_arm/Firmware/UWB/project/user/src/isr.c:99
    }
}
    1510:	0001                	nop
    1512:	4432                	lw	s0,12(sp)
    1514:	0141                	addi	sp,sp,16
    1516:	30200073          	mret

0000151a <UART4_IRQHandler>:
UART4_IRQHandler():
D:/projects/mechanical_arm/Firmware/UWB/project/user/src/isr.c:101
void UART4_IRQHandler (void)
{
    151a:	1141                	addi	sp,sp,-16
    151c:	c622                	sw	s0,12(sp)
    151e:	0800                	addi	s0,sp,16
D:/projects/mechanical_arm/Firmware/UWB/project/user/src/isr.c:102
    if(USART_GetITStatus(UART4, USART_IT_RXNE) != RESET)
    1520:	52500593          	li	a1,1317
    1524:	400057b7          	lui	a5,0x40005
    1528:	c0078513          	addi	a0,a5,-1024 # 40004c00 <_eusrstack+0x1fff4c00>
    152c:	750010ef          	jal	ra,2c7c <USART_GetITStatus>
    1530:	87aa                	mv	a5,a0
    1532:	cb89                	beqz	a5,1544 <UART4_IRQHandler+0x2a>
D:/projects/mechanical_arm/Firmware/UWB/project/user/src/isr.c:105
    {

        USART_ClearITPendingBit(UART4, USART_IT_RXNE);
    1534:	52500593          	li	a1,1317
    1538:	400057b7          	lui	a5,0x40005
    153c:	c0078513          	addi	a0,a5,-1024 # 40004c00 <_eusrstack+0x1fff4c00>
    1540:	03f010ef          	jal	ra,2d7e <USART_ClearITPendingBit>
D:/projects/mechanical_arm/Firmware/UWB/project/user/src/isr.c:107
    }
}
    1544:	0001                	nop
    1546:	4432                	lw	s0,12(sp)
    1548:	0141                	addi	sp,sp,16
    154a:	30200073          	mret

0000154e <UART5_IRQHandler>:
UART5_IRQHandler():
D:/projects/mechanical_arm/Firmware/UWB/project/user/src/isr.c:109
void UART5_IRQHandler (void)
{
    154e:	1141                	addi	sp,sp,-16
    1550:	c622                	sw	s0,12(sp)
    1552:	0800                	addi	s0,sp,16
D:/projects/mechanical_arm/Firmware/UWB/project/user/src/isr.c:110
    if(USART_GetITStatus(UART5, USART_IT_RXNE) != RESET)
    1554:	52500593          	li	a1,1317
    1558:	40005537          	lui	a0,0x40005
    155c:	720010ef          	jal	ra,2c7c <USART_GetITStatus>
    1560:	87aa                	mv	a5,a0
    1562:	cb89                	beqz	a5,1574 <UART5_IRQHandler+0x26>
D:/projects/mechanical_arm/Firmware/UWB/project/user/src/isr.c:112
    {
        camera_uart_handler();
    1564:	f52ff0ef          	jal	ra,cb6 <camera_uart_handler>
D:/projects/mechanical_arm/Firmware/UWB/project/user/src/isr.c:113
        USART_ClearITPendingBit(UART5, USART_IT_RXNE);
    1568:	52500593          	li	a1,1317
    156c:	40005537          	lui	a0,0x40005
    1570:	00f010ef          	jal	ra,2d7e <USART_ClearITPendingBit>
D:/projects/mechanical_arm/Firmware/UWB/project/user/src/isr.c:115
    }
}
    1574:	0001                	nop
    1576:	4432                	lw	s0,12(sp)
    1578:	0141                	addi	sp,sp,16
    157a:	30200073          	mret

0000157e <UART6_IRQHandler>:
UART6_IRQHandler():
D:/projects/mechanical_arm/Firmware/UWB/project/user/src/isr.c:117
void UART6_IRQHandler (void)
{
    157e:	1141                	addi	sp,sp,-16
    1580:	c622                	sw	s0,12(sp)
    1582:	0800                	addi	s0,sp,16
D:/projects/mechanical_arm/Firmware/UWB/project/user/src/isr.c:118
    if(USART_GetITStatus(UART6, USART_IT_RXNE) != RESET)
    1584:	52500593          	li	a1,1317
    1588:	400027b7          	lui	a5,0x40002
    158c:	80078513          	addi	a0,a5,-2048 # 40001800 <_eusrstack+0x1fff1800>
    1590:	6ec010ef          	jal	ra,2c7c <USART_GetITStatus>
    1594:	87aa                	mv	a5,a0
    1596:	cb89                	beqz	a5,15a8 <UART6_IRQHandler+0x2a>
D:/projects/mechanical_arm/Firmware/UWB/project/user/src/isr.c:121
    {

        USART_ClearITPendingBit(UART6, USART_IT_RXNE);
    1598:	52500593          	li	a1,1317
    159c:	400027b7          	lui	a5,0x40002
    15a0:	80078513          	addi	a0,a5,-2048 # 40001800 <_eusrstack+0x1fff1800>
    15a4:	7da010ef          	jal	ra,2d7e <USART_ClearITPendingBit>
D:/projects/mechanical_arm/Firmware/UWB/project/user/src/isr.c:123
    }
}
    15a8:	0001                	nop
    15aa:	4432                	lw	s0,12(sp)
    15ac:	0141                	addi	sp,sp,16
    15ae:	30200073          	mret

000015b2 <UART7_IRQHandler>:
UART7_IRQHandler():
D:/projects/mechanical_arm/Firmware/UWB/project/user/src/isr.c:125
void UART7_IRQHandler (void)
{
    15b2:	1141                	addi	sp,sp,-16
    15b4:	c622                	sw	s0,12(sp)
    15b6:	0800                	addi	s0,sp,16
D:/projects/mechanical_arm/Firmware/UWB/project/user/src/isr.c:126
    if(USART_GetITStatus(UART7, USART_IT_RXNE) != RESET)
    15b8:	52500593          	li	a1,1317
    15bc:	400027b7          	lui	a5,0x40002
    15c0:	c0078513          	addi	a0,a5,-1024 # 40001c00 <_eusrstack+0x1fff1c00>
    15c4:	6b8010ef          	jal	ra,2c7c <USART_GetITStatus>
    15c8:	87aa                	mv	a5,a0
    15ca:	c78d                	beqz	a5,15f4 <UART7_IRQHandler+0x42>
D:/projects/mechanical_arm/Firmware/UWB/project/user/src/isr.c:128
    {
        if(wireless_type == WIRELESS_UART)
    15cc:	8681a703          	lw	a4,-1944(gp) # 20000298 <wireless_type>
    15d0:	4785                	li	a5,1
    15d2:	00f70963          	beq	a4,a5,15e4 <UART7_IRQHandler+0x32>
D:/projects/mechanical_arm/Firmware/UWB/project/user/src/isr.c:132
        {

        }
        else if(wireless_type == BLUETOOTH_CH9141)
    15d6:	8681a703          	lw	a4,-1944(gp) # 20000298 <wireless_type>
    15da:	4789                	li	a5,2
    15dc:	00f71463          	bne	a4,a5,15e4 <UART7_IRQHandler+0x32>
D:/projects/mechanical_arm/Firmware/UWB/project/user/src/isr.c:134
        {
            bluetooth_ch9141_uart_callback_ch1();
    15e0:	e8aff0ef          	jal	ra,c6a <bluetooth_ch9141_uart_callback_ch1>
D:/projects/mechanical_arm/Firmware/UWB/project/user/src/isr.c:136
        }
        USART_ClearITPendingBit(UART7, USART_IT_RXNE);
    15e4:	52500593          	li	a1,1317
    15e8:	400027b7          	lui	a5,0x40002
    15ec:	c0078513          	addi	a0,a5,-1024 # 40001c00 <_eusrstack+0x1fff1c00>
    15f0:	78e010ef          	jal	ra,2d7e <USART_ClearITPendingBit>
D:/projects/mechanical_arm/Firmware/UWB/project/user/src/isr.c:138
    }
}
    15f4:	0001                	nop
    15f6:	4432                	lw	s0,12(sp)
    15f8:	0141                	addi	sp,sp,16
    15fa:	30200073          	mret

000015fe <UART8_IRQHandler>:
UART8_IRQHandler():
D:/projects/mechanical_arm/Firmware/UWB/project/user/src/isr.c:140
void UART8_IRQHandler (void)
{
    15fe:	1141                	addi	sp,sp,-16
    1600:	c622                	sw	s0,12(sp)
    1602:	0800                	addi	s0,sp,16
D:/projects/mechanical_arm/Firmware/UWB/project/user/src/isr.c:141
    if(USART_GetITStatus(UART8, USART_IT_RXNE) != RESET)
    1604:	52500593          	li	a1,1317
    1608:	40002537          	lui	a0,0x40002
    160c:	670010ef          	jal	ra,2c7c <USART_GetITStatus>
    1610:	87aa                	mv	a5,a0
    1612:	c799                	beqz	a5,1620 <UART8_IRQHandler+0x22>
D:/projects/mechanical_arm/Firmware/UWB/project/user/src/isr.c:145
    {
//        extern void uart_handler (void);
//        uart_handler();
        USART_ClearITPendingBit(UART8, USART_IT_RXNE);
    1614:	52500593          	li	a1,1317
    1618:	40002537          	lui	a0,0x40002
    161c:	762010ef          	jal	ra,2d7e <USART_ClearITPendingBit>
D:/projects/mechanical_arm/Firmware/UWB/project/user/src/isr.c:147
    }
}
    1620:	0001                	nop
    1622:	4432                	lw	s0,12(sp)
    1624:	0141                	addi	sp,sp,16
    1626:	30200073          	mret

0000162a <DVP_IRQHandler>:
DVP_IRQHandler():
D:/projects/mechanical_arm/Firmware/UWB/project/user/src/isr.c:152



void DVP_IRQHandler(void)
{
    162a:	1141                	addi	sp,sp,-16
    162c:	c622                	sw	s0,12(sp)
    162e:	0800                	addi	s0,sp,16
D:/projects/mechanical_arm/Firmware/UWB/project/user/src/isr.c:153
    if (DVP->IFR & RB_DVP_IF_FRM_DONE)
    1630:	500507b7          	lui	a5,0x50050
    1634:	0107c783          	lbu	a5,16(a5) # 50050010 <_eusrstack+0x30040010>
    1638:	0ff7f793          	andi	a5,a5,255
    163c:	8b91                	andi	a5,a5,4
    163e:	c385                	beqz	a5,165e <DVP_IRQHandler+0x34>
D:/projects/mechanical_arm/Firmware/UWB/project/user/src/isr.c:155
    {
        camera_dvp_handler();
    1640:	eacff0ef          	jal	ra,cec <camera_dvp_handler>
D:/projects/mechanical_arm/Firmware/UWB/project/user/src/isr.c:156
        DVP->IFR &= ~RB_DVP_IF_FRM_DONE;
    1644:	500507b7          	lui	a5,0x50050
    1648:	0107c783          	lbu	a5,16(a5) # 50050010 <_eusrstack+0x30040010>
    164c:	0ff7f713          	andi	a4,a5,255
    1650:	500507b7          	lui	a5,0x50050
    1654:	9b6d                	andi	a4,a4,-5
    1656:	0ff77713          	andi	a4,a4,255
    165a:	00e78823          	sb	a4,16(a5) # 50050010 <_eusrstack+0x30040010>
D:/projects/mechanical_arm/Firmware/UWB/project/user/src/isr.c:158
    }
}
    165e:	0001                	nop
    1660:	4432                	lw	s0,12(sp)
    1662:	0141                	addi	sp,sp,16
    1664:	30200073          	mret

00001668 <EXTI0_IRQHandler>:
EXTI0_IRQHandler():
D:/projects/mechanical_arm/Firmware/UWB/project/user/src/isr.c:160
void EXTI0_IRQHandler(void)
{
    1668:	1141                	addi	sp,sp,-16
    166a:	c622                	sw	s0,12(sp)
    166c:	0800                	addi	s0,sp,16
D:/projects/mechanical_arm/Firmware/UWB/project/user/src/isr.c:161
    if(SET == EXTI_GetITStatus(EXTI_Line0))
    166e:	4505                	li	a0,1
    1670:	772000ef          	jal	ra,1de2 <EXTI_GetITStatus>
    1674:	872a                	mv	a4,a0
    1676:	4785                	li	a5,1
    1678:	00f71563          	bne	a4,a5,1682 <EXTI0_IRQHandler+0x1a>
D:/projects/mechanical_arm/Firmware/UWB/project/user/src/isr.c:163
    {
        EXTI_ClearITPendingBit(EXTI_Line0);
    167c:	4505                	li	a0,1
    167e:	7ba000ef          	jal	ra,1e38 <EXTI_ClearITPendingBit>
D:/projects/mechanical_arm/Firmware/UWB/project/user/src/isr.c:166

    }
}
    1682:	0001                	nop
    1684:	4432                	lw	s0,12(sp)
    1686:	0141                	addi	sp,sp,16
    1688:	30200073          	mret

0000168c <EXTI1_IRQHandler>:
EXTI1_IRQHandler():
D:/projects/mechanical_arm/Firmware/UWB/project/user/src/isr.c:169

void EXTI1_IRQHandler(void)
{
    168c:	1141                	addi	sp,sp,-16
    168e:	c622                	sw	s0,12(sp)
    1690:	0800                	addi	s0,sp,16
D:/projects/mechanical_arm/Firmware/UWB/project/user/src/isr.c:170
    if(SET == EXTI_GetITStatus(EXTI_Line1))
    1692:	4509                	li	a0,2
    1694:	74e000ef          	jal	ra,1de2 <EXTI_GetITStatus>
    1698:	872a                	mv	a4,a0
    169a:	4785                	li	a5,1
    169c:	00f71563          	bne	a4,a5,16a6 <EXTI1_IRQHandler+0x1a>
D:/projects/mechanical_arm/Firmware/UWB/project/user/src/isr.c:172
    {
        EXTI_ClearITPendingBit(EXTI_Line1);
    16a0:	4509                	li	a0,2
    16a2:	796000ef          	jal	ra,1e38 <EXTI_ClearITPendingBit>
D:/projects/mechanical_arm/Firmware/UWB/project/user/src/isr.c:175

    }
}
    16a6:	0001                	nop
    16a8:	4432                	lw	s0,12(sp)
    16aa:	0141                	addi	sp,sp,16
    16ac:	30200073          	mret

000016b0 <EXTI2_IRQHandler>:
EXTI2_IRQHandler():
D:/projects/mechanical_arm/Firmware/UWB/project/user/src/isr.c:178

void EXTI2_IRQHandler(void)
{
    16b0:	1141                	addi	sp,sp,-16
    16b2:	c622                	sw	s0,12(sp)
    16b4:	0800                	addi	s0,sp,16
D:/projects/mechanical_arm/Firmware/UWB/project/user/src/isr.c:179
    if(SET == EXTI_GetITStatus(EXTI_Line2))
    16b6:	4511                	li	a0,4
    16b8:	72a000ef          	jal	ra,1de2 <EXTI_GetITStatus>
    16bc:	872a                	mv	a4,a0
    16be:	4785                	li	a5,1
    16c0:	02f71463          	bne	a4,a5,16e8 <EXTI2_IRQHandler+0x38>
D:/projects/mechanical_arm/Firmware/UWB/project/user/src/isr.c:183 (discriminator 1)
    {
        do
        {
            port_deca_isr();
    16c4:	8a01a783          	lw	a5,-1888(gp) # 200002d0 <port_deca_isr>
    16c8:	9782                	jalr	a5
D:/projects/mechanical_arm/Firmware/UWB/project/user/src/isr.c:184 (discriminator 1)
        } while (port_CheckEXT_IRQ() == 1);
    16ca:	4591                	li	a1,4
    16cc:	400117b7          	lui	a5,0x40011
    16d0:	80078513          	addi	a0,a5,-2048 # 40010800 <_eusrstack+0x20000800>
    16d4:	1af000ef          	jal	ra,2082 <GPIO_ReadInputDataBit>
    16d8:	87aa                	mv	a5,a0
    16da:	873e                	mv	a4,a5
    16dc:	4785                	li	a5,1
    16de:	fef703e3          	beq	a4,a5,16c4 <EXTI2_IRQHandler+0x14>
D:/projects/mechanical_arm/Firmware/UWB/project/user/src/isr.c:186
        /* Clear EXTI Line 5 Pending Bit */
        EXTI_ClearITPendingBit(EXTI_Line2);
    16e2:	4511                	li	a0,4
    16e4:	754000ef          	jal	ra,1e38 <EXTI_ClearITPendingBit>
D:/projects/mechanical_arm/Firmware/UWB/project/user/src/isr.c:189

    }
}
    16e8:	0001                	nop
    16ea:	4432                	lw	s0,12(sp)
    16ec:	0141                	addi	sp,sp,16
    16ee:	30200073          	mret

000016f2 <EXTI3_IRQHandler>:
EXTI3_IRQHandler():
D:/projects/mechanical_arm/Firmware/UWB/project/user/src/isr.c:192

void EXTI3_IRQHandler(void)
{
    16f2:	1141                	addi	sp,sp,-16
    16f4:	c622                	sw	s0,12(sp)
    16f6:	0800                	addi	s0,sp,16
D:/projects/mechanical_arm/Firmware/UWB/project/user/src/isr.c:193
    if(SET == EXTI_GetITStatus(EXTI_Line3))
    16f8:	4521                	li	a0,8
    16fa:	6e8000ef          	jal	ra,1de2 <EXTI_GetITStatus>
    16fe:	872a                	mv	a4,a0
    1700:	4785                	li	a5,1
    1702:	00f71563          	bne	a4,a5,170c <EXTI3_IRQHandler+0x1a>
D:/projects/mechanical_arm/Firmware/UWB/project/user/src/isr.c:195
    {
        EXTI_ClearITPendingBit(EXTI_Line3);
    1706:	4521                	li	a0,8
    1708:	730000ef          	jal	ra,1e38 <EXTI_ClearITPendingBit>
D:/projects/mechanical_arm/Firmware/UWB/project/user/src/isr.c:198

    }
}
    170c:	0001                	nop
    170e:	4432                	lw	s0,12(sp)
    1710:	0141                	addi	sp,sp,16
    1712:	30200073          	mret

00001716 <EXTI4_IRQHandler>:
EXTI4_IRQHandler():
D:/projects/mechanical_arm/Firmware/UWB/project/user/src/isr.c:201

void EXTI4_IRQHandler(void)
{
    1716:	1141                	addi	sp,sp,-16
    1718:	c622                	sw	s0,12(sp)
    171a:	0800                	addi	s0,sp,16
D:/projects/mechanical_arm/Firmware/UWB/project/user/src/isr.c:202
    if(SET == EXTI_GetITStatus(EXTI_Line4))
    171c:	4541                	li	a0,16
    171e:	25d1                	jal	1de2 <EXTI_GetITStatus>
    1720:	872a                	mv	a4,a0
    1722:	4785                	li	a5,1
    1724:	00f71563          	bne	a4,a5,172e <EXTI4_IRQHandler+0x18>
D:/projects/mechanical_arm/Firmware/UWB/project/user/src/isr.c:204
    {
        EXTI_ClearITPendingBit(EXTI_Line4);
    1728:	4541                	li	a0,16
    172a:	70e000ef          	jal	ra,1e38 <EXTI_ClearITPendingBit>
D:/projects/mechanical_arm/Firmware/UWB/project/user/src/isr.c:207

    }
}
    172e:	0001                	nop
    1730:	4432                	lw	s0,12(sp)
    1732:	0141                	addi	sp,sp,16
    1734:	30200073          	mret

00001738 <EXTI9_5_IRQHandler>:
EXTI9_5_IRQHandler():
D:/projects/mechanical_arm/Firmware/UWB/project/user/src/isr.c:209
void EXTI9_5_IRQHandler(void)
{
    1738:	1141                	addi	sp,sp,-16
    173a:	c622                	sw	s0,12(sp)
    173c:	0800                	addi	s0,sp,16
D:/projects/mechanical_arm/Firmware/UWB/project/user/src/isr.c:210
    if(SET == EXTI_GetITStatus(EXTI_Line5))
    173e:	02000513          	li	a0,32
    1742:	2545                	jal	1de2 <EXTI_GetITStatus>
    1744:	872a                	mv	a4,a0
    1746:	4785                	li	a5,1
    1748:	00f71663          	bne	a4,a5,1754 <EXTI9_5_IRQHandler+0x1c>
D:/projects/mechanical_arm/Firmware/UWB/project/user/src/isr.c:212
    {
        EXTI_ClearITPendingBit(EXTI_Line5);
    174c:	02000513          	li	a0,32
    1750:	6e8000ef          	jal	ra,1e38 <EXTI_ClearITPendingBit>
D:/projects/mechanical_arm/Firmware/UWB/project/user/src/isr.c:215

    }
    if(SET == EXTI_GetITStatus(EXTI_Line6))
    1754:	04000513          	li	a0,64
    1758:	2569                	jal	1de2 <EXTI_GetITStatus>
    175a:	872a                	mv	a4,a0
    175c:	4785                	li	a5,1
    175e:	00f71563          	bne	a4,a5,1768 <EXTI9_5_IRQHandler+0x30>
D:/projects/mechanical_arm/Firmware/UWB/project/user/src/isr.c:217
    {
        EXTI_ClearITPendingBit(EXTI_Line6);
    1762:	04000513          	li	a0,64
    1766:	2dc9                	jal	1e38 <EXTI_ClearITPendingBit>
D:/projects/mechanical_arm/Firmware/UWB/project/user/src/isr.c:220

    }
    if(SET == EXTI_GetITStatus(EXTI_Line7))
    1768:	08000513          	li	a0,128
    176c:	2d9d                	jal	1de2 <EXTI_GetITStatus>
    176e:	872a                	mv	a4,a0
    1770:	4785                	li	a5,1
    1772:	00f71563          	bne	a4,a5,177c <EXTI9_5_IRQHandler+0x44>
D:/projects/mechanical_arm/Firmware/UWB/project/user/src/isr.c:222
    {
        EXTI_ClearITPendingBit(EXTI_Line7);
    1776:	08000513          	li	a0,128
    177a:	2d7d                	jal	1e38 <EXTI_ClearITPendingBit>
D:/projects/mechanical_arm/Firmware/UWB/project/user/src/isr.c:225

    }
    if(SET == EXTI_GetITStatus(EXTI_Line8))
    177c:	10000513          	li	a0,256
    1780:	258d                	jal	1de2 <EXTI_GetITStatus>
    1782:	872a                	mv	a4,a0
    1784:	4785                	li	a5,1
    1786:	00f71563          	bne	a4,a5,1790 <EXTI9_5_IRQHandler+0x58>
D:/projects/mechanical_arm/Firmware/UWB/project/user/src/isr.c:227
    {
        EXTI_ClearITPendingBit(EXTI_Line8);
    178a:	10000513          	li	a0,256
    178e:	256d                	jal	1e38 <EXTI_ClearITPendingBit>
D:/projects/mechanical_arm/Firmware/UWB/project/user/src/isr.c:230

    }
    if(SET == EXTI_GetITStatus(EXTI_Line9))
    1790:	20000513          	li	a0,512
    1794:	25b9                	jal	1de2 <EXTI_GetITStatus>
    1796:	872a                	mv	a4,a0
    1798:	4785                	li	a5,1
    179a:	00f71563          	bne	a4,a5,17a4 <EXTI9_5_IRQHandler+0x6c>
D:/projects/mechanical_arm/Firmware/UWB/project/user/src/isr.c:232
    {
        EXTI_ClearITPendingBit(EXTI_Line9);
    179e:	20000513          	li	a0,512
    17a2:	2d59                	jal	1e38 <EXTI_ClearITPendingBit>
D:/projects/mechanical_arm/Firmware/UWB/project/user/src/isr.c:236

    }

}
    17a4:	0001                	nop
    17a6:	4432                	lw	s0,12(sp)
    17a8:	0141                	addi	sp,sp,16
    17aa:	30200073          	mret

000017ae <EXTI15_10_IRQHandler>:
EXTI15_10_IRQHandler():
D:/projects/mechanical_arm/Firmware/UWB/project/user/src/isr.c:239

void EXTI15_10_IRQHandler(void)
{
    17ae:	1141                	addi	sp,sp,-16
    17b0:	c622                	sw	s0,12(sp)
    17b2:	0800                	addi	s0,sp,16
D:/projects/mechanical_arm/Firmware/UWB/project/user/src/isr.c:240
    if(SET == EXTI_GetITStatus(EXTI_Line10))
    17b4:	40000513          	li	a0,1024
    17b8:	252d                	jal	1de2 <EXTI_GetITStatus>
    17ba:	872a                	mv	a4,a0
    17bc:	4785                	li	a5,1
    17be:	00f71563          	bne	a4,a5,17c8 <EXTI15_10_IRQHandler+0x1a>
D:/projects/mechanical_arm/Firmware/UWB/project/user/src/isr.c:242
    {
        EXTI_ClearITPendingBit(EXTI_Line10);
    17c2:	40000513          	li	a0,1024
    17c6:	2d8d                	jal	1e38 <EXTI_ClearITPendingBit>
D:/projects/mechanical_arm/Firmware/UWB/project/user/src/isr.c:245

    }
    if(SET == EXTI_GetITStatus(EXTI_Line11))
    17c8:	6785                	lui	a5,0x1
    17ca:	80078513          	addi	a0,a5,-2048 # 800 <__stack_size>
    17ce:	2d11                	jal	1de2 <EXTI_GetITStatus>
    17d0:	872a                	mv	a4,a0
    17d2:	4785                	li	a5,1
    17d4:	00f71663          	bne	a4,a5,17e0 <EXTI15_10_IRQHandler+0x32>
D:/projects/mechanical_arm/Firmware/UWB/project/user/src/isr.c:247
    {
        EXTI_ClearITPendingBit(EXTI_Line11);
    17d8:	6785                	lui	a5,0x1
    17da:	80078513          	addi	a0,a5,-2048 # 800 <__stack_size>
    17de:	2da9                	jal	1e38 <EXTI_ClearITPendingBit>
D:/projects/mechanical_arm/Firmware/UWB/project/user/src/isr.c:250

    }
    if(SET == EXTI_GetITStatus(EXTI_Line12))
    17e0:	6505                	lui	a0,0x1
    17e2:	2501                	jal	1de2 <EXTI_GetITStatus>
    17e4:	872a                	mv	a4,a0
    17e6:	4785                	li	a5,1
    17e8:	00f71463          	bne	a4,a5,17f0 <EXTI15_10_IRQHandler+0x42>
D:/projects/mechanical_arm/Firmware/UWB/project/user/src/isr.c:252
    {
        EXTI_ClearITPendingBit(EXTI_Line12);
    17ec:	6505                	lui	a0,0x1
    17ee:	25a9                	jal	1e38 <EXTI_ClearITPendingBit>
D:/projects/mechanical_arm/Firmware/UWB/project/user/src/isr.c:255

    }
    if(SET == EXTI_GetITStatus(EXTI_Line13))
    17f0:	6509                	lui	a0,0x2
    17f2:	2bc5                	jal	1de2 <EXTI_GetITStatus>
    17f4:	872a                	mv	a4,a0
    17f6:	4785                	li	a5,1
    17f8:	00f71463          	bne	a4,a5,1800 <EXTI15_10_IRQHandler+0x52>
D:/projects/mechanical_arm/Firmware/UWB/project/user/src/isr.c:257
    {
        EXTI_ClearITPendingBit(EXTI_Line13);
    17fc:	6509                	lui	a0,0x2
    17fe:	2d2d                	jal	1e38 <EXTI_ClearITPendingBit>
D:/projects/mechanical_arm/Firmware/UWB/project/user/src/isr.c:260

    }
    if(SET == EXTI_GetITStatus(EXTI_Line14))
    1800:	6511                	lui	a0,0x4
    1802:	23c5                	jal	1de2 <EXTI_GetITStatus>
    1804:	872a                	mv	a4,a0
    1806:	4785                	li	a5,1
    1808:	00f71463          	bne	a4,a5,1810 <EXTI15_10_IRQHandler+0x62>
D:/projects/mechanical_arm/Firmware/UWB/project/user/src/isr.c:262
    {
        EXTI_ClearITPendingBit(EXTI_Line14);
    180c:	6511                	lui	a0,0x4
    180e:	252d                	jal	1e38 <EXTI_ClearITPendingBit>
D:/projects/mechanical_arm/Firmware/UWB/project/user/src/isr.c:265

    }
    if(SET == EXTI_GetITStatus(EXTI_Line15))
    1810:	6521                	lui	a0,0x8
    1812:	2bc1                	jal	1de2 <EXTI_GetITStatus>
    1814:	872a                	mv	a4,a0
    1816:	4785                	li	a5,1
    1818:	00f71463          	bne	a4,a5,1820 <EXTI15_10_IRQHandler+0x72>
D:/projects/mechanical_arm/Firmware/UWB/project/user/src/isr.c:267
    {
        EXTI_ClearITPendingBit(EXTI_Line15);
    181c:	6521                	lui	a0,0x8
    181e:	2d29                	jal	1e38 <EXTI_ClearITPendingBit>
D:/projects/mechanical_arm/Firmware/UWB/project/user/src/isr.c:270

    }
}
    1820:	0001                	nop
    1822:	4432                	lw	s0,12(sp)
    1824:	0141                	addi	sp,sp,16
    1826:	30200073          	mret

0000182a <TIM1_UP_IRQHandler>:
TIM1_UP_IRQHandler():
D:/projects/mechanical_arm/Firmware/UWB/project/user/src/isr.c:273

void TIM1_UP_IRQHandler(void)
{
    182a:	1141                	addi	sp,sp,-16
    182c:	c622                	sw	s0,12(sp)
    182e:	0800                	addi	s0,sp,16
D:/projects/mechanical_arm/Firmware/UWB/project/user/src/isr.c:274
    if(TIM_GetITStatus(TIM1, TIM_IT_Update) != RESET)
    1830:	4585                	li	a1,1
    1832:	400137b7          	lui	a5,0x40013
    1836:	c0078513          	addi	a0,a5,-1024 # 40012c00 <_eusrstack+0x20002c00>
    183a:	7d9000ef          	jal	ra,2812 <TIM_GetITStatus>
    183e:	87aa                	mv	a5,a0
    1840:	cb81                	beqz	a5,1850 <TIM1_UP_IRQHandler+0x26>
D:/projects/mechanical_arm/Firmware/UWB/project/user/src/isr.c:276
    {
        TIM_ClearITPendingBit(TIM1, TIM_IT_Update);
    1842:	4585                	li	a1,1
    1844:	400137b7          	lui	a5,0x40013
    1848:	c0078513          	addi	a0,a5,-1024 # 40012c00 <_eusrstack+0x20002c00>
    184c:	036010ef          	jal	ra,2882 <TIM_ClearITPendingBit>
D:/projects/mechanical_arm/Firmware/UWB/project/user/src/isr.c:279

    }
}
    1850:	0001                	nop
    1852:	4432                	lw	s0,12(sp)
    1854:	0141                	addi	sp,sp,16
    1856:	30200073          	mret

0000185a <TIM2_IRQHandler>:
TIM2_IRQHandler():
D:/projects/mechanical_arm/Firmware/UWB/project/user/src/isr.c:283


void TIM2_IRQHandler(void)
{
    185a:	1141                	addi	sp,sp,-16
    185c:	c622                	sw	s0,12(sp)
    185e:	0800                	addi	s0,sp,16
D:/projects/mechanical_arm/Firmware/UWB/project/user/src/isr.c:284
    if(TIM_GetITStatus(TIM2, TIM_IT_Update) != RESET)
    1860:	4585                	li	a1,1
    1862:	40000537          	lui	a0,0x40000
    1866:	7ad000ef          	jal	ra,2812 <TIM_GetITStatus>
    186a:	87aa                	mv	a5,a0
    186c:	cb91                	beqz	a5,1880 <TIM2_IRQHandler+0x26>
D:/projects/mechanical_arm/Firmware/UWB/project/user/src/isr.c:286
    {
       TIM_ClearITPendingBit(TIM2, TIM_IT_Update );
    186e:	4585                	li	a1,1
    1870:	40000537          	lui	a0,0x40000
    1874:	00e010ef          	jal	ra,2882 <TIM_ClearITPendingBit>
D:/projects/mechanical_arm/Firmware/UWB/project/user/src/isr.c:287
       gpio_toggle_level(E2);
    1878:	08200513          	li	a0,130
    187c:	a9dfe0ef          	jal	ra,318 <gpio_toggle_level>
D:/projects/mechanical_arm/Firmware/UWB/project/user/src/isr.c:290

    }
}
    1880:	0001                	nop
    1882:	4432                	lw	s0,12(sp)
    1884:	0141                	addi	sp,sp,16
    1886:	30200073          	mret

0000188a <TIM3_IRQHandler>:
TIM3_IRQHandler():
D:/projects/mechanical_arm/Firmware/UWB/project/user/src/isr.c:293

void TIM3_IRQHandler(void)
{
    188a:	1141                	addi	sp,sp,-16
    188c:	c622                	sw	s0,12(sp)
    188e:	0800                	addi	s0,sp,16
D:/projects/mechanical_arm/Firmware/UWB/project/user/src/isr.c:294
    if(TIM_GetITStatus(TIM3, TIM_IT_Update) != RESET)
    1890:	4585                	li	a1,1
    1892:	400007b7          	lui	a5,0x40000
    1896:	40078513          	addi	a0,a5,1024 # 40000400 <_eusrstack+0x1fff0400>
    189a:	779000ef          	jal	ra,2812 <TIM_GetITStatus>
    189e:	87aa                	mv	a5,a0
    18a0:	cb81                	beqz	a5,18b0 <TIM3_IRQHandler+0x26>
D:/projects/mechanical_arm/Firmware/UWB/project/user/src/isr.c:296
    {
       TIM_ClearITPendingBit(TIM3, TIM_IT_Update );
    18a2:	4585                	li	a1,1
    18a4:	400007b7          	lui	a5,0x40000
    18a8:	40078513          	addi	a0,a5,1024 # 40000400 <_eusrstack+0x1fff0400>
    18ac:	7d7000ef          	jal	ra,2882 <TIM_ClearITPendingBit>
D:/projects/mechanical_arm/Firmware/UWB/project/user/src/isr.c:300


    }
}
    18b0:	0001                	nop
    18b2:	4432                	lw	s0,12(sp)
    18b4:	0141                	addi	sp,sp,16
    18b6:	30200073          	mret

000018ba <TIM4_IRQHandler>:
TIM4_IRQHandler():
D:/projects/mechanical_arm/Firmware/UWB/project/user/src/isr.c:303

void TIM4_IRQHandler(void)
{
    18ba:	1141                	addi	sp,sp,-16
    18bc:	c622                	sw	s0,12(sp)
    18be:	0800                	addi	s0,sp,16
D:/projects/mechanical_arm/Firmware/UWB/project/user/src/isr.c:304
    if(TIM_GetITStatus(TIM4, TIM_IT_Update) != RESET)
    18c0:	4585                	li	a1,1
    18c2:	400017b7          	lui	a5,0x40001
    18c6:	80078513          	addi	a0,a5,-2048 # 40000800 <_eusrstack+0x1fff0800>
    18ca:	749000ef          	jal	ra,2812 <TIM_GetITStatus>
    18ce:	87aa                	mv	a5,a0
    18d0:	cb81                	beqz	a5,18e0 <TIM4_IRQHandler+0x26>
D:/projects/mechanical_arm/Firmware/UWB/project/user/src/isr.c:306
    {
       TIM_ClearITPendingBit(TIM4, TIM_IT_Update );
    18d2:	4585                	li	a1,1
    18d4:	400017b7          	lui	a5,0x40001
    18d8:	80078513          	addi	a0,a5,-2048 # 40000800 <_eusrstack+0x1fff0800>
    18dc:	7a7000ef          	jal	ra,2882 <TIM_ClearITPendingBit>
D:/projects/mechanical_arm/Firmware/UWB/project/user/src/isr.c:310


    }
}
    18e0:	0001                	nop
    18e2:	4432                	lw	s0,12(sp)
    18e4:	0141                	addi	sp,sp,16
    18e6:	30200073          	mret

000018ea <TIM5_IRQHandler>:
TIM5_IRQHandler():
D:/projects/mechanical_arm/Firmware/UWB/project/user/src/isr.c:313

void TIM5_IRQHandler(void)
{
    18ea:	1141                	addi	sp,sp,-16
    18ec:	c622                	sw	s0,12(sp)
    18ee:	0800                	addi	s0,sp,16
D:/projects/mechanical_arm/Firmware/UWB/project/user/src/isr.c:314
    if(TIM_GetITStatus(TIM5, TIM_IT_Update) != RESET)
    18f0:	4585                	li	a1,1
    18f2:	400017b7          	lui	a5,0x40001
    18f6:	c0078513          	addi	a0,a5,-1024 # 40000c00 <_eusrstack+0x1fff0c00>
    18fa:	719000ef          	jal	ra,2812 <TIM_GetITStatus>
    18fe:	87aa                	mv	a5,a0
    1900:	cb81                	beqz	a5,1910 <TIM5_IRQHandler+0x26>
D:/projects/mechanical_arm/Firmware/UWB/project/user/src/isr.c:316
    {
       TIM_ClearITPendingBit(TIM5, TIM_IT_Update );
    1902:	4585                	li	a1,1
    1904:	400017b7          	lui	a5,0x40001
    1908:	c0078513          	addi	a0,a5,-1024 # 40000c00 <_eusrstack+0x1fff0c00>
    190c:	777000ef          	jal	ra,2882 <TIM_ClearITPendingBit>
D:/projects/mechanical_arm/Firmware/UWB/project/user/src/isr.c:320


    }
}
    1910:	0001                	nop
    1912:	4432                	lw	s0,12(sp)
    1914:	0141                	addi	sp,sp,16
    1916:	30200073          	mret

0000191a <TIM6_IRQHandler>:
TIM6_IRQHandler():
D:/projects/mechanical_arm/Firmware/UWB/project/user/src/isr.c:323

void TIM6_IRQHandler(void)
{
    191a:	1141                	addi	sp,sp,-16
    191c:	c622                	sw	s0,12(sp)
    191e:	0800                	addi	s0,sp,16
D:/projects/mechanical_arm/Firmware/UWB/project/user/src/isr.c:324
    if(TIM_GetITStatus(TIM6, TIM_IT_Update) != RESET)
    1920:	4585                	li	a1,1
    1922:	40001537          	lui	a0,0x40001
    1926:	6ed000ef          	jal	ra,2812 <TIM_GetITStatus>
    192a:	87aa                	mv	a5,a0
    192c:	c791                	beqz	a5,1938 <TIM6_IRQHandler+0x1e>
D:/projects/mechanical_arm/Firmware/UWB/project/user/src/isr.c:326
    {
       TIM_ClearITPendingBit(TIM6, TIM_IT_Update );
    192e:	4585                	li	a1,1
    1930:	40001537          	lui	a0,0x40001
    1934:	74f000ef          	jal	ra,2882 <TIM_ClearITPendingBit>
D:/projects/mechanical_arm/Firmware/UWB/project/user/src/isr.c:330


    }
}
    1938:	0001                	nop
    193a:	4432                	lw	s0,12(sp)
    193c:	0141                	addi	sp,sp,16
    193e:	30200073          	mret

00001942 <TIM7_IRQHandler>:
TIM7_IRQHandler():
D:/projects/mechanical_arm/Firmware/UWB/project/user/src/isr.c:333

void TIM7_IRQHandler(void)
{
    1942:	1141                	addi	sp,sp,-16
    1944:	c622                	sw	s0,12(sp)
    1946:	0800                	addi	s0,sp,16
D:/projects/mechanical_arm/Firmware/UWB/project/user/src/isr.c:334
    if(TIM_GetITStatus(TIM7, TIM_IT_Update) != RESET)
    1948:	4585                	li	a1,1
    194a:	400017b7          	lui	a5,0x40001
    194e:	40078513          	addi	a0,a5,1024 # 40001400 <_eusrstack+0x1fff1400>
    1952:	6c1000ef          	jal	ra,2812 <TIM_GetITStatus>
    1956:	87aa                	mv	a5,a0
    1958:	cb81                	beqz	a5,1968 <TIM7_IRQHandler+0x26>
D:/projects/mechanical_arm/Firmware/UWB/project/user/src/isr.c:336
    {
       TIM_ClearITPendingBit(TIM7, TIM_IT_Update );
    195a:	4585                	li	a1,1
    195c:	400017b7          	lui	a5,0x40001
    1960:	40078513          	addi	a0,a5,1024 # 40001400 <_eusrstack+0x1fff1400>
    1964:	71f000ef          	jal	ra,2882 <TIM_ClearITPendingBit>
D:/projects/mechanical_arm/Firmware/UWB/project/user/src/isr.c:340


    }
}
    1968:	0001                	nop
    196a:	4432                	lw	s0,12(sp)
    196c:	0141                	addi	sp,sp,16
    196e:	30200073          	mret

00001972 <TIM8_UP_IRQHandler>:
TIM8_UP_IRQHandler():
D:/projects/mechanical_arm/Firmware/UWB/project/user/src/isr.c:344


void TIM8_UP_IRQHandler(void)
{
    1972:	1141                	addi	sp,sp,-16
    1974:	c622                	sw	s0,12(sp)
    1976:	0800                	addi	s0,sp,16
D:/projects/mechanical_arm/Firmware/UWB/project/user/src/isr.c:345
    if(TIM_GetITStatus(TIM8, TIM_IT_Update) != RESET)
    1978:	4585                	li	a1,1
    197a:	400137b7          	lui	a5,0x40013
    197e:	40078513          	addi	a0,a5,1024 # 40013400 <_eusrstack+0x20003400>
    1982:	691000ef          	jal	ra,2812 <TIM_GetITStatus>
    1986:	87aa                	mv	a5,a0
    1988:	cb81                	beqz	a5,1998 <TIM8_UP_IRQHandler+0x26>
D:/projects/mechanical_arm/Firmware/UWB/project/user/src/isr.c:347
    {
        TIM_ClearITPendingBit(TIM8, TIM_IT_Update);
    198a:	4585                	li	a1,1
    198c:	400137b7          	lui	a5,0x40013
    1990:	40078513          	addi	a0,a5,1024 # 40013400 <_eusrstack+0x20003400>
    1994:	6ef000ef          	jal	ra,2882 <TIM_ClearITPendingBit>
D:/projects/mechanical_arm/Firmware/UWB/project/user/src/isr.c:350

    }
}
    1998:	0001                	nop
    199a:	4432                	lw	s0,12(sp)
    199c:	0141                	addi	sp,sp,16
    199e:	30200073          	mret

000019a2 <TIM9_UP_IRQHandler>:
TIM9_UP_IRQHandler():
D:/projects/mechanical_arm/Firmware/UWB/project/user/src/isr.c:354


void TIM9_UP_IRQHandler(void)
{
    19a2:	1141                	addi	sp,sp,-16
    19a4:	c622                	sw	s0,12(sp)
    19a6:	0800                	addi	s0,sp,16
D:/projects/mechanical_arm/Firmware/UWB/project/user/src/isr.c:355
    if(TIM_GetITStatus(TIM9, TIM_IT_Update) != RESET)
    19a8:	4585                	li	a1,1
    19aa:	400157b7          	lui	a5,0x40015
    19ae:	c0078513          	addi	a0,a5,-1024 # 40014c00 <_eusrstack+0x20004c00>
    19b2:	661000ef          	jal	ra,2812 <TIM_GetITStatus>
    19b6:	87aa                	mv	a5,a0
    19b8:	cb81                	beqz	a5,19c8 <TIM9_UP_IRQHandler+0x26>
D:/projects/mechanical_arm/Firmware/UWB/project/user/src/isr.c:357
    {
        TIM_ClearITPendingBit(TIM9, TIM_IT_Update);
    19ba:	4585                	li	a1,1
    19bc:	400157b7          	lui	a5,0x40015
    19c0:	c0078513          	addi	a0,a5,-1024 # 40014c00 <_eusrstack+0x20004c00>
    19c4:	6bf000ef          	jal	ra,2882 <TIM_ClearITPendingBit>
D:/projects/mechanical_arm/Firmware/UWB/project/user/src/isr.c:360

    }
}
    19c8:	0001                	nop
    19ca:	4432                	lw	s0,12(sp)
    19cc:	0141                	addi	sp,sp,16
    19ce:	30200073          	mret

000019d2 <TIM10_UP_IRQHandler>:
TIM10_UP_IRQHandler():
D:/projects/mechanical_arm/Firmware/UWB/project/user/src/isr.c:364


void TIM10_UP_IRQHandler(void)
{
    19d2:	1141                	addi	sp,sp,-16
    19d4:	c622                	sw	s0,12(sp)
    19d6:	0800                	addi	s0,sp,16
D:/projects/mechanical_arm/Firmware/UWB/project/user/src/isr.c:365
    if(TIM_GetITStatus(TIM10, TIM_IT_Update) != RESET)
    19d8:	4585                	li	a1,1
    19da:	40015537          	lui	a0,0x40015
    19de:	635000ef          	jal	ra,2812 <TIM_GetITStatus>
    19e2:	87aa                	mv	a5,a0
    19e4:	c791                	beqz	a5,19f0 <TIM10_UP_IRQHandler+0x1e>
D:/projects/mechanical_arm/Firmware/UWB/project/user/src/isr.c:367
    {
        TIM_ClearITPendingBit(TIM10, TIM_IT_Update);
    19e6:	4585                	li	a1,1
    19e8:	40015537          	lui	a0,0x40015
    19ec:	697000ef          	jal	ra,2882 <TIM_ClearITPendingBit>
D:/projects/mechanical_arm/Firmware/UWB/project/user/src/isr.c:370

    }
}
    19f0:	0001                	nop
    19f2:	4432                	lw	s0,12(sp)
    19f4:	0141                	addi	sp,sp,16
    19f6:	30200073          	mret

000019fa <NMI_Handler>:
NMI_Handler():
D:/projects/mechanical_arm/Firmware/UWB/project/user/src/isr.c:466
* Description    : This function handles NMI exception.
* Input          : None
* Return         : None
*******************************************************************************/
void NMI_Handler(void)
{
    19fa:	1141                	addi	sp,sp,-16
    19fc:	c622                	sw	s0,12(sp)
    19fe:	0800                	addi	s0,sp,16
D:/projects/mechanical_arm/Firmware/UWB/project/user/src/isr.c:467
}
    1a00:	0001                	nop
    1a02:	4432                	lw	s0,12(sp)
    1a04:	0141                	addi	sp,sp,16
    1a06:	30200073          	mret

00001a0a <HardFault_Handler>:
HardFault_Handler():
D:/projects/mechanical_arm/Firmware/UWB/project/user/src/isr.c:476
* Description    : This function handles Hard Fault exception.
* Input          : None
* Return         : None
*******************************************************************************/
void HardFault_Handler(void)
{
    1a0a:	1141                	addi	sp,sp,-16
    1a0c:	c622                	sw	s0,12(sp)
    1a0e:	0800                	addi	s0,sp,16
D:/projects/mechanical_arm/Firmware/UWB/project/user/src/isr.c:477 (discriminator 1)
  while (1)
    1a10:	a001                	j	1a10 <HardFault_Handler+0x6>

00001a12 <main>:
main():
D:/projects/mechanical_arm/Firmware/UWB/project/user/src/main.c:45
    DWT_PHRMODE_STD, /* PHY header mode. */
    (1025 + 64 - 32) /* SFD timeout (preamble length + 1 + SFD length - PAC size). Used in RX only. */
};

int main(void)
{
    1a12:	1141                	addi	sp,sp,-16
    1a14:	c606                	sw	ra,12(sp)
    1a16:	c422                	sw	s0,8(sp)
    1a18:	c24a                	sw	s2,4(sp)
    1a1a:	c04e                	sw	s3,0(sp)
    1a1c:	0800                	addi	s0,sp,16
D:/projects/mechanical_arm/Firmware/UWB/project/user/src/main.c:46
    interrupt_global_disable();
    1a1e:	a0bff0ef          	jal	ra,1428 <interrupt_global_disable>
D:/projects/mechanical_arm/Firmware/UWB/project/user/src/main.c:47
    clock_init(SYSTEM_CLOCK_144M);
    1a22:	089547b7          	lui	a5,0x8954
    1a26:	40078513          	addi	a0,a5,1024 # 8954400 <_data_lma+0x8949fdc>
    1a2a:	c2aff0ef          	jal	ra,e54 <clock_init>
D:/projects/mechanical_arm/Firmware/UWB/project/user/src/main.c:48
    debug_init();
    1a2e:	f24ff0ef          	jal	ra,1152 <debug_init>
D:/projects/mechanical_arm/Firmware/UWB/project/user/src/main.c:49
    GPIO_RCC_Configuration();
    1a32:	6a8020ef          	jal	ra,40da <GPIO_RCC_Configuration>
D:/projects/mechanical_arm/Firmware/UWB/project/user/src/main.c:50
    SPI_DW_Configuration(SPIx, SPI_BaudRatePrescaler_32);
    1a36:	02000593          	li	a1,32
    1a3a:	40013537          	lui	a0,0x40013
    1a3e:	4c8020ef          	jal	ra,3f06 <SPI_DW_Configuration>
D:/projects/mechanical_arm/Firmware/UWB/project/user/src/main.c:52

    port_set_deca_isr(dwt_isr);
    1a42:	000057b7          	lui	a5,0x5
    1a46:	bc478513          	addi	a0,a5,-1084 # 4bc4 <dwt_isr>
    1a4a:	650020ef          	jal	ra,409a <port_set_deca_isr>
D:/projects/mechanical_arm/Firmware/UWB/project/user/src/main.c:54

    interrupt_global_enable();
    1a4e:	9adff0ef          	jal	ra,13fa <interrupt_global_enable>
D:/projects/mechanical_arm/Firmware/UWB/project/user/src/main.c:56

    reset_DW1000();
    1a52:	5d6020ef          	jal	ra,4028 <reset_DW1000>
D:/projects/mechanical_arm/Firmware/UWB/project/user/src/main.c:59

    //spi_set_rate_low();
    while(dwt_initialise(DWT_LOADNONE) == DWT_ERROR)
    1a56:	a031                	j	1a62 <main+0x50>
D:/projects/mechanical_arm/Firmware/UWB/project/user/src/main.c:61
    {
        printf("Error");
    1a58:	67a9                	lui	a5,0xa
    1a5a:	cc878513          	addi	a0,a5,-824 # 9cc8 <_sbrk+0x20>
    1a5e:	42b050ef          	jal	ra,7688 <iprintf>
D:/projects/mechanical_arm/Firmware/UWB/project/user/src/main.c:59
    while(dwt_initialise(DWT_LOADNONE) == DWT_ERROR)
    1a62:	4501                	li	a0,0
    1a64:	6aa020ef          	jal	ra,410e <dwt_initialise>
    1a68:	872a                	mv	a4,a0
    1a6a:	57fd                	li	a5,-1
    1a6c:	fef706e3          	beq	a4,a5,1a58 <main+0x46>
D:/projects/mechanical_arm/Firmware/UWB/project/user/src/main.c:63
    }
    spi_set_rate_high();
    1a70:	480020ef          	jal	ra,3ef0 <spi_set_rate_high>
D:/projects/mechanical_arm/Firmware/UWB/project/user/src/main.c:64
    dwt_configure(&config);
    1a74:	200007b7          	lui	a5,0x20000
    1a78:	00078513          	mv	a0,a5
    1a7c:	05b020ef          	jal	ra,42d6 <dwt_configure>
D:/projects/mechanical_arm/Firmware/UWB/project/user/src/main.c:69 (discriminator 1)

    while(1)
    {

        system_delay_ms(1000);
    1a80:	8701a703          	lw	a4,-1936(gp) # 200002a0 <system_clock>
    1a84:	6789                	lui	a5,0x2
    1a86:	f4078793          	addi	a5,a5,-192 # 1f40 <GPIO_Init+0xe8>
    1a8a:	02f75733          	divu	a4,a4,a5
    1a8e:	3e800793          	li	a5,1000
    1a92:	02f707b3          	mul	a5,a4,a5
    1a96:	893e                	mv	s2,a5
    1a98:	4981                	li	s3,0
    1a9a:	854a                	mv	a0,s2
    1a9c:	85ce                	mv	a1,s3
    1a9e:	81ffe0ef          	jal	ra,2bc <system_delay>
    1aa2:	bff9                	j	1a80 <main+0x6e>
D:/projects/mechanical_arm/Firmware/UWB/libraries/sdk/Startup/startup_ch32v30x.S:236
    .weak   DMA2_Channel8_IRQHandler   /* DMA2 Channel 8 */
    .weak   DMA2_Channel9_IRQHandler   /* DMA2 Channel 9 */
    .weak   DMA2_Channel10_IRQHandler  /* DMA2 Channel 10 */
    .weak   DMA2_Channel11_IRQHandler  /* DMA2 Channel 11 */

NMI_Handler:  1:  j 1b
    1aa4:	a001                	j	1aa4 <main+0x92>
D:/projects/mechanical_arm/Firmware/UWB/libraries/sdk/Startup/startup_ch32v30x.S:237
HardFault_Handler:  1:  j 1b
    1aa6:	a001                	j	1aa6 <main+0x94>

00001aa8 <Ecall_M_Mode_Handler>:
Ecall_M_Mode_Handler():
D:/projects/mechanical_arm/Firmware/UWB/libraries/sdk/Startup/startup_ch32v30x.S:238
Ecall_M_Mode_Handler:  1:  j 1b
    1aa8:	a001                	j	1aa8 <Ecall_M_Mode_Handler>

00001aaa <Ecall_U_Mode_Handler>:
Ecall_U_Mode_Handler():
D:/projects/mechanical_arm/Firmware/UWB/libraries/sdk/Startup/startup_ch32v30x.S:239
Ecall_U_Mode_Handler:  1:  j 1b
    1aaa:	a001                	j	1aaa <Ecall_U_Mode_Handler>

00001aac <Break_Point_Handler>:
Break_Point_Handler():
D:/projects/mechanical_arm/Firmware/UWB/libraries/sdk/Startup/startup_ch32v30x.S:240
Break_Point_Handler:  1:  j 1b
    1aac:	a001                	j	1aac <Break_Point_Handler>

00001aae <SysTick_Handler>:
SysTick_Handler():
D:/projects/mechanical_arm/Firmware/UWB/libraries/sdk/Startup/startup_ch32v30x.S:241
SysTick_Handler:  1:  j 1b
    1aae:	a001                	j	1aae <SysTick_Handler>

00001ab0 <SW_handler>:
SW_handler():
D:/projects/mechanical_arm/Firmware/UWB/libraries/sdk/Startup/startup_ch32v30x.S:242
SW_handler:  1:  j 1b
    1ab0:	a001                	j	1ab0 <SW_handler>

00001ab2 <WWDG_IRQHandler>:
WWDG_IRQHandler():
D:/projects/mechanical_arm/Firmware/UWB/libraries/sdk/Startup/startup_ch32v30x.S:243
WWDG_IRQHandler:  1:  j 1b
    1ab2:	a001                	j	1ab2 <WWDG_IRQHandler>

00001ab4 <PVD_IRQHandler>:
PVD_IRQHandler():
D:/projects/mechanical_arm/Firmware/UWB/libraries/sdk/Startup/startup_ch32v30x.S:244
PVD_IRQHandler:  1:  j 1b
    1ab4:	a001                	j	1ab4 <PVD_IRQHandler>

00001ab6 <TAMPER_IRQHandler>:
TAMPER_IRQHandler():
D:/projects/mechanical_arm/Firmware/UWB/libraries/sdk/Startup/startup_ch32v30x.S:245
TAMPER_IRQHandler:  1:  j 1b
    1ab6:	a001                	j	1ab6 <TAMPER_IRQHandler>

00001ab8 <RTC_IRQHandler>:
RTC_IRQHandler():
D:/projects/mechanical_arm/Firmware/UWB/libraries/sdk/Startup/startup_ch32v30x.S:246
RTC_IRQHandler:  1:  j 1b
    1ab8:	a001                	j	1ab8 <RTC_IRQHandler>

00001aba <FLASH_IRQHandler>:
FLASH_IRQHandler():
D:/projects/mechanical_arm/Firmware/UWB/libraries/sdk/Startup/startup_ch32v30x.S:247
FLASH_IRQHandler:  1:  j 1b
    1aba:	a001                	j	1aba <FLASH_IRQHandler>

00001abc <RCC_IRQHandler>:
RCC_IRQHandler():
D:/projects/mechanical_arm/Firmware/UWB/libraries/sdk/Startup/startup_ch32v30x.S:248
RCC_IRQHandler:  1:  j 1b
    1abc:	a001                	j	1abc <RCC_IRQHandler>
D:/projects/mechanical_arm/Firmware/UWB/libraries/sdk/Startup/startup_ch32v30x.S:249
EXTI0_IRQHandler:  1:  j 1b
    1abe:	a001                	j	1abe <RCC_IRQHandler+0x2>
D:/projects/mechanical_arm/Firmware/UWB/libraries/sdk/Startup/startup_ch32v30x.S:250
EXTI1_IRQHandler:  1:  j 1b
    1ac0:	a001                	j	1ac0 <RCC_IRQHandler+0x4>
D:/projects/mechanical_arm/Firmware/UWB/libraries/sdk/Startup/startup_ch32v30x.S:251
EXTI2_IRQHandler:  1:  j 1b
    1ac2:	a001                	j	1ac2 <RCC_IRQHandler+0x6>
D:/projects/mechanical_arm/Firmware/UWB/libraries/sdk/Startup/startup_ch32v30x.S:252
EXTI3_IRQHandler:  1:  j 1b
    1ac4:	a001                	j	1ac4 <RCC_IRQHandler+0x8>
D:/projects/mechanical_arm/Firmware/UWB/libraries/sdk/Startup/startup_ch32v30x.S:253
EXTI4_IRQHandler:  1:  j 1b
    1ac6:	a001                	j	1ac6 <RCC_IRQHandler+0xa>

00001ac8 <DMA1_Channel1_IRQHandler>:
DMA1_Channel1_IRQHandler():
D:/projects/mechanical_arm/Firmware/UWB/libraries/sdk/Startup/startup_ch32v30x.S:254
DMA1_Channel1_IRQHandler:  1:  j 1b
    1ac8:	a001                	j	1ac8 <DMA1_Channel1_IRQHandler>

00001aca <DMA1_Channel2_IRQHandler>:
DMA1_Channel2_IRQHandler():
D:/projects/mechanical_arm/Firmware/UWB/libraries/sdk/Startup/startup_ch32v30x.S:255
DMA1_Channel2_IRQHandler:  1:  j 1b
    1aca:	a001                	j	1aca <DMA1_Channel2_IRQHandler>

00001acc <DMA1_Channel3_IRQHandler>:
DMA1_Channel3_IRQHandler():
D:/projects/mechanical_arm/Firmware/UWB/libraries/sdk/Startup/startup_ch32v30x.S:256
DMA1_Channel3_IRQHandler:  1:  j 1b
    1acc:	a001                	j	1acc <DMA1_Channel3_IRQHandler>

00001ace <DMA1_Channel4_IRQHandler>:
DMA1_Channel4_IRQHandler():
D:/projects/mechanical_arm/Firmware/UWB/libraries/sdk/Startup/startup_ch32v30x.S:257
DMA1_Channel4_IRQHandler:  1:  j 1b
    1ace:	a001                	j	1ace <DMA1_Channel4_IRQHandler>

00001ad0 <DMA1_Channel5_IRQHandler>:
DMA1_Channel5_IRQHandler():
D:/projects/mechanical_arm/Firmware/UWB/libraries/sdk/Startup/startup_ch32v30x.S:258
DMA1_Channel5_IRQHandler:  1:  j 1b
    1ad0:	a001                	j	1ad0 <DMA1_Channel5_IRQHandler>

00001ad2 <DMA1_Channel6_IRQHandler>:
DMA1_Channel6_IRQHandler():
D:/projects/mechanical_arm/Firmware/UWB/libraries/sdk/Startup/startup_ch32v30x.S:259
DMA1_Channel6_IRQHandler:  1:  j 1b
    1ad2:	a001                	j	1ad2 <DMA1_Channel6_IRQHandler>

00001ad4 <DMA1_Channel7_IRQHandler>:
DMA1_Channel7_IRQHandler():
D:/projects/mechanical_arm/Firmware/UWB/libraries/sdk/Startup/startup_ch32v30x.S:260
DMA1_Channel7_IRQHandler:  1:  j 1b
    1ad4:	a001                	j	1ad4 <DMA1_Channel7_IRQHandler>

00001ad6 <ADC1_2_IRQHandler>:
ADC1_2_IRQHandler():
D:/projects/mechanical_arm/Firmware/UWB/libraries/sdk/Startup/startup_ch32v30x.S:261
ADC1_2_IRQHandler:  1:  j 1b
    1ad6:	a001                	j	1ad6 <ADC1_2_IRQHandler>

00001ad8 <USB_HP_CAN1_TX_IRQHandler>:
USB_HP_CAN1_TX_IRQHandler():
D:/projects/mechanical_arm/Firmware/UWB/libraries/sdk/Startup/startup_ch32v30x.S:262
USB_HP_CAN1_TX_IRQHandler:  1:  j 1b
    1ad8:	a001                	j	1ad8 <USB_HP_CAN1_TX_IRQHandler>

00001ada <USB_LP_CAN1_RX0_IRQHandler>:
USB_LP_CAN1_RX0_IRQHandler():
D:/projects/mechanical_arm/Firmware/UWB/libraries/sdk/Startup/startup_ch32v30x.S:263
USB_LP_CAN1_RX0_IRQHandler:  1:  j 1b
    1ada:	a001                	j	1ada <USB_LP_CAN1_RX0_IRQHandler>

00001adc <CAN1_RX1_IRQHandler>:
CAN1_RX1_IRQHandler():
D:/projects/mechanical_arm/Firmware/UWB/libraries/sdk/Startup/startup_ch32v30x.S:264
CAN1_RX1_IRQHandler:  1:  j 1b
    1adc:	a001                	j	1adc <CAN1_RX1_IRQHandler>

00001ade <CAN1_SCE_IRQHandler>:
CAN1_SCE_IRQHandler():
D:/projects/mechanical_arm/Firmware/UWB/libraries/sdk/Startup/startup_ch32v30x.S:265
CAN1_SCE_IRQHandler:  1:  j 1b
    1ade:	a001                	j	1ade <CAN1_SCE_IRQHandler>
D:/projects/mechanical_arm/Firmware/UWB/libraries/sdk/Startup/startup_ch32v30x.S:266
EXTI9_5_IRQHandler:  1:  j 1b
    1ae0:	a001                	j	1ae0 <CAN1_SCE_IRQHandler+0x2>

00001ae2 <TIM1_BRK_IRQHandler>:
TIM1_BRK_IRQHandler():
D:/projects/mechanical_arm/Firmware/UWB/libraries/sdk/Startup/startup_ch32v30x.S:267
TIM1_BRK_IRQHandler:  1:  j 1b
    1ae2:	a001                	j	1ae2 <TIM1_BRK_IRQHandler>
D:/projects/mechanical_arm/Firmware/UWB/libraries/sdk/Startup/startup_ch32v30x.S:268
TIM1_UP_IRQHandler:  1:  j 1b
    1ae4:	a001                	j	1ae4 <TIM1_BRK_IRQHandler+0x2>

00001ae6 <TIM1_TRG_COM_IRQHandler>:
TIM1_TRG_COM_IRQHandler():
D:/projects/mechanical_arm/Firmware/UWB/libraries/sdk/Startup/startup_ch32v30x.S:269
TIM1_TRG_COM_IRQHandler:  1:  j 1b
    1ae6:	a001                	j	1ae6 <TIM1_TRG_COM_IRQHandler>

00001ae8 <TIM1_CC_IRQHandler>:
TIM1_CC_IRQHandler():
D:/projects/mechanical_arm/Firmware/UWB/libraries/sdk/Startup/startup_ch32v30x.S:270
TIM1_CC_IRQHandler:  1:  j 1b
    1ae8:	a001                	j	1ae8 <TIM1_CC_IRQHandler>
D:/projects/mechanical_arm/Firmware/UWB/libraries/sdk/Startup/startup_ch32v30x.S:271
TIM2_IRQHandler:  1:  j 1b
    1aea:	a001                	j	1aea <TIM1_CC_IRQHandler+0x2>
D:/projects/mechanical_arm/Firmware/UWB/libraries/sdk/Startup/startup_ch32v30x.S:272
TIM3_IRQHandler:  1:  j 1b
    1aec:	a001                	j	1aec <TIM1_CC_IRQHandler+0x4>
D:/projects/mechanical_arm/Firmware/UWB/libraries/sdk/Startup/startup_ch32v30x.S:273
TIM4_IRQHandler:  1:  j 1b
    1aee:	a001                	j	1aee <TIM1_CC_IRQHandler+0x6>

00001af0 <I2C1_EV_IRQHandler>:
I2C1_EV_IRQHandler():
D:/projects/mechanical_arm/Firmware/UWB/libraries/sdk/Startup/startup_ch32v30x.S:274
I2C1_EV_IRQHandler:  1:  j 1b
    1af0:	a001                	j	1af0 <I2C1_EV_IRQHandler>

00001af2 <I2C1_ER_IRQHandler>:
I2C1_ER_IRQHandler():
D:/projects/mechanical_arm/Firmware/UWB/libraries/sdk/Startup/startup_ch32v30x.S:275
I2C1_ER_IRQHandler:  1:  j 1b
    1af2:	a001                	j	1af2 <I2C1_ER_IRQHandler>

00001af4 <I2C2_EV_IRQHandler>:
I2C2_EV_IRQHandler():
D:/projects/mechanical_arm/Firmware/UWB/libraries/sdk/Startup/startup_ch32v30x.S:276
I2C2_EV_IRQHandler:  1:  j 1b
    1af4:	a001                	j	1af4 <I2C2_EV_IRQHandler>

00001af6 <I2C2_ER_IRQHandler>:
I2C2_ER_IRQHandler():
D:/projects/mechanical_arm/Firmware/UWB/libraries/sdk/Startup/startup_ch32v30x.S:277
I2C2_ER_IRQHandler:  1:  j 1b
    1af6:	a001                	j	1af6 <I2C2_ER_IRQHandler>

00001af8 <SPI1_IRQHandler>:
SPI1_IRQHandler():
D:/projects/mechanical_arm/Firmware/UWB/libraries/sdk/Startup/startup_ch32v30x.S:278
SPI1_IRQHandler:  1:  j 1b
    1af8:	a001                	j	1af8 <SPI1_IRQHandler>

00001afa <SPI2_IRQHandler>:
SPI2_IRQHandler():
D:/projects/mechanical_arm/Firmware/UWB/libraries/sdk/Startup/startup_ch32v30x.S:279
SPI2_IRQHandler:  1:  j 1b
    1afa:	a001                	j	1afa <SPI2_IRQHandler>
D:/projects/mechanical_arm/Firmware/UWB/libraries/sdk/Startup/startup_ch32v30x.S:280
USART1_IRQHandler:  1:  j 1b
    1afc:	a001                	j	1afc <SPI2_IRQHandler+0x2>
D:/projects/mechanical_arm/Firmware/UWB/libraries/sdk/Startup/startup_ch32v30x.S:281
USART2_IRQHandler:  1:  j 1b
    1afe:	a001                	j	1afe <SPI2_IRQHandler+0x4>
D:/projects/mechanical_arm/Firmware/UWB/libraries/sdk/Startup/startup_ch32v30x.S:282
USART3_IRQHandler:  1:  j 1b
    1b00:	a001                	j	1b00 <SPI2_IRQHandler+0x6>
D:/projects/mechanical_arm/Firmware/UWB/libraries/sdk/Startup/startup_ch32v30x.S:283
EXTI15_10_IRQHandler:  1:  j 1b
    1b02:	a001                	j	1b02 <SPI2_IRQHandler+0x8>

00001b04 <RTCAlarm_IRQHandler>:
RTCAlarm_IRQHandler():
D:/projects/mechanical_arm/Firmware/UWB/libraries/sdk/Startup/startup_ch32v30x.S:284
RTCAlarm_IRQHandler:  1:  j 1b
    1b04:	a001                	j	1b04 <RTCAlarm_IRQHandler>

00001b06 <USBWakeUp_IRQHandler>:
USBWakeUp_IRQHandler():
D:/projects/mechanical_arm/Firmware/UWB/libraries/sdk/Startup/startup_ch32v30x.S:285
USBWakeUp_IRQHandler:  1:  j 1b
    1b06:	a001                	j	1b06 <USBWakeUp_IRQHandler>

00001b08 <TIM8_BRK_IRQHandler>:
TIM8_BRK_IRQHandler():
D:/projects/mechanical_arm/Firmware/UWB/libraries/sdk/Startup/startup_ch32v30x.S:286
TIM8_BRK_IRQHandler:  1:  j 1b
    1b08:	a001                	j	1b08 <TIM8_BRK_IRQHandler>
D:/projects/mechanical_arm/Firmware/UWB/libraries/sdk/Startup/startup_ch32v30x.S:287
TIM8_UP_IRQHandler:  1:  j 1b
    1b0a:	a001                	j	1b0a <TIM8_BRK_IRQHandler+0x2>

00001b0c <TIM8_TRG_COM_IRQHandler>:
TIM8_TRG_COM_IRQHandler():
D:/projects/mechanical_arm/Firmware/UWB/libraries/sdk/Startup/startup_ch32v30x.S:288
TIM8_TRG_COM_IRQHandler:  1:  j 1b
    1b0c:	a001                	j	1b0c <TIM8_TRG_COM_IRQHandler>

00001b0e <TIM8_CC_IRQHandler>:
TIM8_CC_IRQHandler():
D:/projects/mechanical_arm/Firmware/UWB/libraries/sdk/Startup/startup_ch32v30x.S:289
TIM8_CC_IRQHandler:  1:  j 1b
    1b0e:	a001                	j	1b0e <TIM8_CC_IRQHandler>

00001b10 <RNG_IRQHandler>:
RNG_IRQHandler():
D:/projects/mechanical_arm/Firmware/UWB/libraries/sdk/Startup/startup_ch32v30x.S:290
RNG_IRQHandler:  1:  j 1b
    1b10:	a001                	j	1b10 <RNG_IRQHandler>

00001b12 <FSMC_IRQHandler>:
FSMC_IRQHandler():
D:/projects/mechanical_arm/Firmware/UWB/libraries/sdk/Startup/startup_ch32v30x.S:291
FSMC_IRQHandler:  1:  j 1b
    1b12:	a001                	j	1b12 <FSMC_IRQHandler>

00001b14 <SDIO_IRQHandler>:
SDIO_IRQHandler():
D:/projects/mechanical_arm/Firmware/UWB/libraries/sdk/Startup/startup_ch32v30x.S:292
SDIO_IRQHandler:  1:  j 1b
    1b14:	a001                	j	1b14 <SDIO_IRQHandler>
D:/projects/mechanical_arm/Firmware/UWB/libraries/sdk/Startup/startup_ch32v30x.S:293
TIM5_IRQHandler:  1:  j 1b
    1b16:	a001                	j	1b16 <SDIO_IRQHandler+0x2>

00001b18 <SPI3_IRQHandler>:
SPI3_IRQHandler():
D:/projects/mechanical_arm/Firmware/UWB/libraries/sdk/Startup/startup_ch32v30x.S:294
SPI3_IRQHandler:  1:  j 1b
    1b18:	a001                	j	1b18 <SPI3_IRQHandler>
D:/projects/mechanical_arm/Firmware/UWB/libraries/sdk/Startup/startup_ch32v30x.S:295
UART4_IRQHandler:  1:  j 1b
    1b1a:	a001                	j	1b1a <SPI3_IRQHandler+0x2>
D:/projects/mechanical_arm/Firmware/UWB/libraries/sdk/Startup/startup_ch32v30x.S:296
UART5_IRQHandler:  1:  j 1b
    1b1c:	a001                	j	1b1c <SPI3_IRQHandler+0x4>
D:/projects/mechanical_arm/Firmware/UWB/libraries/sdk/Startup/startup_ch32v30x.S:297
TIM6_IRQHandler:  1:  j 1b
    1b1e:	a001                	j	1b1e <SPI3_IRQHandler+0x6>
D:/projects/mechanical_arm/Firmware/UWB/libraries/sdk/Startup/startup_ch32v30x.S:298
TIM7_IRQHandler:  1:  j 1b
    1b20:	a001                	j	1b20 <SPI3_IRQHandler+0x8>

00001b22 <DMA2_Channel1_IRQHandler>:
DMA2_Channel1_IRQHandler():
D:/projects/mechanical_arm/Firmware/UWB/libraries/sdk/Startup/startup_ch32v30x.S:299
DMA2_Channel1_IRQHandler:  1:  j 1b
    1b22:	a001                	j	1b22 <DMA2_Channel1_IRQHandler>

00001b24 <DMA2_Channel2_IRQHandler>:
DMA2_Channel2_IRQHandler():
D:/projects/mechanical_arm/Firmware/UWB/libraries/sdk/Startup/startup_ch32v30x.S:300
DMA2_Channel2_IRQHandler:  1:  j 1b
    1b24:	a001                	j	1b24 <DMA2_Channel2_IRQHandler>

00001b26 <DMA2_Channel3_IRQHandler>:
DMA2_Channel3_IRQHandler():
D:/projects/mechanical_arm/Firmware/UWB/libraries/sdk/Startup/startup_ch32v30x.S:301
DMA2_Channel3_IRQHandler:  1:  j 1b
    1b26:	a001                	j	1b26 <DMA2_Channel3_IRQHandler>

00001b28 <DMA2_Channel4_IRQHandler>:
DMA2_Channel4_IRQHandler():
D:/projects/mechanical_arm/Firmware/UWB/libraries/sdk/Startup/startup_ch32v30x.S:302
DMA2_Channel4_IRQHandler:  1:  j 1b
    1b28:	a001                	j	1b28 <DMA2_Channel4_IRQHandler>

00001b2a <DMA2_Channel5_IRQHandler>:
DMA2_Channel5_IRQHandler():
D:/projects/mechanical_arm/Firmware/UWB/libraries/sdk/Startup/startup_ch32v30x.S:303
DMA2_Channel5_IRQHandler:  1:  j 1b
    1b2a:	a001                	j	1b2a <DMA2_Channel5_IRQHandler>

00001b2c <ETH_IRQHandler>:
ETH_IRQHandler():
D:/projects/mechanical_arm/Firmware/UWB/libraries/sdk/Startup/startup_ch32v30x.S:304
ETH_IRQHandler:  1:  j 1b
    1b2c:	a001                	j	1b2c <ETH_IRQHandler>

00001b2e <ETH_WKUP_IRQHandler>:
ETH_WKUP_IRQHandler():
D:/projects/mechanical_arm/Firmware/UWB/libraries/sdk/Startup/startup_ch32v30x.S:305
ETH_WKUP_IRQHandler:  1:  j 1b
    1b2e:	a001                	j	1b2e <ETH_WKUP_IRQHandler>

00001b30 <CAN2_TX_IRQHandler>:
CAN2_TX_IRQHandler():
D:/projects/mechanical_arm/Firmware/UWB/libraries/sdk/Startup/startup_ch32v30x.S:306
CAN2_TX_IRQHandler:  1:  j 1b
    1b30:	a001                	j	1b30 <CAN2_TX_IRQHandler>

00001b32 <CAN2_RX0_IRQHandler>:
CAN2_RX0_IRQHandler():
D:/projects/mechanical_arm/Firmware/UWB/libraries/sdk/Startup/startup_ch32v30x.S:307
CAN2_RX0_IRQHandler:  1:  j 1b
    1b32:	a001                	j	1b32 <CAN2_RX0_IRQHandler>

00001b34 <CAN2_RX1_IRQHandler>:
CAN2_RX1_IRQHandler():
D:/projects/mechanical_arm/Firmware/UWB/libraries/sdk/Startup/startup_ch32v30x.S:308
CAN2_RX1_IRQHandler:  1:  j 1b
    1b34:	a001                	j	1b34 <CAN2_RX1_IRQHandler>

00001b36 <CAN2_SCE_IRQHandler>:
CAN2_SCE_IRQHandler():
D:/projects/mechanical_arm/Firmware/UWB/libraries/sdk/Startup/startup_ch32v30x.S:309
CAN2_SCE_IRQHandler:  1:  j 1b
    1b36:	a001                	j	1b36 <CAN2_SCE_IRQHandler>
D:/projects/mechanical_arm/Firmware/UWB/libraries/sdk/Startup/startup_ch32v30x.S:310
OTG_FS_IRQHandler:  1:  j 1b
    1b38:	a001                	j	1b38 <CAN2_SCE_IRQHandler+0x2>

00001b3a <USBHSWakeup_IRQHandler>:
USBHSWakeup_IRQHandler():
D:/projects/mechanical_arm/Firmware/UWB/libraries/sdk/Startup/startup_ch32v30x.S:311
USBHSWakeup_IRQHandler:  1:  j 1b
    1b3a:	a001                	j	1b3a <USBHSWakeup_IRQHandler>

00001b3c <USBHS_IRQHandler>:
USBHS_IRQHandler():
D:/projects/mechanical_arm/Firmware/UWB/libraries/sdk/Startup/startup_ch32v30x.S:312
USBHS_IRQHandler:  1:  j 1b
    1b3c:	a001                	j	1b3c <USBHS_IRQHandler>
D:/projects/mechanical_arm/Firmware/UWB/libraries/sdk/Startup/startup_ch32v30x.S:313
DVP_IRQHandler:  1:  j 1b
    1b3e:	a001                	j	1b3e <USBHS_IRQHandler+0x2>
D:/projects/mechanical_arm/Firmware/UWB/libraries/sdk/Startup/startup_ch32v30x.S:314
UART6_IRQHandler:  1:  j 1b
    1b40:	a001                	j	1b40 <USBHS_IRQHandler+0x4>
D:/projects/mechanical_arm/Firmware/UWB/libraries/sdk/Startup/startup_ch32v30x.S:315
UART7_IRQHandler:  1:  j 1b
    1b42:	a001                	j	1b42 <USBHS_IRQHandler+0x6>
D:/projects/mechanical_arm/Firmware/UWB/libraries/sdk/Startup/startup_ch32v30x.S:316
UART8_IRQHandler:  1:  j 1b
    1b44:	a001                	j	1b44 <USBHS_IRQHandler+0x8>

00001b46 <TIM9_BRK_IRQHandler>:
TIM9_BRK_IRQHandler():
D:/projects/mechanical_arm/Firmware/UWB/libraries/sdk/Startup/startup_ch32v30x.S:317
TIM9_BRK_IRQHandler:  1:  j 1b
    1b46:	a001                	j	1b46 <TIM9_BRK_IRQHandler>
D:/projects/mechanical_arm/Firmware/UWB/libraries/sdk/Startup/startup_ch32v30x.S:318
TIM9_UP_IRQHandler:  1:  j 1b
    1b48:	a001                	j	1b48 <TIM9_BRK_IRQHandler+0x2>

00001b4a <TIM9_TRG_COM_IRQHandler>:
TIM9_TRG_COM_IRQHandler():
D:/projects/mechanical_arm/Firmware/UWB/libraries/sdk/Startup/startup_ch32v30x.S:319
TIM9_TRG_COM_IRQHandler:  1:  j 1b
    1b4a:	a001                	j	1b4a <TIM9_TRG_COM_IRQHandler>

00001b4c <TIM9_CC_IRQHandler>:
TIM9_CC_IRQHandler():
D:/projects/mechanical_arm/Firmware/UWB/libraries/sdk/Startup/startup_ch32v30x.S:320
TIM9_CC_IRQHandler:  1:  j 1b
    1b4c:	a001                	j	1b4c <TIM9_CC_IRQHandler>

00001b4e <TIM10_BRK_IRQHandler>:
TIM10_BRK_IRQHandler():
D:/projects/mechanical_arm/Firmware/UWB/libraries/sdk/Startup/startup_ch32v30x.S:321
TIM10_BRK_IRQHandler:  1:  j 1b
    1b4e:	a001                	j	1b4e <TIM10_BRK_IRQHandler>
D:/projects/mechanical_arm/Firmware/UWB/libraries/sdk/Startup/startup_ch32v30x.S:322
TIM10_UP_IRQHandler:  1:  j 1b
    1b50:	a001                	j	1b50 <TIM10_BRK_IRQHandler+0x2>

00001b52 <TIM10_TRG_COM_IRQHandler>:
TIM10_TRG_COM_IRQHandler():
D:/projects/mechanical_arm/Firmware/UWB/libraries/sdk/Startup/startup_ch32v30x.S:323
TIM10_TRG_COM_IRQHandler:  1:  j 1b
    1b52:	a001                	j	1b52 <TIM10_TRG_COM_IRQHandler>

00001b54 <TIM10_CC_IRQHandler>:
TIM10_CC_IRQHandler():
D:/projects/mechanical_arm/Firmware/UWB/libraries/sdk/Startup/startup_ch32v30x.S:324
TIM10_CC_IRQHandler:  1:  j 1b
    1b54:	a001                	j	1b54 <TIM10_CC_IRQHandler>

00001b56 <DMA2_Channel6_IRQHandler>:
DMA2_Channel6_IRQHandler():
D:/projects/mechanical_arm/Firmware/UWB/libraries/sdk/Startup/startup_ch32v30x.S:325
DMA2_Channel6_IRQHandler:  1:  j 1b
    1b56:	a001                	j	1b56 <DMA2_Channel6_IRQHandler>

00001b58 <DMA2_Channel7_IRQHandler>:
DMA2_Channel7_IRQHandler():
D:/projects/mechanical_arm/Firmware/UWB/libraries/sdk/Startup/startup_ch32v30x.S:326
DMA2_Channel7_IRQHandler:  1:  j 1b
    1b58:	a001                	j	1b58 <DMA2_Channel7_IRQHandler>

00001b5a <DMA2_Channel8_IRQHandler>:
DMA2_Channel8_IRQHandler():
D:/projects/mechanical_arm/Firmware/UWB/libraries/sdk/Startup/startup_ch32v30x.S:327
DMA2_Channel8_IRQHandler:  1:  j 1b
    1b5a:	a001                	j	1b5a <DMA2_Channel8_IRQHandler>

00001b5c <DMA2_Channel9_IRQHandler>:
DMA2_Channel9_IRQHandler():
D:/projects/mechanical_arm/Firmware/UWB/libraries/sdk/Startup/startup_ch32v30x.S:328
DMA2_Channel9_IRQHandler:  1:  j 1b
    1b5c:	a001                	j	1b5c <DMA2_Channel9_IRQHandler>

00001b5e <DMA2_Channel10_IRQHandler>:
DMA2_Channel10_IRQHandler():
D:/projects/mechanical_arm/Firmware/UWB/libraries/sdk/Startup/startup_ch32v30x.S:329
DMA2_Channel10_IRQHandler:  1:  j 1b
    1b5e:	a001                	j	1b5e <DMA2_Channel10_IRQHandler>

00001b60 <DMA2_Channel11_IRQHandler>:
DMA2_Channel11_IRQHandler():
D:/projects/mechanical_arm/Firmware/UWB/libraries/sdk/Startup/startup_ch32v30x.S:330
DMA2_Channel11_IRQHandler:  1:  j 1b
    1b60:	a001                	j	1b60 <DMA2_Channel11_IRQHandler>

00001b62 <handle_reset>:
handle_reset():
D:/projects/mechanical_arm/Firmware/UWB/libraries/sdk/Startup/startup_ch32v30x.S:340
	.align	1
handle_reset:
.option push 
.option	norelax 

    csrw mepc, t0
    1b62:	34129073          	csrw	mepc,t0
D:/projects/mechanical_arm/Firmware/UWB/libraries/sdk/Startup/startup_ch32v30x.S:341
	la gp, __global_pointer$
    1b66:	1ffff197          	auipc	gp,0x1ffff
    1b6a:	eca18193          	addi	gp,gp,-310 # 20000a30 <__global_pointer$>
D:/projects/mechanical_arm/Firmware/UWB/libraries/sdk/Startup/startup_ch32v30x.S:344
.option	pop 
1:
	la sp, _eusrstack 
    1b6e:	2000e117          	auipc	sp,0x2000e
    1b72:	49210113          	addi	sp,sp,1170 # 20010000 <_eusrstack>
D:/projects/mechanical_arm/Firmware/UWB/libraries/sdk/Startup/startup_ch32v30x.S:347
2:
	/* Load data section from flash to RAM */
	la a0, _data_lma
    1b76:	00009517          	auipc	a0,0x9
    1b7a:	8ae50513          	addi	a0,a0,-1874 # a424 <_data_lma>
D:/projects/mechanical_arm/Firmware/UWB/libraries/sdk/Startup/startup_ch32v30x.S:348
	la a1, _data_vma
    1b7e:	1fffe597          	auipc	a1,0x1fffe
    1b82:	48258593          	addi	a1,a1,1154 # 20000000 <_data_vma>
D:/projects/mechanical_arm/Firmware/UWB/libraries/sdk/Startup/startup_ch32v30x.S:349
	la a2, _edata
    1b86:	85018613          	addi	a2,gp,-1968 # 20000280 <_edata>
D:/projects/mechanical_arm/Firmware/UWB/libraries/sdk/Startup/startup_ch32v30x.S:350
	bgeu a1, a2, 2f
    1b8a:	00c5fa63          	bgeu	a1,a2,1b9e <handle_reset+0x3c>
D:/projects/mechanical_arm/Firmware/UWB/libraries/sdk/Startup/startup_ch32v30x.S:352
1:
	lw t0, (a0)
    1b8e:	00052283          	lw	t0,0(a0)
D:/projects/mechanical_arm/Firmware/UWB/libraries/sdk/Startup/startup_ch32v30x.S:353
	sw t0, (a1)
    1b92:	0055a023          	sw	t0,0(a1)
D:/projects/mechanical_arm/Firmware/UWB/libraries/sdk/Startup/startup_ch32v30x.S:354
	addi a0, a0, 4
    1b96:	0511                	addi	a0,a0,4
D:/projects/mechanical_arm/Firmware/UWB/libraries/sdk/Startup/startup_ch32v30x.S:355
	addi a1, a1, 4
    1b98:	0591                	addi	a1,a1,4
D:/projects/mechanical_arm/Firmware/UWB/libraries/sdk/Startup/startup_ch32v30x.S:356
	bltu a1, a2, 1b
    1b9a:	fec5eae3          	bltu	a1,a2,1b8e <handle_reset+0x2c>
D:/projects/mechanical_arm/Firmware/UWB/libraries/sdk/Startup/startup_ch32v30x.S:359
2:
	/* Clear bss section */
	la a0, _sbss
    1b9e:	85018513          	addi	a0,gp,-1968 # 20000280 <_edata>
D:/projects/mechanical_arm/Firmware/UWB/libraries/sdk/Startup/startup_ch32v30x.S:360
	la a1, _ebss
    1ba2:	93c18593          	addi	a1,gp,-1732 # 2000036c <_ebss>
D:/projects/mechanical_arm/Firmware/UWB/libraries/sdk/Startup/startup_ch32v30x.S:361
	bgeu a0, a1, 2f
    1ba6:	00b57763          	bgeu	a0,a1,1bb4 <handle_reset+0x52>
D:/projects/mechanical_arm/Firmware/UWB/libraries/sdk/Startup/startup_ch32v30x.S:363
1:
	sw zero, (a0)
    1baa:	00052023          	sw	zero,0(a0)
D:/projects/mechanical_arm/Firmware/UWB/libraries/sdk/Startup/startup_ch32v30x.S:364
	addi a0, a0, 4
    1bae:	0511                	addi	a0,a0,4
D:/projects/mechanical_arm/Firmware/UWB/libraries/sdk/Startup/startup_ch32v30x.S:365
	bltu a0, a1, 1b
    1bb0:	feb56de3          	bltu	a0,a1,1baa <handle_reset+0x48>
D:/projects/mechanical_arm/Firmware/UWB/libraries/sdk/Startup/startup_ch32v30x.S:367
2:
    li t0, 0x1f
    1bb4:	42fd                	li	t0,31
D:/projects/mechanical_arm/Firmware/UWB/libraries/sdk/Startup/startup_ch32v30x.S:368
    csrw 0xbc0, t0
    1bb6:	bc029073          	csrw	0xbc0,t0
D:/projects/mechanical_arm/Firmware/UWB/libraries/sdk/Startup/startup_ch32v30x.S:371

    /* Enable nested and hardware stack */
	li t0, 0x1f
    1bba:	42fd                	li	t0,31
D:/projects/mechanical_arm/Firmware/UWB/libraries/sdk/Startup/startup_ch32v30x.S:372
	csrw 0x804, t0
    1bbc:	80429073          	csrw	0x804,t0
D:/projects/mechanical_arm/Firmware/UWB/libraries/sdk/Startup/startup_ch32v30x.S:376

    /* Enable floating point and interrupt */

   	li t0, 0x7888
    1bc0:	000082b7          	lui	t0,0x8
    1bc4:	88828293          	addi	t0,t0,-1912 # 7888 <__swsetup_r+0xe6>
D:/projects/mechanical_arm/Firmware/UWB/libraries/sdk/Startup/startup_ch32v30x.S:377
   	csrs mstatus, t0
    1bc8:	3002a073          	csrs	mstatus,t0
D:/projects/mechanical_arm/Firmware/UWB/libraries/sdk/Startup/startup_ch32v30x.S:379

 	la t0, _vector_base
    1bcc:	ffffe297          	auipc	t0,0xffffe
    1bd0:	46c28293          	addi	t0,t0,1132 # 38 <_einit>
D:/projects/mechanical_arm/Firmware/UWB/libraries/sdk/Startup/startup_ch32v30x.S:380
    ori t0, t0, 3           
    1bd4:	0032e293          	ori	t0,t0,3
D:/projects/mechanical_arm/Firmware/UWB/libraries/sdk/Startup/startup_ch32v30x.S:381
	csrw mtvec, t0
    1bd8:	30529073          	csrw	mtvec,t0
D:/projects/mechanical_arm/Firmware/UWB/libraries/sdk/Startup/startup_ch32v30x.S:383

    jal  SystemInit
    1bdc:	014000ef          	jal	ra,1bf0 <SystemInit>
D:/projects/mechanical_arm/Firmware/UWB/libraries/sdk/Startup/startup_ch32v30x.S:384
	la t0, main
    1be0:	00000297          	auipc	t0,0x0
    1be4:	e3228293          	addi	t0,t0,-462 # 1a12 <main>
D:/projects/mechanical_arm/Firmware/UWB/libraries/sdk/Startup/startup_ch32v30x.S:385
	csrw mepc, t0
    1be8:	34129073          	csrw	mepc,t0
D:/projects/mechanical_arm/Firmware/UWB/libraries/sdk/Startup/startup_ch32v30x.S:386
	mret
    1bec:	30200073          	mret

00001bf0 <SystemInit>:
SystemInit():
D:/projects/mechanical_arm/Firmware/UWB/libraries/sdk/Startup/system_ch32v30x.c:83
*                  the PLL and update the SystemCoreClock variable.
* Input          : None
* Return         : None
*******************************************************************************************/
void SystemInit (void)
{
    1bf0:	1141                	addi	sp,sp,-16
    1bf2:	c606                	sw	ra,12(sp)
    1bf4:	c422                	sw	s0,8(sp)
    1bf6:	0800                	addi	s0,sp,16
D:/projects/mechanical_arm/Firmware/UWB/libraries/sdk/Startup/system_ch32v30x.c:84
  RCC->CTLR |= (uint32_t)0x00000001;
    1bf8:	400217b7          	lui	a5,0x40021
    1bfc:	4398                	lw	a4,0(a5)
    1bfe:	400217b7          	lui	a5,0x40021
    1c02:	00176713          	ori	a4,a4,1
    1c06:	c398                	sw	a4,0(a5)
D:/projects/mechanical_arm/Firmware/UWB/libraries/sdk/Startup/system_ch32v30x.c:85
  RCC->CFGR0 &= (uint32_t)0xF8FF0000;
    1c08:	400217b7          	lui	a5,0x40021
    1c0c:	43d4                	lw	a3,4(a5)
    1c0e:	400217b7          	lui	a5,0x40021
    1c12:	f8ff0737          	lui	a4,0xf8ff0
    1c16:	8f75                	and	a4,a4,a3
    1c18:	c3d8                	sw	a4,4(a5)
D:/projects/mechanical_arm/Firmware/UWB/libraries/sdk/Startup/system_ch32v30x.c:86
  RCC->CTLR &= (uint32_t)0xFEF6FFFF;
    1c1a:	400217b7          	lui	a5,0x40021
    1c1e:	4394                	lw	a3,0(a5)
    1c20:	400217b7          	lui	a5,0x40021
    1c24:	fef70737          	lui	a4,0xfef70
    1c28:	177d                	addi	a4,a4,-1
    1c2a:	8f75                	and	a4,a4,a3
    1c2c:	c398                	sw	a4,0(a5)
D:/projects/mechanical_arm/Firmware/UWB/libraries/sdk/Startup/system_ch32v30x.c:87
  RCC->CTLR &= (uint32_t)0xFFFBFFFF;
    1c2e:	400217b7          	lui	a5,0x40021
    1c32:	4394                	lw	a3,0(a5)
    1c34:	400217b7          	lui	a5,0x40021
    1c38:	fffc0737          	lui	a4,0xfffc0
    1c3c:	177d                	addi	a4,a4,-1
    1c3e:	8f75                	and	a4,a4,a3
    1c40:	c398                	sw	a4,0(a5)
D:/projects/mechanical_arm/Firmware/UWB/libraries/sdk/Startup/system_ch32v30x.c:88
  RCC->CFGR0 &= (uint32_t)0xFF80FFFF;
    1c42:	400217b7          	lui	a5,0x40021
    1c46:	43d4                	lw	a3,4(a5)
    1c48:	400217b7          	lui	a5,0x40021
    1c4c:	ff810737          	lui	a4,0xff810
    1c50:	177d                	addi	a4,a4,-1
    1c52:	8f75                	and	a4,a4,a3
    1c54:	c3d8                	sw	a4,4(a5)
D:/projects/mechanical_arm/Firmware/UWB/libraries/sdk/Startup/system_ch32v30x.c:89
  RCC->INTR = 0x009F0000;    
    1c56:	400217b7          	lui	a5,0x40021
    1c5a:	009f0737          	lui	a4,0x9f0
    1c5e:	c798                	sw	a4,8(a5)
D:/projects/mechanical_arm/Firmware/UWB/libraries/sdk/Startup/system_ch32v30x.c:90
  SetSysClock();
    1c60:	2031                	jal	1c6c <SetSysClock>
D:/projects/mechanical_arm/Firmware/UWB/libraries/sdk/Startup/system_ch32v30x.c:91
}
    1c62:	0001                	nop
    1c64:	40b2                	lw	ra,12(sp)
    1c66:	4422                	lw	s0,8(sp)
    1c68:	0141                	addi	sp,sp,16
    1c6a:	8082                	ret

00001c6c <SetSysClock>:
SetSysClock():
D:/projects/mechanical_arm/Firmware/UWB/libraries/sdk/Startup/system_ch32v30x.c:168
* Description    : Configures the System clock frequency, HCLK, PCLK2 and PCLK1 prescalers. 
* Input          : None
* Return         : None
*******************************************************************************************/
static void SetSysClock(void)
{
    1c6c:	1141                	addi	sp,sp,-16
    1c6e:	c606                	sw	ra,12(sp)
    1c70:	c422                	sw	s0,8(sp)
    1c72:	0800                	addi	s0,sp,16
D:/projects/mechanical_arm/Firmware/UWB/libraries/sdk/Startup/system_ch32v30x.c:185
#elif defined SYSCLK_FREQ_96MHz
  SetSysClockTo96();
#elif defined SYSCLK_FREQ_120MHz
  SetSysClockTo120();
#elif defined SYSCLK_FREQ_144MHz
  SetSysClockTo144();
    1c74:	2031                	jal	1c80 <SetSysClockTo144>
D:/projects/mechanical_arm/Firmware/UWB/libraries/sdk/Startup/system_ch32v30x.c:193
#endif
 
 /* If none of the define above is enabled, the HSI is used as System clock
  * source (default after reset) 
	*/ 
}
    1c76:	0001                	nop
    1c78:	40b2                	lw	ra,12(sp)
    1c7a:	4422                	lw	s0,8(sp)
    1c7c:	0141                	addi	sp,sp,16
    1c7e:	8082                	ret

00001c80 <SetSysClockTo144>:
SetSysClockTo144():
D:/projects/mechanical_arm/Firmware/UWB/libraries/sdk/Startup/system_ch32v30x.c:745
* Description    : Sets System clock frequency to 144MHz and configure HCLK, PCLK2 and PCLK1 prescalers.
* Input          : None
* Return         : None
*******************************************************************************************/
static void SetSysClockTo144(void)
{
    1c80:	1101                	addi	sp,sp,-32
    1c82:	ce22                	sw	s0,28(sp)
    1c84:	1000                	addi	s0,sp,32
D:/projects/mechanical_arm/Firmware/UWB/libraries/sdk/Startup/system_ch32v30x.c:746
  __IO uint32_t StartUpCounter = 0, HSEStatus = 0;
    1c86:	fe042623          	sw	zero,-20(s0)
    1c8a:	fe042423          	sw	zero,-24(s0)
D:/projects/mechanical_arm/Firmware/UWB/libraries/sdk/Startup/system_ch32v30x.c:748

  RCC->CTLR |= ((uint32_t)RCC_HSEON);
    1c8e:	400217b7          	lui	a5,0x40021
    1c92:	4394                	lw	a3,0(a5)
    1c94:	400217b7          	lui	a5,0x40021
    1c98:	6741                	lui	a4,0x10
    1c9a:	8f55                	or	a4,a4,a3
    1c9c:	c398                	sw	a4,0(a5)
D:/projects/mechanical_arm/Firmware/UWB/libraries/sdk/Startup/system_ch32v30x.c:753 (discriminator 2)

  /* Wait till HSE is ready and if Time out is reached exit */
  do
  {
    HSEStatus = RCC->CTLR & RCC_HSERDY;
    1c9e:	400217b7          	lui	a5,0x40021
    1ca2:	4398                	lw	a4,0(a5)
    1ca4:	000207b7          	lui	a5,0x20
    1ca8:	8ff9                	and	a5,a5,a4
    1caa:	fef42423          	sw	a5,-24(s0)
D:/projects/mechanical_arm/Firmware/UWB/libraries/sdk/Startup/system_ch32v30x.c:754 (discriminator 2)
    StartUpCounter++;
    1cae:	fec42783          	lw	a5,-20(s0)
    1cb2:	0785                	addi	a5,a5,1
    1cb4:	fef42623          	sw	a5,-20(s0)
D:/projects/mechanical_arm/Firmware/UWB/libraries/sdk/Startup/system_ch32v30x.c:755 (discriminator 2)
  } while((HSEStatus == 0) && (StartUpCounter != HSE_STARTUP_TIMEOUT));
    1cb8:	fe842783          	lw	a5,-24(s0)
    1cbc:	e799                	bnez	a5,1cca <SetSysClockTo144+0x4a>
D:/projects/mechanical_arm/Firmware/UWB/libraries/sdk/Startup/system_ch32v30x.c:755 (discriminator 1)
    1cbe:	fec42703          	lw	a4,-20(s0)
    1cc2:	50000793          	li	a5,1280
    1cc6:	fcf71ce3          	bne	a4,a5,1c9e <SetSysClockTo144+0x1e>
D:/projects/mechanical_arm/Firmware/UWB/libraries/sdk/Startup/system_ch32v30x.c:757

  if ((RCC->CTLR & RCC_HSERDY) != RESET)
    1cca:	400217b7          	lui	a5,0x40021
    1cce:	4398                	lw	a4,0(a5)
    1cd0:	000207b7          	lui	a5,0x20
    1cd4:	8ff9                	and	a5,a5,a4
    1cd6:	c789                	beqz	a5,1ce0 <SetSysClockTo144+0x60>
D:/projects/mechanical_arm/Firmware/UWB/libraries/sdk/Startup/system_ch32v30x.c:759
  {
    HSEStatus = (uint32_t)0x01;
    1cd8:	4785                	li	a5,1
    1cda:	fef42423          	sw	a5,-24(s0)
    1cde:	a019                	j	1ce4 <SetSysClockTo144+0x64>
D:/projects/mechanical_arm/Firmware/UWB/libraries/sdk/Startup/system_ch32v30x.c:763
  }
  else
  {
    HSEStatus = (uint32_t)0x00;
    1ce0:	fe042423          	sw	zero,-24(s0)
D:/projects/mechanical_arm/Firmware/UWB/libraries/sdk/Startup/system_ch32v30x.c:766
  }

  if (HSEStatus == (uint32_t)0x01)
    1ce4:	fe842703          	lw	a4,-24(s0)
    1ce8:	4785                	li	a5,1
    1cea:	0ef71863          	bne	a4,a5,1dda <SetSysClockTo144+0x15a>
D:/projects/mechanical_arm/Firmware/UWB/libraries/sdk/Startup/system_ch32v30x.c:769
  {
    /* Enable Prefetch Buffer */
    FLASH->ACTLR |= FLASH_ACTLR_PRFTBE;
    1cee:	400227b7          	lui	a5,0x40022
    1cf2:	4398                	lw	a4,0(a5)
    1cf4:	400227b7          	lui	a5,0x40022
    1cf8:	01076713          	ori	a4,a4,16
    1cfc:	c398                	sw	a4,0(a5)
D:/projects/mechanical_arm/Firmware/UWB/libraries/sdk/Startup/system_ch32v30x.c:772

    /* Flash 2 wait state */
    FLASH->ACTLR &= (uint32_t)((uint32_t)~FLASH_ACTLR_LATENCY);
    1cfe:	400227b7          	lui	a5,0x40022
    1d02:	4398                	lw	a4,0(a5)
    1d04:	400227b7          	lui	a5,0x40022
    1d08:	9b71                	andi	a4,a4,-4
    1d0a:	c398                	sw	a4,0(a5)
D:/projects/mechanical_arm/Firmware/UWB/libraries/sdk/Startup/system_ch32v30x.c:773
    FLASH->ACTLR |= (uint32_t)FLASH_ACTLR_LATENCY_2;
    1d0c:	400227b7          	lui	a5,0x40022
    1d10:	4398                	lw	a4,0(a5)
    1d12:	400227b7          	lui	a5,0x40022
    1d16:	00276713          	ori	a4,a4,2
    1d1a:	c398                	sw	a4,0(a5)
D:/projects/mechanical_arm/Firmware/UWB/libraries/sdk/Startup/system_ch32v30x.c:776

    /* HCLK = SYSCLK */
    RCC->CFGR0 |= (uint32_t)RCC_HPRE_DIV1;
    1d1c:	40021737          	lui	a4,0x40021
    1d20:	400217b7          	lui	a5,0x40021
    1d24:	4358                	lw	a4,4(a4)
    1d26:	c3d8                	sw	a4,4(a5)
D:/projects/mechanical_arm/Firmware/UWB/libraries/sdk/Startup/system_ch32v30x.c:778
    /* PCLK2 = HCLK */
    RCC->CFGR0 |= (uint32_t)RCC_PPRE2_DIV1;
    1d28:	40021737          	lui	a4,0x40021
    1d2c:	400217b7          	lui	a5,0x40021
    1d30:	4358                	lw	a4,4(a4)
    1d32:	c3d8                	sw	a4,4(a5)
D:/projects/mechanical_arm/Firmware/UWB/libraries/sdk/Startup/system_ch32v30x.c:780
    /* PCLK1 = HCLK */
    RCC->CFGR0 |= (uint32_t)RCC_PPRE1_DIV1;
    1d34:	40021737          	lui	a4,0x40021
    1d38:	400217b7          	lui	a5,0x40021
    1d3c:	4358                	lw	a4,4(a4)
    1d3e:	c3d8                	sw	a4,4(a5)
D:/projects/mechanical_arm/Firmware/UWB/libraries/sdk/Startup/system_ch32v30x.c:783

    /*  PLL configuration: PLLCLK = HSE * 18 = 144 MHz */
    RCC->CFGR0 &= (uint32_t)((uint32_t)~(RCC_PLLSRC | RCC_PLLXTPRE |
    1d40:	400217b7          	lui	a5,0x40021
    1d44:	43d4                	lw	a3,4(a5)
    1d46:	400217b7          	lui	a5,0x40021
    1d4a:	ffc10737          	lui	a4,0xffc10
    1d4e:	177d                	addi	a4,a4,-1
    1d50:	8f75                	and	a4,a4,a3
    1d52:	c3d8                	sw	a4,4(a5)
D:/projects/mechanical_arm/Firmware/UWB/libraries/sdk/Startup/system_ch32v30x.c:786
                                        RCC_PLLMULL));

    if(((*(uint32_t*)0x1FFFF70C) & (1<<14)) != (1<<14)){
    1d54:	1ffff7b7          	lui	a5,0x1ffff
    1d58:	70c78793          	addi	a5,a5,1804 # 1ffff70c <_data_lma+0x1fff52e8>
    1d5c:	4398                	lw	a4,0(a5)
    1d5e:	6791                	lui	a5,0x4
    1d60:	8ff9                	and	a5,a5,a4
    1d62:	eb99                	bnez	a5,1d78 <SetSysClockTo144+0xf8>
D:/projects/mechanical_arm/Firmware/UWB/libraries/sdk/Startup/system_ch32v30x.c:787
        RCC->CFGR0 |= (uint32_t)(RCC_PLLSRC_HSE | RCC_PLLXTPRE_HSE | RCC_PLLMULL18);
    1d64:	400217b7          	lui	a5,0x40021
    1d68:	43d4                	lw	a3,4(a5)
    1d6a:	400217b7          	lui	a5,0x40021
    1d6e:	003d0737          	lui	a4,0x3d0
    1d72:	8f55                	or	a4,a4,a3
    1d74:	c3d8                	sw	a4,4(a5)
    1d76:	a809                	j	1d88 <SetSysClockTo144+0x108>
D:/projects/mechanical_arm/Firmware/UWB/libraries/sdk/Startup/system_ch32v30x.c:790
    }
    else{
        RCC->CFGR0 |= (uint32_t)(RCC_PLLSRC_HSE | RCC_PLLXTPRE_HSE | RCC_PLLMULL18_EXTEN);
    1d78:	400217b7          	lui	a5,0x40021
    1d7c:	43d4                	lw	a3,4(a5)
    1d7e:	400217b7          	lui	a5,0x40021
    1d82:	6741                	lui	a4,0x10
    1d84:	8f55                	or	a4,a4,a3
    1d86:	c3d8                	sw	a4,4(a5)
D:/projects/mechanical_arm/Firmware/UWB/libraries/sdk/Startup/system_ch32v30x.c:794
    }

    /* Enable PLL */
    RCC->CTLR |= RCC_PLLON;
    1d88:	400217b7          	lui	a5,0x40021
    1d8c:	4394                	lw	a3,0(a5)
    1d8e:	400217b7          	lui	a5,0x40021
    1d92:	01000737          	lui	a4,0x1000
    1d96:	8f55                	or	a4,a4,a3
    1d98:	c398                	sw	a4,0(a5)
D:/projects/mechanical_arm/Firmware/UWB/libraries/sdk/Startup/system_ch32v30x.c:796
    /* Wait till PLL is ready */
    while((RCC->CTLR & RCC_PLLRDY) == 0)
    1d9a:	0001                	nop
D:/projects/mechanical_arm/Firmware/UWB/libraries/sdk/Startup/system_ch32v30x.c:796 (discriminator 1)
    1d9c:	400217b7          	lui	a5,0x40021
    1da0:	4398                	lw	a4,0(a5)
    1da2:	020007b7          	lui	a5,0x2000
    1da6:	8ff9                	and	a5,a5,a4
    1da8:	dbf5                	beqz	a5,1d9c <SetSysClockTo144+0x11c>
D:/projects/mechanical_arm/Firmware/UWB/libraries/sdk/Startup/system_ch32v30x.c:800
    {
    }
    /* Select PLL as system clock source */
    RCC->CFGR0 &= (uint32_t)((uint32_t)~(RCC_SW));
    1daa:	400217b7          	lui	a5,0x40021
    1dae:	43d8                	lw	a4,4(a5)
    1db0:	400217b7          	lui	a5,0x40021
    1db4:	9b71                	andi	a4,a4,-4
    1db6:	c3d8                	sw	a4,4(a5)
D:/projects/mechanical_arm/Firmware/UWB/libraries/sdk/Startup/system_ch32v30x.c:801
    RCC->CFGR0 |= (uint32_t)RCC_SW_PLL;
    1db8:	400217b7          	lui	a5,0x40021
    1dbc:	43d8                	lw	a4,4(a5)
    1dbe:	400217b7          	lui	a5,0x40021
    1dc2:	00276713          	ori	a4,a4,2
    1dc6:	c3d8                	sw	a4,4(a5)
D:/projects/mechanical_arm/Firmware/UWB/libraries/sdk/Startup/system_ch32v30x.c:803
    /* Wait till PLL is used as system clock source */
    while ((RCC->CFGR0 & (uint32_t)RCC_SWS) != (uint32_t)0x08)
    1dc8:	0001                	nop
D:/projects/mechanical_arm/Firmware/UWB/libraries/sdk/Startup/system_ch32v30x.c:803 (discriminator 1)
    1dca:	400217b7          	lui	a5,0x40021
    1dce:	43dc                	lw	a5,4(a5)
    1dd0:	00c7f713          	andi	a4,a5,12
    1dd4:	47a1                	li	a5,8
    1dd6:	fef71ae3          	bne	a4,a5,1dca <SetSysClockTo144+0x14a>
D:/projects/mechanical_arm/Firmware/UWB/libraries/sdk/Startup/system_ch32v30x.c:814
        /*
         * If HSE fails to start-up, the application will have wrong clock
     * configuration. User can add here some code to deal with this error
         */
  }
}
    1dda:	0001                	nop
    1ddc:	4472                	lw	s0,28(sp)
    1dde:	6105                	addi	sp,sp,32
    1de0:	8082                	ret

00001de2 <EXTI_GetITStatus>:
EXTI_GetITStatus():
D:/projects/mechanical_arm/Firmware/UWB/libraries/sdk/Peripheral/ch32v30x_exti.c:131
* Description    : Checks whether the specified EXTI line is asserted or not.
* Input          : EXTI_Line: specifies the EXTI lines to be enabled or disabled.
* Return         : The new state of EXTI_Line (SET or RESET).
*********************************************************************************/	
ITStatus EXTI_GetITStatus(uint32_t EXTI_Line)
{
    1de2:	7179                	addi	sp,sp,-48
    1de4:	d622                	sw	s0,44(sp)
    1de6:	1800                	addi	s0,sp,48
    1de8:	fca42e23          	sw	a0,-36(s0)
D:/projects/mechanical_arm/Firmware/UWB/libraries/sdk/Peripheral/ch32v30x_exti.c:132
  ITStatus bitstatus = RESET;
    1dec:	fe042623          	sw	zero,-20(s0)
D:/projects/mechanical_arm/Firmware/UWB/libraries/sdk/Peripheral/ch32v30x_exti.c:133
  uint32_t enablestatus = 0;
    1df0:	fe042423          	sw	zero,-24(s0)
D:/projects/mechanical_arm/Firmware/UWB/libraries/sdk/Peripheral/ch32v30x_exti.c:135
  
  enablestatus =  EXTI->INTENR & EXTI_Line;
    1df4:	400107b7          	lui	a5,0x40010
    1df8:	40078793          	addi	a5,a5,1024 # 40010400 <_eusrstack+0x20000400>
    1dfc:	439c                	lw	a5,0(a5)
    1dfe:	fdc42703          	lw	a4,-36(s0)
    1e02:	8ff9                	and	a5,a5,a4
    1e04:	fef42423          	sw	a5,-24(s0)
D:/projects/mechanical_arm/Firmware/UWB/libraries/sdk/Peripheral/ch32v30x_exti.c:136
  if (((EXTI->INTFR & EXTI_Line) != (uint32_t)RESET) && (enablestatus != (uint32_t)RESET))
    1e08:	400107b7          	lui	a5,0x40010
    1e0c:	40078793          	addi	a5,a5,1024 # 40010400 <_eusrstack+0x20000400>
    1e10:	4bd8                	lw	a4,20(a5)
    1e12:	fdc42783          	lw	a5,-36(s0)
    1e16:	8ff9                	and	a5,a5,a4
    1e18:	cb81                	beqz	a5,1e28 <EXTI_GetITStatus+0x46>
D:/projects/mechanical_arm/Firmware/UWB/libraries/sdk/Peripheral/ch32v30x_exti.c:136 (discriminator 1)
    1e1a:	fe842783          	lw	a5,-24(s0)
    1e1e:	c789                	beqz	a5,1e28 <EXTI_GetITStatus+0x46>
D:/projects/mechanical_arm/Firmware/UWB/libraries/sdk/Peripheral/ch32v30x_exti.c:138
  {
    bitstatus = SET;
    1e20:	4785                	li	a5,1
    1e22:	fef42623          	sw	a5,-20(s0)
    1e26:	a019                	j	1e2c <EXTI_GetITStatus+0x4a>
D:/projects/mechanical_arm/Firmware/UWB/libraries/sdk/Peripheral/ch32v30x_exti.c:142
  }
  else
  {
    bitstatus = RESET;
    1e28:	fe042623          	sw	zero,-20(s0)
D:/projects/mechanical_arm/Firmware/UWB/libraries/sdk/Peripheral/ch32v30x_exti.c:144
  }
  return bitstatus;
    1e2c:	fec42783          	lw	a5,-20(s0)
D:/projects/mechanical_arm/Firmware/UWB/libraries/sdk/Peripheral/ch32v30x_exti.c:145
}
    1e30:	853e                	mv	a0,a5
    1e32:	5432                	lw	s0,44(sp)
    1e34:	6145                	addi	sp,sp,48
    1e36:	8082                	ret

00001e38 <EXTI_ClearITPendingBit>:
EXTI_ClearITPendingBit():
D:/projects/mechanical_arm/Firmware/UWB/libraries/sdk/Peripheral/ch32v30x_exti.c:154
* Description    : Clears the EXTI's line pending bits.
* Input          : EXTI_Line: specifies the EXTI lines to be enabled or disabled.
* Return         : None
*********************************************************************************/
void EXTI_ClearITPendingBit(uint32_t EXTI_Line)
{  
    1e38:	1101                	addi	sp,sp,-32
    1e3a:	ce22                	sw	s0,28(sp)
    1e3c:	1000                	addi	s0,sp,32
    1e3e:	fea42623          	sw	a0,-20(s0)
D:/projects/mechanical_arm/Firmware/UWB/libraries/sdk/Peripheral/ch32v30x_exti.c:155
  EXTI->INTFR = EXTI_Line;
    1e42:	400107b7          	lui	a5,0x40010
    1e46:	40078793          	addi	a5,a5,1024 # 40010400 <_eusrstack+0x20000400>
    1e4a:	fec42703          	lw	a4,-20(s0)
    1e4e:	cbd8                	sw	a4,20(a5)
D:/projects/mechanical_arm/Firmware/UWB/libraries/sdk/Peripheral/ch32v30x_exti.c:156
}
    1e50:	0001                	nop
    1e52:	4472                	lw	s0,28(sp)
    1e54:	6105                	addi	sp,sp,32
    1e56:	8082                	ret

00001e58 <GPIO_Init>:
GPIO_Init():
D:/projects/mechanical_arm/Firmware/UWB/libraries/sdk/Peripheral/ch32v30x_gpio.c:88
* Input          : GPIO_InitStruct: pointer to a GPIO_InitTypeDef structure that
*      contains the configuration information for the specified GPIO peripheral.
* Return         : None
*******************************************************************************/
void GPIO_Init(GPIO_TypeDef* GPIOx, GPIO_InitTypeDef* GPIO_InitStruct)
{
    1e58:	7139                	addi	sp,sp,-64
    1e5a:	de22                	sw	s0,60(sp)
    1e5c:	0080                	addi	s0,sp,64
    1e5e:	fca42623          	sw	a0,-52(s0)
    1e62:	fcb42423          	sw	a1,-56(s0)
D:/projects/mechanical_arm/Firmware/UWB/libraries/sdk/Peripheral/ch32v30x_gpio.c:89
  uint32_t currentmode = 0x00, currentpin = 0x00, pinpos = 0x00, pos = 0x00;
    1e66:	fe042623          	sw	zero,-20(s0)
    1e6a:	fe042023          	sw	zero,-32(s0)
    1e6e:	fe042423          	sw	zero,-24(s0)
    1e72:	fc042e23          	sw	zero,-36(s0)
D:/projects/mechanical_arm/Firmware/UWB/libraries/sdk/Peripheral/ch32v30x_gpio.c:90
  uint32_t tmpreg = 0x00, pinmask = 0x00;
    1e76:	fe042223          	sw	zero,-28(s0)
    1e7a:	fc042c23          	sw	zero,-40(s0)
D:/projects/mechanical_arm/Firmware/UWB/libraries/sdk/Peripheral/ch32v30x_gpio.c:92

  currentmode = ((uint32_t)GPIO_InitStruct->GPIO_Mode) & ((uint32_t)0x0F);
    1e7e:	fc842783          	lw	a5,-56(s0)
    1e82:	479c                	lw	a5,8(a5)
    1e84:	8bbd                	andi	a5,a5,15
    1e86:	fef42623          	sw	a5,-20(s0)
D:/projects/mechanical_arm/Firmware/UWB/libraries/sdk/Peripheral/ch32v30x_gpio.c:94
	
  if ((((uint32_t)GPIO_InitStruct->GPIO_Mode) & ((uint32_t)0x10)) != 0x00)
    1e8a:	fc842783          	lw	a5,-56(s0)
    1e8e:	479c                	lw	a5,8(a5)
    1e90:	8bc1                	andi	a5,a5,16
    1e92:	cb89                	beqz	a5,1ea4 <GPIO_Init+0x4c>
D:/projects/mechanical_arm/Firmware/UWB/libraries/sdk/Peripheral/ch32v30x_gpio.c:96
  { 
    currentmode |= (uint32_t)GPIO_InitStruct->GPIO_Speed;
    1e94:	fc842783          	lw	a5,-56(s0)
    1e98:	43dc                	lw	a5,4(a5)
    1e9a:	fec42703          	lw	a4,-20(s0)
    1e9e:	8fd9                	or	a5,a5,a4
    1ea0:	fef42623          	sw	a5,-20(s0)
D:/projects/mechanical_arm/Firmware/UWB/libraries/sdk/Peripheral/ch32v30x_gpio.c:99
  }

  if (((uint32_t)GPIO_InitStruct->GPIO_Pin & ((uint32_t)0x00FF)) != 0x00)
    1ea4:	fc842783          	lw	a5,-56(s0)
    1ea8:	0007d783          	lhu	a5,0(a5)
    1eac:	0ff7f793          	andi	a5,a5,255
    1eb0:	cff1                	beqz	a5,1f8c <GPIO_Init+0x134>
D:/projects/mechanical_arm/Firmware/UWB/libraries/sdk/Peripheral/ch32v30x_gpio.c:101
  {
    tmpreg = GPIOx->CFGLR;
    1eb2:	fcc42783          	lw	a5,-52(s0)
    1eb6:	439c                	lw	a5,0(a5)
    1eb8:	fef42223          	sw	a5,-28(s0)
D:/projects/mechanical_arm/Firmware/UWB/libraries/sdk/Peripheral/ch32v30x_gpio.c:103
		
    for (pinpos = 0x00; pinpos < 0x08; pinpos++)
    1ebc:	fe042423          	sw	zero,-24(s0)
    1ec0:	a865                	j	1f78 <GPIO_Init+0x120>
D:/projects/mechanical_arm/Firmware/UWB/libraries/sdk/Peripheral/ch32v30x_gpio.c:105
    {
      pos = ((uint32_t)0x01) << pinpos;
    1ec2:	fe842783          	lw	a5,-24(s0)
    1ec6:	4705                	li	a4,1
    1ec8:	00f717b3          	sll	a5,a4,a5
    1ecc:	fcf42e23          	sw	a5,-36(s0)
D:/projects/mechanical_arm/Firmware/UWB/libraries/sdk/Peripheral/ch32v30x_gpio.c:106
      currentpin = (GPIO_InitStruct->GPIO_Pin) & pos;
    1ed0:	fc842783          	lw	a5,-56(s0)
    1ed4:	0007d783          	lhu	a5,0(a5)
    1ed8:	873e                	mv	a4,a5
    1eda:	fdc42783          	lw	a5,-36(s0)
    1ede:	8ff9                	and	a5,a5,a4
    1ee0:	fef42023          	sw	a5,-32(s0)
D:/projects/mechanical_arm/Firmware/UWB/libraries/sdk/Peripheral/ch32v30x_gpio.c:108
			
      if (currentpin == pos)
    1ee4:	fe042703          	lw	a4,-32(s0)
    1ee8:	fdc42783          	lw	a5,-36(s0)
    1eec:	08f71163          	bne	a4,a5,1f6e <GPIO_Init+0x116>
D:/projects/mechanical_arm/Firmware/UWB/libraries/sdk/Peripheral/ch32v30x_gpio.c:110
      {
        pos = pinpos << 2;
    1ef0:	fe842783          	lw	a5,-24(s0)
    1ef4:	078a                	slli	a5,a5,0x2
    1ef6:	fcf42e23          	sw	a5,-36(s0)
D:/projects/mechanical_arm/Firmware/UWB/libraries/sdk/Peripheral/ch32v30x_gpio.c:111
        pinmask = ((uint32_t)0x0F) << pos;
    1efa:	fdc42783          	lw	a5,-36(s0)
    1efe:	473d                	li	a4,15
    1f00:	00f717b3          	sll	a5,a4,a5
    1f04:	fcf42c23          	sw	a5,-40(s0)
D:/projects/mechanical_arm/Firmware/UWB/libraries/sdk/Peripheral/ch32v30x_gpio.c:112
        tmpreg &= ~pinmask;
    1f08:	fd842783          	lw	a5,-40(s0)
    1f0c:	fff7c793          	not	a5,a5
    1f10:	fe442703          	lw	a4,-28(s0)
    1f14:	8ff9                	and	a5,a5,a4
    1f16:	fef42223          	sw	a5,-28(s0)
D:/projects/mechanical_arm/Firmware/UWB/libraries/sdk/Peripheral/ch32v30x_gpio.c:113
        tmpreg |= (currentmode << pos);
    1f1a:	fdc42783          	lw	a5,-36(s0)
    1f1e:	fec42703          	lw	a4,-20(s0)
    1f22:	00f717b3          	sll	a5,a4,a5
    1f26:	fe442703          	lw	a4,-28(s0)
    1f2a:	8fd9                	or	a5,a5,a4
    1f2c:	fef42223          	sw	a5,-28(s0)
D:/projects/mechanical_arm/Firmware/UWB/libraries/sdk/Peripheral/ch32v30x_gpio.c:115

        if (GPIO_InitStruct->GPIO_Mode == GPIO_Mode_IPD)
    1f30:	fc842783          	lw	a5,-56(s0)
    1f34:	4798                	lw	a4,8(a5)
    1f36:	02800793          	li	a5,40
    1f3a:	00f71b63          	bne	a4,a5,1f50 <GPIO_Init+0xf8>
D:/projects/mechanical_arm/Firmware/UWB/libraries/sdk/Peripheral/ch32v30x_gpio.c:117
        {
          GPIOx->BCR = (((uint32_t)0x01) << pinpos);
    1f3e:	fe842783          	lw	a5,-24(s0)
    1f42:	4705                	li	a4,1
    1f44:	00f71733          	sll	a4,a4,a5
    1f48:	fcc42783          	lw	a5,-52(s0)
    1f4c:	cbd8                	sw	a4,20(a5)
    1f4e:	a005                	j	1f6e <GPIO_Init+0x116>
D:/projects/mechanical_arm/Firmware/UWB/libraries/sdk/Peripheral/ch32v30x_gpio.c:121
        }
        else
        {
          if (GPIO_InitStruct->GPIO_Mode == GPIO_Mode_IPU)
    1f50:	fc842783          	lw	a5,-56(s0)
    1f54:	4798                	lw	a4,8(a5)
    1f56:	04800793          	li	a5,72
    1f5a:	00f71a63          	bne	a4,a5,1f6e <GPIO_Init+0x116>
D:/projects/mechanical_arm/Firmware/UWB/libraries/sdk/Peripheral/ch32v30x_gpio.c:123
          {
            GPIOx->BSHR = (((uint32_t)0x01) << pinpos);
    1f5e:	fe842783          	lw	a5,-24(s0)
    1f62:	4705                	li	a4,1
    1f64:	00f71733          	sll	a4,a4,a5
    1f68:	fcc42783          	lw	a5,-52(s0)
    1f6c:	cb98                	sw	a4,16(a5)
D:/projects/mechanical_arm/Firmware/UWB/libraries/sdk/Peripheral/ch32v30x_gpio.c:103 (discriminator 2)
    for (pinpos = 0x00; pinpos < 0x08; pinpos++)
    1f6e:	fe842783          	lw	a5,-24(s0)
    1f72:	0785                	addi	a5,a5,1
    1f74:	fef42423          	sw	a5,-24(s0)
D:/projects/mechanical_arm/Firmware/UWB/libraries/sdk/Peripheral/ch32v30x_gpio.c:103 (discriminator 1)
    1f78:	fe842703          	lw	a4,-24(s0)
    1f7c:	479d                	li	a5,7
    1f7e:	f4e7f2e3          	bgeu	a5,a4,1ec2 <GPIO_Init+0x6a>
D:/projects/mechanical_arm/Firmware/UWB/libraries/sdk/Peripheral/ch32v30x_gpio.c:128
          }
        }
      }
    }
    GPIOx->CFGLR = tmpreg;
    1f82:	fcc42783          	lw	a5,-52(s0)
    1f86:	fe442703          	lw	a4,-28(s0)
    1f8a:	c398                	sw	a4,0(a5)
D:/projects/mechanical_arm/Firmware/UWB/libraries/sdk/Peripheral/ch32v30x_gpio.c:131
  }

  if (GPIO_InitStruct->GPIO_Pin > 0x00FF)
    1f8c:	fc842783          	lw	a5,-56(s0)
    1f90:	0007d703          	lhu	a4,0(a5)
    1f94:	0ff00793          	li	a5,255
    1f98:	0ee7f163          	bgeu	a5,a4,207a <GPIO_Init+0x222>
D:/projects/mechanical_arm/Firmware/UWB/libraries/sdk/Peripheral/ch32v30x_gpio.c:133
  {
    tmpreg = GPIOx->CFGHR;
    1f9c:	fcc42783          	lw	a5,-52(s0)
    1fa0:	43dc                	lw	a5,4(a5)
    1fa2:	fef42223          	sw	a5,-28(s0)
D:/projects/mechanical_arm/Firmware/UWB/libraries/sdk/Peripheral/ch32v30x_gpio.c:135
		
    for (pinpos = 0x00; pinpos < 0x08; pinpos++)
    1fa6:	fe042423          	sw	zero,-24(s0)
    1faa:	a875                	j	2066 <GPIO_Init+0x20e>
D:/projects/mechanical_arm/Firmware/UWB/libraries/sdk/Peripheral/ch32v30x_gpio.c:137
    {
      pos = (((uint32_t)0x01) << (pinpos + 0x08));
    1fac:	fe842783          	lw	a5,-24(s0)
    1fb0:	07a1                	addi	a5,a5,8
    1fb2:	4705                	li	a4,1
    1fb4:	00f717b3          	sll	a5,a4,a5
    1fb8:	fcf42e23          	sw	a5,-36(s0)
D:/projects/mechanical_arm/Firmware/UWB/libraries/sdk/Peripheral/ch32v30x_gpio.c:138
      currentpin = ((GPIO_InitStruct->GPIO_Pin) & pos);
    1fbc:	fc842783          	lw	a5,-56(s0)
    1fc0:	0007d783          	lhu	a5,0(a5)
    1fc4:	873e                	mv	a4,a5
    1fc6:	fdc42783          	lw	a5,-36(s0)
    1fca:	8ff9                	and	a5,a5,a4
    1fcc:	fef42023          	sw	a5,-32(s0)
D:/projects/mechanical_arm/Firmware/UWB/libraries/sdk/Peripheral/ch32v30x_gpio.c:140
			
      if (currentpin == pos)
    1fd0:	fe042703          	lw	a4,-32(s0)
    1fd4:	fdc42783          	lw	a5,-36(s0)
    1fd8:	08f71263          	bne	a4,a5,205c <GPIO_Init+0x204>
D:/projects/mechanical_arm/Firmware/UWB/libraries/sdk/Peripheral/ch32v30x_gpio.c:142
      {
        pos = pinpos << 2;
    1fdc:	fe842783          	lw	a5,-24(s0)
    1fe0:	078a                	slli	a5,a5,0x2
    1fe2:	fcf42e23          	sw	a5,-36(s0)
D:/projects/mechanical_arm/Firmware/UWB/libraries/sdk/Peripheral/ch32v30x_gpio.c:143
        pinmask = ((uint32_t)0x0F) << pos;
    1fe6:	fdc42783          	lw	a5,-36(s0)
    1fea:	473d                	li	a4,15
    1fec:	00f717b3          	sll	a5,a4,a5
    1ff0:	fcf42c23          	sw	a5,-40(s0)
D:/projects/mechanical_arm/Firmware/UWB/libraries/sdk/Peripheral/ch32v30x_gpio.c:144
        tmpreg &= ~pinmask;
    1ff4:	fd842783          	lw	a5,-40(s0)
    1ff8:	fff7c793          	not	a5,a5
    1ffc:	fe442703          	lw	a4,-28(s0)
    2000:	8ff9                	and	a5,a5,a4
    2002:	fef42223          	sw	a5,-28(s0)
D:/projects/mechanical_arm/Firmware/UWB/libraries/sdk/Peripheral/ch32v30x_gpio.c:145
        tmpreg |= (currentmode << pos);
    2006:	fdc42783          	lw	a5,-36(s0)
    200a:	fec42703          	lw	a4,-20(s0)
    200e:	00f717b3          	sll	a5,a4,a5
    2012:	fe442703          	lw	a4,-28(s0)
    2016:	8fd9                	or	a5,a5,a4
    2018:	fef42223          	sw	a5,-28(s0)
D:/projects/mechanical_arm/Firmware/UWB/libraries/sdk/Peripheral/ch32v30x_gpio.c:147

        if (GPIO_InitStruct->GPIO_Mode == GPIO_Mode_IPD)
    201c:	fc842783          	lw	a5,-56(s0)
    2020:	4798                	lw	a4,8(a5)
    2022:	02800793          	li	a5,40
    2026:	00f71b63          	bne	a4,a5,203c <GPIO_Init+0x1e4>
D:/projects/mechanical_arm/Firmware/UWB/libraries/sdk/Peripheral/ch32v30x_gpio.c:149
        {
          GPIOx->BCR = (((uint32_t)0x01) << (pinpos + 0x08));
    202a:	fe842783          	lw	a5,-24(s0)
    202e:	07a1                	addi	a5,a5,8
    2030:	4705                	li	a4,1
    2032:	00f71733          	sll	a4,a4,a5
    2036:	fcc42783          	lw	a5,-52(s0)
    203a:	cbd8                	sw	a4,20(a5)
D:/projects/mechanical_arm/Firmware/UWB/libraries/sdk/Peripheral/ch32v30x_gpio.c:152
        }

        if (GPIO_InitStruct->GPIO_Mode == GPIO_Mode_IPU)
    203c:	fc842783          	lw	a5,-56(s0)
    2040:	4798                	lw	a4,8(a5)
    2042:	04800793          	li	a5,72
    2046:	00f71b63          	bne	a4,a5,205c <GPIO_Init+0x204>
D:/projects/mechanical_arm/Firmware/UWB/libraries/sdk/Peripheral/ch32v30x_gpio.c:154
        {
          GPIOx->BSHR = (((uint32_t)0x01) << (pinpos + 0x08));
    204a:	fe842783          	lw	a5,-24(s0)
    204e:	07a1                	addi	a5,a5,8
    2050:	4705                	li	a4,1
    2052:	00f71733          	sll	a4,a4,a5
    2056:	fcc42783          	lw	a5,-52(s0)
    205a:	cb98                	sw	a4,16(a5)
D:/projects/mechanical_arm/Firmware/UWB/libraries/sdk/Peripheral/ch32v30x_gpio.c:135 (discriminator 2)
    for (pinpos = 0x00; pinpos < 0x08; pinpos++)
    205c:	fe842783          	lw	a5,-24(s0)
    2060:	0785                	addi	a5,a5,1
    2062:	fef42423          	sw	a5,-24(s0)
D:/projects/mechanical_arm/Firmware/UWB/libraries/sdk/Peripheral/ch32v30x_gpio.c:135 (discriminator 1)
    2066:	fe842703          	lw	a4,-24(s0)
    206a:	479d                	li	a5,7
    206c:	f4e7f0e3          	bgeu	a5,a4,1fac <GPIO_Init+0x154>
D:/projects/mechanical_arm/Firmware/UWB/libraries/sdk/Peripheral/ch32v30x_gpio.c:158
        }
      }
    }
    GPIOx->CFGHR = tmpreg;
    2070:	fcc42783          	lw	a5,-52(s0)
    2074:	fe442703          	lw	a4,-28(s0)
    2078:	c3d8                	sw	a4,4(a5)
D:/projects/mechanical_arm/Firmware/UWB/libraries/sdk/Peripheral/ch32v30x_gpio.c:160
  }
}
    207a:	0001                	nop
    207c:	5472                	lw	s0,60(sp)
    207e:	6121                	addi	sp,sp,64
    2080:	8082                	ret

00002082 <GPIO_ReadInputDataBit>:
GPIO_ReadInputDataBit():
D:/projects/mechanical_arm/Firmware/UWB/libraries/sdk/Peripheral/ch32v30x_gpio.c:184
* Input          : GPIO_Pin:  specifies the port bit to read.
*                    This parameter can be GPIO_Pin_x where x can be (0..15).
* Return         : The input port pin value.
*******************************************************************************/
uint8_t GPIO_ReadInputDataBit(GPIO_TypeDef* GPIOx, uint16_t GPIO_Pin)
{
    2082:	7179                	addi	sp,sp,-48
    2084:	d622                	sw	s0,44(sp)
    2086:	1800                	addi	s0,sp,48
    2088:	fca42e23          	sw	a0,-36(s0)
    208c:	87ae                	mv	a5,a1
    208e:	fcf41d23          	sh	a5,-38(s0)
D:/projects/mechanical_arm/Firmware/UWB/libraries/sdk/Peripheral/ch32v30x_gpio.c:185
  uint8_t bitstatus = 0x00;
    2092:	fe0407a3          	sb	zero,-17(s0)
D:/projects/mechanical_arm/Firmware/UWB/libraries/sdk/Peripheral/ch32v30x_gpio.c:187
  
  if ((GPIOx->INDR & GPIO_Pin) != (uint32_t)Bit_RESET)
    2096:	fdc42783          	lw	a5,-36(s0)
    209a:	4798                	lw	a4,8(a5)
    209c:	fda45783          	lhu	a5,-38(s0)
    20a0:	8ff9                	and	a5,a5,a4
    20a2:	c789                	beqz	a5,20ac <GPIO_ReadInputDataBit+0x2a>
D:/projects/mechanical_arm/Firmware/UWB/libraries/sdk/Peripheral/ch32v30x_gpio.c:189
  {
    bitstatus = (uint8_t)Bit_SET;
    20a4:	4785                	li	a5,1
    20a6:	fef407a3          	sb	a5,-17(s0)
    20aa:	a019                	j	20b0 <GPIO_ReadInputDataBit+0x2e>
D:/projects/mechanical_arm/Firmware/UWB/libraries/sdk/Peripheral/ch32v30x_gpio.c:193
  }
  else
  {
    bitstatus = (uint8_t)Bit_RESET;
    20ac:	fe0407a3          	sb	zero,-17(s0)
D:/projects/mechanical_arm/Firmware/UWB/libraries/sdk/Peripheral/ch32v30x_gpio.c:196
  }
	
  return bitstatus;
    20b0:	fef44783          	lbu	a5,-17(s0)
D:/projects/mechanical_arm/Firmware/UWB/libraries/sdk/Peripheral/ch32v30x_gpio.c:197
}
    20b4:	853e                	mv	a0,a5
    20b6:	5432                	lw	s0,44(sp)
    20b8:	6145                	addi	sp,sp,48
    20ba:	8082                	ret

000020bc <GPIO_SetBits>:
GPIO_SetBits():
D:/projects/mechanical_arm/Firmware/UWB/libraries/sdk/Peripheral/ch32v30x_gpio.c:254
*                  GPIO_Pin: specifies the port bits to be written.
*                    This parameter can be any combination of GPIO_Pin_x where x can be (0..15).
* Return         : None
*******************************************************************************/
void GPIO_SetBits(GPIO_TypeDef* GPIOx, uint16_t GPIO_Pin)
{
    20bc:	1101                	addi	sp,sp,-32
    20be:	ce22                	sw	s0,28(sp)
    20c0:	1000                	addi	s0,sp,32
    20c2:	fea42623          	sw	a0,-20(s0)
    20c6:	87ae                	mv	a5,a1
    20c8:	fef41523          	sh	a5,-22(s0)
D:/projects/mechanical_arm/Firmware/UWB/libraries/sdk/Peripheral/ch32v30x_gpio.c:255
  GPIOx->BSHR = GPIO_Pin;
    20cc:	fea45703          	lhu	a4,-22(s0)
    20d0:	fec42783          	lw	a5,-20(s0)
    20d4:	cb98                	sw	a4,16(a5)
D:/projects/mechanical_arm/Firmware/UWB/libraries/sdk/Peripheral/ch32v30x_gpio.c:256
}
    20d6:	0001                	nop
    20d8:	4472                	lw	s0,28(sp)
    20da:	6105                	addi	sp,sp,32
    20dc:	8082                	ret

000020de <GPIO_ResetBits>:
GPIO_ResetBits():
D:/projects/mechanical_arm/Firmware/UWB/libraries/sdk/Peripheral/ch32v30x_gpio.c:267
*                  GPIO_Pin: specifies the port bits to be written.
*                    This parameter can be any combination of GPIO_Pin_x where x can be (0..15).
* Return         : None
*******************************************************************************/
void GPIO_ResetBits(GPIO_TypeDef* GPIOx, uint16_t GPIO_Pin)
{
    20de:	1101                	addi	sp,sp,-32
    20e0:	ce22                	sw	s0,28(sp)
    20e2:	1000                	addi	s0,sp,32
    20e4:	fea42623          	sw	a0,-20(s0)
    20e8:	87ae                	mv	a5,a1
    20ea:	fef41523          	sh	a5,-22(s0)
D:/projects/mechanical_arm/Firmware/UWB/libraries/sdk/Peripheral/ch32v30x_gpio.c:268
  GPIOx->BCR = GPIO_Pin;
    20ee:	fea45703          	lhu	a4,-22(s0)
    20f2:	fec42783          	lw	a5,-20(s0)
    20f6:	cbd8                	sw	a4,20(a5)
D:/projects/mechanical_arm/Firmware/UWB/libraries/sdk/Peripheral/ch32v30x_gpio.c:269
}
    20f8:	0001                	nop
    20fa:	4472                	lw	s0,28(sp)
    20fc:	6105                	addi	sp,sp,32
    20fe:	8082                	ret

00002100 <GPIO_WriteBit>:
GPIO_WriteBit():
D:/projects/mechanical_arm/Firmware/UWB/libraries/sdk/Peripheral/ch32v30x_gpio.c:282
*                    Bit_SetL: to clear the port pin.
*                    Bit_SetH: to set the port pin.                  
* Return         : None
*******************************************************************************/
void GPIO_WriteBit(GPIO_TypeDef* GPIOx, uint16_t GPIO_Pin, BitAction BitVal)
{
    2100:	1101                	addi	sp,sp,-32
    2102:	ce22                	sw	s0,28(sp)
    2104:	1000                	addi	s0,sp,32
    2106:	fea42623          	sw	a0,-20(s0)
    210a:	87ae                	mv	a5,a1
    210c:	fec42223          	sw	a2,-28(s0)
    2110:	fef41523          	sh	a5,-22(s0)
D:/projects/mechanical_arm/Firmware/UWB/libraries/sdk/Peripheral/ch32v30x_gpio.c:283
  if (BitVal != Bit_RESET)
    2114:	fe442783          	lw	a5,-28(s0)
    2118:	c799                	beqz	a5,2126 <GPIO_WriteBit+0x26>
D:/projects/mechanical_arm/Firmware/UWB/libraries/sdk/Peripheral/ch32v30x_gpio.c:285
  {
    GPIOx->BSHR = GPIO_Pin;
    211a:	fea45703          	lhu	a4,-22(s0)
    211e:	fec42783          	lw	a5,-20(s0)
    2122:	cb98                	sw	a4,16(a5)
D:/projects/mechanical_arm/Firmware/UWB/libraries/sdk/Peripheral/ch32v30x_gpio.c:291
  }
  else
  {
    GPIOx->BCR = GPIO_Pin;
  }
}
    2124:	a031                	j	2130 <GPIO_WriteBit+0x30>
D:/projects/mechanical_arm/Firmware/UWB/libraries/sdk/Peripheral/ch32v30x_gpio.c:289
    GPIOx->BCR = GPIO_Pin;
    2126:	fea45703          	lhu	a4,-22(s0)
    212a:	fec42783          	lw	a5,-20(s0)
    212e:	cbd8                	sw	a4,20(a5)
D:/projects/mechanical_arm/Firmware/UWB/libraries/sdk/Peripheral/ch32v30x_gpio.c:291
}
    2130:	0001                	nop
    2132:	4472                	lw	s0,28(sp)
    2134:	6105                	addi	sp,sp,32
    2136:	8082                	ret

00002138 <GPIO_PinRemapConfig>:
GPIO_PinRemapConfig():
D:/projects/mechanical_arm/Firmware/UWB/libraries/sdk/Peripheral/ch32v30x_gpio.c:402
*      only for High density Value line devices)     
*                  NewState: ENABLE or DISABLE.             
* Return         : None
*******************************************************************************/
void GPIO_PinRemapConfig(uint32_t GPIO_Remap, FunctionalState NewState)
{
    2138:	7179                	addi	sp,sp,-48
    213a:	d622                	sw	s0,44(sp)
    213c:	1800                	addi	s0,sp,48
    213e:	fca42e23          	sw	a0,-36(s0)
    2142:	fcb42c23          	sw	a1,-40(s0)
D:/projects/mechanical_arm/Firmware/UWB/libraries/sdk/Peripheral/ch32v30x_gpio.c:403
  uint32_t tmp = 0x00, tmp1 = 0x00, tmpreg = 0x00, tmpmask = 0x00;
    2146:	fe042423          	sw	zero,-24(s0)
    214a:	fe042223          	sw	zero,-28(s0)
    214e:	fe042623          	sw	zero,-20(s0)
    2152:	fe042023          	sw	zero,-32(s0)
D:/projects/mechanical_arm/Firmware/UWB/libraries/sdk/Peripheral/ch32v30x_gpio.c:405

  if((GPIO_Remap & 0x80000000) == 0x80000000)
    2156:	fdc42783          	lw	a5,-36(s0)
    215a:	0007d863          	bgez	a5,216a <GPIO_PinRemapConfig+0x32>
D:/projects/mechanical_arm/Firmware/UWB/libraries/sdk/Peripheral/ch32v30x_gpio.c:407
  {
    tmpreg = AFIO->PCFR2;
    215e:	400107b7          	lui	a5,0x40010
    2162:	4fdc                	lw	a5,28(a5)
    2164:	fef42623          	sw	a5,-20(s0)
    2168:	a031                	j	2174 <GPIO_PinRemapConfig+0x3c>
D:/projects/mechanical_arm/Firmware/UWB/libraries/sdk/Peripheral/ch32v30x_gpio.c:411
  }
  else
  {
    tmpreg = AFIO->PCFR1;
    216a:	400107b7          	lui	a5,0x40010
    216e:	43dc                	lw	a5,4(a5)
    2170:	fef42623          	sw	a5,-20(s0)
D:/projects/mechanical_arm/Firmware/UWB/libraries/sdk/Peripheral/ch32v30x_gpio.c:414
  }

  tmpmask = (GPIO_Remap & DBGAFR_POSITION_MASK) >> 0x10;
    2174:	fdc42783          	lw	a5,-36(s0)
    2178:	83c1                	srli	a5,a5,0x10
    217a:	8bbd                	andi	a5,a5,15
    217c:	fef42023          	sw	a5,-32(s0)
D:/projects/mechanical_arm/Firmware/UWB/libraries/sdk/Peripheral/ch32v30x_gpio.c:415
  tmp = GPIO_Remap & LSB_MASK;
    2180:	fdc42703          	lw	a4,-36(s0)
    2184:	67c1                	lui	a5,0x10
    2186:	17fd                	addi	a5,a5,-1
    2188:	8ff9                	and	a5,a5,a4
    218a:	fef42423          	sw	a5,-24(s0)
D:/projects/mechanical_arm/Firmware/UWB/libraries/sdk/Peripheral/ch32v30x_gpio.c:417

  if ((GPIO_Remap & (DBGAFR_LOCATION_MASK | DBGAFR_NUMBITS_MASK)) == (DBGAFR_LOCATION_MASK | DBGAFR_NUMBITS_MASK))
    218e:	fdc42703          	lw	a4,-36(s0)
    2192:	003007b7          	lui	a5,0x300
    2196:	8f7d                	and	a4,a4,a5
    2198:	003007b7          	lui	a5,0x300
    219c:	02f71563          	bne	a4,a5,21c6 <GPIO_PinRemapConfig+0x8e>
D:/projects/mechanical_arm/Firmware/UWB/libraries/sdk/Peripheral/ch32v30x_gpio.c:419
  {
    tmpreg &= DBGAFR_SWJCFG_MASK;
    21a0:	fec42703          	lw	a4,-20(s0)
    21a4:	f10007b7          	lui	a5,0xf1000
    21a8:	17fd                	addi	a5,a5,-1
    21aa:	8ff9                	and	a5,a5,a4
    21ac:	fef42623          	sw	a5,-20(s0)
D:/projects/mechanical_arm/Firmware/UWB/libraries/sdk/Peripheral/ch32v30x_gpio.c:420
    AFIO->PCFR1 &= DBGAFR_SWJCFG_MASK;
    21b0:	400107b7          	lui	a5,0x40010
    21b4:	43d4                	lw	a3,4(a5)
    21b6:	400107b7          	lui	a5,0x40010
    21ba:	f1000737          	lui	a4,0xf1000
    21be:	177d                	addi	a4,a4,-1
    21c0:	8f75                	and	a4,a4,a3
    21c2:	c3d8                	sw	a4,4(a5)
    21c4:	a0ad                	j	222e <GPIO_PinRemapConfig+0xf6>
D:/projects/mechanical_arm/Firmware/UWB/libraries/sdk/Peripheral/ch32v30x_gpio.c:422
  }
  else if ((GPIO_Remap & DBGAFR_NUMBITS_MASK) == DBGAFR_NUMBITS_MASK)
    21c6:	fdc42703          	lw	a4,-36(s0)
    21ca:	001007b7          	lui	a5,0x100
    21ce:	8ff9                	and	a5,a5,a4
    21d0:	cb8d                	beqz	a5,2202 <GPIO_PinRemapConfig+0xca>
D:/projects/mechanical_arm/Firmware/UWB/libraries/sdk/Peripheral/ch32v30x_gpio.c:424
  {
    tmp1 = ((uint32_t)0x03) << tmpmask;
    21d2:	fe042783          	lw	a5,-32(s0)
    21d6:	470d                	li	a4,3
    21d8:	00f717b3          	sll	a5,a4,a5
    21dc:	fef42223          	sw	a5,-28(s0)
D:/projects/mechanical_arm/Firmware/UWB/libraries/sdk/Peripheral/ch32v30x_gpio.c:425
    tmpreg &= ~tmp1;
    21e0:	fe442783          	lw	a5,-28(s0)
    21e4:	fff7c793          	not	a5,a5
    21e8:	fec42703          	lw	a4,-20(s0)
    21ec:	8ff9                	and	a5,a5,a4
    21ee:	fef42623          	sw	a5,-20(s0)
D:/projects/mechanical_arm/Firmware/UWB/libraries/sdk/Peripheral/ch32v30x_gpio.c:426
    tmpreg |= ~DBGAFR_SWJCFG_MASK;
    21f2:	fec42703          	lw	a4,-20(s0)
    21f6:	0f0007b7          	lui	a5,0xf000
    21fa:	8fd9                	or	a5,a5,a4
    21fc:	fef42623          	sw	a5,-20(s0)
    2200:	a03d                	j	222e <GPIO_PinRemapConfig+0xf6>
D:/projects/mechanical_arm/Firmware/UWB/libraries/sdk/Peripheral/ch32v30x_gpio.c:430
  }
  else
  {
    tmpreg &= ~(tmp << ((GPIO_Remap >> 0x15)*0x10));
    2202:	fdc42783          	lw	a5,-36(s0)
    2206:	83d5                	srli	a5,a5,0x15
    2208:	0792                	slli	a5,a5,0x4
    220a:	fe842703          	lw	a4,-24(s0)
    220e:	00f717b3          	sll	a5,a4,a5
    2212:	fff7c793          	not	a5,a5
    2216:	fec42703          	lw	a4,-20(s0)
    221a:	8ff9                	and	a5,a5,a4
    221c:	fef42623          	sw	a5,-20(s0)
D:/projects/mechanical_arm/Firmware/UWB/libraries/sdk/Peripheral/ch32v30x_gpio.c:431
    tmpreg |= ~DBGAFR_SWJCFG_MASK;
    2220:	fec42703          	lw	a4,-20(s0)
    2224:	0f0007b7          	lui	a5,0xf000
    2228:	8fd9                	or	a5,a5,a4
    222a:	fef42623          	sw	a5,-20(s0)
D:/projects/mechanical_arm/Firmware/UWB/libraries/sdk/Peripheral/ch32v30x_gpio.c:434
  }

  if (NewState != DISABLE)
    222e:	fd842783          	lw	a5,-40(s0)
    2232:	cf91                	beqz	a5,224e <GPIO_PinRemapConfig+0x116>
D:/projects/mechanical_arm/Firmware/UWB/libraries/sdk/Peripheral/ch32v30x_gpio.c:436
  {
    tmpreg |= (tmp << ((GPIO_Remap >> 0x15)*0x10));
    2234:	fdc42783          	lw	a5,-36(s0)
    2238:	83d5                	srli	a5,a5,0x15
    223a:	0792                	slli	a5,a5,0x4
    223c:	fe842703          	lw	a4,-24(s0)
    2240:	00f717b3          	sll	a5,a4,a5
    2244:	fec42703          	lw	a4,-20(s0)
    2248:	8fd9                	or	a5,a5,a4
    224a:	fef42623          	sw	a5,-20(s0)
D:/projects/mechanical_arm/Firmware/UWB/libraries/sdk/Peripheral/ch32v30x_gpio.c:439
  }

  if((GPIO_Remap & 0x80000000) == 0x80000000)
    224e:	fdc42783          	lw	a5,-36(s0)
    2252:	0007d863          	bgez	a5,2262 <GPIO_PinRemapConfig+0x12a>
D:/projects/mechanical_arm/Firmware/UWB/libraries/sdk/Peripheral/ch32v30x_gpio.c:441
  {
    AFIO->PCFR2 = tmpreg;
    2256:	400107b7          	lui	a5,0x40010
    225a:	fec42703          	lw	a4,-20(s0)
    225e:	cfd8                	sw	a4,28(a5)
D:/projects/mechanical_arm/Firmware/UWB/libraries/sdk/Peripheral/ch32v30x_gpio.c:447
  }
  else
  {
    AFIO->PCFR1 = tmpreg;
  }  
}
    2260:	a031                	j	226c <GPIO_PinRemapConfig+0x134>
D:/projects/mechanical_arm/Firmware/UWB/libraries/sdk/Peripheral/ch32v30x_gpio.c:445
    AFIO->PCFR1 = tmpreg;
    2262:	400107b7          	lui	a5,0x40010
    2266:	fec42703          	lw	a4,-20(s0)
    226a:	c3d8                	sw	a4,4(a5)
D:/projects/mechanical_arm/Firmware/UWB/libraries/sdk/Peripheral/ch32v30x_gpio.c:447
}
    226c:	0001                	nop
    226e:	5432                	lw	s0,44(sp)
    2270:	6145                	addi	sp,sp,48
    2272:	8082                	ret

00002274 <RCC_GetClocksFreq>:
RCC_GetClocksFreq():
D:/projects/mechanical_arm/Firmware/UWB/libraries/sdk/Peripheral/ch32v30x_rcc.c:489
* Input          : RCC_Clocks: pointer to a RCC_ClocksTypeDef structure which will hold
*      the clocks frequencies.
* Return         : None
********************************************************************************/
void RCC_GetClocksFreq(RCC_ClocksTypeDef* RCC_Clocks)
{
    2274:	7139                	addi	sp,sp,-64
    2276:	de22                	sw	s0,60(sp)
    2278:	0080                	addi	s0,sp,64
    227a:	fca42623          	sw	a0,-52(s0)
D:/projects/mechanical_arm/Firmware/UWB/libraries/sdk/Peripheral/ch32v30x_rcc.c:490
    uint32_t tmp = 0, pllmull = 0, pllsource = 0, presc = 0, Pll_6_5 = 0;
    227e:	fe042223          	sw	zero,-28(s0)
    2282:	fe042623          	sw	zero,-20(s0)
    2286:	fe042023          	sw	zero,-32(s0)
    228a:	fc042e23          	sw	zero,-36(s0)
    228e:	fe042423          	sw	zero,-24(s0)
D:/projects/mechanical_arm/Firmware/UWB/libraries/sdk/Peripheral/ch32v30x_rcc.c:492

    tmp = RCC->CFGR0 & CFGR0_SWS_Mask;
    2292:	400217b7          	lui	a5,0x40021
    2296:	43dc                	lw	a5,4(a5)
    2298:	8bb1                	andi	a5,a5,12
    229a:	fef42223          	sw	a5,-28(s0)
    229e:	fe442703          	lw	a4,-28(s0)
    22a2:	4791                	li	a5,4
    22a4:	02f70363          	beq	a4,a5,22ca <RCC_GetClocksFreq+0x56>
    22a8:	fe442703          	lw	a4,-28(s0)
    22ac:	47a1                	li	a5,8
    22ae:	02f70663          	beq	a4,a5,22da <RCC_GetClocksFreq+0x66>
    22b2:	fe442783          	lw	a5,-28(s0)
    22b6:	14079963          	bnez	a5,2408 <RCC_GetClocksFreq+0x194>
D:/projects/mechanical_arm/Firmware/UWB/libraries/sdk/Peripheral/ch32v30x_rcc.c:497

    switch (tmp)
    {
      case 0x00:
        RCC_Clocks->SYSCLK_Frequency = HSI_VALUE;
    22ba:	fcc42783          	lw	a5,-52(s0)
    22be:	007a1737          	lui	a4,0x7a1
    22c2:	20070713          	addi	a4,a4,512 # 7a1200 <_data_lma+0x796ddc>
    22c6:	c398                	sw	a4,0(a5)
D:/projects/mechanical_arm/Firmware/UWB/libraries/sdk/Peripheral/ch32v30x_rcc.c:498
        break;
    22c8:	aa89                	j	241a <RCC_GetClocksFreq+0x1a6>
D:/projects/mechanical_arm/Firmware/UWB/libraries/sdk/Peripheral/ch32v30x_rcc.c:501

      case 0x04:
        RCC_Clocks->SYSCLK_Frequency = HSE_VALUE;
    22ca:	fcc42783          	lw	a5,-52(s0)
    22ce:	007a1737          	lui	a4,0x7a1
    22d2:	20070713          	addi	a4,a4,512 # 7a1200 <_data_lma+0x796ddc>
    22d6:	c398                	sw	a4,0(a5)
D:/projects/mechanical_arm/Firmware/UWB/libraries/sdk/Peripheral/ch32v30x_rcc.c:502
        break;
    22d8:	a289                	j	241a <RCC_GetClocksFreq+0x1a6>
D:/projects/mechanical_arm/Firmware/UWB/libraries/sdk/Peripheral/ch32v30x_rcc.c:505

      case 0x08:
        pllmull = RCC->CFGR0 & CFGR0_PLLMull_Mask;
    22da:	400217b7          	lui	a5,0x40021
    22de:	43d8                	lw	a4,4(a5)
    22e0:	003c07b7          	lui	a5,0x3c0
    22e4:	8ff9                	and	a5,a5,a4
    22e6:	fef42623          	sw	a5,-20(s0)
D:/projects/mechanical_arm/Firmware/UWB/libraries/sdk/Peripheral/ch32v30x_rcc.c:506
        pllsource = RCC->CFGR0 & CFGR0_PLLSRC_Mask;
    22ea:	400217b7          	lui	a5,0x40021
    22ee:	43d8                	lw	a4,4(a5)
    22f0:	67c1                	lui	a5,0x10
    22f2:	8ff9                	and	a5,a5,a4
    22f4:	fef42023          	sw	a5,-32(s0)
D:/projects/mechanical_arm/Firmware/UWB/libraries/sdk/Peripheral/ch32v30x_rcc.c:508

        pllmull = ( pllmull >> 18) + 2;
    22f8:	fec42783          	lw	a5,-20(s0)
    22fc:	83c9                	srli	a5,a5,0x12
    22fe:	0789                	addi	a5,a5,2
    2300:	fef42623          	sw	a5,-20(s0)
D:/projects/mechanical_arm/Firmware/UWB/libraries/sdk/Peripheral/ch32v30x_rcc.c:510

        if(((*(uint32_t*)0x1FFFF70C) & (1<<14)) != (1<<14)){ /* for other CH32V30x */
    2304:	1ffff7b7          	lui	a5,0x1ffff
    2308:	70c78793          	addi	a5,a5,1804 # 1ffff70c <_data_lma+0x1fff52e8>
    230c:	4398                	lw	a4,0(a5)
    230e:	6791                	lui	a5,0x4
    2310:	8ff9                	and	a5,a5,a4
    2312:	eb91                	bnez	a5,2326 <RCC_GetClocksFreq+0xb2>
D:/projects/mechanical_arm/Firmware/UWB/libraries/sdk/Peripheral/ch32v30x_rcc.c:511
            if(pllmull == 17) pllmull = 18;
    2314:	fec42703          	lw	a4,-20(s0)
    2318:	47c5                	li	a5,17
    231a:	04f71963          	bne	a4,a5,236c <RCC_GetClocksFreq+0xf8>
D:/projects/mechanical_arm/Firmware/UWB/libraries/sdk/Peripheral/ch32v30x_rcc.c:511 (discriminator 1)
    231e:	47c9                	li	a5,18
    2320:	fef42623          	sw	a5,-20(s0)
    2324:	a0a1                	j	236c <RCC_GetClocksFreq+0xf8>
D:/projects/mechanical_arm/Firmware/UWB/libraries/sdk/Peripheral/ch32v30x_rcc.c:514
        }
        else{  /* for CH32V307 */
            if(pllmull == 2) pllmull = 18;
    2326:	fec42703          	lw	a4,-20(s0)
    232a:	4789                	li	a5,2
    232c:	00f71563          	bne	a4,a5,2336 <RCC_GetClocksFreq+0xc2>
D:/projects/mechanical_arm/Firmware/UWB/libraries/sdk/Peripheral/ch32v30x_rcc.c:514 (discriminator 1)
    2330:	47c9                	li	a5,18
    2332:	fef42623          	sw	a5,-20(s0)
D:/projects/mechanical_arm/Firmware/UWB/libraries/sdk/Peripheral/ch32v30x_rcc.c:515
            if(pllmull == 15){
    2336:	fec42703          	lw	a4,-20(s0)
    233a:	47bd                	li	a5,15
    233c:	00f71863          	bne	a4,a5,234c <RCC_GetClocksFreq+0xd8>
D:/projects/mechanical_arm/Firmware/UWB/libraries/sdk/Peripheral/ch32v30x_rcc.c:516
                pllmull = 13;  /* *6.5 */
    2340:	47b5                	li	a5,13
    2342:	fef42623          	sw	a5,-20(s0)
D:/projects/mechanical_arm/Firmware/UWB/libraries/sdk/Peripheral/ch32v30x_rcc.c:517
                Pll_6_5 = 1;
    2346:	4785                	li	a5,1
    2348:	fef42423          	sw	a5,-24(s0)
D:/projects/mechanical_arm/Firmware/UWB/libraries/sdk/Peripheral/ch32v30x_rcc.c:519
            }
            if(pllmull == 16) pllmull = 15;
    234c:	fec42703          	lw	a4,-20(s0)
    2350:	47c1                	li	a5,16
    2352:	00f71563          	bne	a4,a5,235c <RCC_GetClocksFreq+0xe8>
D:/projects/mechanical_arm/Firmware/UWB/libraries/sdk/Peripheral/ch32v30x_rcc.c:519 (discriminator 1)
    2356:	47bd                	li	a5,15
    2358:	fef42623          	sw	a5,-20(s0)
D:/projects/mechanical_arm/Firmware/UWB/libraries/sdk/Peripheral/ch32v30x_rcc.c:520
            if(pllmull == 17) pllmull = 16;
    235c:	fec42703          	lw	a4,-20(s0)
    2360:	47c5                	li	a5,17
    2362:	00f71563          	bne	a4,a5,236c <RCC_GetClocksFreq+0xf8>
D:/projects/mechanical_arm/Firmware/UWB/libraries/sdk/Peripheral/ch32v30x_rcc.c:520 (discriminator 1)
    2366:	47c1                	li	a5,16
    2368:	fef42623          	sw	a5,-20(s0)
D:/projects/mechanical_arm/Firmware/UWB/libraries/sdk/Peripheral/ch32v30x_rcc.c:524
        }


        if (pllsource == 0x00)
    236c:	fe042783          	lw	a5,-32(s0)
    2370:	e3a1                	bnez	a5,23b0 <RCC_GetClocksFreq+0x13c>
D:/projects/mechanical_arm/Firmware/UWB/libraries/sdk/Peripheral/ch32v30x_rcc.c:526
        {
                  if(EXTEN->EXTEN_CTR & EXTEN_PLL_HSI_PRE){
    2372:	400247b7          	lui	a5,0x40024
    2376:	80078793          	addi	a5,a5,-2048 # 40023800 <_eusrstack+0x20013800>
    237a:	439c                	lw	a5,0(a5)
    237c:	8bc1                	andi	a5,a5,16
    237e:	cf89                	beqz	a5,2398 <RCC_GetClocksFreq+0x124>
D:/projects/mechanical_arm/Firmware/UWB/libraries/sdk/Peripheral/ch32v30x_rcc.c:527
                   RCC_Clocks->SYSCLK_Frequency = (HSI_VALUE) * pllmull;
    2380:	fec42703          	lw	a4,-20(s0)
    2384:	007a17b7          	lui	a5,0x7a1
    2388:	20078793          	addi	a5,a5,512 # 7a1200 <_data_lma+0x796ddc>
    238c:	02f70733          	mul	a4,a4,a5
    2390:	fcc42783          	lw	a5,-52(s0)
    2394:	c398                	sw	a4,0(a5)
    2396:	a899                	j	23ec <RCC_GetClocksFreq+0x178>
D:/projects/mechanical_arm/Firmware/UWB/libraries/sdk/Peripheral/ch32v30x_rcc.c:530
                  }
                  else{
                   RCC_Clocks->SYSCLK_Frequency = (HSI_VALUE >>1) * pllmull;
    2398:	fec42703          	lw	a4,-20(s0)
    239c:	003d17b7          	lui	a5,0x3d1
    23a0:	90078793          	addi	a5,a5,-1792 # 3d0900 <_data_lma+0x3c64dc>
    23a4:	02f70733          	mul	a4,a4,a5
    23a8:	fcc42783          	lw	a5,-52(s0)
    23ac:	c398                	sw	a4,0(a5)
    23ae:	a83d                	j	23ec <RCC_GetClocksFreq+0x178>
D:/projects/mechanical_arm/Firmware/UWB/libraries/sdk/Peripheral/ch32v30x_rcc.c:535
                  }
        }
        else
        {
          if ((RCC->CFGR0 & CFGR0_PLLXTPRE_Mask) != (uint32_t)RESET)
    23b0:	400217b7          	lui	a5,0x40021
    23b4:	43d8                	lw	a4,4(a5)
    23b6:	000207b7          	lui	a5,0x20
    23ba:	8ff9                	and	a5,a5,a4
    23bc:	cf89                	beqz	a5,23d6 <RCC_GetClocksFreq+0x162>
D:/projects/mechanical_arm/Firmware/UWB/libraries/sdk/Peripheral/ch32v30x_rcc.c:537
          {
            RCC_Clocks->SYSCLK_Frequency = (HSE_VALUE >> 1) * pllmull;
    23be:	fec42703          	lw	a4,-20(s0)
    23c2:	003d17b7          	lui	a5,0x3d1
    23c6:	90078793          	addi	a5,a5,-1792 # 3d0900 <_data_lma+0x3c64dc>
    23ca:	02f70733          	mul	a4,a4,a5
    23ce:	fcc42783          	lw	a5,-52(s0)
    23d2:	c398                	sw	a4,0(a5)
    23d4:	a821                	j	23ec <RCC_GetClocksFreq+0x178>
D:/projects/mechanical_arm/Firmware/UWB/libraries/sdk/Peripheral/ch32v30x_rcc.c:541
          }
          else
          {
            RCC_Clocks->SYSCLK_Frequency = HSE_VALUE * pllmull;
    23d6:	fec42703          	lw	a4,-20(s0)
    23da:	007a17b7          	lui	a5,0x7a1
    23de:	20078793          	addi	a5,a5,512 # 7a1200 <_data_lma+0x796ddc>
    23e2:	02f70733          	mul	a4,a4,a5
    23e6:	fcc42783          	lw	a5,-52(s0)
    23ea:	c398                	sw	a4,0(a5)
D:/projects/mechanical_arm/Firmware/UWB/libraries/sdk/Peripheral/ch32v30x_rcc.c:545
          }
        }

        if(Pll_6_5 == 1) RCC_Clocks->SYSCLK_Frequency = (RCC_Clocks->SYSCLK_Frequency / 2);
    23ec:	fe842703          	lw	a4,-24(s0)
    23f0:	4785                	li	a5,1
    23f2:	02f71363          	bne	a4,a5,2418 <RCC_GetClocksFreq+0x1a4>
D:/projects/mechanical_arm/Firmware/UWB/libraries/sdk/Peripheral/ch32v30x_rcc.c:545 (discriminator 1)
    23f6:	fcc42783          	lw	a5,-52(s0)
    23fa:	439c                	lw	a5,0(a5)
    23fc:	0017d713          	srli	a4,a5,0x1
    2400:	fcc42783          	lw	a5,-52(s0)
    2404:	c398                	sw	a4,0(a5)
D:/projects/mechanical_arm/Firmware/UWB/libraries/sdk/Peripheral/ch32v30x_rcc.c:547 (discriminator 1)

        break;
    2406:	a809                	j	2418 <RCC_GetClocksFreq+0x1a4>
D:/projects/mechanical_arm/Firmware/UWB/libraries/sdk/Peripheral/ch32v30x_rcc.c:550

      default:
        RCC_Clocks->SYSCLK_Frequency = HSI_VALUE;
    2408:	fcc42783          	lw	a5,-52(s0)
    240c:	007a1737          	lui	a4,0x7a1
    2410:	20070713          	addi	a4,a4,512 # 7a1200 <_data_lma+0x796ddc>
    2414:	c398                	sw	a4,0(a5)
D:/projects/mechanical_arm/Firmware/UWB/libraries/sdk/Peripheral/ch32v30x_rcc.c:551
        break;
    2416:	a011                	j	241a <RCC_GetClocksFreq+0x1a6>
D:/projects/mechanical_arm/Firmware/UWB/libraries/sdk/Peripheral/ch32v30x_rcc.c:547
        break;
    2418:	0001                	nop
D:/projects/mechanical_arm/Firmware/UWB/libraries/sdk/Peripheral/ch32v30x_rcc.c:554
    }

    tmp = RCC->CFGR0 & CFGR0_HPRE_Set_Mask;
    241a:	400217b7          	lui	a5,0x40021
    241e:	43dc                	lw	a5,4(a5)
    2420:	0f07f793          	andi	a5,a5,240
    2424:	fef42223          	sw	a5,-28(s0)
D:/projects/mechanical_arm/Firmware/UWB/libraries/sdk/Peripheral/ch32v30x_rcc.c:555
    tmp = tmp >> 4;
    2428:	fe442783          	lw	a5,-28(s0)
    242c:	8391                	srli	a5,a5,0x4
    242e:	fef42223          	sw	a5,-28(s0)
D:/projects/mechanical_arm/Firmware/UWB/libraries/sdk/Peripheral/ch32v30x_rcc.c:556
    presc = APBAHBPrescTable[tmp];
    2432:	200007b7          	lui	a5,0x20000
    2436:	00c78713          	addi	a4,a5,12 # 2000000c <APBAHBPrescTable>
    243a:	fe442783          	lw	a5,-28(s0)
    243e:	97ba                	add	a5,a5,a4
    2440:	0007c783          	lbu	a5,0(a5)
    2444:	0ff7f793          	andi	a5,a5,255
    2448:	fcf42e23          	sw	a5,-36(s0)
D:/projects/mechanical_arm/Firmware/UWB/libraries/sdk/Peripheral/ch32v30x_rcc.c:557
    RCC_Clocks->HCLK_Frequency = RCC_Clocks->SYSCLK_Frequency >> presc;
    244c:	fcc42783          	lw	a5,-52(s0)
    2450:	4398                	lw	a4,0(a5)
    2452:	fdc42783          	lw	a5,-36(s0)
    2456:	00f75733          	srl	a4,a4,a5
    245a:	fcc42783          	lw	a5,-52(s0)
    245e:	c3d8                	sw	a4,4(a5)
D:/projects/mechanical_arm/Firmware/UWB/libraries/sdk/Peripheral/ch32v30x_rcc.c:558
    tmp = RCC->CFGR0 & CFGR0_PPRE1_Set_Mask;
    2460:	400217b7          	lui	a5,0x40021
    2464:	43dc                	lw	a5,4(a5)
    2466:	7007f793          	andi	a5,a5,1792
    246a:	fef42223          	sw	a5,-28(s0)
D:/projects/mechanical_arm/Firmware/UWB/libraries/sdk/Peripheral/ch32v30x_rcc.c:559
    tmp = tmp >> 8;
    246e:	fe442783          	lw	a5,-28(s0)
    2472:	83a1                	srli	a5,a5,0x8
    2474:	fef42223          	sw	a5,-28(s0)
D:/projects/mechanical_arm/Firmware/UWB/libraries/sdk/Peripheral/ch32v30x_rcc.c:560
    presc = APBAHBPrescTable[tmp];
    2478:	200007b7          	lui	a5,0x20000
    247c:	00c78713          	addi	a4,a5,12 # 2000000c <APBAHBPrescTable>
    2480:	fe442783          	lw	a5,-28(s0)
    2484:	97ba                	add	a5,a5,a4
    2486:	0007c783          	lbu	a5,0(a5)
    248a:	0ff7f793          	andi	a5,a5,255
    248e:	fcf42e23          	sw	a5,-36(s0)
D:/projects/mechanical_arm/Firmware/UWB/libraries/sdk/Peripheral/ch32v30x_rcc.c:561
    RCC_Clocks->PCLK1_Frequency = RCC_Clocks->HCLK_Frequency >> presc;
    2492:	fcc42783          	lw	a5,-52(s0)
    2496:	43d8                	lw	a4,4(a5)
    2498:	fdc42783          	lw	a5,-36(s0)
    249c:	00f75733          	srl	a4,a4,a5
    24a0:	fcc42783          	lw	a5,-52(s0)
    24a4:	c798                	sw	a4,8(a5)
D:/projects/mechanical_arm/Firmware/UWB/libraries/sdk/Peripheral/ch32v30x_rcc.c:562
    tmp = RCC->CFGR0 & CFGR0_PPRE2_Set_Mask;
    24a6:	400217b7          	lui	a5,0x40021
    24aa:	43d8                	lw	a4,4(a5)
    24ac:	6791                	lui	a5,0x4
    24ae:	80078793          	addi	a5,a5,-2048 # 3800 <OTG_FS_IRQHandler+0x8f0>
    24b2:	8ff9                	and	a5,a5,a4
    24b4:	fef42223          	sw	a5,-28(s0)
D:/projects/mechanical_arm/Firmware/UWB/libraries/sdk/Peripheral/ch32v30x_rcc.c:563
    tmp = tmp >> 11;
    24b8:	fe442783          	lw	a5,-28(s0)
    24bc:	83ad                	srli	a5,a5,0xb
    24be:	fef42223          	sw	a5,-28(s0)
D:/projects/mechanical_arm/Firmware/UWB/libraries/sdk/Peripheral/ch32v30x_rcc.c:564
    presc = APBAHBPrescTable[tmp];
    24c2:	200007b7          	lui	a5,0x20000
    24c6:	00c78713          	addi	a4,a5,12 # 2000000c <APBAHBPrescTable>
    24ca:	fe442783          	lw	a5,-28(s0)
    24ce:	97ba                	add	a5,a5,a4
    24d0:	0007c783          	lbu	a5,0(a5)
    24d4:	0ff7f793          	andi	a5,a5,255
    24d8:	fcf42e23          	sw	a5,-36(s0)
D:/projects/mechanical_arm/Firmware/UWB/libraries/sdk/Peripheral/ch32v30x_rcc.c:565
    RCC_Clocks->PCLK2_Frequency = RCC_Clocks->HCLK_Frequency >> presc;
    24dc:	fcc42783          	lw	a5,-52(s0)
    24e0:	43d8                	lw	a4,4(a5)
    24e2:	fdc42783          	lw	a5,-36(s0)
    24e6:	00f75733          	srl	a4,a4,a5
    24ea:	fcc42783          	lw	a5,-52(s0)
    24ee:	c7d8                	sw	a4,12(a5)
D:/projects/mechanical_arm/Firmware/UWB/libraries/sdk/Peripheral/ch32v30x_rcc.c:566
    tmp = RCC->CFGR0 & CFGR0_ADCPRE_Set_Mask;
    24f0:	400217b7          	lui	a5,0x40021
    24f4:	43d8                	lw	a4,4(a5)
    24f6:	67b1                	lui	a5,0xc
    24f8:	8ff9                	and	a5,a5,a4
    24fa:	fef42223          	sw	a5,-28(s0)
D:/projects/mechanical_arm/Firmware/UWB/libraries/sdk/Peripheral/ch32v30x_rcc.c:567
    tmp = tmp >> 14;
    24fe:	fe442783          	lw	a5,-28(s0)
    2502:	83b9                	srli	a5,a5,0xe
    2504:	fef42223          	sw	a5,-28(s0)
D:/projects/mechanical_arm/Firmware/UWB/libraries/sdk/Peripheral/ch32v30x_rcc.c:568
    presc = ADCPrescTable[tmp];
    2508:	200007b7          	lui	a5,0x20000
    250c:	23078713          	addi	a4,a5,560 # 20000230 <ADCPrescTable>
    2510:	fe442783          	lw	a5,-28(s0)
    2514:	97ba                	add	a5,a5,a4
    2516:	0007c783          	lbu	a5,0(a5)
    251a:	0ff7f793          	andi	a5,a5,255
    251e:	fcf42e23          	sw	a5,-36(s0)
D:/projects/mechanical_arm/Firmware/UWB/libraries/sdk/Peripheral/ch32v30x_rcc.c:569
    RCC_Clocks->ADCCLK_Frequency = RCC_Clocks->PCLK2_Frequency / presc;
    2522:	fcc42783          	lw	a5,-52(s0)
    2526:	47d8                	lw	a4,12(a5)
    2528:	fdc42783          	lw	a5,-36(s0)
    252c:	02f75733          	divu	a4,a4,a5
    2530:	fcc42783          	lw	a5,-52(s0)
    2534:	cb98                	sw	a4,16(a5)
D:/projects/mechanical_arm/Firmware/UWB/libraries/sdk/Peripheral/ch32v30x_rcc.c:570
}
    2536:	0001                	nop
    2538:	5472                	lw	s0,60(sp)
    253a:	6121                	addi	sp,sp,64
    253c:	8082                	ret

0000253e <RCC_APB2PeriphClockCmd>:
RCC_APB2PeriphClockCmd():
D:/projects/mechanical_arm/Firmware/UWB/libraries/sdk/Peripheral/ch32v30x_rcc.c:627
*                    RCC_APB2Periph_USART1.
*                  NewState: ENABLE or DISABLE
* Return         : None
*******************************************************************************/	
void RCC_APB2PeriphClockCmd(uint32_t RCC_APB2Periph, FunctionalState NewState)
{
    253e:	1101                	addi	sp,sp,-32
    2540:	ce22                	sw	s0,28(sp)
    2542:	1000                	addi	s0,sp,32
    2544:	fea42623          	sw	a0,-20(s0)
    2548:	feb42423          	sw	a1,-24(s0)
D:/projects/mechanical_arm/Firmware/UWB/libraries/sdk/Peripheral/ch32v30x_rcc.c:628
  if (NewState != DISABLE)
    254c:	fe842783          	lw	a5,-24(s0)
    2550:	cb99                	beqz	a5,2566 <RCC_APB2PeriphClockCmd+0x28>
D:/projects/mechanical_arm/Firmware/UWB/libraries/sdk/Peripheral/ch32v30x_rcc.c:630
  {
    RCC->APB2PCENR |= RCC_APB2Periph;
    2552:	400217b7          	lui	a5,0x40021
    2556:	4f94                	lw	a3,24(a5)
    2558:	400217b7          	lui	a5,0x40021
    255c:	fec42703          	lw	a4,-20(s0)
    2560:	8f55                	or	a4,a4,a3
    2562:	cf98                	sw	a4,24(a5)
D:/projects/mechanical_arm/Firmware/UWB/libraries/sdk/Peripheral/ch32v30x_rcc.c:636
  }
  else
  {
    RCC->APB2PCENR &= ~RCC_APB2Periph;
  }
}
    2564:	a821                	j	257c <RCC_APB2PeriphClockCmd+0x3e>
D:/projects/mechanical_arm/Firmware/UWB/libraries/sdk/Peripheral/ch32v30x_rcc.c:634
    RCC->APB2PCENR &= ~RCC_APB2Periph;
    2566:	400217b7          	lui	a5,0x40021
    256a:	4f94                	lw	a3,24(a5)
    256c:	fec42783          	lw	a5,-20(s0)
    2570:	fff7c713          	not	a4,a5
    2574:	400217b7          	lui	a5,0x40021
    2578:	8f75                	and	a4,a4,a3
    257a:	cf98                	sw	a4,24(a5)
D:/projects/mechanical_arm/Firmware/UWB/libraries/sdk/Peripheral/ch32v30x_rcc.c:636
}
    257c:	0001                	nop
    257e:	4472                	lw	s0,28(sp)
    2580:	6105                	addi	sp,sp,32
    2582:	8082                	ret

00002584 <RCC_APB1PeriphClockCmd>:
RCC_APB1PeriphClockCmd():
D:/projects/mechanical_arm/Firmware/UWB/libraries/sdk/Peripheral/ch32v30x_rcc.c:668
*                    RCC_APB1Periph_DAC.                
*                  NewState: ENABLE or DISABLE.
* Return         : None
*******************************************************************************/	
void RCC_APB1PeriphClockCmd(uint32_t RCC_APB1Periph, FunctionalState NewState)
{
    2584:	1101                	addi	sp,sp,-32
    2586:	ce22                	sw	s0,28(sp)
    2588:	1000                	addi	s0,sp,32
    258a:	fea42623          	sw	a0,-20(s0)
    258e:	feb42423          	sw	a1,-24(s0)
D:/projects/mechanical_arm/Firmware/UWB/libraries/sdk/Peripheral/ch32v30x_rcc.c:669
  if (NewState != DISABLE)
    2592:	fe842783          	lw	a5,-24(s0)
    2596:	cb99                	beqz	a5,25ac <RCC_APB1PeriphClockCmd+0x28>
D:/projects/mechanical_arm/Firmware/UWB/libraries/sdk/Peripheral/ch32v30x_rcc.c:671
  {
    RCC->APB1PCENR |= RCC_APB1Periph;
    2598:	400217b7          	lui	a5,0x40021
    259c:	4fd4                	lw	a3,28(a5)
    259e:	400217b7          	lui	a5,0x40021
    25a2:	fec42703          	lw	a4,-20(s0)
    25a6:	8f55                	or	a4,a4,a3
    25a8:	cfd8                	sw	a4,28(a5)
D:/projects/mechanical_arm/Firmware/UWB/libraries/sdk/Peripheral/ch32v30x_rcc.c:677
  }
  else
  {
    RCC->APB1PCENR &= ~RCC_APB1Periph;
  }
}
    25aa:	a821                	j	25c2 <RCC_APB1PeriphClockCmd+0x3e>
D:/projects/mechanical_arm/Firmware/UWB/libraries/sdk/Peripheral/ch32v30x_rcc.c:675
    RCC->APB1PCENR &= ~RCC_APB1Periph;
    25ac:	400217b7          	lui	a5,0x40021
    25b0:	4fd4                	lw	a3,28(a5)
    25b2:	fec42783          	lw	a5,-20(s0)
    25b6:	fff7c713          	not	a4,a5
    25ba:	400217b7          	lui	a5,0x40021
    25be:	8f75                	and	a4,a4,a3
    25c0:	cfd8                	sw	a4,28(a5)
D:/projects/mechanical_arm/Firmware/UWB/libraries/sdk/Peripheral/ch32v30x_rcc.c:677
}
    25c2:	0001                	nop
    25c4:	4472                	lw	s0,28(sp)
    25c6:	6105                	addi	sp,sp,32
    25c8:	8082                	ret

000025ca <RCC_APB2PeriphResetCmd>:
RCC_APB2PeriphResetCmd():
D:/projects/mechanical_arm/Firmware/UWB/libraries/sdk/Peripheral/ch32v30x_rcc.c:701
*                    RCC_APB2Periph_USART1.                
*                  NewState: ENABLE or DISABLE.
* Return         : None
*******************************************************************************/	
void RCC_APB2PeriphResetCmd(uint32_t RCC_APB2Periph, FunctionalState NewState)
{
    25ca:	1101                	addi	sp,sp,-32
    25cc:	ce22                	sw	s0,28(sp)
    25ce:	1000                	addi	s0,sp,32
    25d0:	fea42623          	sw	a0,-20(s0)
    25d4:	feb42423          	sw	a1,-24(s0)
D:/projects/mechanical_arm/Firmware/UWB/libraries/sdk/Peripheral/ch32v30x_rcc.c:702
  if (NewState != DISABLE)
    25d8:	fe842783          	lw	a5,-24(s0)
    25dc:	cb99                	beqz	a5,25f2 <RCC_APB2PeriphResetCmd+0x28>
D:/projects/mechanical_arm/Firmware/UWB/libraries/sdk/Peripheral/ch32v30x_rcc.c:704
  {
    RCC->APB2PRSTR |= RCC_APB2Periph;
    25de:	400217b7          	lui	a5,0x40021
    25e2:	47d4                	lw	a3,12(a5)
    25e4:	400217b7          	lui	a5,0x40021
    25e8:	fec42703          	lw	a4,-20(s0)
    25ec:	8f55                	or	a4,a4,a3
    25ee:	c7d8                	sw	a4,12(a5)
D:/projects/mechanical_arm/Firmware/UWB/libraries/sdk/Peripheral/ch32v30x_rcc.c:710
  }
  else
  {
    RCC->APB2PRSTR &= ~RCC_APB2Periph;
  }
}
    25f0:	a821                	j	2608 <RCC_APB2PeriphResetCmd+0x3e>
D:/projects/mechanical_arm/Firmware/UWB/libraries/sdk/Peripheral/ch32v30x_rcc.c:708
    RCC->APB2PRSTR &= ~RCC_APB2Periph;
    25f2:	400217b7          	lui	a5,0x40021
    25f6:	47d4                	lw	a3,12(a5)
    25f8:	fec42783          	lw	a5,-20(s0)
    25fc:	fff7c713          	not	a4,a5
    2600:	400217b7          	lui	a5,0x40021
    2604:	8f75                	and	a4,a4,a3
    2606:	c7d8                	sw	a4,12(a5)
D:/projects/mechanical_arm/Firmware/UWB/libraries/sdk/Peripheral/ch32v30x_rcc.c:710
}
    2608:	0001                	nop
    260a:	4472                	lw	s0,28(sp)
    260c:	6105                	addi	sp,sp,32
    260e:	8082                	ret

00002610 <RCC_APB1PeriphResetCmd>:
RCC_APB1PeriphResetCmd():
D:/projects/mechanical_arm/Firmware/UWB/libraries/sdk/Peripheral/ch32v30x_rcc.c:742
*                    RCC_APB1Periph_DAC.
*                  NewState: ENABLE or DISABLE.
* Return         : None
*******************************************************************************/	
void RCC_APB1PeriphResetCmd(uint32_t RCC_APB1Periph, FunctionalState NewState)
{
    2610:	1101                	addi	sp,sp,-32
    2612:	ce22                	sw	s0,28(sp)
    2614:	1000                	addi	s0,sp,32
    2616:	fea42623          	sw	a0,-20(s0)
    261a:	feb42423          	sw	a1,-24(s0)
D:/projects/mechanical_arm/Firmware/UWB/libraries/sdk/Peripheral/ch32v30x_rcc.c:743
  if (NewState != DISABLE)
    261e:	fe842783          	lw	a5,-24(s0)
    2622:	cb99                	beqz	a5,2638 <RCC_APB1PeriphResetCmd+0x28>
D:/projects/mechanical_arm/Firmware/UWB/libraries/sdk/Peripheral/ch32v30x_rcc.c:745
  {
    RCC->APB1PRSTR |= RCC_APB1Periph;
    2624:	400217b7          	lui	a5,0x40021
    2628:	4b94                	lw	a3,16(a5)
    262a:	400217b7          	lui	a5,0x40021
    262e:	fec42703          	lw	a4,-20(s0)
    2632:	8f55                	or	a4,a4,a3
    2634:	cb98                	sw	a4,16(a5)
D:/projects/mechanical_arm/Firmware/UWB/libraries/sdk/Peripheral/ch32v30x_rcc.c:751
  }
  else
  {
    RCC->APB1PRSTR &= ~RCC_APB1Periph;
  }
}
    2636:	a821                	j	264e <RCC_APB1PeriphResetCmd+0x3e>
D:/projects/mechanical_arm/Firmware/UWB/libraries/sdk/Peripheral/ch32v30x_rcc.c:749
    RCC->APB1PRSTR &= ~RCC_APB1Periph;
    2638:	400217b7          	lui	a5,0x40021
    263c:	4b94                	lw	a3,16(a5)
    263e:	fec42783          	lw	a5,-20(s0)
    2642:	fff7c713          	not	a4,a5
    2646:	400217b7          	lui	a5,0x40021
    264a:	8f75                	and	a4,a4,a3
    264c:	cb98                	sw	a4,16(a5)
D:/projects/mechanical_arm/Firmware/UWB/libraries/sdk/Peripheral/ch32v30x_rcc.c:751
}
    264e:	0001                	nop
    2650:	4472                	lw	s0,28(sp)
    2652:	6105                	addi	sp,sp,32
    2654:	8082                	ret

00002656 <SPI_I2S_DeInit>:
SPI_I2S_DeInit():
D:/projects/mechanical_arm/Firmware/UWB/libraries/sdk/Peripheral/ch32v30x_spi.c:52
*      reset values (Affects also the I2Ss).
* Input          : SPIx: where x can be 1, 2 or 3 to select the SPI peripheral.
* Return         : None
*******************************************************************************/
void SPI_I2S_DeInit(SPI_TypeDef* SPIx)
{
    2656:	1101                	addi	sp,sp,-32
    2658:	ce06                	sw	ra,28(sp)
    265a:	cc22                	sw	s0,24(sp)
    265c:	1000                	addi	s0,sp,32
    265e:	fea42623          	sw	a0,-20(s0)
D:/projects/mechanical_arm/Firmware/UWB/libraries/sdk/Peripheral/ch32v30x_spi.c:53
  if (SPIx == SPI1)
    2662:	fec42703          	lw	a4,-20(s0)
    2666:	400137b7          	lui	a5,0x40013
    266a:	00f71963          	bne	a4,a5,267c <SPI_I2S_DeInit+0x26>
D:/projects/mechanical_arm/Firmware/UWB/libraries/sdk/Peripheral/ch32v30x_spi.c:55
  {
    RCC_APB2PeriphResetCmd(RCC_APB2Periph_SPI1, ENABLE);
    266e:	4585                	li	a1,1
    2670:	6505                	lui	a0,0x1
    2672:	3fa1                	jal	25ca <RCC_APB2PeriphResetCmd>
D:/projects/mechanical_arm/Firmware/UWB/libraries/sdk/Peripheral/ch32v30x_spi.c:56
    RCC_APB2PeriphResetCmd(RCC_APB2Periph_SPI1, DISABLE);
    2674:	4581                	li	a1,0
    2676:	6505                	lui	a0,0x1
    2678:	3f89                	jal	25ca <RCC_APB2PeriphResetCmd>
D:/projects/mechanical_arm/Firmware/UWB/libraries/sdk/Peripheral/ch32v30x_spi.c:71
    {
      RCC_APB1PeriphResetCmd(RCC_APB1Periph_SPI3, ENABLE);
      RCC_APB1PeriphResetCmd(RCC_APB1Periph_SPI3, DISABLE);
    }
  }
}
    267a:	a835                	j	26b6 <SPI_I2S_DeInit+0x60>
D:/projects/mechanical_arm/Firmware/UWB/libraries/sdk/Peripheral/ch32v30x_spi.c:58
  else if (SPIx == SPI2)
    267c:	fec42703          	lw	a4,-20(s0)
    2680:	400047b7          	lui	a5,0x40004
    2684:	80078793          	addi	a5,a5,-2048 # 40003800 <_eusrstack+0x1fff3800>
    2688:	00f71963          	bne	a4,a5,269a <SPI_I2S_DeInit+0x44>
D:/projects/mechanical_arm/Firmware/UWB/libraries/sdk/Peripheral/ch32v30x_spi.c:60
    RCC_APB1PeriphResetCmd(RCC_APB1Periph_SPI2, ENABLE);
    268c:	4585                	li	a1,1
    268e:	6511                	lui	a0,0x4
    2690:	3741                	jal	2610 <RCC_APB1PeriphResetCmd>
D:/projects/mechanical_arm/Firmware/UWB/libraries/sdk/Peripheral/ch32v30x_spi.c:61
    RCC_APB1PeriphResetCmd(RCC_APB1Periph_SPI2, DISABLE);
    2692:	4581                	li	a1,0
    2694:	6511                	lui	a0,0x4
    2696:	3fad                	jal	2610 <RCC_APB1PeriphResetCmd>
D:/projects/mechanical_arm/Firmware/UWB/libraries/sdk/Peripheral/ch32v30x_spi.c:71
}
    2698:	a839                	j	26b6 <SPI_I2S_DeInit+0x60>
D:/projects/mechanical_arm/Firmware/UWB/libraries/sdk/Peripheral/ch32v30x_spi.c:65
    if (SPIx == SPI3)
    269a:	fec42703          	lw	a4,-20(s0)
    269e:	400047b7          	lui	a5,0x40004
    26a2:	c0078793          	addi	a5,a5,-1024 # 40003c00 <_eusrstack+0x1fff3c00>
    26a6:	00f71863          	bne	a4,a5,26b6 <SPI_I2S_DeInit+0x60>
D:/projects/mechanical_arm/Firmware/UWB/libraries/sdk/Peripheral/ch32v30x_spi.c:67
      RCC_APB1PeriphResetCmd(RCC_APB1Periph_SPI3, ENABLE);
    26aa:	4585                	li	a1,1
    26ac:	6521                	lui	a0,0x8
    26ae:	378d                	jal	2610 <RCC_APB1PeriphResetCmd>
D:/projects/mechanical_arm/Firmware/UWB/libraries/sdk/Peripheral/ch32v30x_spi.c:68
      RCC_APB1PeriphResetCmd(RCC_APB1Periph_SPI3, DISABLE);
    26b0:	4581                	li	a1,0
    26b2:	6521                	lui	a0,0x8
    26b4:	3fb1                	jal	2610 <RCC_APB1PeriphResetCmd>
D:/projects/mechanical_arm/Firmware/UWB/libraries/sdk/Peripheral/ch32v30x_spi.c:71
}
    26b6:	0001                	nop
    26b8:	40f2                	lw	ra,28(sp)
    26ba:	4462                	lw	s0,24(sp)
    26bc:	6105                	addi	sp,sp,32
    26be:	8082                	ret

000026c0 <SPI_Init>:
SPI_Init():
D:/projects/mechanical_arm/Firmware/UWB/libraries/sdk/Peripheral/ch32v30x_spi.c:83
*                  SPI_InitStruct: pointer to a SPI_InitTypeDef structure that
*      contains the configuration information for the specified SPI peripheral.
* Return         : None
*******************************************************************************/
void SPI_Init(SPI_TypeDef* SPIx, SPI_InitTypeDef* SPI_InitStruct)
{
    26c0:	7179                	addi	sp,sp,-48
    26c2:	d622                	sw	s0,44(sp)
    26c4:	1800                	addi	s0,sp,48
    26c6:	fca42e23          	sw	a0,-36(s0)
    26ca:	fcb42c23          	sw	a1,-40(s0)
D:/projects/mechanical_arm/Firmware/UWB/libraries/sdk/Peripheral/ch32v30x_spi.c:84
  uint16_t tmpreg = 0;
    26ce:	fe041723          	sh	zero,-18(s0)
D:/projects/mechanical_arm/Firmware/UWB/libraries/sdk/Peripheral/ch32v30x_spi.c:86
  
  tmpreg = SPIx->CTLR1;
    26d2:	fdc42783          	lw	a5,-36(s0)
    26d6:	0007d783          	lhu	a5,0(a5)
    26da:	fef41723          	sh	a5,-18(s0)
D:/projects/mechanical_arm/Firmware/UWB/libraries/sdk/Peripheral/ch32v30x_spi.c:87
  tmpreg &= CTLR1_CLEAR_Mask;
    26de:	fee45703          	lhu	a4,-18(s0)
    26e2:	678d                	lui	a5,0x3
    26e4:	04078793          	addi	a5,a5,64 # 3040 <OTG_FS_IRQHandler+0x130>
    26e8:	8ff9                	and	a5,a5,a4
    26ea:	fef41723          	sh	a5,-18(s0)
D:/projects/mechanical_arm/Firmware/UWB/libraries/sdk/Peripheral/ch32v30x_spi.c:88
  tmpreg |= (uint16_t)((uint32_t)SPI_InitStruct->SPI_Direction | SPI_InitStruct->SPI_Mode |
    26ee:	fd842783          	lw	a5,-40(s0)
    26f2:	0007d703          	lhu	a4,0(a5)
    26f6:	fd842783          	lw	a5,-40(s0)
    26fa:	0027d783          	lhu	a5,2(a5)
    26fe:	8fd9                	or	a5,a5,a4
    2700:	01079713          	slli	a4,a5,0x10
    2704:	8341                	srli	a4,a4,0x10
D:/projects/mechanical_arm/Firmware/UWB/libraries/sdk/Peripheral/ch32v30x_spi.c:89
                  SPI_InitStruct->SPI_DataSize | SPI_InitStruct->SPI_CPOL |  
    2706:	fd842783          	lw	a5,-40(s0)
    270a:	0047d783          	lhu	a5,4(a5)
D:/projects/mechanical_arm/Firmware/UWB/libraries/sdk/Peripheral/ch32v30x_spi.c:88
  tmpreg |= (uint16_t)((uint32_t)SPI_InitStruct->SPI_Direction | SPI_InitStruct->SPI_Mode |
    270e:	8fd9                	or	a5,a5,a4
    2710:	01079713          	slli	a4,a5,0x10
    2714:	8341                	srli	a4,a4,0x10
D:/projects/mechanical_arm/Firmware/UWB/libraries/sdk/Peripheral/ch32v30x_spi.c:89
                  SPI_InitStruct->SPI_DataSize | SPI_InitStruct->SPI_CPOL |  
    2716:	fd842783          	lw	a5,-40(s0)
    271a:	0067d783          	lhu	a5,6(a5)
D:/projects/mechanical_arm/Firmware/UWB/libraries/sdk/Peripheral/ch32v30x_spi.c:88
  tmpreg |= (uint16_t)((uint32_t)SPI_InitStruct->SPI_Direction | SPI_InitStruct->SPI_Mode |
    271e:	8fd9                	or	a5,a5,a4
    2720:	01079713          	slli	a4,a5,0x10
    2724:	8341                	srli	a4,a4,0x10
D:/projects/mechanical_arm/Firmware/UWB/libraries/sdk/Peripheral/ch32v30x_spi.c:90
                  SPI_InitStruct->SPI_CPHA | SPI_InitStruct->SPI_NSS |  
    2726:	fd842783          	lw	a5,-40(s0)
    272a:	0087d783          	lhu	a5,8(a5)
D:/projects/mechanical_arm/Firmware/UWB/libraries/sdk/Peripheral/ch32v30x_spi.c:88
  tmpreg |= (uint16_t)((uint32_t)SPI_InitStruct->SPI_Direction | SPI_InitStruct->SPI_Mode |
    272e:	8fd9                	or	a5,a5,a4
    2730:	01079713          	slli	a4,a5,0x10
    2734:	8341                	srli	a4,a4,0x10
D:/projects/mechanical_arm/Firmware/UWB/libraries/sdk/Peripheral/ch32v30x_spi.c:90
                  SPI_InitStruct->SPI_CPHA | SPI_InitStruct->SPI_NSS |  
    2736:	fd842783          	lw	a5,-40(s0)
    273a:	00a7d783          	lhu	a5,10(a5)
D:/projects/mechanical_arm/Firmware/UWB/libraries/sdk/Peripheral/ch32v30x_spi.c:88
  tmpreg |= (uint16_t)((uint32_t)SPI_InitStruct->SPI_Direction | SPI_InitStruct->SPI_Mode |
    273e:	8fd9                	or	a5,a5,a4
    2740:	01079713          	slli	a4,a5,0x10
    2744:	8341                	srli	a4,a4,0x10
D:/projects/mechanical_arm/Firmware/UWB/libraries/sdk/Peripheral/ch32v30x_spi.c:91
                  SPI_InitStruct->SPI_BaudRatePrescaler | SPI_InitStruct->SPI_FirstBit);
    2746:	fd842783          	lw	a5,-40(s0)
    274a:	00c7d783          	lhu	a5,12(a5)
D:/projects/mechanical_arm/Firmware/UWB/libraries/sdk/Peripheral/ch32v30x_spi.c:88
  tmpreg |= (uint16_t)((uint32_t)SPI_InitStruct->SPI_Direction | SPI_InitStruct->SPI_Mode |
    274e:	8fd9                	or	a5,a5,a4
    2750:	01079713          	slli	a4,a5,0x10
    2754:	8341                	srli	a4,a4,0x10
D:/projects/mechanical_arm/Firmware/UWB/libraries/sdk/Peripheral/ch32v30x_spi.c:91
                  SPI_InitStruct->SPI_BaudRatePrescaler | SPI_InitStruct->SPI_FirstBit);
    2756:	fd842783          	lw	a5,-40(s0)
    275a:	00e7d783          	lhu	a5,14(a5)
D:/projects/mechanical_arm/Firmware/UWB/libraries/sdk/Peripheral/ch32v30x_spi.c:88
  tmpreg |= (uint16_t)((uint32_t)SPI_InitStruct->SPI_Direction | SPI_InitStruct->SPI_Mode |
    275e:	8fd9                	or	a5,a5,a4
    2760:	01079713          	slli	a4,a5,0x10
    2764:	8341                	srli	a4,a4,0x10
    2766:	fee45783          	lhu	a5,-18(s0)
    276a:	8fd9                	or	a5,a5,a4
    276c:	fef41723          	sh	a5,-18(s0)
D:/projects/mechanical_arm/Firmware/UWB/libraries/sdk/Peripheral/ch32v30x_spi.c:93

  SPIx->CTLR1 = tmpreg;
    2770:	fdc42783          	lw	a5,-36(s0)
    2774:	fee45703          	lhu	a4,-18(s0)
    2778:	00e79023          	sh	a4,0(a5)
D:/projects/mechanical_arm/Firmware/UWB/libraries/sdk/Peripheral/ch32v30x_spi.c:94
  SPIx->I2SCFGR &= SPI_Mode_Select;		
    277c:	fdc42783          	lw	a5,-36(s0)
    2780:	01c7d783          	lhu	a5,28(a5)
    2784:	01079713          	slli	a4,a5,0x10
    2788:	8341                	srli	a4,a4,0x10
    278a:	77fd                	lui	a5,0xfffff
    278c:	7ff78793          	addi	a5,a5,2047 # fffff7ff <_eusrstack+0xdffef7ff>
    2790:	8ff9                	and	a5,a5,a4
    2792:	01079713          	slli	a4,a5,0x10
    2796:	8341                	srli	a4,a4,0x10
    2798:	fdc42783          	lw	a5,-36(s0)
    279c:	00e79e23          	sh	a4,28(a5)
D:/projects/mechanical_arm/Firmware/UWB/libraries/sdk/Peripheral/ch32v30x_spi.c:95
  SPIx->CRCR = SPI_InitStruct->SPI_CRCPolynomial;
    27a0:	fd842783          	lw	a5,-40(s0)
    27a4:	0107d703          	lhu	a4,16(a5)
    27a8:	fdc42783          	lw	a5,-36(s0)
    27ac:	00e79823          	sh	a4,16(a5)
D:/projects/mechanical_arm/Firmware/UWB/libraries/sdk/Peripheral/ch32v30x_spi.c:96
}
    27b0:	0001                	nop
    27b2:	5432                	lw	s0,44(sp)
    27b4:	6145                	addi	sp,sp,48
    27b6:	8082                	ret

000027b8 <SPI_Cmd>:
SPI_Cmd():
D:/projects/mechanical_arm/Firmware/UWB/libraries/sdk/Peripheral/ch32v30x_spi.c:221
* Input          : SPIx: where x can be 1, 2 or 3 to select the SPI peripheral.
*                  NewState: ENABLE or DISABLE.
* Return         : None
*******************************************************************************/
void SPI_Cmd(SPI_TypeDef* SPIx, FunctionalState NewState)
{
    27b8:	1101                	addi	sp,sp,-32
    27ba:	ce22                	sw	s0,28(sp)
    27bc:	1000                	addi	s0,sp,32
    27be:	fea42623          	sw	a0,-20(s0)
    27c2:	feb42423          	sw	a1,-24(s0)
D:/projects/mechanical_arm/Firmware/UWB/libraries/sdk/Peripheral/ch32v30x_spi.c:222
  if (NewState != DISABLE)
    27c6:	fe842783          	lw	a5,-24(s0)
    27ca:	c38d                	beqz	a5,27ec <SPI_Cmd+0x34>
D:/projects/mechanical_arm/Firmware/UWB/libraries/sdk/Peripheral/ch32v30x_spi.c:224
  {
    SPIx->CTLR1 |= CTLR1_SPE_Set;
    27cc:	fec42783          	lw	a5,-20(s0)
    27d0:	0007d783          	lhu	a5,0(a5)
    27d4:	07c2                	slli	a5,a5,0x10
    27d6:	83c1                	srli	a5,a5,0x10
    27d8:	0407e793          	ori	a5,a5,64
    27dc:	01079713          	slli	a4,a5,0x10
    27e0:	8341                	srli	a4,a4,0x10
    27e2:	fec42783          	lw	a5,-20(s0)
    27e6:	00e79023          	sh	a4,0(a5)
D:/projects/mechanical_arm/Firmware/UWB/libraries/sdk/Peripheral/ch32v30x_spi.c:230
  }
  else
  {
    SPIx->CTLR1 &= CTLR1_SPE_Reset;
  }
}
    27ea:	a005                	j	280a <SPI_Cmd+0x52>
D:/projects/mechanical_arm/Firmware/UWB/libraries/sdk/Peripheral/ch32v30x_spi.c:228
    SPIx->CTLR1 &= CTLR1_SPE_Reset;
    27ec:	fec42783          	lw	a5,-20(s0)
    27f0:	0007d783          	lhu	a5,0(a5)
    27f4:	07c2                	slli	a5,a5,0x10
    27f6:	83c1                	srli	a5,a5,0x10
    27f8:	fbf7f793          	andi	a5,a5,-65
    27fc:	01079713          	slli	a4,a5,0x10
    2800:	8341                	srli	a4,a4,0x10
    2802:	fec42783          	lw	a5,-20(s0)
    2806:	00e79023          	sh	a4,0(a5)
D:/projects/mechanical_arm/Firmware/UWB/libraries/sdk/Peripheral/ch32v30x_spi.c:230
}
    280a:	0001                	nop
    280c:	4472                	lw	s0,28(sp)
    280e:	6105                	addi	sp,sp,32
    2810:	8082                	ret

00002812 <TIM_GetITStatus>:
TIM_GetITStatus():
D:/projects/mechanical_arm/Firmware/UWB/libraries/sdk/Peripheral/ch32v30x_tim.c:1887
*                    TIM_IT_Trigger: TIM Trigger Interrupt source.
*                    TIM_IT_Break: TIM Break Interrupt source.
* Return         : bitstatus: SET or RESET.
*******************************************************************************/
ITStatus TIM_GetITStatus(TIM_TypeDef* TIMx, uint16_t TIM_IT)
{
    2812:	7179                	addi	sp,sp,-48
    2814:	d622                	sw	s0,44(sp)
    2816:	1800                	addi	s0,sp,48
    2818:	fca42e23          	sw	a0,-36(s0)
    281c:	87ae                	mv	a5,a1
    281e:	fcf41d23          	sh	a5,-38(s0)
D:/projects/mechanical_arm/Firmware/UWB/libraries/sdk/Peripheral/ch32v30x_tim.c:1888
  ITStatus bitstatus = RESET;  
    2822:	fe042623          	sw	zero,-20(s0)
D:/projects/mechanical_arm/Firmware/UWB/libraries/sdk/Peripheral/ch32v30x_tim.c:1889
  uint16_t itstatus = 0x0, itenable = 0x0;
    2826:	fe041523          	sh	zero,-22(s0)
    282a:	fe041423          	sh	zero,-24(s0)
D:/projects/mechanical_arm/Firmware/UWB/libraries/sdk/Peripheral/ch32v30x_tim.c:1891
   
  itstatus = TIMx->INTFR & TIM_IT;
    282e:	fdc42783          	lw	a5,-36(s0)
    2832:	0107d783          	lhu	a5,16(a5)
    2836:	01079713          	slli	a4,a5,0x10
    283a:	8341                	srli	a4,a4,0x10
    283c:	fda45783          	lhu	a5,-38(s0)
    2840:	8ff9                	and	a5,a5,a4
    2842:	fef41523          	sh	a5,-22(s0)
D:/projects/mechanical_arm/Firmware/UWB/libraries/sdk/Peripheral/ch32v30x_tim.c:1893
  
  itenable = TIMx->DMAINTENR & TIM_IT;
    2846:	fdc42783          	lw	a5,-36(s0)
    284a:	00c7d783          	lhu	a5,12(a5)
    284e:	01079713          	slli	a4,a5,0x10
    2852:	8341                	srli	a4,a4,0x10
    2854:	fda45783          	lhu	a5,-38(s0)
    2858:	8ff9                	and	a5,a5,a4
    285a:	fef41423          	sh	a5,-24(s0)
D:/projects/mechanical_arm/Firmware/UWB/libraries/sdk/Peripheral/ch32v30x_tim.c:1894
  if ((itstatus != (uint16_t)RESET) && (itenable != (uint16_t)RESET))
    285e:	fea45783          	lhu	a5,-22(s0)
    2862:	cb81                	beqz	a5,2872 <TIM_GetITStatus+0x60>
D:/projects/mechanical_arm/Firmware/UWB/libraries/sdk/Peripheral/ch32v30x_tim.c:1894 (discriminator 1)
    2864:	fe845783          	lhu	a5,-24(s0)
    2868:	c789                	beqz	a5,2872 <TIM_GetITStatus+0x60>
D:/projects/mechanical_arm/Firmware/UWB/libraries/sdk/Peripheral/ch32v30x_tim.c:1896
  {
    bitstatus = SET;
    286a:	4785                	li	a5,1
    286c:	fef42623          	sw	a5,-20(s0)
    2870:	a019                	j	2876 <TIM_GetITStatus+0x64>
D:/projects/mechanical_arm/Firmware/UWB/libraries/sdk/Peripheral/ch32v30x_tim.c:1900
  }
  else
  {
    bitstatus = RESET;
    2872:	fe042623          	sw	zero,-20(s0)
D:/projects/mechanical_arm/Firmware/UWB/libraries/sdk/Peripheral/ch32v30x_tim.c:1903
  }
	
  return bitstatus;
    2876:	fec42783          	lw	a5,-20(s0)
D:/projects/mechanical_arm/Firmware/UWB/libraries/sdk/Peripheral/ch32v30x_tim.c:1904
}
    287a:	853e                	mv	a0,a5
    287c:	5432                	lw	s0,44(sp)
    287e:	6145                	addi	sp,sp,48
    2880:	8082                	ret

00002882 <TIM_ClearITPendingBit>:
TIM_ClearITPendingBit():
D:/projects/mechanical_arm/Firmware/UWB/libraries/sdk/Peripheral/ch32v30x_tim.c:1922
*                    TIM_IT_Trigger: TIM Trigger Interrupt source.
*                    TIM_IT_Break: TIM Break Interrupt source.
* Return         : None
*******************************************************************************/
void TIM_ClearITPendingBit(TIM_TypeDef* TIMx, uint16_t TIM_IT)
{
    2882:	1101                	addi	sp,sp,-32
    2884:	ce22                	sw	s0,28(sp)
    2886:	1000                	addi	s0,sp,32
    2888:	fea42623          	sw	a0,-20(s0)
    288c:	87ae                	mv	a5,a1
    288e:	fef41523          	sh	a5,-22(s0)
D:/projects/mechanical_arm/Firmware/UWB/libraries/sdk/Peripheral/ch32v30x_tim.c:1923
  TIMx->INTFR = (uint16_t)~TIM_IT;
    2892:	fea45783          	lhu	a5,-22(s0)
    2896:	fff7c793          	not	a5,a5
    289a:	01079713          	slli	a4,a5,0x10
    289e:	8341                	srli	a4,a4,0x10
    28a0:	fec42783          	lw	a5,-20(s0)
    28a4:	00e79823          	sh	a4,16(a5)
D:/projects/mechanical_arm/Firmware/UWB/libraries/sdk/Peripheral/ch32v30x_tim.c:1924
}
    28a8:	0001                	nop
    28aa:	4472                	lw	s0,28(sp)
    28ac:	6105                	addi	sp,sp,32
    28ae:	8082                	ret

000028b0 <USART_Init>:
USART_Init():
D:/projects/mechanical_arm/Firmware/UWB/libraries/sdk/Peripheral/ch32v30x_usart.c:105
*                  USART_InitStruct: pointer to a USART_InitTypeDef structure
*      that contains the configuration information for the specified USART peripheral. 
* Return         : None
*******************************************************************************/
void USART_Init(USART_TypeDef* USARTx, USART_InitTypeDef* USART_InitStruct)
{
    28b0:	715d                	addi	sp,sp,-80
    28b2:	c686                	sw	ra,76(sp)
    28b4:	c4a2                	sw	s0,72(sp)
    28b6:	0880                	addi	s0,sp,80
    28b8:	faa42e23          	sw	a0,-68(s0)
    28bc:	fab42c23          	sw	a1,-72(s0)
D:/projects/mechanical_arm/Firmware/UWB/libraries/sdk/Peripheral/ch32v30x_usart.c:106
  uint32_t tmpreg = 0x00, apbclock = 0x00;
    28c0:	fe042623          	sw	zero,-20(s0)
    28c4:	fe042423          	sw	zero,-24(s0)
D:/projects/mechanical_arm/Firmware/UWB/libraries/sdk/Peripheral/ch32v30x_usart.c:107
  uint32_t integerdivider = 0x00;
    28c8:	fe042223          	sw	zero,-28(s0)
D:/projects/mechanical_arm/Firmware/UWB/libraries/sdk/Peripheral/ch32v30x_usart.c:108
  uint32_t fractionaldivider = 0x00;
    28cc:	fe042023          	sw	zero,-32(s0)
D:/projects/mechanical_arm/Firmware/UWB/libraries/sdk/Peripheral/ch32v30x_usart.c:109
  uint32_t usartxbase = 0;
    28d0:	fc042e23          	sw	zero,-36(s0)
D:/projects/mechanical_arm/Firmware/UWB/libraries/sdk/Peripheral/ch32v30x_usart.c:116

  if (USART_InitStruct->USART_HardwareFlowControl != USART_HardwareFlowControl_None)
  {
  }

  usartxbase = (uint32_t)USARTx;
    28d4:	fbc42783          	lw	a5,-68(s0)
    28d8:	fcf42e23          	sw	a5,-36(s0)
D:/projects/mechanical_arm/Firmware/UWB/libraries/sdk/Peripheral/ch32v30x_usart.c:117
  tmpreg = USARTx->CTLR2;
    28dc:	fbc42783          	lw	a5,-68(s0)
    28e0:	0107d783          	lhu	a5,16(a5)
    28e4:	07c2                	slli	a5,a5,0x10
    28e6:	83c1                	srli	a5,a5,0x10
    28e8:	fef42623          	sw	a5,-20(s0)
D:/projects/mechanical_arm/Firmware/UWB/libraries/sdk/Peripheral/ch32v30x_usart.c:118
  tmpreg &= CTLR2_STOP_CLEAR_Mask;
    28ec:	fec42703          	lw	a4,-20(s0)
    28f0:	67b5                	lui	a5,0xd
    28f2:	17fd                	addi	a5,a5,-1
    28f4:	8ff9                	and	a5,a5,a4
    28f6:	fef42623          	sw	a5,-20(s0)
D:/projects/mechanical_arm/Firmware/UWB/libraries/sdk/Peripheral/ch32v30x_usart.c:119
  tmpreg |= (uint32_t)USART_InitStruct->USART_StopBits;  
    28fa:	fb842783          	lw	a5,-72(s0)
    28fe:	0067d783          	lhu	a5,6(a5) # d006 <_data_lma+0x2be2>
    2902:	873e                	mv	a4,a5
    2904:	fec42783          	lw	a5,-20(s0)
    2908:	8fd9                	or	a5,a5,a4
    290a:	fef42623          	sw	a5,-20(s0)
D:/projects/mechanical_arm/Firmware/UWB/libraries/sdk/Peripheral/ch32v30x_usart.c:121
	
  USARTx->CTLR2 = (uint16_t)tmpreg;
    290e:	fec42783          	lw	a5,-20(s0)
    2912:	01079713          	slli	a4,a5,0x10
    2916:	8341                	srli	a4,a4,0x10
    2918:	fbc42783          	lw	a5,-68(s0)
    291c:	00e79823          	sh	a4,16(a5)
D:/projects/mechanical_arm/Firmware/UWB/libraries/sdk/Peripheral/ch32v30x_usart.c:122
  tmpreg = USARTx->CTLR1;
    2920:	fbc42783          	lw	a5,-68(s0)
    2924:	00c7d783          	lhu	a5,12(a5)
    2928:	07c2                	slli	a5,a5,0x10
    292a:	83c1                	srli	a5,a5,0x10
    292c:	fef42623          	sw	a5,-20(s0)
D:/projects/mechanical_arm/Firmware/UWB/libraries/sdk/Peripheral/ch32v30x_usart.c:123
  tmpreg &= CTLR1_CLEAR_Mask;
    2930:	fec42703          	lw	a4,-20(s0)
    2934:	67bd                	lui	a5,0xf
    2936:	9f378793          	addi	a5,a5,-1549 # e9f3 <_data_lma+0x45cf>
    293a:	8ff9                	and	a5,a5,a4
    293c:	fef42623          	sw	a5,-20(s0)
D:/projects/mechanical_arm/Firmware/UWB/libraries/sdk/Peripheral/ch32v30x_usart.c:124
  tmpreg |= (uint32_t)USART_InitStruct->USART_WordLength | USART_InitStruct->USART_Parity |
    2940:	fb842783          	lw	a5,-72(s0)
    2944:	0047d703          	lhu	a4,4(a5)
    2948:	fb842783          	lw	a5,-72(s0)
    294c:	0087d783          	lhu	a5,8(a5)
    2950:	8fd9                	or	a5,a5,a4
    2952:	01079713          	slli	a4,a5,0x10
    2956:	8341                	srli	a4,a4,0x10
D:/projects/mechanical_arm/Firmware/UWB/libraries/sdk/Peripheral/ch32v30x_usart.c:125
            USART_InitStruct->USART_Mode;
    2958:	fb842783          	lw	a5,-72(s0)
    295c:	00a7d783          	lhu	a5,10(a5)
D:/projects/mechanical_arm/Firmware/UWB/libraries/sdk/Peripheral/ch32v30x_usart.c:124
  tmpreg |= (uint32_t)USART_InitStruct->USART_WordLength | USART_InitStruct->USART_Parity |
    2960:	8fd9                	or	a5,a5,a4
    2962:	07c2                	slli	a5,a5,0x10
    2964:	83c1                	srli	a5,a5,0x10
    2966:	873e                	mv	a4,a5
    2968:	fec42783          	lw	a5,-20(s0)
    296c:	8fd9                	or	a5,a5,a4
    296e:	fef42623          	sw	a5,-20(s0)
D:/projects/mechanical_arm/Firmware/UWB/libraries/sdk/Peripheral/ch32v30x_usart.c:126
  USARTx->CTLR1 = (uint16_t)tmpreg;
    2972:	fec42783          	lw	a5,-20(s0)
    2976:	01079713          	slli	a4,a5,0x10
    297a:	8341                	srli	a4,a4,0x10
    297c:	fbc42783          	lw	a5,-68(s0)
    2980:	00e79623          	sh	a4,12(a5)
D:/projects/mechanical_arm/Firmware/UWB/libraries/sdk/Peripheral/ch32v30x_usart.c:128
 
  tmpreg = USARTx->CTLR3;
    2984:	fbc42783          	lw	a5,-68(s0)
    2988:	0147d783          	lhu	a5,20(a5)
    298c:	07c2                	slli	a5,a5,0x10
    298e:	83c1                	srli	a5,a5,0x10
    2990:	fef42623          	sw	a5,-20(s0)
D:/projects/mechanical_arm/Firmware/UWB/libraries/sdk/Peripheral/ch32v30x_usart.c:129
  tmpreg &= CTLR3_CLEAR_Mask;
    2994:	fec42703          	lw	a4,-20(s0)
    2998:	67c1                	lui	a5,0x10
    299a:	cff78793          	addi	a5,a5,-769 # fcff <_data_lma+0x58db>
    299e:	8ff9                	and	a5,a5,a4
    29a0:	fef42623          	sw	a5,-20(s0)
D:/projects/mechanical_arm/Firmware/UWB/libraries/sdk/Peripheral/ch32v30x_usart.c:130
  tmpreg |= USART_InitStruct->USART_HardwareFlowControl;
    29a4:	fb842783          	lw	a5,-72(s0)
    29a8:	00c7d783          	lhu	a5,12(a5)
    29ac:	873e                	mv	a4,a5
    29ae:	fec42783          	lw	a5,-20(s0)
    29b2:	8fd9                	or	a5,a5,a4
    29b4:	fef42623          	sw	a5,-20(s0)
D:/projects/mechanical_arm/Firmware/UWB/libraries/sdk/Peripheral/ch32v30x_usart.c:131
  USARTx->CTLR3 = (uint16_t)tmpreg;
    29b8:	fec42783          	lw	a5,-20(s0)
    29bc:	01079713          	slli	a4,a5,0x10
    29c0:	8341                	srli	a4,a4,0x10
    29c2:	fbc42783          	lw	a5,-68(s0)
    29c6:	00e79a23          	sh	a4,20(a5)
D:/projects/mechanical_arm/Firmware/UWB/libraries/sdk/Peripheral/ch32v30x_usart.c:133

  RCC_GetClocksFreq(&RCC_ClocksStatus);
    29ca:	fc840793          	addi	a5,s0,-56
    29ce:	853e                	mv	a0,a5
    29d0:	8a5ff0ef          	jal	ra,2274 <RCC_GetClocksFreq>
D:/projects/mechanical_arm/Firmware/UWB/libraries/sdk/Peripheral/ch32v30x_usart.c:135
	
  if (usartxbase == USART1_BASE)
    29d4:	fdc42703          	lw	a4,-36(s0)
    29d8:	400147b7          	lui	a5,0x40014
    29dc:	80078793          	addi	a5,a5,-2048 # 40013800 <_eusrstack+0x20003800>
    29e0:	00f71763          	bne	a4,a5,29ee <USART_Init+0x13e>
D:/projects/mechanical_arm/Firmware/UWB/libraries/sdk/Peripheral/ch32v30x_usart.c:137
  {
    apbclock = RCC_ClocksStatus.PCLK2_Frequency;
    29e4:	fd442783          	lw	a5,-44(s0)
    29e8:	fef42423          	sw	a5,-24(s0)
    29ec:	a029                	j	29f6 <USART_Init+0x146>
D:/projects/mechanical_arm/Firmware/UWB/libraries/sdk/Peripheral/ch32v30x_usart.c:141
  }
  else
  {
    apbclock = RCC_ClocksStatus.PCLK1_Frequency;
    29ee:	fd042783          	lw	a5,-48(s0)
    29f2:	fef42423          	sw	a5,-24(s0)
D:/projects/mechanical_arm/Firmware/UWB/libraries/sdk/Peripheral/ch32v30x_usart.c:144
  }
  
  if ((USARTx->CTLR1 & CTLR1_OVER8_Set) != 0)
    29f6:	fbc42783          	lw	a5,-68(s0)
    29fa:	00c7d783          	lhu	a5,12(a5)
    29fe:	07c2                	slli	a5,a5,0x10
    2a00:	83c1                	srli	a5,a5,0x10
    2a02:	07c2                	slli	a5,a5,0x10
    2a04:	87c1                	srai	a5,a5,0x10
    2a06:	0207d263          	bgez	a5,2a2a <USART_Init+0x17a>
D:/projects/mechanical_arm/Firmware/UWB/libraries/sdk/Peripheral/ch32v30x_usart.c:146
  {
    integerdivider = ((25 * apbclock) / (2 * (USART_InitStruct->USART_BaudRate)));    
    2a0a:	fe842703          	lw	a4,-24(s0)
    2a0e:	87ba                	mv	a5,a4
    2a10:	0786                	slli	a5,a5,0x1
    2a12:	97ba                	add	a5,a5,a4
    2a14:	078e                	slli	a5,a5,0x3
    2a16:	973e                	add	a4,a4,a5
    2a18:	fb842783          	lw	a5,-72(s0)
    2a1c:	439c                	lw	a5,0(a5)
    2a1e:	0786                	slli	a5,a5,0x1
    2a20:	02f757b3          	divu	a5,a4,a5
    2a24:	fef42223          	sw	a5,-28(s0)
    2a28:	a005                	j	2a48 <USART_Init+0x198>
D:/projects/mechanical_arm/Firmware/UWB/libraries/sdk/Peripheral/ch32v30x_usart.c:150
  }
  else 
  {
    integerdivider = ((25 * apbclock) / (4 * (USART_InitStruct->USART_BaudRate)));    
    2a2a:	fe842703          	lw	a4,-24(s0)
    2a2e:	87ba                	mv	a5,a4
    2a30:	0786                	slli	a5,a5,0x1
    2a32:	97ba                	add	a5,a5,a4
    2a34:	078e                	slli	a5,a5,0x3
    2a36:	973e                	add	a4,a4,a5
    2a38:	fb842783          	lw	a5,-72(s0)
    2a3c:	439c                	lw	a5,0(a5)
    2a3e:	078a                	slli	a5,a5,0x2
    2a40:	02f757b3          	divu	a5,a4,a5
    2a44:	fef42223          	sw	a5,-28(s0)
D:/projects/mechanical_arm/Firmware/UWB/libraries/sdk/Peripheral/ch32v30x_usart.c:152
  }
  tmpreg = (integerdivider / 100) << 4;
    2a48:	fe442703          	lw	a4,-28(s0)
    2a4c:	06400793          	li	a5,100
    2a50:	02f757b3          	divu	a5,a4,a5
    2a54:	0792                	slli	a5,a5,0x4
    2a56:	fef42623          	sw	a5,-20(s0)
D:/projects/mechanical_arm/Firmware/UWB/libraries/sdk/Peripheral/ch32v30x_usart.c:154

  fractionaldivider = integerdivider - (100 * (tmpreg >> 4));
    2a5a:	fec42783          	lw	a5,-20(s0)
    2a5e:	0047d713          	srli	a4,a5,0x4
    2a62:	06400793          	li	a5,100
    2a66:	02f707b3          	mul	a5,a4,a5
    2a6a:	fe442703          	lw	a4,-28(s0)
    2a6e:	40f707b3          	sub	a5,a4,a5
    2a72:	fef42023          	sw	a5,-32(s0)
D:/projects/mechanical_arm/Firmware/UWB/libraries/sdk/Peripheral/ch32v30x_usart.c:156

  if ((USARTx->CTLR1 & CTLR1_OVER8_Set) != 0)
    2a76:	fbc42783          	lw	a5,-68(s0)
    2a7a:	00c7d783          	lhu	a5,12(a5)
    2a7e:	07c2                	slli	a5,a5,0x10
    2a80:	83c1                	srli	a5,a5,0x10
    2a82:	07c2                	slli	a5,a5,0x10
    2a84:	87c1                	srai	a5,a5,0x10
    2a86:	0207d263          	bgez	a5,2aaa <USART_Init+0x1fa>
D:/projects/mechanical_arm/Firmware/UWB/libraries/sdk/Peripheral/ch32v30x_usart.c:158
  {
    tmpreg |= ((((fractionaldivider * 8) + 50) / 100)) & ((uint8_t)0x07);
    2a8a:	fe042783          	lw	a5,-32(s0)
    2a8e:	078e                	slli	a5,a5,0x3
    2a90:	03278713          	addi	a4,a5,50
    2a94:	06400793          	li	a5,100
    2a98:	02f757b3          	divu	a5,a4,a5
    2a9c:	8b9d                	andi	a5,a5,7
    2a9e:	fec42703          	lw	a4,-20(s0)
    2aa2:	8fd9                	or	a5,a5,a4
    2aa4:	fef42623          	sw	a5,-20(s0)
    2aa8:	a005                	j	2ac8 <USART_Init+0x218>
D:/projects/mechanical_arm/Firmware/UWB/libraries/sdk/Peripheral/ch32v30x_usart.c:162
  }
  else 
  {
    tmpreg |= ((((fractionaldivider * 16) + 50) / 100)) & ((uint8_t)0x0F);
    2aaa:	fe042783          	lw	a5,-32(s0)
    2aae:	0792                	slli	a5,a5,0x4
    2ab0:	03278713          	addi	a4,a5,50
    2ab4:	06400793          	li	a5,100
    2ab8:	02f757b3          	divu	a5,a4,a5
    2abc:	8bbd                	andi	a5,a5,15
    2abe:	fec42703          	lw	a4,-20(s0)
    2ac2:	8fd9                	or	a5,a5,a4
    2ac4:	fef42623          	sw	a5,-20(s0)
D:/projects/mechanical_arm/Firmware/UWB/libraries/sdk/Peripheral/ch32v30x_usart.c:165
  }
  
  USARTx->BRR = (uint16_t)tmpreg;
    2ac8:	fec42783          	lw	a5,-20(s0)
    2acc:	01079713          	slli	a4,a5,0x10
    2ad0:	8341                	srli	a4,a4,0x10
    2ad2:	fbc42783          	lw	a5,-68(s0)
    2ad6:	00e79423          	sh	a4,8(a5)
D:/projects/mechanical_arm/Firmware/UWB/libraries/sdk/Peripheral/ch32v30x_usart.c:166
}
    2ada:	0001                	nop
    2adc:	40b6                	lw	ra,76(sp)
    2ade:	4426                	lw	s0,72(sp)
    2ae0:	6161                	addi	sp,sp,80
    2ae2:	8082                	ret

00002ae4 <USART_Cmd>:
USART_Cmd():
D:/projects/mechanical_arm/Firmware/UWB/libraries/sdk/Peripheral/ch32v30x_usart.c:229
* Input          : USARTx: where x can be 1, 2, 3 to select the USART peripheral.
*                  NewState: ENABLE or DISABLE.
* Return         : None
*******************************************************************************/
void USART_Cmd(USART_TypeDef* USARTx, FunctionalState NewState)
{
    2ae4:	1101                	addi	sp,sp,-32
    2ae6:	ce22                	sw	s0,28(sp)
    2ae8:	1000                	addi	s0,sp,32
    2aea:	fea42623          	sw	a0,-20(s0)
    2aee:	feb42423          	sw	a1,-24(s0)
D:/projects/mechanical_arm/Firmware/UWB/libraries/sdk/Peripheral/ch32v30x_usart.c:230
  if (NewState != DISABLE)
    2af2:	fe842783          	lw	a5,-24(s0)
    2af6:	c395                	beqz	a5,2b1a <USART_Cmd+0x36>
D:/projects/mechanical_arm/Firmware/UWB/libraries/sdk/Peripheral/ch32v30x_usart.c:232
  {
    USARTx->CTLR1 |= CTLR1_UE_Set;
    2af8:	fec42783          	lw	a5,-20(s0)
    2afc:	00c7d783          	lhu	a5,12(a5)
    2b00:	01079713          	slli	a4,a5,0x10
    2b04:	8341                	srli	a4,a4,0x10
    2b06:	6789                	lui	a5,0x2
    2b08:	8fd9                	or	a5,a5,a4
    2b0a:	01079713          	slli	a4,a5,0x10
    2b0e:	8341                	srli	a4,a4,0x10
    2b10:	fec42783          	lw	a5,-20(s0)
    2b14:	00e79623          	sh	a4,12(a5) # 200c <GPIO_Init+0x1b4>
D:/projects/mechanical_arm/Firmware/UWB/libraries/sdk/Peripheral/ch32v30x_usart.c:238
  }
  else
  {
    USARTx->CTLR1 &= CTLR1_UE_Reset;
  }
}
    2b18:	a015                	j	2b3c <USART_Cmd+0x58>
D:/projects/mechanical_arm/Firmware/UWB/libraries/sdk/Peripheral/ch32v30x_usart.c:236
    USARTx->CTLR1 &= CTLR1_UE_Reset;
    2b1a:	fec42783          	lw	a5,-20(s0)
    2b1e:	00c7d783          	lhu	a5,12(a5)
    2b22:	01079713          	slli	a4,a5,0x10
    2b26:	8341                	srli	a4,a4,0x10
    2b28:	77f9                	lui	a5,0xffffe
    2b2a:	17fd                	addi	a5,a5,-1
    2b2c:	8ff9                	and	a5,a5,a4
    2b2e:	01079713          	slli	a4,a5,0x10
    2b32:	8341                	srli	a4,a4,0x10
    2b34:	fec42783          	lw	a5,-20(s0)
    2b38:	00e79623          	sh	a4,12(a5) # ffffe00c <_eusrstack+0xdffee00c>
D:/projects/mechanical_arm/Firmware/UWB/libraries/sdk/Peripheral/ch32v30x_usart.c:238
}
    2b3c:	0001                	nop
    2b3e:	4472                	lw	s0,28(sp)
    2b40:	6105                	addi	sp,sp,32
    2b42:	8082                	ret

00002b44 <USART_ITConfig>:
USART_ITConfig():
D:/projects/mechanical_arm/Firmware/UWB/libraries/sdk/Peripheral/ch32v30x_usart.c:257
*                    USART_IT_ERR:  Error interrupt.
*                  NewState: ENABLE or DISABLE.
* Return         : None
*******************************************************************************/
void USART_ITConfig(USART_TypeDef* USARTx, uint16_t USART_IT, FunctionalState NewState)
{
    2b44:	7179                	addi	sp,sp,-48
    2b46:	d622                	sw	s0,44(sp)
    2b48:	1800                	addi	s0,sp,48
    2b4a:	fca42e23          	sw	a0,-36(s0)
    2b4e:	87ae                	mv	a5,a1
    2b50:	fcc42a23          	sw	a2,-44(s0)
    2b54:	fcf41d23          	sh	a5,-38(s0)
D:/projects/mechanical_arm/Firmware/UWB/libraries/sdk/Peripheral/ch32v30x_usart.c:258
  uint32_t usartreg = 0x00, itpos = 0x00, itmask = 0x00;
    2b58:	fe042423          	sw	zero,-24(s0)
    2b5c:	fe042223          	sw	zero,-28(s0)
    2b60:	fe042023          	sw	zero,-32(s0)
D:/projects/mechanical_arm/Firmware/UWB/libraries/sdk/Peripheral/ch32v30x_usart.c:259
  uint32_t usartxbase = 0x00;
    2b64:	fe042623          	sw	zero,-20(s0)
D:/projects/mechanical_arm/Firmware/UWB/libraries/sdk/Peripheral/ch32v30x_usart.c:265

  if (USART_IT == USART_IT_CTS)
  {
  }   
  
  usartxbase = (uint32_t)USARTx;
    2b68:	fdc42783          	lw	a5,-36(s0)
    2b6c:	fef42623          	sw	a5,-20(s0)
D:/projects/mechanical_arm/Firmware/UWB/libraries/sdk/Peripheral/ch32v30x_usart.c:266
  usartreg = (((uint8_t)USART_IT) >> 0x05);
    2b70:	fda45783          	lhu	a5,-38(s0)
    2b74:	0ff7f793          	andi	a5,a5,255
    2b78:	8395                	srli	a5,a5,0x5
    2b7a:	0ff7f793          	andi	a5,a5,255
    2b7e:	fef42423          	sw	a5,-24(s0)
D:/projects/mechanical_arm/Firmware/UWB/libraries/sdk/Peripheral/ch32v30x_usart.c:267
  itpos = USART_IT & IT_Mask;
    2b82:	fda45783          	lhu	a5,-38(s0)
    2b86:	8bfd                	andi	a5,a5,31
    2b88:	fef42223          	sw	a5,-28(s0)
D:/projects/mechanical_arm/Firmware/UWB/libraries/sdk/Peripheral/ch32v30x_usart.c:268
  itmask = (((uint32_t)0x01) << itpos);
    2b8c:	fe442783          	lw	a5,-28(s0)
    2b90:	4705                	li	a4,1
    2b92:	00f717b3          	sll	a5,a4,a5
    2b96:	fef42023          	sw	a5,-32(s0)
D:/projects/mechanical_arm/Firmware/UWB/libraries/sdk/Peripheral/ch32v30x_usart.c:270
    
  if (usartreg == 0x01) 
    2b9a:	fe842703          	lw	a4,-24(s0)
    2b9e:	4785                	li	a5,1
    2ba0:	00f71863          	bne	a4,a5,2bb0 <USART_ITConfig+0x6c>
D:/projects/mechanical_arm/Firmware/UWB/libraries/sdk/Peripheral/ch32v30x_usart.c:272
  {
    usartxbase += 0x0C;
    2ba4:	fec42783          	lw	a5,-20(s0)
    2ba8:	07b1                	addi	a5,a5,12
    2baa:	fef42623          	sw	a5,-20(s0)
    2bae:	a00d                	j	2bd0 <USART_ITConfig+0x8c>
D:/projects/mechanical_arm/Firmware/UWB/libraries/sdk/Peripheral/ch32v30x_usart.c:274
  }
  else if (usartreg == 0x02) 
    2bb0:	fe842703          	lw	a4,-24(s0)
    2bb4:	4789                	li	a5,2
    2bb6:	00f71863          	bne	a4,a5,2bc6 <USART_ITConfig+0x82>
D:/projects/mechanical_arm/Firmware/UWB/libraries/sdk/Peripheral/ch32v30x_usart.c:276
  {
    usartxbase += 0x10;
    2bba:	fec42783          	lw	a5,-20(s0)
    2bbe:	07c1                	addi	a5,a5,16
    2bc0:	fef42623          	sw	a5,-20(s0)
    2bc4:	a031                	j	2bd0 <USART_ITConfig+0x8c>
D:/projects/mechanical_arm/Firmware/UWB/libraries/sdk/Peripheral/ch32v30x_usart.c:280
  }
  else 
  {
    usartxbase += 0x14; 
    2bc6:	fec42783          	lw	a5,-20(s0)
    2bca:	07d1                	addi	a5,a5,20
    2bcc:	fef42623          	sw	a5,-20(s0)
D:/projects/mechanical_arm/Firmware/UWB/libraries/sdk/Peripheral/ch32v30x_usart.c:283
  }
	
  if (NewState != DISABLE)
    2bd0:	fd442783          	lw	a5,-44(s0)
    2bd4:	cb99                	beqz	a5,2bea <USART_ITConfig+0xa6>
D:/projects/mechanical_arm/Firmware/UWB/libraries/sdk/Peripheral/ch32v30x_usart.c:285
  {
    *(__IO uint32_t*)usartxbase  |= itmask;
    2bd6:	fec42783          	lw	a5,-20(s0)
    2bda:	4394                	lw	a3,0(a5)
    2bdc:	fec42783          	lw	a5,-20(s0)
    2be0:	fe042703          	lw	a4,-32(s0)
    2be4:	8f55                	or	a4,a4,a3
    2be6:	c398                	sw	a4,0(a5)
D:/projects/mechanical_arm/Firmware/UWB/libraries/sdk/Peripheral/ch32v30x_usart.c:291
  }
  else
  {
    *(__IO uint32_t*)usartxbase &= ~itmask;
  }
}
    2be8:	a821                	j	2c00 <USART_ITConfig+0xbc>
D:/projects/mechanical_arm/Firmware/UWB/libraries/sdk/Peripheral/ch32v30x_usart.c:289
    *(__IO uint32_t*)usartxbase &= ~itmask;
    2bea:	fec42783          	lw	a5,-20(s0)
    2bee:	4394                	lw	a3,0(a5)
    2bf0:	fe042783          	lw	a5,-32(s0)
    2bf4:	fff7c713          	not	a4,a5
    2bf8:	fec42783          	lw	a5,-20(s0)
    2bfc:	8f75                	and	a4,a4,a3
    2bfe:	c398                	sw	a4,0(a5)
D:/projects/mechanical_arm/Firmware/UWB/libraries/sdk/Peripheral/ch32v30x_usart.c:291
}
    2c00:	0001                	nop
    2c02:	5432                	lw	s0,44(sp)
    2c04:	6145                	addi	sp,sp,48
    2c06:	8082                	ret

00002c08 <USART_SendData>:
USART_SendData():
D:/projects/mechanical_arm/Firmware/UWB/libraries/sdk/Peripheral/ch32v30x_usart.c:404
* Input          : USARTx: where x can be 1, 2, 3 to select the USART peripheral.
*                  Data: the data to transmit..
* Return         : None
*******************************************************************************/
void USART_SendData(USART_TypeDef* USARTx, uint16_t Data)
{
    2c08:	1101                	addi	sp,sp,-32
    2c0a:	ce22                	sw	s0,28(sp)
    2c0c:	1000                	addi	s0,sp,32
    2c0e:	fea42623          	sw	a0,-20(s0)
    2c12:	87ae                	mv	a5,a1
    2c14:	fef41523          	sh	a5,-22(s0)
D:/projects/mechanical_arm/Firmware/UWB/libraries/sdk/Peripheral/ch32v30x_usart.c:405
  USARTx->DATAR = (Data & (uint16_t)0x01FF);
    2c18:	fea45783          	lhu	a5,-22(s0)
    2c1c:	1ff7f793          	andi	a5,a5,511
    2c20:	01079713          	slli	a4,a5,0x10
    2c24:	8341                	srli	a4,a4,0x10
    2c26:	fec42783          	lw	a5,-20(s0)
    2c2a:	00e79223          	sh	a4,4(a5)
D:/projects/mechanical_arm/Firmware/UWB/libraries/sdk/Peripheral/ch32v30x_usart.c:406
}
    2c2e:	0001                	nop
    2c30:	4472                	lw	s0,28(sp)
    2c32:	6105                	addi	sp,sp,32
    2c34:	8082                	ret

00002c36 <USART_GetFlagStatus>:
USART_GetFlagStatus():
D:/projects/mechanical_arm/Firmware/UWB/libraries/sdk/Peripheral/ch32v30x_usart.c:603
*                    USART_FLAG_FE: Framing Error flag.
*                    USART_FLAG_PE: Parity Error flag.
* Return         : bitstatus: SET or RESET.
*******************************************************************************/
FlagStatus USART_GetFlagStatus(USART_TypeDef* USARTx, uint16_t USART_FLAG)
{
    2c36:	7179                	addi	sp,sp,-48
    2c38:	d622                	sw	s0,44(sp)
    2c3a:	1800                	addi	s0,sp,48
    2c3c:	fca42e23          	sw	a0,-36(s0)
    2c40:	87ae                	mv	a5,a1
    2c42:	fcf41d23          	sh	a5,-38(s0)
D:/projects/mechanical_arm/Firmware/UWB/libraries/sdk/Peripheral/ch32v30x_usart.c:604
  FlagStatus bitstatus = RESET;
    2c46:	fe042623          	sw	zero,-20(s0)
D:/projects/mechanical_arm/Firmware/UWB/libraries/sdk/Peripheral/ch32v30x_usart.c:610

  if (USART_FLAG == USART_FLAG_CTS)
  {
  }  
  
  if ((USARTx->STATR & USART_FLAG) != (uint16_t)RESET)
    2c4a:	fdc42783          	lw	a5,-36(s0)
    2c4e:	0007d783          	lhu	a5,0(a5)
    2c52:	01079713          	slli	a4,a5,0x10
    2c56:	8341                	srli	a4,a4,0x10
    2c58:	fda45783          	lhu	a5,-38(s0)
    2c5c:	8ff9                	and	a5,a5,a4
    2c5e:	07c2                	slli	a5,a5,0x10
    2c60:	83c1                	srli	a5,a5,0x10
    2c62:	c789                	beqz	a5,2c6c <USART_GetFlagStatus+0x36>
D:/projects/mechanical_arm/Firmware/UWB/libraries/sdk/Peripheral/ch32v30x_usart.c:612
  {
    bitstatus = SET;
    2c64:	4785                	li	a5,1
    2c66:	fef42623          	sw	a5,-20(s0)
    2c6a:	a019                	j	2c70 <USART_GetFlagStatus+0x3a>
D:/projects/mechanical_arm/Firmware/UWB/libraries/sdk/Peripheral/ch32v30x_usart.c:616
  }
  else
  {
    bitstatus = RESET;
    2c6c:	fe042623          	sw	zero,-20(s0)
D:/projects/mechanical_arm/Firmware/UWB/libraries/sdk/Peripheral/ch32v30x_usart.c:618
  }
  return bitstatus;
    2c70:	fec42783          	lw	a5,-20(s0)
D:/projects/mechanical_arm/Firmware/UWB/libraries/sdk/Peripheral/ch32v30x_usart.c:619
}
    2c74:	853e                	mv	a0,a5
    2c76:	5432                	lw	s0,44(sp)
    2c78:	6145                	addi	sp,sp,48
    2c7a:	8082                	ret

00002c7c <USART_GetITStatus>:
USART_GetITStatus():
D:/projects/mechanical_arm/Firmware/UWB/libraries/sdk/Peripheral/ch32v30x_usart.c:660
*                    USART_IT_FE: Framing Error interrupt.
*                    USART_IT_PE: Parity Error interrupt.
* Return         : bitstatus: SET or RESET.
*******************************************************************************/
ITStatus USART_GetITStatus(USART_TypeDef* USARTx, uint16_t USART_IT)
{
    2c7c:	7179                	addi	sp,sp,-48
    2c7e:	d622                	sw	s0,44(sp)
    2c80:	1800                	addi	s0,sp,48
    2c82:	fca42e23          	sw	a0,-36(s0)
    2c86:	87ae                	mv	a5,a1
    2c88:	fcf41d23          	sh	a5,-38(s0)
D:/projects/mechanical_arm/Firmware/UWB/libraries/sdk/Peripheral/ch32v30x_usart.c:661
  uint32_t bitpos = 0x00, itmask = 0x00, usartreg = 0x00;
    2c8c:	fe042223          	sw	zero,-28(s0)
    2c90:	fe042623          	sw	zero,-20(s0)
    2c94:	fe042023          	sw	zero,-32(s0)
D:/projects/mechanical_arm/Firmware/UWB/libraries/sdk/Peripheral/ch32v30x_usart.c:662
  ITStatus bitstatus = RESET;
    2c98:	fe042423          	sw	zero,-24(s0)
D:/projects/mechanical_arm/Firmware/UWB/libraries/sdk/Peripheral/ch32v30x_usart.c:668

  if (USART_IT == USART_IT_CTS)
  {
  }   
  
  usartreg = (((uint8_t)USART_IT) >> 0x05);
    2c9c:	fda45783          	lhu	a5,-38(s0)
    2ca0:	0ff7f793          	andi	a5,a5,255
    2ca4:	8395                	srli	a5,a5,0x5
    2ca6:	0ff7f793          	andi	a5,a5,255
    2caa:	fef42023          	sw	a5,-32(s0)
D:/projects/mechanical_arm/Firmware/UWB/libraries/sdk/Peripheral/ch32v30x_usart.c:669
  itmask = USART_IT & IT_Mask;
    2cae:	fda45783          	lhu	a5,-38(s0)
    2cb2:	8bfd                	andi	a5,a5,31
    2cb4:	fef42623          	sw	a5,-20(s0)
D:/projects/mechanical_arm/Firmware/UWB/libraries/sdk/Peripheral/ch32v30x_usart.c:670
  itmask = (uint32_t)0x01 << itmask;
    2cb8:	fec42783          	lw	a5,-20(s0)
    2cbc:	4705                	li	a4,1
    2cbe:	00f717b3          	sll	a5,a4,a5
    2cc2:	fef42623          	sw	a5,-20(s0)
D:/projects/mechanical_arm/Firmware/UWB/libraries/sdk/Peripheral/ch32v30x_usart.c:672
  
  if (usartreg == 0x01) 
    2cc6:	fe042703          	lw	a4,-32(s0)
    2cca:	4785                	li	a5,1
    2ccc:	00f71f63          	bne	a4,a5,2cea <USART_GetITStatus+0x6e>
D:/projects/mechanical_arm/Firmware/UWB/libraries/sdk/Peripheral/ch32v30x_usart.c:674
  {
    itmask &= USARTx->CTLR1;
    2cd0:	fdc42783          	lw	a5,-36(s0)
    2cd4:	00c7d783          	lhu	a5,12(a5)
    2cd8:	07c2                	slli	a5,a5,0x10
    2cda:	83c1                	srli	a5,a5,0x10
    2cdc:	873e                	mv	a4,a5
    2cde:	fec42783          	lw	a5,-20(s0)
    2ce2:	8ff9                	and	a5,a5,a4
    2ce4:	fef42623          	sw	a5,-20(s0)
    2ce8:	a83d                	j	2d26 <USART_GetITStatus+0xaa>
D:/projects/mechanical_arm/Firmware/UWB/libraries/sdk/Peripheral/ch32v30x_usart.c:676
  }
  else if (usartreg == 0x02) 
    2cea:	fe042703          	lw	a4,-32(s0)
    2cee:	4789                	li	a5,2
    2cf0:	00f71f63          	bne	a4,a5,2d0e <USART_GetITStatus+0x92>
D:/projects/mechanical_arm/Firmware/UWB/libraries/sdk/Peripheral/ch32v30x_usart.c:678
  {
    itmask &= USARTx->CTLR2;
    2cf4:	fdc42783          	lw	a5,-36(s0)
    2cf8:	0107d783          	lhu	a5,16(a5)
    2cfc:	07c2                	slli	a5,a5,0x10
    2cfe:	83c1                	srli	a5,a5,0x10
    2d00:	873e                	mv	a4,a5
    2d02:	fec42783          	lw	a5,-20(s0)
    2d06:	8ff9                	and	a5,a5,a4
    2d08:	fef42623          	sw	a5,-20(s0)
    2d0c:	a829                	j	2d26 <USART_GetITStatus+0xaa>
D:/projects/mechanical_arm/Firmware/UWB/libraries/sdk/Peripheral/ch32v30x_usart.c:682
  }
  else 
  {
    itmask &= USARTx->CTLR3;
    2d0e:	fdc42783          	lw	a5,-36(s0)
    2d12:	0147d783          	lhu	a5,20(a5)
    2d16:	07c2                	slli	a5,a5,0x10
    2d18:	83c1                	srli	a5,a5,0x10
    2d1a:	873e                	mv	a4,a5
    2d1c:	fec42783          	lw	a5,-20(s0)
    2d20:	8ff9                	and	a5,a5,a4
    2d22:	fef42623          	sw	a5,-20(s0)
D:/projects/mechanical_arm/Firmware/UWB/libraries/sdk/Peripheral/ch32v30x_usart.c:685
  }
  
  bitpos = USART_IT >> 0x08;
    2d26:	fda45783          	lhu	a5,-38(s0)
    2d2a:	83a1                	srli	a5,a5,0x8
    2d2c:	07c2                	slli	a5,a5,0x10
    2d2e:	83c1                	srli	a5,a5,0x10
    2d30:	fef42223          	sw	a5,-28(s0)
D:/projects/mechanical_arm/Firmware/UWB/libraries/sdk/Peripheral/ch32v30x_usart.c:686
  bitpos = (uint32_t)0x01 << bitpos;
    2d34:	fe442783          	lw	a5,-28(s0)
    2d38:	4705                	li	a4,1
    2d3a:	00f717b3          	sll	a5,a4,a5
    2d3e:	fef42223          	sw	a5,-28(s0)
D:/projects/mechanical_arm/Firmware/UWB/libraries/sdk/Peripheral/ch32v30x_usart.c:687
  bitpos &= USARTx->STATR;
    2d42:	fdc42783          	lw	a5,-36(s0)
    2d46:	0007d783          	lhu	a5,0(a5)
    2d4a:	07c2                	slli	a5,a5,0x10
    2d4c:	83c1                	srli	a5,a5,0x10
    2d4e:	873e                	mv	a4,a5
    2d50:	fe442783          	lw	a5,-28(s0)
    2d54:	8ff9                	and	a5,a5,a4
    2d56:	fef42223          	sw	a5,-28(s0)
D:/projects/mechanical_arm/Firmware/UWB/libraries/sdk/Peripheral/ch32v30x_usart.c:689
	
  if ((itmask != (uint16_t)RESET)&&(bitpos != (uint16_t)RESET))
    2d5a:	fec42783          	lw	a5,-20(s0)
    2d5e:	cb81                	beqz	a5,2d6e <USART_GetITStatus+0xf2>
D:/projects/mechanical_arm/Firmware/UWB/libraries/sdk/Peripheral/ch32v30x_usart.c:689 (discriminator 1)
    2d60:	fe442783          	lw	a5,-28(s0)
    2d64:	c789                	beqz	a5,2d6e <USART_GetITStatus+0xf2>
D:/projects/mechanical_arm/Firmware/UWB/libraries/sdk/Peripheral/ch32v30x_usart.c:691
  {
    bitstatus = SET;
    2d66:	4785                	li	a5,1
    2d68:	fef42423          	sw	a5,-24(s0)
    2d6c:	a019                	j	2d72 <USART_GetITStatus+0xf6>
D:/projects/mechanical_arm/Firmware/UWB/libraries/sdk/Peripheral/ch32v30x_usart.c:695
  }
  else
  {
    bitstatus = RESET;
    2d6e:	fe042423          	sw	zero,-24(s0)
D:/projects/mechanical_arm/Firmware/UWB/libraries/sdk/Peripheral/ch32v30x_usart.c:698
  }
  
  return bitstatus;  
    2d72:	fe842783          	lw	a5,-24(s0)
D:/projects/mechanical_arm/Firmware/UWB/libraries/sdk/Peripheral/ch32v30x_usart.c:699
}
    2d76:	853e                	mv	a0,a5
    2d78:	5432                	lw	s0,44(sp)
    2d7a:	6145                	addi	sp,sp,48
    2d7c:	8082                	ret

00002d7e <USART_ClearITPendingBit>:
USART_ClearITPendingBit():
D:/projects/mechanical_arm/Firmware/UWB/libraries/sdk/Peripheral/ch32v30x_usart.c:713
*                    USART_IT_TC:   Transmission complete interrupt.
*                    USART_IT_RXNE: Receive Data register not empty interrupt.
* Return         : None
*******************************************************************************/
void USART_ClearITPendingBit(USART_TypeDef* USARTx, uint16_t USART_IT)
{
    2d7e:	7179                	addi	sp,sp,-48
    2d80:	d622                	sw	s0,44(sp)
    2d82:	1800                	addi	s0,sp,48
    2d84:	fca42e23          	sw	a0,-36(s0)
    2d88:	87ae                	mv	a5,a1
    2d8a:	fcf41d23          	sh	a5,-38(s0)
D:/projects/mechanical_arm/Firmware/UWB/libraries/sdk/Peripheral/ch32v30x_usart.c:714
  uint16_t bitpos = 0x00, itmask = 0x00;
    2d8e:	fe041723          	sh	zero,-18(s0)
    2d92:	fe041623          	sh	zero,-20(s0)
D:/projects/mechanical_arm/Firmware/UWB/libraries/sdk/Peripheral/ch32v30x_usart.c:720

  if (USART_IT == USART_IT_CTS)
  {
  }   
  
  bitpos = USART_IT >> 0x08;
    2d96:	fda45783          	lhu	a5,-38(s0)
    2d9a:	83a1                	srli	a5,a5,0x8
    2d9c:	fef41723          	sh	a5,-18(s0)
D:/projects/mechanical_arm/Firmware/UWB/libraries/sdk/Peripheral/ch32v30x_usart.c:721
  itmask = ((uint16_t)0x01 << (uint16_t)bitpos);
    2da0:	fee45783          	lhu	a5,-18(s0)
    2da4:	4705                	li	a4,1
    2da6:	00f717b3          	sll	a5,a4,a5
    2daa:	fef41623          	sh	a5,-20(s0)
D:/projects/mechanical_arm/Firmware/UWB/libraries/sdk/Peripheral/ch32v30x_usart.c:722
  USARTx->STATR = (uint16_t)~itmask;
    2dae:	fec45783          	lhu	a5,-20(s0)
    2db2:	fff7c793          	not	a5,a5
    2db6:	01079713          	slli	a4,a5,0x10
    2dba:	8341                	srli	a4,a4,0x10
    2dbc:	fdc42783          	lw	a5,-36(s0)
    2dc0:	00e79023          	sh	a4,0(a5)
D:/projects/mechanical_arm/Firmware/UWB/libraries/sdk/Peripheral/ch32v30x_usart.c:723
}
    2dc4:	0001                	nop
    2dc6:	5432                	lw	s0,44(sp)
    2dc8:	6145                	addi	sp,sp,48
    2dca:	8082                	ret

00002dcc <DevEP1_IN_Deal>:
DevEP1_IN_Deal():
D:/projects/mechanical_arm/Firmware/UWB/libraries/sdk/Peripheral/ch32v30x_usbotg_device.c:329
* Description    : Device endpoint1 IN.
* Input          : l: IN length(<64B)
* Return         : None
*******************************************************************************/
void DevEP1_IN_Deal( UINT8 l )
{
    2dcc:	1101                	addi	sp,sp,-32
    2dce:	ce22                	sw	s0,28(sp)
    2dd0:	1000                	addi	s0,sp,32
    2dd2:	87aa                	mv	a5,a0
    2dd4:	fef407a3          	sb	a5,-17(s0)
D:/projects/mechanical_arm/Firmware/UWB/libraries/sdk/Peripheral/ch32v30x_usbotg_device.c:330
    USBOTG_FS->UEP1_TX_LEN = l;
    2dd8:	500007b7          	lui	a5,0x50000
    2ddc:	fef44703          	lbu	a4,-17(s0)
    2de0:	0742                	slli	a4,a4,0x10
    2de2:	8341                	srli	a4,a4,0x10
    2de4:	02e79a23          	sh	a4,52(a5) # 50000034 <_eusrstack+0x2fff0034>
D:/projects/mechanical_arm/Firmware/UWB/libraries/sdk/Peripheral/ch32v30x_usbotg_device.c:331
    USBOTG_FS->UEP1_TX_CTRL = (USBOTG_FS->UEP1_TX_CTRL & ~USBHD_UEP_T_RES_MASK)| USBHD_UEP_T_RES_ACK;
    2de8:	500007b7          	lui	a5,0x50000
    2dec:	0367c783          	lbu	a5,54(a5) # 50000036 <_eusrstack+0x2fff0036>
    2df0:	0ff7f713          	andi	a4,a5,255
    2df4:	500007b7          	lui	a5,0x50000
    2df8:	9b71                	andi	a4,a4,-4
    2dfa:	0ff77713          	andi	a4,a4,255
    2dfe:	02e78b23          	sb	a4,54(a5) # 50000036 <_eusrstack+0x2fff0036>
D:/projects/mechanical_arm/Firmware/UWB/libraries/sdk/Peripheral/ch32v30x_usbotg_device.c:332
}
    2e02:	0001                	nop
    2e04:	4472                	lw	s0,28(sp)
    2e06:	6105                	addi	sp,sp,32
    2e08:	8082                	ret

00002e0a <DevEP2_IN_Deal>:
DevEP2_IN_Deal():
D:/projects/mechanical_arm/Firmware/UWB/libraries/sdk/Peripheral/ch32v30x_usbotg_device.c:341
* Description    : Device endpoint2 IN.
* Input          : l: IN length(<64B)
* Return         : None
*******************************************************************************/
void DevEP2_IN_Deal( UINT8 l )
{
    2e0a:	1101                	addi	sp,sp,-32
    2e0c:	ce22                	sw	s0,28(sp)
    2e0e:	1000                	addi	s0,sp,32
    2e10:	87aa                	mv	a5,a0
    2e12:	fef407a3          	sb	a5,-17(s0)
D:/projects/mechanical_arm/Firmware/UWB/libraries/sdk/Peripheral/ch32v30x_usbotg_device.c:342
    USBOTG_FS->UEP2_TX_LEN = l;
    2e16:	500007b7          	lui	a5,0x50000
    2e1a:	fef44703          	lbu	a4,-17(s0)
    2e1e:	0742                	slli	a4,a4,0x10
    2e20:	8341                	srli	a4,a4,0x10
    2e22:	02e79c23          	sh	a4,56(a5) # 50000038 <_eusrstack+0x2fff0038>
D:/projects/mechanical_arm/Firmware/UWB/libraries/sdk/Peripheral/ch32v30x_usbotg_device.c:343
    USBOTG_FS->UEP2_TX_CTRL = (USBOTG_FS->UEP2_TX_CTRL & ~USBHD_UEP_T_RES_MASK)| USBHD_UEP_T_RES_ACK;
    2e26:	500007b7          	lui	a5,0x50000
    2e2a:	03a7c783          	lbu	a5,58(a5) # 5000003a <_eusrstack+0x2fff003a>
    2e2e:	0ff7f713          	andi	a4,a5,255
    2e32:	500007b7          	lui	a5,0x50000
    2e36:	9b71                	andi	a4,a4,-4
    2e38:	0ff77713          	andi	a4,a4,255
    2e3c:	02e78d23          	sb	a4,58(a5) # 5000003a <_eusrstack+0x2fff003a>
D:/projects/mechanical_arm/Firmware/UWB/libraries/sdk/Peripheral/ch32v30x_usbotg_device.c:344
}
    2e40:	0001                	nop
    2e42:	4472                	lw	s0,28(sp)
    2e44:	6105                	addi	sp,sp,32
    2e46:	8082                	ret

00002e48 <DevEP1_OUT_Deal>:
DevEP1_OUT_Deal():
D:/projects/mechanical_arm/Firmware/UWB/libraries/sdk/Peripheral/ch32v30x_usbotg_device.c:353
* Description    : Deal device Endpoint 1 OUT.
* Input          : l: Data length.
* Return         : None
*******************************************************************************/
void DevEP1_OUT_Deal( UINT8 l )
{
    2e48:	7179                	addi	sp,sp,-48
    2e4a:	d606                	sw	ra,44(sp)
    2e4c:	d422                	sw	s0,40(sp)
    2e4e:	1800                	addi	s0,sp,48
    2e50:	87aa                	mv	a5,a0
    2e52:	fcf40fa3          	sb	a5,-33(s0)
D:/projects/mechanical_arm/Firmware/UWB/libraries/sdk/Peripheral/ch32v30x_usbotg_device.c:356
    UINT8 i;

    for(i=0; i<l; i++)
    2e56:	fe0407a3          	sb	zero,-17(s0)
    2e5a:	a815                	j	2e8e <DevEP1_OUT_Deal+0x46>
D:/projects/mechanical_arm/Firmware/UWB/libraries/sdk/Peripheral/ch32v30x_usbotg_device.c:358 (discriminator 3)
    {
        pEP1_IN_DataBuf[i] = ~pEP1_OUT_DataBuf[i];
    2e5c:	8881a703          	lw	a4,-1912(gp) # 200002b8 <pEP1_RAM_Addr>
    2e60:	fef44783          	lbu	a5,-17(s0)
    2e64:	97ba                	add	a5,a5,a4
    2e66:	0007c703          	lbu	a4,0(a5)
    2e6a:	8881a683          	lw	a3,-1912(gp) # 200002b8 <pEP1_RAM_Addr>
    2e6e:	fef44783          	lbu	a5,-17(s0)
    2e72:	04078793          	addi	a5,a5,64
    2e76:	97b6                	add	a5,a5,a3
    2e78:	fff74713          	not	a4,a4
    2e7c:	0ff77713          	andi	a4,a4,255
    2e80:	00e78023          	sb	a4,0(a5)
D:/projects/mechanical_arm/Firmware/UWB/libraries/sdk/Peripheral/ch32v30x_usbotg_device.c:356 (discriminator 3)
    for(i=0; i<l; i++)
    2e84:	fef44783          	lbu	a5,-17(s0)
    2e88:	0785                	addi	a5,a5,1
    2e8a:	fef407a3          	sb	a5,-17(s0)
D:/projects/mechanical_arm/Firmware/UWB/libraries/sdk/Peripheral/ch32v30x_usbotg_device.c:356 (discriminator 1)
    2e8e:	fef44703          	lbu	a4,-17(s0)
    2e92:	fdf44783          	lbu	a5,-33(s0)
    2e96:	fcf763e3          	bltu	a4,a5,2e5c <DevEP1_OUT_Deal+0x14>
D:/projects/mechanical_arm/Firmware/UWB/libraries/sdk/Peripheral/ch32v30x_usbotg_device.c:361
    }

    DevEP1_IN_Deal( l );
    2e9a:	fdf44783          	lbu	a5,-33(s0)
    2e9e:	853e                	mv	a0,a5
    2ea0:	3735                	jal	2dcc <DevEP1_IN_Deal>
D:/projects/mechanical_arm/Firmware/UWB/libraries/sdk/Peripheral/ch32v30x_usbotg_device.c:362
}
    2ea2:	0001                	nop
    2ea4:	50b2                	lw	ra,44(sp)
    2ea6:	5422                	lw	s0,40(sp)
    2ea8:	6145                	addi	sp,sp,48
    2eaa:	8082                	ret

00002eac <DevEP2_OUT_Deal>:
DevEP2_OUT_Deal():
D:/projects/mechanical_arm/Firmware/UWB/libraries/sdk/Peripheral/ch32v30x_usbotg_device.c:371
* Description    : Deal device Endpoint 2 OUT.
* Input          : l: Data length.
* Return         : None
*******************************************************************************/
void DevEP2_OUT_Deal( UINT8 l )
{
    2eac:	7179                	addi	sp,sp,-48
    2eae:	d606                	sw	ra,44(sp)
    2eb0:	d422                	sw	s0,40(sp)
    2eb2:	1800                	addi	s0,sp,48
    2eb4:	87aa                	mv	a5,a0
    2eb6:	fcf40fa3          	sb	a5,-33(s0)
D:/projects/mechanical_arm/Firmware/UWB/libraries/sdk/Peripheral/ch32v30x_usbotg_device.c:374
    UINT8 i;

    for(i=0; i<l; i++)
    2eba:	fe0407a3          	sb	zero,-17(s0)
    2ebe:	a815                	j	2ef2 <DevEP2_OUT_Deal+0x46>
D:/projects/mechanical_arm/Firmware/UWB/libraries/sdk/Peripheral/ch32v30x_usbotg_device.c:376 (discriminator 3)
    {
        pEP2_IN_DataBuf[i] = ~pEP2_OUT_DataBuf[i];
    2ec0:	88c1a703          	lw	a4,-1908(gp) # 200002bc <pEP2_RAM_Addr>
    2ec4:	fef44783          	lbu	a5,-17(s0)
    2ec8:	97ba                	add	a5,a5,a4
    2eca:	0007c703          	lbu	a4,0(a5)
    2ece:	88c1a683          	lw	a3,-1908(gp) # 200002bc <pEP2_RAM_Addr>
    2ed2:	fef44783          	lbu	a5,-17(s0)
    2ed6:	04078793          	addi	a5,a5,64
    2eda:	97b6                	add	a5,a5,a3
    2edc:	fff74713          	not	a4,a4
    2ee0:	0ff77713          	andi	a4,a4,255
    2ee4:	00e78023          	sb	a4,0(a5)
D:/projects/mechanical_arm/Firmware/UWB/libraries/sdk/Peripheral/ch32v30x_usbotg_device.c:374 (discriminator 3)
    for(i=0; i<l; i++)
    2ee8:	fef44783          	lbu	a5,-17(s0)
    2eec:	0785                	addi	a5,a5,1
    2eee:	fef407a3          	sb	a5,-17(s0)
D:/projects/mechanical_arm/Firmware/UWB/libraries/sdk/Peripheral/ch32v30x_usbotg_device.c:374 (discriminator 1)
    2ef2:	fef44703          	lbu	a4,-17(s0)
    2ef6:	fdf44783          	lbu	a5,-33(s0)
    2efa:	fcf763e3          	bltu	a4,a5,2ec0 <DevEP2_OUT_Deal+0x14>
D:/projects/mechanical_arm/Firmware/UWB/libraries/sdk/Peripheral/ch32v30x_usbotg_device.c:379
    }

    DevEP2_IN_Deal( l );
    2efe:	fdf44783          	lbu	a5,-33(s0)
    2f02:	853e                	mv	a0,a5
    2f04:	3719                	jal	2e0a <DevEP2_IN_Deal>
D:/projects/mechanical_arm/Firmware/UWB/libraries/sdk/Peripheral/ch32v30x_usbotg_device.c:380
}
    2f06:	0001                	nop
    2f08:	50b2                	lw	ra,44(sp)
    2f0a:	5422                	lw	s0,40(sp)
    2f0c:	6145                	addi	sp,sp,48
    2f0e:	8082                	ret

00002f10 <OTG_FS_IRQHandler>:
OTG_FS_IRQHandler():
D:/projects/mechanical_arm/Firmware/UWB/libraries/sdk/Peripheral/ch32v30x_usbotg_device.c:389
* Description    : OTG_FS_IRQHandler OTG设备中断处理函数
* Input          : None
* Return         : None
*******************************************************************************/
void OTG_FS_IRQHandler( void )
{
    2f10:	1101                	addi	sp,sp,-32
    2f12:	ce22                	sw	s0,28(sp)
    2f14:	1000                	addi	s0,sp,32
D:/projects/mechanical_arm/Firmware/UWB/libraries/sdk/Peripheral/ch32v30x_usbotg_device.c:391
    UINT8  len, chtype;
    UINT8  intflag, errflag = 0;
    2f16:	fe040723          	sb	zero,-18(s0)
D:/projects/mechanical_arm/Firmware/UWB/libraries/sdk/Peripheral/ch32v30x_usbotg_device.c:393

    intflag = USBOTG_FS->INT_FG;
    2f1a:	500007b7          	lui	a5,0x50000
    2f1e:	0067c783          	lbu	a5,6(a5) # 50000006 <_eusrstack+0x2fff0006>
    2f22:	fef406a3          	sb	a5,-19(s0)
D:/projects/mechanical_arm/Firmware/UWB/libraries/sdk/Peripheral/ch32v30x_usbotg_device.c:395

    if( intflag & USBHD_UIF_TRANSFER )
    2f26:	fed44783          	lbu	a5,-19(s0)
    2f2a:	8b89                	andi	a5,a5,2
    2f2c:	3c0785e3          	beqz	a5,3af6 <OTG_FS_IRQHandler+0xbe6>
D:/projects/mechanical_arm/Firmware/UWB/libraries/sdk/Peripheral/ch32v30x_usbotg_device.c:397
    {
        switch ( USBOTG_FS->INT_ST & USBHD_UIS_TOKEN_MASK )
    2f30:	500007b7          	lui	a5,0x50000
    2f34:	0077c783          	lbu	a5,7(a5) # 50000007 <_eusrstack+0x2fff0007>
    2f38:	0ff7f793          	andi	a5,a5,255
    2f3c:	0307f793          	andi	a5,a5,48
    2f40:	4741                	li	a4,16
    2f42:	38e78fe3          	beq	a5,a4,3ae0 <OTG_FS_IRQHandler+0xbd0>
    2f46:	4741                	li	a4,16
    2f48:	00f74663          	blt	a4,a5,2f54 <OTG_FS_IRQHandler+0x44>
    2f4c:	220782e3          	beqz	a5,3970 <OTG_FS_IRQHandler+0xa60>
D:/projects/mechanical_arm/Firmware/UWB/libraries/sdk/Peripheral/ch32v30x_usbotg_device.c:878
            case USBHD_UIS_TOKEN_SOF:

                break;

            default :
                break;
    2f50:	3950006f          	j	3ae4 <OTG_FS_IRQHandler+0xbd4>
    2f54:	02000713          	li	a4,32
    2f58:	04e78ae3          	beq	a5,a4,37ac <OTG_FS_IRQHandler+0x89c>
    2f5c:	03000713          	li	a4,48
    2f60:	38e792e3          	bne	a5,a4,3ae4 <OTG_FS_IRQHandler+0xbd4>
D:/projects/mechanical_arm/Firmware/UWB/libraries/sdk/Peripheral/ch32v30x_usbotg_device.c:411
                USBOTG_FS->UEP0_TX_CTRL = USBHD_UEP_T_TOG|USBHD_UEP_T_RES_NAK;
    2f64:	500007b7          	lui	a5,0x50000
    2f68:	4719                	li	a4,6
    2f6a:	02e78923          	sb	a4,50(a5) # 50000032 <_eusrstack+0x2fff0032>
D:/projects/mechanical_arm/Firmware/UWB/libraries/sdk/Peripheral/ch32v30x_usbotg_device.c:412
                USBOTG_FS->UEP0_RX_CTRL = USBHD_UEP_R_TOG|USBHD_UEP_R_RES_ACK;
    2f6e:	500007b7          	lui	a5,0x50000
    2f72:	4711                	li	a4,4
    2f74:	02e789a3          	sb	a4,51(a5) # 50000033 <_eusrstack+0x2fff0033>
D:/projects/mechanical_arm/Firmware/UWB/libraries/sdk/Peripheral/ch32v30x_usbotg_device.c:413
                SetupReqLen  = pSetupReqPakHD->wLength;
    2f78:	8841a783          	lw	a5,-1916(gp) # 200002b4 <pEP0_RAM_Addr>
    2f7c:	0067c703          	lbu	a4,6(a5)
    2f80:	0077c783          	lbu	a5,7(a5)
    2f84:	07a2                	slli	a5,a5,0x8
    2f86:	8fd9                	or	a5,a5,a4
    2f88:	01079713          	slli	a4,a5,0x10
    2f8c:	8341                	srli	a4,a4,0x10
    2f8e:	88e19d23          	sh	a4,-1894(gp) # 200002ca <SetupReqLen>
D:/projects/mechanical_arm/Firmware/UWB/libraries/sdk/Peripheral/ch32v30x_usbotg_device.c:414
                SetupReqCode = pSetupReqPakHD->bRequest;
    2f92:	8841a783          	lw	a5,-1916(gp) # 200002b4 <pEP0_RAM_Addr>
    2f96:	0017c703          	lbu	a4,1(a5)
    2f9a:	88e18c23          	sb	a4,-1896(gp) # 200002c8 <SetupReqCode>
D:/projects/mechanical_arm/Firmware/UWB/libraries/sdk/Peripheral/ch32v30x_usbotg_device.c:415
                chtype = pSetupReqPakHD->bRequestType;
    2f9e:	8841a783          	lw	a5,-1916(gp) # 200002b4 <pEP0_RAM_Addr>
    2fa2:	0007c783          	lbu	a5,0(a5)
    2fa6:	fef40623          	sb	a5,-20(s0)
D:/projects/mechanical_arm/Firmware/UWB/libraries/sdk/Peripheral/ch32v30x_usbotg_device.c:416
                len = 0;
    2faa:	fe0407a3          	sb	zero,-17(s0)
D:/projects/mechanical_arm/Firmware/UWB/libraries/sdk/Peripheral/ch32v30x_usbotg_device.c:417
                errflag = 0;
    2fae:	fe040723          	sb	zero,-18(s0)
D:/projects/mechanical_arm/Firmware/UWB/libraries/sdk/Peripheral/ch32v30x_usbotg_device.c:419
                if ( ( pSetupReqPakHD->bRequestType & USB_REQ_TYP_MASK ) != USB_REQ_TYP_STANDARD )  //非标准请求
    2fb2:	8841a783          	lw	a5,-1916(gp) # 200002b4 <pEP0_RAM_Addr>
    2fb6:	0007c783          	lbu	a5,0(a5)
    2fba:	0607f793          	andi	a5,a5,96
    2fbe:	12078d63          	beqz	a5,30f8 <OTG_FS_IRQHandler+0x1e8>
D:/projects/mechanical_arm/Firmware/UWB/libraries/sdk/Peripheral/ch32v30x_usbotg_device.c:422
                    if(SetupReqCode & 0x20)
    2fc2:	8981c783          	lbu	a5,-1896(gp) # 200002c8 <SetupReqCode>
    2fc6:	0ff7f793          	andi	a5,a5,255
    2fca:	0207f793          	andi	a5,a5,32
    2fce:	c7c5                	beqz	a5,3076 <OTG_FS_IRQHandler+0x166>
D:/projects/mechanical_arm/Firmware/UWB/libraries/sdk/Peripheral/ch32v30x_usbotg_device.c:424
                        switch( SetupReqCode )
    2fd0:	8981c783          	lbu	a5,-1896(gp) # 200002c8 <SetupReqCode>
    2fd4:	0ff7f793          	andi	a5,a5,255
    2fd8:	02100713          	li	a4,33
    2fdc:	00e78b63          	beq	a5,a4,2ff2 <OTG_FS_IRQHandler+0xe2>
    2fe0:	02200713          	li	a4,34
    2fe4:	08e78b63          	beq	a5,a4,307a <OTG_FS_IRQHandler+0x16a>
    2fe8:	02000713          	li	a4,32
    2fec:	08e78963          	beq	a5,a4,307e <OTG_FS_IRQHandler+0x16e>
    2ff0:	a8bd                	j	306e <OTG_FS_IRQHandler+0x15e>
D:/projects/mechanical_arm/Firmware/UWB/libraries/sdk/Peripheral/ch32v30x_usbotg_device.c:427
                                pDescr = LineCoding;
    2ff2:	20000737          	lui	a4,0x20000
    2ff6:	23870713          	addi	a4,a4,568 # 20000238 <LineCoding>
    2ffa:	88e1a823          	sw	a4,-1904(gp) # 200002c0 <pDescr>
D:/projects/mechanical_arm/Firmware/UWB/libraries/sdk/Peripheral/ch32v30x_usbotg_device.c:428
                                len = sizeof(LineCoding);
    2ffe:	479d                	li	a5,7
    3000:	fef407a3          	sb	a5,-17(s0)
D:/projects/mechanical_arm/Firmware/UWB/libraries/sdk/Peripheral/ch32v30x_usbotg_device.c:429
                                len = SetupReqLen >= DEFAULT_ENDP0_SIZE ? DEFAULT_ENDP0_SIZE : SetupReqLen;  // 本次传输长度
    3004:	89a1d783          	lhu	a5,-1894(gp) # 200002ca <SetupReqLen>
    3008:	01079713          	slli	a4,a5,0x10
    300c:	8341                	srli	a4,a4,0x10
    300e:	479d                	li	a5,7
    3010:	00e7e963          	bltu	a5,a4,3022 <OTG_FS_IRQHandler+0x112>
D:/projects/mechanical_arm/Firmware/UWB/libraries/sdk/Peripheral/ch32v30x_usbotg_device.c:429 (discriminator 1)
    3014:	89a1d783          	lhu	a5,-1894(gp) # 200002ca <SetupReqLen>
    3018:	07c2                	slli	a5,a5,0x10
    301a:	83c1                	srli	a5,a5,0x10
    301c:	0ff7f793          	andi	a5,a5,255
    3020:	a011                	j	3024 <OTG_FS_IRQHandler+0x114>
D:/projects/mechanical_arm/Firmware/UWB/libraries/sdk/Peripheral/ch32v30x_usbotg_device.c:429 (discriminator 2)
    3022:	47a1                	li	a5,8
D:/projects/mechanical_arm/Firmware/UWB/libraries/sdk/Peripheral/ch32v30x_usbotg_device.c:429 (discriminator 4)
    3024:	fef407a3          	sb	a5,-17(s0)
D:/projects/mechanical_arm/Firmware/UWB/libraries/sdk/Peripheral/ch32v30x_usbotg_device.c:430 (discriminator 4)
                                memcpy(pEP0_DataBuf,pDescr,len);
    3028:	8841a703          	lw	a4,-1916(gp) # 200002b4 <pEP0_RAM_Addr>
    302c:	8901a783          	lw	a5,-1904(gp) # 200002c0 <pDescr>
    3030:	fef44683          	lbu	a3,-17(s0)
    3034:	8636                	mv	a2,a3
    3036:	85be                	mv	a1,a5
    3038:	853a                	mv	a0,a4
    303a:	3a3030ef          	jal	ra,6bdc <memcpy>
D:/projects/mechanical_arm/Firmware/UWB/libraries/sdk/Peripheral/ch32v30x_usbotg_device.c:431 (discriminator 4)
                                SetupReqLen -= len;
    303e:	89a1d783          	lhu	a5,-1894(gp) # 200002ca <SetupReqLen>
    3042:	01079713          	slli	a4,a5,0x10
    3046:	8341                	srli	a4,a4,0x10
    3048:	fef44783          	lbu	a5,-17(s0)
    304c:	07c2                	slli	a5,a5,0x10
    304e:	83c1                	srli	a5,a5,0x10
    3050:	40f707b3          	sub	a5,a4,a5
    3054:	01079713          	slli	a4,a5,0x10
    3058:	8341                	srli	a4,a4,0x10
    305a:	88e19d23          	sh	a4,-1894(gp) # 200002ca <SetupReqLen>
D:/projects/mechanical_arm/Firmware/UWB/libraries/sdk/Peripheral/ch32v30x_usbotg_device.c:432 (discriminator 4)
                                pDescr += len;
    305e:	8901a703          	lw	a4,-1904(gp) # 200002c0 <pDescr>
    3062:	fef44783          	lbu	a5,-17(s0)
    3066:	973e                	add	a4,a4,a5
    3068:	88e1a823          	sw	a4,-1904(gp) # 200002c0 <pDescr>
D:/projects/mechanical_arm/Firmware/UWB/libraries/sdk/Peripheral/ch32v30x_usbotg_device.c:433 (discriminator 4)
                            break;
    306c:	a811                	j	3080 <OTG_FS_IRQHandler+0x170>
D:/projects/mechanical_arm/Firmware/UWB/libraries/sdk/Peripheral/ch32v30x_usbotg_device.c:442
                                errflag = 0xFF;
    306e:	57fd                	li	a5,-1
    3070:	fef40723          	sb	a5,-18(s0)
    3074:	a031                	j	3080 <OTG_FS_IRQHandler+0x170>
D:/projects/mechanical_arm/Firmware/UWB/libraries/sdk/Peripheral/ch32v30x_usbotg_device.c:444
                    }
    3076:	0001                	nop
    3078:	a021                	j	3080 <OTG_FS_IRQHandler+0x170>
D:/projects/mechanical_arm/Firmware/UWB/libraries/sdk/Peripheral/ch32v30x_usbotg_device.c:436
                            break;
    307a:	0001                	nop
    307c:	a011                	j	3080 <OTG_FS_IRQHandler+0x170>
D:/projects/mechanical_arm/Firmware/UWB/libraries/sdk/Peripheral/ch32v30x_usbotg_device.c:439
                            break;
    307e:	0001                	nop
D:/projects/mechanical_arm/Firmware/UWB/libraries/sdk/Peripheral/ch32v30x_usbotg_device.c:461
                    if( errflag != 0xFF )
    3080:	fee44703          	lbu	a4,-18(s0)
    3084:	0ff00793          	li	a5,255
    3088:	68f70563          	beq	a4,a5,3712 <OTG_FS_IRQHandler+0x802>
D:/projects/mechanical_arm/Firmware/UWB/libraries/sdk/Peripheral/ch32v30x_usbotg_device.c:463
                        if( SetupReqLen > len )
    308c:	fef44783          	lbu	a5,-17(s0)
    3090:	01079713          	slli	a4,a5,0x10
    3094:	8341                	srli	a4,a4,0x10
    3096:	89a1d783          	lhu	a5,-1894(gp) # 200002ca <SetupReqLen>
    309a:	07c2                	slli	a5,a5,0x10
    309c:	83c1                	srli	a5,a5,0x10
    309e:	00f77963          	bgeu	a4,a5,30b0 <OTG_FS_IRQHandler+0x1a0>
D:/projects/mechanical_arm/Firmware/UWB/libraries/sdk/Peripheral/ch32v30x_usbotg_device.c:465
                            SetupReqLen = len;
    30a2:	fef44783          	lbu	a5,-17(s0)
    30a6:	01079713          	slli	a4,a5,0x10
    30aa:	8341                	srli	a4,a4,0x10
    30ac:	88e19d23          	sh	a4,-1894(gp) # 200002ca <SetupReqLen>
D:/projects/mechanical_arm/Firmware/UWB/libraries/sdk/Peripheral/ch32v30x_usbotg_device.c:467
                        len = ( USBHD_Dev_SetupReqLen >= DevEP0SIZE ) ? DevEP0SIZE : USBHD_Dev_SetupReqLen;
    30b0:	8941d783          	lhu	a5,-1900(gp) # 200002c4 <USBHD_Dev_SetupReqLen>
    30b4:	01079713          	slli	a4,a5,0x10
    30b8:	8341                	srli	a4,a4,0x10
    30ba:	479d                	li	a5,7
    30bc:	00e7e963          	bltu	a5,a4,30ce <OTG_FS_IRQHandler+0x1be>
D:/projects/mechanical_arm/Firmware/UWB/libraries/sdk/Peripheral/ch32v30x_usbotg_device.c:467 (discriminator 1)
    30c0:	8941d783          	lhu	a5,-1900(gp) # 200002c4 <USBHD_Dev_SetupReqLen>
    30c4:	07c2                	slli	a5,a5,0x10
    30c6:	83c1                	srli	a5,a5,0x10
    30c8:	0ff7f793          	andi	a5,a5,255
    30cc:	a011                	j	30d0 <OTG_FS_IRQHandler+0x1c0>
D:/projects/mechanical_arm/Firmware/UWB/libraries/sdk/Peripheral/ch32v30x_usbotg_device.c:467 (discriminator 2)
    30ce:	47a1                	li	a5,8
D:/projects/mechanical_arm/Firmware/UWB/libraries/sdk/Peripheral/ch32v30x_usbotg_device.c:467 (discriminator 4)
    30d0:	fef407a3          	sb	a5,-17(s0)
D:/projects/mechanical_arm/Firmware/UWB/libraries/sdk/Peripheral/ch32v30x_usbotg_device.c:468 (discriminator 4)
                        memcpy( EP0_DatabufHD, pDescr, len );
    30d4:	8901a783          	lw	a5,-1904(gp) # 200002c0 <pDescr>
    30d8:	fef44703          	lbu	a4,-17(s0)
    30dc:	863a                	mv	a2,a4
    30de:	85be                	mv	a1,a5
    30e0:	87c18513          	addi	a0,gp,-1924 # 200002ac <EP0_DatabufHD>
    30e4:	2f9030ef          	jal	ra,6bdc <memcpy>
D:/projects/mechanical_arm/Firmware/UWB/libraries/sdk/Peripheral/ch32v30x_usbotg_device.c:469 (discriminator 4)
                        pDescr += len;
    30e8:	8901a703          	lw	a4,-1904(gp) # 200002c0 <pDescr>
    30ec:	fef44783          	lbu	a5,-17(s0)
    30f0:	973e                	add	a4,a4,a5
    30f2:	88e1a823          	sw	a4,-1904(gp) # 200002c0 <pDescr>
    30f6:	ad31                	j	3712 <OTG_FS_IRQHandler+0x802>
D:/projects/mechanical_arm/Firmware/UWB/libraries/sdk/Peripheral/ch32v30x_usbotg_device.c:475
                    switch( SetupReqCode )
    30f8:	8981c783          	lbu	a5,-1896(gp) # 200002c8 <SetupReqCode>
    30fc:	0ff7f793          	andi	a5,a5,255
    3100:	472d                	li	a4,11
    3102:	5ef76d63          	bltu	a4,a5,36fc <OTG_FS_IRQHandler+0x7ec>
    3106:	00279713          	slli	a4,a5,0x2
    310a:	67a9                	lui	a5,0xa
    310c:	df478793          	addi	a5,a5,-524 # 9df4 <MyUSBQUADescHD+0xc>
    3110:	97ba                	add	a5,a5,a4
    3112:	439c                	lw	a5,0(a5)
    3114:	8782                	jr	a5
D:/projects/mechanical_arm/Firmware/UWB/libraries/sdk/Peripheral/ch32v30x_usbotg_device.c:479 (discriminator 1)
                            switch( ((pSetupReqPakHD->wValue)>>8) )
    3116:	8841a783          	lw	a5,-1916(gp) # 200002b4 <pEP0_RAM_Addr>
    311a:	0027c703          	lbu	a4,2(a5)
    311e:	0037c783          	lbu	a5,3(a5)
    3122:	07a2                	slli	a5,a5,0x8
    3124:	8fd9                	or	a5,a5,a4
    3126:	07c2                	slli	a5,a5,0x10
    3128:	83c1                	srli	a5,a5,0x10
    312a:	83a1                	srli	a5,a5,0x8
    312c:	07c2                	slli	a5,a5,0x10
    312e:	83c1                	srli	a5,a5,0x10
    3130:	02200713          	li	a4,34
    3134:	12f76763          	bltu	a4,a5,3262 <OTG_FS_IRQHandler+0x352>
    3138:	00279713          	slli	a4,a5,0x2
    313c:	67a9                	lui	a5,0xa
    313e:	e2478793          	addi	a5,a5,-476 # 9e24 <MyUSBQUADescHD+0x3c>
    3142:	97ba                	add	a5,a5,a4
    3144:	439c                	lw	a5,0(a5)
    3146:	8782                	jr	a5
D:/projects/mechanical_arm/Firmware/UWB/libraries/sdk/Peripheral/ch32v30x_usbotg_device.c:483
                                    pDescr = MyDevDescrHD;
    3148:	6729                	lui	a4,0xa
    314a:	d4870713          	addi	a4,a4,-696 # 9d48 <MyDevDescrHD>
    314e:	88e1a823          	sw	a4,-1904(gp) # 200002c0 <pDescr>
D:/projects/mechanical_arm/Firmware/UWB/libraries/sdk/Peripheral/ch32v30x_usbotg_device.c:484
                                    len = MyDevDescrHD[0];
    3152:	47c9                	li	a5,18
    3154:	fef407a3          	sb	a5,-17(s0)
D:/projects/mechanical_arm/Firmware/UWB/libraries/sdk/Peripheral/ch32v30x_usbotg_device.c:485
                                    break;
    3158:	aa09                	j	326a <OTG_FS_IRQHandler+0x35a>
D:/projects/mechanical_arm/Firmware/UWB/libraries/sdk/Peripheral/ch32v30x_usbotg_device.c:489
                                    pDescr = MyCfgDescrHD;
    315a:	6729                	lui	a4,0xa
    315c:	d5c70713          	addi	a4,a4,-676 # 9d5c <MyCfgDescrHD>
    3160:	88e1a823          	sw	a4,-1904(gp) # 200002c0 <pDescr>
D:/projects/mechanical_arm/Firmware/UWB/libraries/sdk/Peripheral/ch32v30x_usbotg_device.c:490
                                    len = MyCfgDescrHD[2];
    3164:	04300793          	li	a5,67
    3168:	fef407a3          	sb	a5,-17(s0)
D:/projects/mechanical_arm/Firmware/UWB/libraries/sdk/Peripheral/ch32v30x_usbotg_device.c:491
                                    break;
    316c:	a8fd                	j	326a <OTG_FS_IRQHandler+0x35a>
D:/projects/mechanical_arm/Firmware/UWB/libraries/sdk/Peripheral/ch32v30x_usbotg_device.c:495 (discriminator 2)
                                    switch( (pSetupReqPakHD->wValue)&0xff )
    316e:	8841a783          	lw	a5,-1916(gp) # 200002b4 <pEP0_RAM_Addr>
    3172:	0027c703          	lbu	a4,2(a5)
    3176:	0037c783          	lbu	a5,3(a5)
    317a:	07a2                	slli	a5,a5,0x8
    317c:	8fd9                	or	a5,a5,a4
    317e:	07c2                	slli	a5,a5,0x10
    3180:	83c1                	srli	a5,a5,0x10
    3182:	0ff7f793          	andi	a5,a5,255
    3186:	4705                	li	a4,1
    3188:	02e78663          	beq	a5,a4,31b4 <OTG_FS_IRQHandler+0x2a4>
    318c:	4705                	li	a4,1
    318e:	00f74463          	blt	a4,a5,3196 <OTG_FS_IRQHandler+0x286>
    3192:	cb89                	beqz	a5,31a4 <OTG_FS_IRQHandler+0x294>
    3194:	a899                	j	31ea <OTG_FS_IRQHandler+0x2da>
    3196:	4709                	li	a4,2
    3198:	02e78763          	beq	a5,a4,31c6 <OTG_FS_IRQHandler+0x2b6>
    319c:	470d                	li	a4,3
    319e:	02e78d63          	beq	a5,a4,31d8 <OTG_FS_IRQHandler+0x2c8>
    31a2:	a0a1                	j	31ea <OTG_FS_IRQHandler+0x2da>
D:/projects/mechanical_arm/Firmware/UWB/libraries/sdk/Peripheral/ch32v30x_usbotg_device.c:499
                                        pDescr = MyLangDescrHD;
    31a4:	82018713          	addi	a4,gp,-2016 # 20000250 <MyLangDescrHD>
    31a8:	88e1a823          	sw	a4,-1904(gp) # 200002c0 <pDescr>
D:/projects/mechanical_arm/Firmware/UWB/libraries/sdk/Peripheral/ch32v30x_usbotg_device.c:500
                                        len = MyLangDescrHD[0];
    31ac:	4791                	li	a5,4
    31ae:	fef407a3          	sb	a5,-17(s0)
D:/projects/mechanical_arm/Firmware/UWB/libraries/sdk/Peripheral/ch32v30x_usbotg_device.c:501
                                            break;
    31b2:	a081                	j	31f2 <OTG_FS_IRQHandler+0x2e2>
D:/projects/mechanical_arm/Firmware/UWB/libraries/sdk/Peripheral/ch32v30x_usbotg_device.c:505
                                            pDescr = MyManuInfoHD;
    31b4:	6729                	lui	a4,0xa
    31b6:	db470713          	addi	a4,a4,-588 # 9db4 <MyManuInfoHD>
    31ba:	88e1a823          	sw	a4,-1904(gp) # 200002c0 <pDescr>
D:/projects/mechanical_arm/Firmware/UWB/libraries/sdk/Peripheral/ch32v30x_usbotg_device.c:506
                                            len = MyManuInfoHD[0];
    31be:	47b9                	li	a5,14
    31c0:	fef407a3          	sb	a5,-17(s0)
D:/projects/mechanical_arm/Firmware/UWB/libraries/sdk/Peripheral/ch32v30x_usbotg_device.c:507
                                            break;
    31c4:	a03d                	j	31f2 <OTG_FS_IRQHandler+0x2e2>
D:/projects/mechanical_arm/Firmware/UWB/libraries/sdk/Peripheral/ch32v30x_usbotg_device.c:511
                                            pDescr = MyProdInfoHD;
    31c6:	6729                	lui	a4,0xa
    31c8:	dc470713          	addi	a4,a4,-572 # 9dc4 <MyProdInfoHD>
    31cc:	88e1a823          	sw	a4,-1904(gp) # 200002c0 <pDescr>
D:/projects/mechanical_arm/Firmware/UWB/libraries/sdk/Peripheral/ch32v30x_usbotg_device.c:512
                                            len = MyProdInfoHD[0];
    31d0:	47b1                	li	a5,12
    31d2:	fef407a3          	sb	a5,-17(s0)
D:/projects/mechanical_arm/Firmware/UWB/libraries/sdk/Peripheral/ch32v30x_usbotg_device.c:513
                                            break;
    31d6:	a831                	j	31f2 <OTG_FS_IRQHandler+0x2e2>
D:/projects/mechanical_arm/Firmware/UWB/libraries/sdk/Peripheral/ch32v30x_usbotg_device.c:517
                                            pDescr = MySerNumInfoHD;
    31d8:	6729                	lui	a4,0xa
    31da:	dd070713          	addi	a4,a4,-560 # 9dd0 <MySerNumInfoHD>
    31de:	88e1a823          	sw	a4,-1904(gp) # 200002c0 <pDescr>
D:/projects/mechanical_arm/Firmware/UWB/libraries/sdk/Peripheral/ch32v30x_usbotg_device.c:518
                                            len = sizeof( MySerNumInfoHD );
    31e2:	47d9                	li	a5,22
    31e4:	fef407a3          	sb	a5,-17(s0)
D:/projects/mechanical_arm/Firmware/UWB/libraries/sdk/Peripheral/ch32v30x_usbotg_device.c:519
                                            break;
    31e8:	a029                	j	31f2 <OTG_FS_IRQHandler+0x2e2>
D:/projects/mechanical_arm/Firmware/UWB/libraries/sdk/Peripheral/ch32v30x_usbotg_device.c:522
                                            errflag = 0xFF;
    31ea:	57fd                	li	a5,-1
    31ec:	fef40723          	sb	a5,-18(s0)
D:/projects/mechanical_arm/Firmware/UWB/libraries/sdk/Peripheral/ch32v30x_usbotg_device.c:523
                                            break;
    31f0:	0001                	nop
D:/projects/mechanical_arm/Firmware/UWB/libraries/sdk/Peripheral/ch32v30x_usbotg_device.c:525
                                    break;
    31f2:	a8a5                	j	326a <OTG_FS_IRQHandler+0x35a>
D:/projects/mechanical_arm/Firmware/UWB/libraries/sdk/Peripheral/ch32v30x_usbotg_device.c:529
                                    pDescr = MyReportDescHD;
    31f4:	6729                	lui	a4,0xa
    31f6:	da070713          	addi	a4,a4,-608 # 9da0 <MyReportDescHD>
    31fa:	88e1a823          	sw	a4,-1904(gp) # 200002c0 <pDescr>
D:/projects/mechanical_arm/Firmware/UWB/libraries/sdk/Peripheral/ch32v30x_usbotg_device.c:530
                                    len = sizeof( MyReportDescHD );
    31fe:	47d1                	li	a5,20
    3200:	fef407a3          	sb	a5,-17(s0)
D:/projects/mechanical_arm/Firmware/UWB/libraries/sdk/Peripheral/ch32v30x_usbotg_device.c:531
                                    break;
    3204:	a09d                	j	326a <OTG_FS_IRQHandler+0x35a>
D:/projects/mechanical_arm/Firmware/UWB/libraries/sdk/Peripheral/ch32v30x_usbotg_device.c:535
                                    pDescr = ( PUINT8 )&MyUSBQUADescHD[ 0 ];
    3206:	6729                	lui	a4,0xa
    3208:	de870713          	addi	a4,a4,-536 # 9de8 <MyUSBQUADescHD>
    320c:	88e1a823          	sw	a4,-1904(gp) # 200002c0 <pDescr>
D:/projects/mechanical_arm/Firmware/UWB/libraries/sdk/Peripheral/ch32v30x_usbotg_device.c:536
                                    len = sizeof( MyUSBQUADescHD );
    3210:	47a9                	li	a5,10
    3212:	fef407a3          	sb	a5,-17(s0)
D:/projects/mechanical_arm/Firmware/UWB/libraries/sdk/Peripheral/ch32v30x_usbotg_device.c:537
                                    break;
    3216:	a891                	j	326a <OTG_FS_IRQHandler+0x35a>
D:/projects/mechanical_arm/Firmware/UWB/libraries/sdk/Peripheral/ch32v30x_usbotg_device.c:542
                                    if( USBHD_Dev_Speed == 0x00 )
    3218:	200007b7          	lui	a5,0x20000
    321c:	2347c783          	lbu	a5,564(a5) # 20000234 <USBHD_Dev_Speed>
    3220:	0ff7f793          	andi	a5,a5,255
    3224:	e79d                	bnez	a5,3252 <OTG_FS_IRQHandler+0x342>
D:/projects/mechanical_arm/Firmware/UWB/libraries/sdk/Peripheral/ch32v30x_usbotg_device.c:545
                                      memcpy( &TAB_USB_FS_OSC_DESC[ 2 ], &MyCfgDescrHD[ 2 ], sizeof( MyCfgDescrHD ) - 2 );
    3226:	04100613          	li	a2,65
    322a:	67a9                	lui	a5,0xa
    322c:	d5e78593          	addi	a1,a5,-674 # 9d5e <MyCfgDescrHD+0x2>
    3230:	200007b7          	lui	a5,0x20000
    3234:	01e78513          	addi	a0,a5,30 # 2000001e <TAB_USB_FS_OSC_DESC+0x2>
    3238:	1a5030ef          	jal	ra,6bdc <memcpy>
D:/projects/mechanical_arm/Firmware/UWB/libraries/sdk/Peripheral/ch32v30x_usbotg_device.c:546
                                      pDescr = ( PUINT8 )&TAB_USB_FS_OSC_DESC[ 0 ];
    323c:	20000737          	lui	a4,0x20000
    3240:	01c70713          	addi	a4,a4,28 # 2000001c <TAB_USB_FS_OSC_DESC>
    3244:	88e1a823          	sw	a4,-1904(gp) # 200002c0 <pDescr>
D:/projects/mechanical_arm/Firmware/UWB/libraries/sdk/Peripheral/ch32v30x_usbotg_device.c:547
                                      len = sizeof( TAB_USB_FS_OSC_DESC );
    3248:	04300793          	li	a5,67
    324c:	fef407a3          	sb	a5,-17(s0)
D:/projects/mechanical_arm/Firmware/UWB/libraries/sdk/Peripheral/ch32v30x_usbotg_device.c:553
                                    break;
    3250:	a829                	j	326a <OTG_FS_IRQHandler+0x35a>
D:/projects/mechanical_arm/Firmware/UWB/libraries/sdk/Peripheral/ch32v30x_usbotg_device.c:551
                                      errflag = 0xFF;
    3252:	57fd                	li	a5,-1
    3254:	fef40723          	sb	a5,-18(s0)
D:/projects/mechanical_arm/Firmware/UWB/libraries/sdk/Peripheral/ch32v30x_usbotg_device.c:553
                                    break;
    3258:	a809                	j	326a <OTG_FS_IRQHandler+0x35a>
D:/projects/mechanical_arm/Firmware/UWB/libraries/sdk/Peripheral/ch32v30x_usbotg_device.c:558
                                    errflag = 0xFF;
    325a:	57fd                	li	a5,-1
    325c:	fef40723          	sb	a5,-18(s0)
D:/projects/mechanical_arm/Firmware/UWB/libraries/sdk/Peripheral/ch32v30x_usbotg_device.c:559
                                    break;
    3260:	a029                	j	326a <OTG_FS_IRQHandler+0x35a>
D:/projects/mechanical_arm/Firmware/UWB/libraries/sdk/Peripheral/ch32v30x_usbotg_device.c:562
                                    errflag = 0xff;
    3262:	57fd                	li	a5,-1
    3264:	fef40723          	sb	a5,-18(s0)
D:/projects/mechanical_arm/Firmware/UWB/libraries/sdk/Peripheral/ch32v30x_usbotg_device.c:563
                                    break;
    3268:	0001                	nop
D:/projects/mechanical_arm/Firmware/UWB/libraries/sdk/Peripheral/ch32v30x_usbotg_device.c:567
                            if( SetupReqLen>len )   SetupReqLen = len;
    326a:	fef44783          	lbu	a5,-17(s0)
    326e:	01079713          	slli	a4,a5,0x10
    3272:	8341                	srli	a4,a4,0x10
    3274:	89a1d783          	lhu	a5,-1894(gp) # 200002ca <SetupReqLen>
    3278:	07c2                	slli	a5,a5,0x10
    327a:	83c1                	srli	a5,a5,0x10
    327c:	00f77963          	bgeu	a4,a5,328e <OTG_FS_IRQHandler+0x37e>
D:/projects/mechanical_arm/Firmware/UWB/libraries/sdk/Peripheral/ch32v30x_usbotg_device.c:567 (discriminator 1)
    3280:	fef44783          	lbu	a5,-17(s0)
    3284:	01079713          	slli	a4,a5,0x10
    3288:	8341                	srli	a4,a4,0x10
    328a:	88e19d23          	sh	a4,-1894(gp) # 200002ca <SetupReqLen>
D:/projects/mechanical_arm/Firmware/UWB/libraries/sdk/Peripheral/ch32v30x_usbotg_device.c:568
                            len = (SetupReqLen >= DevEP0SIZE) ? DevEP0SIZE : SetupReqLen;
    328e:	89a1d783          	lhu	a5,-1894(gp) # 200002ca <SetupReqLen>
    3292:	01079713          	slli	a4,a5,0x10
    3296:	8341                	srli	a4,a4,0x10
    3298:	479d                	li	a5,7
    329a:	00e7e963          	bltu	a5,a4,32ac <OTG_FS_IRQHandler+0x39c>
D:/projects/mechanical_arm/Firmware/UWB/libraries/sdk/Peripheral/ch32v30x_usbotg_device.c:568 (discriminator 1)
    329e:	89a1d783          	lhu	a5,-1894(gp) # 200002ca <SetupReqLen>
    32a2:	07c2                	slli	a5,a5,0x10
    32a4:	83c1                	srli	a5,a5,0x10
    32a6:	0ff7f793          	andi	a5,a5,255
    32aa:	a011                	j	32ae <OTG_FS_IRQHandler+0x39e>
D:/projects/mechanical_arm/Firmware/UWB/libraries/sdk/Peripheral/ch32v30x_usbotg_device.c:568 (discriminator 2)
    32ac:	47a1                	li	a5,8
D:/projects/mechanical_arm/Firmware/UWB/libraries/sdk/Peripheral/ch32v30x_usbotg_device.c:568 (discriminator 4)
    32ae:	fef407a3          	sb	a5,-17(s0)
D:/projects/mechanical_arm/Firmware/UWB/libraries/sdk/Peripheral/ch32v30x_usbotg_device.c:569 (discriminator 4)
                            memcpy( pEP0_DataBuf, pDescr, len );
    32b2:	8841a703          	lw	a4,-1916(gp) # 200002b4 <pEP0_RAM_Addr>
    32b6:	8901a783          	lw	a5,-1904(gp) # 200002c0 <pDescr>
    32ba:	fef44683          	lbu	a3,-17(s0)
    32be:	8636                	mv	a2,a3
    32c0:	85be                	mv	a1,a5
    32c2:	853a                	mv	a0,a4
    32c4:	119030ef          	jal	ra,6bdc <memcpy>
D:/projects/mechanical_arm/Firmware/UWB/libraries/sdk/Peripheral/ch32v30x_usbotg_device.c:570 (discriminator 4)
                            pDescr += len;
    32c8:	8901a703          	lw	a4,-1904(gp) # 200002c0 <pDescr>
    32cc:	fef44783          	lbu	a5,-17(s0)
    32d0:	973e                	add	a4,a4,a5
    32d2:	88e1a823          	sw	a4,-1904(gp) # 200002c0 <pDescr>
D:/projects/mechanical_arm/Firmware/UWB/libraries/sdk/Peripheral/ch32v30x_usbotg_device.c:572 (discriminator 4)
                            break;
    32d6:	a935                	j	3712 <OTG_FS_IRQHandler+0x802>
D:/projects/mechanical_arm/Firmware/UWB/libraries/sdk/Peripheral/ch32v30x_usbotg_device.c:576
                            SetupReqLen = (pSetupReqPakHD->wValue)&0xff;
    32d8:	8841a783          	lw	a5,-1916(gp) # 200002b4 <pEP0_RAM_Addr>
    32dc:	0027c703          	lbu	a4,2(a5)
    32e0:	0037c783          	lbu	a5,3(a5)
    32e4:	07a2                	slli	a5,a5,0x8
    32e6:	8fd9                	or	a5,a5,a4
    32e8:	07c2                	slli	a5,a5,0x10
    32ea:	83c1                	srli	a5,a5,0x10
    32ec:	0ff7f793          	andi	a5,a5,255
    32f0:	01079713          	slli	a4,a5,0x10
    32f4:	8341                	srli	a4,a4,0x10
    32f6:	88e19d23          	sh	a4,-1894(gp) # 200002ca <SetupReqLen>
D:/projects/mechanical_arm/Firmware/UWB/libraries/sdk/Peripheral/ch32v30x_usbotg_device.c:577
                            break;
    32fa:	a921                	j	3712 <OTG_FS_IRQHandler+0x802>
D:/projects/mechanical_arm/Firmware/UWB/libraries/sdk/Peripheral/ch32v30x_usbotg_device.c:581
                            pEP0_DataBuf[0] = DevConfig;
    32fc:	8841a783          	lw	a5,-1916(gp) # 200002b4 <pEP0_RAM_Addr>
    3300:	8971c703          	lbu	a4,-1897(gp) # 200002c7 <DevConfig>
    3304:	0ff77713          	andi	a4,a4,255
    3308:	00e78023          	sb	a4,0(a5)
D:/projects/mechanical_arm/Firmware/UWB/libraries/sdk/Peripheral/ch32v30x_usbotg_device.c:582
                            if ( SetupReqLen > 1 ) SetupReqLen = 1;
    330c:	89a1d783          	lhu	a5,-1894(gp) # 200002ca <SetupReqLen>
    3310:	01079713          	slli	a4,a5,0x10
    3314:	8341                	srli	a4,a4,0x10
    3316:	4785                	li	a5,1
    3318:	3ee7f663          	bgeu	a5,a4,3704 <OTG_FS_IRQHandler+0x7f4>
D:/projects/mechanical_arm/Firmware/UWB/libraries/sdk/Peripheral/ch32v30x_usbotg_device.c:582 (discriminator 1)
    331c:	4705                	li	a4,1
    331e:	88e19d23          	sh	a4,-1894(gp) # 200002ca <SetupReqLen>
D:/projects/mechanical_arm/Firmware/UWB/libraries/sdk/Peripheral/ch32v30x_usbotg_device.c:583 (discriminator 1)
                            break;
    3322:	a6cd                	j	3704 <OTG_FS_IRQHandler+0x7f4>
D:/projects/mechanical_arm/Firmware/UWB/libraries/sdk/Peripheral/ch32v30x_usbotg_device.c:587
                            DevConfig = (pSetupReqPakHD->wValue)&0xff;
    3324:	8841a783          	lw	a5,-1916(gp) # 200002b4 <pEP0_RAM_Addr>
    3328:	0027c703          	lbu	a4,2(a5)
    332c:	0037c783          	lbu	a5,3(a5)
    3330:	07a2                	slli	a5,a5,0x8
    3332:	8fd9                	or	a5,a5,a4
    3334:	07c2                	slli	a5,a5,0x10
    3336:	83c1                	srli	a5,a5,0x10
    3338:	0ff7f713          	andi	a4,a5,255
    333c:	88e18ba3          	sb	a4,-1897(gp) # 200002c7 <DevConfig>
D:/projects/mechanical_arm/Firmware/UWB/libraries/sdk/Peripheral/ch32v30x_usbotg_device.c:588
                            break;
    3340:	aec9                	j	3712 <OTG_FS_IRQHandler+0x802>
D:/projects/mechanical_arm/Firmware/UWB/libraries/sdk/Peripheral/ch32v30x_usbotg_device.c:592
                            if ( ( pSetupReqPakHD->bRequestType & USB_REQ_RECIP_MASK ) == USB_REQ_RECIP_ENDP )
    3342:	8841a783          	lw	a5,-1916(gp) # 200002b4 <pEP0_RAM_Addr>
    3346:	0007c783          	lbu	a5,0(a5)
    334a:	01f7f713          	andi	a4,a5,31
    334e:	4789                	li	a5,2
    3350:	0cf71f63          	bne	a4,a5,342e <OTG_FS_IRQHandler+0x51e>
D:/projects/mechanical_arm/Firmware/UWB/libraries/sdk/Peripheral/ch32v30x_usbotg_device.c:595
                                switch( (pSetupReqPakHD->wIndex)&0xff )
    3354:	8841a783          	lw	a5,-1916(gp) # 200002b4 <pEP0_RAM_Addr>
    3358:	0047c703          	lbu	a4,4(a5)
    335c:	0057c783          	lbu	a5,5(a5)
    3360:	07a2                	slli	a5,a5,0x8
    3362:	8fd9                	or	a5,a5,a4
    3364:	07c2                	slli	a5,a5,0x10
    3366:	83c1                	srli	a5,a5,0x10
    3368:	0ff7f793          	andi	a5,a5,255
    336c:	4709                	li	a4,2
    336e:	04e78863          	beq	a5,a4,33be <OTG_FS_IRQHandler+0x4ae>
    3372:	4709                	li	a4,2
    3374:	00f74663          	blt	a4,a5,3380 <OTG_FS_IRQHandler+0x470>
    3378:	4705                	li	a4,1
    337a:	08e78763          	beq	a5,a4,3408 <OTG_FS_IRQHandler+0x4f8>
    337e:	a05d                	j	3424 <OTG_FS_IRQHandler+0x514>
    3380:	08100713          	li	a4,129
    3384:	04e78b63          	beq	a5,a4,33da <OTG_FS_IRQHandler+0x4ca>
    3388:	08200713          	li	a4,130
    338c:	08e79c63          	bne	a5,a4,3424 <OTG_FS_IRQHandler+0x514>
D:/projects/mechanical_arm/Firmware/UWB/libraries/sdk/Peripheral/ch32v30x_usbotg_device.c:598
                                    USBOTG_FS->UEP2_TX_CTRL = (USBOTG_FS->UEP2_TX_CTRL & ~( USBHD_UEP_T_TOG|USBHD_UEP_T_RES_MASK )) | USBHD_UEP_T_RES_NAK;
    3390:	500007b7          	lui	a5,0x50000
    3394:	03a7c783          	lbu	a5,58(a5) # 5000003a <_eusrstack+0x2fff003a>
    3398:	0ff7f793          	andi	a5,a5,255
    339c:	07e2                	slli	a5,a5,0x18
    339e:	87e1                	srai	a5,a5,0x18
    33a0:	9be1                	andi	a5,a5,-8
    33a2:	07e2                	slli	a5,a5,0x18
    33a4:	87e1                	srai	a5,a5,0x18
    33a6:	0027e793          	ori	a5,a5,2
    33aa:	01879713          	slli	a4,a5,0x18
    33ae:	8761                	srai	a4,a4,0x18
    33b0:	500007b7          	lui	a5,0x50000
    33b4:	0ff77713          	andi	a4,a4,255
    33b8:	02e78d23          	sb	a4,58(a5) # 5000003a <_eusrstack+0x2fff003a>
D:/projects/mechanical_arm/Firmware/UWB/libraries/sdk/Peripheral/ch32v30x_usbotg_device.c:599
                                    break;
    33bc:	a8ad                	j	3436 <OTG_FS_IRQHandler+0x526>
D:/projects/mechanical_arm/Firmware/UWB/libraries/sdk/Peripheral/ch32v30x_usbotg_device.c:602
                                    USBOTG_FS->UEP2_RX_CTRL = (USBOTG_FS->UEP2_RX_CTRL & ~( USBHD_UEP_R_TOG|USBHD_UEP_R_RES_MASK )) | USBHD_UEP_R_RES_ACK;
    33be:	500007b7          	lui	a5,0x50000
    33c2:	03b7c783          	lbu	a5,59(a5) # 5000003b <_eusrstack+0x2fff003b>
    33c6:	0ff7f713          	andi	a4,a5,255
    33ca:	500007b7          	lui	a5,0x50000
    33ce:	9b61                	andi	a4,a4,-8
    33d0:	0ff77713          	andi	a4,a4,255
    33d4:	02e78da3          	sb	a4,59(a5) # 5000003b <_eusrstack+0x2fff003b>
D:/projects/mechanical_arm/Firmware/UWB/libraries/sdk/Peripheral/ch32v30x_usbotg_device.c:603
                                    break;
    33d8:	a8b9                	j	3436 <OTG_FS_IRQHandler+0x526>
D:/projects/mechanical_arm/Firmware/UWB/libraries/sdk/Peripheral/ch32v30x_usbotg_device.c:606
                                    USBOTG_FS->UEP1_TX_CTRL = (USBOTG_FS->UEP1_TX_CTRL & ~( USBHD_UEP_T_TOG|USBHD_UEP_T_RES_MASK )) | USBHD_UEP_T_RES_NAK;
    33da:	500007b7          	lui	a5,0x50000
    33de:	0367c783          	lbu	a5,54(a5) # 50000036 <_eusrstack+0x2fff0036>
    33e2:	0ff7f793          	andi	a5,a5,255
    33e6:	07e2                	slli	a5,a5,0x18
    33e8:	87e1                	srai	a5,a5,0x18
    33ea:	9be1                	andi	a5,a5,-8
    33ec:	07e2                	slli	a5,a5,0x18
    33ee:	87e1                	srai	a5,a5,0x18
    33f0:	0027e793          	ori	a5,a5,2
    33f4:	01879713          	slli	a4,a5,0x18
    33f8:	8761                	srai	a4,a4,0x18
    33fa:	500007b7          	lui	a5,0x50000
    33fe:	0ff77713          	andi	a4,a4,255
    3402:	02e78b23          	sb	a4,54(a5) # 50000036 <_eusrstack+0x2fff0036>
D:/projects/mechanical_arm/Firmware/UWB/libraries/sdk/Peripheral/ch32v30x_usbotg_device.c:607
                                    break;
    3406:	a805                	j	3436 <OTG_FS_IRQHandler+0x526>
D:/projects/mechanical_arm/Firmware/UWB/libraries/sdk/Peripheral/ch32v30x_usbotg_device.c:610
                                    USBOTG_FS->UEP1_RX_CTRL = (USBOTG_FS->UEP1_RX_CTRL & ~( USBHD_UEP_R_TOG|USBHD_UEP_R_RES_MASK )) | USBHD_UEP_R_RES_ACK;
    3408:	500007b7          	lui	a5,0x50000
    340c:	0377c783          	lbu	a5,55(a5) # 50000037 <_eusrstack+0x2fff0037>
    3410:	0ff7f713          	andi	a4,a5,255
    3414:	500007b7          	lui	a5,0x50000
    3418:	9b61                	andi	a4,a4,-8
    341a:	0ff77713          	andi	a4,a4,255
    341e:	02e78ba3          	sb	a4,55(a5) # 50000037 <_eusrstack+0x2fff0037>
D:/projects/mechanical_arm/Firmware/UWB/libraries/sdk/Peripheral/ch32v30x_usbotg_device.c:611
                                    break;
    3422:	a811                	j	3436 <OTG_FS_IRQHandler+0x526>
D:/projects/mechanical_arm/Firmware/UWB/libraries/sdk/Peripheral/ch32v30x_usbotg_device.c:614
                                    errflag = 0xFF;
    3424:	57fd                	li	a5,-1
    3426:	fef40723          	sb	a5,-18(s0)
D:/projects/mechanical_arm/Firmware/UWB/libraries/sdk/Peripheral/ch32v30x_usbotg_device.c:615
                                    break;
    342a:	0001                	nop
    342c:	a029                	j	3436 <OTG_FS_IRQHandler+0x526>
D:/projects/mechanical_arm/Firmware/UWB/libraries/sdk/Peripheral/ch32v30x_usbotg_device.c:619
                            else    errflag = 0xFF;
    342e:	57fd                	li	a5,-1
    3430:	fef40723          	sb	a5,-18(s0)
D:/projects/mechanical_arm/Firmware/UWB/libraries/sdk/Peripheral/ch32v30x_usbotg_device.c:620
                            break;
    3434:	acf9                	j	3712 <OTG_FS_IRQHandler+0x802>
    3436:	acf1                	j	3712 <OTG_FS_IRQHandler+0x802>
D:/projects/mechanical_arm/Firmware/UWB/libraries/sdk/Peripheral/ch32v30x_usbotg_device.c:624
                            if( ( pMySetupReqPakHD->bRequestType & 0x1F ) == 0x00 )
    3438:	87c18793          	addi	a5,gp,-1924 # 200002ac <EP0_DatabufHD>
    343c:	0007c783          	lbu	a5,0(a5)
    3440:	8bfd                	andi	a5,a5,31
    3442:	e3a1                	bnez	a5,3482 <OTG_FS_IRQHandler+0x572>
D:/projects/mechanical_arm/Firmware/UWB/libraries/sdk/Peripheral/ch32v30x_usbotg_device.c:627
                                if( pMySetupReqPakHD->wValue == 0x01 )
    3444:	87c18793          	addi	a5,gp,-1924 # 200002ac <EP0_DatabufHD>
    3448:	0027c703          	lbu	a4,2(a5)
    344c:	0037c783          	lbu	a5,3(a5)
    3450:	07a2                	slli	a5,a5,0x8
    3452:	8fd9                	or	a5,a5,a4
    3454:	01079713          	slli	a4,a5,0x10
    3458:	8341                	srli	a4,a4,0x10
    345a:	4785                	li	a5,1
    345c:	00f71f63          	bne	a4,a5,347a <OTG_FS_IRQHandler+0x56a>
D:/projects/mechanical_arm/Firmware/UWB/libraries/sdk/Peripheral/ch32v30x_usbotg_device.c:629
                                    if( MyCfgDescrHD[ 7 ] & 0x20 )
    3460:	0a000793          	li	a5,160
    3464:	0207f793          	andi	a5,a5,32
    3468:	c789                	beqz	a5,3472 <OTG_FS_IRQHandler+0x562>
D:/projects/mechanical_arm/Firmware/UWB/libraries/sdk/Peripheral/ch32v30x_usbotg_device.c:632
                                        USBHD_Dev_SleepStatus = 0x01;
    346a:	4705                	li	a4,1
    346c:	88e18b23          	sb	a4,-1898(gp) # 200002c6 <USBHD_Dev_SleepStatus>
D:/projects/mechanical_arm/Firmware/UWB/libraries/sdk/Peripheral/ch32v30x_usbotg_device.c:690
                            break;
    3470:	a44d                	j	3712 <OTG_FS_IRQHandler+0x802>
D:/projects/mechanical_arm/Firmware/UWB/libraries/sdk/Peripheral/ch32v30x_usbotg_device.c:636
                                        errflag = 0xFF;
    3472:	57fd                	li	a5,-1
    3474:	fef40723          	sb	a5,-18(s0)
D:/projects/mechanical_arm/Firmware/UWB/libraries/sdk/Peripheral/ch32v30x_usbotg_device.c:690
                            break;
    3478:	ac69                	j	3712 <OTG_FS_IRQHandler+0x802>
D:/projects/mechanical_arm/Firmware/UWB/libraries/sdk/Peripheral/ch32v30x_usbotg_device.c:641
                                    errflag = 0xFF;
    347a:	57fd                	li	a5,-1
    347c:	fef40723          	sb	a5,-18(s0)
D:/projects/mechanical_arm/Firmware/UWB/libraries/sdk/Peripheral/ch32v30x_usbotg_device.c:690
                            break;
    3480:	ac49                	j	3712 <OTG_FS_IRQHandler+0x802>
D:/projects/mechanical_arm/Firmware/UWB/libraries/sdk/Peripheral/ch32v30x_usbotg_device.c:644
                            else if( ( pMySetupReqPakHD->bRequestType & 0x1F ) == 0x02 )
    3482:	87c18793          	addi	a5,gp,-1924 # 200002ac <EP0_DatabufHD>
    3486:	0007c783          	lbu	a5,0(a5)
    348a:	01f7f713          	andi	a4,a5,31
    348e:	4789                	li	a5,2
    3490:	10f71c63          	bne	a4,a5,35a8 <OTG_FS_IRQHandler+0x698>
D:/projects/mechanical_arm/Firmware/UWB/libraries/sdk/Peripheral/ch32v30x_usbotg_device.c:647
                                if( pMySetupReqPakHD->wValue == 0x00 )
    3494:	87c18793          	addi	a5,gp,-1924 # 200002ac <EP0_DatabufHD>
    3498:	0027c703          	lbu	a4,2(a5)
    349c:	0037c783          	lbu	a5,3(a5)
    34a0:	07a2                	slli	a5,a5,0x8
    34a2:	8fd9                	or	a5,a5,a4
    34a4:	07c2                	slli	a5,a5,0x10
    34a6:	83c1                	srli	a5,a5,0x10
    34a8:	efe5                	bnez	a5,35a0 <OTG_FS_IRQHandler+0x690>
D:/projects/mechanical_arm/Firmware/UWB/libraries/sdk/Peripheral/ch32v30x_usbotg_device.c:650
                                    switch( ( pMySetupReqPakHD->wIndex ) & 0xff )
    34aa:	87c18793          	addi	a5,gp,-1924 # 200002ac <EP0_DatabufHD>
    34ae:	0047c703          	lbu	a4,4(a5)
    34b2:	0057c783          	lbu	a5,5(a5)
    34b6:	07a2                	slli	a5,a5,0x8
    34b8:	8fd9                	or	a5,a5,a4
    34ba:	07c2                	slli	a5,a5,0x10
    34bc:	83c1                	srli	a5,a5,0x10
    34be:	0ff7f793          	andi	a5,a5,255
    34c2:	4709                	li	a4,2
    34c4:	04e78763          	beq	a5,a4,3512 <OTG_FS_IRQHandler+0x602>
    34c8:	4709                	li	a4,2
    34ca:	00f74663          	blt	a4,a5,34d6 <OTG_FS_IRQHandler+0x5c6>
    34ce:	4705                	li	a4,1
    34d0:	08e78d63          	beq	a5,a4,356a <OTG_FS_IRQHandler+0x65a>
    34d4:	a0c9                	j	3596 <OTG_FS_IRQHandler+0x686>
    34d6:	08100713          	li	a4,129
    34da:	06e78263          	beq	a5,a4,353e <OTG_FS_IRQHandler+0x62e>
    34de:	08200713          	li	a4,130
    34e2:	0ae79a63          	bne	a5,a4,3596 <OTG_FS_IRQHandler+0x686>
D:/projects/mechanical_arm/Firmware/UWB/libraries/sdk/Peripheral/ch32v30x_usbotg_device.c:654
                                            USBOTG_FS->UEP2_TX_CTRL = ( USBOTG_FS->UEP2_TX_CTRL &= ~USBHD_UEP_T_RES_MASK ) | USBHD_UEP_T_RES_STALL;
    34e6:	500007b7          	lui	a5,0x50000
    34ea:	03a7c783          	lbu	a5,58(a5) # 5000003a <_eusrstack+0x2fff003a>
    34ee:	0ff7f793          	andi	a5,a5,255
    34f2:	50000737          	lui	a4,0x50000
    34f6:	9bf1                	andi	a5,a5,-4
    34f8:	0ff7f793          	andi	a5,a5,255
    34fc:	02f70d23          	sb	a5,58(a4) # 5000003a <_eusrstack+0x2fff003a>
    3500:	50000737          	lui	a4,0x50000
    3504:	0037e793          	ori	a5,a5,3
    3508:	0ff7f793          	andi	a5,a5,255
    350c:	02f70d23          	sb	a5,58(a4) # 5000003a <_eusrstack+0x2fff003a>
D:/projects/mechanical_arm/Firmware/UWB/libraries/sdk/Peripheral/ch32v30x_usbotg_device.c:656
                                            break;
    3510:	a045                	j	35b0 <OTG_FS_IRQHandler+0x6a0>
D:/projects/mechanical_arm/Firmware/UWB/libraries/sdk/Peripheral/ch32v30x_usbotg_device.c:660
                                            USBOTG_FS->UEP2_RX_CTRL = ( USBOTG_FS->UEP2_RX_CTRL &= ~USBHD_UEP_R_RES_MASK ) | USBHD_UEP_R_RES_STALL;
    3512:	500007b7          	lui	a5,0x50000
    3516:	03b7c783          	lbu	a5,59(a5) # 5000003b <_eusrstack+0x2fff003b>
    351a:	0ff7f793          	andi	a5,a5,255
    351e:	50000737          	lui	a4,0x50000
    3522:	9bf1                	andi	a5,a5,-4
    3524:	0ff7f793          	andi	a5,a5,255
    3528:	02f70da3          	sb	a5,59(a4) # 5000003b <_eusrstack+0x2fff003b>
    352c:	50000737          	lui	a4,0x50000
    3530:	0037e793          	ori	a5,a5,3
    3534:	0ff7f793          	andi	a5,a5,255
    3538:	02f70da3          	sb	a5,59(a4) # 5000003b <_eusrstack+0x2fff003b>
D:/projects/mechanical_arm/Firmware/UWB/libraries/sdk/Peripheral/ch32v30x_usbotg_device.c:662
                                            break;
    353c:	a895                	j	35b0 <OTG_FS_IRQHandler+0x6a0>
D:/projects/mechanical_arm/Firmware/UWB/libraries/sdk/Peripheral/ch32v30x_usbotg_device.c:666
                                            USBOTG_FS->UEP1_TX_CTRL = ( USBOTG_FS->UEP1_TX_CTRL &= ~USBHD_UEP_T_RES_MASK ) | USBHD_UEP_T_RES_STALL;
    353e:	500007b7          	lui	a5,0x50000
    3542:	0367c783          	lbu	a5,54(a5) # 50000036 <_eusrstack+0x2fff0036>
    3546:	0ff7f793          	andi	a5,a5,255
    354a:	50000737          	lui	a4,0x50000
    354e:	9bf1                	andi	a5,a5,-4
    3550:	0ff7f793          	andi	a5,a5,255
    3554:	02f70b23          	sb	a5,54(a4) # 50000036 <_eusrstack+0x2fff0036>
    3558:	50000737          	lui	a4,0x50000
    355c:	0037e793          	ori	a5,a5,3
    3560:	0ff7f793          	andi	a5,a5,255
    3564:	02f70b23          	sb	a5,54(a4) # 50000036 <_eusrstack+0x2fff0036>
D:/projects/mechanical_arm/Firmware/UWB/libraries/sdk/Peripheral/ch32v30x_usbotg_device.c:668
                                            break;
    3568:	a0a1                	j	35b0 <OTG_FS_IRQHandler+0x6a0>
D:/projects/mechanical_arm/Firmware/UWB/libraries/sdk/Peripheral/ch32v30x_usbotg_device.c:672
                                            USBOTG_FS->UEP1_RX_CTRL = ( USBOTG_FS->UEP1_RX_CTRL &= ~USBHD_UEP_R_RES_MASK ) | USBHD_UEP_R_RES_STALL;
    356a:	500007b7          	lui	a5,0x50000
    356e:	0377c783          	lbu	a5,55(a5) # 50000037 <_eusrstack+0x2fff0037>
    3572:	0ff7f793          	andi	a5,a5,255
    3576:	50000737          	lui	a4,0x50000
    357a:	9bf1                	andi	a5,a5,-4
    357c:	0ff7f793          	andi	a5,a5,255
    3580:	02f70ba3          	sb	a5,55(a4) # 50000037 <_eusrstack+0x2fff0037>
    3584:	50000737          	lui	a4,0x50000
    3588:	0037e793          	ori	a5,a5,3
    358c:	0ff7f793          	andi	a5,a5,255
    3590:	02f70ba3          	sb	a5,55(a4) # 50000037 <_eusrstack+0x2fff0037>
D:/projects/mechanical_arm/Firmware/UWB/libraries/sdk/Peripheral/ch32v30x_usbotg_device.c:674
                                            break;
    3594:	a831                	j	35b0 <OTG_FS_IRQHandler+0x6a0>
D:/projects/mechanical_arm/Firmware/UWB/libraries/sdk/Peripheral/ch32v30x_usbotg_device.c:677
                                            errflag = 0xFF;
    3596:	57fd                	li	a5,-1
    3598:	fef40723          	sb	a5,-18(s0)
D:/projects/mechanical_arm/Firmware/UWB/libraries/sdk/Peripheral/ch32v30x_usbotg_device.c:678
                                            break;
    359c:	0001                	nop
    359e:	a809                	j	35b0 <OTG_FS_IRQHandler+0x6a0>
D:/projects/mechanical_arm/Firmware/UWB/libraries/sdk/Peripheral/ch32v30x_usbotg_device.c:683
                                    errflag = 0xFF;
    35a0:	57fd                	li	a5,-1
    35a2:	fef40723          	sb	a5,-18(s0)
D:/projects/mechanical_arm/Firmware/UWB/libraries/sdk/Peripheral/ch32v30x_usbotg_device.c:690
                            break;
    35a6:	a2b5                	j	3712 <OTG_FS_IRQHandler+0x802>
D:/projects/mechanical_arm/Firmware/UWB/libraries/sdk/Peripheral/ch32v30x_usbotg_device.c:688
                                errflag = 0xFF;
    35a8:	57fd                	li	a5,-1
    35aa:	fef40723          	sb	a5,-18(s0)
D:/projects/mechanical_arm/Firmware/UWB/libraries/sdk/Peripheral/ch32v30x_usbotg_device.c:690
                            break;
    35ae:	a295                	j	3712 <OTG_FS_IRQHandler+0x802>
D:/projects/mechanical_arm/Firmware/UWB/libraries/sdk/Peripheral/ch32v30x_usbotg_device.c:690 (discriminator 4)
    35b0:	a28d                	j	3712 <OTG_FS_IRQHandler+0x802>
D:/projects/mechanical_arm/Firmware/UWB/libraries/sdk/Peripheral/ch32v30x_usbotg_device.c:694
                            pEP0_DataBuf[0] = 0x00;
    35b2:	8841a783          	lw	a5,-1916(gp) # 200002b4 <pEP0_RAM_Addr>
    35b6:	00078023          	sb	zero,0(a5)
D:/projects/mechanical_arm/Firmware/UWB/libraries/sdk/Peripheral/ch32v30x_usbotg_device.c:695
                            if ( SetupReqLen > 1 ) SetupReqLen = 1;
    35ba:	89a1d783          	lhu	a5,-1894(gp) # 200002ca <SetupReqLen>
    35be:	01079713          	slli	a4,a5,0x10
    35c2:	8341                	srli	a4,a4,0x10
    35c4:	4785                	li	a5,1
    35c6:	14e7f163          	bgeu	a5,a4,3708 <OTG_FS_IRQHandler+0x7f8>
D:/projects/mechanical_arm/Firmware/UWB/libraries/sdk/Peripheral/ch32v30x_usbotg_device.c:695 (discriminator 1)
    35ca:	4705                	li	a4,1
    35cc:	88e19d23          	sh	a4,-1894(gp) # 200002ca <SetupReqLen>
D:/projects/mechanical_arm/Firmware/UWB/libraries/sdk/Peripheral/ch32v30x_usbotg_device.c:696 (discriminator 1)
                            break;
    35d0:	aa25                	j	3708 <OTG_FS_IRQHandler+0x7f8>
D:/projects/mechanical_arm/Firmware/UWB/libraries/sdk/Peripheral/ch32v30x_usbotg_device.c:700
                            EP0_DatabufHD[ 0 ] = 0x00;
    35d2:	86018e23          	sb	zero,-1924(gp) # 200002ac <EP0_DatabufHD>
D:/projects/mechanical_arm/Firmware/UWB/libraries/sdk/Peripheral/ch32v30x_usbotg_device.c:701
                            if( USBHD_Dev_SetupReqLen > 1 )
    35d6:	8941d783          	lhu	a5,-1900(gp) # 200002c4 <USBHD_Dev_SetupReqLen>
    35da:	01079713          	slli	a4,a5,0x10
    35de:	8341                	srli	a4,a4,0x10
    35e0:	4785                	li	a5,1
    35e2:	12e7f563          	bgeu	a5,a4,370c <OTG_FS_IRQHandler+0x7fc>
D:/projects/mechanical_arm/Firmware/UWB/libraries/sdk/Peripheral/ch32v30x_usbotg_device.c:703
                                USBHD_Dev_SetupReqLen = 1;
    35e6:	4705                	li	a4,1
    35e8:	88e19a23          	sh	a4,-1900(gp) # 200002c4 <USBHD_Dev_SetupReqLen>
D:/projects/mechanical_arm/Firmware/UWB/libraries/sdk/Peripheral/ch32v30x_usbotg_device.c:705
                            break;
    35ec:	a205                	j	370c <OTG_FS_IRQHandler+0x7fc>
D:/projects/mechanical_arm/Firmware/UWB/libraries/sdk/Peripheral/ch32v30x_usbotg_device.c:709
                            EP0_DatabufHD[ 0 ] = 0x00;
    35ee:	86018e23          	sb	zero,-1924(gp) # 200002ac <EP0_DatabufHD>
D:/projects/mechanical_arm/Firmware/UWB/libraries/sdk/Peripheral/ch32v30x_usbotg_device.c:710
                            EP0_DatabufHD[ 1 ] = 0x00;
    35f2:	87c18793          	addi	a5,gp,-1924 # 200002ac <EP0_DatabufHD>
    35f6:	000780a3          	sb	zero,1(a5)
D:/projects/mechanical_arm/Firmware/UWB/libraries/sdk/Peripheral/ch32v30x_usbotg_device.c:711
                            if( pMySetupReqPakHD->wIndex == 0x81 )
    35fa:	87c18793          	addi	a5,gp,-1924 # 200002ac <EP0_DatabufHD>
    35fe:	0047c703          	lbu	a4,4(a5)
    3602:	0057c783          	lbu	a5,5(a5)
    3606:	07a2                	slli	a5,a5,0x8
    3608:	8fd9                	or	a5,a5,a4
    360a:	01079713          	slli	a4,a5,0x10
    360e:	8341                	srli	a4,a4,0x10
    3610:	08100793          	li	a5,129
    3614:	02f71163          	bne	a4,a5,3636 <OTG_FS_IRQHandler+0x726>
D:/projects/mechanical_arm/Firmware/UWB/libraries/sdk/Peripheral/ch32v30x_usbotg_device.c:713
                                if( ( USBOTG_FS->UEP1_TX_CTRL & USBHD_UEP_T_RES_MASK ) == USBHD_UEP_T_RES_STALL )
    3618:	500007b7          	lui	a5,0x50000
    361c:	0367c783          	lbu	a5,54(a5) # 50000036 <_eusrstack+0x2fff0036>
    3620:	0ff7f793          	andi	a5,a5,255
    3624:	0037f713          	andi	a4,a5,3
    3628:	478d                	li	a5,3
    362a:	0af71d63          	bne	a4,a5,36e4 <OTG_FS_IRQHandler+0x7d4>
D:/projects/mechanical_arm/Firmware/UWB/libraries/sdk/Peripheral/ch32v30x_usbotg_device.c:715
                                    EP0_DatabufHD[ 0 ] = 0x01;
    362e:	4705                	li	a4,1
    3630:	86e18e23          	sb	a4,-1924(gp) # 200002ac <EP0_DatabufHD>
    3634:	a845                	j	36e4 <OTG_FS_IRQHandler+0x7d4>
D:/projects/mechanical_arm/Firmware/UWB/libraries/sdk/Peripheral/ch32v30x_usbotg_device.c:718
                            else if( pMySetupReqPakHD->wIndex == 0x01 )
    3636:	87c18793          	addi	a5,gp,-1924 # 200002ac <EP0_DatabufHD>
    363a:	0047c703          	lbu	a4,4(a5)
    363e:	0057c783          	lbu	a5,5(a5)
    3642:	07a2                	slli	a5,a5,0x8
    3644:	8fd9                	or	a5,a5,a4
    3646:	01079713          	slli	a4,a5,0x10
    364a:	8341                	srli	a4,a4,0x10
    364c:	4785                	li	a5,1
    364e:	02f71163          	bne	a4,a5,3670 <OTG_FS_IRQHandler+0x760>
D:/projects/mechanical_arm/Firmware/UWB/libraries/sdk/Peripheral/ch32v30x_usbotg_device.c:720
                                if( ( USBOTG_FS->UEP1_RX_CTRL & USBHD_UEP_R_RES_MASK ) == USBHD_UEP_R_RES_STALL )
    3652:	500007b7          	lui	a5,0x50000
    3656:	0377c783          	lbu	a5,55(a5) # 50000037 <_eusrstack+0x2fff0037>
    365a:	0ff7f793          	andi	a5,a5,255
    365e:	0037f713          	andi	a4,a5,3
    3662:	478d                	li	a5,3
    3664:	08f71063          	bne	a4,a5,36e4 <OTG_FS_IRQHandler+0x7d4>
D:/projects/mechanical_arm/Firmware/UWB/libraries/sdk/Peripheral/ch32v30x_usbotg_device.c:722
                                    EP0_DatabufHD[ 0 ] = 0x01;
    3668:	4705                	li	a4,1
    366a:	86e18e23          	sb	a4,-1924(gp) # 200002ac <EP0_DatabufHD>
    366e:	a89d                	j	36e4 <OTG_FS_IRQHandler+0x7d4>
D:/projects/mechanical_arm/Firmware/UWB/libraries/sdk/Peripheral/ch32v30x_usbotg_device.c:725
                            else if( pMySetupReqPakHD->wIndex == 0x82 )
    3670:	87c18793          	addi	a5,gp,-1924 # 200002ac <EP0_DatabufHD>
    3674:	0047c703          	lbu	a4,4(a5)
    3678:	0057c783          	lbu	a5,5(a5)
    367c:	07a2                	slli	a5,a5,0x8
    367e:	8fd9                	or	a5,a5,a4
    3680:	01079713          	slli	a4,a5,0x10
    3684:	8341                	srli	a4,a4,0x10
    3686:	08200793          	li	a5,130
    368a:	02f71163          	bne	a4,a5,36ac <OTG_FS_IRQHandler+0x79c>
D:/projects/mechanical_arm/Firmware/UWB/libraries/sdk/Peripheral/ch32v30x_usbotg_device.c:727
                                if( ( USBOTG_FS->UEP2_TX_CTRL & USBHD_UEP_T_RES_MASK ) == USBHD_UEP_T_RES_STALL )
    368e:	500007b7          	lui	a5,0x50000
    3692:	03a7c783          	lbu	a5,58(a5) # 5000003a <_eusrstack+0x2fff003a>
    3696:	0ff7f793          	andi	a5,a5,255
    369a:	0037f713          	andi	a4,a5,3
    369e:	478d                	li	a5,3
    36a0:	04f71263          	bne	a4,a5,36e4 <OTG_FS_IRQHandler+0x7d4>
D:/projects/mechanical_arm/Firmware/UWB/libraries/sdk/Peripheral/ch32v30x_usbotg_device.c:729
                                    EP0_DatabufHD[ 0 ] = 0x01;
    36a4:	4705                	li	a4,1
    36a6:	86e18e23          	sb	a4,-1924(gp) # 200002ac <EP0_DatabufHD>
    36aa:	a82d                	j	36e4 <OTG_FS_IRQHandler+0x7d4>
D:/projects/mechanical_arm/Firmware/UWB/libraries/sdk/Peripheral/ch32v30x_usbotg_device.c:732
                            else if( pMySetupReqPakHD->wIndex == 0x02 )
    36ac:	87c18793          	addi	a5,gp,-1924 # 200002ac <EP0_DatabufHD>
    36b0:	0047c703          	lbu	a4,4(a5)
    36b4:	0057c783          	lbu	a5,5(a5)
    36b8:	07a2                	slli	a5,a5,0x8
    36ba:	8fd9                	or	a5,a5,a4
    36bc:	01079713          	slli	a4,a5,0x10
    36c0:	8341                	srli	a4,a4,0x10
    36c2:	4789                	li	a5,2
    36c4:	02f71063          	bne	a4,a5,36e4 <OTG_FS_IRQHandler+0x7d4>
D:/projects/mechanical_arm/Firmware/UWB/libraries/sdk/Peripheral/ch32v30x_usbotg_device.c:734
                                if( ( USBOTG_FS->UEP2_RX_CTRL & USBHD_UEP_R_RES_MASK ) == USBHD_UEP_R_RES_STALL )
    36c8:	500007b7          	lui	a5,0x50000
    36cc:	03b7c783          	lbu	a5,59(a5) # 5000003b <_eusrstack+0x2fff003b>
    36d0:	0ff7f793          	andi	a5,a5,255
    36d4:	0037f713          	andi	a4,a5,3
    36d8:	478d                	li	a5,3
    36da:	00f71563          	bne	a4,a5,36e4 <OTG_FS_IRQHandler+0x7d4>
D:/projects/mechanical_arm/Firmware/UWB/libraries/sdk/Peripheral/ch32v30x_usbotg_device.c:736
                                    EP0_DatabufHD[ 0 ] = 0x01;
    36de:	4705                	li	a4,1
    36e0:	86e18e23          	sb	a4,-1924(gp) # 200002ac <EP0_DatabufHD>
D:/projects/mechanical_arm/Firmware/UWB/libraries/sdk/Peripheral/ch32v30x_usbotg_device.c:739
                            if( USBHD_Dev_SetupReqLen > 2 )
    36e4:	8941d783          	lhu	a5,-1900(gp) # 200002c4 <USBHD_Dev_SetupReqLen>
    36e8:	01079713          	slli	a4,a5,0x10
    36ec:	8341                	srli	a4,a4,0x10
    36ee:	4789                	li	a5,2
    36f0:	02e7f063          	bgeu	a5,a4,3710 <OTG_FS_IRQHandler+0x800>
D:/projects/mechanical_arm/Firmware/UWB/libraries/sdk/Peripheral/ch32v30x_usbotg_device.c:741
                                USBHD_Dev_SetupReqLen = 2;
    36f4:	4709                	li	a4,2
    36f6:	88e19a23          	sh	a4,-1900(gp) # 200002c4 <USBHD_Dev_SetupReqLen>
D:/projects/mechanical_arm/Firmware/UWB/libraries/sdk/Peripheral/ch32v30x_usbotg_device.c:743
                            break;
    36fa:	a819                	j	3710 <OTG_FS_IRQHandler+0x800>
D:/projects/mechanical_arm/Firmware/UWB/libraries/sdk/Peripheral/ch32v30x_usbotg_device.c:746
                            errflag = 0xFF;
    36fc:	57fd                	li	a5,-1
    36fe:	fef40723          	sb	a5,-18(s0)
D:/projects/mechanical_arm/Firmware/UWB/libraries/sdk/Peripheral/ch32v30x_usbotg_device.c:747
                            break;
    3702:	a801                	j	3712 <OTG_FS_IRQHandler+0x802>
D:/projects/mechanical_arm/Firmware/UWB/libraries/sdk/Peripheral/ch32v30x_usbotg_device.c:583
                            break;
    3704:	0001                	nop
    3706:	a031                	j	3712 <OTG_FS_IRQHandler+0x802>
D:/projects/mechanical_arm/Firmware/UWB/libraries/sdk/Peripheral/ch32v30x_usbotg_device.c:696
                            break;
    3708:	0001                	nop
    370a:	a021                	j	3712 <OTG_FS_IRQHandler+0x802>
D:/projects/mechanical_arm/Firmware/UWB/libraries/sdk/Peripheral/ch32v30x_usbotg_device.c:705
                            break;
    370c:	0001                	nop
    370e:	a011                	j	3712 <OTG_FS_IRQHandler+0x802>
D:/projects/mechanical_arm/Firmware/UWB/libraries/sdk/Peripheral/ch32v30x_usbotg_device.c:743
                            break;
    3710:	0001                	nop
D:/projects/mechanical_arm/Firmware/UWB/libraries/sdk/Peripheral/ch32v30x_usbotg_device.c:750
                if( errflag == 0xff)
    3712:	fee44703          	lbu	a4,-18(s0)
    3716:	0ff00793          	li	a5,255
    371a:	00f71d63          	bne	a4,a5,3734 <OTG_FS_IRQHandler+0x824>
D:/projects/mechanical_arm/Firmware/UWB/libraries/sdk/Peripheral/ch32v30x_usbotg_device.c:753
                    USBOTG_FS->UEP0_TX_CTRL = USBHD_UEP_T_TOG|USBHD_UEP_T_RES_STALL;
    371e:	500007b7          	lui	a5,0x50000
    3722:	471d                	li	a4,7
    3724:	02e78923          	sb	a4,50(a5) # 50000032 <_eusrstack+0x2fff0032>
D:/projects/mechanical_arm/Firmware/UWB/libraries/sdk/Peripheral/ch32v30x_usbotg_device.c:754
                    USBOTG_FS->UEP0_RX_CTRL = USBHD_UEP_R_TOG|USBHD_UEP_R_RES_STALL;
    3728:	500007b7          	lui	a5,0x50000
    372c:	471d                	li	a4,7
    372e:	02e789a3          	sb	a4,51(a5) # 50000033 <_eusrstack+0x2fff0033>
D:/projects/mechanical_arm/Firmware/UWB/libraries/sdk/Peripheral/ch32v30x_usbotg_device.c:769
                break;
    3732:	ae65                	j	3aea <OTG_FS_IRQHandler+0xbda>
D:/projects/mechanical_arm/Firmware/UWB/libraries/sdk/Peripheral/ch32v30x_usbotg_device.c:758
                    if( chtype & 0x80 )
    3734:	fec40783          	lb	a5,-20(s0)
    3738:	0407d563          	bgez	a5,3782 <OTG_FS_IRQHandler+0x872>
D:/projects/mechanical_arm/Firmware/UWB/libraries/sdk/Peripheral/ch32v30x_usbotg_device.c:760
                        len = (SetupReqLen>DevEP0SIZE) ? DevEP0SIZE : SetupReqLen;
    373c:	89a1d783          	lhu	a5,-1894(gp) # 200002ca <SetupReqLen>
    3740:	01079713          	slli	a4,a5,0x10
    3744:	8341                	srli	a4,a4,0x10
    3746:	47a1                	li	a5,8
    3748:	00e7e963          	bltu	a5,a4,375a <OTG_FS_IRQHandler+0x84a>
D:/projects/mechanical_arm/Firmware/UWB/libraries/sdk/Peripheral/ch32v30x_usbotg_device.c:760 (discriminator 1)
    374c:	89a1d783          	lhu	a5,-1894(gp) # 200002ca <SetupReqLen>
    3750:	07c2                	slli	a5,a5,0x10
    3752:	83c1                	srli	a5,a5,0x10
    3754:	0ff7f793          	andi	a5,a5,255
    3758:	a011                	j	375c <OTG_FS_IRQHandler+0x84c>
D:/projects/mechanical_arm/Firmware/UWB/libraries/sdk/Peripheral/ch32v30x_usbotg_device.c:760 (discriminator 2)
    375a:	47a1                	li	a5,8
D:/projects/mechanical_arm/Firmware/UWB/libraries/sdk/Peripheral/ch32v30x_usbotg_device.c:760 (discriminator 4)
    375c:	fef407a3          	sb	a5,-17(s0)
D:/projects/mechanical_arm/Firmware/UWB/libraries/sdk/Peripheral/ch32v30x_usbotg_device.c:761 (discriminator 4)
                        SetupReqLen -= len;
    3760:	89a1d783          	lhu	a5,-1894(gp) # 200002ca <SetupReqLen>
    3764:	01079713          	slli	a4,a5,0x10
    3768:	8341                	srli	a4,a4,0x10
    376a:	fef44783          	lbu	a5,-17(s0)
    376e:	07c2                	slli	a5,a5,0x10
    3770:	83c1                	srli	a5,a5,0x10
    3772:	40f707b3          	sub	a5,a4,a5
    3776:	01079713          	slli	a4,a5,0x10
    377a:	8341                	srli	a4,a4,0x10
    377c:	88e19d23          	sh	a4,-1894(gp) # 200002ca <SetupReqLen>
    3780:	a019                	j	3786 <OTG_FS_IRQHandler+0x876>
D:/projects/mechanical_arm/Firmware/UWB/libraries/sdk/Peripheral/ch32v30x_usbotg_device.c:763
                    else  len = 0;
    3782:	fe0407a3          	sb	zero,-17(s0)
D:/projects/mechanical_arm/Firmware/UWB/libraries/sdk/Peripheral/ch32v30x_usbotg_device.c:765
                    USBOTG_FS->UEP0_TX_LEN  = len;
    3786:	500007b7          	lui	a5,0x50000
    378a:	fef44703          	lbu	a4,-17(s0)
    378e:	0742                	slli	a4,a4,0x10
    3790:	8341                	srli	a4,a4,0x10
    3792:	02e79823          	sh	a4,48(a5) # 50000030 <_eusrstack+0x2fff0030>
D:/projects/mechanical_arm/Firmware/UWB/libraries/sdk/Peripheral/ch32v30x_usbotg_device.c:766
                    USBOTG_FS->UEP0_TX_CTRL = USBHD_UEP_T_TOG|USBHD_UEP_T_RES_ACK;
    3796:	500007b7          	lui	a5,0x50000
    379a:	4711                	li	a4,4
    379c:	02e78923          	sb	a4,50(a5) # 50000032 <_eusrstack+0x2fff0032>
D:/projects/mechanical_arm/Firmware/UWB/libraries/sdk/Peripheral/ch32v30x_usbotg_device.c:767
                    USBOTG_FS->UEP0_RX_CTRL = USBHD_UEP_R_TOG|USBHD_UEP_R_RES_ACK;
    37a0:	500007b7          	lui	a5,0x50000
    37a4:	4711                	li	a4,4
    37a6:	02e789a3          	sb	a4,51(a5) # 50000033 <_eusrstack+0x2fff0033>
D:/projects/mechanical_arm/Firmware/UWB/libraries/sdk/Peripheral/ch32v30x_usbotg_device.c:769
                break;
    37aa:	a681                	j	3aea <OTG_FS_IRQHandler+0xbda>
D:/projects/mechanical_arm/Firmware/UWB/libraries/sdk/Peripheral/ch32v30x_usbotg_device.c:772
                switch ( USBOTG_FS->INT_ST & ( USBHD_UIS_TOKEN_MASK | USBHD_UIS_ENDP_MASK ) )
    37ac:	500007b7          	lui	a5,0x50000
    37b0:	0077c783          	lbu	a5,7(a5) # 50000007 <_eusrstack+0x2fff0007>
    37b4:	0ff7f793          	andi	a5,a5,255
    37b8:	03f7f793          	andi	a5,a5,63
    37bc:	02100713          	li	a4,33
    37c0:	12e78563          	beq	a5,a4,38ea <OTG_FS_IRQHandler+0x9da>
    37c4:	02200713          	li	a4,34
    37c8:	14e78d63          	beq	a5,a4,3922 <OTG_FS_IRQHandler+0xa12>
    37cc:	02000713          	li	a4,32
    37d0:	18e79e63          	bne	a5,a4,396c <OTG_FS_IRQHandler+0xa5c>
D:/projects/mechanical_arm/Firmware/UWB/libraries/sdk/Peripheral/ch32v30x_usbotg_device.c:775 (discriminator 6)
                        switch( SetupReqCode )
    37d4:	8981c783          	lbu	a5,-1896(gp) # 200002c8 <SetupReqCode>
    37d8:	0ff7f793          	andi	a5,a5,255
    37dc:	4715                	li	a4,5
    37de:	0ae78063          	beq	a5,a4,387e <OTG_FS_IRQHandler+0x96e>
    37e2:	4719                	li	a4,6
    37e4:	0ee79463          	bne	a5,a4,38cc <OTG_FS_IRQHandler+0x9bc>
D:/projects/mechanical_arm/Firmware/UWB/libraries/sdk/Peripheral/ch32v30x_usbotg_device.c:778
                                    len = SetupReqLen >= DevEP0SIZE ? DevEP0SIZE : SetupReqLen;
    37e8:	89a1d783          	lhu	a5,-1894(gp) # 200002ca <SetupReqLen>
    37ec:	01079713          	slli	a4,a5,0x10
    37f0:	8341                	srli	a4,a4,0x10
    37f2:	479d                	li	a5,7
    37f4:	00e7e963          	bltu	a5,a4,3806 <OTG_FS_IRQHandler+0x8f6>
D:/projects/mechanical_arm/Firmware/UWB/libraries/sdk/Peripheral/ch32v30x_usbotg_device.c:778 (discriminator 1)
    37f8:	89a1d783          	lhu	a5,-1894(gp) # 200002ca <SetupReqLen>
    37fc:	07c2                	slli	a5,a5,0x10
    37fe:	83c1                	srli	a5,a5,0x10
    3800:	0ff7f793          	andi	a5,a5,255
    3804:	a011                	j	3808 <OTG_FS_IRQHandler+0x8f8>
D:/projects/mechanical_arm/Firmware/UWB/libraries/sdk/Peripheral/ch32v30x_usbotg_device.c:778 (discriminator 2)
    3806:	47a1                	li	a5,8
D:/projects/mechanical_arm/Firmware/UWB/libraries/sdk/Peripheral/ch32v30x_usbotg_device.c:778 (discriminator 4)
    3808:	fef407a3          	sb	a5,-17(s0)
D:/projects/mechanical_arm/Firmware/UWB/libraries/sdk/Peripheral/ch32v30x_usbotg_device.c:779 (discriminator 4)
                                    memcpy( pEP0_DataBuf, pDescr, len );
    380c:	8841a703          	lw	a4,-1916(gp) # 200002b4 <pEP0_RAM_Addr>
    3810:	8901a783          	lw	a5,-1904(gp) # 200002c0 <pDescr>
    3814:	fef44683          	lbu	a3,-17(s0)
    3818:	8636                	mv	a2,a3
    381a:	85be                	mv	a1,a5
    381c:	853a                	mv	a0,a4
    381e:	3be030ef          	jal	ra,6bdc <memcpy>
D:/projects/mechanical_arm/Firmware/UWB/libraries/sdk/Peripheral/ch32v30x_usbotg_device.c:780 (discriminator 4)
                                    SetupReqLen -= len;
    3822:	89a1d783          	lhu	a5,-1894(gp) # 200002ca <SetupReqLen>
    3826:	01079713          	slli	a4,a5,0x10
    382a:	8341                	srli	a4,a4,0x10
    382c:	fef44783          	lbu	a5,-17(s0)
    3830:	07c2                	slli	a5,a5,0x10
    3832:	83c1                	srli	a5,a5,0x10
    3834:	40f707b3          	sub	a5,a4,a5
    3838:	01079713          	slli	a4,a5,0x10
    383c:	8341                	srli	a4,a4,0x10
    383e:	88e19d23          	sh	a4,-1894(gp) # 200002ca <SetupReqLen>
D:/projects/mechanical_arm/Firmware/UWB/libraries/sdk/Peripheral/ch32v30x_usbotg_device.c:781 (discriminator 4)
                                    pDescr += len;
    3842:	8901a703          	lw	a4,-1904(gp) # 200002c0 <pDescr>
    3846:	fef44783          	lbu	a5,-17(s0)
    384a:	973e                	add	a4,a4,a5
    384c:	88e1a823          	sw	a4,-1904(gp) # 200002c0 <pDescr>
D:/projects/mechanical_arm/Firmware/UWB/libraries/sdk/Peripheral/ch32v30x_usbotg_device.c:782 (discriminator 4)
                                    USBOTG_FS->UEP0_TX_LEN   = len;
    3850:	500007b7          	lui	a5,0x50000
    3854:	fef44703          	lbu	a4,-17(s0)
    3858:	0742                	slli	a4,a4,0x10
    385a:	8341                	srli	a4,a4,0x10
    385c:	02e79823          	sh	a4,48(a5) # 50000030 <_eusrstack+0x2fff0030>
D:/projects/mechanical_arm/Firmware/UWB/libraries/sdk/Peripheral/ch32v30x_usbotg_device.c:783 (discriminator 4)
                                    USBOTG_FS->UEP0_TX_CTRL ^= USBHD_UEP_T_TOG;
    3860:	500007b7          	lui	a5,0x50000
    3864:	0327c783          	lbu	a5,50(a5) # 50000032 <_eusrstack+0x2fff0032>
    3868:	0ff7f713          	andi	a4,a5,255
    386c:	500007b7          	lui	a5,0x50000
    3870:	00474713          	xori	a4,a4,4
    3874:	0ff77713          	andi	a4,a4,255
    3878:	02e78923          	sb	a4,50(a5) # 50000032 <_eusrstack+0x2fff0032>
D:/projects/mechanical_arm/Firmware/UWB/libraries/sdk/Peripheral/ch32v30x_usbotg_device.c:784 (discriminator 4)
                                    break;
    387c:	a0b5                	j	38e8 <OTG_FS_IRQHandler+0x9d8>
D:/projects/mechanical_arm/Firmware/UWB/libraries/sdk/Peripheral/ch32v30x_usbotg_device.c:787
                                    USBOTG_FS->DEV_ADDR = (USBOTG_FS->DEV_ADDR&USBHD_UDA_GP_BIT) | SetupReqLen;
    387e:	500007b7          	lui	a5,0x50000
    3882:	0037c783          	lbu	a5,3(a5) # 50000003 <_eusrstack+0x2fff0003>
    3886:	0ff7f793          	andi	a5,a5,255
    388a:	07e2                	slli	a5,a5,0x18
    388c:	87e1                	srai	a5,a5,0x18
    388e:	f807f793          	andi	a5,a5,-128
    3892:	01879713          	slli	a4,a5,0x18
    3896:	8761                	srai	a4,a4,0x18
    3898:	89a1d783          	lhu	a5,-1894(gp) # 200002ca <SetupReqLen>
    389c:	07c2                	slli	a5,a5,0x10
    389e:	83c1                	srli	a5,a5,0x10
    38a0:	07e2                	slli	a5,a5,0x18
    38a2:	87e1                	srai	a5,a5,0x18
    38a4:	8fd9                	or	a5,a5,a4
    38a6:	01879713          	slli	a4,a5,0x18
    38aa:	8761                	srai	a4,a4,0x18
    38ac:	500007b7          	lui	a5,0x50000
    38b0:	0ff77713          	andi	a4,a4,255
    38b4:	00e781a3          	sb	a4,3(a5) # 50000003 <_eusrstack+0x2fff0003>
D:/projects/mechanical_arm/Firmware/UWB/libraries/sdk/Peripheral/ch32v30x_usbotg_device.c:788
                                    USBOTG_FS->UEP0_TX_CTRL = USBHD_UEP_T_RES_NAK;
    38b8:	500007b7          	lui	a5,0x50000
    38bc:	4709                	li	a4,2
    38be:	02e78923          	sb	a4,50(a5) # 50000032 <_eusrstack+0x2fff0032>
D:/projects/mechanical_arm/Firmware/UWB/libraries/sdk/Peripheral/ch32v30x_usbotg_device.c:789
                                    USBOTG_FS->UEP0_RX_CTRL = USBHD_UEP_R_RES_ACK;
    38c2:	500007b7          	lui	a5,0x50000
    38c6:	020789a3          	sb	zero,51(a5) # 50000033 <_eusrstack+0x2fff0033>
D:/projects/mechanical_arm/Firmware/UWB/libraries/sdk/Peripheral/ch32v30x_usbotg_device.c:790
                                    break;
    38ca:	a839                	j	38e8 <OTG_FS_IRQHandler+0x9d8>
D:/projects/mechanical_arm/Firmware/UWB/libraries/sdk/Peripheral/ch32v30x_usbotg_device.c:793
                                    USBOTG_FS->UEP0_TX_LEN = 0;
    38cc:	500007b7          	lui	a5,0x50000
    38d0:	02079823          	sh	zero,48(a5) # 50000030 <_eusrstack+0x2fff0030>
D:/projects/mechanical_arm/Firmware/UWB/libraries/sdk/Peripheral/ch32v30x_usbotg_device.c:794
                                    USBOTG_FS->UEP0_TX_CTRL = USBHD_UEP_T_RES_NAK;
    38d4:	500007b7          	lui	a5,0x50000
    38d8:	4709                	li	a4,2
    38da:	02e78923          	sb	a4,50(a5) # 50000032 <_eusrstack+0x2fff0032>
D:/projects/mechanical_arm/Firmware/UWB/libraries/sdk/Peripheral/ch32v30x_usbotg_device.c:795
                                    USBOTG_FS->UEP0_RX_CTRL = USBHD_UEP_R_RES_ACK;
    38de:	500007b7          	lui	a5,0x50000
    38e2:	020789a3          	sb	zero,51(a5) # 50000033 <_eusrstack+0x2fff0033>
D:/projects/mechanical_arm/Firmware/UWB/libraries/sdk/Peripheral/ch32v30x_usbotg_device.c:796
                                    break;
    38e6:	0001                	nop
D:/projects/mechanical_arm/Firmware/UWB/libraries/sdk/Peripheral/ch32v30x_usbotg_device.c:799
                        break;
    38e8:	a059                	j	396e <OTG_FS_IRQHandler+0xa5e>
D:/projects/mechanical_arm/Firmware/UWB/libraries/sdk/Peripheral/ch32v30x_usbotg_device.c:802
                    USBOTG_FS->UEP1_TX_CTRL  = (USBHD_UEP1_TX_CTRL & ~USBHD_UEP_T_RES_MASK) | USBHD_UEP_T_RES_ACK;
    38ea:	500007b7          	lui	a5,0x50000
    38ee:	0367c783          	lbu	a5,54(a5) # 50000036 <_eusrstack+0x2fff0036>
    38f2:	0ff7f713          	andi	a4,a5,255
    38f6:	500007b7          	lui	a5,0x50000
    38fa:	9b71                	andi	a4,a4,-4
    38fc:	0ff77713          	andi	a4,a4,255
    3900:	02e78b23          	sb	a4,54(a5) # 50000036 <_eusrstack+0x2fff0036>
D:/projects/mechanical_arm/Firmware/UWB/libraries/sdk/Peripheral/ch32v30x_usbotg_device.c:803
                    USBOTG_FS->UEP1_TX_CTRL ^= USBHD_UEP_T_TOG;
    3904:	500007b7          	lui	a5,0x50000
    3908:	0367c783          	lbu	a5,54(a5) # 50000036 <_eusrstack+0x2fff0036>
    390c:	0ff7f713          	andi	a4,a5,255
    3910:	500007b7          	lui	a5,0x50000
    3914:	00474713          	xori	a4,a4,4
    3918:	0ff77713          	andi	a4,a4,255
    391c:	02e78b23          	sb	a4,54(a5) # 50000036 <_eusrstack+0x2fff0036>
D:/projects/mechanical_arm/Firmware/UWB/libraries/sdk/Peripheral/ch32v30x_usbotg_device.c:804
                    break;
    3920:	a0b9                	j	396e <OTG_FS_IRQHandler+0xa5e>
D:/projects/mechanical_arm/Firmware/UWB/libraries/sdk/Peripheral/ch32v30x_usbotg_device.c:807
                    USBOTG_FS->UEP2_TX_CTRL ^= USBHD_UEP_T_TOG;
    3922:	500007b7          	lui	a5,0x50000
    3926:	03a7c783          	lbu	a5,58(a5) # 5000003a <_eusrstack+0x2fff003a>
    392a:	0ff7f713          	andi	a4,a5,255
    392e:	500007b7          	lui	a5,0x50000
    3932:	00474713          	xori	a4,a4,4
    3936:	0ff77713          	andi	a4,a4,255
    393a:	02e78d23          	sb	a4,58(a5) # 5000003a <_eusrstack+0x2fff003a>
D:/projects/mechanical_arm/Firmware/UWB/libraries/sdk/Peripheral/ch32v30x_usbotg_device.c:808
                    USBOTG_FS->UEP2_TX_CTRL = (USBOTG_FS->UEP2_TX_CTRL & ~USBHD_UEP_T_RES_MASK) | USBHD_UEP_T_RES_NAK;
    393e:	500007b7          	lui	a5,0x50000
    3942:	03a7c783          	lbu	a5,58(a5) # 5000003a <_eusrstack+0x2fff003a>
    3946:	0ff7f793          	andi	a5,a5,255
    394a:	07e2                	slli	a5,a5,0x18
    394c:	87e1                	srai	a5,a5,0x18
    394e:	9bf1                	andi	a5,a5,-4
    3950:	07e2                	slli	a5,a5,0x18
    3952:	87e1                	srai	a5,a5,0x18
    3954:	0027e793          	ori	a5,a5,2
    3958:	01879713          	slli	a4,a5,0x18
    395c:	8761                	srai	a4,a4,0x18
    395e:	500007b7          	lui	a5,0x50000
    3962:	0ff77713          	andi	a4,a4,255
    3966:	02e78d23          	sb	a4,58(a5) # 5000003a <_eusrstack+0x2fff003a>
D:/projects/mechanical_arm/Firmware/UWB/libraries/sdk/Peripheral/ch32v30x_usbotg_device.c:809
                    break;
    396a:	a011                	j	396e <OTG_FS_IRQHandler+0xa5e>
D:/projects/mechanical_arm/Firmware/UWB/libraries/sdk/Peripheral/ch32v30x_usbotg_device.c:813
                    break;
    396c:	0001                	nop
D:/projects/mechanical_arm/Firmware/UWB/libraries/sdk/Peripheral/ch32v30x_usbotg_device.c:816
                break;
    396e:	aab5                	j	3aea <OTG_FS_IRQHandler+0xbda>
D:/projects/mechanical_arm/Firmware/UWB/libraries/sdk/Peripheral/ch32v30x_usbotg_device.c:820
                switch ( USBOTG_FS->INT_ST & ( USBHD_UIS_TOKEN_MASK | USBHD_UIS_ENDP_MASK ) )
    3970:	500007b7          	lui	a5,0x50000
    3974:	0077c783          	lbu	a5,7(a5) # 50000007 <_eusrstack+0x2fff0007>
    3978:	0ff7f793          	andi	a5,a5,255
    397c:	03f7f793          	andi	a5,a5,63
    3980:	4705                	li	a4,1
    3982:	0ce78763          	beq	a5,a4,3a50 <OTG_FS_IRQHandler+0xb40>
    3986:	4709                	li	a4,2
    3988:	10e78663          	beq	a5,a4,3a94 <OTG_FS_IRQHandler+0xb84>
    398c:	14079e63          	bnez	a5,3ae8 <OTG_FS_IRQHandler+0xbd8>
D:/projects/mechanical_arm/Firmware/UWB/libraries/sdk/Peripheral/ch32v30x_usbotg_device.c:823 (discriminator 7)
                        switch( SetupReqCode )
    3990:	8981c783          	lbu	a5,-1896(gp) # 200002c8 <SetupReqCode>
    3994:	0ff7f793          	andi	a5,a5,255
    3998:	873e                	mv	a4,a5
    399a:	02000793          	li	a5,32
    399e:	0af71363          	bne	a4,a5,3a44 <OTG_FS_IRQHandler+0xb34>
D:/projects/mechanical_arm/Firmware/UWB/libraries/sdk/Peripheral/ch32v30x_usbotg_device.c:826
                                if((((LINECODINGST *)pEP0_DataBuf)->dataRat[0] || ((LINECODINGST *)pEP0_DataBuf)->dataRat[1] ||
    39a2:	8841a783          	lw	a5,-1916(gp) # 200002b4 <pEP0_RAM_Addr>
    39a6:	0007c783          	lbu	a5,0(a5)
    39aa:	e385                	bnez	a5,39ca <OTG_FS_IRQHandler+0xaba>
D:/projects/mechanical_arm/Firmware/UWB/libraries/sdk/Peripheral/ch32v30x_usbotg_device.c:826 (discriminator 1)
    39ac:	8841a783          	lw	a5,-1916(gp) # 200002b4 <pEP0_RAM_Addr>
    39b0:	0017c783          	lbu	a5,1(a5)
    39b4:	eb99                	bnez	a5,39ca <OTG_FS_IRQHandler+0xaba>
D:/projects/mechanical_arm/Firmware/UWB/libraries/sdk/Peripheral/ch32v30x_usbotg_device.c:827 (discriminator 2)
                                  ((LINECODINGST *)pEP0_DataBuf)->dataRat[2] || ((LINECODINGST *)pEP0_DataBuf)->dataRat[3]))
    39b6:	8841a783          	lw	a5,-1916(gp) # 200002b4 <pEP0_RAM_Addr>
    39ba:	0027c783          	lbu	a5,2(a5)
D:/projects/mechanical_arm/Firmware/UWB/libraries/sdk/Peripheral/ch32v30x_usbotg_device.c:826 (discriminator 2)
                                if((((LINECODINGST *)pEP0_DataBuf)->dataRat[0] || ((LINECODINGST *)pEP0_DataBuf)->dataRat[1] ||
    39be:	e791                	bnez	a5,39ca <OTG_FS_IRQHandler+0xaba>
D:/projects/mechanical_arm/Firmware/UWB/libraries/sdk/Peripheral/ch32v30x_usbotg_device.c:827
                                  ((LINECODINGST *)pEP0_DataBuf)->dataRat[2] || ((LINECODINGST *)pEP0_DataBuf)->dataRat[3]))
    39c0:	8841a783          	lw	a5,-1916(gp) # 200002b4 <pEP0_RAM_Addr>
    39c4:	0037c783          	lbu	a5,3(a5)
    39c8:	cf9d                	beqz	a5,3a06 <OTG_FS_IRQHandler+0xaf6>
D:/projects/mechanical_arm/Firmware/UWB/libraries/sdk/Peripheral/ch32v30x_usbotg_device.c:831
                                            (((LINECODINGST *)pEP0_DataBuf)->dataRat[3] <<24) |
    39ca:	8841a783          	lw	a5,-1916(gp) # 200002b4 <pEP0_RAM_Addr>
    39ce:	0037c783          	lbu	a5,3(a5)
    39d2:	01879713          	slli	a4,a5,0x18
D:/projects/mechanical_arm/Firmware/UWB/libraries/sdk/Peripheral/ch32v30x_usbotg_device.c:832
                                            (((LINECODINGST *)pEP0_DataBuf)->dataRat[2] <<16) |
    39d6:	8841a783          	lw	a5,-1916(gp) # 200002b4 <pEP0_RAM_Addr>
    39da:	0027c783          	lbu	a5,2(a5)
    39de:	07c2                	slli	a5,a5,0x10
D:/projects/mechanical_arm/Firmware/UWB/libraries/sdk/Peripheral/ch32v30x_usbotg_device.c:831
                                            (((LINECODINGST *)pEP0_DataBuf)->dataRat[3] <<24) |
    39e0:	8f5d                	or	a4,a4,a5
D:/projects/mechanical_arm/Firmware/UWB/libraries/sdk/Peripheral/ch32v30x_usbotg_device.c:833
                                            (((LINECODINGST *)pEP0_DataBuf)->dataRat[1] <<8) |
    39e2:	8841a783          	lw	a5,-1916(gp) # 200002b4 <pEP0_RAM_Addr>
    39e6:	0017c783          	lbu	a5,1(a5)
    39ea:	07a2                	slli	a5,a5,0x8
D:/projects/mechanical_arm/Firmware/UWB/libraries/sdk/Peripheral/ch32v30x_usbotg_device.c:832
                                            (((LINECODINGST *)pEP0_DataBuf)->dataRat[2] <<16) |
    39ec:	8fd9                	or	a5,a5,a4
D:/projects/mechanical_arm/Firmware/UWB/libraries/sdk/Peripheral/ch32v30x_usbotg_device.c:834
                                            (((LINECODINGST *)pEP0_DataBuf)->dataRat[0]));
    39ee:	8841a703          	lw	a4,-1916(gp) # 200002b4 <pEP0_RAM_Addr>
    39f2:	00074703          	lbu	a4,0(a4)
D:/projects/mechanical_arm/Firmware/UWB/libraries/sdk/Peripheral/ch32v30x_usbotg_device.c:830
                                    printf( "\nBaud Rate = %d",
    39f6:	8fd9                	or	a5,a5,a4
    39f8:	85be                	mv	a1,a5
    39fa:	67a9                	lui	a5,0xa
    39fc:	cd078513          	addi	a0,a5,-816 # 9cd0 <_sbrk+0x28>
    3a00:	489030ef          	jal	ra,7688 <iprintf>
D:/projects/mechanical_arm/Firmware/UWB/libraries/sdk/Peripheral/ch32v30x_usbotg_device.c:843
                               break;
    3a04:	a83d                	j	3a42 <OTG_FS_IRQHandler+0xb32>
D:/projects/mechanical_arm/Firmware/UWB/libraries/sdk/Peripheral/ch32v30x_usbotg_device.c:838
                                    printf( "\ndataBit = %d",  ((LINECODINGST *)pEP0_DataBuf)->dataBit);
    3a06:	8841a783          	lw	a5,-1916(gp) # 200002b4 <pEP0_RAM_Addr>
    3a0a:	0067c783          	lbu	a5,6(a5)
    3a0e:	85be                	mv	a1,a5
    3a10:	67a9                	lui	a5,0xa
    3a12:	ce078513          	addi	a0,a5,-800 # 9ce0 <_sbrk+0x38>
    3a16:	473030ef          	jal	ra,7688 <iprintf>
D:/projects/mechanical_arm/Firmware/UWB/libraries/sdk/Peripheral/ch32v30x_usbotg_device.c:839
                                    printf( "\nstopBit = %d",  ((LINECODINGST *)pEP0_DataBuf)->stopBit);
    3a1a:	8841a783          	lw	a5,-1916(gp) # 200002b4 <pEP0_RAM_Addr>
    3a1e:	0047c783          	lbu	a5,4(a5)
    3a22:	85be                	mv	a1,a5
    3a24:	67a9                	lui	a5,0xa
    3a26:	cf078513          	addi	a0,a5,-784 # 9cf0 <_sbrk+0x48>
    3a2a:	45f030ef          	jal	ra,7688 <iprintf>
D:/projects/mechanical_arm/Firmware/UWB/libraries/sdk/Peripheral/ch32v30x_usbotg_device.c:840
                                    printf( "\nparityType = %d",  ((LINECODINGST *)pEP0_DataBuf)->parityType);
    3a2e:	8841a783          	lw	a5,-1916(gp) # 200002b4 <pEP0_RAM_Addr>
    3a32:	0057c783          	lbu	a5,5(a5)
    3a36:	85be                	mv	a1,a5
    3a38:	67a9                	lui	a5,0xa
    3a3a:	d0078513          	addi	a0,a5,-768 # 9d00 <_sbrk+0x58>
    3a3e:	44b030ef          	jal	ra,7688 <iprintf>
D:/projects/mechanical_arm/Firmware/UWB/libraries/sdk/Peripheral/ch32v30x_usbotg_device.c:843
                               break;
    3a42:	0001                	nop
D:/projects/mechanical_arm/Firmware/UWB/libraries/sdk/Peripheral/ch32v30x_usbotg_device.c:847
                    len = USBOTG_FS->RX_LEN;
    3a44:	500007b7          	lui	a5,0x50000
    3a48:	479c                	lw	a5,8(a5)
    3a4a:	fef407a3          	sb	a5,-17(s0)
D:/projects/mechanical_arm/Firmware/UWB/libraries/sdk/Peripheral/ch32v30x_usbotg_device.c:848
                    break;
    3a4e:	a841                	j	3ade <OTG_FS_IRQHandler+0xbce>
D:/projects/mechanical_arm/Firmware/UWB/libraries/sdk/Peripheral/ch32v30x_usbotg_device.c:851
                        if ( USBOTG_FS->INT_ST & USBHD_UIS_TOG_OK )
    3a50:	500007b7          	lui	a5,0x50000
    3a54:	0077c783          	lbu	a5,7(a5) # 50000007 <_eusrstack+0x2fff0007>
    3a58:	0ff7f793          	andi	a5,a5,255
    3a5c:	0407f793          	andi	a5,a5,64
    3a60:	cfa5                	beqz	a5,3ad8 <OTG_FS_IRQHandler+0xbc8>
D:/projects/mechanical_arm/Firmware/UWB/libraries/sdk/Peripheral/ch32v30x_usbotg_device.c:853
                            USBOTG_FS->UEP1_RX_CTRL ^= USBHD_UEP_R_TOG;
    3a62:	500007b7          	lui	a5,0x50000
    3a66:	0377c783          	lbu	a5,55(a5) # 50000037 <_eusrstack+0x2fff0037>
    3a6a:	0ff7f713          	andi	a4,a5,255
    3a6e:	500007b7          	lui	a5,0x50000
    3a72:	00474713          	xori	a4,a4,4
    3a76:	0ff77713          	andi	a4,a4,255
    3a7a:	02e78ba3          	sb	a4,55(a5) # 50000037 <_eusrstack+0x2fff0037>
D:/projects/mechanical_arm/Firmware/UWB/libraries/sdk/Peripheral/ch32v30x_usbotg_device.c:854
                            len = USBOTG_FS->RX_LEN;
    3a7e:	500007b7          	lui	a5,0x50000
    3a82:	479c                	lw	a5,8(a5)
    3a84:	fef407a3          	sb	a5,-17(s0)
D:/projects/mechanical_arm/Firmware/UWB/libraries/sdk/Peripheral/ch32v30x_usbotg_device.c:856
                            DevEP1_OUT_Deal( len );
    3a88:	fef44783          	lbu	a5,-17(s0)
    3a8c:	853e                	mv	a0,a5
    3a8e:	bbaff0ef          	jal	ra,2e48 <DevEP1_OUT_Deal>
D:/projects/mechanical_arm/Firmware/UWB/libraries/sdk/Peripheral/ch32v30x_usbotg_device.c:858
                        break;
    3a92:	a099                	j	3ad8 <OTG_FS_IRQHandler+0xbc8>
D:/projects/mechanical_arm/Firmware/UWB/libraries/sdk/Peripheral/ch32v30x_usbotg_device.c:861
                        if ( USBOTG_FS->INT_ST & USBHD_UIS_TOG_OK )
    3a94:	500007b7          	lui	a5,0x50000
    3a98:	0077c783          	lbu	a5,7(a5) # 50000007 <_eusrstack+0x2fff0007>
    3a9c:	0ff7f793          	andi	a5,a5,255
    3aa0:	0407f793          	andi	a5,a5,64
    3aa4:	cf85                	beqz	a5,3adc <OTG_FS_IRQHandler+0xbcc>
D:/projects/mechanical_arm/Firmware/UWB/libraries/sdk/Peripheral/ch32v30x_usbotg_device.c:863
                            USBOTG_FS->UEP2_RX_CTRL ^= USBHD_UEP_R_TOG;
    3aa6:	500007b7          	lui	a5,0x50000
    3aaa:	03b7c783          	lbu	a5,59(a5) # 5000003b <_eusrstack+0x2fff003b>
    3aae:	0ff7f713          	andi	a4,a5,255
    3ab2:	500007b7          	lui	a5,0x50000
    3ab6:	00474713          	xori	a4,a4,4
    3aba:	0ff77713          	andi	a4,a4,255
    3abe:	02e78da3          	sb	a4,59(a5) # 5000003b <_eusrstack+0x2fff003b>
D:/projects/mechanical_arm/Firmware/UWB/libraries/sdk/Peripheral/ch32v30x_usbotg_device.c:864
                            len = USBOTG_FS->RX_LEN;
    3ac2:	500007b7          	lui	a5,0x50000
    3ac6:	479c                	lw	a5,8(a5)
    3ac8:	fef407a3          	sb	a5,-17(s0)
D:/projects/mechanical_arm/Firmware/UWB/libraries/sdk/Peripheral/ch32v30x_usbotg_device.c:866
                            DevEP2_OUT_Deal( len );
    3acc:	fef44783          	lbu	a5,-17(s0)
    3ad0:	853e                	mv	a0,a5
    3ad2:	bdaff0ef          	jal	ra,2eac <DevEP2_OUT_Deal>
D:/projects/mechanical_arm/Firmware/UWB/libraries/sdk/Peripheral/ch32v30x_usbotg_device.c:868
                        break;
    3ad6:	a019                	j	3adc <OTG_FS_IRQHandler+0xbcc>
D:/projects/mechanical_arm/Firmware/UWB/libraries/sdk/Peripheral/ch32v30x_usbotg_device.c:858
                        break;
    3ad8:	0001                	nop
    3ada:	a039                	j	3ae8 <OTG_FS_IRQHandler+0xbd8>
D:/projects/mechanical_arm/Firmware/UWB/libraries/sdk/Peripheral/ch32v30x_usbotg_device.c:868
                        break;
    3adc:	0001                	nop
D:/projects/mechanical_arm/Firmware/UWB/libraries/sdk/Peripheral/ch32v30x_usbotg_device.c:871
                break;
    3ade:	a029                	j	3ae8 <OTG_FS_IRQHandler+0xbd8>
D:/projects/mechanical_arm/Firmware/UWB/libraries/sdk/Peripheral/ch32v30x_usbotg_device.c:875
                break;
    3ae0:	0001                	nop
    3ae2:	a021                	j	3aea <OTG_FS_IRQHandler+0xbda>
D:/projects/mechanical_arm/Firmware/UWB/libraries/sdk/Peripheral/ch32v30x_usbotg_device.c:878
                break;
    3ae4:	0001                	nop
    3ae6:	a011                	j	3aea <OTG_FS_IRQHandler+0xbda>
D:/projects/mechanical_arm/Firmware/UWB/libraries/sdk/Peripheral/ch32v30x_usbotg_device.c:871
                break;
    3ae8:	0001                	nop
D:/projects/mechanical_arm/Firmware/UWB/libraries/sdk/Peripheral/ch32v30x_usbotg_device.c:882

        }

        USBOTG_FS->INT_FG = USBHD_UIF_TRANSFER;
    3aea:	500007b7          	lui	a5,0x50000
    3aee:	4709                	li	a4,2
    3af0:	00e78323          	sb	a4,6(a5) # 50000006 <_eusrstack+0x2fff0006>
D:/projects/mechanical_arm/Firmware/UWB/libraries/sdk/Peripheral/ch32v30x_usbotg_device.c:908
    }
    else
    {
        USBOTG_FS->INT_FG = intflag;
    }
}
    3af4:	a079                	j	3b82 <OTG_FS_IRQHandler+0xc72>
D:/projects/mechanical_arm/Firmware/UWB/libraries/sdk/Peripheral/ch32v30x_usbotg_device.c:884
    else if( intflag & USBHD_UIF_BUS_RST )
    3af6:	fed44783          	lbu	a5,-19(s0)
    3afa:	8b85                	andi	a5,a5,1
    3afc:	cfb9                	beqz	a5,3b5a <OTG_FS_IRQHandler+0xc4a>
D:/projects/mechanical_arm/Firmware/UWB/libraries/sdk/Peripheral/ch32v30x_usbotg_device.c:886
        USBOTG_FS->DEV_ADDR = 0;
    3afe:	500007b7          	lui	a5,0x50000
    3b02:	000781a3          	sb	zero,3(a5) # 50000003 <_eusrstack+0x2fff0003>
D:/projects/mechanical_arm/Firmware/UWB/libraries/sdk/Peripheral/ch32v30x_usbotg_device.c:888
        USBOTG_FS->UEP0_RX_CTRL = USBHD_UEP_R_RES_ACK;
    3b06:	500007b7          	lui	a5,0x50000
    3b0a:	020789a3          	sb	zero,51(a5) # 50000033 <_eusrstack+0x2fff0033>
D:/projects/mechanical_arm/Firmware/UWB/libraries/sdk/Peripheral/ch32v30x_usbotg_device.c:889
        USBOTG_FS->UEP1_RX_CTRL = USBHD_UEP_R_RES_ACK;
    3b0e:	500007b7          	lui	a5,0x50000
    3b12:	02078ba3          	sb	zero,55(a5) # 50000037 <_eusrstack+0x2fff0037>
D:/projects/mechanical_arm/Firmware/UWB/libraries/sdk/Peripheral/ch32v30x_usbotg_device.c:890
        USBOTG_FS->UEP2_RX_CTRL = USBHD_UEP_R_RES_ACK;
    3b16:	500007b7          	lui	a5,0x50000
    3b1a:	02078da3          	sb	zero,59(a5) # 5000003b <_eusrstack+0x2fff003b>
D:/projects/mechanical_arm/Firmware/UWB/libraries/sdk/Peripheral/ch32v30x_usbotg_device.c:892
        USBOTG_FS->UEP0_TX_CTRL = USBHD_UEP_T_RES_NAK;
    3b1e:	500007b7          	lui	a5,0x50000
    3b22:	4709                	li	a4,2
    3b24:	02e78923          	sb	a4,50(a5) # 50000032 <_eusrstack+0x2fff0032>
D:/projects/mechanical_arm/Firmware/UWB/libraries/sdk/Peripheral/ch32v30x_usbotg_device.c:893
        USBOTG_FS->UEP1_TX_CTRL = USBHD_UEP_T_RES_NAK;
    3b28:	500007b7          	lui	a5,0x50000
    3b2c:	4709                	li	a4,2
    3b2e:	02e78b23          	sb	a4,54(a5) # 50000036 <_eusrstack+0x2fff0036>
D:/projects/mechanical_arm/Firmware/UWB/libraries/sdk/Peripheral/ch32v30x_usbotg_device.c:894
        USBOTG_FS->UEP2_TX_CTRL = USBHD_UEP_T_RES_NAK;
    3b32:	500007b7          	lui	a5,0x50000
    3b36:	4709                	li	a4,2
    3b38:	02e78d23          	sb	a4,58(a5) # 5000003a <_eusrstack+0x2fff003a>
D:/projects/mechanical_arm/Firmware/UWB/libraries/sdk/Peripheral/ch32v30x_usbotg_device.c:896
        USBOTG_FS->INT_FG |= USBHD_UIF_BUS_RST;
    3b3c:	500007b7          	lui	a5,0x50000
    3b40:	0067c783          	lbu	a5,6(a5) # 50000006 <_eusrstack+0x2fff0006>
    3b44:	0ff7f713          	andi	a4,a5,255
    3b48:	500007b7          	lui	a5,0x50000
    3b4c:	00176713          	ori	a4,a4,1
    3b50:	0ff77713          	andi	a4,a4,255
    3b54:	00e78323          	sb	a4,6(a5) # 50000006 <_eusrstack+0x2fff0006>
D:/projects/mechanical_arm/Firmware/UWB/libraries/sdk/Peripheral/ch32v30x_usbotg_device.c:908
}
    3b58:	a02d                	j	3b82 <OTG_FS_IRQHandler+0xc72>
D:/projects/mechanical_arm/Firmware/UWB/libraries/sdk/Peripheral/ch32v30x_usbotg_device.c:898
    else if( intflag & USBHD_UIF_SUSPEND )
    3b5a:	fed44783          	lbu	a5,-19(s0)
    3b5e:	8b91                	andi	a5,a5,4
    3b60:	cb99                	beqz	a5,3b76 <OTG_FS_IRQHandler+0xc66>
D:/projects/mechanical_arm/Firmware/UWB/libraries/sdk/Peripheral/ch32v30x_usbotg_device.c:900
        if ( USBOTG_FS->MIS_ST & USBHD_UMS_SUSPEND ) {;}
    3b62:	500007b7          	lui	a5,0x50000
    3b66:	0057c783          	lbu	a5,5(a5) # 50000005 <_eusrstack+0x2fff0005>
D:/projects/mechanical_arm/Firmware/UWB/libraries/sdk/Peripheral/ch32v30x_usbotg_device.c:902
        USBOTG_FS->INT_FG = USBHD_UIF_SUSPEND;
    3b6a:	500007b7          	lui	a5,0x50000
    3b6e:	4711                	li	a4,4
    3b70:	00e78323          	sb	a4,6(a5) # 50000006 <_eusrstack+0x2fff0006>
D:/projects/mechanical_arm/Firmware/UWB/libraries/sdk/Peripheral/ch32v30x_usbotg_device.c:908
}
    3b74:	a039                	j	3b82 <OTG_FS_IRQHandler+0xc72>
D:/projects/mechanical_arm/Firmware/UWB/libraries/sdk/Peripheral/ch32v30x_usbotg_device.c:906
        USBOTG_FS->INT_FG = intflag;
    3b76:	500007b7          	lui	a5,0x50000
    3b7a:	fed44703          	lbu	a4,-19(s0)
    3b7e:	00e78323          	sb	a4,6(a5) # 50000006 <_eusrstack+0x2fff0006>
D:/projects/mechanical_arm/Firmware/UWB/libraries/sdk/Peripheral/ch32v30x_usbotg_device.c:908
}
    3b82:	0001                	nop
    3b84:	4472                	lw	s0,28(sp)
    3b86:	6105                	addi	sp,sp,32
    3b88:	30200073          	mret

00003b8c <NVIC_EnableIRQ>:
NVIC_EnableIRQ():
D:\projects\mechanical_arm\Firmware\UWB\libraries\sdk\Core/core_riscv.h:129
RV_STATIC_INLINE void NVIC_EnableIRQ(IRQn_Type IRQn){
    3b8c:	1101                	addi	sp,sp,-32
    3b8e:	ce22                	sw	s0,28(sp)
    3b90:	1000                	addi	s0,sp,32
    3b92:	fea42623          	sw	a0,-20(s0)
D:\projects\mechanical_arm\Firmware\UWB\libraries\sdk\Core/core_riscv.h:130
  NVIC->IENR[((uint32_t)(IRQn) >> 5)] = (1 << ((uint32_t)(IRQn) & 0x1F));
    3b96:	fec42783          	lw	a5,-20(s0)
    3b9a:	8bfd                	andi	a5,a5,31
    3b9c:	4705                	li	a4,1
    3b9e:	00f716b3          	sll	a3,a4,a5
    3ba2:	e000e737          	lui	a4,0xe000e
    3ba6:	fec42783          	lw	a5,-20(s0)
    3baa:	8395                	srli	a5,a5,0x5
    3bac:	04078793          	addi	a5,a5,64
    3bb0:	078a                	slli	a5,a5,0x2
    3bb2:	97ba                	add	a5,a5,a4
    3bb4:	c394                	sw	a3,0(a5)
D:\projects\mechanical_arm\Firmware\UWB\libraries\sdk\Core/core_riscv.h:131
}
    3bb6:	0001                	nop
    3bb8:	4472                	lw	s0,28(sp)
    3bba:	6105                	addi	sp,sp,32
    3bbc:	8082                	ret

00003bbe <NVIC_DisableIRQ>:
NVIC_DisableIRQ():
D:\projects\mechanical_arm\Firmware\UWB\libraries\sdk\Core/core_riscv.h:140
{
    3bbe:	1101                	addi	sp,sp,-32
    3bc0:	ce22                	sw	s0,28(sp)
    3bc2:	1000                	addi	s0,sp,32
    3bc4:	fea42623          	sw	a0,-20(s0)
D:\projects\mechanical_arm\Firmware\UWB\libraries\sdk\Core/core_riscv.h:141
  NVIC->IRER[((uint32_t)(IRQn) >> 5)] = (1 << ((uint32_t)(IRQn) & 0x1F));
    3bc8:	fec42783          	lw	a5,-20(s0)
    3bcc:	8bfd                	andi	a5,a5,31
    3bce:	4705                	li	a4,1
    3bd0:	00f716b3          	sll	a3,a4,a5
    3bd4:	e000e737          	lui	a4,0xe000e
    3bd8:	fec42783          	lw	a5,-20(s0)
    3bdc:	8395                	srli	a5,a5,0x5
    3bde:	06078793          	addi	a5,a5,96
    3be2:	078a                	slli	a5,a5,0x2
    3be4:	97ba                	add	a5,a5,a4
    3be6:	c394                	sw	a3,0(a5)
D:\projects\mechanical_arm\Firmware\UWB\libraries\sdk\Core/core_riscv.h:142
}
    3be8:	0001                	nop
    3bea:	4472                	lw	s0,28(sp)
    3bec:	6105                	addi	sp,sp,32
    3bee:	8082                	ret

00003bf0 <decamutexon>:
decamutexon():
D:/projects/mechanical_arm/Firmware/UWB/platform/deca_mutex.c:52
 * output parameters
 *
 * returns the state of the DW1000 interrupt
 */
decaIrqStatus_t decamutexon(void)           
{
    3bf0:	1101                	addi	sp,sp,-32
    3bf2:	ce06                	sw	ra,28(sp)
    3bf4:	cc22                	sw	s0,24(sp)
    3bf6:	1000                	addi	s0,sp,32
D:/projects/mechanical_arm/Firmware/UWB/platform/deca_mutex.c:53
	decaIrqStatus_t s = port_GetEXT_IRQStatus();
    3bf8:	4561                	li	a0,24
    3bfa:	24a5                	jal	3e62 <EXTI_GetITEnStatus>
    3bfc:	87aa                	mv	a5,a0
    3bfe:	fef42623          	sw	a5,-20(s0)
D:/projects/mechanical_arm/Firmware/UWB/platform/deca_mutex.c:55

	if(s) {
    3c02:	fec42783          	lw	a5,-20(s0)
    3c06:	c399                	beqz	a5,3c0c <decamutexon+0x1c>
D:/projects/mechanical_arm/Firmware/UWB/platform/deca_mutex.c:56
		port_DisableEXT_IRQ(); //disable the external interrupt line
    3c08:	4561                	li	a0,24
    3c0a:	3f55                	jal	3bbe <NVIC_DisableIRQ>
D:/projects/mechanical_arm/Firmware/UWB/platform/deca_mutex.c:58
	}
	return s ;   // return state before disable, value is used to re-enable in decamutexoff call
    3c0c:	fec42783          	lw	a5,-20(s0)
D:/projects/mechanical_arm/Firmware/UWB/platform/deca_mutex.c:59
}
    3c10:	853e                	mv	a0,a5
    3c12:	40f2                	lw	ra,28(sp)
    3c14:	4462                	lw	s0,24(sp)
    3c16:	6105                	addi	sp,sp,32
    3c18:	8082                	ret

00003c1a <decamutexoff>:
decamutexoff():
D:/projects/mechanical_arm/Firmware/UWB/platform/deca_mutex.c:77
 * output parameters
 *
 * returns the state of the DW1000 interrupt
 */
void decamutexoff(decaIrqStatus_t s)        // put a function here that re-enables the interrupt at the end of the critical section
{
    3c1a:	1101                	addi	sp,sp,-32
    3c1c:	ce06                	sw	ra,28(sp)
    3c1e:	cc22                	sw	s0,24(sp)
    3c20:	1000                	addi	s0,sp,32
    3c22:	fea42623          	sw	a0,-20(s0)
D:/projects/mechanical_arm/Firmware/UWB/platform/deca_mutex.c:78
	if(s) { //need to check the port state as we can't use level sensitive interrupt on the STM ARM
    3c26:	fec42783          	lw	a5,-20(s0)
    3c2a:	c399                	beqz	a5,3c30 <decamutexoff+0x16>
D:/projects/mechanical_arm/Firmware/UWB/platform/deca_mutex.c:79
		port_EnableEXT_IRQ();
    3c2c:	4561                	li	a0,24
    3c2e:	3fb9                	jal	3b8c <NVIC_EnableIRQ>
D:/projects/mechanical_arm/Firmware/UWB/platform/deca_mutex.c:81
	}
}
    3c30:	0001                	nop
    3c32:	40f2                	lw	ra,28(sp)
    3c34:	4462                	lw	s0,24(sp)
    3c36:	6105                	addi	sp,sp,32
    3c38:	8082                	ret

00003c3a <deca_sleep>:
deca_sleep():
D:/projects/mechanical_arm/Firmware/UWB/platform/deca_sleep.c:20
#include "sleep.h"
#include "port.h"

/* Wrapper function to be used by decadriver. Declared in deca_device_api.h */
void deca_sleep(unsigned int time_ms)
{
    3c3a:	1101                	addi	sp,sp,-32
    3c3c:	ce06                	sw	ra,28(sp)
    3c3e:	cc22                	sw	s0,24(sp)
    3c40:	1000                	addi	s0,sp,32
    3c42:	fea42623          	sw	a0,-20(s0)
D:/projects/mechanical_arm/Firmware/UWB/platform/deca_sleep.c:21
    Delay_Ms(time_ms);
    3c46:	fec42503          	lw	a0,-20(s0)
    3c4a:	2255                	jal	3dee <Delay_Ms>
D:/projects/mechanical_arm/Firmware/UWB/platform/deca_sleep.c:22
}
    3c4c:	0001                	nop
    3c4e:	40f2                	lw	ra,28(sp)
    3c50:	4462                	lw	s0,24(sp)
    3c52:	6105                	addi	sp,sp,32
    3c54:	8082                	ret

00003c56 <writetospi>:
writetospi():
D:/projects/mechanical_arm/Firmware/UWB/platform/deca_spi.c:30
 * @brief:  向DW1000写入数据
 * @return 0 for success
 */
#pragma GCC optimize ("O3")
int writetospi(uint16_t header_length, const uint8_t* header_buffer, uint32_t body_length, const uint8_t* body_buffer)
{
    3c56:	1101                	addi	sp,sp,-32
    3c58:	cc26                	sw	s1,24(sp)
    3c5a:	ca4a                	sw	s2,20(sp)
    3c5c:	c84e                	sw	s3,16(sp)
    3c5e:	c652                	sw	s4,12(sp)
    3c60:	ce06                	sw	ra,28(sp)
    3c62:	8a2a                	mv	s4,a0
    3c64:	892e                	mv	s2,a1
    3c66:	89b2                	mv	s3,a2
    3c68:	84b6                	mv	s1,a3
D:/projects/mechanical_arm/Firmware/UWB/platform/deca_spi.c:32
    decaIrqStatus_t stat;
    stat = decamutexon();
    3c6a:	3759                	jal	3bf0 <decamutexon>
D:/projects/mechanical_arm/Firmware/UWB/platform/deca_spi.c:35

    // 拉低CS引脚
    SPIx_CS_GPIO->BCR = SPIx_CS;
    3c6c:	400117b7          	lui	a5,0x40011
    3c70:	4741                	li	a4,16
    3c72:	80e7aa23          	sw	a4,-2028(a5) # 40010814 <_eusrstack+0x20000814>
D:/projects/mechanical_arm/Firmware/UWB/platform/deca_spi.c:38

    // 首先传输header
    for (uint16_t i = 0; i < header_length; ++i)
    3c76:	020a0863          	beqz	s4,3ca6 <writetospi+0x50>
    3c7a:	fffa0793          	addi	a5,s4,-1
    3c7e:	07c2                	slli	a5,a5,0x10
    3c80:	00190693          	addi	a3,s2,1
    3c84:	83c1                	srli	a5,a5,0x10
    3c86:	85ca                	mv	a1,s2
    3c88:	96be                	add	a3,a3,a5
D:/projects/mechanical_arm/Firmware/UWB/platform/deca_spi.c:41
    {
        // 由于SPI初始化设置的  SPI_InitStructure.SPI_DataSize = SPI_DataSize_8b, 寄存器SPI->DATAR仅低八位有效
        SPIx->DATAR = header_buffer[i];
    3c8a:	40013737          	lui	a4,0x40013
    3c8e:	0005c783          	lbu	a5,0(a1)
    3c92:	00f71623          	sh	a5,12(a4) # 4001300c <_eusrstack+0x2000300c>
D:/projects/mechanical_arm/Firmware/UWB/platform/deca_spi.c:42 (discriminator 1)
        while ((SPIx->STATR & SPI_I2S_FLAG_BSY) != RESET);
    3c96:	00875783          	lhu	a5,8(a4)
    3c9a:	0807f793          	andi	a5,a5,128
    3c9e:	ffe5                	bnez	a5,3c96 <writetospi+0x40>
    3ca0:	0585                	addi	a1,a1,1
D:/projects/mechanical_arm/Firmware/UWB/platform/deca_spi.c:38 (discriminator 2)
    for (uint16_t i = 0; i < header_length; ++i)
    3ca2:	fed596e3          	bne	a1,a3,3c8e <writetospi+0x38>
D:/projects/mechanical_arm/Firmware/UWB/platform/deca_spi.c:45
    }
    // 传输数据主体
    for (uint32_t i = 0; i < body_length; ++i)
    3ca6:	02098363          	beqz	s3,3ccc <writetospi+0x76>
    3caa:	86a6                	mv	a3,s1
    3cac:	01348633          	add	a2,s1,s3
D:/projects/mechanical_arm/Firmware/UWB/platform/deca_spi.c:48
    {
        // 由于SPI初始化设置的  SPI_InitStructure.SPI_DataSize = SPI_DataSize_8b, 寄存器SPI->DATAR仅低八位有效
        SPIx->DATAR = body_buffer[i];
    3cb0:	40013737          	lui	a4,0x40013
    3cb4:	0006c783          	lbu	a5,0(a3)
    3cb8:	00f71623          	sh	a5,12(a4) # 4001300c <_eusrstack+0x2000300c>
D:/projects/mechanical_arm/Firmware/UWB/platform/deca_spi.c:49 (discriminator 1)
        while ((SPIx->STATR & SPI_I2S_FLAG_BSY) != RESET);
    3cbc:	00875783          	lhu	a5,8(a4)
    3cc0:	0807f793          	andi	a5,a5,128
    3cc4:	ffe5                	bnez	a5,3cbc <writetospi+0x66>
    3cc6:	0685                	addi	a3,a3,1
D:/projects/mechanical_arm/Firmware/UWB/platform/deca_spi.c:45 (discriminator 2)
    for (uint32_t i = 0; i < body_length; ++i)
    3cc8:	fed616e3          	bne	a2,a3,3cb4 <writetospi+0x5e>
D:/projects/mechanical_arm/Firmware/UWB/platform/deca_spi.c:52
    }
    // 拉高CS引脚
    SPIx_CS_GPIO->BSHR = SPIx_CS;
    3ccc:	400117b7          	lui	a5,0x40011
    3cd0:	4741                	li	a4,16
    3cd2:	80e7a823          	sw	a4,-2032(a5) # 40010810 <_eusrstack+0x20000810>
D:/projects/mechanical_arm/Firmware/UWB/platform/deca_spi.c:54

    decamutexoff(stat);
    3cd6:	3791                	jal	3c1a <decamutexoff>
D:/projects/mechanical_arm/Firmware/UWB/platform/deca_spi.c:56
    return 0;
}
    3cd8:	40f2                	lw	ra,28(sp)
    3cda:	44e2                	lw	s1,24(sp)
    3cdc:	4952                	lw	s2,20(sp)
    3cde:	49c2                	lw	s3,16(sp)
    3ce0:	4a32                	lw	s4,12(sp)
    3ce2:	4501                	li	a0,0
    3ce4:	6105                	addi	sp,sp,32
    3ce6:	8082                	ret

00003ce8 <readfromspi>:
readfromspi():
D:/projects/mechanical_arm/Firmware/UWB/platform/deca_spi.c:65
 * @brief:  读取DW1000传输过来的数据
 * @return 0 for success
 */
#pragma GCC optimize ("O3")
int readfromspi(uint16_t header_length,const uint8_t* header_buffer, uint32_t read_length, uint8_t* read_buffer)
{
    3ce8:	1101                	addi	sp,sp,-32
    3cea:	cc26                	sw	s1,24(sp)
    3cec:	ca4a                	sw	s2,20(sp)
    3cee:	c84e                	sw	s3,16(sp)
    3cf0:	c652                	sw	s4,12(sp)
    3cf2:	ce06                	sw	ra,28(sp)
    3cf4:	8a2a                	mv	s4,a0
    3cf6:	892e                	mv	s2,a1
    3cf8:	89b2                	mv	s3,a2
    3cfa:	84b6                	mv	s1,a3
D:/projects/mechanical_arm/Firmware/UWB/platform/deca_spi.c:67
    decaIrqStatus_t stat;
    stat = decamutexon();
    3cfc:	ef5ff0ef          	jal	ra,3bf0 <decamutexon>
D:/projects/mechanical_arm/Firmware/UWB/platform/deca_spi.c:70

    // 拉低CS引脚
    SPIx_CS_GPIO->BCR = SPIx_CS;
    3d00:	400117b7          	lui	a5,0x40011
    3d04:	4741                	li	a4,16
    3d06:	80e7aa23          	sw	a4,-2028(a5) # 40010814 <_eusrstack+0x20000814>
D:/projects/mechanical_arm/Firmware/UWB/platform/deca_spi.c:72
    // 首先传输header
    for (uint16_t i = 0; i < header_length; ++i)
    3d0a:	020a0c63          	beqz	s4,3d42 <readfromspi+0x5a>
    3d0e:	fffa0793          	addi	a5,s4,-1
    3d12:	07c2                	slli	a5,a5,0x10
    3d14:	00190693          	addi	a3,s2,1
    3d18:	83c1                	srli	a5,a5,0x10
    3d1a:	85ca                	mv	a1,s2
    3d1c:	96be                	add	a3,a3,a5
D:/projects/mechanical_arm/Firmware/UWB/platform/deca_spi.c:75
    {
        // 由于SPI初始化设置的  SPI_InitStructure.SPI_DataSize = SPI_DataSize_8b, 寄存器SPI->DATAR仅低八位有效
        SPIx->DATAR = header_buffer[i];
    3d1e:	40013737          	lui	a4,0x40013
    3d22:	0005c783          	lbu	a5,0(a1)
    3d26:	00f71623          	sh	a5,12(a4) # 4001300c <_eusrstack+0x2000300c>
D:/projects/mechanical_arm/Firmware/UWB/platform/deca_spi.c:76 (discriminator 1)
        while ((SPIx->STATR & SPI_I2S_FLAG_BSY) != RESET);
    3d2a:	00875783          	lhu	a5,8(a4)
    3d2e:	0807f793          	andi	a5,a5,128
    3d32:	ffe5                	bnez	a5,3d2a <readfromspi+0x42>
D:/projects/mechanical_arm/Firmware/UWB/platform/deca_spi.c:77 (discriminator 2)
        read_buffer[0] = SPIx->DATAR;
    3d34:	00c75783          	lhu	a5,12(a4)
    3d38:	0585                	addi	a1,a1,1
    3d3a:	00f48023          	sb	a5,0(s1)
D:/projects/mechanical_arm/Firmware/UWB/platform/deca_spi.c:72 (discriminator 2)
    for (uint16_t i = 0; i < header_length; ++i)
    3d3e:	fed592e3          	bne	a1,a3,3d22 <readfromspi+0x3a>
D:/projects/mechanical_arm/Firmware/UWB/platform/deca_spi.c:80
    }
    // 传输数据主体
    for (uint32_t i = 0; i < read_length; ++i)
    3d42:	02098563          	beqz	s3,3d6c <readfromspi+0x84>
    3d46:	86a6                	mv	a3,s1
    3d48:	01348633          	add	a2,s1,s3
D:/projects/mechanical_arm/Firmware/UWB/platform/deca_spi.c:83
    {
        // 由于SPI初始化设置的  SPI_InitStructure.SPI_DataSize = SPI_DataSize_8b, 寄存器SPI->DATAR仅低八位有效
        SPIx->DATAR = 0;
    3d4c:	40013737          	lui	a4,0x40013
    3d50:	00071623          	sh	zero,12(a4) # 4001300c <_eusrstack+0x2000300c>
D:/projects/mechanical_arm/Firmware/UWB/platform/deca_spi.c:84 (discriminator 1)
        while ((SPIx->STATR & SPI_I2S_FLAG_BSY) != RESET);
    3d54:	00875783          	lhu	a5,8(a4)
    3d58:	0807f793          	andi	a5,a5,128
    3d5c:	ffe5                	bnez	a5,3d54 <readfromspi+0x6c>
D:/projects/mechanical_arm/Firmware/UWB/platform/deca_spi.c:85 (discriminator 2)
        read_buffer[i] = SPIx->DATAR;;
    3d5e:	00c75783          	lhu	a5,12(a4)
    3d62:	0685                	addi	a3,a3,1
    3d64:	fef68fa3          	sb	a5,-1(a3)
D:/projects/mechanical_arm/Firmware/UWB/platform/deca_spi.c:80 (discriminator 2)
    for (uint32_t i = 0; i < read_length; ++i)
    3d68:	fed614e3          	bne	a2,a3,3d50 <readfromspi+0x68>
D:/projects/mechanical_arm/Firmware/UWB/platform/deca_spi.c:88
    }
    // 拉高CS引脚
    SPIx_CS_GPIO->BSHR = SPIx_CS;
    3d6c:	400117b7          	lui	a5,0x40011
    3d70:	4741                	li	a4,16
    3d72:	80e7a823          	sw	a4,-2032(a5) # 40010810 <_eusrstack+0x20000810>
D:/projects/mechanical_arm/Firmware/UWB/platform/deca_spi.c:89
    decamutexoff(stat);
    3d76:	ea5ff0ef          	jal	ra,3c1a <decamutexoff>
D:/projects/mechanical_arm/Firmware/UWB/platform/deca_spi.c:91
    return 0;
}
    3d7a:	40f2                	lw	ra,28(sp)
    3d7c:	44e2                	lw	s1,24(sp)
    3d7e:	4952                	lw	s2,20(sp)
    3d80:	49c2                	lw	s3,16(sp)
    3d82:	4a32                	lw	s4,12(sp)
    3d84:	4501                	li	a0,0
    3d86:	6105                	addi	sp,sp,32
    3d88:	8082                	ret

00003d8a <NVIC_EnableIRQ>:
NVIC_EnableIRQ():
D:\projects\mechanical_arm\Firmware\UWB\libraries\sdk\Core/core_riscv.h:129
RV_STATIC_INLINE void NVIC_EnableIRQ(IRQn_Type IRQn){
    3d8a:	1101                	addi	sp,sp,-32
    3d8c:	ce22                	sw	s0,28(sp)
    3d8e:	1000                	addi	s0,sp,32
    3d90:	fea42623          	sw	a0,-20(s0)
D:\projects\mechanical_arm\Firmware\UWB\libraries\sdk\Core/core_riscv.h:130
  NVIC->IENR[((uint32_t)(IRQn) >> 5)] = (1 << ((uint32_t)(IRQn) & 0x1F));
    3d94:	fec42783          	lw	a5,-20(s0)
    3d98:	8bfd                	andi	a5,a5,31
    3d9a:	4705                	li	a4,1
    3d9c:	00f716b3          	sll	a3,a4,a5
    3da0:	e000e737          	lui	a4,0xe000e
    3da4:	fec42783          	lw	a5,-20(s0)
    3da8:	8395                	srli	a5,a5,0x5
    3daa:	04078793          	addi	a5,a5,64
    3dae:	078a                	slli	a5,a5,0x2
    3db0:	97ba                	add	a5,a5,a4
    3db2:	c394                	sw	a3,0(a5)
D:\projects\mechanical_arm\Firmware\UWB\libraries\sdk\Core/core_riscv.h:131
}
    3db4:	0001                	nop
    3db6:	4472                	lw	s0,28(sp)
    3db8:	6105                	addi	sp,sp,32
    3dba:	8082                	ret

00003dbc <NVIC_DisableIRQ>:
NVIC_DisableIRQ():
D:\projects\mechanical_arm\Firmware\UWB\libraries\sdk\Core/core_riscv.h:140
{
    3dbc:	1101                	addi	sp,sp,-32
    3dbe:	ce22                	sw	s0,28(sp)
    3dc0:	1000                	addi	s0,sp,32
    3dc2:	fea42623          	sw	a0,-20(s0)
D:\projects\mechanical_arm\Firmware\UWB\libraries\sdk\Core/core_riscv.h:141
  NVIC->IRER[((uint32_t)(IRQn) >> 5)] = (1 << ((uint32_t)(IRQn) & 0x1F));
    3dc6:	fec42783          	lw	a5,-20(s0)
    3dca:	8bfd                	andi	a5,a5,31
    3dcc:	4705                	li	a4,1
    3dce:	00f716b3          	sll	a3,a4,a5
    3dd2:	e000e737          	lui	a4,0xe000e
    3dd6:	fec42783          	lw	a5,-20(s0)
    3dda:	8395                	srli	a5,a5,0x5
    3ddc:	06078793          	addi	a5,a5,96
    3de0:	078a                	slli	a5,a5,0x2
    3de2:	97ba                	add	a5,a5,a4
    3de4:	c394                	sw	a3,0(a5)
D:\projects\mechanical_arm\Firmware\UWB\libraries\sdk\Core/core_riscv.h:142
}
    3de6:	0001                	nop
    3de8:	4472                	lw	s0,28(sp)
    3dea:	6105                	addi	sp,sp,32
    3dec:	8082                	ret

00003dee <Delay_Ms>:
Delay_Ms():
D:/projects/mechanical_arm/Firmware/UWB/platform/port.c:12
#include "port.h"
#include "deca_types.h"

static uint16_t p_ms = 0;
void Delay_Ms(uint32_t n)
{
    3dee:	7179                	addi	sp,sp,-48
    3df0:	d622                	sw	s0,44(sp)
    3df2:	1800                	addi	s0,sp,48
    3df4:	fca42e23          	sw	a0,-36(s0)
D:/projects/mechanical_arm/Firmware/UWB/platform/port.c:15
    uint32_t i;

    SysTick->SR &= ~(1 << 0);
    3df8:	e000f737          	lui	a4,0xe000f
    3dfc:	4354                	lw	a3,4(a4)
    3dfe:	e000f737          	lui	a4,0xe000f
    3e02:	9af9                	andi	a3,a3,-2
    3e04:	c354                	sw	a3,4(a4)
D:/projects/mechanical_arm/Firmware/UWB/platform/port.c:16
    i = (uint32_t)n * p_ms;
    3e06:	89c1d703          	lhu	a4,-1892(gp) # 200002cc <p_ms>
    3e0a:	86ba                	mv	a3,a4
    3e0c:	fdc42703          	lw	a4,-36(s0)
    3e10:	02d70733          	mul	a4,a4,a3
    3e14:	fee42623          	sw	a4,-20(s0)
D:/projects/mechanical_arm/Firmware/UWB/platform/port.c:18

    SysTick->CMP = i;
    3e18:	e000f737          	lui	a4,0xe000f
    3e1c:	fec42683          	lw	a3,-20(s0)
    3e20:	87b6                	mv	a5,a3
    3e22:	4801                	li	a6,0
    3e24:	cb1c                	sw	a5,16(a4)
    3e26:	01072a23          	sw	a6,20(a4) # e000f014 <_eusrstack+0xbffff014>
D:/projects/mechanical_arm/Firmware/UWB/platform/port.c:19
    SysTick->CTLR |= (1 << 4) | (1 << 5) | (1 << 0);
    3e2a:	e000f7b7          	lui	a5,0xe000f
    3e2e:	4398                	lw	a4,0(a5)
    3e30:	e000f7b7          	lui	a5,0xe000f
    3e34:	03176713          	ori	a4,a4,49
    3e38:	c398                	sw	a4,0(a5)
D:/projects/mechanical_arm/Firmware/UWB/platform/port.c:21

    while((SysTick->SR & (1 << 0)) != (1 << 0))
    3e3a:	0001                	nop
D:/projects/mechanical_arm/Firmware/UWB/platform/port.c:21 (discriminator 1)
    3e3c:	e000f7b7          	lui	a5,0xe000f
    3e40:	43dc                	lw	a5,4(a5)
    3e42:	0017f713          	andi	a4,a5,1
    3e46:	4785                	li	a5,1
    3e48:	fef71ae3          	bne	a4,a5,3e3c <Delay_Ms+0x4e>
D:/projects/mechanical_arm/Firmware/UWB/platform/port.c:23
        ;
    SysTick->CTLR &= ~(1 << 0);
    3e4c:	e000f7b7          	lui	a5,0xe000f
    3e50:	4398                	lw	a4,0(a5)
    3e52:	e000f7b7          	lui	a5,0xe000f
    3e56:	9b79                	andi	a4,a4,-2
    3e58:	c398                	sw	a4,0(a5)
D:/projects/mechanical_arm/Firmware/UWB/platform/port.c:24
}
    3e5a:	0001                	nop
    3e5c:	5432                	lw	s0,44(sp)
    3e5e:	6145                	addi	sp,sp,48
    3e60:	8082                	ret

00003e62 <EXTI_GetITEnStatus>:
EXTI_GetITEnStatus():
D:/projects/mechanical_arm/Firmware/UWB/platform/port.c:96

/*
 * @brief:  获取对应的外部中断通道的事件使能状态
 * */
ITStatus EXTI_GetITEnStatus(uint32_t EXTI_Line)
{
    3e62:	7179                	addi	sp,sp,-48
    3e64:	d622                	sw	s0,44(sp)
    3e66:	1800                	addi	s0,sp,48
    3e68:	fca42e23          	sw	a0,-36(s0)
D:/projects/mechanical_arm/Firmware/UWB/platform/port.c:97
  ITStatus bit_status = RESET;
    3e6c:	fe042623          	sw	zero,-20(s0)
D:/projects/mechanical_arm/Firmware/UWB/platform/port.c:98
  uint32_t enable_status = 0;
    3e70:	fe042423          	sw	zero,-24(s0)
D:/projects/mechanical_arm/Firmware/UWB/platform/port.c:100

  enable_status =  EXTI->EVENR & EXTI_Line;
    3e74:	400107b7          	lui	a5,0x40010
    3e78:	40078793          	addi	a5,a5,1024 # 40010400 <_eusrstack+0x20000400>
    3e7c:	43dc                	lw	a5,4(a5)
    3e7e:	fdc42703          	lw	a4,-36(s0)
    3e82:	8ff9                	and	a5,a5,a4
    3e84:	fef42423          	sw	a5,-24(s0)
D:/projects/mechanical_arm/Firmware/UWB/platform/port.c:101
  if (enable_status != (uint32_t)RESET)
    3e88:	fe842783          	lw	a5,-24(s0)
    3e8c:	c789                	beqz	a5,3e96 <EXTI_GetITEnStatus+0x34>
D:/projects/mechanical_arm/Firmware/UWB/platform/port.c:103
  {
      bit_status = SET;
    3e8e:	4785                	li	a5,1
    3e90:	fef42623          	sw	a5,-20(s0)
    3e94:	a019                	j	3e9a <EXTI_GetITEnStatus+0x38>
D:/projects/mechanical_arm/Firmware/UWB/platform/port.c:107
  }
  else
  {
      bit_status = RESET;
    3e96:	fe042623          	sw	zero,-20(s0)
D:/projects/mechanical_arm/Firmware/UWB/platform/port.c:109
  }
  return bit_status;
    3e9a:	fec42783          	lw	a5,-20(s0)
D:/projects/mechanical_arm/Firmware/UWB/platform/port.c:110
}
    3e9e:	853e                	mv	a0,a5
    3ea0:	5432                	lw	s0,44(sp)
    3ea2:	6145                	addi	sp,sp,48
    3ea4:	8082                	ret

00003ea6 <SPI_ChangeRate>:
SPI_ChangeRate():
D:/projects/mechanical_arm/Firmware/UWB/platform/port.c:117
/*
 * @brief:  SPI波特率修改
 * @note :  在通讯时不可以修改波特率
 * */
void SPI_ChangeRate(uint16_t scalingfactor)
{
    3ea6:	7179                	addi	sp,sp,-48
    3ea8:	d622                	sw	s0,44(sp)
    3eaa:	1800                	addi	s0,sp,48
    3eac:	87aa                	mv	a5,a0
    3eae:	fcf41f23          	sh	a5,-34(s0)
D:/projects/mechanical_arm/Firmware/UWB/platform/port.c:118
    uint16_t tmpreg = 0;
    3eb2:	fe041723          	sh	zero,-18(s0)
D:/projects/mechanical_arm/Firmware/UWB/platform/port.c:119
    tmpreg = SPIx->CTLR1;
    3eb6:	400137b7          	lui	a5,0x40013
    3eba:	0007d783          	lhu	a5,0(a5) # 40013000 <_eusrstack+0x20003000>
    3ebe:	fef41723          	sh	a5,-18(s0)
D:/projects/mechanical_arm/Firmware/UWB/platform/port.c:121
    // 将CTLR1寄存器的[5:3]置零
    tmpreg &= 0xFFC7;
    3ec2:	fee45783          	lhu	a5,-18(s0)
    3ec6:	fc77f793          	andi	a5,a5,-57
    3eca:	fef41723          	sh	a5,-18(s0)
D:/projects/mechanical_arm/Firmware/UWB/platform/port.c:123
    // 配置CTLR1寄存器的[5:3]
    tmpreg |= scalingfactor;
    3ece:	fee45703          	lhu	a4,-18(s0)
    3ed2:	fde45783          	lhu	a5,-34(s0)
    3ed6:	8fd9                	or	a5,a5,a4
    3ed8:	fef41723          	sh	a5,-18(s0)
D:/projects/mechanical_arm/Firmware/UWB/platform/port.c:125
    // 写入寄存器
    SPIx->CTLR1 = tmpreg;
    3edc:	400137b7          	lui	a5,0x40013
    3ee0:	fee45703          	lhu	a4,-18(s0)
    3ee4:	00e79023          	sh	a4,0(a5) # 40013000 <_eusrstack+0x20003000>
D:/projects/mechanical_arm/Firmware/UWB/platform/port.c:126
}
    3ee8:	0001                	nop
    3eea:	5432                	lw	s0,44(sp)
    3eec:	6145                	addi	sp,sp,48
    3eee:	8082                	ret

00003ef0 <spi_set_rate_high>:
spi_set_rate_high():
D:/projects/mechanical_arm/Firmware/UWB/platform/port.c:141

/*
 * @brief:  配置SPI速率，使之尽可能接近20MHz(锁定CLKPLL时，DW1000所能接受的最大SPI速率. 详细请查看DW1000手册)
 */
void spi_set_rate_high(void)
{
    3ef0:	1141                	addi	sp,sp,-16
    3ef2:	c606                	sw	ra,12(sp)
    3ef4:	c422                	sw	s0,8(sp)
    3ef6:	0800                	addi	s0,sp,16
D:/projects/mechanical_arm/Firmware/UWB/platform/port.c:142
    SPI_ChangeRate(SPI_BaudRatePrescaler_8);
    3ef8:	4541                	li	a0,16
    3efa:	3775                	jal	3ea6 <SPI_ChangeRate>
D:/projects/mechanical_arm/Firmware/UWB/platform/port.c:143
}
    3efc:	0001                	nop
    3efe:	40b2                	lw	ra,12(sp)
    3f00:	4422                	lw	s0,8(sp)
    3f02:	0141                	addi	sp,sp,16
    3f04:	8082                	ret

00003f06 <SPI_DW_Configuration>:
SPI_DW_Configuration():
D:/projects/mechanical_arm/Firmware/UWB/platform/port.c:149

/*
 * @brief:  SPI初始化
 */
void SPI_DW_Configuration(SPI_TypeDef* spi_port, uint16_t scaling_factor)
{
    3f06:	7139                	addi	sp,sp,-64
    3f08:	de06                	sw	ra,60(sp)
    3f0a:	dc22                	sw	s0,56(sp)
    3f0c:	0080                	addi	s0,sp,64
    3f0e:	fca42623          	sw	a0,-52(s0)
    3f12:	87ae                	mv	a5,a1
    3f14:	fcf41523          	sh	a5,-54(s0)
D:/projects/mechanical_arm/Firmware/UWB/platform/port.c:152
    SPI_InitTypeDef  SPI_InitStructure;
    GPIO_InitTypeDef GPIO_InitStructure;
    SPI_I2S_DeInit(spi_port);
    3f18:	fcc42503          	lw	a0,-52(s0)
    3f1c:	f3afe0ef          	jal	ra,2656 <SPI_I2S_DeInit>
D:/projects/mechanical_arm/Firmware/UWB/platform/port.c:153
    RCC_APB2PeriphClockCmd(RCC_APB2Periph_AFIO, ENABLE);
    3f20:	4585                	li	a1,1
    3f22:	4505                	li	a0,1
    3f24:	e1afe0ef          	jal	ra,253e <RCC_APB2PeriphClockCmd>
D:/projects/mechanical_arm/Firmware/UWB/platform/port.c:154
    RCC_APB2PeriphClockCmd(RCC_APB2Periph_SPI1, ENABLE);
    3f28:	4585                	li	a1,1
    3f2a:	6505                	lui	a0,0x1
    3f2c:	e12fe0ef          	jal	ra,253e <RCC_APB2PeriphClockCmd>
D:/projects/mechanical_arm/Firmware/UWB/platform/port.c:156

    SPI_InitStructure.SPI_Direction = SPI_Direction_2Lines_FullDuplex;  // 双线双向全双工
    3f30:	fc041e23          	sh	zero,-36(s0)
D:/projects/mechanical_arm/Firmware/UWB/platform/port.c:157
    SPI_InitStructure.SPI_Mode = SPI_Mode_Master;
    3f34:	10400793          	li	a5,260
    3f38:	fcf41f23          	sh	a5,-34(s0)
D:/projects/mechanical_arm/Firmware/UWB/platform/port.c:158
    SPI_InitStructure.SPI_DataSize = SPI_DataSize_8b;
    3f3c:	fe041023          	sh	zero,-32(s0)
D:/projects/mechanical_arm/Firmware/UWB/platform/port.c:161

    // 选择SPI模式0，此模式下不需要额外配置DW1000的GPIO5/6
    SPI_InitStructure.SPI_CPOL = SPI_CPOL_Low;
    3f40:	fe041123          	sh	zero,-30(s0)
D:/projects/mechanical_arm/Firmware/UWB/platform/port.c:162
    SPI_InitStructure.SPI_CPHA = SPI_CPHA_1Edge;
    3f44:	fe041223          	sh	zero,-28(s0)
D:/projects/mechanical_arm/Firmware/UWB/platform/port.c:164

    SPI_InitStructure.SPI_BaudRatePrescaler = scaling_factor;                          // 定义波特率预分频的值
    3f48:	fca45783          	lhu	a5,-54(s0)
    3f4c:	fef41423          	sh	a5,-24(s0)
D:/projects/mechanical_arm/Firmware/UWB/platform/port.c:165
    SPI_InitStructure.SPI_NSS = SPI_NSS_Soft;                               // 主机模式，使用软件控制NSS引脚
    3f50:	20000793          	li	a5,512
    3f54:	fef41323          	sh	a5,-26(s0)
D:/projects/mechanical_arm/Firmware/UWB/platform/port.c:166
    SPI_InitStructure.SPI_FirstBit = SPI_FirstBit_MSB;                      // 指定数据传输从MSB位还是LSB位开始:数据传输从MSB位开始
    3f58:	fe041523          	sh	zero,-22(s0)
D:/projects/mechanical_arm/Firmware/UWB/platform/port.c:167
    SPI_InitStructure.SPI_CRCPolynomial = 7;
    3f5c:	479d                	li	a5,7
    3f5e:	fef41623          	sh	a5,-20(s0)
D:/projects/mechanical_arm/Firmware/UWB/platform/port.c:169

    SPI_Init(spi_port, &SPI_InitStructure);
    3f62:	fdc40793          	addi	a5,s0,-36
    3f66:	85be                	mv	a1,a5
    3f68:	fcc42503          	lw	a0,-52(s0)
    3f6c:	f54fe0ef          	jal	ra,26c0 <SPI_Init>
D:/projects/mechanical_arm/Firmware/UWB/platform/port.c:172

    // 相关引脚配置
    GPIO_InitStructure.GPIO_Pin = SPIx_CS;
    3f70:	47c1                	li	a5,16
    3f72:	fcf41823          	sh	a5,-48(s0)
D:/projects/mechanical_arm/Firmware/UWB/platform/port.c:173
    GPIO_InitStructure.GPIO_Mode = GPIO_Mode_Out_PP;
    3f76:	47c1                	li	a5,16
    3f78:	fcf42c23          	sw	a5,-40(s0)
D:/projects/mechanical_arm/Firmware/UWB/platform/port.c:174
    GPIO_InitStructure.GPIO_Speed = GPIO_Speed_50MHz;
    3f7c:	478d                	li	a5,3
    3f7e:	fcf42a23          	sw	a5,-44(s0)
D:/projects/mechanical_arm/Firmware/UWB/platform/port.c:175
    GPIO_Init(SPIx_CS_GPIO, &GPIO_InitStructure);
    3f82:	fd040793          	addi	a5,s0,-48
    3f86:	85be                	mv	a1,a5
    3f88:	400117b7          	lui	a5,0x40011
    3f8c:	80078513          	addi	a0,a5,-2048 # 40010800 <_eusrstack+0x20000800>
    3f90:	ec9fd0ef          	jal	ra,1e58 <GPIO_Init>
D:/projects/mechanical_arm/Firmware/UWB/platform/port.c:177

    GPIO_InitStructure.GPIO_Pin = SPIx_SCK;
    3f94:	02000793          	li	a5,32
    3f98:	fcf41823          	sh	a5,-48(s0)
D:/projects/mechanical_arm/Firmware/UWB/platform/port.c:178
    GPIO_InitStructure.GPIO_Mode = GPIO_Mode_AF_PP;
    3f9c:	47e1                	li	a5,24
    3f9e:	fcf42c23          	sw	a5,-40(s0)
D:/projects/mechanical_arm/Firmware/UWB/platform/port.c:179
    GPIO_InitStructure.GPIO_Speed = GPIO_Speed_50MHz;
    3fa2:	478d                	li	a5,3
    3fa4:	fcf42a23          	sw	a5,-44(s0)
D:/projects/mechanical_arm/Firmware/UWB/platform/port.c:180
    GPIO_Init(SPIx_GPIO, &GPIO_InitStructure);
    3fa8:	fd040793          	addi	a5,s0,-48
    3fac:	85be                	mv	a1,a5
    3fae:	400117b7          	lui	a5,0x40011
    3fb2:	80078513          	addi	a0,a5,-2048 # 40010800 <_eusrstack+0x20000800>
    3fb6:	ea3fd0ef          	jal	ra,1e58 <GPIO_Init>
D:/projects/mechanical_arm/Firmware/UWB/platform/port.c:182

    GPIO_InitStructure.GPIO_Pin = SPIx_MOSI;
    3fba:	08000793          	li	a5,128
    3fbe:	fcf41823          	sh	a5,-48(s0)
D:/projects/mechanical_arm/Firmware/UWB/platform/port.c:183
    GPIO_InitStructure.GPIO_Mode = GPIO_Mode_AF_PP;
    3fc2:	47e1                	li	a5,24
    3fc4:	fcf42c23          	sw	a5,-40(s0)
D:/projects/mechanical_arm/Firmware/UWB/platform/port.c:184
    GPIO_InitStructure.GPIO_Speed = GPIO_Speed_50MHz;
    3fc8:	478d                	li	a5,3
    3fca:	fcf42a23          	sw	a5,-44(s0)
D:/projects/mechanical_arm/Firmware/UWB/platform/port.c:185
    GPIO_Init(SPIx_GPIO, &GPIO_InitStructure);
    3fce:	fd040793          	addi	a5,s0,-48
    3fd2:	85be                	mv	a1,a5
    3fd4:	400117b7          	lui	a5,0x40011
    3fd8:	80078513          	addi	a0,a5,-2048 # 40010800 <_eusrstack+0x20000800>
    3fdc:	e7dfd0ef          	jal	ra,1e58 <GPIO_Init>
D:/projects/mechanical_arm/Firmware/UWB/platform/port.c:187

    GPIO_InitStructure.GPIO_Pin = SPIx_MISO;
    3fe0:	04000793          	li	a5,64
    3fe4:	fcf41823          	sh	a5,-48(s0)
D:/projects/mechanical_arm/Firmware/UWB/platform/port.c:188
    GPIO_InitStructure.GPIO_Mode = GPIO_Mode_IN_FLOATING;
    3fe8:	4791                	li	a5,4
    3fea:	fcf42c23          	sw	a5,-40(s0)
D:/projects/mechanical_arm/Firmware/UWB/platform/port.c:189
    GPIO_InitStructure.GPIO_Speed = GPIO_Speed_50MHz;
    3fee:	478d                	li	a5,3
    3ff0:	fcf42a23          	sw	a5,-44(s0)
D:/projects/mechanical_arm/Firmware/UWB/platform/port.c:190
    GPIO_Init(SPIx_GPIO, &GPIO_InitStructure);
    3ff4:	fd040793          	addi	a5,s0,-48
    3ff8:	85be                	mv	a1,a5
    3ffa:	400117b7          	lui	a5,0x40011
    3ffe:	80078513          	addi	a0,a5,-2048 # 40010800 <_eusrstack+0x20000800>
    4002:	e57fd0ef          	jal	ra,1e58 <GPIO_Init>
D:/projects/mechanical_arm/Firmware/UWB/platform/port.c:193

    // 使能SPI
    SPI_Cmd(spi_port, ENABLE);
    4006:	4585                	li	a1,1
    4008:	fcc42503          	lw	a0,-52(s0)
    400c:	facfe0ef          	jal	ra,27b8 <SPI_Cmd>
D:/projects/mechanical_arm/Firmware/UWB/platform/port.c:196

    // 将CS引脚拉高
    GPIO_SetBits(SPIx_CS_GPIO, SPIx_CS);
    4010:	45c1                	li	a1,16
    4012:	400117b7          	lui	a5,0x40011
    4016:	80078513          	addi	a0,a5,-2048 # 40010800 <_eusrstack+0x20000800>
    401a:	8a2fe0ef          	jal	ra,20bc <GPIO_SetBits>
D:/projects/mechanical_arm/Firmware/UWB/platform/port.c:197
}
    401e:	0001                	nop
    4020:	50f2                	lw	ra,60(sp)
    4022:	5462                	lw	s0,56(sp)
    4024:	6121                	addi	sp,sp,64
    4026:	8082                	ret

00004028 <reset_DW1000>:
reset_DW1000():
D:/projects/mechanical_arm/Firmware/UWB/platform/port.c:203

/*
 * @brief:  复位DW1000
 */
void reset_DW1000(void)
{
    4028:	1101                	addi	sp,sp,-32
    402a:	ce06                	sw	ra,28(sp)
    402c:	cc22                	sw	s0,24(sp)
    402e:	1000                	addi	s0,sp,32
D:/projects/mechanical_arm/Firmware/UWB/platform/port.c:205
    GPIO_InitTypeDef GPIO_InitStructure;
    GPIO_InitStructure.GPIO_Pin = DW1000_RSTn;
    4030:	10000793          	li	a5,256
    4034:	fef41223          	sh	a5,-28(s0)
D:/projects/mechanical_arm/Firmware/UWB/platform/port.c:206
    GPIO_InitStructure.GPIO_Mode = GPIO_Mode_Out_PP;
    4038:	47c1                	li	a5,16
    403a:	fef42623          	sw	a5,-20(s0)
D:/projects/mechanical_arm/Firmware/UWB/platform/port.c:207
    GPIO_InitStructure.GPIO_Speed = GPIO_Speed_50MHz;
    403e:	478d                	li	a5,3
    4040:	fef42423          	sw	a5,-24(s0)
D:/projects/mechanical_arm/Firmware/UWB/platform/port.c:208
    GPIO_Init(DW1000_RSTn_GPIO, &GPIO_InitStructure);
    4044:	fe440793          	addi	a5,s0,-28
    4048:	85be                	mv	a1,a5
    404a:	400117b7          	lui	a5,0x40011
    404e:	40078513          	addi	a0,a5,1024 # 40011400 <_eusrstack+0x20001400>
    4052:	e07fd0ef          	jal	ra,1e58 <GPIO_Init>
D:/projects/mechanical_arm/Firmware/UWB/platform/port.c:210

    GPIO_ResetBits(DW1000_RSTn_GPIO, DW1000_RSTn);
    4056:	10000593          	li	a1,256
    405a:	400117b7          	lui	a5,0x40011
    405e:	40078513          	addi	a0,a5,1024 # 40011400 <_eusrstack+0x20001400>
    4062:	87cfe0ef          	jal	ra,20de <GPIO_ResetBits>
D:/projects/mechanical_arm/Firmware/UWB/platform/port.c:212

    GPIO_InitStructure.GPIO_Pin = DW1000_RSTn;
    4066:	10000793          	li	a5,256
    406a:	fef41223          	sh	a5,-28(s0)
D:/projects/mechanical_arm/Firmware/UWB/platform/port.c:213
    GPIO_InitStructure.GPIO_Mode = GPIO_Mode_AIN;
    406e:	fe042623          	sw	zero,-20(s0)
D:/projects/mechanical_arm/Firmware/UWB/platform/port.c:214
    GPIO_InitStructure.GPIO_Speed = GPIO_Speed_50MHz;
    4072:	478d                	li	a5,3
    4074:	fef42423          	sw	a5,-24(s0)
D:/projects/mechanical_arm/Firmware/UWB/platform/port.c:215
    GPIO_Init(DW1000_RSTn_GPIO, &GPIO_InitStructure);
    4078:	fe440793          	addi	a5,s0,-28
    407c:	85be                	mv	a1,a5
    407e:	400117b7          	lui	a5,0x40011
    4082:	40078513          	addi	a0,a5,1024 # 40011400 <_eusrstack+0x20001400>
    4086:	dd3fd0ef          	jal	ra,1e58 <GPIO_Init>
D:/projects/mechanical_arm/Firmware/UWB/platform/port.c:217

    Delay_Ms(2);
    408a:	4509                	li	a0,2
    408c:	d63ff0ef          	jal	ra,3dee <Delay_Ms>
D:/projects/mechanical_arm/Firmware/UWB/platform/port.c:218
}
    4090:	0001                	nop
    4092:	40f2                	lw	ra,28(sp)
    4094:	4462                	lw	s0,24(sp)
    4096:	6105                	addi	sp,sp,32
    4098:	8082                	ret

0000409a <port_set_deca_isr>:
port_set_deca_isr():
D:/projects/mechanical_arm/Firmware/UWB/platform/port.c:274
    }
}


void port_set_deca_isr(port_deca_isr_t deca_isr)
{
    409a:	7179                	addi	sp,sp,-48
    409c:	d606                	sw	ra,44(sp)
    409e:	d422                	sw	s0,40(sp)
    40a0:	1800                	addi	s0,sp,48
    40a2:	fca42e23          	sw	a0,-36(s0)
D:/projects/mechanical_arm/Firmware/UWB/platform/port.c:276
    /* Check DW1000 IRQ activation status. */
    ITStatus en = port_GetEXT_IRQStatus();
    40a6:	4561                	li	a0,24
    40a8:	dbbff0ef          	jal	ra,3e62 <EXTI_GetITEnStatus>
    40ac:	fea42623          	sw	a0,-20(s0)
D:/projects/mechanical_arm/Firmware/UWB/platform/port.c:279

    /* If needed, deactivate DW1000 IRQ during the installation of the new handler. */
    if (en)
    40b0:	fec42783          	lw	a5,-20(s0)
    40b4:	c781                	beqz	a5,40bc <port_set_deca_isr+0x22>
D:/projects/mechanical_arm/Firmware/UWB/platform/port.c:281
    {
        port_DisableEXT_IRQ();
    40b6:	4561                	li	a0,24
    40b8:	d05ff0ef          	jal	ra,3dbc <NVIC_DisableIRQ>
D:/projects/mechanical_arm/Firmware/UWB/platform/port.c:283
    }
    port_deca_isr = deca_isr;
    40bc:	fdc42703          	lw	a4,-36(s0)
    40c0:	8ae1a023          	sw	a4,-1888(gp) # 200002d0 <port_deca_isr>
D:/projects/mechanical_arm/Firmware/UWB/platform/port.c:284
    if (en)
    40c4:	fec42783          	lw	a5,-20(s0)
    40c8:	c781                	beqz	a5,40d0 <port_set_deca_isr+0x36>
D:/projects/mechanical_arm/Firmware/UWB/platform/port.c:286
    {
        port_EnableEXT_IRQ();
    40ca:	4561                	li	a0,24
    40cc:	cbfff0ef          	jal	ra,3d8a <NVIC_EnableIRQ>
D:/projects/mechanical_arm/Firmware/UWB/platform/port.c:288
    }
}
    40d0:	0001                	nop
    40d2:	50b2                	lw	ra,44(sp)
    40d4:	5422                	lw	s0,40(sp)
    40d6:	6145                	addi	sp,sp,48
    40d8:	8082                	ret

000040da <GPIO_RCC_Configuration>:
GPIO_RCC_Configuration():
D:/projects/mechanical_arm/Firmware/UWB/platform/port.c:291

void GPIO_RCC_Configuration(void)
{
    40da:	1141                	addi	sp,sp,-16
    40dc:	c606                	sw	ra,12(sp)
    40de:	c422                	sw	s0,8(sp)
    40e0:	0800                	addi	s0,sp,16
D:/projects/mechanical_arm/Firmware/UWB/platform/port.c:292
    RCC_APB2PeriphClockCmd(RCC_APB2Periph_GPIOA, ENABLE);
    40e2:	4585                	li	a1,1
    40e4:	4511                	li	a0,4
    40e6:	c58fe0ef          	jal	ra,253e <RCC_APB2PeriphClockCmd>
D:/projects/mechanical_arm/Firmware/UWB/platform/port.c:293
    RCC_APB2PeriphClockCmd(RCC_APB2Periph_GPIOB, ENABLE);
    40ea:	4585                	li	a1,1
    40ec:	4521                	li	a0,8
    40ee:	c50fe0ef          	jal	ra,253e <RCC_APB2PeriphClockCmd>
D:/projects/mechanical_arm/Firmware/UWB/platform/port.c:294
    RCC_APB2PeriphClockCmd(RCC_APB2Periph_GPIOC, ENABLE);
    40f2:	4585                	li	a1,1
    40f4:	4541                	li	a0,16
    40f6:	c48fe0ef          	jal	ra,253e <RCC_APB2PeriphClockCmd>
D:/projects/mechanical_arm/Firmware/UWB/platform/port.c:295
    RCC_APB2PeriphClockCmd(RCC_APB2Periph_GPIOD, ENABLE);
    40fa:	4585                	li	a1,1
    40fc:	02000513          	li	a0,32
    4100:	c3efe0ef          	jal	ra,253e <RCC_APB2PeriphClockCmd>
D:/projects/mechanical_arm/Firmware/UWB/platform/port.c:296
}
    4104:	0001                	nop
    4106:	40b2                	lw	ra,12(sp)
    4108:	4422                	lw	s0,8(sp)
    410a:	0141                	addi	sp,sp,16
    410c:	8082                	ret

0000410e <dwt_initialise>:
dwt_initialise():
D:/projects/mechanical_arm/Firmware/UWB/decadriver/deca_device.c:143
#define VBAT_ADDRESS   (0x08)
#define VTEMP_ADDRESS  (0x09)
#define XTRIM_ADDRESS  (0x1E)

int dwt_initialise(uint16 config)
{
    410e:	7179                	addi	sp,sp,-48
    4110:	d606                	sw	ra,44(sp)
    4112:	d422                	sw	s0,40(sp)
    4114:	d226                	sw	s1,36(sp)
    4116:	1800                	addi	s0,sp,48
    4118:	87aa                	mv	a5,a0
    411a:	fcf41f23          	sh	a5,-34(s0)
D:/projects/mechanical_arm/Firmware/UWB/decadriver/deca_device.c:144
    uint16 otp_addr = 0;
    411e:	fe041723          	sh	zero,-18(s0)
D:/projects/mechanical_arm/Firmware/UWB/decadriver/deca_device.c:145
    uint32 ldo_tune = 0;
    4122:	fe042423          	sw	zero,-24(s0)
D:/projects/mechanical_arm/Firmware/UWB/decadriver/deca_device.c:147

    pdw1000local->dblbuffon = 0; // Double buffer mode off by default
    4126:	8101a783          	lw	a5,-2032(gp) # 20000240 <pdw1000local>
    412a:	000788a3          	sb	zero,17(a5)
D:/projects/mechanical_arm/Firmware/UWB/decadriver/deca_device.c:148
    pdw1000local->wait4resp = 0;
    412e:	8101a783          	lw	a5,-2032(gp) # 20000240 <pdw1000local>
    4132:	00078d23          	sb	zero,26(a5)
D:/projects/mechanical_arm/Firmware/UWB/decadriver/deca_device.c:149
    pdw1000local->sleep_mode = 0;
    4136:	8101a783          	lw	a5,-2032(gp) # 20000240 <pdw1000local>
    413a:	00079c23          	sh	zero,24(a5)
D:/projects/mechanical_arm/Firmware/UWB/decadriver/deca_device.c:151

    pdw1000local->cbTxDone = NULL;
    413e:	8101a783          	lw	a5,-2032(gp) # 20000240 <pdw1000local>
    4142:	0207a423          	sw	zero,40(a5)
D:/projects/mechanical_arm/Firmware/UWB/decadriver/deca_device.c:152
    pdw1000local->cbRxOk = NULL;
    4146:	8101a783          	lw	a5,-2032(gp) # 20000240 <pdw1000local>
    414a:	0207a623          	sw	zero,44(a5)
D:/projects/mechanical_arm/Firmware/UWB/decadriver/deca_device.c:153
    pdw1000local->cbRxTo = NULL;
    414e:	8101a783          	lw	a5,-2032(gp) # 20000240 <pdw1000local>
    4152:	0207a823          	sw	zero,48(a5)
D:/projects/mechanical_arm/Firmware/UWB/decadriver/deca_device.c:154
    pdw1000local->cbRxErr = NULL;
    4156:	8101a783          	lw	a5,-2032(gp) # 20000240 <pdw1000local>
    415a:	0207aa23          	sw	zero,52(a5)
D:/projects/mechanical_arm/Firmware/UWB/decadriver/deca_device.c:157

    // Read and validate device ID return -1 if not recognised
    if (DWT_DEVICE_ID != dwt_readdevid()) // MP IC ONLY (i.e. DW1000) FOR THIS CODE
    415e:	2ab9                	jal	42bc <dwt_readdevid>
    4160:	872a                	mv	a4,a0
    4162:	deca07b7          	lui	a5,0xdeca0
    4166:	13078793          	addi	a5,a5,304 # deca0130 <_eusrstack+0xbec90130>
    416a:	00f70463          	beq	a4,a5,4172 <dwt_initialise+0x64>
D:/projects/mechanical_arm/Firmware/UWB/decadriver/deca_device.c:159
    {
        return DWT_ERROR ;
    416e:	57fd                	li	a5,-1
    4170:	a281                	j	42b0 <dwt_initialise+0x1a2>
D:/projects/mechanical_arm/Firmware/UWB/decadriver/deca_device.c:163
    }

    // Make sure the device is completely reset before starting initialisation
    dwt_softreset();
    4172:	68f000ef          	jal	ra,5000 <dwt_softreset>
D:/projects/mechanical_arm/Firmware/UWB/decadriver/deca_device.c:165

    _dwt_enableclocks(FORCE_SYS_XTI); // NOTE: set system clock to XTI - this is necessary to make sure the values read by _dwt_otpread are reliable
    4176:	4501                	li	a0,0
    4178:	429000ef          	jal	ra,4da0 <_dwt_enableclocks>
D:/projects/mechanical_arm/Firmware/UWB/decadriver/deca_device.c:168

    // Configure the CPLL lock detect
    dwt_write8bitoffsetreg(EXT_SYNC_ID, EC_CTRL_OFFSET, EC_CTRL_PLLLCK);
    417c:	4611                	li	a2,4
    417e:	4581                	li	a1,0
    4180:	02400513          	li	a0,36
    4184:	031000ef          	jal	ra,49b4 <dwt_write8bitoffsetreg>
D:/projects/mechanical_arm/Firmware/UWB/decadriver/deca_device.c:171

    // Read OTP revision number
    otp_addr = _dwt_otpread(XTRIM_ADDRESS) & 0xffff;        // Read 32 bit value, XTAL trim val is in low octet-0 (5 bits)
    4188:	4579                	li	a0,30
    418a:	13b000ef          	jal	ra,4ac4 <_dwt_otpread>
    418e:	87aa                	mv	a5,a0
    4190:	fef41723          	sh	a5,-18(s0)
D:/projects/mechanical_arm/Firmware/UWB/decadriver/deca_device.c:172
    pdw1000local->otprev = (otp_addr >> 8) & 0xff;            // OTP revision is next byte
    4194:	fee45783          	lhu	a5,-18(s0)
    4198:	83a1                	srli	a5,a5,0x8
    419a:	01079713          	slli	a4,a5,0x10
    419e:	8341                	srli	a4,a4,0x10
    41a0:	8101a783          	lw	a5,-2032(gp) # 20000240 <pdw1000local>
    41a4:	0ff77713          	andi	a4,a4,255
    41a8:	00e784a3          	sb	a4,9(a5)
D:/projects/mechanical_arm/Firmware/UWB/decadriver/deca_device.c:175

    // Load LDO tune from OTP and kick it if there is a value actually programmed.
    ldo_tune = _dwt_otpread(LDOTUNE_ADDRESS);
    41ac:	4511                	li	a0,4
    41ae:	117000ef          	jal	ra,4ac4 <_dwt_otpread>
    41b2:	fea42423          	sw	a0,-24(s0)
D:/projects/mechanical_arm/Firmware/UWB/decadriver/deca_device.c:176
    if((ldo_tune & 0xFF) != 0)
    41b6:	fe842783          	lw	a5,-24(s0)
    41ba:	0ff7f793          	andi	a5,a5,255
    41be:	c39d                	beqz	a5,41e4 <dwt_initialise+0xd6>
D:/projects/mechanical_arm/Firmware/UWB/decadriver/deca_device.c:179
    {
        // Kick LDO tune
        dwt_write8bitoffsetreg(OTP_IF_ID, OTP_SF, OTP_SF_LDO_KICK); // Set load LDE kick bit
    41c0:	4609                	li	a2,2
    41c2:	45c9                	li	a1,18
    41c4:	02d00513          	li	a0,45
    41c8:	7ec000ef          	jal	ra,49b4 <dwt_write8bitoffsetreg>
D:/projects/mechanical_arm/Firmware/UWB/decadriver/deca_device.c:180
        pdw1000local->sleep_mode |= AON_WCFG_ONW_LLDO; // LDO tune must be kicked at wake-up
    41cc:	8101a783          	lw	a5,-2032(gp) # 20000240 <pdw1000local>
    41d0:	0187d683          	lhu	a3,24(a5)
    41d4:	8101a783          	lw	a5,-2032(gp) # 20000240 <pdw1000local>
    41d8:	6705                	lui	a4,0x1
    41da:	8f55                	or	a4,a4,a3
    41dc:	0742                	slli	a4,a4,0x10
    41de:	8341                	srli	a4,a4,0x10
    41e0:	00e79c23          	sh	a4,24(a5)
D:/projects/mechanical_arm/Firmware/UWB/decadriver/deca_device.c:184
    }

    // Load Part and Lot ID from OTP
    pdw1000local->partID = _dwt_otpread(PARTID_ADDRESS);
    41e4:	8101a483          	lw	s1,-2032(gp) # 20000240 <pdw1000local>
    41e8:	4519                	li	a0,6
    41ea:	0db000ef          	jal	ra,4ac4 <_dwt_otpread>
    41ee:	87aa                	mv	a5,a0
    41f0:	c09c                	sw	a5,0(s1)
D:/projects/mechanical_arm/Firmware/UWB/decadriver/deca_device.c:185
    pdw1000local->lotID = _dwt_otpread(LOTID_ADDRESS);
    41f2:	8101a483          	lw	s1,-2032(gp) # 20000240 <pdw1000local>
    41f6:	451d                	li	a0,7
    41f8:	0cd000ef          	jal	ra,4ac4 <_dwt_otpread>
    41fc:	87aa                	mv	a5,a0
    41fe:	c0dc                	sw	a5,4(s1)
D:/projects/mechanical_arm/Firmware/UWB/decadriver/deca_device.c:188

    // XTAL trim value is set in OTP for DW1000 module and EVK/TREK boards but that might not be the case in a custom design
    pdw1000local->init_xtrim = otp_addr & 0x1F;
    4200:	fee45783          	lhu	a5,-18(s0)
    4204:	0ff7f713          	andi	a4,a5,255
    4208:	8101a783          	lw	a5,-2032(gp) # 20000240 <pdw1000local>
    420c:	8b7d                	andi	a4,a4,31
    420e:	0ff77713          	andi	a4,a4,255
    4212:	00e78823          	sb	a4,16(a5)
D:/projects/mechanical_arm/Firmware/UWB/decadriver/deca_device.c:189
    if (!pdw1000local->init_xtrim) // A value of 0 means that the crystal has not been trimmed
    4216:	8101a783          	lw	a5,-2032(gp) # 20000240 <pdw1000local>
    421a:	0107c783          	lbu	a5,16(a5)
    421e:	e791                	bnez	a5,422a <dwt_initialise+0x11c>
D:/projects/mechanical_arm/Firmware/UWB/decadriver/deca_device.c:191
    {
        pdw1000local->init_xtrim = FS_XTALT_MIDRANGE ; // Set to mid-range if no calibration value inside
    4220:	8101a783          	lw	a5,-2032(gp) # 20000240 <pdw1000local>
    4224:	4741                	li	a4,16
    4226:	00e78823          	sb	a4,16(a5)
D:/projects/mechanical_arm/Firmware/UWB/decadriver/deca_device.c:194
    }
    // Configure XTAL trim
    dwt_setxtaltrim(pdw1000local->init_xtrim);
    422a:	8101a783          	lw	a5,-2032(gp) # 20000240 <pdw1000local>
    422e:	0107c783          	lbu	a5,16(a5)
    4232:	853e                	mv	a0,a5
    4234:	627000ef          	jal	ra,505a <dwt_setxtaltrim>
D:/projects/mechanical_arm/Firmware/UWB/decadriver/deca_device.c:197

    // Load leading edge detect code
    if(config & DWT_LOADUCODE)
    4238:	fde45783          	lhu	a5,-34(s0)
    423c:	8b85                	andi	a5,a5,1
    423e:	c395                	beqz	a5,4262 <dwt_initialise+0x154>
D:/projects/mechanical_arm/Firmware/UWB/decadriver/deca_device.c:199
    {
        _dwt_loaducodefromrom();
    4240:	159000ef          	jal	ra,4b98 <_dwt_loaducodefromrom>
D:/projects/mechanical_arm/Firmware/UWB/decadriver/deca_device.c:200
        pdw1000local->sleep_mode |= AON_WCFG_ONW_LLDE; // microcode must be loaded at wake-up
    4244:	8101a783          	lw	a5,-2032(gp) # 20000240 <pdw1000local>
    4248:	0187d683          	lhu	a3,24(a5)
    424c:	8101a783          	lw	a5,-2032(gp) # 20000240 <pdw1000local>
    4250:	6705                	lui	a4,0x1
    4252:	80070713          	addi	a4,a4,-2048 # 800 <__stack_size>
    4256:	8f55                	or	a4,a4,a3
    4258:	0742                	slli	a4,a4,0x10
    425a:	8341                	srli	a4,a4,0x10
    425c:	00e79c23          	sh	a4,24(a5)
    4260:	a03d                	j	428e <dwt_initialise+0x180>
D:/projects/mechanical_arm/Firmware/UWB/decadriver/deca_device.c:204
    }
    else // Should disable the LDERUN enable bit in 0x36, 0x4
    {
        uint16 rega = dwt_read16bitoffsetreg(PMSC_ID, PMSC_CTRL1_OFFSET+1) ;
    4262:	4595                	li	a1,5
    4264:	03600513          	li	a0,54
    4268:	6b2000ef          	jal	ra,491a <dwt_read16bitoffsetreg>
    426c:	87aa                	mv	a5,a0
    426e:	fef41323          	sh	a5,-26(s0)
D:/projects/mechanical_arm/Firmware/UWB/decadriver/deca_device.c:205
        rega &= 0xFDFF ; // Clear LDERUN bit
    4272:	fe645783          	lhu	a5,-26(s0)
    4276:	dff7f793          	andi	a5,a5,-513
    427a:	fef41323          	sh	a5,-26(s0)
D:/projects/mechanical_arm/Firmware/UWB/decadriver/deca_device.c:206
        dwt_write16bitoffsetreg(PMSC_ID, PMSC_CTRL1_OFFSET+1, rega) ;
    427e:	fe645783          	lhu	a5,-26(s0)
    4282:	863e                	mv	a2,a5
    4284:	4595                	li	a1,5
    4286:	03600513          	li	a0,54
    428a:	768000ef          	jal	ra,49f2 <dwt_write16bitoffsetreg>
D:/projects/mechanical_arm/Firmware/UWB/decadriver/deca_device.c:209
    }

    _dwt_enableclocks(ENABLE_ALL_SEQ); // Enable clocks for sequencing
    428e:	4505                	li	a0,1
    4290:	311000ef          	jal	ra,4da0 <_dwt_enableclocks>
D:/projects/mechanical_arm/Firmware/UWB/decadriver/deca_device.c:212

    // The 3 bits in AON CFG1 register must be cleared to ensure proper operation of the DW1000 in DEEPSLEEP mode.
    dwt_write8bitoffsetreg(AON_ID, AON_CFG1_OFFSET, 0x00);
    4294:	4601                	li	a2,0
    4296:	45a9                	li	a1,10
    4298:	02c00513          	li	a0,44
    429c:	718000ef          	jal	ra,49b4 <dwt_write8bitoffsetreg>
D:/projects/mechanical_arm/Firmware/UWB/decadriver/deca_device.c:215

    // Read system register / store local copy
    pdw1000local->sysCFGreg = dwt_read32bitreg(SYS_CFG_ID) ; // Read sysconfig register
    42a0:	8101a483          	lw	s1,-2032(gp) # 20000240 <pdw1000local>
    42a4:	4581                	li	a1,0
    42a6:	4511                	li	a0,4
    42a8:	2bfd                	jal	48a6 <dwt_read32bitoffsetreg>
    42aa:	87aa                	mv	a5,a0
    42ac:	c8dc                	sw	a5,20(s1)
D:/projects/mechanical_arm/Firmware/UWB/decadriver/deca_device.c:217

    return DWT_SUCCESS ;
    42ae:	4781                	li	a5,0
D:/projects/mechanical_arm/Firmware/UWB/decadriver/deca_device.c:219

} // end dwt_initialise()
    42b0:	853e                	mv	a0,a5
    42b2:	50b2                	lw	ra,44(sp)
    42b4:	5422                	lw	s0,40(sp)
    42b6:	5492                	lw	s1,36(sp)
    42b8:	6145                	addi	sp,sp,48
    42ba:	8082                	ret

000042bc <dwt_readdevid>:
dwt_readdevid():
D:/projects/mechanical_arm/Firmware/UWB/decadriver/deca_device.c:393
 * output parameters
 *
 * returns the read value which for DW1000 is 0xDECA0130
 */
uint32 dwt_readdevid(void)
{
    42bc:	1141                	addi	sp,sp,-16
    42be:	c606                	sw	ra,12(sp)
    42c0:	c422                	sw	s0,8(sp)
    42c2:	0800                	addi	s0,sp,16
D:/projects/mechanical_arm/Firmware/UWB/decadriver/deca_device.c:394
    return dwt_read32bitoffsetreg(DEV_ID_ID,0);
    42c4:	4581                	li	a1,0
    42c6:	4501                	li	a0,0
    42c8:	2bf9                	jal	48a6 <dwt_read32bitoffsetreg>
    42ca:	87aa                	mv	a5,a0
D:/projects/mechanical_arm/Firmware/UWB/decadriver/deca_device.c:395
}
    42cc:	853e                	mv	a0,a5
    42ce:	40b2                	lw	ra,12(sp)
    42d0:	4422                	lw	s0,8(sp)
    42d2:	0141                	addi	sp,sp,16
    42d4:	8082                	ret

000042d6 <dwt_configure>:
dwt_configure():
D:/projects/mechanical_arm/Firmware/UWB/decadriver/deca_device.c:438
 * output parameters
 *
 * no return value
 */
void dwt_configure(dwt_config_t *config)
{
    42d6:	7179                	addi	sp,sp,-48
    42d8:	d606                	sw	ra,44(sp)
    42da:	d422                	sw	s0,40(sp)
    42dc:	1800                	addi	s0,sp,48
    42de:	fca42e23          	sw	a0,-36(s0)
D:/projects/mechanical_arm/Firmware/UWB/decadriver/deca_device.c:439
    uint8 nsSfd_result  = 0;
    42e2:	fe0407a3          	sb	zero,-17(s0)
D:/projects/mechanical_arm/Firmware/UWB/decadriver/deca_device.c:440
    uint8 useDWnsSFD = 0;
    42e6:	fe040723          	sb	zero,-18(s0)
D:/projects/mechanical_arm/Firmware/UWB/decadriver/deca_device.c:441
    uint8 chan = config->chan ;
    42ea:	fdc42783          	lw	a5,-36(s0)
    42ee:	0007c783          	lbu	a5,0(a5)
    42f2:	fef405a3          	sb	a5,-21(s0)
D:/projects/mechanical_arm/Firmware/UWB/decadriver/deca_device.c:443
    uint32 regval ;
    uint16 reg16 = lde_replicaCoeff[config->rxCode];
    42f6:	fdc42783          	lw	a5,-36(s0)
    42fa:	0057c783          	lbu	a5,5(a5)
    42fe:	873e                	mv	a4,a5
    4300:	67a9                	lui	a5,0xa
    4302:	0706                	slli	a4,a4,0x1
    4304:	f4878793          	addi	a5,a5,-184 # 9f48 <lde_replicaCoeff>
    4308:	97ba                	add	a5,a5,a4
    430a:	0007d783          	lhu	a5,0(a5)
    430e:	fef41623          	sh	a5,-20(s0)
D:/projects/mechanical_arm/Firmware/UWB/decadriver/deca_device.c:444
    uint8 prfIndex = config->prf - DWT_PRF_16M;
    4312:	fdc42783          	lw	a5,-36(s0)
    4316:	0017c783          	lbu	a5,1(a5)
    431a:	17fd                	addi	a5,a5,-1
    431c:	fef40523          	sb	a5,-22(s0)
D:/projects/mechanical_arm/Firmware/UWB/decadriver/deca_device.c:445
    uint8 bw = ((chan == 4) || (chan == 7)) ? 1 : 0 ; // Select wide or narrow band
    4320:	feb44703          	lbu	a4,-21(s0)
    4324:	4791                	li	a5,4
    4326:	00f70763          	beq	a4,a5,4334 <dwt_configure+0x5e>
D:/projects/mechanical_arm/Firmware/UWB/decadriver/deca_device.c:445 (discriminator 2)
    432a:	feb44703          	lbu	a4,-21(s0)
    432e:	479d                	li	a5,7
    4330:	00f71463          	bne	a4,a5,4338 <dwt_configure+0x62>
D:/projects/mechanical_arm/Firmware/UWB/decadriver/deca_device.c:445 (discriminator 3)
    4334:	4785                	li	a5,1
    4336:	a011                	j	433a <dwt_configure+0x64>
D:/projects/mechanical_arm/Firmware/UWB/decadriver/deca_device.c:445 (discriminator 4)
    4338:	4781                	li	a5,0
D:/projects/mechanical_arm/Firmware/UWB/decadriver/deca_device.c:445 (discriminator 6)
    433a:	fef404a3          	sb	a5,-23(s0)
D:/projects/mechanical_arm/Firmware/UWB/decadriver/deca_device.c:462 (discriminator 6)
           || (config->txPreambLength == DWT_PLEN_2048) || (config->txPreambLength == DWT_PLEN_4096));
    assert((config->phrMode == DWT_PHRMODE_STD) || (config->phrMode == DWT_PHRMODE_EXT));
#endif

    // For 110 kbps we need a special setup
    if(DWT_BR_110K == config->dataRate)
    433e:	fdc42783          	lw	a5,-36(s0)
    4342:	0077c783          	lbu	a5,7(a5)
    4346:	e385                	bnez	a5,4366 <dwt_configure+0x90>
D:/projects/mechanical_arm/Firmware/UWB/decadriver/deca_device.c:464
    {
        pdw1000local->sysCFGreg |= SYS_CFG_RXM110K ;
    4348:	8101a783          	lw	a5,-2032(gp) # 20000240 <pdw1000local>
    434c:	4bd4                	lw	a3,20(a5)
    434e:	8101a783          	lw	a5,-2032(gp) # 20000240 <pdw1000local>
    4352:	00400737          	lui	a4,0x400
    4356:	8f55                	or	a4,a4,a3
    4358:	cbd8                	sw	a4,20(a5)
D:/projects/mechanical_arm/Firmware/UWB/decadriver/deca_device.c:465
        reg16 >>= 3; // lde_replicaCoeff must be divided by 8
    435a:	fec45783          	lhu	a5,-20(s0)
    435e:	838d                	srli	a5,a5,0x3
    4360:	fef41623          	sh	a5,-20(s0)
    4364:	a819                	j	437a <dwt_configure+0xa4>
D:/projects/mechanical_arm/Firmware/UWB/decadriver/deca_device.c:469
    }
    else
    {
        pdw1000local->sysCFGreg &= (~SYS_CFG_RXM110K) ;
    4366:	8101a783          	lw	a5,-2032(gp) # 20000240 <pdw1000local>
    436a:	4bd4                	lw	a3,20(a5)
    436c:	8101a783          	lw	a5,-2032(gp) # 20000240 <pdw1000local>
    4370:	ffc00737          	lui	a4,0xffc00
    4374:	177d                	addi	a4,a4,-1
    4376:	8f75                	and	a4,a4,a3
    4378:	cbd8                	sw	a4,20(a5)
D:/projects/mechanical_arm/Firmware/UWB/decadriver/deca_device.c:472
    }

    pdw1000local->longFrames = config->phrMode ;
    437a:	8101a783          	lw	a5,-2032(gp) # 20000240 <pdw1000local>
    437e:	fdc42703          	lw	a4,-36(s0)
    4382:	00874703          	lbu	a4,8(a4) # ffc00008 <_eusrstack+0xdfbf0008>
    4386:	00e78423          	sb	a4,8(a5)
D:/projects/mechanical_arm/Firmware/UWB/decadriver/deca_device.c:474

    pdw1000local->sysCFGreg &= ~SYS_CFG_PHR_MODE_11;
    438a:	8101a783          	lw	a5,-2032(gp) # 20000240 <pdw1000local>
    438e:	4bd4                	lw	a3,20(a5)
    4390:	8101a783          	lw	a5,-2032(gp) # 20000240 <pdw1000local>
    4394:	fffd0737          	lui	a4,0xfffd0
    4398:	177d                	addi	a4,a4,-1
    439a:	8f75                	and	a4,a4,a3
    439c:	cbd8                	sw	a4,20(a5)
D:/projects/mechanical_arm/Firmware/UWB/decadriver/deca_device.c:475
    pdw1000local->sysCFGreg |= (SYS_CFG_PHR_MODE_11 & (config->phrMode << SYS_CFG_PHR_MODE_SHFT));
    439e:	8101a783          	lw	a5,-2032(gp) # 20000240 <pdw1000local>
    43a2:	4bd4                	lw	a3,20(a5)
    43a4:	fdc42783          	lw	a5,-36(s0)
    43a8:	0087c783          	lbu	a5,8(a5)
    43ac:	07c2                	slli	a5,a5,0x10
    43ae:	873e                	mv	a4,a5
    43b0:	000307b7          	lui	a5,0x30
    43b4:	8f7d                	and	a4,a4,a5
    43b6:	8101a783          	lw	a5,-2032(gp) # 20000240 <pdw1000local>
    43ba:	8f55                	or	a4,a4,a3
    43bc:	cbd8                	sw	a4,20(a5)
D:/projects/mechanical_arm/Firmware/UWB/decadriver/deca_device.c:477

    dwt_write32bitreg(SYS_CFG_ID,pdw1000local->sysCFGreg) ;
    43be:	8101a783          	lw	a5,-2032(gp) # 20000240 <pdw1000local>
    43c2:	4bdc                	lw	a5,20(a5)
    43c4:	863e                	mv	a2,a5
    43c6:	4581                	li	a1,0
    43c8:	4511                	li	a0,4
    43ca:	2551                	jal	4a4e <dwt_write32bitoffsetreg>
D:/projects/mechanical_arm/Firmware/UWB/decadriver/deca_device.c:479
    // Set the lde_replicaCoeff
    dwt_write16bitoffsetreg(LDE_IF_ID, LDE_REPC_OFFSET, reg16) ;
    43cc:	fec45783          	lhu	a5,-20(s0)
    43d0:	863e                	mv	a2,a5
    43d2:	678d                	lui	a5,0x3
    43d4:	80478593          	addi	a1,a5,-2044 # 2804 <SPI_Cmd+0x4c>
    43d8:	02e00513          	li	a0,46
    43dc:	2d19                	jal	49f2 <dwt_write16bitoffsetreg>
D:/projects/mechanical_arm/Firmware/UWB/decadriver/deca_device.c:481

    _dwt_configlde(prfIndex);
    43de:	fea44783          	lbu	a5,-22(s0)
    43e2:	853e                	mv	a0,a5
    43e4:	75e000ef          	jal	ra,4b42 <_dwt_configlde>
D:/projects/mechanical_arm/Firmware/UWB/decadriver/deca_device.c:484

    // Configure PLL2/RF PLL block CFG/TUNE (for a given channel)
    dwt_write32bitoffsetreg(FS_CTRL_ID, FS_PLLCFG_OFFSET, fs_pll_cfg[chan_idx[chan]]);
    43e8:	feb44703          	lbu	a4,-21(s0)
    43ec:	82418793          	addi	a5,gp,-2012 # 20000254 <chan_idx>
    43f0:	97ba                	add	a5,a5,a4
    43f2:	0007c783          	lbu	a5,0(a5)
    43f6:	873e                	mv	a4,a5
    43f8:	67a9                	lui	a5,0xa
    43fa:	070a                	slli	a4,a4,0x2
    43fc:	f0478793          	addi	a5,a5,-252 # 9f04 <fs_pll_cfg>
    4400:	97ba                	add	a5,a5,a4
    4402:	439c                	lw	a5,0(a5)
    4404:	863e                	mv	a2,a5
    4406:	459d                	li	a1,7
    4408:	02b00513          	li	a0,43
    440c:	2589                	jal	4a4e <dwt_write32bitoffsetreg>
D:/projects/mechanical_arm/Firmware/UWB/decadriver/deca_device.c:485
    dwt_write8bitoffsetreg(FS_CTRL_ID, FS_PLLTUNE_OFFSET, fs_pll_tune[chan_idx[chan]]);
    440e:	feb44703          	lbu	a4,-21(s0)
    4412:	82418793          	addi	a5,gp,-2012 # 20000254 <chan_idx>
    4416:	97ba                	add	a5,a5,a4
    4418:	0007c783          	lbu	a5,0(a5)
    441c:	873e                	mv	a4,a5
    441e:	82c18793          	addi	a5,gp,-2004 # 2000025c <fs_pll_tune>
    4422:	97ba                	add	a5,a5,a4
    4424:	0007c783          	lbu	a5,0(a5)
    4428:	863e                	mv	a2,a5
    442a:	45ad                	li	a1,11
    442c:	02b00513          	li	a0,43
    4430:	2351                	jal	49b4 <dwt_write8bitoffsetreg>
D:/projects/mechanical_arm/Firmware/UWB/decadriver/deca_device.c:488

    // Configure RF RX blocks (for specified channel/bandwidth)
    dwt_write8bitoffsetreg(RF_CONF_ID, RF_RXCTRLH_OFFSET, rx_config[bw]);
    4432:	fe944703          	lbu	a4,-23(s0)
    4436:	83418793          	addi	a5,gp,-1996 # 20000264 <rx_config>
    443a:	97ba                	add	a5,a5,a4
    443c:	0007c783          	lbu	a5,0(a5)
    4440:	863e                	mv	a2,a5
    4442:	45ad                	li	a1,11
    4444:	02800513          	li	a0,40
    4448:	23b5                	jal	49b4 <dwt_write8bitoffsetreg>
D:/projects/mechanical_arm/Firmware/UWB/decadriver/deca_device.c:492

    // Configure RF TX blocks (for specified channel and PRF)
    // Configure RF TX control
    dwt_write32bitoffsetreg(RF_CONF_ID, RF_TXCTRL_OFFSET, tx_config[chan_idx[chan]]);
    444a:	feb44703          	lbu	a4,-21(s0)
    444e:	82418793          	addi	a5,gp,-2012 # 20000254 <chan_idx>
    4452:	97ba                	add	a5,a5,a4
    4454:	0007c783          	lbu	a5,0(a5)
    4458:	873e                	mv	a4,a5
    445a:	67a9                	lui	a5,0xa
    445c:	070a                	slli	a4,a4,0x2
    445e:	eec78793          	addi	a5,a5,-276 # 9eec <tx_config>
    4462:	97ba                	add	a5,a5,a4
    4464:	439c                	lw	a5,0(a5)
    4466:	863e                	mv	a2,a5
    4468:	45b1                	li	a1,12
    446a:	02800513          	li	a0,40
    446e:	23c5                	jal	4a4e <dwt_write32bitoffsetreg>
D:/projects/mechanical_arm/Firmware/UWB/decadriver/deca_device.c:496

    // Configure the baseband parameters (for specified PRF, bit rate, PAC, and SFD settings)
    // DTUNE0
    dwt_write16bitoffsetreg(DRX_CONF_ID, DRX_TUNE0b_OFFSET, sftsh[config->dataRate][config->nsSFD]);
    4470:	fdc42783          	lw	a5,-36(s0)
    4474:	0077c783          	lbu	a5,7(a5)
    4478:	873e                	mv	a4,a5
    447a:	fdc42783          	lw	a5,-36(s0)
    447e:	0067c783          	lbu	a5,6(a5)
    4482:	86be                	mv	a3,a5
    4484:	67a9                	lui	a5,0xa
    4486:	0706                	slli	a4,a4,0x1
    4488:	9736                	add	a4,a4,a3
    448a:	0706                	slli	a4,a4,0x1
    448c:	f1c78793          	addi	a5,a5,-228 # 9f1c <sftsh>
    4490:	97ba                	add	a5,a5,a4
    4492:	0007d783          	lhu	a5,0(a5)
    4496:	863e                	mv	a2,a5
    4498:	4589                	li	a1,2
    449a:	02700513          	li	a0,39
    449e:	2b91                	jal	49f2 <dwt_write16bitoffsetreg>
D:/projects/mechanical_arm/Firmware/UWB/decadriver/deca_device.c:499

    // DTUNE1
    dwt_write16bitoffsetreg(DRX_CONF_ID, DRX_TUNE1a_OFFSET, dtune1[prfIndex]);
    44a0:	fea44703          	lbu	a4,-22(s0)
    44a4:	0706                	slli	a4,a4,0x1
    44a6:	84418793          	addi	a5,gp,-1980 # 20000274 <dtune1>
    44aa:	97ba                	add	a5,a5,a4
    44ac:	0007d783          	lhu	a5,0(a5)
    44b0:	863e                	mv	a2,a5
    44b2:	4591                	li	a1,4
    44b4:	02700513          	li	a0,39
    44b8:	2b2d                	jal	49f2 <dwt_write16bitoffsetreg>
D:/projects/mechanical_arm/Firmware/UWB/decadriver/deca_device.c:501

    if(config->dataRate == DWT_BR_110K)
    44ba:	fdc42783          	lw	a5,-36(s0)
    44be:	0077c783          	lbu	a5,7(a5)
    44c2:	eb81                	bnez	a5,44d2 <dwt_configure+0x1fc>
D:/projects/mechanical_arm/Firmware/UWB/decadriver/deca_device.c:503
    {
        dwt_write16bitoffsetreg(DRX_CONF_ID, DRX_TUNE1b_OFFSET, DRX_TUNE1b_110K);
    44c4:	06400613          	li	a2,100
    44c8:	4599                	li	a1,6
    44ca:	02700513          	li	a0,39
    44ce:	2315                	jal	49f2 <dwt_write16bitoffsetreg>
    44d0:	a089                	j	4512 <dwt_configure+0x23c>
D:/projects/mechanical_arm/Firmware/UWB/decadriver/deca_device.c:507
    }
    else
    {
        if(config->txPreambLength == DWT_PLEN_64)
    44d2:	fdc42783          	lw	a5,-36(s0)
    44d6:	0027c703          	lbu	a4,2(a5)
    44da:	4791                	li	a5,4
    44dc:	00f71e63          	bne	a4,a5,44f8 <dwt_configure+0x222>
D:/projects/mechanical_arm/Firmware/UWB/decadriver/deca_device.c:509
        {
            dwt_write16bitoffsetreg(DRX_CONF_ID, DRX_TUNE1b_OFFSET, DRX_TUNE1b_6M8_PRE64);
    44e0:	4641                	li	a2,16
    44e2:	4599                	li	a1,6
    44e4:	02700513          	li	a0,39
    44e8:	2329                	jal	49f2 <dwt_write16bitoffsetreg>
D:/projects/mechanical_arm/Firmware/UWB/decadriver/deca_device.c:510
            dwt_write8bitoffsetreg(DRX_CONF_ID, DRX_TUNE4H_OFFSET, DRX_TUNE4H_PRE64);
    44ea:	4641                	li	a2,16
    44ec:	02600593          	li	a1,38
    44f0:	02700513          	li	a0,39
    44f4:	21c1                	jal	49b4 <dwt_write8bitoffsetreg>
    44f6:	a831                	j	4512 <dwt_configure+0x23c>
D:/projects/mechanical_arm/Firmware/UWB/decadriver/deca_device.c:514
        }
        else
        {
            dwt_write16bitoffsetreg(DRX_CONF_ID, DRX_TUNE1b_OFFSET, DRX_TUNE1b_850K_6M8);
    44f8:	02000613          	li	a2,32
    44fc:	4599                	li	a1,6
    44fe:	02700513          	li	a0,39
    4502:	29c5                	jal	49f2 <dwt_write16bitoffsetreg>
D:/projects/mechanical_arm/Firmware/UWB/decadriver/deca_device.c:515
            dwt_write8bitoffsetreg(DRX_CONF_ID, DRX_TUNE4H_OFFSET, DRX_TUNE4H_PRE128PLUS);
    4504:	02800613          	li	a2,40
    4508:	02600593          	li	a1,38
    450c:	02700513          	li	a0,39
    4510:	2155                	jal	49b4 <dwt_write8bitoffsetreg>
D:/projects/mechanical_arm/Firmware/UWB/decadriver/deca_device.c:520
        }
    }

    // DTUNE2
    dwt_write32bitoffsetreg(DRX_CONF_ID, DRX_TUNE2_OFFSET, digital_bb_config[prfIndex][config->rxPAC]);
    4512:	fea44703          	lbu	a4,-22(s0)
    4516:	fdc42783          	lw	a5,-36(s0)
    451a:	0037c783          	lbu	a5,3(a5)
    451e:	86be                	mv	a3,a5
    4520:	67a9                	lui	a5,0xa
    4522:	070a                	slli	a4,a4,0x2
    4524:	9736                	add	a4,a4,a3
    4526:	070a                	slli	a4,a4,0x2
    4528:	f2878793          	addi	a5,a5,-216 # 9f28 <digital_bb_config>
    452c:	97ba                	add	a5,a5,a4
    452e:	439c                	lw	a5,0(a5)
    4530:	863e                	mv	a2,a5
    4532:	45a1                	li	a1,8
    4534:	02700513          	li	a0,39
    4538:	2b19                	jal	4a4e <dwt_write32bitoffsetreg>
D:/projects/mechanical_arm/Firmware/UWB/decadriver/deca_device.c:524

    // DTUNE3 (SFD timeout)
    // Don't allow 0 - SFD timeout will always be enabled
    if(config->sfdTO == 0)
    453a:	fdc42783          	lw	a5,-36(s0)
    453e:	00a7d783          	lhu	a5,10(a5)
    4542:	eb81                	bnez	a5,4552 <dwt_configure+0x27c>
D:/projects/mechanical_arm/Firmware/UWB/decadriver/deca_device.c:526
    {
        config->sfdTO = DWT_SFDTOC_DEF;
    4544:	fdc42783          	lw	a5,-36(s0)
    4548:	6705                	lui	a4,0x1
    454a:	04170713          	addi	a4,a4,65 # 1041 <clock_set_freq+0x14f>
    454e:	00e79523          	sh	a4,10(a5)
D:/projects/mechanical_arm/Firmware/UWB/decadriver/deca_device.c:528
    }
    dwt_write16bitoffsetreg(DRX_CONF_ID, DRX_SFDTOC_OFFSET, config->sfdTO);
    4552:	fdc42783          	lw	a5,-36(s0)
    4556:	00a7d783          	lhu	a5,10(a5)
    455a:	863e                	mv	a2,a5
    455c:	02000593          	li	a1,32
    4560:	02700513          	li	a0,39
    4564:	2179                	jal	49f2 <dwt_write16bitoffsetreg>
D:/projects/mechanical_arm/Firmware/UWB/decadriver/deca_device.c:531

    // Configure AGC parameters
    dwt_write32bitoffsetreg( AGC_CFG_STS_ID, 0xC, agc_config.lo32);
    4566:	8381a783          	lw	a5,-1992(gp) # 20000268 <agc_config>
    456a:	863e                	mv	a2,a5
    456c:	45b1                	li	a1,12
    456e:	02300513          	li	a0,35
    4572:	29f1                	jal	4a4e <dwt_write32bitoffsetreg>
D:/projects/mechanical_arm/Firmware/UWB/decadriver/deca_device.c:532
    dwt_write16bitoffsetreg( AGC_CFG_STS_ID, 0x4, agc_config.target[prfIndex]);
    4574:	fea44783          	lbu	a5,-22(s0)
    4578:	83818713          	addi	a4,gp,-1992 # 20000268 <agc_config>
    457c:	0786                	slli	a5,a5,0x1
    457e:	97ba                	add	a5,a5,a4
    4580:	0047d783          	lhu	a5,4(a5)
    4584:	863e                	mv	a2,a5
    4586:	4591                	li	a1,4
    4588:	02300513          	li	a0,35
    458c:	219d                	jal	49f2 <dwt_write16bitoffsetreg>
D:/projects/mechanical_arm/Firmware/UWB/decadriver/deca_device.c:535

    // Set (non-standard) user SFD for improved performance,
    if(config->nsSFD)
    458e:	fdc42783          	lw	a5,-36(s0)
    4592:	0067c783          	lbu	a5,6(a5)
    4596:	c795                	beqz	a5,45c2 <dwt_configure+0x2ec>
D:/projects/mechanical_arm/Firmware/UWB/decadriver/deca_device.c:538
    {
        // Write non standard (DW) SFD length
        dwt_write8bitoffsetreg(USR_SFD_ID, 0x00, dwnsSFDlen[config->dataRate]);
    4598:	fdc42783          	lw	a5,-36(s0)
    459c:	0077c783          	lbu	a5,7(a5)
    45a0:	873e                	mv	a4,a5
    45a2:	84018793          	addi	a5,gp,-1984 # 20000270 <dwnsSFDlen>
    45a6:	97ba                	add	a5,a5,a4
    45a8:	0007c783          	lbu	a5,0(a5)
    45ac:	863e                	mv	a2,a5
    45ae:	4581                	li	a1,0
    45b0:	02100513          	li	a0,33
    45b4:	2101                	jal	49b4 <dwt_write8bitoffsetreg>
D:/projects/mechanical_arm/Firmware/UWB/decadriver/deca_device.c:539
        nsSfd_result = 3 ;
    45b6:	478d                	li	a5,3
    45b8:	fef407a3          	sb	a5,-17(s0)
D:/projects/mechanical_arm/Firmware/UWB/decadriver/deca_device.c:540
        useDWnsSFD = 1 ;
    45bc:	4785                	li	a5,1
    45be:	fef40723          	sb	a5,-18(s0)
D:/projects/mechanical_arm/Firmware/UWB/decadriver/deca_device.c:542
    }
    regval =  (CHAN_CTRL_TX_CHAN_MASK & (chan << CHAN_CTRL_TX_CHAN_SHIFT)) | // Transmit Channel
    45c2:	feb44783          	lbu	a5,-21(s0)
    45c6:	00f7f713          	andi	a4,a5,15
D:/projects/mechanical_arm/Firmware/UWB/decadriver/deca_device.c:543
              (CHAN_CTRL_RX_CHAN_MASK & (chan << CHAN_CTRL_RX_CHAN_SHIFT)) | // Receive Channel
    45ca:	feb44783          	lbu	a5,-21(s0)
    45ce:	0792                	slli	a5,a5,0x4
    45d0:	0ff7f793          	andi	a5,a5,255
D:/projects/mechanical_arm/Firmware/UWB/decadriver/deca_device.c:542
    regval =  (CHAN_CTRL_TX_CHAN_MASK & (chan << CHAN_CTRL_TX_CHAN_SHIFT)) | // Transmit Channel
    45d4:	8f5d                	or	a4,a4,a5
D:/projects/mechanical_arm/Firmware/UWB/decadriver/deca_device.c:544
              (CHAN_CTRL_RXFPRF_MASK & (config->prf << CHAN_CTRL_RXFPRF_SHIFT)) | // RX PRF
    45d6:	fdc42783          	lw	a5,-36(s0)
    45da:	0017c783          	lbu	a5,1(a5)
    45de:	07ca                	slli	a5,a5,0x12
    45e0:	86be                	mv	a3,a5
    45e2:	000c07b7          	lui	a5,0xc0
    45e6:	8ff5                	and	a5,a5,a3
D:/projects/mechanical_arm/Firmware/UWB/decadriver/deca_device.c:543
              (CHAN_CTRL_RX_CHAN_MASK & (chan << CHAN_CTRL_RX_CHAN_SHIFT)) | // Receive Channel
    45e8:	8f5d                	or	a4,a4,a5
D:/projects/mechanical_arm/Firmware/UWB/decadriver/deca_device.c:545
              ((CHAN_CTRL_TNSSFD|CHAN_CTRL_RNSSFD) & (nsSfd_result << CHAN_CTRL_TNSSFD_SHIFT)) | // nsSFD enable RX&TX
    45ea:	fef44783          	lbu	a5,-17(s0)
    45ee:	07d2                	slli	a5,a5,0x14
    45f0:	86be                	mv	a3,a5
    45f2:	003007b7          	lui	a5,0x300
    45f6:	8ff5                	and	a5,a5,a3
D:/projects/mechanical_arm/Firmware/UWB/decadriver/deca_device.c:544
              (CHAN_CTRL_RXFPRF_MASK & (config->prf << CHAN_CTRL_RXFPRF_SHIFT)) | // RX PRF
    45f8:	8f5d                	or	a4,a4,a5
D:/projects/mechanical_arm/Firmware/UWB/decadriver/deca_device.c:546
              (CHAN_CTRL_DWSFD & (useDWnsSFD << CHAN_CTRL_DWSFD_SHIFT)) | // Use DW nsSFD
    45fa:	fee44783          	lbu	a5,-18(s0)
    45fe:	07c6                	slli	a5,a5,0x11
    4600:	86be                	mv	a3,a5
    4602:	000207b7          	lui	a5,0x20
    4606:	8ff5                	and	a5,a5,a3
D:/projects/mechanical_arm/Firmware/UWB/decadriver/deca_device.c:545
              ((CHAN_CTRL_TNSSFD|CHAN_CTRL_RNSSFD) & (nsSfd_result << CHAN_CTRL_TNSSFD_SHIFT)) | // nsSFD enable RX&TX
    4608:	8f5d                	or	a4,a4,a5
D:/projects/mechanical_arm/Firmware/UWB/decadriver/deca_device.c:547
              (CHAN_CTRL_TX_PCOD_MASK & (config->txCode << CHAN_CTRL_TX_PCOD_SHIFT)) | // TX Preamble Code
    460a:	fdc42783          	lw	a5,-36(s0)
    460e:	0047c783          	lbu	a5,4(a5) # 20004 <_data_lma+0x15be0>
    4612:	07da                	slli	a5,a5,0x16
    4614:	86be                	mv	a3,a5
    4616:	07c007b7          	lui	a5,0x7c00
    461a:	8ff5                	and	a5,a5,a3
D:/projects/mechanical_arm/Firmware/UWB/decadriver/deca_device.c:546
              (CHAN_CTRL_DWSFD & (useDWnsSFD << CHAN_CTRL_DWSFD_SHIFT)) | // Use DW nsSFD
    461c:	8fd9                	or	a5,a5,a4
D:/projects/mechanical_arm/Firmware/UWB/decadriver/deca_device.c:548
              (CHAN_CTRL_RX_PCOD_MASK & (config->rxCode << CHAN_CTRL_RX_PCOD_SHIFT)) ; // RX Preamble Code
    461e:	fdc42703          	lw	a4,-36(s0)
    4622:	00574703          	lbu	a4,5(a4)
    4626:	076e                	slli	a4,a4,0x1b
D:/projects/mechanical_arm/Firmware/UWB/decadriver/deca_device.c:542
    regval =  (CHAN_CTRL_TX_CHAN_MASK & (chan << CHAN_CTRL_TX_CHAN_SHIFT)) | // Transmit Channel
    4628:	8fd9                	or	a5,a5,a4
    462a:	fef42223          	sw	a5,-28(s0)
D:/projects/mechanical_arm/Firmware/UWB/decadriver/deca_device.c:550

    dwt_write32bitreg(CHAN_CTRL_ID,regval) ;
    462e:	fe442603          	lw	a2,-28(s0)
    4632:	4581                	li	a1,0
    4634:	457d                	li	a0,31
    4636:	2921                	jal	4a4e <dwt_write32bitoffsetreg>
D:/projects/mechanical_arm/Firmware/UWB/decadriver/deca_device.c:553

    // Set up TX Preamble Size, PRF and Data Rate
    pdw1000local->txFCTRL = ((config->txPreambLength | config->prf) << TX_FCTRL_TXPRF_SHFT) | (config->dataRate << TX_FCTRL_TXBR_SHFT);
    4638:	fdc42783          	lw	a5,-36(s0)
    463c:	0027c703          	lbu	a4,2(a5) # 7c00002 <_data_lma+0x7bf5bde>
    4640:	fdc42783          	lw	a5,-36(s0)
    4644:	0017c783          	lbu	a5,1(a5)
    4648:	8fd9                	or	a5,a5,a4
    464a:	0ff7f793          	andi	a5,a5,255
    464e:	01079713          	slli	a4,a5,0x10
    4652:	fdc42783          	lw	a5,-36(s0)
    4656:	0077c783          	lbu	a5,7(a5)
    465a:	07b6                	slli	a5,a5,0xd
    465c:	8f5d                	or	a4,a4,a5
    465e:	8101a783          	lw	a5,-2032(gp) # 20000240 <pdw1000local>
    4662:	c7d8                	sw	a4,12(a5)
D:/projects/mechanical_arm/Firmware/UWB/decadriver/deca_device.c:554
    dwt_write32bitreg(TX_FCTRL_ID, pdw1000local->txFCTRL);
    4664:	8101a783          	lw	a5,-2032(gp) # 20000240 <pdw1000local>
    4668:	47dc                	lw	a5,12(a5)
    466a:	863e                	mv	a2,a5
    466c:	4581                	li	a1,0
    466e:	4521                	li	a0,8
    4670:	2ef9                	jal	4a4e <dwt_write32bitoffsetreg>
D:/projects/mechanical_arm/Firmware/UWB/decadriver/deca_device.c:560

    // The SFD transmit pattern is initialised by the DW1000 upon a user TX request, but (due to an IC issue) it is not done for an auto-ACK TX. The
    // SYS_CTRL write below works around this issue, by simultaneously initiating and aborting a transmission, which correctly initialises the SFD
    // after its configuration or reconfiguration.
    // This issue is not documented at the time of writing this code. It should be in next release of DW1000 User Manual (v2.09, from July 2016).
    dwt_write8bitoffsetreg(SYS_CTRL_ID, SYS_CTRL_OFFSET, SYS_CTRL_TXSTRT | SYS_CTRL_TRXOFF); // Request TX start and TRX off at the same time
    4672:	04200613          	li	a2,66
    4676:	4581                	li	a1,0
    4678:	4535                	li	a0,13
    467a:	2e2d                	jal	49b4 <dwt_write8bitoffsetreg>
D:/projects/mechanical_arm/Firmware/UWB/decadriver/deca_device.c:561
} // end dwt_configure()
    467c:	0001                	nop
    467e:	50b2                	lw	ra,44(sp)
    4680:	5422                	lw	s0,40(sp)
    4682:	6145                	addi	sp,sp,48
    4684:	8082                	ret

00004686 <dwt_writetodevice>:
dwt_writetodevice():
D:/projects/mechanical_arm/Firmware/UWB/decadriver/deca_device.c:946
    uint16      recordNumber,
    uint16      index,
    uint32      length,
    const uint8 *buffer
)
{
    4686:	7179                	addi	sp,sp,-48
    4688:	d606                	sw	ra,44(sp)
    468a:	d422                	sw	s0,40(sp)
    468c:	1800                	addi	s0,sp,48
    468e:	87aa                	mv	a5,a0
    4690:	872e                	mv	a4,a1
    4692:	fcc42c23          	sw	a2,-40(s0)
    4696:	fcd42a23          	sw	a3,-44(s0)
    469a:	fcf41f23          	sh	a5,-34(s0)
    469e:	87ba                	mv	a5,a4
    46a0:	fcf41e23          	sh	a5,-36(s0)
D:/projects/mechanical_arm/Firmware/UWB/decadriver/deca_device.c:948
    uint8 header[3] ; // Buffer to compose header in
    int   cnt = 0; // Counter for length of header
    46a4:	fe042623          	sw	zero,-20(s0)
D:/projects/mechanical_arm/Firmware/UWB/decadriver/deca_device.c:954
#ifdef DWT_API_ERROR_CHECK
    assert(recordNumber <= 0x3F); // Record number is limited to 6-bits.
#endif

    // Write message header selecting WRITE operation and addresses as appropriate (this is one to three bytes long)
    if (index == 0) // For index of 0, no sub-index is required
    46a8:	fdc45783          	lhu	a5,-36(s0)
    46ac:	e78d                	bnez	a5,46d6 <dwt_writetodevice+0x50>
D:/projects/mechanical_arm/Firmware/UWB/decadriver/deca_device.c:956
    {
        header[cnt++] = 0x80 | recordNumber ; // Bit-7 is WRITE operation, bit-6 zero=NO sub-addressing, bits 5-0 is reg file id
    46ae:	fde45783          	lhu	a5,-34(s0)
    46b2:	0ff7f713          	andi	a4,a5,255
    46b6:	fec42783          	lw	a5,-20(s0)
    46ba:	00178693          	addi	a3,a5,1
    46be:	fed42623          	sw	a3,-20(s0)
    46c2:	f8076713          	ori	a4,a4,-128
    46c6:	0ff77713          	andi	a4,a4,255
    46ca:	ff040693          	addi	a3,s0,-16
    46ce:	97b6                	add	a5,a5,a3
    46d0:	fee78c23          	sb	a4,-8(a5)
    46d4:	a045                	j	4774 <dwt_writetodevice+0xee>
D:/projects/mechanical_arm/Firmware/UWB/decadriver/deca_device.c:963
    else
    {
#ifdef DWT_API_ERROR_CHECK
        assert((index <= 0x7FFF) && ((index + length) <= 0x7FFF)); // Index and sub-addressable area are limited to 15-bits.
#endif
        header[cnt++] = 0xC0 | recordNumber ; // Bit-7 is WRITE operation, bit-6 one=sub-address follows, bits 5-0 is reg file id
    46d6:	fde45783          	lhu	a5,-34(s0)
    46da:	0ff7f713          	andi	a4,a5,255
    46de:	fec42783          	lw	a5,-20(s0)
    46e2:	00178693          	addi	a3,a5,1
    46e6:	fed42623          	sw	a3,-20(s0)
    46ea:	fc076713          	ori	a4,a4,-64
    46ee:	0ff77713          	andi	a4,a4,255
    46f2:	ff040693          	addi	a3,s0,-16
    46f6:	97b6                	add	a5,a5,a3
    46f8:	fee78c23          	sb	a4,-8(a5)
D:/projects/mechanical_arm/Firmware/UWB/decadriver/deca_device.c:965

        if (index <= 127) // For non-zero index < 127, just a single sub-index byte is required
    46fc:	fdc45703          	lhu	a4,-36(s0)
    4700:	07f00793          	li	a5,127
    4704:	02e7e263          	bltu	a5,a4,4728 <dwt_writetodevice+0xa2>
D:/projects/mechanical_arm/Firmware/UWB/decadriver/deca_device.c:967
        {
            header[cnt++] = (uint8)index ; // Bit-7 zero means no extension, bits 6-0 is index.
    4708:	fec42783          	lw	a5,-20(s0)
    470c:	00178713          	addi	a4,a5,1
    4710:	fee42623          	sw	a4,-20(s0)
    4714:	fdc45703          	lhu	a4,-36(s0)
    4718:	0ff77713          	andi	a4,a4,255
    471c:	ff040693          	addi	a3,s0,-16
    4720:	97b6                	add	a5,a5,a3
    4722:	fee78c23          	sb	a4,-8(a5)
    4726:	a0b9                	j	4774 <dwt_writetodevice+0xee>
D:/projects/mechanical_arm/Firmware/UWB/decadriver/deca_device.c:971
        }
        else
        {
            header[cnt++] = 0x80 | (uint8)(index) ; // Bit-7 one means extended index, bits 6-0 is low seven bits of index.
    4728:	fdc45783          	lhu	a5,-36(s0)
    472c:	0ff7f713          	andi	a4,a5,255
    4730:	fec42783          	lw	a5,-20(s0)
    4734:	00178693          	addi	a3,a5,1
    4738:	fed42623          	sw	a3,-20(s0)
    473c:	f8076713          	ori	a4,a4,-128
    4740:	0ff77713          	andi	a4,a4,255
    4744:	ff040693          	addi	a3,s0,-16
    4748:	97b6                	add	a5,a5,a3
    474a:	fee78c23          	sb	a4,-8(a5)
D:/projects/mechanical_arm/Firmware/UWB/decadriver/deca_device.c:972
            header[cnt++] =  (uint8) (index >> 7) ; // 8-bit value = high eight bits of index.
    474e:	fdc45783          	lhu	a5,-36(s0)
    4752:	839d                	srli	a5,a5,0x7
    4754:	01079693          	slli	a3,a5,0x10
    4758:	82c1                	srli	a3,a3,0x10
    475a:	fec42783          	lw	a5,-20(s0)
    475e:	00178713          	addi	a4,a5,1
    4762:	fee42623          	sw	a4,-20(s0)
    4766:	0ff6f713          	andi	a4,a3,255
    476a:	ff040693          	addi	a3,s0,-16
    476e:	97b6                	add	a5,a5,a3
    4770:	fee78c23          	sb	a4,-8(a5)
D:/projects/mechanical_arm/Firmware/UWB/decadriver/deca_device.c:977
        }
    }

    // Write it to the SPI
    writetospi(cnt,header,length,buffer);
    4774:	fec42783          	lw	a5,-20(s0)
    4778:	07c2                	slli	a5,a5,0x10
    477a:	83c1                	srli	a5,a5,0x10
    477c:	fe840713          	addi	a4,s0,-24
    4780:	fd442683          	lw	a3,-44(s0)
    4784:	fd842603          	lw	a2,-40(s0)
    4788:	85ba                	mv	a1,a4
    478a:	853e                	mv	a0,a5
    478c:	ccaff0ef          	jal	ra,3c56 <writetospi>
D:/projects/mechanical_arm/Firmware/UWB/decadriver/deca_device.c:978
} // end dwt_writetodevice()
    4790:	0001                	nop
    4792:	50b2                	lw	ra,44(sp)
    4794:	5422                	lw	s0,40(sp)
    4796:	6145                	addi	sp,sp,48
    4798:	8082                	ret

0000479a <dwt_readfromdevice>:
dwt_readfromdevice():
D:/projects/mechanical_arm/Firmware/UWB/decadriver/deca_device.c:1010
    uint16  recordNumber,
    uint16  index,
    uint32  length,
    uint8   *buffer
)
{
    479a:	7179                	addi	sp,sp,-48
    479c:	d606                	sw	ra,44(sp)
    479e:	d422                	sw	s0,40(sp)
    47a0:	1800                	addi	s0,sp,48
    47a2:	87aa                	mv	a5,a0
    47a4:	872e                	mv	a4,a1
    47a6:	fcc42c23          	sw	a2,-40(s0)
    47aa:	fcd42a23          	sw	a3,-44(s0)
    47ae:	fcf41f23          	sh	a5,-34(s0)
    47b2:	87ba                	mv	a5,a4
    47b4:	fcf41e23          	sh	a5,-36(s0)
D:/projects/mechanical_arm/Firmware/UWB/decadriver/deca_device.c:1012
    uint8 header[3] ; // Buffer to compose header in
    int   cnt = 0; // Counter for length of header
    47b8:	fe042623          	sw	zero,-20(s0)
D:/projects/mechanical_arm/Firmware/UWB/decadriver/deca_device.c:1018
#ifdef DWT_API_ERROR_CHECK
    assert(recordNumber <= 0x3F); // Record number is limited to 6-bits.
#endif

    // Write message header selecting READ operation and addresses as appropriate (this is one to three bytes long)
    if (index == 0) // For index of 0, no sub-index is required
    47bc:	fdc45783          	lhu	a5,-36(s0)
    47c0:	e38d                	bnez	a5,47e2 <dwt_readfromdevice+0x48>
D:/projects/mechanical_arm/Firmware/UWB/decadriver/deca_device.c:1020
    {
        header[cnt++] = (uint8) recordNumber ; // Bit-7 zero is READ operation, bit-6 zero=NO sub-addressing, bits 5-0 is reg file id
    47c2:	fec42783          	lw	a5,-20(s0)
    47c6:	00178713          	addi	a4,a5,1
    47ca:	fee42623          	sw	a4,-20(s0)
    47ce:	fde45703          	lhu	a4,-34(s0)
    47d2:	0ff77713          	andi	a4,a4,255
    47d6:	ff040693          	addi	a3,s0,-16
    47da:	97b6                	add	a5,a5,a3
    47dc:	fee78c23          	sb	a4,-8(a5)
    47e0:	a045                	j	4880 <dwt_readfromdevice+0xe6>
D:/projects/mechanical_arm/Firmware/UWB/decadriver/deca_device.c:1027
    else
    {
#ifdef DWT_API_ERROR_CHECK
        assert((index <= 0x7FFF) && ((index + length) <= 0x7FFF)); // Index and sub-addressable area are limited to 15-bits.
#endif
        header[cnt++] = (uint8)(0x40 | recordNumber) ; // Bit-7 zero is READ operation, bit-6 one=sub-address follows, bits 5-0 is reg file id
    47e2:	fde45783          	lhu	a5,-34(s0)
    47e6:	0ff7f713          	andi	a4,a5,255
    47ea:	fec42783          	lw	a5,-20(s0)
    47ee:	00178693          	addi	a3,a5,1
    47f2:	fed42623          	sw	a3,-20(s0)
    47f6:	04076713          	ori	a4,a4,64
    47fa:	0ff77713          	andi	a4,a4,255
    47fe:	ff040693          	addi	a3,s0,-16
    4802:	97b6                	add	a5,a5,a3
    4804:	fee78c23          	sb	a4,-8(a5)
D:/projects/mechanical_arm/Firmware/UWB/decadriver/deca_device.c:1029

        if (index <= 127) // For non-zero index < 127, just a single sub-index byte is required
    4808:	fdc45703          	lhu	a4,-36(s0)
    480c:	07f00793          	li	a5,127
    4810:	02e7e263          	bltu	a5,a4,4834 <dwt_readfromdevice+0x9a>
D:/projects/mechanical_arm/Firmware/UWB/decadriver/deca_device.c:1031
        {
            header[cnt++] = (uint8) index ; // Bit-7 zero means no extension, bits 6-0 is index.
    4814:	fec42783          	lw	a5,-20(s0)
    4818:	00178713          	addi	a4,a5,1
    481c:	fee42623          	sw	a4,-20(s0)
    4820:	fdc45703          	lhu	a4,-36(s0)
    4824:	0ff77713          	andi	a4,a4,255
    4828:	ff040693          	addi	a3,s0,-16
    482c:	97b6                	add	a5,a5,a3
    482e:	fee78c23          	sb	a4,-8(a5)
    4832:	a0b9                	j	4880 <dwt_readfromdevice+0xe6>
D:/projects/mechanical_arm/Firmware/UWB/decadriver/deca_device.c:1035
        }
        else
        {
            header[cnt++] = 0x80 | (uint8)(index) ; // Bit-7 one means extended index, bits 6-0 is low seven bits of index.
    4834:	fdc45783          	lhu	a5,-36(s0)
    4838:	0ff7f713          	andi	a4,a5,255
    483c:	fec42783          	lw	a5,-20(s0)
    4840:	00178693          	addi	a3,a5,1
    4844:	fed42623          	sw	a3,-20(s0)
    4848:	f8076713          	ori	a4,a4,-128
    484c:	0ff77713          	andi	a4,a4,255
    4850:	ff040693          	addi	a3,s0,-16
    4854:	97b6                	add	a5,a5,a3
    4856:	fee78c23          	sb	a4,-8(a5)
D:/projects/mechanical_arm/Firmware/UWB/decadriver/deca_device.c:1036
            header[cnt++] =  (uint8) (index >> 7) ; // 8-bit value = high eight bits of index.
    485a:	fdc45783          	lhu	a5,-36(s0)
    485e:	839d                	srli	a5,a5,0x7
    4860:	01079693          	slli	a3,a5,0x10
    4864:	82c1                	srli	a3,a3,0x10
    4866:	fec42783          	lw	a5,-20(s0)
    486a:	00178713          	addi	a4,a5,1
    486e:	fee42623          	sw	a4,-20(s0)
    4872:	0ff6f713          	andi	a4,a3,255
    4876:	ff040693          	addi	a3,s0,-16
    487a:	97b6                	add	a5,a5,a3
    487c:	fee78c23          	sb	a4,-8(a5)
D:/projects/mechanical_arm/Firmware/UWB/decadriver/deca_device.c:1041
        }
    }

    // Do the read from the SPI
    readfromspi(cnt, header, length, buffer);  // result is stored in the buffer
    4880:	fec42783          	lw	a5,-20(s0)
    4884:	07c2                	slli	a5,a5,0x10
    4886:	83c1                	srli	a5,a5,0x10
    4888:	fe840713          	addi	a4,s0,-24
    488c:	fd442683          	lw	a3,-44(s0)
    4890:	fd842603          	lw	a2,-40(s0)
    4894:	85ba                	mv	a1,a4
    4896:	853e                	mv	a0,a5
    4898:	c50ff0ef          	jal	ra,3ce8 <readfromspi>
D:/projects/mechanical_arm/Firmware/UWB/decadriver/deca_device.c:1042
} // end dwt_readfromdevice()
    489c:	0001                	nop
    489e:	50b2                	lw	ra,44(sp)
    48a0:	5422                	lw	s0,40(sp)
    48a2:	6145                	addi	sp,sp,48
    48a4:	8082                	ret

000048a6 <dwt_read32bitoffsetreg>:
dwt_read32bitoffsetreg():
D:/projects/mechanical_arm/Firmware/UWB/decadriver/deca_device.c:1060
 * output parameters
 *
 * returns 32 bit register value
 */
uint32 dwt_read32bitoffsetreg(int regFileID,int regOffset)
{
    48a6:	7179                	addi	sp,sp,-48
    48a8:	d606                	sw	ra,44(sp)
    48aa:	d422                	sw	s0,40(sp)
    48ac:	1800                	addi	s0,sp,48
    48ae:	fca42e23          	sw	a0,-36(s0)
    48b2:	fcb42c23          	sw	a1,-40(s0)
D:/projects/mechanical_arm/Firmware/UWB/decadriver/deca_device.c:1061
    uint32  regval = 0 ;
    48b6:	fe042623          	sw	zero,-20(s0)
D:/projects/mechanical_arm/Firmware/UWB/decadriver/deca_device.c:1065
    int     j ;
    uint8   buffer[4] ;

    dwt_readfromdevice(regFileID,regOffset,4,buffer); // Read 4 bytes (32-bits) register into buffer
    48ba:	fdc42783          	lw	a5,-36(s0)
    48be:	07c2                	slli	a5,a5,0x10
    48c0:	83c1                	srli	a5,a5,0x10
    48c2:	fd842703          	lw	a4,-40(s0)
    48c6:	0742                	slli	a4,a4,0x10
    48c8:	8341                	srli	a4,a4,0x10
    48ca:	fe440693          	addi	a3,s0,-28
    48ce:	4611                	li	a2,4
    48d0:	85ba                	mv	a1,a4
    48d2:	853e                	mv	a0,a5
    48d4:	ec7ff0ef          	jal	ra,479a <dwt_readfromdevice>
D:/projects/mechanical_arm/Firmware/UWB/decadriver/deca_device.c:1067

    for (j = 3 ; j >= 0 ; j --)
    48d8:	478d                	li	a5,3
    48da:	fef42423          	sw	a5,-24(s0)
    48de:	a01d                	j	4904 <dwt_read32bitoffsetreg+0x5e>
D:/projects/mechanical_arm/Firmware/UWB/decadriver/deca_device.c:1069 (discriminator 3)
    {
        regval = (regval << 8) + buffer[j] ;
    48e0:	fec42783          	lw	a5,-20(s0)
    48e4:	07a2                	slli	a5,a5,0x8
    48e6:	fe842703          	lw	a4,-24(s0)
    48ea:	ff040693          	addi	a3,s0,-16
    48ee:	9736                	add	a4,a4,a3
    48f0:	ff474703          	lbu	a4,-12(a4)
    48f4:	97ba                	add	a5,a5,a4
    48f6:	fef42623          	sw	a5,-20(s0)
D:/projects/mechanical_arm/Firmware/UWB/decadriver/deca_device.c:1067 (discriminator 3)
    for (j = 3 ; j >= 0 ; j --)
    48fa:	fe842783          	lw	a5,-24(s0)
    48fe:	17fd                	addi	a5,a5,-1
    4900:	fef42423          	sw	a5,-24(s0)
D:/projects/mechanical_arm/Firmware/UWB/decadriver/deca_device.c:1067 (discriminator 1)
    4904:	fe842783          	lw	a5,-24(s0)
    4908:	fc07dce3          	bgez	a5,48e0 <dwt_read32bitoffsetreg+0x3a>
D:/projects/mechanical_arm/Firmware/UWB/decadriver/deca_device.c:1071
    }
    return regval ;
    490c:	fec42783          	lw	a5,-20(s0)
D:/projects/mechanical_arm/Firmware/UWB/decadriver/deca_device.c:1073

} // end dwt_read32bitoffsetreg()
    4910:	853e                	mv	a0,a5
    4912:	50b2                	lw	ra,44(sp)
    4914:	5422                	lw	s0,40(sp)
    4916:	6145                	addi	sp,sp,48
    4918:	8082                	ret

0000491a <dwt_read16bitoffsetreg>:
dwt_read16bitoffsetreg():
D:/projects/mechanical_arm/Firmware/UWB/decadriver/deca_device.c:1089
 * output parameters
 *
 * returns 16 bit register value
 */
uint16 dwt_read16bitoffsetreg(int regFileID,int regOffset)
{
    491a:	7179                	addi	sp,sp,-48
    491c:	d606                	sw	ra,44(sp)
    491e:	d422                	sw	s0,40(sp)
    4920:	1800                	addi	s0,sp,48
    4922:	fca42e23          	sw	a0,-36(s0)
    4926:	fcb42c23          	sw	a1,-40(s0)
D:/projects/mechanical_arm/Firmware/UWB/decadriver/deca_device.c:1090
    uint16  regval = 0 ;
    492a:	fe041723          	sh	zero,-18(s0)
D:/projects/mechanical_arm/Firmware/UWB/decadriver/deca_device.c:1093
    uint8   buffer[2] ;

    dwt_readfromdevice(regFileID,regOffset,2,buffer); // Read 2 bytes (16-bits) register into buffer
    492e:	fdc42783          	lw	a5,-36(s0)
    4932:	07c2                	slli	a5,a5,0x10
    4934:	83c1                	srli	a5,a5,0x10
    4936:	fd842703          	lw	a4,-40(s0)
    493a:	0742                	slli	a4,a4,0x10
    493c:	8341                	srli	a4,a4,0x10
    493e:	fec40693          	addi	a3,s0,-20
    4942:	4609                	li	a2,2
    4944:	85ba                	mv	a1,a4
    4946:	853e                	mv	a0,a5
    4948:	e53ff0ef          	jal	ra,479a <dwt_readfromdevice>
D:/projects/mechanical_arm/Firmware/UWB/decadriver/deca_device.c:1095

    regval = (buffer[1] << 8) + buffer[0] ;
    494c:	fed44783          	lbu	a5,-19(s0)
    4950:	07c2                	slli	a5,a5,0x10
    4952:	83c1                	srli	a5,a5,0x10
    4954:	07a2                	slli	a5,a5,0x8
    4956:	01079713          	slli	a4,a5,0x10
    495a:	8341                	srli	a4,a4,0x10
    495c:	fec44783          	lbu	a5,-20(s0)
    4960:	07c2                	slli	a5,a5,0x10
    4962:	83c1                	srli	a5,a5,0x10
    4964:	97ba                	add	a5,a5,a4
    4966:	fef41723          	sh	a5,-18(s0)
D:/projects/mechanical_arm/Firmware/UWB/decadriver/deca_device.c:1096
    return regval ;
    496a:	fee45783          	lhu	a5,-18(s0)
D:/projects/mechanical_arm/Firmware/UWB/decadriver/deca_device.c:1098

} // end dwt_read16bitoffsetreg()
    496e:	853e                	mv	a0,a5
    4970:	50b2                	lw	ra,44(sp)
    4972:	5422                	lw	s0,40(sp)
    4974:	6145                	addi	sp,sp,48
    4976:	8082                	ret

00004978 <dwt_read8bitoffsetreg>:
dwt_read8bitoffsetreg():
D:/projects/mechanical_arm/Firmware/UWB/decadriver/deca_device.c:1114
 * output parameters
 *
 * returns 8-bit register value
 */
uint8 dwt_read8bitoffsetreg(int regFileID, int regOffset)
{
    4978:	7179                	addi	sp,sp,-48
    497a:	d606                	sw	ra,44(sp)
    497c:	d422                	sw	s0,40(sp)
    497e:	1800                	addi	s0,sp,48
    4980:	fca42e23          	sw	a0,-36(s0)
    4984:	fcb42c23          	sw	a1,-40(s0)
D:/projects/mechanical_arm/Firmware/UWB/decadriver/deca_device.c:1117
    uint8 regval;

    dwt_readfromdevice(regFileID, regOffset, 1, &regval);
    4988:	fdc42783          	lw	a5,-36(s0)
    498c:	07c2                	slli	a5,a5,0x10
    498e:	83c1                	srli	a5,a5,0x10
    4990:	fd842703          	lw	a4,-40(s0)
    4994:	0742                	slli	a4,a4,0x10
    4996:	8341                	srli	a4,a4,0x10
    4998:	fef40693          	addi	a3,s0,-17
    499c:	4605                	li	a2,1
    499e:	85ba                	mv	a1,a4
    49a0:	853e                	mv	a0,a5
    49a2:	df9ff0ef          	jal	ra,479a <dwt_readfromdevice>
D:/projects/mechanical_arm/Firmware/UWB/decadriver/deca_device.c:1119

    return regval ;
    49a6:	fef44783          	lbu	a5,-17(s0)
D:/projects/mechanical_arm/Firmware/UWB/decadriver/deca_device.c:1120
}
    49aa:	853e                	mv	a0,a5
    49ac:	50b2                	lw	ra,44(sp)
    49ae:	5422                	lw	s0,40(sp)
    49b0:	6145                	addi	sp,sp,48
    49b2:	8082                	ret

000049b4 <dwt_write8bitoffsetreg>:
dwt_write8bitoffsetreg():
D:/projects/mechanical_arm/Firmware/UWB/decadriver/deca_device.c:1137
 * output parameters
 *
 * no return value
 */
void dwt_write8bitoffsetreg(int regFileID, int regOffset, uint8 regval)
{
    49b4:	1101                	addi	sp,sp,-32
    49b6:	ce06                	sw	ra,28(sp)
    49b8:	cc22                	sw	s0,24(sp)
    49ba:	1000                	addi	s0,sp,32
    49bc:	fea42623          	sw	a0,-20(s0)
    49c0:	feb42423          	sw	a1,-24(s0)
    49c4:	87b2                	mv	a5,a2
    49c6:	fef403a3          	sb	a5,-25(s0)
D:/projects/mechanical_arm/Firmware/UWB/decadriver/deca_device.c:1138
    dwt_writetodevice(regFileID, regOffset, 1, &regval);
    49ca:	fec42783          	lw	a5,-20(s0)
    49ce:	07c2                	slli	a5,a5,0x10
    49d0:	83c1                	srli	a5,a5,0x10
    49d2:	fe842703          	lw	a4,-24(s0)
    49d6:	0742                	slli	a4,a4,0x10
    49d8:	8341                	srli	a4,a4,0x10
    49da:	fe740693          	addi	a3,s0,-25
    49de:	4605                	li	a2,1
    49e0:	85ba                	mv	a1,a4
    49e2:	853e                	mv	a0,a5
    49e4:	ca3ff0ef          	jal	ra,4686 <dwt_writetodevice>
D:/projects/mechanical_arm/Firmware/UWB/decadriver/deca_device.c:1139
}
    49e8:	0001                	nop
    49ea:	40f2                	lw	ra,28(sp)
    49ec:	4462                	lw	s0,24(sp)
    49ee:	6105                	addi	sp,sp,32
    49f0:	8082                	ret

000049f2 <dwt_write16bitoffsetreg>:
dwt_write16bitoffsetreg():
D:/projects/mechanical_arm/Firmware/UWB/decadriver/deca_device.c:1156
 * output parameters
 *
 * no return value
 */
void dwt_write16bitoffsetreg(int regFileID,int regOffset,uint16 regval)
{
    49f2:	7179                	addi	sp,sp,-48
    49f4:	d606                	sw	ra,44(sp)
    49f6:	d422                	sw	s0,40(sp)
    49f8:	1800                	addi	s0,sp,48
    49fa:	fca42e23          	sw	a0,-36(s0)
    49fe:	fcb42c23          	sw	a1,-40(s0)
    4a02:	87b2                	mv	a5,a2
    4a04:	fcf41b23          	sh	a5,-42(s0)
D:/projects/mechanical_arm/Firmware/UWB/decadriver/deca_device.c:1159
    uint8   buffer[2] ;

    buffer[0] = regval & 0xFF;
    4a08:	fd645783          	lhu	a5,-42(s0)
    4a0c:	0ff7f793          	andi	a5,a5,255
    4a10:	fef40623          	sb	a5,-20(s0)
D:/projects/mechanical_arm/Firmware/UWB/decadriver/deca_device.c:1160
    buffer[1] = regval >> 8 ;
    4a14:	fd645783          	lhu	a5,-42(s0)
    4a18:	83a1                	srli	a5,a5,0x8
    4a1a:	07c2                	slli	a5,a5,0x10
    4a1c:	83c1                	srli	a5,a5,0x10
    4a1e:	0ff7f793          	andi	a5,a5,255
    4a22:	fef406a3          	sb	a5,-19(s0)
D:/projects/mechanical_arm/Firmware/UWB/decadriver/deca_device.c:1162

    dwt_writetodevice(regFileID,regOffset,2,buffer);
    4a26:	fdc42783          	lw	a5,-36(s0)
    4a2a:	07c2                	slli	a5,a5,0x10
    4a2c:	83c1                	srli	a5,a5,0x10
    4a2e:	fd842703          	lw	a4,-40(s0)
    4a32:	0742                	slli	a4,a4,0x10
    4a34:	8341                	srli	a4,a4,0x10
    4a36:	fec40693          	addi	a3,s0,-20
    4a3a:	4609                	li	a2,2
    4a3c:	85ba                	mv	a1,a4
    4a3e:	853e                	mv	a0,a5
    4a40:	c47ff0ef          	jal	ra,4686 <dwt_writetodevice>
D:/projects/mechanical_arm/Firmware/UWB/decadriver/deca_device.c:1163
} // end dwt_write16bitoffsetreg()
    4a44:	0001                	nop
    4a46:	50b2                	lw	ra,44(sp)
    4a48:	5422                	lw	s0,40(sp)
    4a4a:	6145                	addi	sp,sp,48
    4a4c:	8082                	ret

00004a4e <dwt_write32bitoffsetreg>:
dwt_write32bitoffsetreg():
D:/projects/mechanical_arm/Firmware/UWB/decadriver/deca_device.c:1180
 * output parameters
 *
 * no return value
 */
void dwt_write32bitoffsetreg(int regFileID,int regOffset,uint32 regval)
{
    4a4e:	7179                	addi	sp,sp,-48
    4a50:	d606                	sw	ra,44(sp)
    4a52:	d422                	sw	s0,40(sp)
    4a54:	1800                	addi	s0,sp,48
    4a56:	fca42e23          	sw	a0,-36(s0)
    4a5a:	fcb42c23          	sw	a1,-40(s0)
    4a5e:	fcc42a23          	sw	a2,-44(s0)
D:/projects/mechanical_arm/Firmware/UWB/decadriver/deca_device.c:1184
    int     j ;
    uint8   buffer[4] ;

    for ( j = 0 ; j < 4 ; j++ )
    4a62:	fe042623          	sw	zero,-20(s0)
    4a66:	a035                	j	4a92 <dwt_write32bitoffsetreg+0x44>
D:/projects/mechanical_arm/Firmware/UWB/decadriver/deca_device.c:1186 (discriminator 3)
    {
        buffer[j] = regval & 0xff ;
    4a68:	fd442783          	lw	a5,-44(s0)
    4a6c:	0ff7f713          	andi	a4,a5,255
    4a70:	fec42783          	lw	a5,-20(s0)
    4a74:	ff040693          	addi	a3,s0,-16
    4a78:	97b6                	add	a5,a5,a3
    4a7a:	fee78c23          	sb	a4,-8(a5)
D:/projects/mechanical_arm/Firmware/UWB/decadriver/deca_device.c:1187 (discriminator 3)
        regval >>= 8 ;
    4a7e:	fd442783          	lw	a5,-44(s0)
    4a82:	83a1                	srli	a5,a5,0x8
    4a84:	fcf42a23          	sw	a5,-44(s0)
D:/projects/mechanical_arm/Firmware/UWB/decadriver/deca_device.c:1184 (discriminator 3)
    for ( j = 0 ; j < 4 ; j++ )
    4a88:	fec42783          	lw	a5,-20(s0)
    4a8c:	0785                	addi	a5,a5,1
    4a8e:	fef42623          	sw	a5,-20(s0)
D:/projects/mechanical_arm/Firmware/UWB/decadriver/deca_device.c:1184 (discriminator 1)
    4a92:	fec42703          	lw	a4,-20(s0)
    4a96:	478d                	li	a5,3
    4a98:	fce7d8e3          	bge	a5,a4,4a68 <dwt_write32bitoffsetreg+0x1a>
D:/projects/mechanical_arm/Firmware/UWB/decadriver/deca_device.c:1190
    }

    dwt_writetodevice(regFileID,regOffset,4,buffer);
    4a9c:	fdc42783          	lw	a5,-36(s0)
    4aa0:	07c2                	slli	a5,a5,0x10
    4aa2:	83c1                	srli	a5,a5,0x10
    4aa4:	fd842703          	lw	a4,-40(s0)
    4aa8:	0742                	slli	a4,a4,0x10
    4aaa:	8341                	srli	a4,a4,0x10
    4aac:	fe840693          	addi	a3,s0,-24
    4ab0:	4611                	li	a2,4
    4ab2:	85ba                	mv	a1,a4
    4ab4:	853e                	mv	a0,a5
    4ab6:	bd1ff0ef          	jal	ra,4686 <dwt_writetodevice>
D:/projects/mechanical_arm/Firmware/UWB/decadriver/deca_device.c:1191
} // end dwt_write32bitoffsetreg()
    4aba:	0001                	nop
    4abc:	50b2                	lw	ra,44(sp)
    4abe:	5422                	lw	s0,40(sp)
    4ac0:	6145                	addi	sp,sp,48
    4ac2:	8082                	ret

00004ac4 <_dwt_otpread>:
_dwt_otpread():
D:/projects/mechanical_arm/Firmware/UWB/decadriver/deca_device.c:1345
 * output parameters
 *
 * returns the 32bit of read data
 */
uint32 _dwt_otpread(uint32 address)
{
    4ac4:	7179                	addi	sp,sp,-48
    4ac6:	d606                	sw	ra,44(sp)
    4ac8:	d422                	sw	s0,40(sp)
    4aca:	1800                	addi	s0,sp,48
    4acc:	fca42e23          	sw	a0,-36(s0)
D:/projects/mechanical_arm/Firmware/UWB/decadriver/deca_device.c:1349
    uint32 ret_data;

    // Write the address
    dwt_write16bitoffsetreg(OTP_IF_ID, OTP_ADDR, address);
    4ad0:	fdc42783          	lw	a5,-36(s0)
    4ad4:	07c2                	slli	a5,a5,0x10
    4ad6:	83c1                	srli	a5,a5,0x10
    4ad8:	863e                	mv	a2,a5
    4ada:	4591                	li	a1,4
    4adc:	02d00513          	li	a0,45
    4ae0:	f13ff0ef          	jal	ra,49f2 <dwt_write16bitoffsetreg>
D:/projects/mechanical_arm/Firmware/UWB/decadriver/deca_device.c:1352

    // Perform OTP Read - Manual read mode has to be set
    dwt_write8bitoffsetreg(OTP_IF_ID, OTP_CTRL, OTP_CTRL_OTPREAD | OTP_CTRL_OTPRDEN);
    4ae4:	460d                	li	a2,3
    4ae6:	4599                	li	a1,6
    4ae8:	02d00513          	li	a0,45
    4aec:	ec9ff0ef          	jal	ra,49b4 <dwt_write8bitoffsetreg>
D:/projects/mechanical_arm/Firmware/UWB/decadriver/deca_device.c:1353
    dwt_write8bitoffsetreg(OTP_IF_ID, OTP_CTRL, 0x00); // OTPREAD is self clearing but OTPRDEN is not
    4af0:	4601                	li	a2,0
    4af2:	4599                	li	a1,6
    4af4:	02d00513          	li	a0,45
    4af8:	ebdff0ef          	jal	ra,49b4 <dwt_write8bitoffsetreg>
D:/projects/mechanical_arm/Firmware/UWB/decadriver/deca_device.c:1356

    // Read read data, available 40ns after rising edge of OTP_READ
    ret_data = dwt_read32bitoffsetreg(OTP_IF_ID, OTP_RDAT);
    4afc:	45a9                	li	a1,10
    4afe:	02d00513          	li	a0,45
    4b02:	da5ff0ef          	jal	ra,48a6 <dwt_read32bitoffsetreg>
    4b06:	fea42623          	sw	a0,-20(s0)
D:/projects/mechanical_arm/Firmware/UWB/decadriver/deca_device.c:1359

    // Return the 32bit of read data
    return ret_data;
    4b0a:	fec42783          	lw	a5,-20(s0)
D:/projects/mechanical_arm/Firmware/UWB/decadriver/deca_device.c:1360
}
    4b0e:	853e                	mv	a0,a5
    4b10:	50b2                	lw	ra,44(sp)
    4b12:	5422                	lw	s0,40(sp)
    4b14:	6145                	addi	sp,sp,48
    4b16:	8082                	ret

00004b18 <_dwt_aonarrayupload>:
_dwt_aonarrayupload():
D:/projects/mechanical_arm/Firmware/UWB/decadriver/deca_device.c:1683
 * output parameters
 *
 * no return value
 */
void _dwt_aonarrayupload(void)
{
    4b18:	1141                	addi	sp,sp,-16
    4b1a:	c606                	sw	ra,12(sp)
    4b1c:	c422                	sw	s0,8(sp)
    4b1e:	0800                	addi	s0,sp,16
D:/projects/mechanical_arm/Firmware/UWB/decadriver/deca_device.c:1684
    dwt_write8bitoffsetreg(AON_ID, AON_CTRL_OFFSET, 0x00); // Clear the register
    4b20:	4601                	li	a2,0
    4b22:	4589                	li	a1,2
    4b24:	02c00513          	li	a0,44
    4b28:	e8dff0ef          	jal	ra,49b4 <dwt_write8bitoffsetreg>
D:/projects/mechanical_arm/Firmware/UWB/decadriver/deca_device.c:1685
    dwt_write8bitoffsetreg(AON_ID, AON_CTRL_OFFSET, AON_CTRL_SAVE);
    4b2c:	4609                	li	a2,2
    4b2e:	4589                	li	a1,2
    4b30:	02c00513          	li	a0,44
    4b34:	e81ff0ef          	jal	ra,49b4 <dwt_write8bitoffsetreg>
D:/projects/mechanical_arm/Firmware/UWB/decadriver/deca_device.c:1686
}
    4b38:	0001                	nop
    4b3a:	40b2                	lw	ra,12(sp)
    4b3c:	4422                	lw	s0,8(sp)
    4b3e:	0141                	addi	sp,sp,16
    4b40:	8082                	ret

00004b42 <_dwt_configlde>:
_dwt_configlde():
D:/projects/mechanical_arm/Firmware/UWB/decadriver/deca_device.c:1946
 * output parameters
 *
 * no return value
 */
void _dwt_configlde(int prfIndex)
{
    4b42:	1101                	addi	sp,sp,-32
    4b44:	ce06                	sw	ra,28(sp)
    4b46:	cc22                	sw	s0,24(sp)
    4b48:	1000                	addi	s0,sp,32
    4b4a:	fea42623          	sw	a0,-20(s0)
D:/projects/mechanical_arm/Firmware/UWB/decadriver/deca_device.c:1947
    dwt_write8bitoffsetreg(LDE_IF_ID, LDE_CFG1_OFFSET, LDE_PARAM1); // 8-bit configuration register
    4b4e:	06d00613          	li	a2,109
    4b52:	6785                	lui	a5,0x1
    4b54:	80678593          	addi	a1,a5,-2042 # 806 <__stack_size+0x6>
    4b58:	02e00513          	li	a0,46
    4b5c:	e59ff0ef          	jal	ra,49b4 <dwt_write8bitoffsetreg>
D:/projects/mechanical_arm/Firmware/UWB/decadriver/deca_device.c:1949

    if(prfIndex)
    4b60:	fec42783          	lw	a5,-20(s0)
    4b64:	cb99                	beqz	a5,4b7a <_dwt_configlde+0x38>
D:/projects/mechanical_arm/Firmware/UWB/decadriver/deca_device.c:1951
    {
        dwt_write16bitoffsetreg( LDE_IF_ID, LDE_CFG2_OFFSET, (uint16) LDE_PARAM3_64); // 16-bit LDE configuration tuning register
    4b66:	60700613          	li	a2,1543
    4b6a:	6789                	lui	a5,0x2
    4b6c:	80678593          	addi	a1,a5,-2042 # 1806 <EXTI15_10_IRQHandler+0x58>
    4b70:	02e00513          	li	a0,46
    4b74:	e7fff0ef          	jal	ra,49f2 <dwt_write16bitoffsetreg>
D:/projects/mechanical_arm/Firmware/UWB/decadriver/deca_device.c:1957
    }
    else
    {
        dwt_write16bitoffsetreg( LDE_IF_ID, LDE_CFG2_OFFSET, (uint16) LDE_PARAM3_16);
    }
}
    4b78:	a819                	j	4b8e <_dwt_configlde+0x4c>
D:/projects/mechanical_arm/Firmware/UWB/decadriver/deca_device.c:1955
        dwt_write16bitoffsetreg( LDE_IF_ID, LDE_CFG2_OFFSET, (uint16) LDE_PARAM3_16);
    4b7a:	6785                	lui	a5,0x1
    4b7c:	60778613          	addi	a2,a5,1543 # 1607 <UART8_IRQHandler+0x9>
    4b80:	6789                	lui	a5,0x2
    4b82:	80678593          	addi	a1,a5,-2042 # 1806 <EXTI15_10_IRQHandler+0x58>
    4b86:	02e00513          	li	a0,46
    4b8a:	e69ff0ef          	jal	ra,49f2 <dwt_write16bitoffsetreg>
D:/projects/mechanical_arm/Firmware/UWB/decadriver/deca_device.c:1957
}
    4b8e:	0001                	nop
    4b90:	40f2                	lw	ra,28(sp)
    4b92:	4462                	lw	s0,24(sp)
    4b94:	6105                	addi	sp,sp,32
    4b96:	8082                	ret

00004b98 <_dwt_loaducodefromrom>:
_dwt_loaducodefromrom():
D:/projects/mechanical_arm/Firmware/UWB/decadriver/deca_device.c:1972
 * output parameters
 *
 * no return value
 */
void _dwt_loaducodefromrom(void)
{
    4b98:	1141                	addi	sp,sp,-16
    4b9a:	c606                	sw	ra,12(sp)
    4b9c:	c422                	sw	s0,8(sp)
    4b9e:	0800                	addi	s0,sp,16
D:/projects/mechanical_arm/Firmware/UWB/decadriver/deca_device.c:1974
    // Set up clocks
    _dwt_enableclocks(FORCE_LDE);
    4ba0:	4539                	li	a0,14
    4ba2:	2afd                	jal	4da0 <_dwt_enableclocks>
D:/projects/mechanical_arm/Firmware/UWB/decadriver/deca_device.c:1977

    // Kick off the LDE load
    dwt_write16bitoffsetreg(OTP_IF_ID, OTP_CTRL, OTP_CTRL_LDELOAD); // Set load LDE kick bit
    4ba4:	6621                	lui	a2,0x8
    4ba6:	4599                	li	a1,6
    4ba8:	02d00513          	li	a0,45
    4bac:	e47ff0ef          	jal	ra,49f2 <dwt_write16bitoffsetreg>
D:/projects/mechanical_arm/Firmware/UWB/decadriver/deca_device.c:1979

    deca_sleep(1); // Allow time for code to upload (should take up to 120 us)
    4bb0:	4505                	li	a0,1
    4bb2:	888ff0ef          	jal	ra,3c3a <deca_sleep>
D:/projects/mechanical_arm/Firmware/UWB/decadriver/deca_device.c:1982

    // Default clocks (ENABLE_ALL_SEQ)
    _dwt_enableclocks(ENABLE_ALL_SEQ); // Enable clocks for sequencing
    4bb6:	4505                	li	a0,1
    4bb8:	22e5                	jal	4da0 <_dwt_enableclocks>
D:/projects/mechanical_arm/Firmware/UWB/decadriver/deca_device.c:1983
}
    4bba:	0001                	nop
    4bbc:	40b2                	lw	ra,12(sp)
    4bbe:	4422                	lw	s0,8(sp)
    4bc0:	0141                	addi	sp,sp,16
    4bc2:	8082                	ret

00004bc4 <dwt_isr>:
dwt_isr():
D:/projects/mechanical_arm/Firmware/UWB/decadriver/deca_device.c:2188
 * output parameters
 *
 * no return value
 */
void dwt_isr(void)
{
    4bc4:	1101                	addi	sp,sp,-32
    4bc6:	ce06                	sw	ra,28(sp)
    4bc8:	cc22                	sw	s0,24(sp)
    4bca:	ca26                	sw	s1,20(sp)
    4bcc:	1000                	addi	s0,sp,32
D:/projects/mechanical_arm/Firmware/UWB/decadriver/deca_device.c:2189
    uint32 status = pdw1000local->cbData.status = dwt_read32bitreg(SYS_STATUS_ID); // Read status register low 32bits
    4bce:	8101a483          	lw	s1,-2032(gp) # 20000240 <pdw1000local>
    4bd2:	4581                	li	a1,0
    4bd4:	453d                	li	a0,15
    4bd6:	cd1ff0ef          	jal	ra,48a6 <dwt_read32bitoffsetreg>
    4bda:	87aa                	mv	a5,a0
    4bdc:	ccdc                	sw	a5,28(s1)
    4bde:	4cdc                	lw	a5,28(s1)
    4be0:	fef42423          	sw	a5,-24(s0)
D:/projects/mechanical_arm/Firmware/UWB/decadriver/deca_device.c:2192

    // Handle RX good frame event
    if(status & SYS_STATUS_RXFCG)
    4be4:	fe842703          	lw	a4,-24(s0)
    4be8:	6791                	lui	a5,0x4
    4bea:	8ff9                	and	a5,a5,a4
    4bec:	0e078663          	beqz	a5,4cd8 <dwt_isr+0x114>
D:/projects/mechanical_arm/Firmware/UWB/decadriver/deca_device.c:2197
    {
        uint16 finfo16;
        uint16 len;

        dwt_write32bitreg(SYS_STATUS_ID, SYS_STATUS_ALL_RX_GOOD); // Clear all receive status bits
    4bf0:	679d                	lui	a5,0x7
    4bf2:	f0078613          	addi	a2,a5,-256 # 6f00 <_printf_float+0xf4>
    4bf6:	4581                	li	a1,0
    4bf8:	453d                	li	a0,15
    4bfa:	e55ff0ef          	jal	ra,4a4e <dwt_write32bitoffsetreg>
D:/projects/mechanical_arm/Firmware/UWB/decadriver/deca_device.c:2199

        pdw1000local->cbData.rx_flags = 0;
    4bfe:	8101a783          	lw	a5,-2032(gp) # 20000240 <pdw1000local>
    4c02:	02078223          	sb	zero,36(a5)
D:/projects/mechanical_arm/Firmware/UWB/decadriver/deca_device.c:2202

        // Read frame info - Only the first two bytes of the register are used here.
        finfo16 = dwt_read16bitoffsetreg(RX_FINFO_ID, RX_FINFO_OFFSET);
    4c06:	4581                	li	a1,0
    4c08:	4541                	li	a0,16
    4c0a:	d11ff0ef          	jal	ra,491a <dwt_read16bitoffsetreg>
    4c0e:	87aa                	mv	a5,a0
    4c10:	fef41323          	sh	a5,-26(s0)
D:/projects/mechanical_arm/Firmware/UWB/decadriver/deca_device.c:2205

        // Report frame length - Standard frame length up to 127, extended frame length up to 1023 bytes
        len = finfo16 & RX_FINFO_RXFL_MASK_1023;
    4c14:	fe645783          	lhu	a5,-26(s0)
    4c18:	3ff7f793          	andi	a5,a5,1023
    4c1c:	fef41723          	sh	a5,-18(s0)
D:/projects/mechanical_arm/Firmware/UWB/decadriver/deca_device.c:2206
        if(pdw1000local->longFrames == 0)
    4c20:	8101a783          	lw	a5,-2032(gp) # 20000240 <pdw1000local>
    4c24:	0087c783          	lbu	a5,8(a5)
    4c28:	e799                	bnez	a5,4c36 <dwt_isr+0x72>
D:/projects/mechanical_arm/Firmware/UWB/decadriver/deca_device.c:2208
        {
            len &= RX_FINFO_RXFLEN_MASK;
    4c2a:	fee45783          	lhu	a5,-18(s0)
    4c2e:	07f7f793          	andi	a5,a5,127
    4c32:	fef41723          	sh	a5,-18(s0)
D:/projects/mechanical_arm/Firmware/UWB/decadriver/deca_device.c:2210
        }
        pdw1000local->cbData.datalength = len;
    4c36:	8101a783          	lw	a5,-2032(gp) # 20000240 <pdw1000local>
    4c3a:	fee45703          	lhu	a4,-18(s0)
    4c3e:	02e79023          	sh	a4,32(a5)
D:/projects/mechanical_arm/Firmware/UWB/decadriver/deca_device.c:2213

        // Report ranging bit
        if(finfo16 & RX_FINFO_RNG)
    4c42:	fe641783          	lh	a5,-26(s0)
    4c46:	0007de63          	bgez	a5,4c62 <dwt_isr+0x9e>
D:/projects/mechanical_arm/Firmware/UWB/decadriver/deca_device.c:2215
        {
            pdw1000local->cbData.rx_flags |= DWT_CB_DATA_RX_FLAG_RNG;
    4c4a:	8101a783          	lw	a5,-2032(gp) # 20000240 <pdw1000local>
    4c4e:	0247c703          	lbu	a4,36(a5)
    4c52:	8101a783          	lw	a5,-2032(gp) # 20000240 <pdw1000local>
    4c56:	00176713          	ori	a4,a4,1
    4c5a:	0ff77713          	andi	a4,a4,255
    4c5e:	02e78223          	sb	a4,36(a5)
D:/projects/mechanical_arm/Firmware/UWB/decadriver/deca_device.c:2219
        }

        // Report frame control - First bytes of the received frame.
        dwt_readfromdevice(RX_BUFFER_ID, 0, FCTRL_LEN_MAX, pdw1000local->cbData.fctrl);
    4c62:	8101a783          	lw	a5,-2032(gp) # 20000240 <pdw1000local>
    4c66:	02278793          	addi	a5,a5,34
    4c6a:	86be                	mv	a3,a5
    4c6c:	4609                	li	a2,2
    4c6e:	4581                	li	a1,0
    4c70:	4545                	li	a0,17
    4c72:	b29ff0ef          	jal	ra,479a <dwt_readfromdevice>
D:/projects/mechanical_arm/Firmware/UWB/decadriver/deca_device.c:2225

        // Because of a previous frame not being received properly, AAT bit can be set upon the proper reception of a frame not requesting for
        // acknowledgement (ACK frame is not actually sent though). If the AAT bit is set, check ACK request bit in frame control to confirm (this
        // implementation works only for IEEE802.15.4-2011 compliant frames).
        // This issue is not documented at the time of writing this code. It should be in next release of DW1000 User Manual (v2.09, from July 2016).
        if((status & SYS_STATUS_AAT) && ((pdw1000local->cbData.fctrl[0] & FCTRL_ACK_REQ_MASK) == 0))
    4c76:	fe842783          	lw	a5,-24(s0)
    4c7a:	8ba1                	andi	a5,a5,8
    4c7c:	cb85                	beqz	a5,4cac <dwt_isr+0xe8>
D:/projects/mechanical_arm/Firmware/UWB/decadriver/deca_device.c:2225 (discriminator 1)
    4c7e:	8101a783          	lw	a5,-2032(gp) # 20000240 <pdw1000local>
    4c82:	0227c783          	lbu	a5,34(a5)
    4c86:	0207f793          	andi	a5,a5,32
    4c8a:	e38d                	bnez	a5,4cac <dwt_isr+0xe8>
D:/projects/mechanical_arm/Firmware/UWB/decadriver/deca_device.c:2227
        {
            dwt_write32bitreg(SYS_STATUS_ID, SYS_STATUS_AAT); // Clear AAT status bit in register
    4c8c:	4621                	li	a2,8
    4c8e:	4581                	li	a1,0
    4c90:	453d                	li	a0,15
    4c92:	dbdff0ef          	jal	ra,4a4e <dwt_write32bitoffsetreg>
D:/projects/mechanical_arm/Firmware/UWB/decadriver/deca_device.c:2228
            pdw1000local->cbData.status &= ~SYS_STATUS_AAT; // Clear AAT status bit in callback data register copy
    4c96:	8101a783          	lw	a5,-2032(gp) # 20000240 <pdw1000local>
    4c9a:	4fd8                	lw	a4,28(a5)
    4c9c:	8101a783          	lw	a5,-2032(gp) # 20000240 <pdw1000local>
    4ca0:	9b5d                	andi	a4,a4,-9
    4ca2:	cfd8                	sw	a4,28(a5)
D:/projects/mechanical_arm/Firmware/UWB/decadriver/deca_device.c:2229
            pdw1000local->wait4resp = 0;
    4ca4:	8101a783          	lw	a5,-2032(gp) # 20000240 <pdw1000local>
    4ca8:	00078d23          	sb	zero,26(a5)
D:/projects/mechanical_arm/Firmware/UWB/decadriver/deca_device.c:2233
        }

        // Call the corresponding callback if present
        if(pdw1000local->cbRxOk != NULL)
    4cac:	8101a783          	lw	a5,-2032(gp) # 20000240 <pdw1000local>
    4cb0:	57dc                	lw	a5,44(a5)
    4cb2:	cb89                	beqz	a5,4cc4 <dwt_isr+0x100>
D:/projects/mechanical_arm/Firmware/UWB/decadriver/deca_device.c:2235
        {
            pdw1000local->cbRxOk(&pdw1000local->cbData);
    4cb4:	8101a783          	lw	a5,-2032(gp) # 20000240 <pdw1000local>
    4cb8:	57d8                	lw	a4,44(a5)
    4cba:	8101a783          	lw	a5,-2032(gp) # 20000240 <pdw1000local>
    4cbe:	07f1                	addi	a5,a5,28
    4cc0:	853e                	mv	a0,a5
    4cc2:	9702                	jalr	a4
D:/projects/mechanical_arm/Firmware/UWB/decadriver/deca_device.c:2238
        }

        if (pdw1000local->dblbuffon)
    4cc4:	8101a783          	lw	a5,-2032(gp) # 20000240 <pdw1000local>
    4cc8:	0117c783          	lbu	a5,17(a5)
    4ccc:	c791                	beqz	a5,4cd8 <dwt_isr+0x114>
D:/projects/mechanical_arm/Firmware/UWB/decadriver/deca_device.c:2241
        {
            // Toggle the Host side Receive Buffer Pointer
            dwt_write8bitoffsetreg(SYS_CTRL_ID, SYS_CTRL_HRBT_OFFSET, 1);
    4cce:	4605                	li	a2,1
    4cd0:	458d                	li	a1,3
    4cd2:	4535                	li	a0,13
    4cd4:	ce1ff0ef          	jal	ra,49b4 <dwt_write8bitoffsetreg>
D:/projects/mechanical_arm/Firmware/UWB/decadriver/deca_device.c:2246
        }
    }

    // Handle TX confirmation event
    if(status & SYS_STATUS_TXFRS)
    4cd8:	fe842783          	lw	a5,-24(s0)
    4cdc:	0807f793          	andi	a5,a5,128
    4ce0:	cf95                	beqz	a5,4d1c <dwt_isr+0x158>
D:/projects/mechanical_arm/Firmware/UWB/decadriver/deca_device.c:2248
    {
        dwt_write32bitreg(SYS_STATUS_ID, SYS_STATUS_ALL_TX); // Clear TX event bits
    4ce2:	0f800613          	li	a2,248
    4ce6:	4581                	li	a1,0
    4ce8:	453d                	li	a0,15
    4cea:	d65ff0ef          	jal	ra,4a4e <dwt_write32bitoffsetreg>
D:/projects/mechanical_arm/Firmware/UWB/decadriver/deca_device.c:2255
        // In the case where this TXFRS interrupt is due to the automatic transmission of an ACK solicited by a response (with ACK request bit set)
        // that we receive through using wait4resp to a previous TX (and assuming that the IRQ processing of that TX has already been handled), then
        // we need to handle the IC issue which turns on the RX again in this situation (i.e. because it is wrongly applying the wait4resp after the
        // ACK TX).
        // See section "Transmit and automatically wait for response" in DW1000 User Manual
        if((status & SYS_STATUS_AAT) && pdw1000local->wait4resp)
    4cee:	fe842783          	lw	a5,-24(s0)
    4cf2:	8ba1                	andi	a5,a5,8
    4cf4:	cb81                	beqz	a5,4d04 <dwt_isr+0x140>
D:/projects/mechanical_arm/Firmware/UWB/decadriver/deca_device.c:2255 (discriminator 1)
    4cf6:	8101a783          	lw	a5,-2032(gp) # 20000240 <pdw1000local>
    4cfa:	01a7c783          	lbu	a5,26(a5)
    4cfe:	c399                	beqz	a5,4d04 <dwt_isr+0x140>
D:/projects/mechanical_arm/Firmware/UWB/decadriver/deca_device.c:2257
        {
            dwt_forcetrxoff(); // Turn the RX off
    4d00:	2435                	jal	4f2c <dwt_forcetrxoff>
D:/projects/mechanical_arm/Firmware/UWB/decadriver/deca_device.c:2258
            dwt_rxreset(); // Reset in case we were late and a frame was already being received
    4d02:	2cc1                	jal	4fd2 <dwt_rxreset>
D:/projects/mechanical_arm/Firmware/UWB/decadriver/deca_device.c:2262
        }

        // Call the corresponding callback if present
        if(pdw1000local->cbTxDone != NULL)
    4d04:	8101a783          	lw	a5,-2032(gp) # 20000240 <pdw1000local>
    4d08:	579c                	lw	a5,40(a5)
    4d0a:	cb89                	beqz	a5,4d1c <dwt_isr+0x158>
D:/projects/mechanical_arm/Firmware/UWB/decadriver/deca_device.c:2264
        {
            pdw1000local->cbTxDone(&pdw1000local->cbData);
    4d0c:	8101a783          	lw	a5,-2032(gp) # 20000240 <pdw1000local>
    4d10:	5798                	lw	a4,40(a5)
    4d12:	8101a783          	lw	a5,-2032(gp) # 20000240 <pdw1000local>
    4d16:	07f1                	addi	a5,a5,28
    4d18:	853e                	mv	a0,a5
    4d1a:	9702                	jalr	a4
D:/projects/mechanical_arm/Firmware/UWB/decadriver/deca_device.c:2269
        }
    }

    // Handle frame reception/preamble detect timeout events
    if(status & SYS_STATUS_ALL_RX_TO)
    4d1c:	fe842703          	lw	a4,-24(s0)
    4d20:	002207b7          	lui	a5,0x220
    4d24:	8ff9                	and	a5,a5,a4
    4d26:	cb8d                	beqz	a5,4d58 <dwt_isr+0x194>
D:/projects/mechanical_arm/Firmware/UWB/decadriver/deca_device.c:2271
    {
        dwt_write32bitreg(SYS_STATUS_ID, SYS_STATUS_RXRFTO); // Clear RX timeout event bits
    4d28:	00020637          	lui	a2,0x20
    4d2c:	4581                	li	a1,0
    4d2e:	453d                	li	a0,15
    4d30:	d1fff0ef          	jal	ra,4a4e <dwt_write32bitoffsetreg>
D:/projects/mechanical_arm/Firmware/UWB/decadriver/deca_device.c:2273

        pdw1000local->wait4resp = 0;
    4d34:	8101a783          	lw	a5,-2032(gp) # 20000240 <pdw1000local>
    4d38:	00078d23          	sb	zero,26(a5) # 22001a <_data_lma+0x215bf6>
D:/projects/mechanical_arm/Firmware/UWB/decadriver/deca_device.c:2278

        // Because of an issue with receiver restart after error conditions, an RX reset must be applied after any error or timeout event to ensure
        // the next good frame's timestamp is computed correctly.
        // See section "RX Message timestamp" in DW1000 User Manual.
        dwt_forcetrxoff();
    4d3c:	2ac5                	jal	4f2c <dwt_forcetrxoff>
D:/projects/mechanical_arm/Firmware/UWB/decadriver/deca_device.c:2279
        dwt_rxreset();
    4d3e:	2c51                	jal	4fd2 <dwt_rxreset>
D:/projects/mechanical_arm/Firmware/UWB/decadriver/deca_device.c:2282

        // Call the corresponding callback if present
        if(pdw1000local->cbRxTo != NULL)
    4d40:	8101a783          	lw	a5,-2032(gp) # 20000240 <pdw1000local>
    4d44:	5b9c                	lw	a5,48(a5)
    4d46:	cb89                	beqz	a5,4d58 <dwt_isr+0x194>
D:/projects/mechanical_arm/Firmware/UWB/decadriver/deca_device.c:2284
        {
            pdw1000local->cbRxTo(&pdw1000local->cbData);
    4d48:	8101a783          	lw	a5,-2032(gp) # 20000240 <pdw1000local>
    4d4c:	5b98                	lw	a4,48(a5)
    4d4e:	8101a783          	lw	a5,-2032(gp) # 20000240 <pdw1000local>
    4d52:	07f1                	addi	a5,a5,28
    4d54:	853e                	mv	a0,a5
    4d56:	9702                	jalr	a4
D:/projects/mechanical_arm/Firmware/UWB/decadriver/deca_device.c:2289
        }
    }

    // Handle RX errors events
    if(status & SYS_STATUS_ALL_RX_ERR)
    4d58:	fe842703          	lw	a4,-24(s0)
    4d5c:	240597b7          	lui	a5,0x24059
    4d60:	8ff9                	and	a5,a5,a4
    4d62:	cb8d                	beqz	a5,4d94 <dwt_isr+0x1d0>
D:/projects/mechanical_arm/Firmware/UWB/decadriver/deca_device.c:2291
    {
        dwt_write32bitreg(SYS_STATUS_ID, SYS_STATUS_ALL_RX_ERR); // Clear RX error event bits
    4d64:	24059637          	lui	a2,0x24059
    4d68:	4581                	li	a1,0
    4d6a:	453d                	li	a0,15
    4d6c:	ce3ff0ef          	jal	ra,4a4e <dwt_write32bitoffsetreg>
D:/projects/mechanical_arm/Firmware/UWB/decadriver/deca_device.c:2293

        pdw1000local->wait4resp = 0;
    4d70:	8101a783          	lw	a5,-2032(gp) # 20000240 <pdw1000local>
    4d74:	00078d23          	sb	zero,26(a5) # 2405901a <_eusrstack+0x404901a>
D:/projects/mechanical_arm/Firmware/UWB/decadriver/deca_device.c:2298

        // Because of an issue with receiver restart after error conditions, an RX reset must be applied after any error or timeout event to ensure
        // the next good frame's timestamp is computed correctly.
        // See section "RX Message timestamp" in DW1000 User Manual.
        dwt_forcetrxoff();
    4d78:	2a55                	jal	4f2c <dwt_forcetrxoff>
D:/projects/mechanical_arm/Firmware/UWB/decadriver/deca_device.c:2299
        dwt_rxreset();
    4d7a:	2ca1                	jal	4fd2 <dwt_rxreset>
D:/projects/mechanical_arm/Firmware/UWB/decadriver/deca_device.c:2302

        // Call the corresponding callback if present
        if(pdw1000local->cbRxErr != NULL)
    4d7c:	8101a783          	lw	a5,-2032(gp) # 20000240 <pdw1000local>
    4d80:	5bdc                	lw	a5,52(a5)
    4d82:	cb89                	beqz	a5,4d94 <dwt_isr+0x1d0>
D:/projects/mechanical_arm/Firmware/UWB/decadriver/deca_device.c:2304
        {
            pdw1000local->cbRxErr(&pdw1000local->cbData);
    4d84:	8101a783          	lw	a5,-2032(gp) # 20000240 <pdw1000local>
    4d88:	5bd8                	lw	a4,52(a5)
    4d8a:	8101a783          	lw	a5,-2032(gp) # 20000240 <pdw1000local>
    4d8e:	07f1                	addi	a5,a5,28
    4d90:	853e                	mv	a0,a5
    4d92:	9702                	jalr	a4
D:/projects/mechanical_arm/Firmware/UWB/decadriver/deca_device.c:2307
        }
    }
}
    4d94:	0001                	nop
    4d96:	40f2                	lw	ra,28(sp)
    4d98:	4462                	lw	s0,24(sp)
    4d9a:	44d2                	lw	s1,20(sp)
    4d9c:	6105                	addi	sp,sp,32
    4d9e:	8082                	ret

00004da0 <_dwt_enableclocks>:
_dwt_enableclocks():
D:/projects/mechanical_arm/Firmware/UWB/decadriver/deca_device.c:2448
 * output parameters none
 *
 * no return value
 */
void _dwt_enableclocks(int clocks)
{
    4da0:	7179                	addi	sp,sp,-48
    4da2:	d606                	sw	ra,44(sp)
    4da4:	d422                	sw	s0,40(sp)
    4da6:	1800                	addi	s0,sp,48
    4da8:	fca42e23          	sw	a0,-36(s0)
D:/projects/mechanical_arm/Firmware/UWB/decadriver/deca_device.c:2451
    uint8 reg[2];

    dwt_readfromdevice(PMSC_ID, PMSC_CTRL0_OFFSET, 2, reg);
    4dac:	fec40793          	addi	a5,s0,-20
    4db0:	86be                	mv	a3,a5
    4db2:	4609                	li	a2,2
    4db4:	4581                	li	a1,0
    4db6:	03600513          	li	a0,54
    4dba:	9e1ff0ef          	jal	ra,479a <dwt_readfromdevice>
D:/projects/mechanical_arm/Firmware/UWB/decadriver/deca_device.c:2452
    switch(clocks)
    4dbe:	fdc42703          	lw	a4,-36(s0)
    4dc2:	47b9                	li	a5,14
    4dc4:	10e7e963          	bltu	a5,a4,4ed6 <_dwt_enableclocks+0x136>
    4dc8:	fdc42783          	lw	a5,-36(s0)
    4dcc:	00279713          	slli	a4,a5,0x2
    4dd0:	67a9                	lui	a5,0xa
    4dd2:	eb078793          	addi	a5,a5,-336 # 9eb0 <MyUSBQUADescHD+0xc8>
    4dd6:	97ba                	add	a5,a5,a4
    4dd8:	439c                	lw	a5,0(a5)
    4dda:	8782                	jr	a5
D:/projects/mechanical_arm/Firmware/UWB/decadriver/deca_device.c:2456
    {
        case ENABLE_ALL_SEQ:
        {
            reg[0] = 0x00 ;
    4ddc:	fe040623          	sb	zero,-20(s0)
D:/projects/mechanical_arm/Firmware/UWB/decadriver/deca_device.c:2457
            reg[1] = reg[1] & 0xfe;
    4de0:	fed44783          	lbu	a5,-19(s0)
    4de4:	9bf9                	andi	a5,a5,-2
    4de6:	0ff7f793          	andi	a5,a5,255
    4dea:	fef406a3          	sb	a5,-19(s0)
D:/projects/mechanical_arm/Firmware/UWB/decadriver/deca_device.c:2459
        }
        break;
    4dee:	a0ed                	j	4ed8 <_dwt_enableclocks+0x138>
D:/projects/mechanical_arm/Firmware/UWB/decadriver/deca_device.c:2463
        case FORCE_SYS_XTI:
        {
            // System and RX
            reg[0] = 0x01 | (reg[0] & 0xfc);
    4df0:	fec44783          	lbu	a5,-20(s0)
    4df4:	07e2                	slli	a5,a5,0x18
    4df6:	87e1                	srai	a5,a5,0x18
    4df8:	9bf1                	andi	a5,a5,-4
    4dfa:	07e2                	slli	a5,a5,0x18
    4dfc:	87e1                	srai	a5,a5,0x18
    4dfe:	0017e793          	ori	a5,a5,1
    4e02:	07e2                	slli	a5,a5,0x18
    4e04:	87e1                	srai	a5,a5,0x18
    4e06:	0ff7f793          	andi	a5,a5,255
    4e0a:	fef40623          	sb	a5,-20(s0)
D:/projects/mechanical_arm/Firmware/UWB/decadriver/deca_device.c:2465
        }
        break;
    4e0e:	a0e9                	j	4ed8 <_dwt_enableclocks+0x138>
D:/projects/mechanical_arm/Firmware/UWB/decadriver/deca_device.c:2469
        case FORCE_SYS_PLL:
        {
            // System
            reg[0] = 0x02 | (reg[0] & 0xfc);
    4e10:	fec44783          	lbu	a5,-20(s0)
    4e14:	07e2                	slli	a5,a5,0x18
    4e16:	87e1                	srai	a5,a5,0x18
    4e18:	9bf1                	andi	a5,a5,-4
    4e1a:	07e2                	slli	a5,a5,0x18
    4e1c:	87e1                	srai	a5,a5,0x18
    4e1e:	0027e793          	ori	a5,a5,2
    4e22:	07e2                	slli	a5,a5,0x18
    4e24:	87e1                	srai	a5,a5,0x18
    4e26:	0ff7f793          	andi	a5,a5,255
    4e2a:	fef40623          	sb	a5,-20(s0)
D:/projects/mechanical_arm/Firmware/UWB/decadriver/deca_device.c:2471
        }
        break;
    4e2e:	a06d                	j	4ed8 <_dwt_enableclocks+0x138>
D:/projects/mechanical_arm/Firmware/UWB/decadriver/deca_device.c:2474
        case READ_ACC_ON:
        {
            reg[0] = 0x48 | (reg[0] & 0xb3);
    4e30:	fec44783          	lbu	a5,-20(s0)
    4e34:	07e2                	slli	a5,a5,0x18
    4e36:	87e1                	srai	a5,a5,0x18
    4e38:	fb37f793          	andi	a5,a5,-77
    4e3c:	07e2                	slli	a5,a5,0x18
    4e3e:	87e1                	srai	a5,a5,0x18
    4e40:	0487e793          	ori	a5,a5,72
    4e44:	07e2                	slli	a5,a5,0x18
    4e46:	87e1                	srai	a5,a5,0x18
    4e48:	0ff7f793          	andi	a5,a5,255
    4e4c:	fef40623          	sb	a5,-20(s0)
D:/projects/mechanical_arm/Firmware/UWB/decadriver/deca_device.c:2475
            reg[1] = 0x80 | reg[1];
    4e50:	fed44783          	lbu	a5,-19(s0)
    4e54:	f807e793          	ori	a5,a5,-128
    4e58:	0ff7f793          	andi	a5,a5,255
    4e5c:	fef406a3          	sb	a5,-19(s0)
D:/projects/mechanical_arm/Firmware/UWB/decadriver/deca_device.c:2477
        }
        break;
    4e60:	a8a5                	j	4ed8 <_dwt_enableclocks+0x138>
D:/projects/mechanical_arm/Firmware/UWB/decadriver/deca_device.c:2480
        case READ_ACC_OFF:
        {
            reg[0] = reg[0] & 0xb3;
    4e62:	fec44783          	lbu	a5,-20(s0)
    4e66:	fb37f793          	andi	a5,a5,-77
    4e6a:	0ff7f793          	andi	a5,a5,255
    4e6e:	fef40623          	sb	a5,-20(s0)
D:/projects/mechanical_arm/Firmware/UWB/decadriver/deca_device.c:2481
            reg[1] = 0x7f & reg[1];
    4e72:	fed44783          	lbu	a5,-19(s0)
    4e76:	07f7f793          	andi	a5,a5,127
    4e7a:	0ff7f793          	andi	a5,a5,255
    4e7e:	fef406a3          	sb	a5,-19(s0)
D:/projects/mechanical_arm/Firmware/UWB/decadriver/deca_device.c:2483
        }
        break;
    4e82:	a899                	j	4ed8 <_dwt_enableclocks+0x138>
D:/projects/mechanical_arm/Firmware/UWB/decadriver/deca_device.c:2486
        case FORCE_OTP_ON:
        {
            reg[1] = 0x02 | reg[1];
    4e84:	fed44783          	lbu	a5,-19(s0)
    4e88:	0027e793          	ori	a5,a5,2
    4e8c:	0ff7f793          	andi	a5,a5,255
    4e90:	fef406a3          	sb	a5,-19(s0)
D:/projects/mechanical_arm/Firmware/UWB/decadriver/deca_device.c:2488
        }
        break;
    4e94:	a091                	j	4ed8 <_dwt_enableclocks+0x138>
D:/projects/mechanical_arm/Firmware/UWB/decadriver/deca_device.c:2491
        case FORCE_OTP_OFF:
        {
            reg[1] = reg[1] & 0xfd;
    4e96:	fed44783          	lbu	a5,-19(s0)
    4e9a:	9bf5                	andi	a5,a5,-3
    4e9c:	0ff7f793          	andi	a5,a5,255
    4ea0:	fef406a3          	sb	a5,-19(s0)
D:/projects/mechanical_arm/Firmware/UWB/decadriver/deca_device.c:2493
        }
        break;
    4ea4:	a815                	j	4ed8 <_dwt_enableclocks+0x138>
D:/projects/mechanical_arm/Firmware/UWB/decadriver/deca_device.c:2496
        case FORCE_TX_PLL:
        {
            reg[0] = 0x20 | (reg[0] & 0xcf);
    4ea6:	fec44783          	lbu	a5,-20(s0)
    4eaa:	07e2                	slli	a5,a5,0x18
    4eac:	87e1                	srai	a5,a5,0x18
    4eae:	fcf7f793          	andi	a5,a5,-49
    4eb2:	07e2                	slli	a5,a5,0x18
    4eb4:	87e1                	srai	a5,a5,0x18
    4eb6:	0207e793          	ori	a5,a5,32
    4eba:	07e2                	slli	a5,a5,0x18
    4ebc:	87e1                	srai	a5,a5,0x18
    4ebe:	0ff7f793          	andi	a5,a5,255
    4ec2:	fef40623          	sb	a5,-20(s0)
D:/projects/mechanical_arm/Firmware/UWB/decadriver/deca_device.c:2498
        }
        break;
    4ec6:	a809                	j	4ed8 <_dwt_enableclocks+0x138>
D:/projects/mechanical_arm/Firmware/UWB/decadriver/deca_device.c:2501
        case FORCE_LDE:
        {
            reg[0] = 0x01;
    4ec8:	4785                	li	a5,1
    4eca:	fef40623          	sb	a5,-20(s0)
D:/projects/mechanical_arm/Firmware/UWB/decadriver/deca_device.c:2502
            reg[1] = 0x03;
    4ece:	478d                	li	a5,3
    4ed0:	fef406a3          	sb	a5,-19(s0)
D:/projects/mechanical_arm/Firmware/UWB/decadriver/deca_device.c:2504
        }
        break;
    4ed4:	a011                	j	4ed8 <_dwt_enableclocks+0x138>
D:/projects/mechanical_arm/Firmware/UWB/decadriver/deca_device.c:2506
        default:
        break;
    4ed6:	0001                	nop
D:/projects/mechanical_arm/Firmware/UWB/decadriver/deca_device.c:2511
    }


    // Need to write lower byte separately before setting the higher byte(s)
    dwt_writetodevice(PMSC_ID, PMSC_CTRL0_OFFSET, 1, &reg[0]);
    4ed8:	fec40793          	addi	a5,s0,-20
    4edc:	86be                	mv	a3,a5
    4ede:	4605                	li	a2,1
    4ee0:	4581                	li	a1,0
    4ee2:	03600513          	li	a0,54
    4ee6:	fa0ff0ef          	jal	ra,4686 <dwt_writetodevice>
D:/projects/mechanical_arm/Firmware/UWB/decadriver/deca_device.c:2512
    dwt_writetodevice(PMSC_ID, 0x1, 1, &reg[1]);
    4eea:	fec40793          	addi	a5,s0,-20
    4eee:	0785                	addi	a5,a5,1
    4ef0:	86be                	mv	a3,a5
    4ef2:	4605                	li	a2,1
    4ef4:	4585                	li	a1,1
    4ef6:	03600513          	li	a0,54
    4efa:	f8cff0ef          	jal	ra,4686 <dwt_writetodevice>
D:/projects/mechanical_arm/Firmware/UWB/decadriver/deca_device.c:2514

} // end _dwt_enableclocks()
    4efe:	0001                	nop
    4f00:	50b2                	lw	ra,44(sp)
    4f02:	5422                	lw	s0,40(sp)
    4f04:	6145                	addi	sp,sp,48
    4f06:	8082                	ret

00004f08 <_dwt_disablesequencing>:
_dwt_disablesequencing():
D:/projects/mechanical_arm/Firmware/UWB/decadriver/deca_device.c:2528
 * output parameters none
 *
 * no return value
 */
void _dwt_disablesequencing(void) // Disable sequencing and go to state "INIT"
{
    4f08:	1141                	addi	sp,sp,-16
    4f0a:	c606                	sw	ra,12(sp)
    4f0c:	c422                	sw	s0,8(sp)
    4f0e:	0800                	addi	s0,sp,16
D:/projects/mechanical_arm/Firmware/UWB/decadriver/deca_device.c:2529
    _dwt_enableclocks(FORCE_SYS_XTI); // Set system clock to XTI
    4f10:	4501                	li	a0,0
    4f12:	e8fff0ef          	jal	ra,4da0 <_dwt_enableclocks>
D:/projects/mechanical_arm/Firmware/UWB/decadriver/deca_device.c:2531

    dwt_write16bitoffsetreg(PMSC_ID, PMSC_CTRL1_OFFSET, PMSC_CTRL1_PKTSEQ_DISABLE); // Disable PMSC ctrl of RF and RX clk blocks
    4f16:	4601                	li	a2,0
    4f18:	4591                	li	a1,4
    4f1a:	03600513          	li	a0,54
    4f1e:	ad5ff0ef          	jal	ra,49f2 <dwt_write16bitoffsetreg>
D:/projects/mechanical_arm/Firmware/UWB/decadriver/deca_device.c:2532
}
    4f22:	0001                	nop
    4f24:	40b2                	lw	ra,12(sp)
    4f26:	4422                	lw	s0,8(sp)
    4f28:	0141                	addi	sp,sp,16
    4f2a:	8082                	ret

00004f2c <dwt_forcetrxoff>:
dwt_forcetrxoff():
D:/projects/mechanical_arm/Firmware/UWB/decadriver/deca_device.c:2626
 * output parameters
 *
 * no return value
 */
void dwt_forcetrxoff(void)
{
    4f2c:	1101                	addi	sp,sp,-32
    4f2e:	ce06                	sw	ra,28(sp)
    4f30:	cc22                	sw	s0,24(sp)
    4f32:	1000                	addi	s0,sp,32
D:/projects/mechanical_arm/Firmware/UWB/decadriver/deca_device.c:2630
    decaIrqStatus_t stat ;
    uint32 mask;

    mask = dwt_read32bitreg(SYS_MASK_ID) ; // Read set interrupt mask
    4f34:	4581                	li	a1,0
    4f36:	4539                	li	a0,14
    4f38:	96fff0ef          	jal	ra,48a6 <dwt_read32bitoffsetreg>
    4f3c:	fea42623          	sw	a0,-20(s0)
D:/projects/mechanical_arm/Firmware/UWB/decadriver/deca_device.c:2636

    // Need to beware of interrupts occurring in the middle of following read modify write cycle
    // We can disable the radio, but before the status is cleared an interrupt can be set (e.g. the
    // event has just happened before the radio was disabled)
    // thus we need to disable interrupt during this operation
    stat = decamutexon() ;
    4f40:	cb1fe0ef          	jal	ra,3bf0 <decamutexon>
    4f44:	fea42423          	sw	a0,-24(s0)
D:/projects/mechanical_arm/Firmware/UWB/decadriver/deca_device.c:2638

    dwt_write32bitreg(SYS_MASK_ID, 0) ; // Clear interrupt mask - so we don't get any unwanted events
    4f48:	4601                	li	a2,0
    4f4a:	4581                	li	a1,0
    4f4c:	4539                	li	a0,14
    4f4e:	b01ff0ef          	jal	ra,4a4e <dwt_write32bitoffsetreg>
D:/projects/mechanical_arm/Firmware/UWB/decadriver/deca_device.c:2640

    dwt_write8bitoffsetreg(SYS_CTRL_ID, SYS_CTRL_OFFSET, (uint8)SYS_CTRL_TRXOFF) ; // Disable the radio
    4f52:	04000613          	li	a2,64
    4f56:	4581                	li	a1,0
    4f58:	4535                	li	a0,13
    4f5a:	a5bff0ef          	jal	ra,49b4 <dwt_write8bitoffsetreg>
D:/projects/mechanical_arm/Firmware/UWB/decadriver/deca_device.c:2643

    // Forcing Transceiver off - so we do not want to see any new events that may have happened
    dwt_write32bitreg(SYS_STATUS_ID, (SYS_STATUS_ALL_TX | SYS_STATUS_ALL_RX_ERR | SYS_STATUS_ALL_RX_TO | SYS_STATUS_ALL_RX_GOOD));
    4f5e:	242807b7          	lui	a5,0x24280
    4f62:	ff878613          	addi	a2,a5,-8 # 2427fff8 <_eusrstack+0x426fff8>
    4f66:	4581                	li	a1,0
    4f68:	453d                	li	a0,15
    4f6a:	ae5ff0ef          	jal	ra,4a4e <dwt_write32bitoffsetreg>
D:/projects/mechanical_arm/Firmware/UWB/decadriver/deca_device.c:2645

    dwt_syncrxbufptrs();
    4f6e:	2025                	jal	4f96 <dwt_syncrxbufptrs>
D:/projects/mechanical_arm/Firmware/UWB/decadriver/deca_device.c:2647

    dwt_write32bitreg(SYS_MASK_ID, mask) ; // Set interrupt mask to what it was
    4f70:	fec42603          	lw	a2,-20(s0)
    4f74:	4581                	li	a1,0
    4f76:	4539                	li	a0,14
    4f78:	ad7ff0ef          	jal	ra,4a4e <dwt_write32bitoffsetreg>
D:/projects/mechanical_arm/Firmware/UWB/decadriver/deca_device.c:2650

    // Enable/restore interrupts again...
    decamutexoff(stat) ;
    4f7c:	fe842503          	lw	a0,-24(s0)
    4f80:	c9bfe0ef          	jal	ra,3c1a <decamutexoff>
D:/projects/mechanical_arm/Firmware/UWB/decadriver/deca_device.c:2651
    pdw1000local->wait4resp = 0;
    4f84:	8101a783          	lw	a5,-2032(gp) # 20000240 <pdw1000local>
    4f88:	00078d23          	sb	zero,26(a5)
D:/projects/mechanical_arm/Firmware/UWB/decadriver/deca_device.c:2653

} // end deviceforcetrxoff()
    4f8c:	0001                	nop
    4f8e:	40f2                	lw	ra,28(sp)
    4f90:	4462                	lw	s0,24(sp)
    4f92:	6105                	addi	sp,sp,32
    4f94:	8082                	ret

00004f96 <dwt_syncrxbufptrs>:
dwt_syncrxbufptrs():
D:/projects/mechanical_arm/Firmware/UWB/decadriver/deca_device.c:2668
 * output parameters
 *
 * no return value
 */
void dwt_syncrxbufptrs(void)
{
    4f96:	1101                	addi	sp,sp,-32
    4f98:	ce06                	sw	ra,28(sp)
    4f9a:	cc22                	sw	s0,24(sp)
    4f9c:	1000                	addi	s0,sp,32
D:/projects/mechanical_arm/Firmware/UWB/decadriver/deca_device.c:2671
    uint8  buff ;
    // Need to make sure that the host/IC buffer pointers are aligned before starting RX
    buff = dwt_read8bitoffsetreg(SYS_STATUS_ID, 3); // Read 1 byte at offset 3 to get the 4th byte out of 5
    4f9e:	458d                	li	a1,3
    4fa0:	453d                	li	a0,15
    4fa2:	9d7ff0ef          	jal	ra,4978 <dwt_read8bitoffsetreg>
    4fa6:	87aa                	mv	a5,a0
    4fa8:	fef407a3          	sb	a5,-17(s0)
D:/projects/mechanical_arm/Firmware/UWB/decadriver/deca_device.c:2673

    if((buff & (SYS_STATUS_ICRBP >> 24)) !=     // IC side Receive Buffer Pointer
    4fac:	fef44703          	lbu	a4,-17(s0)
D:/projects/mechanical_arm/Firmware/UWB/decadriver/deca_device.c:2674
       ((buff & (SYS_STATUS_HSRBP>>24)) << 1) ) // Host Side Receive Buffer Pointer
    4fb0:	fef44783          	lbu	a5,-17(s0)
    4fb4:	0786                	slli	a5,a5,0x1
D:/projects/mechanical_arm/Firmware/UWB/decadriver/deca_device.c:2673
    if((buff & (SYS_STATUS_ICRBP >> 24)) !=     // IC side Receive Buffer Pointer
    4fb6:	8fb9                	xor	a5,a5,a4
    4fb8:	0807f793          	andi	a5,a5,128
    4fbc:	c791                	beqz	a5,4fc8 <dwt_syncrxbufptrs+0x32>
D:/projects/mechanical_arm/Firmware/UWB/decadriver/deca_device.c:2676
    {
        dwt_write8bitoffsetreg(SYS_CTRL_ID, SYS_CTRL_HRBT_OFFSET , 0x01) ; // We need to swap RX buffer status reg (write one to toggle internally)
    4fbe:	4605                	li	a2,1
    4fc0:	458d                	li	a1,3
    4fc2:	4535                	li	a0,13
    4fc4:	9f1ff0ef          	jal	ra,49b4 <dwt_write8bitoffsetreg>
D:/projects/mechanical_arm/Firmware/UWB/decadriver/deca_device.c:2678
    }
}
    4fc8:	0001                	nop
    4fca:	40f2                	lw	ra,28(sp)
    4fcc:	4462                	lw	s0,24(sp)
    4fce:	6105                	addi	sp,sp,32
    4fd0:	8082                	ret

00004fd2 <dwt_rxreset>:
dwt_rxreset():
D:/projects/mechanical_arm/Firmware/UWB/decadriver/deca_device.c:3025
 * output parameters
 *
 * no return value
 */
void dwt_rxreset(void)
{
    4fd2:	1141                	addi	sp,sp,-16
    4fd4:	c606                	sw	ra,12(sp)
    4fd6:	c422                	sw	s0,8(sp)
    4fd8:	0800                	addi	s0,sp,16
D:/projects/mechanical_arm/Firmware/UWB/decadriver/deca_device.c:3027
    // Set RX reset
    dwt_write8bitoffsetreg(PMSC_ID, PMSC_CTRL0_SOFTRESET_OFFSET, PMSC_CTRL0_RESET_RX);
    4fda:	0e000613          	li	a2,224
    4fde:	458d                	li	a1,3
    4fe0:	03600513          	li	a0,54
    4fe4:	9d1ff0ef          	jal	ra,49b4 <dwt_write8bitoffsetreg>
D:/projects/mechanical_arm/Firmware/UWB/decadriver/deca_device.c:3030

    // Clear RX reset
    dwt_write8bitoffsetreg(PMSC_ID, PMSC_CTRL0_SOFTRESET_OFFSET, PMSC_CTRL0_RESET_CLEAR);
    4fe8:	0f000613          	li	a2,240
    4fec:	458d                	li	a1,3
    4fee:	03600513          	li	a0,54
    4ff2:	9c3ff0ef          	jal	ra,49b4 <dwt_write8bitoffsetreg>
D:/projects/mechanical_arm/Firmware/UWB/decadriver/deca_device.c:3031
}
    4ff6:	0001                	nop
    4ff8:	40b2                	lw	ra,12(sp)
    4ffa:	4422                	lw	s0,8(sp)
    4ffc:	0141                	addi	sp,sp,16
    4ffe:	8082                	ret

00005000 <dwt_softreset>:
dwt_softreset():
D:/projects/mechanical_arm/Firmware/UWB/decadriver/deca_device.c:3045
 * output parameters
 *
 * no return value
 */
void dwt_softreset(void)
{
    5000:	1141                	addi	sp,sp,-16
    5002:	c606                	sw	ra,12(sp)
    5004:	c422                	sw	s0,8(sp)
    5006:	0800                	addi	s0,sp,16
D:/projects/mechanical_arm/Firmware/UWB/decadriver/deca_device.c:3046
    _dwt_disablesequencing();
    5008:	f01ff0ef          	jal	ra,4f08 <_dwt_disablesequencing>
D:/projects/mechanical_arm/Firmware/UWB/decadriver/deca_device.c:3049

    // Clear any AON auto download bits (as reset will trigger AON download)
    dwt_write16bitoffsetreg(AON_ID, AON_WCFG_OFFSET, 0x00);
    500c:	4601                	li	a2,0
    500e:	4581                	li	a1,0
    5010:	02c00513          	li	a0,44
    5014:	9dfff0ef          	jal	ra,49f2 <dwt_write16bitoffsetreg>
D:/projects/mechanical_arm/Firmware/UWB/decadriver/deca_device.c:3051
    // Clear the wake-up configuration
    dwt_write8bitoffsetreg(AON_ID, AON_CFG0_OFFSET, 0x00);
    5018:	4601                	li	a2,0
    501a:	4599                	li	a1,6
    501c:	02c00513          	li	a0,44
    5020:	995ff0ef          	jal	ra,49b4 <dwt_write8bitoffsetreg>
D:/projects/mechanical_arm/Firmware/UWB/decadriver/deca_device.c:3053
    // Upload the new configuration
    _dwt_aonarrayupload();
    5024:	af5ff0ef          	jal	ra,4b18 <_dwt_aonarrayupload>
D:/projects/mechanical_arm/Firmware/UWB/decadriver/deca_device.c:3056

    // Reset HIF, TX, RX and PMSC
    dwt_write8bitoffsetreg(PMSC_ID, PMSC_CTRL0_SOFTRESET_OFFSET, PMSC_CTRL0_RESET_ALL);
    5028:	4601                	li	a2,0
    502a:	458d                	li	a1,3
    502c:	03600513          	li	a0,54
    5030:	985ff0ef          	jal	ra,49b4 <dwt_write8bitoffsetreg>
D:/projects/mechanical_arm/Firmware/UWB/decadriver/deca_device.c:3060

    // DW1000 needs a 10us sleep to let clk PLL lock after reset - the PLL will automatically lock after the reset
    // Could also have polled the PLL lock flag, but then the SPI needs to be < 3MHz !! So a simple delay is easier
    deca_sleep(1);
    5034:	4505                	li	a0,1
    5036:	c05fe0ef          	jal	ra,3c3a <deca_sleep>
D:/projects/mechanical_arm/Firmware/UWB/decadriver/deca_device.c:3063

    // Clear reset
    dwt_write8bitoffsetreg(PMSC_ID, PMSC_CTRL0_SOFTRESET_OFFSET, PMSC_CTRL0_RESET_CLEAR);
    503a:	0f000613          	li	a2,240
    503e:	458d                	li	a1,3
    5040:	03600513          	li	a0,54
    5044:	971ff0ef          	jal	ra,49b4 <dwt_write8bitoffsetreg>
D:/projects/mechanical_arm/Firmware/UWB/decadriver/deca_device.c:3065

    pdw1000local->wait4resp = 0;
    5048:	8101a783          	lw	a5,-2032(gp) # 20000240 <pdw1000local>
    504c:	00078d23          	sb	zero,26(a5)
D:/projects/mechanical_arm/Firmware/UWB/decadriver/deca_device.c:3066
}
    5050:	0001                	nop
    5052:	40b2                	lw	ra,12(sp)
    5054:	4422                	lw	s0,8(sp)
    5056:	0141                	addi	sp,sp,16
    5058:	8082                	ret

0000505a <dwt_setxtaltrim>:
dwt_setxtaltrim():
D:/projects/mechanical_arm/Firmware/UWB/decadriver/deca_device.c:3081
 * output parameters
 *
 * no return value
 */
void dwt_setxtaltrim(uint8 value)
{
    505a:	7179                	addi	sp,sp,-48
    505c:	d606                	sw	ra,44(sp)
    505e:	d422                	sw	s0,40(sp)
    5060:	1800                	addi	s0,sp,48
    5062:	87aa                	mv	a5,a0
    5064:	fcf40fa3          	sb	a5,-33(s0)
D:/projects/mechanical_arm/Firmware/UWB/decadriver/deca_device.c:3083
    // The 3 MSb in this 8-bit register must be kept to 0b011 to avoid any malfunction.
    uint8 reg_val = (3 << 5) | (value & FS_XTALT_MASK);
    5068:	fdf40783          	lb	a5,-33(s0)
    506c:	8bfd                	andi	a5,a5,31
    506e:	07e2                	slli	a5,a5,0x18
    5070:	87e1                	srai	a5,a5,0x18
    5072:	0607e793          	ori	a5,a5,96
    5076:	07e2                	slli	a5,a5,0x18
    5078:	87e1                	srai	a5,a5,0x18
    507a:	fef407a3          	sb	a5,-17(s0)
D:/projects/mechanical_arm/Firmware/UWB/decadriver/deca_device.c:3084
    dwt_write8bitoffsetreg(FS_CTRL_ID, FS_XTALT_OFFSET, reg_val);
    507e:	fef44783          	lbu	a5,-17(s0)
    5082:	863e                	mv	a2,a5
    5084:	45b9                	li	a1,14
    5086:	02b00513          	li	a0,43
    508a:	92bff0ef          	jal	ra,49b4 <dwt_write8bitoffsetreg>
D:/projects/mechanical_arm/Firmware/UWB/decadriver/deca_device.c:3085
}
    508e:	0001                	nop
    5090:	50b2                	lw	ra,44(sp)
    5092:	5422                	lw	s0,40(sp)
    5094:	6145                	addi	sp,sp,48
    5096:	8082                	ret

00005098 <__adddf3>:
__adddf3():
    5098:	00100837          	lui	a6,0x100
    509c:	1101                	addi	sp,sp,-32
    509e:	187d                	addi	a6,a6,-1
    50a0:	00b87733          	and	a4,a6,a1
    50a4:	ca26                	sw	s1,20(sp)
    50a6:	00d87833          	and	a6,a6,a3
    50aa:	0145d493          	srli	s1,a1,0x14
    50ae:	0146d313          	srli	t1,a3,0x14
    50b2:	00371e13          	slli	t3,a4,0x3
    50b6:	c64e                	sw	s3,12(sp)
    50b8:	01d55713          	srli	a4,a0,0x1d
    50bc:	080e                	slli	a6,a6,0x3
    50be:	01d65793          	srli	a5,a2,0x1d
    50c2:	7ff4f493          	andi	s1,s1,2047
    50c6:	7ff37313          	andi	t1,t1,2047
    50ca:	ce06                	sw	ra,28(sp)
    50cc:	cc22                	sw	s0,24(sp)
    50ce:	c84a                	sw	s2,16(sp)
    50d0:	01f5d993          	srli	s3,a1,0x1f
    50d4:	01f6de93          	srli	t4,a3,0x1f
    50d8:	01c76733          	or	a4,a4,t3
    50dc:	00351f13          	slli	t5,a0,0x3
    50e0:	0107e833          	or	a6,a5,a6
    50e4:	00361f93          	slli	t6,a2,0x3
    50e8:	40648e33          	sub	t3,s1,t1
    50ec:	19d98063          	beq	s3,t4,526c <__adddf3+0x1d4>
    50f0:	13c05663          	blez	t3,521c <__adddf3+0x184>
    50f4:	1c030463          	beqz	t1,52bc <__adddf3+0x224>
    50f8:	008006b7          	lui	a3,0x800
    50fc:	7ff00793          	li	a5,2047
    5100:	00d86833          	or	a6,a6,a3
    5104:	36f48f63          	beq	s1,a5,5482 <__adddf3+0x3ea>
    5108:	03800793          	li	a5,56
    510c:	35c7c063          	blt	a5,t3,544c <__adddf3+0x3b4>
    5110:	47fd                	li	a5,31
    5112:	47c7cd63          	blt	a5,t3,558c <__adddf3+0x4f4>
    5116:	02000513          	li	a0,32
    511a:	41c50533          	sub	a0,a0,t3
    511e:	01cfd7b3          	srl	a5,t6,t3
    5122:	00a816b3          	sll	a3,a6,a0
    5126:	00af9933          	sll	s2,t6,a0
    512a:	8edd                	or	a3,a3,a5
    512c:	01203933          	snez	s2,s2
    5130:	01c857b3          	srl	a5,a6,t3
    5134:	0126e933          	or	s2,a3,s2
    5138:	8f1d                	sub	a4,a4,a5
    513a:	412f0933          	sub	s2,t5,s2
    513e:	012f37b3          	sltu	a5,t5,s2
    5142:	40f70633          	sub	a2,a4,a5
    5146:	00861793          	slli	a5,a2,0x8
    514a:	2407d463          	bgez	a5,5392 <__adddf3+0x2fa>
    514e:	00800737          	lui	a4,0x800
    5152:	177d                	addi	a4,a4,-1
    5154:	00e67433          	and	s0,a2,a4
    5158:	2c040c63          	beqz	s0,5430 <__adddf3+0x398>
    515c:	8522                	mv	a0,s0
    515e:	209010ef          	jal	ra,6b66 <__clzsi2>
    5162:	ff850713          	addi	a4,a0,-8 # ff8 <clock_set_freq+0x106>
    5166:	02000793          	li	a5,32
    516a:	8f99                	sub	a5,a5,a4
    516c:	00f957b3          	srl	a5,s2,a5
    5170:	00e41633          	sll	a2,s0,a4
    5174:	8fd1                	or	a5,a5,a2
    5176:	00e91933          	sll	s2,s2,a4
    517a:	2a974163          	blt	a4,s1,541c <__adddf3+0x384>
    517e:	40970533          	sub	a0,a4,s1
    5182:	00150613          	addi	a2,a0,1
    5186:	477d                	li	a4,31
    5188:	38c74d63          	blt	a4,a2,5522 <__adddf3+0x48a>
    518c:	02000713          	li	a4,32
    5190:	8f11                	sub	a4,a4,a2
    5192:	00c956b3          	srl	a3,s2,a2
    5196:	00e91933          	sll	s2,s2,a4
    519a:	00e79733          	sll	a4,a5,a4
    519e:	8f55                	or	a4,a4,a3
    51a0:	01203933          	snez	s2,s2
    51a4:	01276933          	or	s2,a4,s2
    51a8:	00c7d633          	srl	a2,a5,a2
    51ac:	4481                	li	s1,0
    51ae:	00797793          	andi	a5,s2,7
    51b2:	cf81                	beqz	a5,51ca <__adddf3+0x132>
    51b4:	00f97713          	andi	a4,s2,15
    51b8:	4791                	li	a5,4
    51ba:	00f70863          	beq	a4,a5,51ca <__adddf3+0x132>
    51be:	00490713          	addi	a4,s2,4
    51c2:	01273933          	sltu	s2,a4,s2
    51c6:	964a                	add	a2,a2,s2
    51c8:	893a                	mv	s2,a4
    51ca:	00861793          	slli	a5,a2,0x8
    51ce:	1c07d663          	bgez	a5,539a <__adddf3+0x302>
    51d2:	00148513          	addi	a0,s1,1
    51d6:	7ff00793          	li	a5,2047
    51da:	85ce                	mv	a1,s3
    51dc:	20f50463          	beq	a0,a5,53e4 <__adddf3+0x34c>
    51e0:	ff8007b7          	lui	a5,0xff800
    51e4:	17fd                	addi	a5,a5,-1
    51e6:	8ff1                	and	a5,a5,a2
    51e8:	01d79893          	slli	a7,a5,0x1d
    51ec:	00395913          	srli	s2,s2,0x3
    51f0:	07a6                	slli	a5,a5,0x9
    51f2:	0128e8b3          	or	a7,a7,s2
    51f6:	83b1                	srli	a5,a5,0xc
    51f8:	7ff57513          	andi	a0,a0,2047
    51fc:	00c79693          	slli	a3,a5,0xc
    5200:	0552                	slli	a0,a0,0x14
    5202:	40f2                	lw	ra,28(sp)
    5204:	4462                	lw	s0,24(sp)
    5206:	82b1                	srli	a3,a3,0xc
    5208:	05fe                	slli	a1,a1,0x1f
    520a:	8ec9                	or	a3,a3,a0
    520c:	8ecd                	or	a3,a3,a1
    520e:	44d2                	lw	s1,20(sp)
    5210:	4942                	lw	s2,16(sp)
    5212:	49b2                	lw	s3,12(sp)
    5214:	8546                	mv	a0,a7
    5216:	85b6                	mv	a1,a3
    5218:	6105                	addi	sp,sp,32
    521a:	8082                	ret
    521c:	0a0e1e63          	bnez	t3,52d8 <__adddf3+0x240>
    5220:	00148313          	addi	t1,s1,1
    5224:	7fe37313          	andi	t1,t1,2046
    5228:	22031763          	bnez	t1,5456 <__adddf3+0x3be>
    522c:	01e767b3          	or	a5,a4,t5
    5230:	01f868b3          	or	a7,a6,t6
    5234:	1a049d63          	bnez	s1,53ee <__adddf3+0x356>
    5238:	40078763          	beqz	a5,5646 <__adddf3+0x5ae>
    523c:	44088663          	beqz	a7,5688 <__adddf3+0x5f0>
    5240:	41ff0933          	sub	s2,t5,t6
    5244:	410707b3          	sub	a5,a4,a6
    5248:	012f3633          	sltu	a2,t5,s2
    524c:	40c78633          	sub	a2,a5,a2
    5250:	00861793          	slli	a5,a2,0x8
    5254:	4c07d663          	bgez	a5,5720 <__adddf3+0x688>
    5258:	41ef8933          	sub	s2,t6,t5
    525c:	40e807b3          	sub	a5,a6,a4
    5260:	012fb633          	sltu	a2,t6,s2
    5264:	40c78633          	sub	a2,a5,a2
    5268:	89f6                	mv	s3,t4
    526a:	b791                	j	51ae <__adddf3+0x116>
    526c:	0fc05063          	blez	t3,534c <__adddf3+0x2b4>
    5270:	0c030063          	beqz	t1,5330 <__adddf3+0x298>
    5274:	008006b7          	lui	a3,0x800
    5278:	7ff00793          	li	a5,2047
    527c:	00d86833          	or	a6,a6,a3
    5280:	3af48a63          	beq	s1,a5,5634 <__adddf3+0x59c>
    5284:	03800793          	li	a5,56
    5288:	13c7cb63          	blt	a5,t3,53be <__adddf3+0x326>
    528c:	47fd                	li	a5,31
    528e:	35c7df63          	bge	a5,t3,55ec <__adddf3+0x554>
    5292:	fe0e0913          	addi	s2,t3,-32
    5296:	02000793          	li	a5,32
    529a:	012856b3          	srl	a3,a6,s2
    529e:	00fe0a63          	beq	t3,a5,52b2 <__adddf3+0x21a>
    52a2:	04000913          	li	s2,64
    52a6:	41c90933          	sub	s2,s2,t3
    52aa:	01281933          	sll	s2,a6,s2
    52ae:	012fefb3          	or	t6,t6,s2
    52b2:	01f03933          	snez	s2,t6
    52b6:	00d96933          	or	s2,s2,a3
    52ba:	a231                	j	53c6 <__adddf3+0x32e>
    52bc:	01f867b3          	or	a5,a6,t6
    52c0:	1c078a63          	beqz	a5,5494 <__adddf3+0x3fc>
    52c4:	fffe0793          	addi	a5,t3,-1
    52c8:	38078c63          	beqz	a5,5660 <__adddf3+0x5c8>
    52cc:	7ff00693          	li	a3,2047
    52d0:	1ade0963          	beq	t3,a3,5482 <__adddf3+0x3ea>
    52d4:	8e3e                	mv	t3,a5
    52d6:	bd0d                	j	5108 <__adddf3+0x70>
    52d8:	409305b3          	sub	a1,t1,s1
    52dc:	22049163          	bnez	s1,54fe <__adddf3+0x466>
    52e0:	01e767b3          	or	a5,a4,t5
    52e4:	32078763          	beqz	a5,5612 <__adddf3+0x57a>
    52e8:	fff58793          	addi	a5,a1,-1
    52ec:	44078163          	beqz	a5,572e <__adddf3+0x696>
    52f0:	7ff00693          	li	a3,2047
    52f4:	20d58c63          	beq	a1,a3,550c <__adddf3+0x474>
    52f8:	85be                	mv	a1,a5
    52fa:	03800793          	li	a5,56
    52fe:	2ab7cc63          	blt	a5,a1,55b6 <__adddf3+0x51e>
    5302:	47fd                	li	a5,31
    5304:	3cb7cf63          	blt	a5,a1,56e2 <__adddf3+0x64a>
    5308:	02000793          	li	a5,32
    530c:	8f8d                	sub	a5,a5,a1
    530e:	00f71933          	sll	s2,a4,a5
    5312:	00bf56b3          	srl	a3,t5,a1
    5316:	00ff17b3          	sll	a5,t5,a5
    531a:	00d96933          	or	s2,s2,a3
    531e:	00f037b3          	snez	a5,a5
    5322:	00b75733          	srl	a4,a4,a1
    5326:	00f96933          	or	s2,s2,a5
    532a:	40e80833          	sub	a6,a6,a4
    532e:	ac41                	j	55be <__adddf3+0x526>
    5330:	01f867b3          	or	a5,a6,t6
    5334:	34078063          	beqz	a5,5674 <__adddf3+0x5dc>
    5338:	fffe0793          	addi	a5,t3,-1
    533c:	20078a63          	beqz	a5,5550 <__adddf3+0x4b8>
    5340:	7ff00693          	li	a3,2047
    5344:	2ede0863          	beq	t3,a3,5634 <__adddf3+0x59c>
    5348:	8e3e                	mv	t3,a5
    534a:	bf2d                	j	5284 <__adddf3+0x1ec>
    534c:	140e1e63          	bnez	t3,54a8 <__adddf3+0x410>
    5350:	00148693          	addi	a3,s1,1
    5354:	7fe6f793          	andi	a5,a3,2046
    5358:	34079163          	bnez	a5,569a <__adddf3+0x602>
    535c:	01e767b3          	or	a5,a4,t5
    5360:	2c049563          	bnez	s1,562a <__adddf3+0x592>
    5364:	3e078063          	beqz	a5,5744 <__adddf3+0x6ac>
    5368:	01f867b3          	or	a5,a6,t6
    536c:	30078e63          	beqz	a5,5688 <__adddf3+0x5f0>
    5370:	01ff0933          	add	s2,t5,t6
    5374:	010707b3          	add	a5,a4,a6
    5378:	01e93f33          	sltu	t5,s2,t5
    537c:	01e78633          	add	a2,a5,t5
    5380:	00861793          	slli	a5,a2,0x8
    5384:	0007d763          	bgez	a5,5392 <__adddf3+0x2fa>
    5388:	ff8007b7          	lui	a5,0xff800
    538c:	17fd                	addi	a5,a5,-1
    538e:	8e7d                	and	a2,a2,a5
    5390:	4485                	li	s1,1
    5392:	00797793          	andi	a5,s2,7
    5396:	e0079fe3          	bnez	a5,51b4 <__adddf3+0x11c>
    539a:	01d61793          	slli	a5,a2,0x1d
    539e:	00395893          	srli	a7,s2,0x3
    53a2:	00f8e8b3          	or	a7,a7,a5
    53a6:	00365793          	srli	a5,a2,0x3
    53aa:	7ff00713          	li	a4,2047
    53ae:	04e48d63          	beq	s1,a4,5408 <__adddf3+0x370>
    53b2:	07b2                	slli	a5,a5,0xc
    53b4:	83b1                	srli	a5,a5,0xc
    53b6:	7ff4f513          	andi	a0,s1,2047
    53ba:	85ce                	mv	a1,s3
    53bc:	b581                	j	51fc <__adddf3+0x164>
    53be:	01f86933          	or	s2,a6,t6
    53c2:	01203933          	snez	s2,s2
    53c6:	997a                	add	s2,s2,t5
    53c8:	01e937b3          	sltu	a5,s2,t5
    53cc:	00e78633          	add	a2,a5,a4
    53d0:	00861793          	slli	a5,a2,0x8
    53d4:	fa07dfe3          	bgez	a5,5392 <__adddf3+0x2fa>
    53d8:	0485                	addi	s1,s1,1
    53da:	7ff00793          	li	a5,2047
    53de:	18f49663          	bne	s1,a5,556a <__adddf3+0x4d2>
    53e2:	85ce                	mv	a1,s3
    53e4:	7ff00513          	li	a0,2047
    53e8:	4781                	li	a5,0
    53ea:	4881                	li	a7,0
    53ec:	bd01                	j	51fc <__adddf3+0x164>
    53ee:	ebc1                	bnez	a5,547e <__adddf3+0x3e6>
    53f0:	3a088463          	beqz	a7,5798 <__adddf3+0x700>
    53f4:	00361693          	slli	a3,a2,0x3
    53f8:	01d81793          	slli	a5,a6,0x1d
    53fc:	828d                	srli	a3,a3,0x3
    53fe:	00d7e8b3          	or	a7,a5,a3
    5402:	89f6                	mv	s3,t4
    5404:	00385793          	srli	a5,a6,0x3
    5408:	00f8e7b3          	or	a5,a7,a5
    540c:	dbf9                	beqz	a5,53e2 <__adddf3+0x34a>
    540e:	4581                	li	a1,0
    5410:	7ff00513          	li	a0,2047
    5414:	000807b7          	lui	a5,0x80
    5418:	4881                	li	a7,0
    541a:	b3cd                	j	51fc <__adddf3+0x164>
    541c:	ff800637          	lui	a2,0xff800
    5420:	167d                	addi	a2,a2,-1
    5422:	8e7d                	and	a2,a2,a5
    5424:	00797793          	andi	a5,s2,7
    5428:	8c99                	sub	s1,s1,a4
    542a:	d80795e3          	bnez	a5,51b4 <__adddf3+0x11c>
    542e:	b7b5                	j	539a <__adddf3+0x302>
    5430:	854a                	mv	a0,s2
    5432:	734010ef          	jal	ra,6b66 <__clzsi2>
    5436:	01850713          	addi	a4,a0,24
    543a:	47fd                	li	a5,31
    543c:	d2e7d5e3          	bge	a5,a4,5166 <__adddf3+0xce>
    5440:	ff850613          	addi	a2,a0,-8
    5444:	00c917b3          	sll	a5,s2,a2
    5448:	4901                	li	s2,0
    544a:	bb05                	j	517a <__adddf3+0xe2>
    544c:	01f86933          	or	s2,a6,t6
    5450:	01203933          	snez	s2,s2
    5454:	b1dd                	j	513a <__adddf3+0xa2>
    5456:	41ff0933          	sub	s2,t5,t6
    545a:	41070633          	sub	a2,a4,a6
    545e:	012f3433          	sltu	s0,t5,s2
    5462:	40860433          	sub	s0,a2,s0
    5466:	00841793          	slli	a5,s0,0x8
    546a:	2407cd63          	bltz	a5,56c4 <__adddf3+0x62c>
    546e:	008968b3          	or	a7,s2,s0
    5472:	ce0893e3          	bnez	a7,5158 <__adddf3+0xc0>
    5476:	4781                	li	a5,0
    5478:	4981                	li	s3,0
    547a:	4481                	li	s1,0
    547c:	bf1d                	j	53b2 <__adddf3+0x31a>
    547e:	f80898e3          	bnez	a7,540e <__adddf3+0x376>
    5482:	050e                	slli	a0,a0,0x3
    5484:	01d71793          	slli	a5,a4,0x1d
    5488:	810d                	srli	a0,a0,0x3
    548a:	00a7e8b3          	or	a7,a5,a0
    548e:	00375793          	srli	a5,a4,0x3
    5492:	bf9d                	j	5408 <__adddf3+0x370>
    5494:	050e                	slli	a0,a0,0x3
    5496:	01d71793          	slli	a5,a4,0x1d
    549a:	810d                	srli	a0,a0,0x3
    549c:	00a7e8b3          	or	a7,a5,a0
    54a0:	84f2                	mv	s1,t3
    54a2:	00375793          	srli	a5,a4,0x3
    54a6:	b711                	j	53aa <__adddf3+0x312>
    54a8:	40930533          	sub	a0,t1,s1
    54ac:	12048263          	beqz	s1,55d0 <__adddf3+0x538>
    54b0:	008006b7          	lui	a3,0x800
    54b4:	7ff00793          	li	a5,2047
    54b8:	8f55                	or	a4,a4,a3
    54ba:	2ef30d63          	beq	t1,a5,57b4 <__adddf3+0x71c>
    54be:	03800793          	li	a5,56
    54c2:	20a7cb63          	blt	a5,a0,56d8 <__adddf3+0x640>
    54c6:	47fd                	li	a5,31
    54c8:	2aa7c363          	blt	a5,a0,576e <__adddf3+0x6d6>
    54cc:	02000793          	li	a5,32
    54d0:	8f89                	sub	a5,a5,a0
    54d2:	00f71933          	sll	s2,a4,a5
    54d6:	00af56b3          	srl	a3,t5,a0
    54da:	00ff17b3          	sll	a5,t5,a5
    54de:	00d96933          	or	s2,s2,a3
    54e2:	00f037b3          	snez	a5,a5
    54e6:	00a75733          	srl	a4,a4,a0
    54ea:	00f96933          	or	s2,s2,a5
    54ee:	983a                	add	a6,a6,a4
    54f0:	997e                	add	s2,s2,t6
    54f2:	01f937b3          	sltu	a5,s2,t6
    54f6:	01078633          	add	a2,a5,a6
    54fa:	849a                	mv	s1,t1
    54fc:	bdd1                	j	53d0 <__adddf3+0x338>
    54fe:	008006b7          	lui	a3,0x800
    5502:	7ff00793          	li	a5,2047
    5506:	8f55                	or	a4,a4,a3
    5508:	def319e3          	bne	t1,a5,52fa <__adddf3+0x262>
    550c:	00361793          	slli	a5,a2,0x3
    5510:	838d                	srli	a5,a5,0x3
    5512:	01d81893          	slli	a7,a6,0x1d
    5516:	0117e8b3          	or	a7,a5,a7
    551a:	89f6                	mv	s3,t4
    551c:	00385793          	srli	a5,a6,0x3
    5520:	b5e5                	j	5408 <__adddf3+0x370>
    5522:	fe150713          	addi	a4,a0,-31
    5526:	02000693          	li	a3,32
    552a:	00e7d733          	srl	a4,a5,a4
    552e:	00d60a63          	beq	a2,a3,5542 <__adddf3+0x4aa>
    5532:	04000693          	li	a3,64
    5536:	40c68633          	sub	a2,a3,a2
    553a:	00c79633          	sll	a2,a5,a2
    553e:	00c96933          	or	s2,s2,a2
    5542:	01203933          	snez	s2,s2
    5546:	00e96933          	or	s2,s2,a4
    554a:	4601                	li	a2,0
    554c:	4481                	li	s1,0
    554e:	b591                	j	5392 <__adddf3+0x2fa>
    5550:	01ff0933          	add	s2,t5,t6
    5554:	010707b3          	add	a5,a4,a6
    5558:	01e93633          	sltu	a2,s2,t5
    555c:	963e                	add	a2,a2,a5
    555e:	00861793          	slli	a5,a2,0x8
    5562:	4485                	li	s1,1
    5564:	e207d7e3          	bgez	a5,5392 <__adddf3+0x2fa>
    5568:	4489                	li	s1,2
    556a:	ff8007b7          	lui	a5,0xff800
    556e:	17fd                	addi	a5,a5,-1
    5570:	8ff1                	and	a5,a5,a2
    5572:	00195713          	srli	a4,s2,0x1
    5576:	00197913          	andi	s2,s2,1
    557a:	01276933          	or	s2,a4,s2
    557e:	01f79893          	slli	a7,a5,0x1f
    5582:	0128e933          	or	s2,a7,s2
    5586:	0017d613          	srli	a2,a5,0x1
    558a:	b115                	j	51ae <__adddf3+0x116>
    558c:	fe0e0913          	addi	s2,t3,-32
    5590:	02000793          	li	a5,32
    5594:	012856b3          	srl	a3,a6,s2
    5598:	00fe0a63          	beq	t3,a5,55ac <__adddf3+0x514>
    559c:	04000913          	li	s2,64
    55a0:	41c90933          	sub	s2,s2,t3
    55a4:	01281933          	sll	s2,a6,s2
    55a8:	012fefb3          	or	t6,t6,s2
    55ac:	01f03933          	snez	s2,t6
    55b0:	00d96933          	or	s2,s2,a3
    55b4:	b659                	j	513a <__adddf3+0xa2>
    55b6:	01e76933          	or	s2,a4,t5
    55ba:	01203933          	snez	s2,s2
    55be:	412f8933          	sub	s2,t6,s2
    55c2:	012fb7b3          	sltu	a5,t6,s2
    55c6:	40f80633          	sub	a2,a6,a5
    55ca:	849a                	mv	s1,t1
    55cc:	89f6                	mv	s3,t4
    55ce:	bea5                	j	5146 <__adddf3+0xae>
    55d0:	01e767b3          	or	a5,a4,t5
    55d4:	18078263          	beqz	a5,5758 <__adddf3+0x6c0>
    55d8:	fff50793          	addi	a5,a0,-1
    55dc:	1c078463          	beqz	a5,57a4 <__adddf3+0x70c>
    55e0:	7ff00693          	li	a3,2047
    55e4:	12d50463          	beq	a0,a3,570c <__adddf3+0x674>
    55e8:	853e                	mv	a0,a5
    55ea:	bdd1                	j	54be <__adddf3+0x426>
    55ec:	02000793          	li	a5,32
    55f0:	41c787b3          	sub	a5,a5,t3
    55f4:	00f816b3          	sll	a3,a6,a5
    55f8:	00ff9933          	sll	s2,t6,a5
    55fc:	01cfd633          	srl	a2,t6,t3
    5600:	8ed1                	or	a3,a3,a2
    5602:	01203933          	snez	s2,s2
    5606:	01c857b3          	srl	a5,a6,t3
    560a:	0126e933          	or	s2,a3,s2
    560e:	973e                	add	a4,a4,a5
    5610:	bb5d                	j	53c6 <__adddf3+0x32e>
    5612:	00361793          	slli	a5,a2,0x3
    5616:	838d                	srli	a5,a5,0x3
    5618:	01d81893          	slli	a7,a6,0x1d
    561c:	0117e8b3          	or	a7,a5,a7
    5620:	84ae                	mv	s1,a1
    5622:	00385793          	srli	a5,a6,0x3
    5626:	89f6                	mv	s3,t4
    5628:	b349                	j	53aa <__adddf3+0x312>
    562a:	c3ed                	beqz	a5,570c <__adddf3+0x674>
    562c:	01f86933          	or	s2,a6,t6
    5630:	dc091fe3          	bnez	s2,540e <__adddf3+0x376>
    5634:	050e                	slli	a0,a0,0x3
    5636:	01d71793          	slli	a5,a4,0x1d
    563a:	810d                	srli	a0,a0,0x3
    563c:	00f568b3          	or	a7,a0,a5
    5640:	00375793          	srli	a5,a4,0x3
    5644:	b3d1                	j	5408 <__adddf3+0x370>
    5646:	0e088163          	beqz	a7,5728 <__adddf3+0x690>
    564a:	00361693          	slli	a3,a2,0x3
    564e:	01d81793          	slli	a5,a6,0x1d
    5652:	828d                	srli	a3,a3,0x3
    5654:	00d7e8b3          	or	a7,a5,a3
    5658:	89f6                	mv	s3,t4
    565a:	00385793          	srli	a5,a6,0x3
    565e:	bb91                	j	53b2 <__adddf3+0x31a>
    5660:	41ff0933          	sub	s2,t5,t6
    5664:	410707b3          	sub	a5,a4,a6
    5668:	012f3f33          	sltu	t5,t5,s2
    566c:	41e78633          	sub	a2,a5,t5
    5670:	4485                	li	s1,1
    5672:	bcd1                	j	5146 <__adddf3+0xae>
    5674:	050e                	slli	a0,a0,0x3
    5676:	01d71793          	slli	a5,a4,0x1d
    567a:	810d                	srli	a0,a0,0x3
    567c:	00f568b3          	or	a7,a0,a5
    5680:	84f2                	mv	s1,t3
    5682:	00375793          	srli	a5,a4,0x3
    5686:	b315                	j	53aa <__adddf3+0x312>
    5688:	050e                	slli	a0,a0,0x3
    568a:	01d71793          	slli	a5,a4,0x1d
    568e:	810d                	srli	a0,a0,0x3
    5690:	00a7e8b3          	or	a7,a5,a0
    5694:	00375793          	srli	a5,a4,0x3
    5698:	bb29                	j	53b2 <__adddf3+0x31a>
    569a:	7ff00793          	li	a5,2047
    569e:	d4f682e3          	beq	a3,a5,53e2 <__adddf3+0x34a>
    56a2:	01ff0933          	add	s2,t5,t6
    56a6:	01e93633          	sltu	a2,s2,t5
    56aa:	010707b3          	add	a5,a4,a6
    56ae:	97b2                	add	a5,a5,a2
    56b0:	01f79893          	slli	a7,a5,0x1f
    56b4:	00195913          	srli	s2,s2,0x1
    56b8:	0128e933          	or	s2,a7,s2
    56bc:	0017d613          	srli	a2,a5,0x1
    56c0:	84b6                	mv	s1,a3
    56c2:	b9c1                	j	5392 <__adddf3+0x2fa>
    56c4:	41ef8933          	sub	s2,t6,t5
    56c8:	40e80733          	sub	a4,a6,a4
    56cc:	012fb633          	sltu	a2,t6,s2
    56d0:	40c70433          	sub	s0,a4,a2
    56d4:	89f6                	mv	s3,t4
    56d6:	b449                	j	5158 <__adddf3+0xc0>
    56d8:	01e76933          	or	s2,a4,t5
    56dc:	01203933          	snez	s2,s2
    56e0:	bd01                	j	54f0 <__adddf3+0x458>
    56e2:	fe058793          	addi	a5,a1,-32
    56e6:	02000693          	li	a3,32
    56ea:	00f757b3          	srl	a5,a4,a5
    56ee:	00d58a63          	beq	a1,a3,5702 <__adddf3+0x66a>
    56f2:	04000693          	li	a3,64
    56f6:	40b685b3          	sub	a1,a3,a1
    56fa:	00b71733          	sll	a4,a4,a1
    56fe:	00ef6f33          	or	t5,t5,a4
    5702:	01e03933          	snez	s2,t5
    5706:	00f96933          	or	s2,s2,a5
    570a:	bd55                	j	55be <__adddf3+0x526>
    570c:	00361793          	slli	a5,a2,0x3
    5710:	838d                	srli	a5,a5,0x3
    5712:	01d81893          	slli	a7,a6,0x1d
    5716:	0117e8b3          	or	a7,a5,a7
    571a:	00385793          	srli	a5,a6,0x3
    571e:	b1ed                	j	5408 <__adddf3+0x370>
    5720:	00c968b3          	or	a7,s2,a2
    5724:	c60897e3          	bnez	a7,5392 <__adddf3+0x2fa>
    5728:	4781                	li	a5,0
    572a:	4981                	li	s3,0
    572c:	b159                	j	53b2 <__adddf3+0x31a>
    572e:	41ef8933          	sub	s2,t6,t5
    5732:	40e807b3          	sub	a5,a6,a4
    5736:	012fb633          	sltu	a2,t6,s2
    573a:	40c78633          	sub	a2,a5,a2
    573e:	89f6                	mv	s3,t4
    5740:	4485                	li	s1,1
    5742:	b411                	j	5146 <__adddf3+0xae>
    5744:	00361693          	slli	a3,a2,0x3
    5748:	01d81793          	slli	a5,a6,0x1d
    574c:	828d                	srli	a3,a3,0x3
    574e:	00d7e8b3          	or	a7,a5,a3
    5752:	00385793          	srli	a5,a6,0x3
    5756:	b9b1                	j	53b2 <__adddf3+0x31a>
    5758:	00361693          	slli	a3,a2,0x3
    575c:	01d81793          	slli	a5,a6,0x1d
    5760:	828d                	srli	a3,a3,0x3
    5762:	00d7e8b3          	or	a7,a5,a3
    5766:	84aa                	mv	s1,a0
    5768:	00385793          	srli	a5,a6,0x3
    576c:	b93d                	j	53aa <__adddf3+0x312>
    576e:	fe050793          	addi	a5,a0,-32
    5772:	02000693          	li	a3,32
    5776:	00f757b3          	srl	a5,a4,a5
    577a:	00d50a63          	beq	a0,a3,578e <__adddf3+0x6f6>
    577e:	04000693          	li	a3,64
    5782:	40a68533          	sub	a0,a3,a0
    5786:	00a71733          	sll	a4,a4,a0
    578a:	00ef6f33          	or	t5,t5,a4
    578e:	01e03933          	snez	s2,t5
    5792:	00f96933          	or	s2,s2,a5
    5796:	bba9                	j	54f0 <__adddf3+0x458>
    5798:	4581                	li	a1,0
    579a:	7ff00513          	li	a0,2047
    579e:	000807b7          	lui	a5,0x80
    57a2:	bca9                	j	51fc <__adddf3+0x164>
    57a4:	01ff0933          	add	s2,t5,t6
    57a8:	010707b3          	add	a5,a4,a6
    57ac:	01f93633          	sltu	a2,s2,t6
    57b0:	963e                	add	a2,a2,a5
    57b2:	b375                	j	555e <__adddf3+0x4c6>
    57b4:	00361693          	slli	a3,a2,0x3
    57b8:	01d81793          	slli	a5,a6,0x1d
    57bc:	828d                	srli	a3,a3,0x3
    57be:	00d7e8b3          	or	a7,a5,a3
    57c2:	00385793          	srli	a5,a6,0x3
    57c6:	b189                	j	5408 <__adddf3+0x370>

000057c8 <__divdf3>:
__divdf3():
    57c8:	7139                	addi	sp,sp,-64
    57ca:	0145d793          	srli	a5,a1,0x14
    57ce:	dc22                	sw	s0,56(sp)
    57d0:	d84a                	sw	s2,48(sp)
    57d2:	d256                	sw	s5,36(sp)
    57d4:	892a                	mv	s2,a0
    57d6:	00c59413          	slli	s0,a1,0xc
    57da:	de06                	sw	ra,60(sp)
    57dc:	da26                	sw	s1,52(sp)
    57de:	d64e                	sw	s3,44(sp)
    57e0:	d452                	sw	s4,40(sp)
    57e2:	d05a                	sw	s6,32(sp)
    57e4:	ce5e                	sw	s7,28(sp)
    57e6:	7ff7f513          	andi	a0,a5,2047
    57ea:	8031                	srli	s0,s0,0xc
    57ec:	01f5da93          	srli	s5,a1,0x1f
    57f0:	10050b63          	beqz	a0,5906 <__divdf3+0x13e>
    57f4:	7ff00793          	li	a5,2047
    57f8:	14f50b63          	beq	a0,a5,594e <__divdf3+0x186>
    57fc:	01d95a13          	srli	s4,s2,0x1d
    5800:	040e                	slli	s0,s0,0x3
    5802:	008a6433          	or	s0,s4,s0
    5806:	00800a37          	lui	s4,0x800
    580a:	01446a33          	or	s4,s0,s4
    580e:	00391b13          	slli	s6,s2,0x3
    5812:	c0150493          	addi	s1,a0,-1023
    5816:	4401                	li	s0,0
    5818:	4b81                	li	s7,0
    581a:	0146d813          	srli	a6,a3,0x14
    581e:	00c69913          	slli	s2,a3,0xc
    5822:	7ff87813          	andi	a6,a6,2047
    5826:	88b2                	mv	a7,a2
    5828:	00c95913          	srli	s2,s2,0xc
    582c:	01f6d993          	srli	s3,a3,0x1f
    5830:	08080e63          	beqz	a6,58cc <__divdf3+0x104>
    5834:	7ff00793          	li	a5,2047
    5838:	04f80063          	beq	a6,a5,5878 <__divdf3+0xb0>
    583c:	01d65713          	srli	a4,a2,0x1d
    5840:	090e                	slli	s2,s2,0x3
    5842:	01276933          	or	s2,a4,s2
    5846:	c0180813          	addi	a6,a6,-1023 # ffc01 <_data_lma+0xf57dd>
    584a:	008007b7          	lui	a5,0x800
    584e:	00f96733          	or	a4,s2,a5
    5852:	00361893          	slli	a7,a2,0x3
    5856:	410484b3          	sub	s1,s1,a6
    585a:	4581                	li	a1,0
    585c:	47bd                	li	a5,15
    585e:	013ac833          	xor	a6,s5,s3
    5862:	1a87e463          	bltu	a5,s0,5a0a <__divdf3+0x242>
    5866:	00004797          	auipc	a5,0x4
    586a:	71678793          	addi	a5,a5,1814 # 9f7c <lde_replicaCoeff+0x34>
    586e:	040a                	slli	s0,s0,0x2
    5870:	943e                	add	s0,s0,a5
    5872:	4010                	lw	a2,0(s0)
    5874:	963e                	add	a2,a2,a5
    5876:	8602                	jr	a2
    5878:	00c96733          	or	a4,s2,a2
    587c:	80148493          	addi	s1,s1,-2047
    5880:	10071263          	bnez	a4,5984 <__divdf3+0x1bc>
    5884:	00246413          	ori	s0,s0,2
    5888:	4881                	li	a7,0
    588a:	4589                	li	a1,2
    588c:	bfc1                	j	585c <__divdf3+0x94>
    588e:	7ff00613          	li	a2,2047
    5892:	4781                	li	a5,0
    5894:	4701                	li	a4,0
    5896:	07b2                	slli	a5,a5,0xc
    5898:	50f2                	lw	ra,60(sp)
    589a:	5462                	lw	s0,56(sp)
    589c:	0652                	slli	a2,a2,0x14
    589e:	83b1                	srli	a5,a5,0xc
    58a0:	087e                	slli	a6,a6,0x1f
    58a2:	8fd1                	or	a5,a5,a2
    58a4:	0107e7b3          	or	a5,a5,a6
    58a8:	54d2                	lw	s1,52(sp)
    58aa:	5942                	lw	s2,48(sp)
    58ac:	59b2                	lw	s3,44(sp)
    58ae:	5a22                	lw	s4,40(sp)
    58b0:	5a92                	lw	s5,36(sp)
    58b2:	5b02                	lw	s6,32(sp)
    58b4:	4bf2                	lw	s7,28(sp)
    58b6:	853a                	mv	a0,a4
    58b8:	85be                	mv	a1,a5
    58ba:	6121                	addi	sp,sp,64
    58bc:	8082                	ret
    58be:	4801                	li	a6,0
    58c0:	7ff00613          	li	a2,2047
    58c4:	000807b7          	lui	a5,0x80
    58c8:	4701                	li	a4,0
    58ca:	b7f1                	j	5896 <__divdf3+0xce>
    58cc:	00c96733          	or	a4,s2,a2
    58d0:	c74d                	beqz	a4,597a <__divdf3+0x1b2>
    58d2:	30090863          	beqz	s2,5be2 <__divdf3+0x41a>
    58d6:	854a                	mv	a0,s2
    58d8:	c432                	sw	a2,8(sp)
    58da:	28c010ef          	jal	ra,6b66 <__clzsi2>
    58de:	4622                	lw	a2,8(sp)
    58e0:	ff550713          	addi	a4,a0,-11
    58e4:	47f5                	li	a5,29
    58e6:	ff850693          	addi	a3,a0,-8
    58ea:	8f99                	sub	a5,a5,a4
    58ec:	00d91933          	sll	s2,s2,a3
    58f0:	00f657b3          	srl	a5,a2,a5
    58f4:	0127e733          	or	a4,a5,s2
    58f8:	00d618b3          	sll	a7,a2,a3
    58fc:	9526                	add	a0,a0,s1
    58fe:	3f350493          	addi	s1,a0,1011
    5902:	4581                	li	a1,0
    5904:	bfa1                	j	585c <__divdf3+0x94>
    5906:	01246a33          	or	s4,s0,s2
    590a:	060a0363          	beqz	s4,5970 <__divdf3+0x1a8>
    590e:	c636                	sw	a3,12(sp)
    5910:	c432                	sw	a2,8(sp)
    5912:	2a040663          	beqz	s0,5bbe <__divdf3+0x3f6>
    5916:	8522                	mv	a0,s0
    5918:	24e010ef          	jal	ra,6b66 <__clzsi2>
    591c:	4622                	lw	a2,8(sp)
    591e:	46b2                	lw	a3,12(sp)
    5920:	84aa                	mv	s1,a0
    5922:	ff550713          	addi	a4,a0,-11
    5926:	4a75                	li	s4,29
    5928:	ff848b13          	addi	s6,s1,-8
    592c:	40ea0a33          	sub	s4,s4,a4
    5930:	01641433          	sll	s0,s0,s6
    5934:	01495a33          	srl	s4,s2,s4
    5938:	008a6a33          	or	s4,s4,s0
    593c:	01691b33          	sll	s6,s2,s6
    5940:	c0d00513          	li	a0,-1011
    5944:	409504b3          	sub	s1,a0,s1
    5948:	4401                	li	s0,0
    594a:	4b81                	li	s7,0
    594c:	b5f9                	j	581a <__divdf3+0x52>
    594e:	01246a33          	or	s4,s0,s2
    5952:	000a1863          	bnez	s4,5962 <__divdf3+0x19a>
    5956:	4421                	li	s0,8
    5958:	4b01                	li	s6,0
    595a:	7ff00493          	li	s1,2047
    595e:	4b89                	li	s7,2
    5960:	bd6d                	j	581a <__divdf3+0x52>
    5962:	8a22                	mv	s4,s0
    5964:	8b4a                	mv	s6,s2
    5966:	4431                	li	s0,12
    5968:	7ff00493          	li	s1,2047
    596c:	4b8d                	li	s7,3
    596e:	b575                	j	581a <__divdf3+0x52>
    5970:	4411                	li	s0,4
    5972:	4b01                	li	s6,0
    5974:	4481                	li	s1,0
    5976:	4b85                	li	s7,1
    5978:	b54d                	j	581a <__divdf3+0x52>
    597a:	00146413          	ori	s0,s0,1
    597e:	4881                	li	a7,0
    5980:	4585                	li	a1,1
    5982:	bde9                	j	585c <__divdf3+0x94>
    5984:	00346413          	ori	s0,s0,3
    5988:	874a                	mv	a4,s2
    598a:	458d                	li	a1,3
    598c:	bdc1                	j	585c <__divdf3+0x94>
    598e:	2e050a63          	beqz	a0,5c82 <__divdf3+0x4ba>
    5992:	4785                	li	a5,1
    5994:	8f89                	sub	a5,a5,a0
    5996:	03800693          	li	a3,56
    599a:	32f6dd63          	bge	a3,a5,5cd4 <__divdf3+0x50c>
    599e:	4601                	li	a2,0
    59a0:	4781                	li	a5,0
    59a2:	4701                	li	a4,0
    59a4:	bdcd                	j	5896 <__divdf3+0xce>
    59a6:	86ce                	mv	a3,s3
    59a8:	4789                	li	a5,2
    59aa:	3af58d63          	beq	a1,a5,5d64 <__divdf3+0x59c>
    59ae:	478d                	li	a5,3
    59b0:	f0f587e3          	beq	a1,a5,58be <__divdf3+0xf6>
    59b4:	4785                	li	a5,1
    59b6:	8836                	mv	a6,a3
    59b8:	fef583e3          	beq	a1,a5,599e <__divdf3+0x1d6>
    59bc:	3ff48513          	addi	a0,s1,1023
    59c0:	fca057e3          	blez	a0,598e <__divdf3+0x1c6>
    59c4:	0078f793          	andi	a5,a7,7
    59c8:	28079663          	bnez	a5,5c54 <__divdf3+0x48c>
    59cc:	0038d693          	srli	a3,a7,0x3
    59d0:	00771793          	slli	a5,a4,0x7
    59d4:	0007d863          	bgez	a5,59e4 <__divdf3+0x21c>
    59d8:	ff0007b7          	lui	a5,0xff000
    59dc:	17fd                	addi	a5,a5,-1
    59de:	8f7d                	and	a4,a4,a5
    59e0:	40048513          	addi	a0,s1,1024
    59e4:	7fe00793          	li	a5,2046
    59e8:	eaa7c3e3          	blt	a5,a0,588e <__divdf3+0xc6>
    59ec:	01d71613          	slli	a2,a4,0x1d
    59f0:	00971793          	slli	a5,a4,0x9
    59f4:	83b1                	srli	a5,a5,0xc
    59f6:	00d66733          	or	a4,a2,a3
    59fa:	7ff57613          	andi	a2,a0,2047
    59fe:	bd61                	j	5896 <__divdf3+0xce>
    5a00:	86d6                	mv	a3,s5
    5a02:	8752                	mv	a4,s4
    5a04:	88da                	mv	a7,s6
    5a06:	85de                	mv	a1,s7
    5a08:	b745                	j	59a8 <__divdf3+0x1e0>
    5a0a:	23476163          	bltu	a4,s4,5c2c <__divdf3+0x464>
    5a0e:	20ea0d63          	beq	s4,a4,5c28 <__divdf3+0x460>
    5a12:	86da                	mv	a3,s6
    5a14:	14fd                	addi	s1,s1,-1
    5a16:	8452                	mv	s0,s4
    5a18:	4b01                	li	s6,0
    5a1a:	00871793          	slli	a5,a4,0x8
    5a1e:	0188d313          	srli	t1,a7,0x18
    5a22:	00f36333          	or	t1,t1,a5
    5a26:	01035e93          	srli	t4,t1,0x10
    5a2a:	03d457b3          	divu	a5,s0,t4
    5a2e:	01031f13          	slli	t5,t1,0x10
    5a32:	010f5f13          	srli	t5,t5,0x10
    5a36:	0106d593          	srli	a1,a3,0x10
    5a3a:	00889e13          	slli	t3,a7,0x8
    5a3e:	03d47433          	remu	s0,s0,t4
    5a42:	02ff0733          	mul	a4,t5,a5
    5a46:	0442                	slli	s0,s0,0x10
    5a48:	8dc1                	or	a1,a1,s0
    5a4a:	00e5fb63          	bgeu	a1,a4,5a60 <__divdf3+0x298>
    5a4e:	959a                	add	a1,a1,t1
    5a50:	fff78613          	addi	a2,a5,-1 # feffffff <_eusrstack+0xdefeffff>
    5a54:	2665ee63          	bltu	a1,t1,5cd0 <__divdf3+0x508>
    5a58:	26e5fc63          	bgeu	a1,a4,5cd0 <__divdf3+0x508>
    5a5c:	17f9                	addi	a5,a5,-2
    5a5e:	959a                	add	a1,a1,t1
    5a60:	8d99                	sub	a1,a1,a4
    5a62:	03d5d733          	divu	a4,a1,t4
    5a66:	06c2                	slli	a3,a3,0x10
    5a68:	82c1                	srli	a3,a3,0x10
    5a6a:	03d5f5b3          	remu	a1,a1,t4
    5a6e:	02ef0633          	mul	a2,t5,a4
    5a72:	05c2                	slli	a1,a1,0x10
    5a74:	8dd5                	or	a1,a1,a3
    5a76:	00c5fb63          	bgeu	a1,a2,5a8c <__divdf3+0x2c4>
    5a7a:	959a                	add	a1,a1,t1
    5a7c:	fff70693          	addi	a3,a4,-1 # 7fffff <_data_lma+0x7f5bdb>
    5a80:	2465e663          	bltu	a1,t1,5ccc <__divdf3+0x504>
    5a84:	24c5f463          	bgeu	a1,a2,5ccc <__divdf3+0x504>
    5a88:	1779                	addi	a4,a4,-2
    5a8a:	959a                	add	a1,a1,t1
    5a8c:	07c2                	slli	a5,a5,0x10
    5a8e:	6441                	lui	s0,0x10
    5a90:	8f5d                	or	a4,a4,a5
    5a92:	fff40793          	addi	a5,s0,-1 # ffff <_data_lma+0x5bdb>
    5a96:	00f77533          	and	a0,a4,a5
    5a9a:	01075893          	srli	a7,a4,0x10
    5a9e:	010e5f93          	srli	t6,t3,0x10
    5aa2:	00fe77b3          	and	a5,t3,a5
    5aa6:	02f502b3          	mul	t0,a0,a5
    5aaa:	40c586b3          	sub	a3,a1,a2
    5aae:	02f883b3          	mul	t2,a7,a5
    5ab2:	0102d593          	srli	a1,t0,0x10
    5ab6:	02af8633          	mul	a2,t6,a0
    5aba:	961e                	add	a2,a2,t2
    5abc:	962e                	add	a2,a2,a1
    5abe:	03f88533          	mul	a0,a7,t6
    5ac2:	00767363          	bgeu	a2,t2,5ac8 <__divdf3+0x300>
    5ac6:	9522                	add	a0,a0,s0
    5ac8:	68c1                	lui	a7,0x10
    5aca:	18fd                	addi	a7,a7,-1
    5acc:	01065593          	srli	a1,a2,0x10
    5ad0:	01167633          	and	a2,a2,a7
    5ad4:	0642                	slli	a2,a2,0x10
    5ad6:	0112f8b3          	and	a7,t0,a7
    5ada:	95aa                	add	a1,a1,a0
    5adc:	9646                	add	a2,a2,a7
    5ade:	12b6e663          	bltu	a3,a1,5c0a <__divdf3+0x442>
    5ae2:	12b68263          	beq	a3,a1,5c06 <__divdf3+0x43e>
    5ae6:	40cb0633          	sub	a2,s6,a2
    5aea:	8e8d                	sub	a3,a3,a1
    5aec:	00cb3b33          	sltu	s6,s6,a2
    5af0:	41668b33          	sub	s6,a3,s6
    5af4:	3ff48513          	addi	a0,s1,1023
    5af8:	17630c63          	beq	t1,s6,5c70 <__divdf3+0x4a8>
    5afc:	03db58b3          	divu	a7,s6,t4
    5b00:	01065593          	srli	a1,a2,0x10
    5b04:	03db7b33          	remu	s6,s6,t4
    5b08:	031f06b3          	mul	a3,t5,a7
    5b0c:	0b42                	slli	s6,s6,0x10
    5b0e:	0165eb33          	or	s6,a1,s6
    5b12:	00db7b63          	bgeu	s6,a3,5b28 <__divdf3+0x360>
    5b16:	9b1a                	add	s6,s6,t1
    5b18:	fff88593          	addi	a1,a7,-1 # ffff <_data_lma+0x5bdb>
    5b1c:	206b6d63          	bltu	s6,t1,5d36 <__divdf3+0x56e>
    5b20:	20db7b63          	bgeu	s6,a3,5d36 <__divdf3+0x56e>
    5b24:	18f9                	addi	a7,a7,-2
    5b26:	9b1a                	add	s6,s6,t1
    5b28:	40db0b33          	sub	s6,s6,a3
    5b2c:	03db56b3          	divu	a3,s6,t4
    5b30:	0642                	slli	a2,a2,0x10
    5b32:	8241                	srli	a2,a2,0x10
    5b34:	03db7b33          	remu	s6,s6,t4
    5b38:	02df0f33          	mul	t5,t5,a3
    5b3c:	0b42                	slli	s6,s6,0x10
    5b3e:	01666633          	or	a2,a2,s6
    5b42:	01e67b63          	bgeu	a2,t5,5b58 <__divdf3+0x390>
    5b46:	961a                	add	a2,a2,t1
    5b48:	fff68593          	addi	a1,a3,-1 # 7fffff <_data_lma+0x7f5bdb>
    5b4c:	1e666763          	bltu	a2,t1,5d3a <__divdf3+0x572>
    5b50:	1fe67563          	bgeu	a2,t5,5d3a <__divdf3+0x572>
    5b54:	16f9                	addi	a3,a3,-2
    5b56:	961a                	add	a2,a2,t1
    5b58:	08c2                	slli	a7,a7,0x10
    5b5a:	00d8e8b3          	or	a7,a7,a3
    5b5e:	01089593          	slli	a1,a7,0x10
    5b62:	0108d293          	srli	t0,a7,0x10
    5b66:	81c1                	srli	a1,a1,0x10
    5b68:	02f58eb3          	mul	t4,a1,a5
    5b6c:	41e60633          	sub	a2,a2,t5
    5b70:	02bf85b3          	mul	a1,t6,a1
    5b74:	010ed693          	srli	a3,t4,0x10
    5b78:	02f287b3          	mul	a5,t0,a5
    5b7c:	95be                	add	a1,a1,a5
    5b7e:	96ae                	add	a3,a3,a1
    5b80:	025f8fb3          	mul	t6,t6,t0
    5b84:	00f6f463          	bgeu	a3,a5,5b8c <__divdf3+0x3c4>
    5b88:	67c1                	lui	a5,0x10
    5b8a:	9fbe                	add	t6,t6,a5
    5b8c:	65c1                	lui	a1,0x10
    5b8e:	15fd                	addi	a1,a1,-1
    5b90:	0106d793          	srli	a5,a3,0x10
    5b94:	8eed                	and	a3,a3,a1
    5b96:	06c2                	slli	a3,a3,0x10
    5b98:	00befeb3          	and	t4,t4,a1
    5b9c:	9fbe                	add	t6,t6,a5
    5b9e:	96f6                	add	a3,a3,t4
    5ba0:	09f67f63          	bgeu	a2,t6,5c3e <__divdf3+0x476>
    5ba4:	961a                	add	a2,a2,t1
    5ba6:	fff88793          	addi	a5,a7,-1
    5baa:	1a666963          	bltu	a2,t1,5d5c <__divdf3+0x594>
    5bae:	19f66863          	bltu	a2,t6,5d3e <__divdf3+0x576>
    5bb2:	1bf60f63          	beq	a2,t6,5d70 <__divdf3+0x5a8>
    5bb6:	88be                	mv	a7,a5
    5bb8:	0018e893          	ori	a7,a7,1
    5bbc:	b511                	j	59c0 <__divdf3+0x1f8>
    5bbe:	854a                	mv	a0,s2
    5bc0:	7a7000ef          	jal	ra,6b66 <__clzsi2>
    5bc4:	01550713          	addi	a4,a0,21
    5bc8:	45f1                	li	a1,28
    5bca:	02050493          	addi	s1,a0,32
    5bce:	4622                	lw	a2,8(sp)
    5bd0:	46b2                	lw	a3,12(sp)
    5bd2:	d4e5dae3          	bge	a1,a4,5926 <__divdf3+0x15e>
    5bd6:	ff850413          	addi	s0,a0,-8
    5bda:	00891a33          	sll	s4,s2,s0
    5bde:	4b01                	li	s6,0
    5be0:	b385                	j	5940 <__divdf3+0x178>
    5be2:	8532                	mv	a0,a2
    5be4:	c432                	sw	a2,8(sp)
    5be6:	781000ef          	jal	ra,6b66 <__clzsi2>
    5bea:	01550713          	addi	a4,a0,21
    5bee:	46f1                	li	a3,28
    5bf0:	87aa                	mv	a5,a0
    5bf2:	4622                	lw	a2,8(sp)
    5bf4:	02050513          	addi	a0,a0,32
    5bf8:	cee6d6e3          	bge	a3,a4,58e4 <__divdf3+0x11c>
    5bfc:	17e1                	addi	a5,a5,-8
    5bfe:	00f61733          	sll	a4,a2,a5
    5c02:	4881                	li	a7,0
    5c04:	b9e5                	j	58fc <__divdf3+0x134>
    5c06:	eecb70e3          	bgeu	s6,a2,5ae6 <__divdf3+0x31e>
    5c0a:	9b72                	add	s6,s6,t3
    5c0c:	01cb3533          	sltu	a0,s6,t3
    5c10:	951a                	add	a0,a0,t1
    5c12:	96aa                	add	a3,a3,a0
    5c14:	fff70513          	addi	a0,a4,-1
    5c18:	02d37863          	bgeu	t1,a3,5c48 <__divdf3+0x480>
    5c1c:	10b6e663          	bltu	a3,a1,5d28 <__divdf3+0x560>
    5c20:	10d58263          	beq	a1,a3,5d24 <__divdf3+0x55c>
    5c24:	872a                	mv	a4,a0
    5c26:	b5c1                	j	5ae6 <__divdf3+0x31e>
    5c28:	df1b65e3          	bltu	s6,a7,5a12 <__divdf3+0x24a>
    5c2c:	001b5593          	srli	a1,s6,0x1
    5c30:	01fa1693          	slli	a3,s4,0x1f
    5c34:	001a5413          	srli	s0,s4,0x1
    5c38:	8ecd                	or	a3,a3,a1
    5c3a:	0b7e                	slli	s6,s6,0x1f
    5c3c:	bbf9                	j	5a1a <__divdf3+0x252>
    5c3e:	f7f61de3          	bne	a2,t6,5bb8 <__divdf3+0x3f0>
    5c42:	d6068fe3          	beqz	a3,59c0 <__divdf3+0x1f8>
    5c46:	bfb9                	j	5ba4 <__divdf3+0x3dc>
    5c48:	fcd31ee3          	bne	t1,a3,5c24 <__divdf3+0x45c>
    5c4c:	fdcb78e3          	bgeu	s6,t3,5c1c <__divdf3+0x454>
    5c50:	872a                	mv	a4,a0
    5c52:	bd51                	j	5ae6 <__divdf3+0x31e>
    5c54:	00f8f793          	andi	a5,a7,15
    5c58:	4691                	li	a3,4
    5c5a:	d6d789e3          	beq	a5,a3,59cc <__divdf3+0x204>
    5c5e:	ffc8b793          	sltiu	a5,a7,-4
    5c62:	00488693          	addi	a3,a7,4
    5c66:	0017c793          	xori	a5,a5,1
    5c6a:	828d                	srli	a3,a3,0x3
    5c6c:	973e                	add	a4,a4,a5
    5c6e:	b38d                	j	59d0 <__divdf3+0x208>
    5c70:	4681                	li	a3,0
    5c72:	4785                	li	a5,1
    5c74:	fea04ce3          	bgtz	a0,5c6c <__divdf3+0x4a4>
    5c78:	58fd                	li	a7,-1
    5c7a:	d0051ce3          	bnez	a0,5992 <__divdf3+0x1ca>
    5c7e:	c0100493          	li	s1,-1023
    5c82:	4785                	li	a5,1
    5c84:	41e48513          	addi	a0,s1,1054
    5c88:	00a716b3          	sll	a3,a4,a0
    5c8c:	00f8d633          	srl	a2,a7,a5
    5c90:	00a89533          	sll	a0,a7,a0
    5c94:	8ed1                	or	a3,a3,a2
    5c96:	00a03533          	snez	a0,a0
    5c9a:	8ec9                	or	a3,a3,a0
    5c9c:	0076f613          	andi	a2,a3,7
    5ca0:	00f75733          	srl	a4,a4,a5
    5ca4:	ce01                	beqz	a2,5cbc <__divdf3+0x4f4>
    5ca6:	00f6f793          	andi	a5,a3,15
    5caa:	4611                	li	a2,4
    5cac:	00c78863          	beq	a5,a2,5cbc <__divdf3+0x4f4>
    5cb0:	00468793          	addi	a5,a3,4
    5cb4:	00d7b6b3          	sltu	a3,a5,a3
    5cb8:	9736                	add	a4,a4,a3
    5cba:	86be                	mv	a3,a5
    5cbc:	00871793          	slli	a5,a4,0x8
    5cc0:	0407d863          	bgez	a5,5d10 <__divdf3+0x548>
    5cc4:	4605                	li	a2,1
    5cc6:	4781                	li	a5,0
    5cc8:	4701                	li	a4,0
    5cca:	b6f1                	j	5896 <__divdf3+0xce>
    5ccc:	8736                	mv	a4,a3
    5cce:	bb7d                	j	5a8c <__divdf3+0x2c4>
    5cd0:	87b2                	mv	a5,a2
    5cd2:	b379                	j	5a60 <__divdf3+0x298>
    5cd4:	46fd                	li	a3,31
    5cd6:	faf6d7e3          	bge	a3,a5,5c84 <__divdf3+0x4bc>
    5cda:	5605                	li	a2,-31
    5cdc:	8e09                	sub	a2,a2,a0
    5cde:	02000693          	li	a3,32
    5ce2:	00c75633          	srl	a2,a4,a2
    5ce6:	00d78863          	beq	a5,a3,5cf6 <__divdf3+0x52e>
    5cea:	43e48793          	addi	a5,s1,1086
    5cee:	00f717b3          	sll	a5,a4,a5
    5cf2:	00f8e8b3          	or	a7,a7,a5
    5cf6:	011036b3          	snez	a3,a7
    5cfa:	8ed1                	or	a3,a3,a2
    5cfc:	0076f613          	andi	a2,a3,7
    5d00:	4781                	li	a5,0
    5d02:	ce01                	beqz	a2,5d1a <__divdf3+0x552>
    5d04:	00f6f793          	andi	a5,a3,15
    5d08:	4611                	li	a2,4
    5d0a:	4701                	li	a4,0
    5d0c:	fac792e3          	bne	a5,a2,5cb0 <__divdf3+0x4e8>
    5d10:	00971793          	slli	a5,a4,0x9
    5d14:	01d71613          	slli	a2,a4,0x1d
    5d18:	83b1                	srli	a5,a5,0xc
    5d1a:	0036d713          	srli	a4,a3,0x3
    5d1e:	8f51                	or	a4,a4,a2
    5d20:	4601                	li	a2,0
    5d22:	be95                	j	5896 <__divdf3+0xce>
    5d24:	f0cb70e3          	bgeu	s6,a2,5c24 <__divdf3+0x45c>
    5d28:	9b72                	add	s6,s6,t3
    5d2a:	01cb3533          	sltu	a0,s6,t3
    5d2e:	951a                	add	a0,a0,t1
    5d30:	1779                	addi	a4,a4,-2
    5d32:	96aa                	add	a3,a3,a0
    5d34:	bb4d                	j	5ae6 <__divdf3+0x31e>
    5d36:	88ae                	mv	a7,a1
    5d38:	bbc5                	j	5b28 <__divdf3+0x360>
    5d3a:	86ae                	mv	a3,a1
    5d3c:	bd31                	j	5b58 <__divdf3+0x390>
    5d3e:	001e1793          	slli	a5,t3,0x1
    5d42:	01c7be33          	sltu	t3,a5,t3
    5d46:	9372                	add	t1,t1,t3
    5d48:	961a                	add	a2,a2,t1
    5d4a:	18f9                	addi	a7,a7,-2
    5d4c:	8e3e                	mv	t3,a5
    5d4e:	e7f615e3          	bne	a2,t6,5bb8 <__divdf3+0x3f0>
    5d52:	c6de07e3          	beq	t3,a3,59c0 <__divdf3+0x1f8>
    5d56:	0018e893          	ori	a7,a7,1
    5d5a:	b19d                	j	59c0 <__divdf3+0x1f8>
    5d5c:	88be                	mv	a7,a5
    5d5e:	fff60ae3          	beq	a2,t6,5d52 <__divdf3+0x58a>
    5d62:	bd99                	j	5bb8 <__divdf3+0x3f0>
    5d64:	8836                	mv	a6,a3
    5d66:	7ff00613          	li	a2,2047
    5d6a:	4781                	li	a5,0
    5d6c:	4701                	li	a4,0
    5d6e:	b625                	j	5896 <__divdf3+0xce>
    5d70:	fcde67e3          	bltu	t3,a3,5d3e <__divdf3+0x576>
    5d74:	88be                	mv	a7,a5
    5d76:	fede10e3          	bne	t3,a3,5d56 <__divdf3+0x58e>
    5d7a:	b199                	j	59c0 <__divdf3+0x1f8>

00005d7c <__eqdf2>:
__eqdf2():
    5d7c:	0145d713          	srli	a4,a1,0x14
    5d80:	001007b7          	lui	a5,0x100
    5d84:	17fd                	addi	a5,a5,-1
    5d86:	0146d813          	srli	a6,a3,0x14
    5d8a:	7ff77713          	andi	a4,a4,2047
    5d8e:	7ff00893          	li	a7,2047
    5d92:	00b7fe33          	and	t3,a5,a1
    5d96:	8eaa                	mv	t4,a0
    5d98:	8ff5                	and	a5,a5,a3
    5d9a:	81fd                	srli	a1,a1,0x1f
    5d9c:	8f32                	mv	t5,a2
    5d9e:	7ff87813          	andi	a6,a6,2047
    5da2:	82fd                	srli	a3,a3,0x1f
    5da4:	01170b63          	beq	a4,a7,5dba <__eqdf2+0x3e>
    5da8:	4305                	li	t1,1
    5daa:	01180663          	beq	a6,a7,5db6 <__eqdf2+0x3a>
    5dae:	01071463          	bne	a4,a6,5db6 <__eqdf2+0x3a>
    5db2:	00fe0d63          	beq	t3,a5,5dcc <__eqdf2+0x50>
    5db6:	851a                	mv	a0,t1
    5db8:	8082                	ret
    5dba:	00ae68b3          	or	a7,t3,a0
    5dbe:	4305                	li	t1,1
    5dc0:	fe089be3          	bnez	a7,5db6 <__eqdf2+0x3a>
    5dc4:	fee819e3          	bne	a6,a4,5db6 <__eqdf2+0x3a>
    5dc8:	8fd1                	or	a5,a5,a2
    5dca:	f7f5                	bnez	a5,5db6 <__eqdf2+0x3a>
    5dcc:	4305                	li	t1,1
    5dce:	ffee94e3          	bne	t4,t5,5db6 <__eqdf2+0x3a>
    5dd2:	4301                	li	t1,0
    5dd4:	fed581e3          	beq	a1,a3,5db6 <__eqdf2+0x3a>
    5dd8:	4305                	li	t1,1
    5dda:	ff71                	bnez	a4,5db6 <__eqdf2+0x3a>
    5ddc:	00ae6533          	or	a0,t3,a0
    5de0:	00a03333          	snez	t1,a0
    5de4:	bfc9                	j	5db6 <__eqdf2+0x3a>

00005de6 <__ledf2>:
__ltdf2():
    5de6:	0145d713          	srli	a4,a1,0x14
    5dea:	001007b7          	lui	a5,0x100
    5dee:	17fd                	addi	a5,a5,-1
    5df0:	0146d813          	srli	a6,a3,0x14
    5df4:	7ff77713          	andi	a4,a4,2047
    5df8:	7ff00893          	li	a7,2047
    5dfc:	00b7fe33          	and	t3,a5,a1
    5e00:	8eaa                	mv	t4,a0
    5e02:	8ff5                	and	a5,a5,a3
    5e04:	81fd                	srli	a1,a1,0x1f
    5e06:	8f32                	mv	t5,a2
    5e08:	7ff87813          	andi	a6,a6,2047
    5e0c:	82fd                	srli	a3,a3,0x1f
    5e0e:	03170e63          	beq	a4,a7,5e4a <__ledf2+0x64>
    5e12:	01180d63          	beq	a6,a7,5e2c <__ledf2+0x46>
    5e16:	e329                	bnez	a4,5e58 <__ledf2+0x72>
    5e18:	00ae68b3          	or	a7,t3,a0
    5e1c:	00081f63          	bnez	a6,5e3a <__ledf2+0x54>
    5e20:	8e5d                	or	a2,a2,a5
    5e22:	ee01                	bnez	a2,5e3a <__ledf2+0x54>
    5e24:	4301                	li	t1,0
    5e26:	04088c63          	beqz	a7,5e7e <__ledf2+0x98>
    5e2a:	a821                	j	5e42 <__ledf2+0x5c>
    5e2c:	00c7e8b3          	or	a7,a5,a2
    5e30:	4309                	li	t1,2
    5e32:	04089663          	bnez	a7,5e7e <__ledf2+0x98>
    5e36:	d36d                	beqz	a4,5e18 <__ledf2+0x32>
    5e38:	a005                	j	5e58 <__ledf2+0x72>
    5e3a:	04088463          	beqz	a7,5e82 <__ledf2+0x9c>
    5e3e:	02d58563          	beq	a1,a3,5e68 <__ledf2+0x82>
    5e42:	4305                	li	t1,1
    5e44:	cd8d                	beqz	a1,5e7e <__ledf2+0x98>
    5e46:	537d                	li	t1,-1
    5e48:	a81d                	j	5e7e <__ledf2+0x98>
    5e4a:	00ae68b3          	or	a7,t3,a0
    5e4e:	4309                	li	t1,2
    5e50:	02089763          	bnez	a7,5e7e <__ledf2+0x98>
    5e54:	02e80a63          	beq	a6,a4,5e88 <__ledf2+0xa2>
    5e58:	00081463          	bnez	a6,5e60 <__ledf2+0x7a>
    5e5c:	8e5d                	or	a2,a2,a5
    5e5e:	d275                	beqz	a2,5e42 <__ledf2+0x5c>
    5e60:	fed591e3          	bne	a1,a3,5e42 <__ledf2+0x5c>
    5e64:	fce84fe3          	blt	a6,a4,5e42 <__ledf2+0x5c>
    5e68:	01074963          	blt	a4,a6,5e7a <__ledf2+0x94>
    5e6c:	fdc7ebe3          	bltu	a5,t3,5e42 <__ledf2+0x5c>
    5e70:	00fe0f63          	beq	t3,a5,5e8e <__ledf2+0xa8>
    5e74:	4301                	li	t1,0
    5e76:	00fe7463          	bgeu	t3,a5,5e7e <__ledf2+0x98>
    5e7a:	d5f1                	beqz	a1,5e46 <__ledf2+0x60>
    5e7c:	4305                	li	t1,1
    5e7e:	851a                	mv	a0,t1
    5e80:	8082                	ret
    5e82:	feed                	bnez	a3,5e7c <__ledf2+0x96>
    5e84:	537d                	li	t1,-1
    5e86:	bfe5                	j	5e7e <__ledf2+0x98>
    5e88:	8e5d                	or	a2,a2,a5
    5e8a:	da79                	beqz	a2,5e60 <__ledf2+0x7a>
    5e8c:	bfcd                	j	5e7e <__ledf2+0x98>
    5e8e:	fbdf6ae3          	bltu	t5,t4,5e42 <__ledf2+0x5c>
    5e92:	4301                	li	t1,0
    5e94:	ffeef5e3          	bgeu	t4,t5,5e7e <__ledf2+0x98>
    5e98:	f1f5                	bnez	a1,5e7c <__ledf2+0x96>
    5e9a:	b775                	j	5e46 <__ledf2+0x60>

00005e9c <__muldf3>:
__muldf3():
    5e9c:	7139                	addi	sp,sp,-64
    5e9e:	d84a                	sw	s2,48(sp)
    5ea0:	0145d913          	srli	s2,a1,0x14
    5ea4:	d64e                	sw	s3,44(sp)
    5ea6:	d452                	sw	s4,40(sp)
    5ea8:	d256                	sw	s5,36(sp)
    5eaa:	00c59993          	slli	s3,a1,0xc
    5eae:	de06                	sw	ra,60(sp)
    5eb0:	dc22                	sw	s0,56(sp)
    5eb2:	da26                	sw	s1,52(sp)
    5eb4:	d05a                	sw	s6,32(sp)
    5eb6:	ce5e                	sw	s7,28(sp)
    5eb8:	7ff97913          	andi	s2,s2,2047
    5ebc:	8a2a                	mv	s4,a0
    5ebe:	00c9d993          	srli	s3,s3,0xc
    5ec2:	01f5da93          	srli	s5,a1,0x1f
    5ec6:	0e090d63          	beqz	s2,5fc0 <__muldf3+0x124>
    5eca:	7ff00793          	li	a5,2047
    5ece:	18f90663          	beq	s2,a5,605a <__muldf3+0x1be>
    5ed2:	01d55413          	srli	s0,a0,0x1d
    5ed6:	098e                	slli	s3,s3,0x3
    5ed8:	013469b3          	or	s3,s0,s3
    5edc:	00800437          	lui	s0,0x800
    5ee0:	0089e433          	or	s0,s3,s0
    5ee4:	00351493          	slli	s1,a0,0x3
    5ee8:	c0190913          	addi	s2,s2,-1023
    5eec:	4981                	li	s3,0
    5eee:	4b81                	li	s7,0
    5ef0:	0146d713          	srli	a4,a3,0x14
    5ef4:	00c69a13          	slli	s4,a3,0xc
    5ef8:	7ff77713          	andi	a4,a4,2047
    5efc:	85b2                	mv	a1,a2
    5efe:	00ca5a13          	srli	s4,s4,0xc
    5f02:	01f6db13          	srli	s6,a3,0x1f
    5f06:	10070b63          	beqz	a4,601c <__muldf3+0x180>
    5f0a:	7ff00793          	li	a5,2047
    5f0e:	04f70363          	beq	a4,a5,5f54 <__muldf3+0xb8>
    5f12:	01d65793          	srli	a5,a2,0x1d
    5f16:	0a0e                	slli	s4,s4,0x3
    5f18:	0147ea33          	or	s4,a5,s4
    5f1c:	c0170713          	addi	a4,a4,-1023
    5f20:	008007b7          	lui	a5,0x800
    5f24:	00fa67b3          	or	a5,s4,a5
    5f28:	00361593          	slli	a1,a2,0x3
    5f2c:	993a                	add	s2,s2,a4
    5f2e:	4881                	li	a7,0
    5f30:	016ac733          	xor	a4,s5,s6
    5f34:	46bd                	li	a3,15
    5f36:	853a                	mv	a0,a4
    5f38:	00190813          	addi	a6,s2,1
    5f3c:	1736e863          	bltu	a3,s3,60ac <__muldf3+0x210>
    5f40:	00004617          	auipc	a2,0x4
    5f44:	07c60613          	addi	a2,a2,124 # 9fbc <lde_replicaCoeff+0x74>
    5f48:	098a                	slli	s3,s3,0x2
    5f4a:	99b2                	add	s3,s3,a2
    5f4c:	0009a683          	lw	a3,0(s3)
    5f50:	96b2                	add	a3,a3,a2
    5f52:	8682                	jr	a3
    5f54:	00ca67b3          	or	a5,s4,a2
    5f58:	7ff90913          	addi	s2,s2,2047
    5f5c:	12079963          	bnez	a5,608e <__muldf3+0x1f2>
    5f60:	0029e993          	ori	s3,s3,2
    5f64:	4581                	li	a1,0
    5f66:	4889                	li	a7,2
    5f68:	b7e1                	j	5f30 <__muldf3+0x94>
    5f6a:	4701                	li	a4,0
    5f6c:	7ff00793          	li	a5,2047
    5f70:	00080437          	lui	s0,0x80
    5f74:	4481                	li	s1,0
    5f76:	0432                	slli	s0,s0,0xc
    5f78:	07d2                	slli	a5,a5,0x14
    5f7a:	8031                	srli	s0,s0,0xc
    5f7c:	077e                	slli	a4,a4,0x1f
    5f7e:	8c5d                	or	s0,s0,a5
    5f80:	8c59                	or	s0,s0,a4
    5f82:	85a2                	mv	a1,s0
    5f84:	50f2                	lw	ra,60(sp)
    5f86:	5462                	lw	s0,56(sp)
    5f88:	8526                	mv	a0,s1
    5f8a:	5942                	lw	s2,48(sp)
    5f8c:	54d2                	lw	s1,52(sp)
    5f8e:	59b2                	lw	s3,44(sp)
    5f90:	5a22                	lw	s4,40(sp)
    5f92:	5a92                	lw	s5,36(sp)
    5f94:	5b02                	lw	s6,32(sp)
    5f96:	4bf2                	lw	s7,28(sp)
    5f98:	6121                	addi	sp,sp,64
    5f9a:	8082                	ret
    5f9c:	855a                	mv	a0,s6
    5f9e:	843e                	mv	s0,a5
    5fa0:	84ae                	mv	s1,a1
    5fa2:	8bc6                	mv	s7,a7
    5fa4:	4789                	li	a5,2
    5fa6:	0efb8d63          	beq	s7,a5,60a0 <__muldf3+0x204>
    5faa:	478d                	li	a5,3
    5fac:	fafb8fe3          	beq	s7,a5,5f6a <__muldf3+0xce>
    5fb0:	4785                	li	a5,1
    5fb2:	872a                	mv	a4,a0
    5fb4:	38fb9e63          	bne	s7,a5,6350 <__muldf3+0x4b4>
    5fb8:	4781                	li	a5,0
    5fba:	4401                	li	s0,0
    5fbc:	4481                	li	s1,0
    5fbe:	bf65                	j	5f76 <__muldf3+0xda>
    5fc0:	00a9e433          	or	s0,s3,a0
    5fc4:	c061                	beqz	s0,6084 <__muldf3+0x1e8>
    5fc6:	c636                	sw	a3,12(sp)
    5fc8:	c432                	sw	a2,8(sp)
    5fca:	2a098c63          	beqz	s3,6282 <__muldf3+0x3e6>
    5fce:	854e                	mv	a0,s3
    5fd0:	397000ef          	jal	ra,6b66 <__clzsi2>
    5fd4:	4622                	lw	a2,8(sp)
    5fd6:	46b2                	lw	a3,12(sp)
    5fd8:	87aa                	mv	a5,a0
    5fda:	ff550713          	addi	a4,a0,-11
    5fde:	4475                	li	s0,29
    5fe0:	ff878493          	addi	s1,a5,-8 # 7ffff8 <_data_lma+0x7f5bd4>
    5fe4:	8c19                	sub	s0,s0,a4
    5fe6:	009999b3          	sll	s3,s3,s1
    5fea:	008a5433          	srl	s0,s4,s0
    5fee:	01346433          	or	s0,s0,s3
    5ff2:	009a14b3          	sll	s1,s4,s1
    5ff6:	0146d713          	srli	a4,a3,0x14
    5ffa:	c0d00913          	li	s2,-1011
    5ffe:	00c69a13          	slli	s4,a3,0xc
    6002:	7ff77713          	andi	a4,a4,2047
    6006:	40f90933          	sub	s2,s2,a5
    600a:	4981                	li	s3,0
    600c:	4b81                	li	s7,0
    600e:	85b2                	mv	a1,a2
    6010:	00ca5a13          	srli	s4,s4,0xc
    6014:	01f6db13          	srli	s6,a3,0x1f
    6018:	ee0719e3          	bnez	a4,5f0a <__muldf3+0x6e>
    601c:	00ca67b3          	or	a5,s4,a2
    6020:	c7b1                	beqz	a5,606c <__muldf3+0x1d0>
    6022:	220a0f63          	beqz	s4,6260 <__muldf3+0x3c4>
    6026:	8552                	mv	a0,s4
    6028:	c432                	sw	a2,8(sp)
    602a:	33d000ef          	jal	ra,6b66 <__clzsi2>
    602e:	4622                	lw	a2,8(sp)
    6030:	872a                	mv	a4,a0
    6032:	ff550693          	addi	a3,a0,-11
    6036:	47f5                	li	a5,29
    6038:	ff870593          	addi	a1,a4,-8
    603c:	8f95                	sub	a5,a5,a3
    603e:	00ba1a33          	sll	s4,s4,a1
    6042:	00f657b3          	srl	a5,a2,a5
    6046:	0147e7b3          	or	a5,a5,s4
    604a:	00b615b3          	sll	a1,a2,a1
    604e:	40e90933          	sub	s2,s2,a4
    6052:	c0d90913          	addi	s2,s2,-1011
    6056:	4881                	li	a7,0
    6058:	bde1                	j	5f30 <__muldf3+0x94>
    605a:	00a9e433          	or	s0,s3,a0
    605e:	ec01                	bnez	s0,6076 <__muldf3+0x1da>
    6060:	49a1                	li	s3,8
    6062:	4481                	li	s1,0
    6064:	7ff00913          	li	s2,2047
    6068:	4b89                	li	s7,2
    606a:	b559                	j	5ef0 <__muldf3+0x54>
    606c:	0019e993          	ori	s3,s3,1
    6070:	4581                	li	a1,0
    6072:	4885                	li	a7,1
    6074:	bd75                	j	5f30 <__muldf3+0x94>
    6076:	844e                	mv	s0,s3
    6078:	84aa                	mv	s1,a0
    607a:	49b1                	li	s3,12
    607c:	7ff00913          	li	s2,2047
    6080:	4b8d                	li	s7,3
    6082:	b5bd                	j	5ef0 <__muldf3+0x54>
    6084:	4991                	li	s3,4
    6086:	4481                	li	s1,0
    6088:	4901                	li	s2,0
    608a:	4b85                	li	s7,1
    608c:	b595                	j	5ef0 <__muldf3+0x54>
    608e:	0039e993          	ori	s3,s3,3
    6092:	87d2                	mv	a5,s4
    6094:	488d                	li	a7,3
    6096:	bd69                	j	5f30 <__muldf3+0x94>
    6098:	4789                	li	a5,2
    609a:	8556                	mv	a0,s5
    609c:	f0fb97e3          	bne	s7,a5,5faa <__muldf3+0x10e>
    60a0:	872a                	mv	a4,a0
    60a2:	7ff00793          	li	a5,2047
    60a6:	4401                	li	s0,0
    60a8:	4481                	li	s1,0
    60aa:	b5f1                	j	5f76 <__muldf3+0xda>
    60ac:	6ec1                	lui	t4,0x10
    60ae:	fffe8613          	addi	a2,t4,-1 # ffff <_data_lma+0x5bdb>
    60b2:	0104d693          	srli	a3,s1,0x10
    60b6:	0105de13          	srli	t3,a1,0x10
    60ba:	8cf1                	and	s1,s1,a2
    60bc:	8df1                	and	a1,a1,a2
    60be:	02958633          	mul	a2,a1,s1
    60c2:	02b68333          	mul	t1,a3,a1
    60c6:	01065893          	srli	a7,a2,0x10
    60ca:	029e0533          	mul	a0,t3,s1
    60ce:	951a                	add	a0,a0,t1
    60d0:	98aa                	add	a7,a7,a0
    60d2:	03c682b3          	mul	t0,a3,t3
    60d6:	0068f363          	bgeu	a7,t1,60dc <__muldf3+0x240>
    60da:	92f6                	add	t0,t0,t4
    60dc:	6fc1                	lui	t6,0x10
    60de:	ffff8313          	addi	t1,t6,-1 # ffff <_data_lma+0x5bdb>
    60e2:	0067f533          	and	a0,a5,t1
    60e6:	0107d393          	srli	t2,a5,0x10
    60ea:	0068f7b3          	and	a5,a7,t1
    60ee:	07c2                	slli	a5,a5,0x10
    60f0:	00667333          	and	t1,a2,t1
    60f4:	933e                	add	t1,t1,a5
    60f6:	02950633          	mul	a2,a0,s1
    60fa:	0108d893          	srli	a7,a7,0x10
    60fe:	02a687b3          	mul	a5,a3,a0
    6102:	01065f13          	srli	t5,a2,0x10
    6106:	029384b3          	mul	s1,t2,s1
    610a:	94be                	add	s1,s1,a5
    610c:	94fa                	add	s1,s1,t5
    610e:	02768eb3          	mul	t4,a3,t2
    6112:	00f4f363          	bgeu	s1,a5,6118 <__muldf3+0x27c>
    6116:	9efe                	add	t4,t4,t6
    6118:	6a41                	lui	s4,0x10
    611a:	fffa0793          	addi	a5,s4,-1 # ffff <_data_lma+0x5bdb>
    611e:	01045f93          	srli	t6,s0,0x10
    6122:	00f476b3          	and	a3,s0,a5
    6126:	00f4f9b3          	and	s3,s1,a5
    612a:	8e7d                	and	a2,a2,a5
    612c:	80c1                	srli	s1,s1,0x10
    612e:	02d58433          	mul	s0,a1,a3
    6132:	09c2                	slli	s3,s3,0x10
    6134:	01d48f33          	add	t5,s1,t4
    6138:	99b2                	add	s3,s3,a2
    613a:	98ce                	add	a7,a7,s3
    613c:	02de07b3          	mul	a5,t3,a3
    6140:	01045e93          	srli	t4,s0,0x10
    6144:	02bf85b3          	mul	a1,t6,a1
    6148:	97ae                	add	a5,a5,a1
    614a:	9ebe                	add	t4,t4,a5
    614c:	03fe0e33          	mul	t3,t3,t6
    6150:	00bef363          	bgeu	t4,a1,6156 <__muldf3+0x2ba>
    6154:	9e52                	add	t3,t3,s4
    6156:	67c1                	lui	a5,0x10
    6158:	fff78593          	addi	a1,a5,-1 # ffff <_data_lma+0x5bdb>
    615c:	00bef633          	and	a2,t4,a1
    6160:	8c6d                	and	s0,s0,a1
    6162:	0642                	slli	a2,a2,0x10
    6164:	9622                	add	a2,a2,s0
    6166:	010ede93          	srli	t4,t4,0x10
    616a:	02d505b3          	mul	a1,a0,a3
    616e:	9e76                	add	t3,t3,t4
    6170:	02af8533          	mul	a0,t6,a0
    6174:	0105d413          	srli	s0,a1,0x10
    6178:	02d386b3          	mul	a3,t2,a3
    617c:	96aa                	add	a3,a3,a0
    617e:	96a2                	add	a3,a3,s0
    6180:	03f38fb3          	mul	t6,t2,t6
    6184:	00a6f363          	bgeu	a3,a0,618a <__muldf3+0x2ee>
    6188:	9fbe                	add	t6,t6,a5
    618a:	6541                	lui	a0,0x10
    618c:	157d                	addi	a0,a0,-1
    618e:	00a6f7b3          	and	a5,a3,a0
    6192:	07c2                	slli	a5,a5,0x10
    6194:	8d6d                	and	a0,a0,a1
    6196:	97aa                	add	a5,a5,a0
    6198:	005885b3          	add	a1,a7,t0
    619c:	0135b9b3          	sltu	s3,a1,s3
    61a0:	97fa                	add	a5,a5,t5
    61a2:	95b2                	add	a1,a1,a2
    61a4:	01378433          	add	s0,a5,s3
    61a8:	00c5b633          	sltu	a2,a1,a2
    61ac:	01c40eb3          	add	t4,s0,t3
    61b0:	00ce8533          	add	a0,t4,a2
    61b4:	01343433          	sltu	s0,s0,s3
    61b8:	01e7b7b3          	sltu	a5,a5,t5
    61bc:	8fc1                	or	a5,a5,s0
    61be:	01cebe33          	sltu	t3,t4,t3
    61c2:	0106d413          	srli	s0,a3,0x10
    61c6:	00c53633          	sltu	a2,a0,a2
    61ca:	943e                	add	s0,s0,a5
    61cc:	00ce6633          	or	a2,t3,a2
    61d0:	00959493          	slli	s1,a1,0x9
    61d4:	9432                	add	s0,s0,a2
    61d6:	947e                	add	s0,s0,t6
    61d8:	0064e4b3          	or	s1,s1,t1
    61dc:	0426                	slli	s0,s0,0x9
    61de:	01755693          	srli	a3,a0,0x17
    61e2:	009034b3          	snez	s1,s1
    61e6:	81dd                	srli	a1,a1,0x17
    61e8:	00951793          	slli	a5,a0,0x9
    61ec:	8ccd                	or	s1,s1,a1
    61ee:	8c55                	or	s0,s0,a3
    61f0:	8cdd                	or	s1,s1,a5
    61f2:	00741793          	slli	a5,s0,0x7
    61f6:	0007db63          	bgez	a5,620c <__muldf3+0x370>
    61fa:	0014d793          	srli	a5,s1,0x1
    61fe:	8885                	andi	s1,s1,1
    6200:	01f41693          	slli	a3,s0,0x1f
    6204:	8cdd                	or	s1,s1,a5
    6206:	8cd5                	or	s1,s1,a3
    6208:	8005                	srli	s0,s0,0x1
    620a:	8942                	mv	s2,a6
    620c:	3ff90793          	addi	a5,s2,1023
    6210:	08f05963          	blez	a5,62a2 <__muldf3+0x406>
    6214:	0074f693          	andi	a3,s1,7
    6218:	ce81                	beqz	a3,6230 <__muldf3+0x394>
    621a:	00f4f693          	andi	a3,s1,15
    621e:	4611                	li	a2,4
    6220:	00c68863          	beq	a3,a2,6230 <__muldf3+0x394>
    6224:	00448693          	addi	a3,s1,4
    6228:	0096b4b3          	sltu	s1,a3,s1
    622c:	9426                	add	s0,s0,s1
    622e:	84b6                	mv	s1,a3
    6230:	00741693          	slli	a3,s0,0x7
    6234:	0006d863          	bgez	a3,6244 <__muldf3+0x3a8>
    6238:	ff0007b7          	lui	a5,0xff000
    623c:	17fd                	addi	a5,a5,-1
    623e:	8c7d                	and	s0,s0,a5
    6240:	40090793          	addi	a5,s2,1024
    6244:	7fe00693          	li	a3,2046
    6248:	0ef6cf63          	blt	a3,a5,6346 <__muldf3+0x4aa>
    624c:	0034d693          	srli	a3,s1,0x3
    6250:	01d41493          	slli	s1,s0,0x1d
    6254:	0426                	slli	s0,s0,0x9
    6256:	8cd5                	or	s1,s1,a3
    6258:	8031                	srli	s0,s0,0xc
    625a:	7ff7f793          	andi	a5,a5,2047
    625e:	bb21                	j	5f76 <__muldf3+0xda>
    6260:	8532                	mv	a0,a2
    6262:	c432                	sw	a2,8(sp)
    6264:	103000ef          	jal	ra,6b66 <__clzsi2>
    6268:	01550693          	addi	a3,a0,21 # 10015 <_data_lma+0x5bf1>
    626c:	47f1                	li	a5,28
    626e:	02050713          	addi	a4,a0,32
    6272:	4622                	lw	a2,8(sp)
    6274:	dcd7d1e3          	bge	a5,a3,6036 <__muldf3+0x19a>
    6278:	1561                	addi	a0,a0,-8
    627a:	00a617b3          	sll	a5,a2,a0
    627e:	4581                	li	a1,0
    6280:	b3f9                	j	604e <__muldf3+0x1b2>
    6282:	0e5000ef          	jal	ra,6b66 <__clzsi2>
    6286:	01550713          	addi	a4,a0,21
    628a:	45f1                	li	a1,28
    628c:	02050793          	addi	a5,a0,32
    6290:	4622                	lw	a2,8(sp)
    6292:	46b2                	lw	a3,12(sp)
    6294:	d4e5d5e3          	bge	a1,a4,5fde <__muldf3+0x142>
    6298:	1561                	addi	a0,a0,-8
    629a:	00aa1433          	sll	s0,s4,a0
    629e:	4481                	li	s1,0
    62a0:	bb99                	j	5ff6 <__muldf3+0x15a>
    62a2:	4685                	li	a3,1
    62a4:	8e9d                	sub	a3,a3,a5
    62a6:	e7b1                	bnez	a5,62f2 <__muldf3+0x456>
    62a8:	41e90913          	addi	s2,s2,1054
    62ac:	012497b3          	sll	a5,s1,s2
    62b0:	00d4d4b3          	srl	s1,s1,a3
    62b4:	01241933          	sll	s2,s0,s2
    62b8:	00f037b3          	snez	a5,a5
    62bc:	009964b3          	or	s1,s2,s1
    62c0:	8cdd                	or	s1,s1,a5
    62c2:	0074f793          	andi	a5,s1,7
    62c6:	00d456b3          	srl	a3,s0,a3
    62ca:	cf81                	beqz	a5,62e2 <__muldf3+0x446>
    62cc:	00f4f793          	andi	a5,s1,15
    62d0:	4611                	li	a2,4
    62d2:	00c78863          	beq	a5,a2,62e2 <__muldf3+0x446>
    62d6:	00448793          	addi	a5,s1,4
    62da:	0097b4b3          	sltu	s1,a5,s1
    62de:	96a6                	add	a3,a3,s1
    62e0:	84be                	mv	s1,a5
    62e2:	00869793          	slli	a5,a3,0x8
    62e6:	0407d863          	bgez	a5,6336 <__muldf3+0x49a>
    62ea:	4785                	li	a5,1
    62ec:	4401                	li	s0,0
    62ee:	4481                	li	s1,0
    62f0:	b159                	j	5f76 <__muldf3+0xda>
    62f2:	03800613          	li	a2,56
    62f6:	ccd641e3          	blt	a2,a3,5fb8 <__muldf3+0x11c>
    62fa:	467d                	li	a2,31
    62fc:	fad656e3          	bge	a2,a3,62a8 <__muldf3+0x40c>
    6300:	5605                	li	a2,-31
    6302:	40f607b3          	sub	a5,a2,a5
    6306:	02000593          	li	a1,32
    630a:	00f45633          	srl	a2,s0,a5
    630e:	00b68763          	beq	a3,a1,631c <__muldf3+0x480>
    6312:	43e90913          	addi	s2,s2,1086
    6316:	012417b3          	sll	a5,s0,s2
    631a:	8cdd                	or	s1,s1,a5
    631c:	009034b3          	snez	s1,s1
    6320:	8cd1                	or	s1,s1,a2
    6322:	0074f693          	andi	a3,s1,7
    6326:	4401                	li	s0,0
    6328:	ca99                	beqz	a3,633e <__muldf3+0x4a2>
    632a:	00f4f793          	andi	a5,s1,15
    632e:	4611                	li	a2,4
    6330:	4681                	li	a3,0
    6332:	fac792e3          	bne	a5,a2,62d6 <__muldf3+0x43a>
    6336:	00969413          	slli	s0,a3,0x9
    633a:	8031                	srli	s0,s0,0xc
    633c:	06f6                	slli	a3,a3,0x1d
    633e:	808d                	srli	s1,s1,0x3
    6340:	8cd5                	or	s1,s1,a3
    6342:	4781                	li	a5,0
    6344:	b90d                	j	5f76 <__muldf3+0xda>
    6346:	7ff00793          	li	a5,2047
    634a:	4401                	li	s0,0
    634c:	4481                	li	s1,0
    634e:	b125                	j	5f76 <__muldf3+0xda>
    6350:	8942                	mv	s2,a6
    6352:	bd6d                	j	620c <__muldf3+0x370>

00006354 <__subdf3>:
__subdf3():
    6354:	00100737          	lui	a4,0x100
    6358:	177d                	addi	a4,a4,-1
    635a:	1101                	addi	sp,sp,-32
    635c:	00b77333          	and	t1,a4,a1
    6360:	0146d893          	srli	a7,a3,0x14
    6364:	8f75                	and	a4,a4,a3
    6366:	01d65e93          	srli	t4,a2,0x1d
    636a:	cc22                	sw	s0,24(sp)
    636c:	ca26                	sw	s1,20(sp)
    636e:	030e                	slli	t1,t1,0x3
    6370:	0145d493          	srli	s1,a1,0x14
    6374:	01d55793          	srli	a5,a0,0x1d
    6378:	070e                	slli	a4,a4,0x3
    637a:	ce06                	sw	ra,28(sp)
    637c:	c84a                	sw	s2,16(sp)
    637e:	c64e                	sw	s3,12(sp)
    6380:	7ff8f893          	andi	a7,a7,2047
    6384:	7ff00e13          	li	t3,2047
    6388:	00eee733          	or	a4,t4,a4
    638c:	7ff4f493          	andi	s1,s1,2047
    6390:	01f5d413          	srli	s0,a1,0x1f
    6394:	0067e333          	or	t1,a5,t1
    6398:	00351f13          	slli	t5,a0,0x3
    639c:	82fd                	srli	a3,a3,0x1f
    639e:	00361e93          	slli	t4,a2,0x3
    63a2:	17c88f63          	beq	a7,t3,6520 <__subdf3+0x1cc>
    63a6:	0016c693          	xori	a3,a3,1
    63aa:	411485b3          	sub	a1,s1,a7
    63ae:	12d40463          	beq	s0,a3,64d6 <__subdf3+0x182>
    63b2:	18b05063          	blez	a1,6532 <__subdf3+0x1de>
    63b6:	1a088a63          	beqz	a7,656a <__subdf3+0x216>
    63ba:	008007b7          	lui	a5,0x800
    63be:	8f5d                	or	a4,a4,a5
    63c0:	57c48f63          	beq	s1,t3,693e <__subdf3+0x5ea>
    63c4:	03800793          	li	a5,56
    63c8:	34b7c263          	blt	a5,a1,670c <__subdf3+0x3b8>
    63cc:	47fd                	li	a5,31
    63ce:	48b7c363          	blt	a5,a1,6854 <__subdf3+0x500>
    63d2:	02000793          	li	a5,32
    63d6:	8f8d                	sub	a5,a5,a1
    63d8:	00bed9b3          	srl	s3,t4,a1
    63dc:	00f71833          	sll	a6,a4,a5
    63e0:	00fe9eb3          	sll	t4,t4,a5
    63e4:	01386833          	or	a6,a6,s3
    63e8:	00b75733          	srl	a4,a4,a1
    63ec:	01d039b3          	snez	s3,t4
    63f0:	01386833          	or	a6,a6,s3
    63f4:	40e30333          	sub	t1,t1,a4
    63f8:	410f09b3          	sub	s3,t5,a6
    63fc:	013f37b3          	sltu	a5,t5,s3
    6400:	40f30633          	sub	a2,t1,a5
    6404:	00861793          	slli	a5,a2,0x8
    6408:	2407d263          	bgez	a5,664c <__subdf3+0x2f8>
    640c:	00800937          	lui	s2,0x800
    6410:	197d                	addi	s2,s2,-1
    6412:	01267933          	and	s2,a2,s2
    6416:	2c090e63          	beqz	s2,66f2 <__subdf3+0x39e>
    641a:	854a                	mv	a0,s2
    641c:	27a9                	jal	6b66 <__clzsi2>
    641e:	ff850713          	addi	a4,a0,-8
    6422:	02000793          	li	a5,32
    6426:	8f99                	sub	a5,a5,a4
    6428:	00f9d7b3          	srl	a5,s3,a5
    642c:	00e91633          	sll	a2,s2,a4
    6430:	8fd1                	or	a5,a5,a2
    6432:	00e999b3          	sll	s3,s3,a4
    6436:	2a974463          	blt	a4,s1,66de <__subdf3+0x38a>
    643a:	8f05                	sub	a4,a4,s1
    643c:	00170613          	addi	a2,a4,1 # 100001 <_data_lma+0xf5bdd>
    6440:	46fd                	li	a3,31
    6442:	3ac6c463          	blt	a3,a2,67ea <__subdf3+0x496>
    6446:	02000713          	li	a4,32
    644a:	8f11                	sub	a4,a4,a2
    644c:	00c9d6b3          	srl	a3,s3,a2
    6450:	00e99833          	sll	a6,s3,a4
    6454:	00e79733          	sll	a4,a5,a4
    6458:	8f55                	or	a4,a4,a3
    645a:	01003833          	snez	a6,a6
    645e:	010769b3          	or	s3,a4,a6
    6462:	00c7d633          	srl	a2,a5,a2
    6466:	4481                	li	s1,0
    6468:	0079f793          	andi	a5,s3,7
    646c:	cf81                	beqz	a5,6484 <__subdf3+0x130>
    646e:	00f9f693          	andi	a3,s3,15
    6472:	4791                	li	a5,4
    6474:	00f68863          	beq	a3,a5,6484 <__subdf3+0x130>
    6478:	00498693          	addi	a3,s3,4
    647c:	0136b833          	sltu	a6,a3,s3
    6480:	9642                	add	a2,a2,a6
    6482:	89b6                	mv	s3,a3
    6484:	00861793          	slli	a5,a2,0x8
    6488:	1c07d663          	bgez	a5,6654 <__subdf3+0x300>
    648c:	00148713          	addi	a4,s1,1
    6490:	7ff00793          	li	a5,2047
    6494:	8805                	andi	s0,s0,1
    6496:	20f70663          	beq	a4,a5,66a2 <__subdf3+0x34e>
    649a:	ff8007b7          	lui	a5,0xff800
    649e:	17fd                	addi	a5,a5,-1
    64a0:	8ff1                	and	a5,a5,a2
    64a2:	01d79813          	slli	a6,a5,0x1d
    64a6:	0039d993          	srli	s3,s3,0x3
    64aa:	07a6                	slli	a5,a5,0x9
    64ac:	01386833          	or	a6,a6,s3
    64b0:	83b1                	srli	a5,a5,0xc
    64b2:	7ff77713          	andi	a4,a4,2047
    64b6:	00c79693          	slli	a3,a5,0xc
    64ba:	0752                	slli	a4,a4,0x14
    64bc:	82b1                	srli	a3,a3,0xc
    64be:	047e                	slli	s0,s0,0x1f
    64c0:	8ed9                	or	a3,a3,a4
    64c2:	8ec1                	or	a3,a3,s0
    64c4:	40f2                	lw	ra,28(sp)
    64c6:	4462                	lw	s0,24(sp)
    64c8:	44d2                	lw	s1,20(sp)
    64ca:	4942                	lw	s2,16(sp)
    64cc:	49b2                	lw	s3,12(sp)
    64ce:	8542                	mv	a0,a6
    64d0:	85b6                	mv	a1,a3
    64d2:	6105                	addi	sp,sp,32
    64d4:	8082                	ret
    64d6:	0ab05663          	blez	a1,6582 <__subdf3+0x22e>
    64da:	12088a63          	beqz	a7,660e <__subdf3+0x2ba>
    64de:	008007b7          	lui	a5,0x800
    64e2:	8f5d                	or	a4,a4,a5
    64e4:	2dc48663          	beq	s1,t3,67b0 <__subdf3+0x45c>
    64e8:	03800793          	li	a5,56
    64ec:	18b7c763          	blt	a5,a1,667a <__subdf3+0x326>
    64f0:	47fd                	li	a5,31
    64f2:	3cb7d163          	bge	a5,a1,68b4 <__subdf3+0x560>
    64f6:	fe058813          	addi	a6,a1,-32 # ffe0 <_data_lma+0x5bbc>
    64fa:	02000793          	li	a5,32
    64fe:	010759b3          	srl	s3,a4,a6
    6502:	00f58a63          	beq	a1,a5,6516 <__subdf3+0x1c2>
    6506:	04000793          	li	a5,64
    650a:	40b785b3          	sub	a1,a5,a1
    650e:	00b71733          	sll	a4,a4,a1
    6512:	00eeeeb3          	or	t4,t4,a4
    6516:	01d03833          	snez	a6,t4
    651a:	01386833          	or	a6,a6,s3
    651e:	a295                	j	6682 <__subdf3+0x32e>
    6520:	01d767b3          	or	a5,a4,t4
    6524:	80148593          	addi	a1,s1,-2047
    6528:	e399                	bnez	a5,652e <__subdf3+0x1da>
    652a:	0016c693          	xori	a3,a3,1
    652e:	04d40a63          	beq	s0,a3,6582 <__subdf3+0x22e>
    6532:	e1d1                	bnez	a1,65b6 <__subdf3+0x262>
    6534:	00148793          	addi	a5,s1,1
    6538:	7fe7f793          	andi	a5,a5,2046
    653c:	1e079863          	bnez	a5,672c <__subdf3+0x3d8>
    6540:	01e367b3          	or	a5,t1,t5
    6544:	01d76833          	or	a6,a4,t4
    6548:	16049263          	bnez	s1,66ac <__subdf3+0x358>
    654c:	3c078163          	beqz	a5,690e <__subdf3+0x5ba>
    6550:	42081563          	bnez	a6,697a <__subdf3+0x626>
    6554:	00351813          	slli	a6,a0,0x3
    6558:	01d31693          	slli	a3,t1,0x1d
    655c:	00385813          	srli	a6,a6,0x3
    6560:	0106e833          	or	a6,a3,a6
    6564:	00335793          	srli	a5,t1,0x3
    6568:	a219                	j	666e <__subdf3+0x31a>
    656a:	01d767b3          	or	a5,a4,t4
    656e:	1a078463          	beqz	a5,6716 <__subdf3+0x3c2>
    6572:	fff58793          	addi	a5,a1,-1
    6576:	3a078a63          	beqz	a5,692a <__subdf3+0x5d6>
    657a:	23c58b63          	beq	a1,t3,67b0 <__subdf3+0x45c>
    657e:	85be                	mv	a1,a5
    6580:	b591                	j	63c4 <__subdf3+0x70>
    6582:	1c059863          	bnez	a1,6752 <__subdf3+0x3fe>
    6586:	00148693          	addi	a3,s1,1
    658a:	7fe6f793          	andi	a5,a3,2046
    658e:	efc1                	bnez	a5,6626 <__subdf3+0x2d2>
    6590:	01e367b3          	or	a5,t1,t5
    6594:	34049f63          	bnez	s1,68f2 <__subdf3+0x59e>
    6598:	44078c63          	beqz	a5,69f0 <__subdf3+0x69c>
    659c:	01d767b3          	or	a5,a4,t4
    65a0:	46079363          	bnez	a5,6a06 <__subdf3+0x6b2>
    65a4:	050e                	slli	a0,a0,0x3
    65a6:	01d31813          	slli	a6,t1,0x1d
    65aa:	810d                	srli	a0,a0,0x3
    65ac:	00a86833          	or	a6,a6,a0
    65b0:	00335793          	srli	a5,t1,0x3
    65b4:	a86d                	j	666e <__subdf3+0x31a>
    65b6:	409885b3          	sub	a1,a7,s1
    65ba:	20049663          	bnez	s1,67c6 <__subdf3+0x472>
    65be:	01e367b3          	or	a5,t1,t5
    65c2:	30078c63          	beqz	a5,68da <__subdf3+0x586>
    65c6:	fff58793          	addi	a5,a1,-1
    65ca:	40078863          	beqz	a5,69da <__subdf3+0x686>
    65ce:	7ff00513          	li	a0,2047
    65d2:	20a58263          	beq	a1,a0,67d6 <__subdf3+0x482>
    65d6:	85be                	mv	a1,a5
    65d8:	03800793          	li	a5,56
    65dc:	2ab7c163          	blt	a5,a1,687e <__subdf3+0x52a>
    65e0:	47fd                	li	a5,31
    65e2:	3cb7c763          	blt	a5,a1,69b0 <__subdf3+0x65c>
    65e6:	02000793          	li	a5,32
    65ea:	8f8d                	sub	a5,a5,a1
    65ec:	00f31833          	sll	a6,t1,a5
    65f0:	00bf5633          	srl	a2,t5,a1
    65f4:	00ff17b3          	sll	a5,t5,a5
    65f8:	00c86833          	or	a6,a6,a2
    65fc:	00f039b3          	snez	s3,a5
    6600:	00b35333          	srl	t1,t1,a1
    6604:	01386833          	or	a6,a6,s3
    6608:	40670733          	sub	a4,a4,t1
    660c:	acad                	j	6886 <__subdf3+0x532>
    660e:	01d767b3          	or	a5,a4,t4
    6612:	10078263          	beqz	a5,6716 <__subdf3+0x3c2>
    6616:	fff58793          	addi	a5,a1,-1
    661a:	1e078e63          	beqz	a5,6816 <__subdf3+0x4c2>
    661e:	2dc58f63          	beq	a1,t3,68fc <__subdf3+0x5a8>
    6622:	85be                	mv	a1,a5
    6624:	b5d1                	j	64e8 <__subdf3+0x194>
    6626:	7ff00793          	li	a5,2047
    662a:	06f68b63          	beq	a3,a5,66a0 <__subdf3+0x34c>
    662e:	9efa                	add	t4,t4,t5
    6630:	01eeb633          	sltu	a2,t4,t5
    6634:	00e307b3          	add	a5,t1,a4
    6638:	97b2                	add	a5,a5,a2
    663a:	01f79813          	slli	a6,a5,0x1f
    663e:	001ede93          	srli	t4,t4,0x1
    6642:	01d869b3          	or	s3,a6,t4
    6646:	0017d613          	srli	a2,a5,0x1
    664a:	84b6                	mv	s1,a3
    664c:	0079f793          	andi	a5,s3,7
    6650:	e0079fe3          	bnez	a5,646e <__subdf3+0x11a>
    6654:	01d61793          	slli	a5,a2,0x1d
    6658:	0039d813          	srli	a6,s3,0x3
    665c:	00f86833          	or	a6,a6,a5
    6660:	85a6                	mv	a1,s1
    6662:	00365793          	srli	a5,a2,0x3
    6666:	7ff00713          	li	a4,2047
    666a:	06e58063          	beq	a1,a4,66ca <__subdf3+0x376>
    666e:	07b2                	slli	a5,a5,0xc
    6670:	83b1                	srli	a5,a5,0xc
    6672:	7ff5f713          	andi	a4,a1,2047
    6676:	8805                	andi	s0,s0,1
    6678:	bd3d                	j	64b6 <__subdf3+0x162>
    667a:	01d76733          	or	a4,a4,t4
    667e:	00e03833          	snez	a6,a4
    6682:	01e809b3          	add	s3,a6,t5
    6686:	01e9b7b3          	sltu	a5,s3,t5
    668a:	00678633          	add	a2,a5,t1
    668e:	00861793          	slli	a5,a2,0x8
    6692:	fa07dde3          	bgez	a5,664c <__subdf3+0x2f8>
    6696:	0485                	addi	s1,s1,1
    6698:	7ff00793          	li	a5,2047
    669c:	18f49b63          	bne	s1,a5,6832 <__subdf3+0x4de>
    66a0:	8805                	andi	s0,s0,1
    66a2:	7ff00713          	li	a4,2047
    66a6:	4781                	li	a5,0
    66a8:	4801                	li	a6,0
    66aa:	b531                	j	64b6 <__subdf3+0x162>
    66ac:	10079063          	bnez	a5,67ac <__subdf3+0x458>
    66b0:	3c080063          	beqz	a6,6a70 <__subdf3+0x71c>
    66b4:	00361813          	slli	a6,a2,0x3
    66b8:	01d71793          	slli	a5,a4,0x1d
    66bc:	00385813          	srli	a6,a6,0x3
    66c0:	00f86833          	or	a6,a6,a5
    66c4:	8436                	mv	s0,a3
    66c6:	00375793          	srli	a5,a4,0x3
    66ca:	00f867b3          	or	a5,a6,a5
    66ce:	dbe9                	beqz	a5,66a0 <__subdf3+0x34c>
    66d0:	4401                	li	s0,0
    66d2:	7ff00713          	li	a4,2047
    66d6:	000807b7          	lui	a5,0x80
    66da:	4801                	li	a6,0
    66dc:	bbe9                	j	64b6 <__subdf3+0x162>
    66de:	ff800637          	lui	a2,0xff800
    66e2:	167d                	addi	a2,a2,-1
    66e4:	8e7d                	and	a2,a2,a5
    66e6:	0079f793          	andi	a5,s3,7
    66ea:	8c99                	sub	s1,s1,a4
    66ec:	d80791e3          	bnez	a5,646e <__subdf3+0x11a>
    66f0:	b795                	j	6654 <__subdf3+0x300>
    66f2:	854e                	mv	a0,s3
    66f4:	298d                	jal	6b66 <__clzsi2>
    66f6:	01850713          	addi	a4,a0,24
    66fa:	47fd                	li	a5,31
    66fc:	d2e7d3e3          	bge	a5,a4,6422 <__subdf3+0xce>
    6700:	ff850613          	addi	a2,a0,-8
    6704:	00c997b3          	sll	a5,s3,a2
    6708:	4981                	li	s3,0
    670a:	b335                	j	6436 <__subdf3+0xe2>
    670c:	01d76833          	or	a6,a4,t4
    6710:	01003833          	snez	a6,a6
    6714:	b1d5                	j	63f8 <__subdf3+0xa4>
    6716:	00351813          	slli	a6,a0,0x3
    671a:	01d31793          	slli	a5,t1,0x1d
    671e:	00385813          	srli	a6,a6,0x3
    6722:	00f86833          	or	a6,a6,a5
    6726:	00335793          	srli	a5,t1,0x3
    672a:	bf35                	j	6666 <__subdf3+0x312>
    672c:	41df09b3          	sub	s3,t5,t4
    6730:	40e30933          	sub	s2,t1,a4
    6734:	013f3633          	sltu	a2,t5,s3
    6738:	40c90933          	sub	s2,s2,a2
    673c:	00891793          	slli	a5,s2,0x8
    6740:	2007ca63          	bltz	a5,6954 <__subdf3+0x600>
    6744:	0129e833          	or	a6,s3,s2
    6748:	cc0817e3          	bnez	a6,6416 <__subdf3+0xc2>
    674c:	4781                	li	a5,0
    674e:	4401                	li	s0,0
    6750:	bf39                	j	666e <__subdf3+0x31a>
    6752:	409885b3          	sub	a1,a7,s1
    6756:	14048163          	beqz	s1,6898 <__subdf3+0x544>
    675a:	008006b7          	lui	a3,0x800
    675e:	7ff00793          	li	a5,2047
    6762:	00d36333          	or	t1,t1,a3
    6766:	20f88163          	beq	a7,a5,6968 <__subdf3+0x614>
    676a:	03800793          	li	a5,56
    676e:	22b7cc63          	blt	a5,a1,69a6 <__subdf3+0x652>
    6772:	47fd                	li	a5,31
    6774:	2cb7c963          	blt	a5,a1,6a46 <__subdf3+0x6f2>
    6778:	02000793          	li	a5,32
    677c:	8f8d                	sub	a5,a5,a1
    677e:	00f31833          	sll	a6,t1,a5
    6782:	00bf56b3          	srl	a3,t5,a1
    6786:	00ff17b3          	sll	a5,t5,a5
    678a:	00d86833          	or	a6,a6,a3
    678e:	00f039b3          	snez	s3,a5
    6792:	00b35333          	srl	t1,t1,a1
    6796:	01386833          	or	a6,a6,s3
    679a:	971a                	add	a4,a4,t1
    679c:	01d809b3          	add	s3,a6,t4
    67a0:	01d9b7b3          	sltu	a5,s3,t4
    67a4:	00e78633          	add	a2,a5,a4
    67a8:	84c6                	mv	s1,a7
    67aa:	b5d5                	j	668e <__subdf3+0x33a>
    67ac:	f20812e3          	bnez	a6,66d0 <__subdf3+0x37c>
    67b0:	00351813          	slli	a6,a0,0x3
    67b4:	01d31793          	slli	a5,t1,0x1d
    67b8:	00385813          	srli	a6,a6,0x3
    67bc:	00f86833          	or	a6,a6,a5
    67c0:	00335793          	srli	a5,t1,0x3
    67c4:	b719                	j	66ca <__subdf3+0x376>
    67c6:	00800537          	lui	a0,0x800
    67ca:	7ff00793          	li	a5,2047
    67ce:	00a36333          	or	t1,t1,a0
    67d2:	e0f893e3          	bne	a7,a5,65d8 <__subdf3+0x284>
    67d6:	060e                	slli	a2,a2,0x3
    67d8:	01d71813          	slli	a6,a4,0x1d
    67dc:	820d                	srli	a2,a2,0x3
    67de:	00c86833          	or	a6,a6,a2
    67e2:	00375793          	srli	a5,a4,0x3
    67e6:	8436                	mv	s0,a3
    67e8:	b5cd                	j	66ca <__subdf3+0x376>
    67ea:	1705                	addi	a4,a4,-31
    67ec:	02000693          	li	a3,32
    67f0:	00e7d733          	srl	a4,a5,a4
    67f4:	00d60a63          	beq	a2,a3,6808 <__subdf3+0x4b4>
    67f8:	04000693          	li	a3,64
    67fc:	40c68633          	sub	a2,a3,a2
    6800:	00c79633          	sll	a2,a5,a2
    6804:	00c9e9b3          	or	s3,s3,a2
    6808:	01303833          	snez	a6,s3
    680c:	00e869b3          	or	s3,a6,a4
    6810:	4601                	li	a2,0
    6812:	4481                	li	s1,0
    6814:	bd25                	j	664c <__subdf3+0x2f8>
    6816:	01df09b3          	add	s3,t5,t4
    681a:	00e307b3          	add	a5,t1,a4
    681e:	01e9bf33          	sltu	t5,s3,t5
    6822:	01e78633          	add	a2,a5,t5
    6826:	00861793          	slli	a5,a2,0x8
    682a:	4485                	li	s1,1
    682c:	e207d0e3          	bgez	a5,664c <__subdf3+0x2f8>
    6830:	4489                	li	s1,2
    6832:	ff8007b7          	lui	a5,0xff800
    6836:	17fd                	addi	a5,a5,-1
    6838:	8ff1                	and	a5,a5,a2
    683a:	0019d713          	srli	a4,s3,0x1
    683e:	0019f813          	andi	a6,s3,1
    6842:	01076833          	or	a6,a4,a6
    6846:	01f79993          	slli	s3,a5,0x1f
    684a:	0109e9b3          	or	s3,s3,a6
    684e:	0017d613          	srli	a2,a5,0x1
    6852:	b919                	j	6468 <__subdf3+0x114>
    6854:	fe058813          	addi	a6,a1,-32
    6858:	02000793          	li	a5,32
    685c:	010759b3          	srl	s3,a4,a6
    6860:	00f58a63          	beq	a1,a5,6874 <__subdf3+0x520>
    6864:	04000793          	li	a5,64
    6868:	40b785b3          	sub	a1,a5,a1
    686c:	00b71733          	sll	a4,a4,a1
    6870:	00eeeeb3          	or	t4,t4,a4
    6874:	01d03833          	snez	a6,t4
    6878:	01386833          	or	a6,a6,s3
    687c:	beb5                	j	63f8 <__subdf3+0xa4>
    687e:	01e36333          	or	t1,t1,t5
    6882:	00603833          	snez	a6,t1
    6886:	410e89b3          	sub	s3,t4,a6
    688a:	013eb7b3          	sltu	a5,t4,s3
    688e:	40f70633          	sub	a2,a4,a5
    6892:	84c6                	mv	s1,a7
    6894:	8436                	mv	s0,a3
    6896:	b6bd                	j	6404 <__subdf3+0xb0>
    6898:	01e367b3          	or	a5,t1,t5
    689c:	18078763          	beqz	a5,6a2a <__subdf3+0x6d6>
    68a0:	fff58793          	addi	a5,a1,-1
    68a4:	1c078c63          	beqz	a5,6a7c <__subdf3+0x728>
    68a8:	7ff00693          	li	a3,2047
    68ac:	0ad58e63          	beq	a1,a3,6968 <__subdf3+0x614>
    68b0:	85be                	mv	a1,a5
    68b2:	bd65                	j	676a <__subdf3+0x416>
    68b4:	02000793          	li	a5,32
    68b8:	8f8d                	sub	a5,a5,a1
    68ba:	00bed9b3          	srl	s3,t4,a1
    68be:	00f71833          	sll	a6,a4,a5
    68c2:	00fe9eb3          	sll	t4,t4,a5
    68c6:	01386833          	or	a6,a6,s3
    68ca:	00b75733          	srl	a4,a4,a1
    68ce:	01d039b3          	snez	s3,t4
    68d2:	01386833          	or	a6,a6,s3
    68d6:	933a                	add	t1,t1,a4
    68d8:	b36d                	j	6682 <__subdf3+0x32e>
    68da:	00361813          	slli	a6,a2,0x3
    68de:	01d71793          	slli	a5,a4,0x1d
    68e2:	00385813          	srli	a6,a6,0x3
    68e6:	0107e833          	or	a6,a5,a6
    68ea:	8436                	mv	s0,a3
    68ec:	00375793          	srli	a5,a4,0x3
    68f0:	bb9d                	j	6666 <__subdf3+0x312>
    68f2:	cbbd                	beqz	a5,6968 <__subdf3+0x614>
    68f4:	01d76733          	or	a4,a4,t4
    68f8:	dc071ce3          	bnez	a4,66d0 <__subdf3+0x37c>
    68fc:	050e                	slli	a0,a0,0x3
    68fe:	01d31813          	slli	a6,t1,0x1d
    6902:	810d                	srli	a0,a0,0x3
    6904:	00a86833          	or	a6,a6,a0
    6908:	00335793          	srli	a5,t1,0x3
    690c:	bb7d                	j	66ca <__subdf3+0x376>
    690e:	e2080fe3          	beqz	a6,674c <__subdf3+0x3f8>
    6912:	00361813          	slli	a6,a2,0x3
    6916:	01d71793          	slli	a5,a4,0x1d
    691a:	00385813          	srli	a6,a6,0x3
    691e:	00f86833          	or	a6,a6,a5
    6922:	8436                	mv	s0,a3
    6924:	00375793          	srli	a5,a4,0x3
    6928:	b399                	j	666e <__subdf3+0x31a>
    692a:	41df09b3          	sub	s3,t5,t4
    692e:	40e307b3          	sub	a5,t1,a4
    6932:	013f3f33          	sltu	t5,t5,s3
    6936:	41e78633          	sub	a2,a5,t5
    693a:	4485                	li	s1,1
    693c:	b4e1                	j	6404 <__subdf3+0xb0>
    693e:	00351813          	slli	a6,a0,0x3
    6942:	01d31693          	slli	a3,t1,0x1d
    6946:	00385813          	srli	a6,a6,0x3
    694a:	0106e833          	or	a6,a3,a6
    694e:	00335793          	srli	a5,t1,0x3
    6952:	bba5                	j	66ca <__subdf3+0x376>
    6954:	41ee89b3          	sub	s3,t4,t5
    6958:	40670633          	sub	a2,a4,t1
    695c:	013eb933          	sltu	s2,t4,s3
    6960:	41260933          	sub	s2,a2,s2
    6964:	8436                	mv	s0,a3
    6966:	bc45                	j	6416 <__subdf3+0xc2>
    6968:	060e                	slli	a2,a2,0x3
    696a:	01d71813          	slli	a6,a4,0x1d
    696e:	820d                	srli	a2,a2,0x3
    6970:	00c86833          	or	a6,a6,a2
    6974:	00375793          	srli	a5,a4,0x3
    6978:	bb89                	j	66ca <__subdf3+0x376>
    697a:	41df09b3          	sub	s3,t5,t4
    697e:	40e307b3          	sub	a5,t1,a4
    6982:	013f3633          	sltu	a2,t5,s3
    6986:	40c78633          	sub	a2,a5,a2
    698a:	00861793          	slli	a5,a2,0x8
    698e:	0a07d763          	bgez	a5,6a3c <__subdf3+0x6e8>
    6992:	41ee89b3          	sub	s3,t4,t5
    6996:	406707b3          	sub	a5,a4,t1
    699a:	013ebeb3          	sltu	t4,t4,s3
    699e:	41d78633          	sub	a2,a5,t4
    69a2:	8436                	mv	s0,a3
    69a4:	b4d1                	j	6468 <__subdf3+0x114>
    69a6:	01e36333          	or	t1,t1,t5
    69aa:	00603833          	snez	a6,t1
    69ae:	b3fd                	j	679c <__subdf3+0x448>
    69b0:	fe058813          	addi	a6,a1,-32
    69b4:	02000793          	li	a5,32
    69b8:	010359b3          	srl	s3,t1,a6
    69bc:	00f58a63          	beq	a1,a5,69d0 <__subdf3+0x67c>
    69c0:	04000793          	li	a5,64
    69c4:	40b785b3          	sub	a1,a5,a1
    69c8:	00b31333          	sll	t1,t1,a1
    69cc:	006f6f33          	or	t5,t5,t1
    69d0:	01e03833          	snez	a6,t5
    69d4:	01386833          	or	a6,a6,s3
    69d8:	b57d                	j	6886 <__subdf3+0x532>
    69da:	41ee89b3          	sub	s3,t4,t5
    69de:	406707b3          	sub	a5,a4,t1
    69e2:	013ebeb3          	sltu	t4,t4,s3
    69e6:	41d78633          	sub	a2,a5,t4
    69ea:	8436                	mv	s0,a3
    69ec:	4485                	li	s1,1
    69ee:	bc19                	j	6404 <__subdf3+0xb0>
    69f0:	00361813          	slli	a6,a2,0x3
    69f4:	01d71793          	slli	a5,a4,0x1d
    69f8:	00385813          	srli	a6,a6,0x3
    69fc:	00f86833          	or	a6,a6,a5
    6a00:	00375793          	srli	a5,a4,0x3
    6a04:	b1ad                	j	666e <__subdf3+0x31a>
    6a06:	01df09b3          	add	s3,t5,t4
    6a0a:	00e307b3          	add	a5,t1,a4
    6a0e:	01e9bf33          	sltu	t5,s3,t5
    6a12:	01e78633          	add	a2,a5,t5
    6a16:	00861793          	slli	a5,a2,0x8
    6a1a:	c207d9e3          	bgez	a5,664c <__subdf3+0x2f8>
    6a1e:	ff8007b7          	lui	a5,0xff800
    6a22:	17fd                	addi	a5,a5,-1
    6a24:	8e7d                	and	a2,a2,a5
    6a26:	4485                	li	s1,1
    6a28:	b115                	j	664c <__subdf3+0x2f8>
    6a2a:	060e                	slli	a2,a2,0x3
    6a2c:	01d71813          	slli	a6,a4,0x1d
    6a30:	820d                	srli	a2,a2,0x3
    6a32:	00c86833          	or	a6,a6,a2
    6a36:	00375793          	srli	a5,a4,0x3
    6a3a:	b135                	j	6666 <__subdf3+0x312>
    6a3c:	00c9e833          	or	a6,s3,a2
    6a40:	d00806e3          	beqz	a6,674c <__subdf3+0x3f8>
    6a44:	b121                	j	664c <__subdf3+0x2f8>
    6a46:	fe058813          	addi	a6,a1,-32
    6a4a:	02000793          	li	a5,32
    6a4e:	010359b3          	srl	s3,t1,a6
    6a52:	00f58a63          	beq	a1,a5,6a66 <__subdf3+0x712>
    6a56:	04000793          	li	a5,64
    6a5a:	40b785b3          	sub	a1,a5,a1
    6a5e:	00b31333          	sll	t1,t1,a1
    6a62:	006f6f33          	or	t5,t5,t1
    6a66:	01e03833          	snez	a6,t5
    6a6a:	01386833          	or	a6,a6,s3
    6a6e:	b33d                	j	679c <__subdf3+0x448>
    6a70:	4401                	li	s0,0
    6a72:	7ff00713          	li	a4,2047
    6a76:	000807b7          	lui	a5,0x80
    6a7a:	bc35                	j	64b6 <__subdf3+0x162>
    6a7c:	01df09b3          	add	s3,t5,t4
    6a80:	00e307b3          	add	a5,t1,a4
    6a84:	01d9beb3          	sltu	t4,s3,t4
    6a88:	01d78633          	add	a2,a5,t4
    6a8c:	bb69                	j	6826 <__subdf3+0x4d2>

00006a8e <__fixdfsi>:
__fixdfsi():
    6a8e:	0145d793          	srli	a5,a1,0x14
    6a92:	001006b7          	lui	a3,0x100
    6a96:	fff68713          	addi	a4,a3,-1 # fffff <_data_lma+0xf5bdb>
    6a9a:	7ff7f793          	andi	a5,a5,2047
    6a9e:	3fe00613          	li	a2,1022
    6aa2:	8f6d                	and	a4,a4,a1
    6aa4:	81fd                	srli	a1,a1,0x1f
    6aa6:	00f65c63          	bge	a2,a5,6abe <__fixdfsi+0x30>
    6aaa:	41d00613          	li	a2,1053
    6aae:	00f65a63          	bge	a2,a5,6ac2 <__fixdfsi+0x34>
    6ab2:	80000537          	lui	a0,0x80000
    6ab6:	fff54513          	not	a0,a0
    6aba:	952e                	add	a0,a0,a1
    6abc:	8082                	ret
    6abe:	4501                	li	a0,0
    6ac0:	8082                	ret
    6ac2:	43300613          	li	a2,1075
    6ac6:	8e1d                	sub	a2,a2,a5
    6ac8:	487d                	li	a6,31
    6aca:	8f55                	or	a4,a4,a3
    6acc:	00c85d63          	bge	a6,a2,6ae6 <__fixdfsi+0x58>
    6ad0:	41300693          	li	a3,1043
    6ad4:	40f687b3          	sub	a5,a3,a5
    6ad8:	00f757b3          	srl	a5,a4,a5
    6adc:	40f00533          	neg	a0,a5
    6ae0:	f1e5                	bnez	a1,6ac0 <__fixdfsi+0x32>
    6ae2:	853e                	mv	a0,a5
    6ae4:	8082                	ret
    6ae6:	bed78793          	addi	a5,a5,-1043 # 7fbed <_data_lma+0x757c9>
    6aea:	00f717b3          	sll	a5,a4,a5
    6aee:	00c55533          	srl	a0,a0,a2
    6af2:	8fc9                	or	a5,a5,a0
    6af4:	b7e5                	j	6adc <__fixdfsi+0x4e>

00006af6 <__floatsidf>:
__floatsidf():
    6af6:	1141                	addi	sp,sp,-16
    6af8:	c606                	sw	ra,12(sp)
    6afa:	c422                	sw	s0,8(sp)
    6afc:	c226                	sw	s1,4(sp)
    6afe:	cd05                	beqz	a0,6b36 <__floatsidf+0x40>
    6b00:	41f55793          	srai	a5,a0,0x1f
    6b04:	00a7c4b3          	xor	s1,a5,a0
    6b08:	8c9d                	sub	s1,s1,a5
    6b0a:	842a                	mv	s0,a0
    6b0c:	8526                	mv	a0,s1
    6b0e:	28a1                	jal	6b66 <__clzsi2>
    6b10:	41e00693          	li	a3,1054
    6b14:	8e89                	sub	a3,a3,a0
    6b16:	47a9                	li	a5,10
    6b18:	807d                	srli	s0,s0,0x1f
    6b1a:	7ff6f693          	andi	a3,a3,2047
    6b1e:	02a7cd63          	blt	a5,a0,6b58 <__floatsidf+0x62>
    6b22:	472d                	li	a4,11
    6b24:	8f09                	sub	a4,a4,a0
    6b26:	00e4d7b3          	srl	a5,s1,a4
    6b2a:	0555                	addi	a0,a0,21
    6b2c:	07b2                	slli	a5,a5,0xc
    6b2e:	00a494b3          	sll	s1,s1,a0
    6b32:	83b1                	srli	a5,a5,0xc
    6b34:	a029                	j	6b3e <__floatsidf+0x48>
    6b36:	4401                	li	s0,0
    6b38:	4681                	li	a3,0
    6b3a:	4781                	li	a5,0
    6b3c:	4481                	li	s1,0
    6b3e:	07b2                	slli	a5,a5,0xc
    6b40:	06d2                	slli	a3,a3,0x14
    6b42:	83b1                	srli	a5,a5,0xc
    6b44:	047e                	slli	s0,s0,0x1f
    6b46:	8fd5                	or	a5,a5,a3
    6b48:	8fc1                	or	a5,a5,s0
    6b4a:	40b2                	lw	ra,12(sp)
    6b4c:	4422                	lw	s0,8(sp)
    6b4e:	8526                	mv	a0,s1
    6b50:	85be                	mv	a1,a5
    6b52:	4492                	lw	s1,4(sp)
    6b54:	0141                	addi	sp,sp,16
    6b56:	8082                	ret
    6b58:	1555                	addi	a0,a0,-11
    6b5a:	00a497b3          	sll	a5,s1,a0
    6b5e:	07b2                	slli	a5,a5,0xc
    6b60:	83b1                	srli	a5,a5,0xc
    6b62:	4481                	li	s1,0
    6b64:	bfe9                	j	6b3e <__floatsidf+0x48>

00006b66 <__clzsi2>:
__clzsi2():
    6b66:	67c1                	lui	a5,0x10
    6b68:	02f57e63          	bgeu	a0,a5,6ba4 <__clzsi2+0x3e>
    6b6c:	0ff00793          	li	a5,255
    6b70:	02000713          	li	a4,32
    6b74:	00a7ec63          	bltu	a5,a0,6b8c <__clzsi2+0x26>
    6b78:	00003797          	auipc	a5,0x3
    6b7c:	48478793          	addi	a5,a5,1156 # 9ffc <__clz_tab>
    6b80:	97aa                	add	a5,a5,a0
    6b82:	0007c503          	lbu	a0,0(a5)
    6b86:	40a70533          	sub	a0,a4,a0
    6b8a:	8082                	ret
    6b8c:	8121                	srli	a0,a0,0x8
    6b8e:	00003797          	auipc	a5,0x3
    6b92:	46e78793          	addi	a5,a5,1134 # 9ffc <__clz_tab>
    6b96:	97aa                	add	a5,a5,a0
    6b98:	0007c503          	lbu	a0,0(a5)
    6b9c:	4761                	li	a4,24
    6b9e:	40a70533          	sub	a0,a4,a0
    6ba2:	8082                	ret
    6ba4:	010007b7          	lui	a5,0x1000
    6ba8:	00f56e63          	bltu	a0,a5,6bc4 <__clzsi2+0x5e>
    6bac:	8161                	srli	a0,a0,0x18
    6bae:	00003797          	auipc	a5,0x3
    6bb2:	44e78793          	addi	a5,a5,1102 # 9ffc <__clz_tab>
    6bb6:	97aa                	add	a5,a5,a0
    6bb8:	0007c503          	lbu	a0,0(a5)
    6bbc:	4721                	li	a4,8
    6bbe:	40a70533          	sub	a0,a4,a0
    6bc2:	8082                	ret
    6bc4:	8141                	srli	a0,a0,0x10
    6bc6:	00003797          	auipc	a5,0x3
    6bca:	43678793          	addi	a5,a5,1078 # 9ffc <__clz_tab>
    6bce:	97aa                	add	a5,a5,a0
    6bd0:	0007c503          	lbu	a0,0(a5)
    6bd4:	4741                	li	a4,16
    6bd6:	40a70533          	sub	a0,a4,a0
    6bda:	8082                	ret

00006bdc <memcpy>:
memcpy():
    6bdc:	00a5c7b3          	xor	a5,a1,a0
    6be0:	8b8d                	andi	a5,a5,3
    6be2:	00c50733          	add	a4,a0,a2
    6be6:	e781                	bnez	a5,6bee <memcpy+0x12>
    6be8:	478d                	li	a5,3
    6bea:	00c7ee63          	bltu	a5,a2,6c06 <memcpy+0x2a>
    6bee:	87aa                	mv	a5,a0
    6bf0:	0ae57063          	bgeu	a0,a4,6c90 <memcpy+0xb4>
    6bf4:	0005c683          	lbu	a3,0(a1)
    6bf8:	0785                	addi	a5,a5,1
    6bfa:	0585                	addi	a1,a1,1
    6bfc:	fed78fa3          	sb	a3,-1(a5)
    6c00:	fee7eae3          	bltu	a5,a4,6bf4 <memcpy+0x18>
    6c04:	8082                	ret
    6c06:	00357693          	andi	a3,a0,3
    6c0a:	87aa                	mv	a5,a0
    6c0c:	ca91                	beqz	a3,6c20 <memcpy+0x44>
    6c0e:	0005c683          	lbu	a3,0(a1)
    6c12:	0785                	addi	a5,a5,1
    6c14:	0585                	addi	a1,a1,1
    6c16:	fed78fa3          	sb	a3,-1(a5)
    6c1a:	0037f693          	andi	a3,a5,3
    6c1e:	b7fd                	j	6c0c <memcpy+0x30>
    6c20:	ffc77693          	andi	a3,a4,-4
    6c24:	fe068613          	addi	a2,a3,-32
    6c28:	06c7f063          	bgeu	a5,a2,6c88 <memcpy+0xac>
    6c2c:	0005a383          	lw	t2,0(a1)
    6c30:	0045a283          	lw	t0,4(a1)
    6c34:	0085af83          	lw	t6,8(a1)
    6c38:	00c5af03          	lw	t5,12(a1)
    6c3c:	0105ae83          	lw	t4,16(a1)
    6c40:	0145ae03          	lw	t3,20(a1)
    6c44:	0185a303          	lw	t1,24(a1)
    6c48:	01c5a883          	lw	a7,28(a1)
    6c4c:	02458593          	addi	a1,a1,36
    6c50:	0077a023          	sw	t2,0(a5)
    6c54:	ffc5a803          	lw	a6,-4(a1)
    6c58:	0057a223          	sw	t0,4(a5)
    6c5c:	01f7a423          	sw	t6,8(a5)
    6c60:	01e7a623          	sw	t5,12(a5)
    6c64:	01d7a823          	sw	t4,16(a5)
    6c68:	01c7aa23          	sw	t3,20(a5)
    6c6c:	0067ac23          	sw	t1,24(a5)
    6c70:	0117ae23          	sw	a7,28(a5)
    6c74:	02478793          	addi	a5,a5,36
    6c78:	ff07ae23          	sw	a6,-4(a5)
    6c7c:	b775                	j	6c28 <memcpy+0x4c>
    6c7e:	4190                	lw	a2,0(a1)
    6c80:	0791                	addi	a5,a5,4
    6c82:	0591                	addi	a1,a1,4
    6c84:	fec7ae23          	sw	a2,-4(a5)
    6c88:	fed7ebe3          	bltu	a5,a3,6c7e <memcpy+0xa2>
    6c8c:	f6e7e4e3          	bltu	a5,a4,6bf4 <memcpy+0x18>
    6c90:	8082                	ret

00006c92 <__cvt>:
__cvt():
    6c92:	7179                	addi	sp,sp,-48
    6c94:	d422                	sw	s0,40(sp)
    6c96:	d04a                	sw	s2,32(sp)
    6c98:	cc52                	sw	s4,24(sp)
    6c9a:	ca56                	sw	s5,20(sp)
    6c9c:	c85a                	sw	s6,16(sp)
    6c9e:	d606                	sw	ra,44(sp)
    6ca0:	d226                	sw	s1,36(sp)
    6ca2:	ce4e                	sw	s3,28(sp)
    6ca4:	8a3a                	mv	s4,a4
    6ca6:	8aae                	mv	s5,a1
    6ca8:	8432                	mv	s0,a2
    6caa:	8936                	mv	s2,a3
    6cac:	8b42                	mv	s6,a6
    6cae:	4701                	li	a4,0
    6cb0:	00065863          	bgez	a2,6cc0 <__cvt+0x2e>
    6cb4:	80000737          	lui	a4,0x80000
    6cb8:	00c74433          	xor	s0,a4,a2
    6cbc:	02d00713          	li	a4,45
    6cc0:	00e78023          	sb	a4,0(a5)
    6cc4:	fdf8f493          	andi	s1,a7,-33
    6cc8:	04600793          	li	a5,70
    6ccc:	468d                	li	a3,3
    6cce:	00f48863          	beq	s1,a5,6cde <__cvt+0x4c>
    6cd2:	04500793          	li	a5,69
    6cd6:	4689                	li	a3,2
    6cd8:	00f49363          	bne	s1,a5,6cde <__cvt+0x4c>
    6cdc:	0905                	addi	s2,s2,1
    6cde:	87da                	mv	a5,s6
    6ce0:	00c10893          	addi	a7,sp,12
    6ce4:	00810813          	addi	a6,sp,8
    6ce8:	874a                	mv	a4,s2
    6cea:	85d6                	mv	a1,s5
    6cec:	8622                	mv	a2,s0
    6cee:	501000ef          	jal	ra,79ee <_dtoa_r>
    6cf2:	04700793          	li	a5,71
    6cf6:	89aa                	mv	s3,a0
    6cf8:	00f49663          	bne	s1,a5,6d04 <__cvt+0x72>
    6cfc:	001a7a13          	andi	s4,s4,1
    6d00:	040a0a63          	beqz	s4,6d54 <__cvt+0xc2>
    6d04:	04600793          	li	a5,70
    6d08:	01298a33          	add	s4,s3,s2
    6d0c:	02f49763          	bne	s1,a5,6d3a <__cvt+0xa8>
    6d10:	0009c703          	lbu	a4,0(s3)
    6d14:	03000793          	li	a5,48
    6d18:	00f71e63          	bne	a4,a5,6d34 <__cvt+0xa2>
    6d1c:	4601                	li	a2,0
    6d1e:	4681                	li	a3,0
    6d20:	8556                	mv	a0,s5
    6d22:	85a2                	mv	a1,s0
    6d24:	858ff0ef          	jal	ra,5d7c <__eqdf2>
    6d28:	c511                	beqz	a0,6d34 <__cvt+0xa2>
    6d2a:	4785                	li	a5,1
    6d2c:	41278933          	sub	s2,a5,s2
    6d30:	012b2023          	sw	s2,0(s6)
    6d34:	000b2783          	lw	a5,0(s6)
    6d38:	9a3e                	add	s4,s4,a5
    6d3a:	4601                	li	a2,0
    6d3c:	4681                	li	a3,0
    6d3e:	8556                	mv	a0,s5
    6d40:	85a2                	mv	a1,s0
    6d42:	83aff0ef          	jal	ra,5d7c <__eqdf2>
    6d46:	e111                	bnez	a0,6d4a <__cvt+0xb8>
    6d48:	c652                	sw	s4,12(sp)
    6d4a:	03000713          	li	a4,48
    6d4e:	47b2                	lw	a5,12(sp)
    6d50:	0347e263          	bltu	a5,s4,6d74 <__cvt+0xe2>
    6d54:	47b2                	lw	a5,12(sp)
    6d56:	5742                	lw	a4,48(sp)
    6d58:	50b2                	lw	ra,44(sp)
    6d5a:	5422                	lw	s0,40(sp)
    6d5c:	413787b3          	sub	a5,a5,s3
    6d60:	c31c                	sw	a5,0(a4)
    6d62:	854e                	mv	a0,s3
    6d64:	5492                	lw	s1,36(sp)
    6d66:	5902                	lw	s2,32(sp)
    6d68:	49f2                	lw	s3,28(sp)
    6d6a:	4a62                	lw	s4,24(sp)
    6d6c:	4ad2                	lw	s5,20(sp)
    6d6e:	4b42                	lw	s6,16(sp)
    6d70:	6145                	addi	sp,sp,48
    6d72:	8082                	ret
    6d74:	00178693          	addi	a3,a5,1
    6d78:	c636                	sw	a3,12(sp)
    6d7a:	00e78023          	sb	a4,0(a5)
    6d7e:	bfc1                	j	6d4e <__cvt+0xbc>

00006d80 <__exponent>:
__exponent():
    6d80:	00c50023          	sb	a2,0(a0) # 80000000 <_eusrstack+0x5fff0000>
    6d84:	00250713          	addi	a4,a0,2
    6d88:	02b00793          	li	a5,43
    6d8c:	0005d663          	bgez	a1,6d98 <__exponent+0x18>
    6d90:	40b005b3          	neg	a1,a1
    6d94:	02d00793          	li	a5,45
    6d98:	00f500a3          	sb	a5,1(a0)
    6d9c:	47a5                	li	a5,9
    6d9e:	04b7da63          	bge	a5,a1,6df2 <__exponent+0x72>
    6da2:	1141                	addi	sp,sp,-16
    6da4:	00f10793          	addi	a5,sp,15
    6da8:	88be                	mv	a7,a5
    6daa:	4829                	li	a6,10
    6dac:	06300313          	li	t1,99
    6db0:	0305e6b3          	rem	a3,a1,a6
    6db4:	fff78613          	addi	a2,a5,-1
    6db8:	03068693          	addi	a3,a3,48
    6dbc:	fed78fa3          	sb	a3,-1(a5)
    6dc0:	0305c6b3          	div	a3,a1,a6
    6dc4:	00b34d63          	blt	t1,a1,6dde <__exponent+0x5e>
    6dc8:	03068693          	addi	a3,a3,48
    6dcc:	17f9                	addi	a5,a5,-2
    6dce:	fed60fa3          	sb	a3,-1(a2) # ff7fffff <_eusrstack+0xdf7effff>
    6dd2:	0117e963          	bltu	a5,a7,6de4 <__exponent+0x64>
    6dd6:	40a70533          	sub	a0,a4,a0
    6dda:	0141                	addi	sp,sp,16
    6ddc:	8082                	ret
    6dde:	87b2                	mv	a5,a2
    6de0:	85b6                	mv	a1,a3
    6de2:	b7f9                	j	6db0 <__exponent+0x30>
    6de4:	0785                	addi	a5,a5,1
    6de6:	fff7c683          	lbu	a3,-1(a5)
    6dea:	0705                	addi	a4,a4,1
    6dec:	fed70fa3          	sb	a3,-1(a4) # 7fffffff <_eusrstack+0x5ffeffff>
    6df0:	b7cd                	j	6dd2 <__exponent+0x52>
    6df2:	03000793          	li	a5,48
    6df6:	00450713          	addi	a4,a0,4
    6dfa:	03058593          	addi	a1,a1,48
    6dfe:	00f50123          	sb	a5,2(a0)
    6e02:	00b501a3          	sb	a1,3(a0)
    6e06:	40a70533          	sub	a0,a4,a0
    6e0a:	8082                	ret

00006e0c <_printf_float>:
_printf_float():
    6e0c:	7119                	addi	sp,sp,-128
    6e0e:	ce3a                	sw	a4,28(sp)
    6e10:	de86                	sw	ra,124(sp)
    6e12:	dca2                	sw	s0,120(sp)
    6e14:	daa6                	sw	s1,116(sp)
    6e16:	842e                	mv	s0,a1
    6e18:	d8ca                	sw	s2,112(sp)
    6e1a:	d6ce                	sw	s3,108(sp)
    6e1c:	d4d2                	sw	s4,104(sp)
    6e1e:	89b6                	mv	s3,a3
    6e20:	d0da                	sw	s6,96(sp)
    6e22:	cede                	sw	s7,92(sp)
    6e24:	cce2                	sw	s8,88(sp)
    6e26:	8932                	mv	s2,a2
    6e28:	d2d6                	sw	s5,100(sp)
    6e2a:	cae6                	sw	s9,84(sp)
    6e2c:	c8ea                	sw	s10,80(sp)
    6e2e:	c6ee                	sw	s11,76(sp)
    6e30:	84aa                	mv	s1,a0
    6e32:	3b3010ef          	jal	ra,89e4 <_localeconv_r>
    6e36:	00052b83          	lw	s7,0(a0)
    6e3a:	855e                	mv	a0,s7
    6e3c:	08f000ef          	jal	ra,76ca <strlen>
    6e40:	00042b03          	lw	s6,0(s0) # 80000 <_data_lma+0x75bdc>
    6e44:	4772                	lw	a4,28(sp)
    6e46:	dc02                	sw	zero,56(sp)
    6e48:	100b7693          	andi	a3,s6,256
    6e4c:	8c2a                	mv	s8,a0
    6e4e:	01844a03          	lbu	s4,24(s0)
    6e52:	431c                	lw	a5,0(a4)
    6e54:	caf1                	beqz	a3,6f28 <_printf_float+0x11c>
    6e56:	00478693          	addi	a3,a5,4
    6e5a:	c314                	sw	a3,0(a4)
    6e5c:	439c                	lw	a5,0(a5)
    6e5e:	1008                	addi	a0,sp,32
    6e60:	4398                	lw	a4,0(a5)
    6e62:	d03a                	sw	a4,32(sp)
    6e64:	43d8                	lw	a4,4(a5)
    6e66:	d23a                	sw	a4,36(sp)
    6e68:	4798                	lw	a4,8(a5)
    6e6a:	d43a                	sw	a4,40(sp)
    6e6c:	47dc                	lw	a5,12(a5)
    6e6e:	d63e                	sw	a5,44(sp)
    6e70:	3df020ef          	jal	ra,9a4e <__trunctfdf2>
    6e74:	c428                	sw	a0,72(s0)
    6e76:	c46c                	sw	a1,76(s0)
    6e78:	04c42c83          	lw	s9,76(s0)
    6e7c:	00003717          	auipc	a4,0x3
    6e80:	28470713          	addi	a4,a4,644 # a100 <__clz_tab+0x104>
    6e84:	04842a83          	lw	s5,72(s0)
    6e88:	00072d03          	lw	s10,0(a4)
    6e8c:	00472d83          	lw	s11,4(a4)
    6e90:	001c9793          	slli	a5,s9,0x1
    6e94:	8385                	srli	a5,a5,0x1
    6e96:	866a                	mv	a2,s10
    6e98:	86ee                	mv	a3,s11
    6e9a:	8556                	mv	a0,s5
    6e9c:	85be                	mv	a1,a5
    6e9e:	ce3e                	sw	a5,28(sp)
    6ea0:	30b020ef          	jal	ra,99aa <__unorddf2>
    6ea4:	ed41                	bnez	a0,6f3c <_printf_float+0x130>
    6ea6:	47f2                	lw	a5,28(sp)
    6ea8:	866a                	mv	a2,s10
    6eaa:	86ee                	mv	a3,s11
    6eac:	8556                	mv	a0,s5
    6eae:	85be                	mv	a1,a5
    6eb0:	f37fe0ef          	jal	ra,5de6 <__ledf2>
    6eb4:	08a05463          	blez	a0,6f3c <_printf_float+0x130>
    6eb8:	4601                	li	a2,0
    6eba:	4681                	li	a3,0
    6ebc:	8556                	mv	a0,s5
    6ebe:	85e6                	mv	a1,s9
    6ec0:	f27fe0ef          	jal	ra,5de6 <__ledf2>
    6ec4:	00055663          	bgez	a0,6ed0 <_printf_float+0xc4>
    6ec8:	02d00793          	li	a5,45
    6ecc:	04f401a3          	sb	a5,67(s0)
    6ed0:	04700793          	li	a5,71
    6ed4:	00003a97          	auipc	s5,0x3
    6ed8:	234a8a93          	addi	s5,s5,564 # a108 <__clz_tab+0x10c>
    6edc:	0147f663          	bgeu	a5,s4,6ee8 <_printf_float+0xdc>
    6ee0:	00003a97          	auipc	s5,0x3
    6ee4:	22ca8a93          	addi	s5,s5,556 # a10c <__clz_tab+0x110>
    6ee8:	ffbb7b13          	andi	s6,s6,-5
    6eec:	478d                	li	a5,3
    6eee:	01642023          	sw	s6,0(s0)
    6ef2:	c81c                	sw	a5,16(s0)
    6ef4:	4b01                	li	s6,0
    6ef6:	874e                	mv	a4,s3
    6ef8:	86ca                	mv	a3,s2
    6efa:	1870                	addi	a2,sp,60
    6efc:	85a2                	mv	a1,s0
    6efe:	8526                	mv	a0,s1
    6f00:	2ec1                	jal	72d0 <_printf_common>
    6f02:	5cfd                	li	s9,-1
    6f04:	15951e63          	bne	a0,s9,7060 <_printf_float+0x254>
    6f08:	557d                	li	a0,-1
    6f0a:	50f6                	lw	ra,124(sp)
    6f0c:	5466                	lw	s0,120(sp)
    6f0e:	54d6                	lw	s1,116(sp)
    6f10:	5946                	lw	s2,112(sp)
    6f12:	59b6                	lw	s3,108(sp)
    6f14:	5a26                	lw	s4,104(sp)
    6f16:	5a96                	lw	s5,100(sp)
    6f18:	5b06                	lw	s6,96(sp)
    6f1a:	4bf6                	lw	s7,92(sp)
    6f1c:	4c66                	lw	s8,88(sp)
    6f1e:	4cd6                	lw	s9,84(sp)
    6f20:	4d46                	lw	s10,80(sp)
    6f22:	4db6                	lw	s11,76(sp)
    6f24:	6109                	addi	sp,sp,128
    6f26:	8082                	ret
    6f28:	079d                	addi	a5,a5,7
    6f2a:	9be1                	andi	a5,a5,-8
    6f2c:	00878693          	addi	a3,a5,8
    6f30:	c314                	sw	a3,0(a4)
    6f32:	4398                	lw	a4,0(a5)
    6f34:	43dc                	lw	a5,4(a5)
    6f36:	c438                	sw	a4,72(s0)
    6f38:	c47c                	sw	a5,76(s0)
    6f3a:	bf3d                	j	6e78 <_printf_float+0x6c>
    6f3c:	8656                	mv	a2,s5
    6f3e:	86e6                	mv	a3,s9
    6f40:	8556                	mv	a0,s5
    6f42:	85e6                	mv	a1,s9
    6f44:	267020ef          	jal	ra,99aa <__unorddf2>
    6f48:	cd11                	beqz	a0,6f64 <_printf_float+0x158>
    6f4a:	04700793          	li	a5,71
    6f4e:	00003a97          	auipc	s5,0x3
    6f52:	1c2a8a93          	addi	s5,s5,450 # a110 <__clz_tab+0x114>
    6f56:	f947f9e3          	bgeu	a5,s4,6ee8 <_printf_float+0xdc>
    6f5a:	00003a97          	auipc	s5,0x3
    6f5e:	1baa8a93          	addi	s5,s5,442 # a114 <__clz_tab+0x118>
    6f62:	b759                	j	6ee8 <_printf_float+0xdc>
    6f64:	405c                	lw	a5,4(s0)
    6f66:	577d                	li	a4,-1
    6f68:	0dfa7d13          	andi	s10,s4,223
    6f6c:	08e79563          	bne	a5,a4,6ff6 <_printf_float+0x1ea>
    6f70:	4799                	li	a5,6
    6f72:	c05c                	sw	a5,4(s0)
    6f74:	4054                	lw	a3,4(s0)
    6f76:	400b6713          	ori	a4,s6,1024
    6f7a:	183c                	addi	a5,sp,56
    6f7c:	85d6                	mv	a1,s5
    6f7e:	c03e                	sw	a5,0(sp)
    6f80:	c018                	sw	a4,0(s0)
    6f82:	03310793          	addi	a5,sp,51
    6f86:	c202                	sw	zero,4(sp)
    6f88:	88d2                	mv	a7,s4
    6f8a:	03410813          	addi	a6,sp,52
    6f8e:	8666                	mv	a2,s9
    6f90:	8526                	mv	a0,s1
    6f92:	d01ff0ef          	jal	ra,6c92 <__cvt>
    6f96:	04700793          	li	a5,71
    6f9a:	8aaa                	mv	s5,a0
    6f9c:	55d2                	lw	a1,52(sp)
    6f9e:	00fd1b63          	bne	s10,a5,6fb4 <_printf_float+0x1a8>
    6fa2:	57f5                	li	a5,-3
    6fa4:	00f5c563          	blt	a1,a5,6fae <_printf_float+0x1a2>
    6fa8:	405c                	lw	a5,4(s0)
    6faa:	08b7d863          	bge	a5,a1,703a <_printf_float+0x22e>
    6fae:	1a79                	addi	s4,s4,-2
    6fb0:	0ffa7a13          	andi	s4,s4,255
    6fb4:	06500793          	li	a5,101
    6fb8:	0547e663          	bltu	a5,s4,7004 <_printf_float+0x1f8>
    6fbc:	15fd                	addi	a1,a1,-1
    6fbe:	8652                	mv	a2,s4
    6fc0:	05040513          	addi	a0,s0,80
    6fc4:	da2e                	sw	a1,52(sp)
    6fc6:	dbbff0ef          	jal	ra,6d80 <__exponent>
    6fca:	5762                	lw	a4,56(sp)
    6fcc:	4685                	li	a3,1
    6fce:	8b2a                	mv	s6,a0
    6fd0:	00a707b3          	add	a5,a4,a0
    6fd4:	c81c                	sw	a5,16(s0)
    6fd6:	00e6c563          	blt	a3,a4,6fe0 <_printf_float+0x1d4>
    6fda:	4018                	lw	a4,0(s0)
    6fdc:	8b05                	andi	a4,a4,1
    6fde:	c319                	beqz	a4,6fe4 <_printf_float+0x1d8>
    6fe0:	0785                	addi	a5,a5,1
    6fe2:	c81c                	sw	a5,16(s0)
    6fe4:	03314783          	lbu	a5,51(sp)
    6fe8:	f00787e3          	beqz	a5,6ef6 <_printf_float+0xea>
    6fec:	02d00793          	li	a5,45
    6ff0:	04f401a3          	sb	a5,67(s0)
    6ff4:	b709                	j	6ef6 <_printf_float+0xea>
    6ff6:	04700713          	li	a4,71
    6ffa:	f6ed1de3          	bne	s10,a4,6f74 <_printf_float+0x168>
    6ffe:	fbbd                	bnez	a5,6f74 <_printf_float+0x168>
    7000:	4785                	li	a5,1
    7002:	bf85                	j	6f72 <_printf_float+0x166>
    7004:	06600793          	li	a5,102
    7008:	02fa1b63          	bne	s4,a5,703e <_printf_float+0x232>
    700c:	405c                	lw	a5,4(s0)
    700e:	00b05b63          	blez	a1,7024 <_printf_float+0x218>
    7012:	c80c                	sw	a1,16(s0)
    7014:	e781                	bnez	a5,701c <_printf_float+0x210>
    7016:	4018                	lw	a4,0(s0)
    7018:	8b05                	andi	a4,a4,1
    701a:	cf09                	beqz	a4,7034 <_printf_float+0x228>
    701c:	0785                	addi	a5,a5,1
    701e:	97ae                	add	a5,a5,a1
    7020:	c81c                	sw	a5,16(s0)
    7022:	a809                	j	7034 <_printf_float+0x228>
    7024:	e789                	bnez	a5,702e <_printf_float+0x222>
    7026:	4018                	lw	a4,0(s0)
    7028:	4685                	li	a3,1
    702a:	8b05                	andi	a4,a4,1
    702c:	c319                	beqz	a4,7032 <_printf_float+0x226>
    702e:	00278693          	addi	a3,a5,2
    7032:	c814                	sw	a3,16(s0)
    7034:	cc2c                	sw	a1,88(s0)
    7036:	4b01                	li	s6,0
    7038:	b775                	j	6fe4 <_printf_float+0x1d8>
    703a:	06700a13          	li	s4,103
    703e:	57e2                	lw	a5,56(sp)
    7040:	00f5c963          	blt	a1,a5,7052 <_printf_float+0x246>
    7044:	401c                	lw	a5,0(s0)
    7046:	c80c                	sw	a1,16(s0)
    7048:	8b85                	andi	a5,a5,1
    704a:	d7ed                	beqz	a5,7034 <_printf_float+0x228>
    704c:	00158793          	addi	a5,a1,1
    7050:	bfc1                	j	7020 <_printf_float+0x214>
    7052:	4705                	li	a4,1
    7054:	00b04463          	bgtz	a1,705c <_printf_float+0x250>
    7058:	4709                	li	a4,2
    705a:	8f0d                	sub	a4,a4,a1
    705c:	97ba                	add	a5,a5,a4
    705e:	b7c9                	j	7020 <_printf_float+0x214>
    7060:	401c                	lw	a5,0(s0)
    7062:	4007f713          	andi	a4,a5,1024
    7066:	e315                	bnez	a4,708a <_printf_float+0x27e>
    7068:	4814                	lw	a3,16(s0)
    706a:	8656                	mv	a2,s5
    706c:	85ca                	mv	a1,s2
    706e:	8526                	mv	a0,s1
    7070:	9982                	jalr	s3
    7072:	e9950be3          	beq	a0,s9,6f08 <_printf_float+0xfc>
    7076:	401c                	lw	a5,0(s0)
    7078:	8b89                	andi	a5,a5,2
    707a:	24079663          	bnez	a5,72c6 <_printf_float+0x4ba>
    707e:	57f2                	lw	a5,60(sp)
    7080:	4448                	lw	a0,12(s0)
    7082:	e8f554e3          	bge	a0,a5,6f0a <_printf_float+0xfe>
    7086:	853e                	mv	a0,a5
    7088:	b549                	j	6f0a <_printf_float+0xfe>
    708a:	06500713          	li	a4,101
    708e:	19477b63          	bgeu	a4,s4,7224 <_printf_float+0x418>
    7092:	4428                	lw	a0,72(s0)
    7094:	446c                	lw	a1,76(s0)
    7096:	4601                	li	a2,0
    7098:	4681                	li	a3,0
    709a:	ce3fe0ef          	jal	ra,5d7c <__eqdf2>
    709e:	e939                	bnez	a0,70f4 <_printf_float+0x2e8>
    70a0:	4685                	li	a3,1
    70a2:	00003617          	auipc	a2,0x3
    70a6:	07660613          	addi	a2,a2,118 # a118 <__clz_tab+0x11c>
    70aa:	85ca                	mv	a1,s2
    70ac:	8526                	mv	a0,s1
    70ae:	9982                	jalr	s3
    70b0:	e5950ce3          	beq	a0,s9,6f08 <_printf_float+0xfc>
    70b4:	5752                	lw	a4,52(sp)
    70b6:	57e2                	lw	a5,56(sp)
    70b8:	00f74563          	blt	a4,a5,70c2 <_printf_float+0x2b6>
    70bc:	401c                	lw	a5,0(s0)
    70be:	8b85                	andi	a5,a5,1
    70c0:	dbdd                	beqz	a5,7076 <_printf_float+0x26a>
    70c2:	86e2                	mv	a3,s8
    70c4:	865e                	mv	a2,s7
    70c6:	85ca                	mv	a1,s2
    70c8:	8526                	mv	a0,s1
    70ca:	9982                	jalr	s3
    70cc:	57fd                	li	a5,-1
    70ce:	e2f50de3          	beq	a0,a5,6f08 <_printf_float+0xfc>
    70d2:	4a01                	li	s4,0
    70d4:	01a40a93          	addi	s5,s0,26
    70d8:	5b7d                	li	s6,-1
    70da:	57e2                	lw	a5,56(sp)
    70dc:	17fd                	addi	a5,a5,-1
    70de:	f8fa5ce3          	bge	s4,a5,7076 <_printf_float+0x26a>
    70e2:	4685                	li	a3,1
    70e4:	8656                	mv	a2,s5
    70e6:	85ca                	mv	a1,s2
    70e8:	8526                	mv	a0,s1
    70ea:	9982                	jalr	s3
    70ec:	e1650ee3          	beq	a0,s6,6f08 <_printf_float+0xfc>
    70f0:	0a05                	addi	s4,s4,1
    70f2:	b7e5                	j	70da <_printf_float+0x2ce>
    70f4:	57d2                	lw	a5,52(sp)
    70f6:	06f04663          	bgtz	a5,7162 <_printf_float+0x356>
    70fa:	4685                	li	a3,1
    70fc:	00003617          	auipc	a2,0x3
    7100:	01c60613          	addi	a2,a2,28 # a118 <__clz_tab+0x11c>
    7104:	85ca                	mv	a1,s2
    7106:	8526                	mv	a0,s1
    7108:	9982                	jalr	s3
    710a:	df950fe3          	beq	a0,s9,6f08 <_printf_float+0xfc>
    710e:	57d2                	lw	a5,52(sp)
    7110:	5762                	lw	a4,56(sp)
    7112:	8fd9                	or	a5,a5,a4
    7114:	e781                	bnez	a5,711c <_printf_float+0x310>
    7116:	401c                	lw	a5,0(s0)
    7118:	8b85                	andi	a5,a5,1
    711a:	dfb1                	beqz	a5,7076 <_printf_float+0x26a>
    711c:	86e2                	mv	a3,s8
    711e:	865e                	mv	a2,s7
    7120:	85ca                	mv	a1,s2
    7122:	8526                	mv	a0,s1
    7124:	9982                	jalr	s3
    7126:	57fd                	li	a5,-1
    7128:	def500e3          	beq	a0,a5,6f08 <_printf_float+0xfc>
    712c:	4a01                	li	s4,0
    712e:	01a40b13          	addi	s6,s0,26
    7132:	5bfd                	li	s7,-1
    7134:	57d2                	lw	a5,52(sp)
    7136:	40f007b3          	neg	a5,a5
    713a:	00fa4b63          	blt	s4,a5,7150 <_printf_float+0x344>
    713e:	56e2                	lw	a3,56(sp)
    7140:	8656                	mv	a2,s5
    7142:	85ca                	mv	a1,s2
    7144:	8526                	mv	a0,s1
    7146:	9982                	jalr	s3
    7148:	57fd                	li	a5,-1
    714a:	f2f516e3          	bne	a0,a5,7076 <_printf_float+0x26a>
    714e:	bb6d                	j	6f08 <_printf_float+0xfc>
    7150:	4685                	li	a3,1
    7152:	865a                	mv	a2,s6
    7154:	85ca                	mv	a1,s2
    7156:	8526                	mv	a0,s1
    7158:	9982                	jalr	s3
    715a:	db7507e3          	beq	a0,s7,6f08 <_printf_float+0xfc>
    715e:	0a05                	addi	s4,s4,1
    7160:	bfd1                	j	7134 <_printf_float+0x328>
    7162:	4c3c                	lw	a5,88(s0)
    7164:	5a62                	lw	s4,56(sp)
    7166:	0147d363          	bge	a5,s4,716c <_printf_float+0x360>
    716a:	8a3e                	mv	s4,a5
    716c:	01405a63          	blez	s4,7180 <_printf_float+0x374>
    7170:	86d2                	mv	a3,s4
    7172:	8656                	mv	a2,s5
    7174:	85ca                	mv	a1,s2
    7176:	8526                	mv	a0,s1
    7178:	9982                	jalr	s3
    717a:	57fd                	li	a5,-1
    717c:	d8f506e3          	beq	a0,a5,6f08 <_printf_float+0xfc>
    7180:	4c81                	li	s9,0
    7182:	01a40d13          	addi	s10,s0,26
    7186:	5dfd                	li	s11,-1
    7188:	a809                	j	719a <_printf_float+0x38e>
    718a:	4685                	li	a3,1
    718c:	866a                	mv	a2,s10
    718e:	85ca                	mv	a1,s2
    7190:	8526                	mv	a0,s1
    7192:	9982                	jalr	s3
    7194:	d7b50ae3          	beq	a0,s11,6f08 <_printf_float+0xfc>
    7198:	0c85                	addi	s9,s9,1
    719a:	05842b03          	lw	s6,88(s0)
    719e:	87d2                	mv	a5,s4
    71a0:	000a5363          	bgez	s4,71a6 <_printf_float+0x39a>
    71a4:	4781                	li	a5,0
    71a6:	40fb07b3          	sub	a5,s6,a5
    71aa:	fefcc0e3          	blt	s9,a5,718a <_printf_float+0x37e>
    71ae:	5752                	lw	a4,52(sp)
    71b0:	57e2                	lw	a5,56(sp)
    71b2:	02f74d63          	blt	a4,a5,71ec <_printf_float+0x3e0>
    71b6:	401c                	lw	a5,0(s0)
    71b8:	8b85                	andi	a5,a5,1
    71ba:	eb8d                	bnez	a5,71ec <_printf_float+0x3e0>
    71bc:	57e2                	lw	a5,56(sp)
    71be:	5752                	lw	a4,52(sp)
    71c0:	40e78a33          	sub	s4,a5,a4
    71c4:	00eb4463          	blt	s6,a4,71cc <_printf_float+0x3c0>
    71c8:	41678a33          	sub	s4,a5,s6
    71cc:	01405b63          	blez	s4,71e2 <_printf_float+0x3d6>
    71d0:	86d2                	mv	a3,s4
    71d2:	016a8633          	add	a2,s5,s6
    71d6:	85ca                	mv	a1,s2
    71d8:	8526                	mv	a0,s1
    71da:	9982                	jalr	s3
    71dc:	57fd                	li	a5,-1
    71de:	d2f505e3          	beq	a0,a5,6f08 <_printf_float+0xfc>
    71e2:	4a81                	li	s5,0
    71e4:	01a40b13          	addi	s6,s0,26
    71e8:	5bfd                	li	s7,-1
    71ea:	a015                	j	720e <_printf_float+0x402>
    71ec:	86e2                	mv	a3,s8
    71ee:	865e                	mv	a2,s7
    71f0:	85ca                	mv	a1,s2
    71f2:	8526                	mv	a0,s1
    71f4:	9982                	jalr	s3
    71f6:	57fd                	li	a5,-1
    71f8:	fcf512e3          	bne	a0,a5,71bc <_printf_float+0x3b0>
    71fc:	b331                	j	6f08 <_printf_float+0xfc>
    71fe:	4685                	li	a3,1
    7200:	865a                	mv	a2,s6
    7202:	85ca                	mv	a1,s2
    7204:	8526                	mv	a0,s1
    7206:	9982                	jalr	s3
    7208:	d17500e3          	beq	a0,s7,6f08 <_printf_float+0xfc>
    720c:	0a85                	addi	s5,s5,1
    720e:	5752                	lw	a4,52(sp)
    7210:	57e2                	lw	a5,56(sp)
    7212:	8f99                	sub	a5,a5,a4
    7214:	8752                	mv	a4,s4
    7216:	000a5363          	bgez	s4,721c <_printf_float+0x410>
    721a:	4701                	li	a4,0
    721c:	8f99                	sub	a5,a5,a4
    721e:	fefac0e3          	blt	s5,a5,71fe <_printf_float+0x3f2>
    7222:	bd91                	j	7076 <_printf_float+0x26a>
    7224:	56e2                	lw	a3,56(sp)
    7226:	4705                	li	a4,1
    7228:	00d74463          	blt	a4,a3,7230 <_printf_float+0x424>
    722c:	8b85                	andi	a5,a5,1
    722e:	c7b5                	beqz	a5,729a <_printf_float+0x48e>
    7230:	4685                	li	a3,1
    7232:	8656                	mv	a2,s5
    7234:	85ca                	mv	a1,s2
    7236:	8526                	mv	a0,s1
    7238:	9982                	jalr	s3
    723a:	5a7d                	li	s4,-1
    723c:	cd4506e3          	beq	a0,s4,6f08 <_printf_float+0xfc>
    7240:	86e2                	mv	a3,s8
    7242:	865e                	mv	a2,s7
    7244:	85ca                	mv	a1,s2
    7246:	8526                	mv	a0,s1
    7248:	9982                	jalr	s3
    724a:	cb450fe3          	beq	a0,s4,6f08 <_printf_float+0xfc>
    724e:	4428                	lw	a0,72(s0)
    7250:	446c                	lw	a1,76(s0)
    7252:	4601                	li	a2,0
    7254:	4681                	li	a3,0
    7256:	b27fe0ef          	jal	ra,5d7c <__eqdf2>
    725a:	c91d                	beqz	a0,7290 <_printf_float+0x484>
    725c:	56e2                	lw	a3,56(sp)
    725e:	001a8613          	addi	a2,s5,1
    7262:	85ca                	mv	a1,s2
    7264:	16fd                	addi	a3,a3,-1
    7266:	8526                	mv	a0,s1
    7268:	9982                	jalr	s3
    726a:	c9450fe3          	beq	a0,s4,6f08 <_printf_float+0xfc>
    726e:	86da                	mv	a3,s6
    7270:	05040613          	addi	a2,s0,80
    7274:	b5f9                	j	7142 <_printf_float+0x336>
    7276:	4685                	li	a3,1
    7278:	8656                	mv	a2,s5
    727a:	85ca                	mv	a1,s2
    727c:	8526                	mv	a0,s1
    727e:	9982                	jalr	s3
    7280:	c97504e3          	beq	a0,s7,6f08 <_printf_float+0xfc>
    7284:	0a05                	addi	s4,s4,1
    7286:	57e2                	lw	a5,56(sp)
    7288:	17fd                	addi	a5,a5,-1
    728a:	fefa46e3          	blt	s4,a5,7276 <_printf_float+0x46a>
    728e:	b7c5                	j	726e <_printf_float+0x462>
    7290:	4a01                	li	s4,0
    7292:	01a40a93          	addi	s5,s0,26
    7296:	5bfd                	li	s7,-1
    7298:	b7fd                	j	7286 <_printf_float+0x47a>
    729a:	4685                	li	a3,1
    729c:	8656                	mv	a2,s5
    729e:	85ca                	mv	a1,s2
    72a0:	8526                	mv	a0,s1
    72a2:	9982                	jalr	s3
    72a4:	fd9515e3          	bne	a0,s9,726e <_printf_float+0x462>
    72a8:	b185                	j	6f08 <_printf_float+0xfc>
    72aa:	4685                	li	a3,1
    72ac:	8656                	mv	a2,s5
    72ae:	85ca                	mv	a1,s2
    72b0:	8526                	mv	a0,s1
    72b2:	9982                	jalr	s3
    72b4:	c5650ae3          	beq	a0,s6,6f08 <_printf_float+0xfc>
    72b8:	0a05                	addi	s4,s4,1
    72ba:	445c                	lw	a5,12(s0)
    72bc:	5772                	lw	a4,60(sp)
    72be:	8f99                	sub	a5,a5,a4
    72c0:	fefa45e3          	blt	s4,a5,72aa <_printf_float+0x49e>
    72c4:	bb6d                	j	707e <_printf_float+0x272>
    72c6:	4a01                	li	s4,0
    72c8:	01940a93          	addi	s5,s0,25
    72cc:	5b7d                	li	s6,-1
    72ce:	b7f5                	j	72ba <_printf_float+0x4ae>

000072d0 <_printf_common>:
_printf_common():
    72d0:	7179                	addi	sp,sp,-48
    72d2:	ca56                	sw	s5,20(sp)
    72d4:	499c                	lw	a5,16(a1)
    72d6:	8aba                	mv	s5,a4
    72d8:	4598                	lw	a4,8(a1)
    72da:	d422                	sw	s0,40(sp)
    72dc:	d226                	sw	s1,36(sp)
    72de:	ce4e                	sw	s3,28(sp)
    72e0:	cc52                	sw	s4,24(sp)
    72e2:	d606                	sw	ra,44(sp)
    72e4:	d04a                	sw	s2,32(sp)
    72e6:	c85a                	sw	s6,16(sp)
    72e8:	c65e                	sw	s7,12(sp)
    72ea:	89aa                	mv	s3,a0
    72ec:	842e                	mv	s0,a1
    72ee:	84b2                	mv	s1,a2
    72f0:	8a36                	mv	s4,a3
    72f2:	00e7d363          	bge	a5,a4,72f8 <_printf_common+0x28>
    72f6:	87ba                	mv	a5,a4
    72f8:	c09c                	sw	a5,0(s1)
    72fa:	04344703          	lbu	a4,67(s0)
    72fe:	c319                	beqz	a4,7304 <_printf_common+0x34>
    7300:	0785                	addi	a5,a5,1
    7302:	c09c                	sw	a5,0(s1)
    7304:	401c                	lw	a5,0(s0)
    7306:	0207f793          	andi	a5,a5,32
    730a:	c781                	beqz	a5,7312 <_printf_common+0x42>
    730c:	409c                	lw	a5,0(s1)
    730e:	0789                	addi	a5,a5,2
    7310:	c09c                	sw	a5,0(s1)
    7312:	00042903          	lw	s2,0(s0)
    7316:	00697913          	andi	s2,s2,6
    731a:	00091a63          	bnez	s2,732e <_printf_common+0x5e>
    731e:	01940b13          	addi	s6,s0,25
    7322:	5bfd                	li	s7,-1
    7324:	445c                	lw	a5,12(s0)
    7326:	4098                	lw	a4,0(s1)
    7328:	8f99                	sub	a5,a5,a4
    732a:	04f94c63          	blt	s2,a5,7382 <_printf_common+0xb2>
    732e:	401c                	lw	a5,0(s0)
    7330:	04344683          	lbu	a3,67(s0)
    7334:	0207f793          	andi	a5,a5,32
    7338:	00d036b3          	snez	a3,a3
    733c:	eba5                	bnez	a5,73ac <_printf_common+0xdc>
    733e:	04340613          	addi	a2,s0,67
    7342:	85d2                	mv	a1,s4
    7344:	854e                	mv	a0,s3
    7346:	9a82                	jalr	s5
    7348:	57fd                	li	a5,-1
    734a:	04f50363          	beq	a0,a5,7390 <_printf_common+0xc0>
    734e:	401c                	lw	a5,0(s0)
    7350:	4611                	li	a2,4
    7352:	4098                	lw	a4,0(s1)
    7354:	8b99                	andi	a5,a5,6
    7356:	4454                	lw	a3,12(s0)
    7358:	4481                	li	s1,0
    735a:	00c79763          	bne	a5,a2,7368 <_printf_common+0x98>
    735e:	40e684b3          	sub	s1,a3,a4
    7362:	0004d363          	bgez	s1,7368 <_printf_common+0x98>
    7366:	4481                	li	s1,0
    7368:	441c                	lw	a5,8(s0)
    736a:	4818                	lw	a4,16(s0)
    736c:	00f75463          	bge	a4,a5,7374 <_printf_common+0xa4>
    7370:	8f99                	sub	a5,a5,a4
    7372:	94be                	add	s1,s1,a5
    7374:	4901                	li	s2,0
    7376:	0469                	addi	s0,s0,26
    7378:	5b7d                	li	s6,-1
    737a:	05249863          	bne	s1,s2,73ca <_printf_common+0xfa>
    737e:	4501                	li	a0,0
    7380:	a809                	j	7392 <_printf_common+0xc2>
    7382:	4685                	li	a3,1
    7384:	865a                	mv	a2,s6
    7386:	85d2                	mv	a1,s4
    7388:	854e                	mv	a0,s3
    738a:	9a82                	jalr	s5
    738c:	01751e63          	bne	a0,s7,73a8 <_printf_common+0xd8>
    7390:	557d                	li	a0,-1
    7392:	50b2                	lw	ra,44(sp)
    7394:	5422                	lw	s0,40(sp)
    7396:	5492                	lw	s1,36(sp)
    7398:	5902                	lw	s2,32(sp)
    739a:	49f2                	lw	s3,28(sp)
    739c:	4a62                	lw	s4,24(sp)
    739e:	4ad2                	lw	s5,20(sp)
    73a0:	4b42                	lw	s6,16(sp)
    73a2:	4bb2                	lw	s7,12(sp)
    73a4:	6145                	addi	sp,sp,48
    73a6:	8082                	ret
    73a8:	0905                	addi	s2,s2,1
    73aa:	bfad                	j	7324 <_printf_common+0x54>
    73ac:	00d40733          	add	a4,s0,a3
    73b0:	03000613          	li	a2,48
    73b4:	04c701a3          	sb	a2,67(a4)
    73b8:	04544703          	lbu	a4,69(s0)
    73bc:	00168793          	addi	a5,a3,1
    73c0:	97a2                	add	a5,a5,s0
    73c2:	0689                	addi	a3,a3,2
    73c4:	04e781a3          	sb	a4,67(a5)
    73c8:	bf9d                	j	733e <_printf_common+0x6e>
    73ca:	4685                	li	a3,1
    73cc:	8622                	mv	a2,s0
    73ce:	85d2                	mv	a1,s4
    73d0:	854e                	mv	a0,s3
    73d2:	9a82                	jalr	s5
    73d4:	fb650ee3          	beq	a0,s6,7390 <_printf_common+0xc0>
    73d8:	0905                	addi	s2,s2,1
    73da:	b745                	j	737a <_printf_common+0xaa>

000073dc <_printf_i>:
_printf_i():
    73dc:	7179                	addi	sp,sp,-48
    73de:	d422                	sw	s0,40(sp)
    73e0:	d226                	sw	s1,36(sp)
    73e2:	d04a                	sw	s2,32(sp)
    73e4:	ce4e                	sw	s3,28(sp)
    73e6:	d606                	sw	ra,44(sp)
    73e8:	cc52                	sw	s4,24(sp)
    73ea:	ca56                	sw	s5,20(sp)
    73ec:	c85a                	sw	s6,16(sp)
    73ee:	89b6                	mv	s3,a3
    73f0:	0185c683          	lbu	a3,24(a1)
    73f4:	06900793          	li	a5,105
    73f8:	8932                	mv	s2,a2
    73fa:	84aa                	mv	s1,a0
    73fc:	842e                	mv	s0,a1
    73fe:	04358613          	addi	a2,a1,67
    7402:	02f68d63          	beq	a3,a5,743c <_printf_i+0x60>
    7406:	06d7e263          	bltu	a5,a3,746a <_printf_i+0x8e>
    740a:	05800793          	li	a5,88
    740e:	18f68963          	beq	a3,a5,75a0 <_printf_i+0x1c4>
    7412:	00d7ed63          	bltu	a5,a3,742c <_printf_i+0x50>
    7416:	22068263          	beqz	a3,763a <_printf_i+0x25e>
    741a:	04300793          	li	a5,67
    741e:	0af68f63          	beq	a3,a5,74dc <_printf_i+0x100>
    7422:	04240a93          	addi	s5,s0,66
    7426:	04d40123          	sb	a3,66(s0)
    742a:	a0d1                	j	74ee <_printf_i+0x112>
    742c:	06300793          	li	a5,99
    7430:	0af68663          	beq	a3,a5,74dc <_printf_i+0x100>
    7434:	06400793          	li	a5,100
    7438:	fef695e3          	bne	a3,a5,7422 <_printf_i+0x46>
    743c:	401c                	lw	a5,0(s0)
    743e:	4308                	lw	a0,0(a4)
    7440:	0807f693          	andi	a3,a5,128
    7444:	00450593          	addi	a1,a0,4
    7448:	c6cd                	beqz	a3,74f2 <_printf_i+0x116>
    744a:	411c                	lw	a5,0(a0)
    744c:	c30c                	sw	a1,0(a4)
    744e:	0007d863          	bgez	a5,745e <_printf_i+0x82>
    7452:	02d00713          	li	a4,45
    7456:	40f007b3          	neg	a5,a5
    745a:	04e401a3          	sb	a4,67(s0)
    745e:	00003697          	auipc	a3,0x3
    7462:	cbe68693          	addi	a3,a3,-834 # a11c <__clz_tab+0x120>
    7466:	4729                	li	a4,10
    7468:	a875                	j	7524 <_printf_i+0x148>
    746a:	07000793          	li	a5,112
    746e:	16f68563          	beq	a3,a5,75d8 <_printf_i+0x1fc>
    7472:	02d7e563          	bltu	a5,a3,749c <_printf_i+0xc0>
    7476:	06e00793          	li	a5,110
    747a:	18f68c63          	beq	a3,a5,7612 <_printf_i+0x236>
    747e:	06f00793          	li	a5,111
    7482:	faf690e3          	bne	a3,a5,7422 <_printf_i+0x46>
    7486:	400c                	lw	a1,0(s0)
    7488:	431c                	lw	a5,0(a4)
    748a:	0805f813          	andi	a6,a1,128
    748e:	00478513          	addi	a0,a5,4
    7492:	06080863          	beqz	a6,7502 <_printf_i+0x126>
    7496:	c308                	sw	a0,0(a4)
    7498:	439c                	lw	a5,0(a5)
    749a:	a895                	j	750e <_printf_i+0x132>
    749c:	07500793          	li	a5,117
    74a0:	fef683e3          	beq	a3,a5,7486 <_printf_i+0xaa>
    74a4:	07800793          	li	a5,120
    74a8:	12f68c63          	beq	a3,a5,75e0 <_printf_i+0x204>
    74ac:	07300793          	li	a5,115
    74b0:	f6f699e3          	bne	a3,a5,7422 <_printf_i+0x46>
    74b4:	431c                	lw	a5,0(a4)
    74b6:	41d0                	lw	a2,4(a1)
    74b8:	4581                	li	a1,0
    74ba:	00478693          	addi	a3,a5,4
    74be:	c314                	sw	a3,0(a4)
    74c0:	0007aa83          	lw	s5,0(a5)
    74c4:	8556                	mv	a0,s5
    74c6:	63e010ef          	jal	ra,8b04 <memchr>
    74ca:	c501                	beqz	a0,74d2 <_printf_i+0xf6>
    74cc:	41550533          	sub	a0,a0,s5
    74d0:	c048                	sw	a0,4(s0)
    74d2:	405c                	lw	a5,4(s0)
    74d4:	c81c                	sw	a5,16(s0)
    74d6:	040401a3          	sb	zero,67(s0)
    74da:	a871                	j	7576 <_printf_i+0x19a>
    74dc:	431c                	lw	a5,0(a4)
    74de:	04240a93          	addi	s5,s0,66
    74e2:	00478693          	addi	a3,a5,4
    74e6:	439c                	lw	a5,0(a5)
    74e8:	c314                	sw	a3,0(a4)
    74ea:	04f40123          	sb	a5,66(s0)
    74ee:	4785                	li	a5,1
    74f0:	b7d5                	j	74d4 <_printf_i+0xf8>
    74f2:	0407f693          	andi	a3,a5,64
    74f6:	411c                	lw	a5,0(a0)
    74f8:	c30c                	sw	a1,0(a4)
    74fa:	dab1                	beqz	a3,744e <_printf_i+0x72>
    74fc:	07c2                	slli	a5,a5,0x10
    74fe:	87c1                	srai	a5,a5,0x10
    7500:	b7b9                	j	744e <_printf_i+0x72>
    7502:	0405f593          	andi	a1,a1,64
    7506:	c308                	sw	a0,0(a4)
    7508:	d9c1                	beqz	a1,7498 <_printf_i+0xbc>
    750a:	0007d783          	lhu	a5,0(a5)
    750e:	06f00713          	li	a4,111
    7512:	0ee68863          	beq	a3,a4,7602 <_printf_i+0x226>
    7516:	00003697          	auipc	a3,0x3
    751a:	c0668693          	addi	a3,a3,-1018 # a11c <__clz_tab+0x120>
    751e:	4729                	li	a4,10
    7520:	040401a3          	sb	zero,67(s0)
    7524:	404c                	lw	a1,4(s0)
    7526:	c40c                	sw	a1,8(s0)
    7528:	0005c563          	bltz	a1,7532 <_printf_i+0x156>
    752c:	4008                	lw	a0,0(s0)
    752e:	996d                	andi	a0,a0,-5
    7530:	c008                	sw	a0,0(s0)
    7532:	e399                	bnez	a5,7538 <_printf_i+0x15c>
    7534:	8ab2                	mv	s5,a2
    7536:	cd91                	beqz	a1,7552 <_printf_i+0x176>
    7538:	8ab2                	mv	s5,a2
    753a:	02e7f5b3          	remu	a1,a5,a4
    753e:	1afd                	addi	s5,s5,-1
    7540:	95b6                	add	a1,a1,a3
    7542:	0005c583          	lbu	a1,0(a1)
    7546:	00ba8023          	sb	a1,0(s5)
    754a:	02e7d5b3          	divu	a1,a5,a4
    754e:	0ce7f063          	bgeu	a5,a4,760e <_printf_i+0x232>
    7552:	47a1                	li	a5,8
    7554:	00f71e63          	bne	a4,a5,7570 <_printf_i+0x194>
    7558:	401c                	lw	a5,0(s0)
    755a:	8b85                	andi	a5,a5,1
    755c:	cb91                	beqz	a5,7570 <_printf_i+0x194>
    755e:	4058                	lw	a4,4(s0)
    7560:	481c                	lw	a5,16(s0)
    7562:	00e7c763          	blt	a5,a4,7570 <_printf_i+0x194>
    7566:	03000793          	li	a5,48
    756a:	fefa8fa3          	sb	a5,-1(s5)
    756e:	1afd                	addi	s5,s5,-1
    7570:	41560633          	sub	a2,a2,s5
    7574:	c810                	sw	a2,16(s0)
    7576:	874e                	mv	a4,s3
    7578:	86ca                	mv	a3,s2
    757a:	0070                	addi	a2,sp,12
    757c:	85a2                	mv	a1,s0
    757e:	8526                	mv	a0,s1
    7580:	d51ff0ef          	jal	ra,72d0 <_printf_common>
    7584:	5a7d                	li	s4,-1
    7586:	0b451e63          	bne	a0,s4,7642 <_printf_i+0x266>
    758a:	557d                	li	a0,-1
    758c:	50b2                	lw	ra,44(sp)
    758e:	5422                	lw	s0,40(sp)
    7590:	5492                	lw	s1,36(sp)
    7592:	5902                	lw	s2,32(sp)
    7594:	49f2                	lw	s3,28(sp)
    7596:	4a62                	lw	s4,24(sp)
    7598:	4ad2                	lw	s5,20(sp)
    759a:	4b42                	lw	s6,16(sp)
    759c:	6145                	addi	sp,sp,48
    759e:	8082                	ret
    75a0:	04d582a3          	sb	a3,69(a1)
    75a4:	00003697          	auipc	a3,0x3
    75a8:	b7868693          	addi	a3,a3,-1160 # a11c <__clz_tab+0x120>
    75ac:	400c                	lw	a1,0(s0)
    75ae:	4308                	lw	a0,0(a4)
    75b0:	0805f813          	andi	a6,a1,128
    75b4:	411c                	lw	a5,0(a0)
    75b6:	0511                	addi	a0,a0,4
    75b8:	02080d63          	beqz	a6,75f2 <_printf_i+0x216>
    75bc:	c308                	sw	a0,0(a4)
    75be:	0015f713          	andi	a4,a1,1
    75c2:	c701                	beqz	a4,75ca <_printf_i+0x1ee>
    75c4:	0205e593          	ori	a1,a1,32
    75c8:	c00c                	sw	a1,0(s0)
    75ca:	4741                	li	a4,16
    75cc:	fbb1                	bnez	a5,7520 <_printf_i+0x144>
    75ce:	400c                	lw	a1,0(s0)
    75d0:	fdf5f593          	andi	a1,a1,-33
    75d4:	c00c                	sw	a1,0(s0)
    75d6:	b7a9                	j	7520 <_printf_i+0x144>
    75d8:	419c                	lw	a5,0(a1)
    75da:	0207e793          	ori	a5,a5,32
    75de:	c19c                	sw	a5,0(a1)
    75e0:	07800793          	li	a5,120
    75e4:	04f402a3          	sb	a5,69(s0)
    75e8:	00003697          	auipc	a3,0x3
    75ec:	b4868693          	addi	a3,a3,-1208 # a130 <__clz_tab+0x134>
    75f0:	bf75                	j	75ac <_printf_i+0x1d0>
    75f2:	0405f813          	andi	a6,a1,64
    75f6:	c308                	sw	a0,0(a4)
    75f8:	fc0803e3          	beqz	a6,75be <_printf_i+0x1e2>
    75fc:	07c2                	slli	a5,a5,0x10
    75fe:	83c1                	srli	a5,a5,0x10
    7600:	bf7d                	j	75be <_printf_i+0x1e2>
    7602:	00003697          	auipc	a3,0x3
    7606:	b1a68693          	addi	a3,a3,-1254 # a11c <__clz_tab+0x120>
    760a:	4721                	li	a4,8
    760c:	bf11                	j	7520 <_printf_i+0x144>
    760e:	87ae                	mv	a5,a1
    7610:	b72d                	j	753a <_printf_i+0x15e>
    7612:	4194                	lw	a3,0(a1)
    7614:	431c                	lw	a5,0(a4)
    7616:	49cc                	lw	a1,20(a1)
    7618:	0806f813          	andi	a6,a3,128
    761c:	00478513          	addi	a0,a5,4
    7620:	00080663          	beqz	a6,762c <_printf_i+0x250>
    7624:	c308                	sw	a0,0(a4)
    7626:	439c                	lw	a5,0(a5)
    7628:	c38c                	sw	a1,0(a5)
    762a:	a801                	j	763a <_printf_i+0x25e>
    762c:	c308                	sw	a0,0(a4)
    762e:	0406f693          	andi	a3,a3,64
    7632:	439c                	lw	a5,0(a5)
    7634:	daf5                	beqz	a3,7628 <_printf_i+0x24c>
    7636:	00b79023          	sh	a1,0(a5)
    763a:	00042823          	sw	zero,16(s0)
    763e:	8ab2                	mv	s5,a2
    7640:	bf1d                	j	7576 <_printf_i+0x19a>
    7642:	4814                	lw	a3,16(s0)
    7644:	8656                	mv	a2,s5
    7646:	85ca                	mv	a1,s2
    7648:	8526                	mv	a0,s1
    764a:	9982                	jalr	s3
    764c:	f3450fe3          	beq	a0,s4,758a <_printf_i+0x1ae>
    7650:	401c                	lw	a5,0(s0)
    7652:	8b89                	andi	a5,a5,2
    7654:	e78d                	bnez	a5,767e <_printf_i+0x2a2>
    7656:	47b2                	lw	a5,12(sp)
    7658:	4448                	lw	a0,12(s0)
    765a:	f2f559e3          	bge	a0,a5,758c <_printf_i+0x1b0>
    765e:	853e                	mv	a0,a5
    7660:	b735                	j	758c <_printf_i+0x1b0>
    7662:	4685                	li	a3,1
    7664:	8656                	mv	a2,s5
    7666:	85ca                	mv	a1,s2
    7668:	8526                	mv	a0,s1
    766a:	9982                	jalr	s3
    766c:	f1650fe3          	beq	a0,s6,758a <_printf_i+0x1ae>
    7670:	0a05                	addi	s4,s4,1
    7672:	445c                	lw	a5,12(s0)
    7674:	4732                	lw	a4,12(sp)
    7676:	8f99                	sub	a5,a5,a4
    7678:	fefa45e3          	blt	s4,a5,7662 <_printf_i+0x286>
    767c:	bfe9                	j	7656 <_printf_i+0x27a>
    767e:	4a01                	li	s4,0
    7680:	01940a93          	addi	s5,s0,25
    7684:	5b7d                	li	s6,-1
    7686:	b7f5                	j	7672 <_printf_i+0x296>

00007688 <iprintf>:
printf():
    7688:	7139                	addi	sp,sp,-64
    768a:	da3e                	sw	a5,52(sp)
    768c:	d22e                	sw	a1,36(sp)
    768e:	d432                	sw	a2,40(sp)
    7690:	d636                	sw	a3,44(sp)
    7692:	d83a                	sw	a4,48(sp)
    7694:	dc42                	sw	a6,56(sp)
    7696:	de46                	sw	a7,60(sp)
    7698:	81418793          	addi	a5,gp,-2028 # 20000244 <_impure_ptr>
    769c:	cc22                	sw	s0,24(sp)
    769e:	4380                	lw	s0,0(a5)
    76a0:	ca26                	sw	s1,20(sp)
    76a2:	ce06                	sw	ra,28(sp)
    76a4:	84aa                	mv	s1,a0
    76a6:	c411                	beqz	s0,76b2 <iprintf+0x2a>
    76a8:	4c1c                	lw	a5,24(s0)
    76aa:	e781                	bnez	a5,76b2 <iprintf+0x2a>
    76ac:	8522                	mv	a0,s0
    76ae:	1be010ef          	jal	ra,886c <__sinit>
    76b2:	440c                	lw	a1,8(s0)
    76b4:	1054                	addi	a3,sp,36
    76b6:	8626                	mv	a2,s1
    76b8:	8522                	mv	a0,s0
    76ba:	c636                	sw	a3,12(sp)
    76bc:	561010ef          	jal	ra,941c <_vfiprintf_r>
    76c0:	40f2                	lw	ra,28(sp)
    76c2:	4462                	lw	s0,24(sp)
    76c4:	44d2                	lw	s1,20(sp)
    76c6:	6121                	addi	sp,sp,64
    76c8:	8082                	ret

000076ca <strlen>:
strlen():
    76ca:	87aa                	mv	a5,a0
    76cc:	0785                	addi	a5,a5,1
    76ce:	fff7c703          	lbu	a4,-1(a5)
    76d2:	ff6d                	bnez	a4,76cc <strlen+0x2>
    76d4:	40a78533          	sub	a0,a5,a0
    76d8:	157d                	addi	a0,a0,-1
    76da:	8082                	ret

000076dc <__swbuf_r>:
__swbuf_r():
    76dc:	1101                	addi	sp,sp,-32
    76de:	cc22                	sw	s0,24(sp)
    76e0:	ca26                	sw	s1,20(sp)
    76e2:	c84a                	sw	s2,16(sp)
    76e4:	ce06                	sw	ra,28(sp)
    76e6:	c64e                	sw	s3,12(sp)
    76e8:	84aa                	mv	s1,a0
    76ea:	892e                	mv	s2,a1
    76ec:	8432                	mv	s0,a2
    76ee:	c509                	beqz	a0,76f8 <__swbuf_r+0x1c>
    76f0:	4d1c                	lw	a5,24(a0)
    76f2:	e399                	bnez	a5,76f8 <__swbuf_r+0x1c>
    76f4:	178010ef          	jal	ra,886c <__sinit>
    76f8:	00003797          	auipc	a5,0x3
    76fc:	ac878793          	addi	a5,a5,-1336 # a1c0 <__sf_fake_stdin>
    7700:	06f41b63          	bne	s0,a5,7776 <__swbuf_r+0x9a>
    7704:	40c0                	lw	s0,4(s1)
    7706:	4c1c                	lw	a5,24(s0)
    7708:	c41c                	sw	a5,8(s0)
    770a:	00c45783          	lhu	a5,12(s0)
    770e:	8ba1                	andi	a5,a5,8
    7710:	c3d9                	beqz	a5,7796 <__swbuf_r+0xba>
    7712:	481c                	lw	a5,16(s0)
    7714:	c3c9                	beqz	a5,7796 <__swbuf_r+0xba>
    7716:	481c                	lw	a5,16(s0)
    7718:	4008                	lw	a0,0(s0)
    771a:	0ff97993          	andi	s3,s2,255
    771e:	0ff97913          	andi	s2,s2,255
    7722:	8d1d                	sub	a0,a0,a5
    7724:	485c                	lw	a5,20(s0)
    7726:	00f54763          	blt	a0,a5,7734 <__swbuf_r+0x58>
    772a:	85a2                	mv	a1,s0
    772c:	8526                	mv	a0,s1
    772e:	01c010ef          	jal	ra,874a <_fflush_r>
    7732:	e535                	bnez	a0,779e <__swbuf_r+0xc2>
    7734:	441c                	lw	a5,8(s0)
    7736:	0505                	addi	a0,a0,1
    7738:	17fd                	addi	a5,a5,-1
    773a:	c41c                	sw	a5,8(s0)
    773c:	401c                	lw	a5,0(s0)
    773e:	00178713          	addi	a4,a5,1
    7742:	c018                	sw	a4,0(s0)
    7744:	01378023          	sb	s3,0(a5)
    7748:	485c                	lw	a5,20(s0)
    774a:	00a78963          	beq	a5,a0,775c <__swbuf_r+0x80>
    774e:	00c45783          	lhu	a5,12(s0)
    7752:	8b85                	andi	a5,a5,1
    7754:	cb89                	beqz	a5,7766 <__swbuf_r+0x8a>
    7756:	47a9                	li	a5,10
    7758:	00f91763          	bne	s2,a5,7766 <__swbuf_r+0x8a>
    775c:	85a2                	mv	a1,s0
    775e:	8526                	mv	a0,s1
    7760:	7eb000ef          	jal	ra,874a <_fflush_r>
    7764:	ed0d                	bnez	a0,779e <__swbuf_r+0xc2>
    7766:	40f2                	lw	ra,28(sp)
    7768:	4462                	lw	s0,24(sp)
    776a:	854a                	mv	a0,s2
    776c:	44d2                	lw	s1,20(sp)
    776e:	4942                	lw	s2,16(sp)
    7770:	49b2                	lw	s3,12(sp)
    7772:	6105                	addi	sp,sp,32
    7774:	8082                	ret
    7776:	00003797          	auipc	a5,0x3
    777a:	a6a78793          	addi	a5,a5,-1430 # a1e0 <__sf_fake_stdout>
    777e:	00f41463          	bne	s0,a5,7786 <__swbuf_r+0xaa>
    7782:	4480                	lw	s0,8(s1)
    7784:	b749                	j	7706 <__swbuf_r+0x2a>
    7786:	00003797          	auipc	a5,0x3
    778a:	a1a78793          	addi	a5,a5,-1510 # a1a0 <__sf_fake_stderr>
    778e:	f6f41ce3          	bne	s0,a5,7706 <__swbuf_r+0x2a>
    7792:	44c0                	lw	s0,12(s1)
    7794:	bf8d                	j	7706 <__swbuf_r+0x2a>
    7796:	85a2                	mv	a1,s0
    7798:	8526                	mv	a0,s1
    779a:	2021                	jal	77a2 <__swsetup_r>
    779c:	dd2d                	beqz	a0,7716 <__swbuf_r+0x3a>
    779e:	597d                	li	s2,-1
    77a0:	b7d9                	j	7766 <__swbuf_r+0x8a>

000077a2 <__swsetup_r>:
__swsetup_r():
    77a2:	1141                	addi	sp,sp,-16
    77a4:	81418793          	addi	a5,gp,-2028 # 20000244 <_impure_ptr>
    77a8:	c226                	sw	s1,4(sp)
    77aa:	4384                	lw	s1,0(a5)
    77ac:	c422                	sw	s0,8(sp)
    77ae:	c04a                	sw	s2,0(sp)
    77b0:	c606                	sw	ra,12(sp)
    77b2:	892a                	mv	s2,a0
    77b4:	842e                	mv	s0,a1
    77b6:	c491                	beqz	s1,77c2 <__swsetup_r+0x20>
    77b8:	4c9c                	lw	a5,24(s1)
    77ba:	e781                	bnez	a5,77c2 <__swsetup_r+0x20>
    77bc:	8526                	mv	a0,s1
    77be:	0ae010ef          	jal	ra,886c <__sinit>
    77c2:	00003797          	auipc	a5,0x3
    77c6:	9fe78793          	addi	a5,a5,-1538 # a1c0 <__sf_fake_stdin>
    77ca:	02f41c63          	bne	s0,a5,7802 <__swsetup_r+0x60>
    77ce:	40c0                	lw	s0,4(s1)
    77d0:	00c41703          	lh	a4,12(s0)
    77d4:	01071793          	slli	a5,a4,0x10
    77d8:	83c1                	srli	a5,a5,0x10
    77da:	0087f693          	andi	a3,a5,8
    77de:	eebd                	bnez	a3,785c <__swsetup_r+0xba>
    77e0:	0107f693          	andi	a3,a5,16
    77e4:	ee9d                	bnez	a3,7822 <__swsetup_r+0x80>
    77e6:	47a5                	li	a5,9
    77e8:	00f92023          	sw	a5,0(s2) # 800000 <_data_lma+0x7f5bdc>
    77ec:	04076713          	ori	a4,a4,64
    77f0:	00e41623          	sh	a4,12(s0)
    77f4:	557d                	li	a0,-1
    77f6:	40b2                	lw	ra,12(sp)
    77f8:	4422                	lw	s0,8(sp)
    77fa:	4492                	lw	s1,4(sp)
    77fc:	4902                	lw	s2,0(sp)
    77fe:	0141                	addi	sp,sp,16
    7800:	8082                	ret
    7802:	00003797          	auipc	a5,0x3
    7806:	9de78793          	addi	a5,a5,-1570 # a1e0 <__sf_fake_stdout>
    780a:	00f41463          	bne	s0,a5,7812 <__swsetup_r+0x70>
    780e:	4480                	lw	s0,8(s1)
    7810:	b7c1                	j	77d0 <__swsetup_r+0x2e>
    7812:	00003797          	auipc	a5,0x3
    7816:	98e78793          	addi	a5,a5,-1650 # a1a0 <__sf_fake_stderr>
    781a:	faf41be3          	bne	s0,a5,77d0 <__swsetup_r+0x2e>
    781e:	44c0                	lw	s0,12(s1)
    7820:	bf45                	j	77d0 <__swsetup_r+0x2e>
    7822:	8b91                	andi	a5,a5,4
    7824:	c795                	beqz	a5,7850 <__swsetup_r+0xae>
    7826:	584c                	lw	a1,52(s0)
    7828:	c991                	beqz	a1,783c <__swsetup_r+0x9a>
    782a:	04440793          	addi	a5,s0,68
    782e:	00f58563          	beq	a1,a5,7838 <__swsetup_r+0x96>
    7832:	854a                	mv	a0,s2
    7834:	209010ef          	jal	ra,923c <_free_r>
    7838:	02042a23          	sw	zero,52(s0)
    783c:	00c45783          	lhu	a5,12(s0)
    7840:	00042223          	sw	zero,4(s0)
    7844:	fdb7f793          	andi	a5,a5,-37
    7848:	00f41623          	sh	a5,12(s0)
    784c:	481c                	lw	a5,16(s0)
    784e:	c01c                	sw	a5,0(s0)
    7850:	00c45783          	lhu	a5,12(s0)
    7854:	0087e793          	ori	a5,a5,8
    7858:	00f41623          	sh	a5,12(s0)
    785c:	481c                	lw	a5,16(s0)
    785e:	ef89                	bnez	a5,7878 <__swsetup_r+0xd6>
    7860:	00c45783          	lhu	a5,12(s0)
    7864:	20000713          	li	a4,512
    7868:	2807f793          	andi	a5,a5,640
    786c:	00e78663          	beq	a5,a4,7878 <__swsetup_r+0xd6>
    7870:	85a2                	mv	a1,s0
    7872:	854a                	mv	a0,s2
    7874:	1e2010ef          	jal	ra,8a56 <__smakebuf_r>
    7878:	00c45783          	lhu	a5,12(s0)
    787c:	0017f713          	andi	a4,a5,1
    7880:	c705                	beqz	a4,78a8 <__swsetup_r+0x106>
    7882:	485c                	lw	a5,20(s0)
    7884:	00042423          	sw	zero,8(s0)
    7888:	40f007b3          	neg	a5,a5
    788c:	cc1c                	sw	a5,24(s0)
    788e:	481c                	lw	a5,16(s0)
    7890:	4501                	li	a0,0
    7892:	f3b5                	bnez	a5,77f6 <__swsetup_r+0x54>
    7894:	00c41783          	lh	a5,12(s0)
    7898:	0807f713          	andi	a4,a5,128
    789c:	df29                	beqz	a4,77f6 <__swsetup_r+0x54>
    789e:	0407e793          	ori	a5,a5,64
    78a2:	00f41623          	sh	a5,12(s0)
    78a6:	b7b9                	j	77f4 <__swsetup_r+0x52>
    78a8:	8b89                	andi	a5,a5,2
    78aa:	4701                	li	a4,0
    78ac:	e391                	bnez	a5,78b0 <__swsetup_r+0x10e>
    78ae:	4858                	lw	a4,20(s0)
    78b0:	c418                	sw	a4,8(s0)
    78b2:	bff1                	j	788e <__swsetup_r+0xec>

000078b4 <quorem>:
quorem():
    78b4:	1101                	addi	sp,sp,-32
    78b6:	cc22                	sw	s0,24(sp)
    78b8:	491c                	lw	a5,16(a0)
    78ba:	4980                	lw	s0,16(a1)
    78bc:	ce06                	sw	ra,28(sp)
    78be:	ca26                	sw	s1,20(sp)
    78c0:	c84a                	sw	s2,16(sp)
    78c2:	c64e                	sw	s3,12(sp)
    78c4:	c452                	sw	s4,8(sp)
    78c6:	c256                	sw	s5,4(sp)
    78c8:	1287c163          	blt	a5,s0,79ea <quorem+0x136>
    78cc:	147d                	addi	s0,s0,-1
    78ce:	00241813          	slli	a6,s0,0x2
    78d2:	01458993          	addi	s3,a1,20
    78d6:	01098a33          	add	s4,s3,a6
    78da:	01450913          	addi	s2,a0,20
    78de:	984a                	add	a6,a6,s2
    78e0:	000a2783          	lw	a5,0(s4)
    78e4:	00082703          	lw	a4,0(a6)
    78e8:	0785                	addi	a5,a5,1
    78ea:	02f754b3          	divu	s1,a4,a5
    78ee:	06f76663          	bltu	a4,a5,795a <quorem+0xa6>
    78f2:	68c1                	lui	a7,0x10
    78f4:	834e                	mv	t1,s3
    78f6:	8e4a                	mv	t3,s2
    78f8:	4e81                	li	t4,0
    78fa:	4f01                	li	t5,0
    78fc:	18fd                	addi	a7,a7,-1
    78fe:	0311                	addi	t1,t1,4
    7900:	ffc32603          	lw	a2,-4(t1)
    7904:	0e11                	addi	t3,t3,4
    7906:	01167733          	and	a4,a2,a7
    790a:	8241                	srli	a2,a2,0x10
    790c:	02970733          	mul	a4,a4,s1
    7910:	02960633          	mul	a2,a2,s1
    7914:	9776                	add	a4,a4,t4
    7916:	01075693          	srli	a3,a4,0x10
    791a:	011777b3          	and	a5,a4,a7
    791e:	40ff07b3          	sub	a5,t5,a5
    7922:	9636                	add	a2,a2,a3
    7924:	ffce2683          	lw	a3,-4(t3)
    7928:	01065e93          	srli	t4,a2,0x10
    792c:	01167633          	and	a2,a2,a7
    7930:	0116f733          	and	a4,a3,a7
    7934:	97ba                	add	a5,a5,a4
    7936:	82c1                	srli	a3,a3,0x10
    7938:	4107d713          	srai	a4,a5,0x10
    793c:	8e91                	sub	a3,a3,a2
    793e:	96ba                	add	a3,a3,a4
    7940:	4106df13          	srai	t5,a3,0x10
    7944:	0117f7b3          	and	a5,a5,a7
    7948:	06c2                	slli	a3,a3,0x10
    794a:	8fd5                	or	a5,a5,a3
    794c:	fefe2e23          	sw	a5,-4(t3)
    7950:	fa6a77e3          	bgeu	s4,t1,78fe <quorem+0x4a>
    7954:	00082783          	lw	a5,0(a6)
    7958:	cbbd                	beqz	a5,79ce <quorem+0x11a>
    795a:	8aaa                	mv	s5,a0
    795c:	6c2010ef          	jal	ra,901e <__mcmp>
    7960:	04054963          	bltz	a0,79b2 <quorem+0xfe>
    7964:	6641                	lui	a2,0x10
    7966:	0485                	addi	s1,s1,1
    7968:	85ca                	mv	a1,s2
    796a:	4501                	li	a0,0
    796c:	167d                	addi	a2,a2,-1
    796e:	0991                	addi	s3,s3,4
    7970:	ffc9a803          	lw	a6,-4(s3)
    7974:	4198                	lw	a4,0(a1)
    7976:	0591                	addi	a1,a1,4
    7978:	00c876b3          	and	a3,a6,a2
    797c:	8d15                	sub	a0,a0,a3
    797e:	00c776b3          	and	a3,a4,a2
    7982:	96aa                	add	a3,a3,a0
    7984:	01075793          	srli	a5,a4,0x10
    7988:	01085813          	srli	a6,a6,0x10
    798c:	4106d713          	srai	a4,a3,0x10
    7990:	410787b3          	sub	a5,a5,a6
    7994:	97ba                	add	a5,a5,a4
    7996:	4107d513          	srai	a0,a5,0x10
    799a:	8ef1                	and	a3,a3,a2
    799c:	07c2                	slli	a5,a5,0x10
    799e:	8fd5                	or	a5,a5,a3
    79a0:	fef5ae23          	sw	a5,-4(a1)
    79a4:	fd3a75e3          	bgeu	s4,s3,796e <quorem+0xba>
    79a8:	00241793          	slli	a5,s0,0x2
    79ac:	97ca                	add	a5,a5,s2
    79ae:	4398                	lw	a4,0(a5)
    79b0:	c71d                	beqz	a4,79de <quorem+0x12a>
    79b2:	8526                	mv	a0,s1
    79b4:	40f2                	lw	ra,28(sp)
    79b6:	4462                	lw	s0,24(sp)
    79b8:	44d2                	lw	s1,20(sp)
    79ba:	4942                	lw	s2,16(sp)
    79bc:	49b2                	lw	s3,12(sp)
    79be:	4a22                	lw	s4,8(sp)
    79c0:	4a92                	lw	s5,4(sp)
    79c2:	6105                	addi	sp,sp,32
    79c4:	8082                	ret
    79c6:	00082783          	lw	a5,0(a6)
    79ca:	e789                	bnez	a5,79d4 <quorem+0x120>
    79cc:	147d                	addi	s0,s0,-1
    79ce:	1871                	addi	a6,a6,-4
    79d0:	ff096be3          	bltu	s2,a6,79c6 <quorem+0x112>
    79d4:	c900                	sw	s0,16(a0)
    79d6:	b751                	j	795a <quorem+0xa6>
    79d8:	4398                	lw	a4,0(a5)
    79da:	e709                	bnez	a4,79e4 <quorem+0x130>
    79dc:	147d                	addi	s0,s0,-1
    79de:	17f1                	addi	a5,a5,-4
    79e0:	fef96ce3          	bltu	s2,a5,79d8 <quorem+0x124>
    79e4:	008aa823          	sw	s0,16(s5)
    79e8:	b7e9                	j	79b2 <quorem+0xfe>
    79ea:	4501                	li	a0,0
    79ec:	b7e1                	j	79b4 <quorem+0x100>

000079ee <_dtoa_r>:
_dtoa_r():
    79ee:	7175                	addi	sp,sp,-144
    79f0:	d83e                	sw	a5,48(sp)
    79f2:	515c                	lw	a5,36(a0)
    79f4:	c522                	sw	s0,136(sp)
    79f6:	c326                	sw	s1,132(sp)
    79f8:	c14a                	sw	s2,128(sp)
    79fa:	dece                	sw	s3,124(sp)
    79fc:	dcd2                	sw	s4,120(sp)
    79fe:	d4e2                	sw	s8,104(sp)
    7a00:	c706                	sw	ra,140(sp)
    7a02:	dad6                	sw	s5,116(sp)
    7a04:	d8da                	sw	s6,112(sp)
    7a06:	d6de                	sw	s7,108(sp)
    7a08:	d2e6                	sw	s9,100(sp)
    7a0a:	d0ea                	sw	s10,96(sp)
    7a0c:	ceee                	sw	s11,92(sp)
    7a0e:	c236                	sw	a3,4(sp)
    7a10:	c63a                	sw	a4,12(sp)
    7a12:	ca46                	sw	a7,20(sp)
    7a14:	84aa                	mv	s1,a0
    7a16:	842e                	mv	s0,a1
    7a18:	8932                	mv	s2,a2
    7a1a:	89c2                	mv	s3,a6
    7a1c:	8a2e                	mv	s4,a1
    7a1e:	8c32                	mv	s8,a2
    7a20:	ef89                	bnez	a5,7a3a <_dtoa_r+0x4c>
    7a22:	4541                	li	a0,16
    7a24:	0d4010ef          	jal	ra,8af8 <malloc>
    7a28:	d0c8                	sw	a0,36(s1)
    7a2a:	00052223          	sw	zero,4(a0)
    7a2e:	00052423          	sw	zero,8(a0)
    7a32:	00052023          	sw	zero,0(a0)
    7a36:	00052623          	sw	zero,12(a0)
    7a3a:	50dc                	lw	a5,36(s1)
    7a3c:	438c                	lw	a1,0(a5)
    7a3e:	cd89                	beqz	a1,7a58 <_dtoa_r+0x6a>
    7a40:	43d8                	lw	a4,4(a5)
    7a42:	4785                	li	a5,1
    7a44:	8526                	mv	a0,s1
    7a46:	00e797b3          	sll	a5,a5,a4
    7a4a:	c59c                	sw	a5,8(a1)
    7a4c:	c1d8                	sw	a4,4(a1)
    7a4e:	158010ef          	jal	ra,8ba6 <_Bfree>
    7a52:	50dc                	lw	a5,36(s1)
    7a54:	0007a023          	sw	zero,0(a5)
    7a58:	04095363          	bgez	s2,7a9e <_dtoa_r+0xb0>
    7a5c:	4785                	li	a5,1
    7a5e:	00191c13          	slli	s8,s2,0x1
    7a62:	00f9a023          	sw	a5,0(s3)
    7a66:	001c5c13          	srli	s8,s8,0x1
    7a6a:	7ff007b7          	lui	a5,0x7ff00
    7a6e:	00fc7733          	and	a4,s8,a5
    7a72:	06f71463          	bne	a4,a5,7ada <_dtoa_r+0xec>
    7a76:	5742                	lw	a4,48(sp)
    7a78:	6789                	lui	a5,0x2
    7a7a:	0c32                	slli	s8,s8,0xc
    7a7c:	70f78793          	addi	a5,a5,1807 # 270f <SPI_Init+0x4f>
    7a80:	00cc5c13          	srli	s8,s8,0xc
    7a84:	c31c                	sw	a5,0(a4)
    7a86:	008c6c33          	or	s8,s8,s0
    7a8a:	320c05e3          	beqz	s8,85b4 <_dtoa_r+0xbc6>
    7a8e:	47d2                	lw	a5,20(sp)
    7a90:	eb91                	bnez	a5,7aa4 <_dtoa_r+0xb6>
    7a92:	00002797          	auipc	a5,0x2
    7a96:	70a78793          	addi	a5,a5,1802 # a19c <__clz_tab+0x1a0>
    7a9a:	c03e                	sw	a5,0(sp)
    7a9c:	a839                	j	7aba <_dtoa_r+0xcc>
    7a9e:	0009a023          	sw	zero,0(s3)
    7aa2:	b7e1                	j	7a6a <_dtoa_r+0x7c>
    7aa4:	00002797          	auipc	a5,0x2
    7aa8:	6f878793          	addi	a5,a5,1784 # a19c <__clz_tab+0x1a0>
    7aac:	c03e                	sw	a5,0(sp)
    7aae:	00002797          	auipc	a5,0x2
    7ab2:	6f178793          	addi	a5,a5,1777 # a19f <__clz_tab+0x1a3>
    7ab6:	4752                	lw	a4,20(sp)
    7ab8:	c31c                	sw	a5,0(a4)
    7aba:	40ba                	lw	ra,140(sp)
    7abc:	442a                	lw	s0,136(sp)
    7abe:	4502                	lw	a0,0(sp)
    7ac0:	449a                	lw	s1,132(sp)
    7ac2:	490a                	lw	s2,128(sp)
    7ac4:	59f6                	lw	s3,124(sp)
    7ac6:	5a66                	lw	s4,120(sp)
    7ac8:	5ad6                	lw	s5,116(sp)
    7aca:	5b46                	lw	s6,112(sp)
    7acc:	5bb6                	lw	s7,108(sp)
    7ace:	5c26                	lw	s8,104(sp)
    7ad0:	5c96                	lw	s9,100(sp)
    7ad2:	5d06                	lw	s10,96(sp)
    7ad4:	4df6                	lw	s11,92(sp)
    7ad6:	6149                	addi	sp,sp,144
    7ad8:	8082                	ret
    7ada:	4601                	li	a2,0
    7adc:	4681                	li	a3,0
    7ade:	8522                	mv	a0,s0
    7ae0:	85e2                	mv	a1,s8
    7ae2:	ce22                	sw	s0,28(sp)
    7ae4:	d462                	sw	s8,40(sp)
    7ae6:	a96fe0ef          	jal	ra,5d7c <__eqdf2>
    7aea:	e105                	bnez	a0,7b0a <_dtoa_r+0x11c>
    7aec:	5742                	lw	a4,48(sp)
    7aee:	4785                	li	a5,1
    7af0:	c31c                	sw	a5,0(a4)
    7af2:	00002797          	auipc	a5,0x2
    7af6:	62678793          	addi	a5,a5,1574 # a118 <__clz_tab+0x11c>
    7afa:	c03e                	sw	a5,0(sp)
    7afc:	47d2                	lw	a5,20(sp)
    7afe:	dfd5                	beqz	a5,7aba <_dtoa_r+0xcc>
    7b00:	00002797          	auipc	a5,0x2
    7b04:	61978793          	addi	a5,a5,1561 # a119 <__clz_tab+0x11d>
    7b08:	b77d                	j	7ab6 <_dtoa_r+0xc8>
    7b0a:	00b8                	addi	a4,sp,72
    7b0c:	00f4                	addi	a3,sp,76
    7b0e:	8662                	mv	a2,s8
    7b10:	85a2                	mv	a1,s0
    7b12:	8526                	mv	a0,s1
    7b14:	014c5913          	srli	s2,s8,0x14
    7b18:	62a010ef          	jal	ra,9142 <__d2b>
    7b1c:	7ff97913          	andi	s2,s2,2047
    7b20:	89aa                	mv	s3,a0
    7b22:	4aa6                	lw	s5,72(sp)
    7b24:	10090d63          	beqz	s2,7c3e <_dtoa_r+0x250>
    7b28:	57a2                	lw	a5,40(sp)
    7b2a:	4572                	lw	a0,28(sp)
    7b2c:	c0190913          	addi	s2,s2,-1023
    7b30:	00c79593          	slli	a1,a5,0xc
    7b34:	81b1                	srli	a1,a1,0xc
    7b36:	3ff007b7          	lui	a5,0x3ff00
    7b3a:	8ddd                	or	a1,a1,a5
    7b3c:	dc02                	sw	zero,56(sp)
    7b3e:	00002797          	auipc	a5,0x2
    7b42:	60a78793          	addi	a5,a5,1546 # a148 <__clz_tab+0x14c>
    7b46:	4390                	lw	a2,0(a5)
    7b48:	43d4                	lw	a3,4(a5)
    7b4a:	80bfe0ef          	jal	ra,6354 <__subdf3>
    7b4e:	00002797          	auipc	a5,0x2
    7b52:	60278793          	addi	a5,a5,1538 # a150 <__clz_tab+0x154>
    7b56:	4390                	lw	a2,0(a5)
    7b58:	43d4                	lw	a3,4(a5)
    7b5a:	b42fe0ef          	jal	ra,5e9c <__muldf3>
    7b5e:	00002797          	auipc	a5,0x2
    7b62:	5fa78793          	addi	a5,a5,1530 # a158 <__clz_tab+0x15c>
    7b66:	4390                	lw	a2,0(a5)
    7b68:	43d4                	lw	a3,4(a5)
    7b6a:	d2efd0ef          	jal	ra,5098 <__adddf3>
    7b6e:	8b2a                	mv	s6,a0
    7b70:	854a                	mv	a0,s2
    7b72:	8bae                	mv	s7,a1
    7b74:	f83fe0ef          	jal	ra,6af6 <__floatsidf>
    7b78:	00002797          	auipc	a5,0x2
    7b7c:	5e878793          	addi	a5,a5,1512 # a160 <__clz_tab+0x164>
    7b80:	4390                	lw	a2,0(a5)
    7b82:	43d4                	lw	a3,4(a5)
    7b84:	b18fe0ef          	jal	ra,5e9c <__muldf3>
    7b88:	862a                	mv	a2,a0
    7b8a:	86ae                	mv	a3,a1
    7b8c:	855a                	mv	a0,s6
    7b8e:	85de                	mv	a1,s7
    7b90:	d08fd0ef          	jal	ra,5098 <__adddf3>
    7b94:	8b2a                	mv	s6,a0
    7b96:	8bae                	mv	s7,a1
    7b98:	ef7fe0ef          	jal	ra,6a8e <__fixdfsi>
    7b9c:	842a                	mv	s0,a0
    7b9e:	4601                	li	a2,0
    7ba0:	4681                	li	a3,0
    7ba2:	855a                	mv	a0,s6
    7ba4:	85de                	mv	a1,s7
    7ba6:	a40fe0ef          	jal	ra,5de6 <__ledf2>
    7baa:	00055b63          	bgez	a0,7bc0 <_dtoa_r+0x1d2>
    7bae:	8522                	mv	a0,s0
    7bb0:	f47fe0ef          	jal	ra,6af6 <__floatsidf>
    7bb4:	865a                	mv	a2,s6
    7bb6:	86de                	mv	a3,s7
    7bb8:	9c4fe0ef          	jal	ra,5d7c <__eqdf2>
    7bbc:	c111                	beqz	a0,7bc0 <_dtoa_r+0x1d2>
    7bbe:	147d                	addi	s0,s0,-1
    7bc0:	4705                	li	a4,1
    7bc2:	47d9                	li	a5,22
    7bc4:	d63a                	sw	a4,44(sp)
    7bc6:	0287e363          	bltu	a5,s0,7bec <_dtoa_r+0x1fe>
    7bca:	00341713          	slli	a4,s0,0x3
    7bce:	00002797          	auipc	a5,0x2
    7bd2:	65a78793          	addi	a5,a5,1626 # a228 <__mprec_tens>
    7bd6:	97ba                	add	a5,a5,a4
    7bd8:	4390                	lw	a2,0(a5)
    7bda:	43d4                	lw	a3,4(a5)
    7bdc:	4572                	lw	a0,28(sp)
    7bde:	55a2                	lw	a1,40(sp)
    7be0:	a06fe0ef          	jal	ra,5de6 <__ledf2>
    7be4:	00055363          	bgez	a0,7bea <_dtoa_r+0x1fc>
    7be8:	147d                	addi	s0,s0,-1
    7bea:	d602                	sw	zero,44(sp)
    7bec:	412a8933          	sub	s2,s5,s2
    7bf0:	fff90b93          	addi	s7,s2,-1
    7bf4:	4b01                	li	s6,0
    7bf6:	000bd663          	bgez	s7,7c02 <_dtoa_r+0x214>
    7bfa:	4b05                	li	s6,1
    7bfc:	412b0b33          	sub	s6,s6,s2
    7c00:	4b81                	li	s7,0
    7c02:	06044e63          	bltz	s0,7c7e <_dtoa_r+0x290>
    7c06:	9ba2                	add	s7,s7,s0
    7c08:	cc22                	sw	s0,24(sp)
    7c0a:	4a81                	li	s5,0
    7c0c:	4712                	lw	a4,4(sp)
    7c0e:	47a5                	li	a5,9
    7c10:	14e7e563          	bltu	a5,a4,7d5a <_dtoa_r+0x36c>
    7c14:	4795                	li	a5,5
    7c16:	4c85                	li	s9,1
    7c18:	00e7d663          	bge	a5,a4,7c24 <_dtoa_r+0x236>
    7c1c:	ffc70793          	addi	a5,a4,-4
    7c20:	c23e                	sw	a5,4(sp)
    7c22:	4c81                	li	s9,0
    7c24:	4712                	lw	a4,4(sp)
    7c26:	478d                	li	a5,3
    7c28:	10f70e63          	beq	a4,a5,7d44 <_dtoa_r+0x356>
    7c2c:	04e7cf63          	blt	a5,a4,7c8a <_dtoa_r+0x29c>
    7c30:	4789                	li	a5,2
    7c32:	c802                	sw	zero,16(sp)
    7c34:	06f70d63          	beq	a4,a5,7cae <_dtoa_r+0x2c0>
    7c38:	4785                	li	a5,1
    7c3a:	c83e                	sw	a5,16(sp)
    7c3c:	a08d                	j	7c9e <_dtoa_r+0x2b0>
    7c3e:	4936                	lw	s2,76(sp)
    7c40:	02000793          	li	a5,32
    7c44:	9956                	add	s2,s2,s5
    7c46:	43290713          	addi	a4,s2,1074
    7c4a:	02e7d563          	bge	a5,a4,7c74 <_dtoa_r+0x286>
    7c4e:	04000513          	li	a0,64
    7c52:	8d19                	sub	a0,a0,a4
    7c54:	41290793          	addi	a5,s2,1042
    7c58:	00ac1533          	sll	a0,s8,a0
    7c5c:	00f45433          	srl	s0,s0,a5
    7c60:	8d41                	or	a0,a0,s0
    7c62:	585010ef          	jal	ra,99e6 <__floatunsidf>
    7c66:	fe1007b7          	lui	a5,0xfe100
    7c6a:	95be                	add	a1,a1,a5
    7c6c:	4785                	li	a5,1
    7c6e:	197d                	addi	s2,s2,-1
    7c70:	dc3e                	sw	a5,56(sp)
    7c72:	b5f1                	j	7b3e <_dtoa_r+0x150>
    7c74:	40e78533          	sub	a0,a5,a4
    7c78:	00a41533          	sll	a0,s0,a0
    7c7c:	b7dd                	j	7c62 <_dtoa_r+0x274>
    7c7e:	408b0b33          	sub	s6,s6,s0
    7c82:	40800ab3          	neg	s5,s0
    7c86:	cc02                	sw	zero,24(sp)
    7c88:	b751                	j	7c0c <_dtoa_r+0x21e>
    7c8a:	4712                	lw	a4,4(sp)
    7c8c:	4791                	li	a5,4
    7c8e:	00f70e63          	beq	a4,a5,7caa <_dtoa_r+0x2bc>
    7c92:	4705                	li	a4,1
    7c94:	c83a                	sw	a4,16(sp)
    7c96:	4712                	lw	a4,4(sp)
    7c98:	4795                	li	a5,5
    7c9a:	0af70663          	beq	a4,a5,7d46 <_dtoa_r+0x358>
    7c9e:	57fd                	li	a5,-1
    7ca0:	c43e                	sw	a5,8(sp)
    7ca2:	5dfd                	li	s11,-1
    7ca4:	47c9                	li	a5,18
    7ca6:	c602                	sw	zero,12(sp)
    7ca8:	a819                	j	7cbe <_dtoa_r+0x2d0>
    7caa:	4785                	li	a5,1
    7cac:	c83e                	sw	a5,16(sp)
    7cae:	47b2                	lw	a5,12(sp)
    7cb0:	0af04863          	bgtz	a5,7d60 <_dtoa_r+0x372>
    7cb4:	4785                	li	a5,1
    7cb6:	4705                	li	a4,1
    7cb8:	c43e                	sw	a5,8(sp)
    7cba:	4d85                	li	s11,1
    7cbc:	c63a                	sw	a4,12(sp)
    7cbe:	0244a903          	lw	s2,36(s1)
    7cc2:	4711                	li	a4,4
    7cc4:	00092223          	sw	zero,4(s2)
    7cc8:	01470693          	addi	a3,a4,20
    7ccc:	00492583          	lw	a1,4(s2)
    7cd0:	08d7fc63          	bgeu	a5,a3,7d68 <_dtoa_r+0x37a>
    7cd4:	8526                	mv	a0,s1
    7cd6:	649000ef          	jal	ra,8b1e <_Balloc>
    7cda:	50dc                	lw	a5,36(s1)
    7cdc:	00a92023          	sw	a0,0(s2)
    7ce0:	439c                	lw	a5,0(a5)
    7ce2:	c03e                	sw	a5,0(sp)
    7ce4:	47b9                	li	a5,14
    7ce6:	1db7e663          	bltu	a5,s11,7eb2 <_dtoa_r+0x4c4>
    7cea:	1c0c8463          	beqz	s9,7eb2 <_dtoa_r+0x4c4>
    7cee:	0a805e63          	blez	s0,7daa <_dtoa_r+0x3bc>
    7cf2:	00f47793          	andi	a5,s0,15
    7cf6:	00379713          	slli	a4,a5,0x3
    7cfa:	40445c93          	srai	s9,s0,0x4
    7cfe:	00002797          	auipc	a5,0x2
    7d02:	52a78793          	addi	a5,a5,1322 # a228 <__mprec_tens>
    7d06:	97ba                	add	a5,a5,a4
    7d08:	010cf693          	andi	a3,s9,16
    7d0c:	4398                	lw	a4,0(a5)
    7d0e:	4909                	li	s2,2
    7d10:	43dc                	lw	a5,4(a5)
    7d12:	c685                	beqz	a3,7d3a <_dtoa_r+0x34c>
    7d14:	00002697          	auipc	a3,0x2
    7d18:	4ec68693          	addi	a3,a3,1260 # a200 <__mprec_bigtens>
    7d1c:	5290                	lw	a2,32(a3)
    7d1e:	4572                	lw	a0,28(sp)
    7d20:	52d4                	lw	a3,36(a3)
    7d22:	55a2                	lw	a1,40(sp)
    7d24:	d03a                	sw	a4,32(sp)
    7d26:	d23e                	sw	a5,36(sp)
    7d28:	aa1fd0ef          	jal	ra,57c8 <__divdf3>
    7d2c:	5702                	lw	a4,32(sp)
    7d2e:	5792                	lw	a5,36(sp)
    7d30:	00fcfc93          	andi	s9,s9,15
    7d34:	8a2a                	mv	s4,a0
    7d36:	8c2e                	mv	s8,a1
    7d38:	490d                	li	s2,3
    7d3a:	00002d17          	auipc	s10,0x2
    7d3e:	4c6d0d13          	addi	s10,s10,1222 # a200 <__mprec_bigtens>
    7d42:	a889                	j	7d94 <_dtoa_r+0x3a6>
    7d44:	c802                	sw	zero,16(sp)
    7d46:	47b2                	lw	a5,12(sp)
    7d48:	97a2                	add	a5,a5,s0
    7d4a:	c43e                	sw	a5,8(sp)
    7d4c:	00178d93          	addi	s11,a5,1
    7d50:	87ee                	mv	a5,s11
    7d52:	f7b046e3          	bgtz	s11,7cbe <_dtoa_r+0x2d0>
    7d56:	4785                	li	a5,1
    7d58:	b79d                	j	7cbe <_dtoa_r+0x2d0>
    7d5a:	4c85                	li	s9,1
    7d5c:	c202                	sw	zero,4(sp)
    7d5e:	bde9                	j	7c38 <_dtoa_r+0x24a>
    7d60:	47b2                	lw	a5,12(sp)
    7d62:	c43e                	sw	a5,8(sp)
    7d64:	8dbe                	mv	s11,a5
    7d66:	bfa1                	j	7cbe <_dtoa_r+0x2d0>
    7d68:	0585                	addi	a1,a1,1
    7d6a:	00b92223          	sw	a1,4(s2)
    7d6e:	0706                	slli	a4,a4,0x1
    7d70:	bfa1                	j	7cc8 <_dtoa_r+0x2da>
    7d72:	001cf693          	andi	a3,s9,1
    7d76:	ce81                	beqz	a3,7d8e <_dtoa_r+0x3a0>
    7d78:	000d2603          	lw	a2,0(s10)
    7d7c:	004d2683          	lw	a3,4(s10)
    7d80:	853a                	mv	a0,a4
    7d82:	85be                	mv	a1,a5
    7d84:	918fe0ef          	jal	ra,5e9c <__muldf3>
    7d88:	0905                	addi	s2,s2,1
    7d8a:	872a                	mv	a4,a0
    7d8c:	87ae                	mv	a5,a1
    7d8e:	401cdc93          	srai	s9,s9,0x1
    7d92:	0d21                	addi	s10,s10,8
    7d94:	fc0c9fe3          	bnez	s9,7d72 <_dtoa_r+0x384>
    7d98:	863a                	mv	a2,a4
    7d9a:	86be                	mv	a3,a5
    7d9c:	8552                	mv	a0,s4
    7d9e:	85e2                	mv	a1,s8
    7da0:	a29fd0ef          	jal	ra,57c8 <__divdf3>
    7da4:	8a2a                	mv	s4,a0
    7da6:	8c2e                	mv	s8,a1
    7da8:	a081                	j	7de8 <_dtoa_r+0x3fa>
    7daa:	4909                	li	s2,2
    7dac:	cc15                	beqz	s0,7de8 <_dtoa_r+0x3fa>
    7dae:	40800cb3          	neg	s9,s0
    7db2:	00fcf793          	andi	a5,s9,15
    7db6:	00379713          	slli	a4,a5,0x3
    7dba:	00002797          	auipc	a5,0x2
    7dbe:	46e78793          	addi	a5,a5,1134 # a228 <__mprec_tens>
    7dc2:	97ba                	add	a5,a5,a4
    7dc4:	4390                	lw	a2,0(a5)
    7dc6:	43d4                	lw	a3,4(a5)
    7dc8:	4572                	lw	a0,28(sp)
    7dca:	55a2                	lw	a1,40(sp)
    7dcc:	404cdc93          	srai	s9,s9,0x4
    7dd0:	00002d17          	auipc	s10,0x2
    7dd4:	430d0d13          	addi	s10,s10,1072 # a200 <__mprec_bigtens>
    7dd8:	8c4fe0ef          	jal	ra,5e9c <__muldf3>
    7ddc:	8a2a                	mv	s4,a0
    7dde:	8c2e                	mv	s8,a1
    7de0:	4781                	li	a5,0
    7de2:	120c9c63          	bnez	s9,7f1a <_dtoa_r+0x52c>
    7de6:	ffdd                	bnez	a5,7da4 <_dtoa_r+0x3b6>
    7de8:	57b2                	lw	a5,44(sp)
    7dea:	14078763          	beqz	a5,7f38 <_dtoa_r+0x54a>
    7dee:	00002717          	auipc	a4,0x2
    7df2:	37a70713          	addi	a4,a4,890 # a168 <__clz_tab+0x16c>
    7df6:	4310                	lw	a2,0(a4)
    7df8:	4354                	lw	a3,4(a4)
    7dfa:	8552                	mv	a0,s4
    7dfc:	85e2                	mv	a1,s8
    7dfe:	d052                	sw	s4,32(sp)
    7e00:	fe7fd0ef          	jal	ra,5de6 <__ledf2>
    7e04:	12055a63          	bgez	a0,7f38 <_dtoa_r+0x54a>
    7e08:	120d8b63          	beqz	s11,7f3e <_dtoa_r+0x550>
    7e0c:	47a2                	lw	a5,8(sp)
    7e0e:	0af05063          	blez	a5,7eae <_dtoa_r+0x4c0>
    7e12:	00002717          	auipc	a4,0x2
    7e16:	35e70713          	addi	a4,a4,862 # a170 <__clz_tab+0x174>
    7e1a:	5782                	lw	a5,32(sp)
    7e1c:	4310                	lw	a2,0(a4)
    7e1e:	4354                	lw	a3,4(a4)
    7e20:	853e                	mv	a0,a5
    7e22:	85e2                	mv	a1,s8
    7e24:	878fe0ef          	jal	ra,5e9c <__muldf3>
    7e28:	47a2                	lw	a5,8(sp)
    7e2a:	fff40d13          	addi	s10,s0,-1
    7e2e:	8a2a                	mv	s4,a0
    7e30:	8c2e                	mv	s8,a1
    7e32:	0905                	addi	s2,s2,1
    7e34:	8762                	mv	a4,s8
    7e36:	854a                	mv	a0,s2
    7e38:	de3e                	sw	a5,60(sp)
    7e3a:	da52                	sw	s4,52(sp)
    7e3c:	8cba                	mv	s9,a4
    7e3e:	d03a                	sw	a4,32(sp)
    7e40:	cb7fe0ef          	jal	ra,6af6 <__floatsidf>
    7e44:	5852                	lw	a6,52(sp)
    7e46:	5702                	lw	a4,32(sp)
    7e48:	fcc00937          	lui	s2,0xfcc00
    7e4c:	8642                	mv	a2,a6
    7e4e:	86ba                	mv	a3,a4
    7e50:	84cfe0ef          	jal	ra,5e9c <__muldf3>
    7e54:	00002697          	auipc	a3,0x2
    7e58:	32468693          	addi	a3,a3,804 # a178 <__clz_tab+0x17c>
    7e5c:	4290                	lw	a2,0(a3)
    7e5e:	42d4                	lw	a3,4(a3)
    7e60:	8c52                	mv	s8,s4
    7e62:	a36fd0ef          	jal	ra,5098 <__adddf3>
    7e66:	57f2                	lw	a5,60(sp)
    7e68:	8a2a                	mv	s4,a0
    7e6a:	992e                	add	s2,s2,a1
    7e6c:	efe1                	bnez	a5,7f44 <_dtoa_r+0x556>
    7e6e:	00002797          	auipc	a5,0x2
    7e72:	31278793          	addi	a5,a5,786 # a180 <__clz_tab+0x184>
    7e76:	5852                	lw	a6,52(sp)
    7e78:	5702                	lw	a4,32(sp)
    7e7a:	4390                	lw	a2,0(a5)
    7e7c:	43d4                	lw	a3,4(a5)
    7e7e:	8542                	mv	a0,a6
    7e80:	85ba                	mv	a1,a4
    7e82:	cd2fe0ef          	jal	ra,6354 <__subdf3>
    7e86:	8652                	mv	a2,s4
    7e88:	86ca                	mv	a3,s2
    7e8a:	8c2a                	mv	s8,a0
    7e8c:	8cae                	mv	s9,a1
    7e8e:	26f010ef          	jal	ra,98fc <__gedf2>
    7e92:	54a04a63          	bgtz	a0,83e6 <_dtoa_r+0x9f8>
    7e96:	800007b7          	lui	a5,0x80000
    7e9a:	0127c7b3          	xor	a5,a5,s2
    7e9e:	8652                	mv	a2,s4
    7ea0:	86be                	mv	a3,a5
    7ea2:	8562                	mv	a0,s8
    7ea4:	85e6                	mv	a1,s9
    7ea6:	f41fd0ef          	jal	ra,5de6 <__ledf2>
    7eaa:	52054b63          	bltz	a0,83e0 <_dtoa_r+0x9f2>
    7eae:	4a72                	lw	s4,28(sp)
    7eb0:	5c22                	lw	s8,40(sp)
    7eb2:	47b6                	lw	a5,76(sp)
    7eb4:	3007c763          	bltz	a5,81c2 <_dtoa_r+0x7d4>
    7eb8:	4739                	li	a4,14
    7eba:	30874463          	blt	a4,s0,81c2 <_dtoa_r+0x7d4>
    7ebe:	00341713          	slli	a4,s0,0x3
    7ec2:	00002797          	auipc	a5,0x2
    7ec6:	36678793          	addi	a5,a5,870 # a228 <__mprec_tens>
    7eca:	97ba                	add	a5,a5,a4
    7ecc:	0007ab03          	lw	s6,0(a5)
    7ed0:	0047ab83          	lw	s7,4(a5)
    7ed4:	47b2                	lw	a5,12(sp)
    7ed6:	2007d263          	bgez	a5,80da <_dtoa_r+0x6ec>
    7eda:	21b04063          	bgtz	s11,80da <_dtoa_r+0x6ec>
    7ede:	500d9163          	bnez	s11,83e0 <_dtoa_r+0x9f2>
    7ee2:	00002797          	auipc	a5,0x2
    7ee6:	29e78793          	addi	a5,a5,670 # a180 <__clz_tab+0x184>
    7eea:	4390                	lw	a2,0(a5)
    7eec:	43d4                	lw	a3,4(a5)
    7eee:	855a                	mv	a0,s6
    7ef0:	85de                	mv	a1,s7
    7ef2:	fabfd0ef          	jal	ra,5e9c <__muldf3>
    7ef6:	8652                	mv	a2,s4
    7ef8:	86e2                	mv	a3,s8
    7efa:	203010ef          	jal	ra,98fc <__gedf2>
    7efe:	4a81                	li	s5,0
    7f00:	4901                	li	s2,0
    7f02:	4a055763          	bgez	a0,83b0 <_dtoa_r+0x9c2>
    7f06:	4782                	lw	a5,0(sp)
    7f08:	4702                	lw	a4,0(sp)
    7f0a:	0405                	addi	s0,s0,1
    7f0c:	00178a13          	addi	s4,a5,1
    7f10:	03100793          	li	a5,49
    7f14:	00f70023          	sb	a5,0(a4)
    7f18:	a145                	j	83b8 <_dtoa_r+0x9ca>
    7f1a:	001cf713          	andi	a4,s9,1
    7f1e:	cb09                	beqz	a4,7f30 <_dtoa_r+0x542>
    7f20:	000d2603          	lw	a2,0(s10)
    7f24:	004d2683          	lw	a3,4(s10)
    7f28:	0905                	addi	s2,s2,1
    7f2a:	f73fd0ef          	jal	ra,5e9c <__muldf3>
    7f2e:	4785                	li	a5,1
    7f30:	401cdc93          	srai	s9,s9,0x1
    7f34:	0d21                	addi	s10,s10,8
    7f36:	b575                	j	7de2 <_dtoa_r+0x3f4>
    7f38:	8d22                	mv	s10,s0
    7f3a:	87ee                	mv	a5,s11
    7f3c:	bde5                	j	7e34 <_dtoa_r+0x446>
    7f3e:	8d22                	mv	s10,s0
    7f40:	4781                	li	a5,0
    7f42:	bdcd                	j	7e34 <_dtoa_r+0x446>
    7f44:	fff78693          	addi	a3,a5,-1
    7f48:	00369613          	slli	a2,a3,0x3
    7f4c:	00002697          	auipc	a3,0x2
    7f50:	2dc68693          	addi	a3,a3,732 # a228 <__mprec_tens>
    7f54:	96b2                	add	a3,a3,a2
    7f56:	4288                	lw	a0,0(a3)
    7f58:	42cc                	lw	a1,4(a3)
    7f5a:	4682                	lw	a3,0(sp)
    7f5c:	97b6                	add	a5,a5,a3
    7f5e:	da3e                	sw	a5,52(sp)
    7f60:	47c2                	lw	a5,16(sp)
    7f62:	c3e9                	beqz	a5,8024 <_dtoa_r+0x636>
    7f64:	00002797          	auipc	a5,0x2
    7f68:	22478793          	addi	a5,a5,548 # a188 <__clz_tab+0x18c>
    7f6c:	862a                	mv	a2,a0
    7f6e:	86ae                	mv	a3,a1
    7f70:	4388                	lw	a0,0(a5)
    7f72:	43cc                	lw	a1,4(a5)
    7f74:	de4a                	sw	s2,60(sp)
    7f76:	d052                	sw	s4,32(sp)
    7f78:	851fd0ef          	jal	ra,57c8 <__divdf3>
    7f7c:	5802                	lw	a6,32(sp)
    7f7e:	5772                	lw	a4,60(sp)
    7f80:	00002917          	auipc	s2,0x2
    7f84:	1f090913          	addi	s2,s2,496 # a170 <__clz_tab+0x174>
    7f88:	8642                	mv	a2,a6
    7f8a:	86ba                	mv	a3,a4
    7f8c:	bc8fe0ef          	jal	ra,6354 <__subdf3>
    7f90:	4a02                	lw	s4,0(sp)
    7f92:	d02a                	sw	a0,32(sp)
    7f94:	d22e                	sw	a1,36(sp)
    7f96:	85e6                	mv	a1,s9
    7f98:	8562                	mv	a0,s8
    7f9a:	af5fe0ef          	jal	ra,6a8e <__fixdfsi>
    7f9e:	de2a                	sw	a0,60(sp)
    7fa0:	b57fe0ef          	jal	ra,6af6 <__floatsidf>
    7fa4:	862a                	mv	a2,a0
    7fa6:	86ae                	mv	a3,a1
    7fa8:	8562                	mv	a0,s8
    7faa:	85e6                	mv	a1,s9
    7fac:	ba8fe0ef          	jal	ra,6354 <__subdf3>
    7fb0:	57f2                	lw	a5,60(sp)
    7fb2:	8c2a                	mv	s8,a0
    7fb4:	8cae                	mv	s9,a1
    7fb6:	862a                	mv	a2,a0
    7fb8:	86ae                	mv	a3,a1
    7fba:	5502                	lw	a0,32(sp)
    7fbc:	5592                	lw	a1,36(sp)
    7fbe:	0a05                	addi	s4,s4,1
    7fc0:	03078793          	addi	a5,a5,48
    7fc4:	fefa0fa3          	sb	a5,-1(s4)
    7fc8:	135010ef          	jal	ra,98fc <__gedf2>
    7fcc:	0ea04863          	bgtz	a0,80bc <_dtoa_r+0x6ce>
    7fd0:	00002797          	auipc	a5,0x2
    7fd4:	19878793          	addi	a5,a5,408 # a168 <__clz_tab+0x16c>
    7fd8:	4388                	lw	a0,0(a5)
    7fda:	43cc                	lw	a1,4(a5)
    7fdc:	8662                	mv	a2,s8
    7fde:	86e6                	mv	a3,s9
    7fe0:	b74fe0ef          	jal	ra,6354 <__subdf3>
    7fe4:	862a                	mv	a2,a0
    7fe6:	86ae                	mv	a3,a1
    7fe8:	5502                	lw	a0,32(sp)
    7fea:	5592                	lw	a1,36(sp)
    7fec:	111010ef          	jal	ra,98fc <__gedf2>
    7ff0:	18a04263          	bgtz	a0,8174 <_dtoa_r+0x786>
    7ff4:	57d2                	lw	a5,52(sp)
    7ff6:	eafa0ce3          	beq	s4,a5,7eae <_dtoa_r+0x4c0>
    7ffa:	00092603          	lw	a2,0(s2)
    7ffe:	00492683          	lw	a3,4(s2)
    8002:	5502                	lw	a0,32(sp)
    8004:	5592                	lw	a1,36(sp)
    8006:	e97fd0ef          	jal	ra,5e9c <__muldf3>
    800a:	00092603          	lw	a2,0(s2)
    800e:	00492683          	lw	a3,4(s2)
    8012:	d02a                	sw	a0,32(sp)
    8014:	d22e                	sw	a1,36(sp)
    8016:	8562                	mv	a0,s8
    8018:	85e6                	mv	a1,s9
    801a:	e83fd0ef          	jal	ra,5e9c <__muldf3>
    801e:	8c2a                	mv	s8,a0
    8020:	8cae                	mv	s9,a1
    8022:	bf95                	j	7f96 <_dtoa_r+0x5a8>
    8024:	8652                	mv	a2,s4
    8026:	86ca                	mv	a3,s2
    8028:	e75fd0ef          	jal	ra,5e9c <__muldf3>
    802c:	5a52                	lw	s4,52(sp)
    802e:	4902                	lw	s2,0(sp)
    8030:	d02a                	sw	a0,32(sp)
    8032:	d22e                	sw	a1,36(sp)
    8034:	85e6                	mv	a1,s9
    8036:	8562                	mv	a0,s8
    8038:	a57fe0ef          	jal	ra,6a8e <__fixdfsi>
    803c:	de2a                	sw	a0,60(sp)
    803e:	ab9fe0ef          	jal	ra,6af6 <__floatsidf>
    8042:	862a                	mv	a2,a0
    8044:	86ae                	mv	a3,a1
    8046:	8562                	mv	a0,s8
    8048:	85e6                	mv	a1,s9
    804a:	b0afe0ef          	jal	ra,6354 <__subdf3>
    804e:	5772                	lw	a4,60(sp)
    8050:	57d2                	lw	a5,52(sp)
    8052:	0905                	addi	s2,s2,1
    8054:	03070713          	addi	a4,a4,48
    8058:	fee90fa3          	sb	a4,-1(s2)
    805c:	8c2a                	mv	s8,a0
    805e:	8cae                	mv	s9,a1
    8060:	06f91263          	bne	s2,a5,80c4 <_dtoa_r+0x6d6>
    8064:	00002917          	auipc	s2,0x2
    8068:	12490913          	addi	s2,s2,292 # a188 <__clz_tab+0x18c>
    806c:	00092603          	lw	a2,0(s2)
    8070:	00492683          	lw	a3,4(s2)
    8074:	5502                	lw	a0,32(sp)
    8076:	5592                	lw	a1,36(sp)
    8078:	820fd0ef          	jal	ra,5098 <__adddf3>
    807c:	862a                	mv	a2,a0
    807e:	86ae                	mv	a3,a1
    8080:	8562                	mv	a0,s8
    8082:	85e6                	mv	a1,s9
    8084:	079010ef          	jal	ra,98fc <__gedf2>
    8088:	0ea04663          	bgtz	a0,8174 <_dtoa_r+0x786>
    808c:	5602                	lw	a2,32(sp)
    808e:	5692                	lw	a3,36(sp)
    8090:	00092503          	lw	a0,0(s2)
    8094:	00492583          	lw	a1,4(s2)
    8098:	abcfe0ef          	jal	ra,6354 <__subdf3>
    809c:	862a                	mv	a2,a0
    809e:	86ae                	mv	a3,a1
    80a0:	8562                	mv	a0,s8
    80a2:	85e6                	mv	a1,s9
    80a4:	d43fd0ef          	jal	ra,5de6 <__ledf2>
    80a8:	03000793          	li	a5,48
    80ac:	e00551e3          	bgez	a0,7eae <_dtoa_r+0x4c0>
    80b0:	fffa4703          	lbu	a4,-1(s4)
    80b4:	fffa0693          	addi	a3,s4,-1
    80b8:	00f70463          	beq	a4,a5,80c0 <_dtoa_r+0x6d2>
    80bc:	846a                	mv	s0,s10
    80be:	a859                	j	8154 <_dtoa_r+0x766>
    80c0:	8a36                	mv	s4,a3
    80c2:	b7fd                	j	80b0 <_dtoa_r+0x6c2>
    80c4:	00002797          	auipc	a5,0x2
    80c8:	0ac78793          	addi	a5,a5,172 # a170 <__clz_tab+0x174>
    80cc:	4390                	lw	a2,0(a5)
    80ce:	43d4                	lw	a3,4(a5)
    80d0:	dcdfd0ef          	jal	ra,5e9c <__muldf3>
    80d4:	8c2a                	mv	s8,a0
    80d6:	8cae                	mv	s9,a1
    80d8:	bfb1                	j	8034 <_dtoa_r+0x646>
    80da:	87e2                	mv	a5,s8
    80dc:	8cbe                	mv	s9,a5
    80de:	4782                	lw	a5,0(sp)
    80e0:	8c52                	mv	s8,s4
    80e2:	00002a97          	auipc	s5,0x2
    80e6:	08ea8a93          	addi	s5,s5,142 # a170 <__clz_tab+0x174>
    80ea:	00178913          	addi	s2,a5,1
    80ee:	9dbe                	add	s11,s11,a5
    80f0:	865a                	mv	a2,s6
    80f2:	86de                	mv	a3,s7
    80f4:	8562                	mv	a0,s8
    80f6:	85e6                	mv	a1,s9
    80f8:	ed0fd0ef          	jal	ra,57c8 <__divdf3>
    80fc:	993fe0ef          	jal	ra,6a8e <__fixdfsi>
    8100:	8d2a                	mv	s10,a0
    8102:	9f5fe0ef          	jal	ra,6af6 <__floatsidf>
    8106:	865a                	mv	a2,s6
    8108:	86de                	mv	a3,s7
    810a:	d93fd0ef          	jal	ra,5e9c <__muldf3>
    810e:	862a                	mv	a2,a0
    8110:	86ae                	mv	a3,a1
    8112:	8562                	mv	a0,s8
    8114:	85e6                	mv	a1,s9
    8116:	a3efe0ef          	jal	ra,6354 <__subdf3>
    811a:	030d0793          	addi	a5,s10,48
    811e:	fef90fa3          	sb	a5,-1(s2)
    8122:	862a                	mv	a2,a0
    8124:	86ae                	mv	a3,a1
    8126:	8a4a                	mv	s4,s2
    8128:	072d9e63          	bne	s11,s2,81a4 <_dtoa_r+0x7b6>
    812c:	f6dfc0ef          	jal	ra,5098 <__adddf3>
    8130:	865a                	mv	a2,s6
    8132:	86de                	mv	a3,s7
    8134:	8c2a                	mv	s8,a0
    8136:	8cae                	mv	s9,a1
    8138:	7c4010ef          	jal	ra,98fc <__gedf2>
    813c:	02a04b63          	bgtz	a0,8172 <_dtoa_r+0x784>
    8140:	865a                	mv	a2,s6
    8142:	86de                	mv	a3,s7
    8144:	8562                	mv	a0,s8
    8146:	85e6                	mv	a1,s9
    8148:	c35fd0ef          	jal	ra,5d7c <__eqdf2>
    814c:	e501                	bnez	a0,8154 <_dtoa_r+0x766>
    814e:	001d7793          	andi	a5,s10,1
    8152:	e385                	bnez	a5,8172 <_dtoa_r+0x784>
    8154:	85ce                	mv	a1,s3
    8156:	8526                	mv	a0,s1
    8158:	24f000ef          	jal	ra,8ba6 <_Bfree>
    815c:	57c2                	lw	a5,48(sp)
    815e:	000a0023          	sb	zero,0(s4)
    8162:	0405                	addi	s0,s0,1
    8164:	c380                	sw	s0,0(a5)
    8166:	47d2                	lw	a5,20(sp)
    8168:	940789e3          	beqz	a5,7aba <_dtoa_r+0xcc>
    816c:	0147a023          	sw	s4,0(a5)
    8170:	b2a9                	j	7aba <_dtoa_r+0xcc>
    8172:	8d22                	mv	s10,s0
    8174:	03900713          	li	a4,57
    8178:	fffa4683          	lbu	a3,-1(s4)
    817c:	fffa0793          	addi	a5,s4,-1
    8180:	00e69a63          	bne	a3,a4,8194 <_dtoa_r+0x7a6>
    8184:	4682                	lw	a3,0(sp)
    8186:	00f69d63          	bne	a3,a5,81a0 <_dtoa_r+0x7b2>
    818a:	03000713          	li	a4,48
    818e:	0d05                	addi	s10,s10,1
    8190:	00e68023          	sb	a4,0(a3)
    8194:	0007c703          	lbu	a4,0(a5)
    8198:	0705                	addi	a4,a4,1
    819a:	00e78023          	sb	a4,0(a5)
    819e:	bf39                	j	80bc <_dtoa_r+0x6ce>
    81a0:	8a3e                	mv	s4,a5
    81a2:	bfd9                	j	8178 <_dtoa_r+0x78a>
    81a4:	000aa603          	lw	a2,0(s5)
    81a8:	004aa683          	lw	a3,4(s5)
    81ac:	0905                	addi	s2,s2,1
    81ae:	ceffd0ef          	jal	ra,5e9c <__muldf3>
    81b2:	4601                	li	a2,0
    81b4:	4681                	li	a3,0
    81b6:	8c2a                	mv	s8,a0
    81b8:	8cae                	mv	s9,a1
    81ba:	bc3fd0ef          	jal	ra,5d7c <__eqdf2>
    81be:	f90d                	bnez	a0,80f0 <_dtoa_r+0x702>
    81c0:	bf51                	j	8154 <_dtoa_r+0x766>
    81c2:	4742                	lw	a4,16(sp)
    81c4:	10070063          	beqz	a4,82c4 <_dtoa_r+0x8d6>
    81c8:	4692                	lw	a3,4(sp)
    81ca:	4705                	li	a4,1
    81cc:	0cd74563          	blt	a4,a3,8296 <_dtoa_r+0x8a8>
    81d0:	5762                	lw	a4,56(sp)
    81d2:	43378793          	addi	a5,a5,1075
    81d6:	e709                	bnez	a4,81e0 <_dtoa_r+0x7f2>
    81d8:	4726                	lw	a4,72(sp)
    81da:	03600793          	li	a5,54
    81de:	8f99                	sub	a5,a5,a4
    81e0:	8d56                	mv	s10,s5
    81e2:	8cda                	mv	s9,s6
    81e4:	4585                	li	a1,1
    81e6:	8526                	mv	a0,s1
    81e8:	9b3e                	add	s6,s6,a5
    81ea:	9bbe                	add	s7,s7,a5
    81ec:	347000ef          	jal	ra,8d32 <__i2b>
    81f0:	892a                	mv	s2,a0
    81f2:	01905e63          	blez	s9,820e <_dtoa_r+0x820>
    81f6:	01705c63          	blez	s7,820e <_dtoa_r+0x820>
    81fa:	87e6                	mv	a5,s9
    81fc:	019bd363          	bge	s7,s9,8202 <_dtoa_r+0x814>
    8200:	87de                	mv	a5,s7
    8202:	40fb0b33          	sub	s6,s6,a5
    8206:	40fc8cb3          	sub	s9,s9,a5
    820a:	40fb8bb3          	sub	s7,s7,a5
    820e:	040a8063          	beqz	s5,824e <_dtoa_r+0x860>
    8212:	47c2                	lw	a5,16(sp)
    8214:	cfc5                	beqz	a5,82cc <_dtoa_r+0x8de>
    8216:	03a05463          	blez	s10,823e <_dtoa_r+0x850>
    821a:	85ca                	mv	a1,s2
    821c:	866a                	mv	a2,s10
    821e:	8526                	mv	a0,s1
    8220:	473000ef          	jal	ra,8e92 <__pow5mult>
    8224:	864e                	mv	a2,s3
    8226:	85aa                	mv	a1,a0
    8228:	892a                	mv	s2,a0
    822a:	8526                	mv	a0,s1
    822c:	323000ef          	jal	ra,8d4e <__multiply>
    8230:	ce2a                	sw	a0,28(sp)
    8232:	85ce                	mv	a1,s3
    8234:	8526                	mv	a0,s1
    8236:	171000ef          	jal	ra,8ba6 <_Bfree>
    823a:	47f2                	lw	a5,28(sp)
    823c:	89be                	mv	s3,a5
    823e:	41aa8633          	sub	a2,s5,s10
    8242:	c611                	beqz	a2,824e <_dtoa_r+0x860>
    8244:	85ce                	mv	a1,s3
    8246:	8526                	mv	a0,s1
    8248:	44b000ef          	jal	ra,8e92 <__pow5mult>
    824c:	89aa                	mv	s3,a0
    824e:	4585                	li	a1,1
    8250:	8526                	mv	a0,s1
    8252:	2e1000ef          	jal	ra,8d32 <__i2b>
    8256:	47e2                	lw	a5,24(sp)
    8258:	8aaa                	mv	s5,a0
    825a:	06f05b63          	blez	a5,82d0 <_dtoa_r+0x8e2>
    825e:	863e                	mv	a2,a5
    8260:	85aa                	mv	a1,a0
    8262:	8526                	mv	a0,s1
    8264:	42f000ef          	jal	ra,8e92 <__pow5mult>
    8268:	4712                	lw	a4,4(sp)
    826a:	4785                	li	a5,1
    826c:	8aaa                	mv	s5,a0
    826e:	4d01                	li	s10,0
    8270:	06e7c863          	blt	a5,a4,82e0 <_dtoa_r+0x8f2>
    8274:	4d01                	li	s10,0
    8276:	060a1263          	bnez	s4,82da <_dtoa_r+0x8ec>
    827a:	00cc1793          	slli	a5,s8,0xc
    827e:	8d52                	mv	s10,s4
    8280:	efa9                	bnez	a5,82da <_dtoa_r+0x8ec>
    8282:	7ff005b7          	lui	a1,0x7ff00
    8286:	00bc7c33          	and	s8,s8,a1
    828a:	040c0863          	beqz	s8,82da <_dtoa_r+0x8ec>
    828e:	0b05                	addi	s6,s6,1
    8290:	0b85                	addi	s7,s7,1
    8292:	4d05                	li	s10,1
    8294:	a099                	j	82da <_dtoa_r+0x8ec>
    8296:	fffd8d13          	addi	s10,s11,-1
    829a:	01aaca63          	blt	s5,s10,82ae <_dtoa_r+0x8c0>
    829e:	41aa8d33          	sub	s10,s5,s10
    82a2:	000dde63          	bgez	s11,82be <_dtoa_r+0x8d0>
    82a6:	41bb0cb3          	sub	s9,s6,s11
    82aa:	4781                	li	a5,0
    82ac:	bf25                	j	81e4 <_dtoa_r+0x7f6>
    82ae:	47e2                	lw	a5,24(sp)
    82b0:	415d0ab3          	sub	s5,s10,s5
    82b4:	97d6                	add	a5,a5,s5
    82b6:	cc3e                	sw	a5,24(sp)
    82b8:	8aea                	mv	s5,s10
    82ba:	4d01                	li	s10,0
    82bc:	b7dd                	j	82a2 <_dtoa_r+0x8b4>
    82be:	8cda                	mv	s9,s6
    82c0:	87ee                	mv	a5,s11
    82c2:	b70d                	j	81e4 <_dtoa_r+0x7f6>
    82c4:	8d56                	mv	s10,s5
    82c6:	8cda                	mv	s9,s6
    82c8:	4901                	li	s2,0
    82ca:	b725                	j	81f2 <_dtoa_r+0x804>
    82cc:	8656                	mv	a2,s5
    82ce:	bf9d                	j	8244 <_dtoa_r+0x856>
    82d0:	4712                	lw	a4,4(sp)
    82d2:	4785                	li	a5,1
    82d4:	4d01                	li	s10,0
    82d6:	f8e7dfe3          	bge	a5,a4,8274 <_dtoa_r+0x886>
    82da:	47e2                	lw	a5,24(sp)
    82dc:	4505                	li	a0,1
    82de:	cf89                	beqz	a5,82f8 <_dtoa_r+0x90a>
    82e0:	010aa783          	lw	a5,16(s5)
    82e4:	078d                	addi	a5,a5,3
    82e6:	078a                	slli	a5,a5,0x2
    82e8:	97d6                	add	a5,a5,s5
    82ea:	43c8                	lw	a0,4(a5)
    82ec:	197000ef          	jal	ra,8c82 <__hi0bits>
    82f0:	02000793          	li	a5,32
    82f4:	40a78533          	sub	a0,a5,a0
    82f8:	955e                	add	a0,a0,s7
    82fa:	897d                	andi	a0,a0,31
    82fc:	c151                	beqz	a0,8380 <_dtoa_r+0x992>
    82fe:	02000793          	li	a5,32
    8302:	8f89                	sub	a5,a5,a0
    8304:	4711                	li	a4,4
    8306:	06f75a63          	bge	a4,a5,837a <_dtoa_r+0x98c>
    830a:	47f1                	li	a5,28
    830c:	40a78533          	sub	a0,a5,a0
    8310:	9b2a                	add	s6,s6,a0
    8312:	9caa                	add	s9,s9,a0
    8314:	9baa                	add	s7,s7,a0
    8316:	01605863          	blez	s6,8326 <_dtoa_r+0x938>
    831a:	85ce                	mv	a1,s3
    831c:	865a                	mv	a2,s6
    831e:	8526                	mv	a0,s1
    8320:	431000ef          	jal	ra,8f50 <__lshift>
    8324:	89aa                	mv	s3,a0
    8326:	01705863          	blez	s7,8336 <_dtoa_r+0x948>
    832a:	85d6                	mv	a1,s5
    832c:	865e                	mv	a2,s7
    832e:	8526                	mv	a0,s1
    8330:	421000ef          	jal	ra,8f50 <__lshift>
    8334:	8aaa                	mv	s5,a0
    8336:	57b2                	lw	a5,44(sp)
    8338:	c7b1                	beqz	a5,8384 <_dtoa_r+0x996>
    833a:	85d6                	mv	a1,s5
    833c:	854e                	mv	a0,s3
    833e:	4e1000ef          	jal	ra,901e <__mcmp>
    8342:	04055163          	bgez	a0,8384 <_dtoa_r+0x996>
    8346:	85ce                	mv	a1,s3
    8348:	4681                	li	a3,0
    834a:	4629                	li	a2,10
    834c:	8526                	mv	a0,s1
    834e:	09d000ef          	jal	ra,8bea <__multadd>
    8352:	47c2                	lw	a5,16(sp)
    8354:	147d                	addi	s0,s0,-1
    8356:	89aa                	mv	s3,a0
    8358:	26078c63          	beqz	a5,85d0 <_dtoa_r+0xbe2>
    835c:	85ca                	mv	a1,s2
    835e:	4681                	li	a3,0
    8360:	4629                	li	a2,10
    8362:	8526                	mv	a0,s1
    8364:	087000ef          	jal	ra,8bea <__multadd>
    8368:	47a2                	lw	a5,8(sp)
    836a:	892a                	mv	s2,a0
    836c:	08f04563          	bgtz	a5,83f6 <_dtoa_r+0xa08>
    8370:	4712                	lw	a4,4(sp)
    8372:	4789                	li	a5,2
    8374:	08e7d163          	bge	a5,a4,83f6 <_dtoa_r+0xa08>
    8378:	a829                	j	8392 <_dtoa_r+0x9a4>
    837a:	f8e78ee3          	beq	a5,a4,8316 <_dtoa_r+0x928>
    837e:	853e                	mv	a0,a5
    8380:	0571                	addi	a0,a0,28
    8382:	b779                	j	8310 <_dtoa_r+0x922>
    8384:	07b04563          	bgtz	s11,83ee <_dtoa_r+0xa00>
    8388:	4712                	lw	a4,4(sp)
    838a:	4789                	li	a5,2
    838c:	06e7d163          	bge	a5,a4,83ee <_dtoa_r+0xa00>
    8390:	c46e                	sw	s11,8(sp)
    8392:	47a2                	lw	a5,8(sp)
    8394:	ef91                	bnez	a5,83b0 <_dtoa_r+0x9c2>
    8396:	85d6                	mv	a1,s5
    8398:	4681                	li	a3,0
    839a:	4615                	li	a2,5
    839c:	8526                	mv	a0,s1
    839e:	04d000ef          	jal	ra,8bea <__multadd>
    83a2:	8aaa                	mv	s5,a0
    83a4:	85aa                	mv	a1,a0
    83a6:	854e                	mv	a0,s3
    83a8:	477000ef          	jal	ra,901e <__mcmp>
    83ac:	b4a04de3          	bgtz	a0,7f06 <_dtoa_r+0x518>
    83b0:	47b2                	lw	a5,12(sp)
    83b2:	4a02                	lw	s4,0(sp)
    83b4:	fff7c413          	not	s0,a5
    83b8:	4b01                	li	s6,0
    83ba:	85d6                	mv	a1,s5
    83bc:	8526                	mv	a0,s1
    83be:	7e8000ef          	jal	ra,8ba6 <_Bfree>
    83c2:	d80909e3          	beqz	s2,8154 <_dtoa_r+0x766>
    83c6:	000b0863          	beqz	s6,83d6 <_dtoa_r+0x9e8>
    83ca:	012b0663          	beq	s6,s2,83d6 <_dtoa_r+0x9e8>
    83ce:	85da                	mv	a1,s6
    83d0:	8526                	mv	a0,s1
    83d2:	7d4000ef          	jal	ra,8ba6 <_Bfree>
    83d6:	85ca                	mv	a1,s2
    83d8:	8526                	mv	a0,s1
    83da:	7cc000ef          	jal	ra,8ba6 <_Bfree>
    83de:	bb9d                	j	8154 <_dtoa_r+0x766>
    83e0:	4a81                	li	s5,0
    83e2:	4901                	li	s2,0
    83e4:	b7f1                	j	83b0 <_dtoa_r+0x9c2>
    83e6:	846a                	mv	s0,s10
    83e8:	4a81                	li	s5,0
    83ea:	4901                	li	s2,0
    83ec:	be29                	j	7f06 <_dtoa_r+0x518>
    83ee:	47c2                	lw	a5,16(sp)
    83f0:	c46e                	sw	s11,8(sp)
    83f2:	1e078663          	beqz	a5,85de <_dtoa_r+0xbf0>
    83f6:	01905863          	blez	s9,8406 <_dtoa_r+0xa18>
    83fa:	85ca                	mv	a1,s2
    83fc:	8666                	mv	a2,s9
    83fe:	8526                	mv	a0,s1
    8400:	351000ef          	jal	ra,8f50 <__lshift>
    8404:	892a                	mv	s2,a0
    8406:	854a                	mv	a0,s2
    8408:	020d0663          	beqz	s10,8434 <_dtoa_r+0xa46>
    840c:	00492583          	lw	a1,4(s2)
    8410:	8526                	mv	a0,s1
    8412:	70c000ef          	jal	ra,8b1e <_Balloc>
    8416:	01092603          	lw	a2,16(s2)
    841a:	8b2a                	mv	s6,a0
    841c:	00c90593          	addi	a1,s2,12
    8420:	0609                	addi	a2,a2,2
    8422:	060a                	slli	a2,a2,0x2
    8424:	0531                	addi	a0,a0,12
    8426:	fb6fe0ef          	jal	ra,6bdc <memcpy>
    842a:	4605                	li	a2,1
    842c:	85da                	mv	a1,s6
    842e:	8526                	mv	a0,s1
    8430:	321000ef          	jal	ra,8f50 <__lshift>
    8434:	4782                	lw	a5,0(sp)
    8436:	4722                	lw	a4,8(sp)
    8438:	8b4a                	mv	s6,s2
    843a:	00178c13          	addi	s8,a5,1
    843e:	97ba                	add	a5,a5,a4
    8440:	c63e                	sw	a5,12(sp)
    8442:	001a7793          	andi	a5,s4,1
    8446:	892a                	mv	s2,a0
    8448:	c43e                	sw	a5,8(sp)
    844a:	85d6                	mv	a1,s5
    844c:	854e                	mv	a0,s3
    844e:	c66ff0ef          	jal	ra,78b4 <quorem>
    8452:	85da                	mv	a1,s6
    8454:	8d2a                	mv	s10,a0
    8456:	03050d93          	addi	s11,a0,48
    845a:	854e                	mv	a0,s3
    845c:	3c3000ef          	jal	ra,901e <__mcmp>
    8460:	864a                	mv	a2,s2
    8462:	8baa                	mv	s7,a0
    8464:	85d6                	mv	a1,s5
    8466:	8526                	mv	a0,s1
    8468:	3e9000ef          	jal	ra,9050 <__mdiff>
    846c:	4550                	lw	a2,12(a0)
    846e:	fffc0c93          	addi	s9,s8,-1
    8472:	8a2a                	mv	s4,a0
    8474:	4705                	li	a4,1
    8476:	e611                	bnez	a2,8482 <_dtoa_r+0xa94>
    8478:	85aa                	mv	a1,a0
    847a:	854e                	mv	a0,s3
    847c:	3a3000ef          	jal	ra,901e <__mcmp>
    8480:	872a                	mv	a4,a0
    8482:	85d2                	mv	a1,s4
    8484:	8526                	mv	a0,s1
    8486:	c83a                	sw	a4,16(sp)
    8488:	71e000ef          	jal	ra,8ba6 <_Bfree>
    848c:	4792                	lw	a5,4(sp)
    848e:	4742                	lw	a4,16(sp)
    8490:	8a62                	mv	s4,s8
    8492:	00e7e6b3          	or	a3,a5,a4
    8496:	47a2                	lw	a5,8(sp)
    8498:	8edd                	or	a3,a3,a5
    849a:	ee81                	bnez	a3,84b2 <_dtoa_r+0xac4>
    849c:	03900713          	li	a4,57
    84a0:	04ed8863          	beq	s11,a4,84f0 <_dtoa_r+0xb02>
    84a4:	01705463          	blez	s7,84ac <_dtoa_r+0xabe>
    84a8:	031d0d93          	addi	s11,s10,49
    84ac:	01bc8023          	sb	s11,0(s9)
    84b0:	b729                	j	83ba <_dtoa_r+0x9cc>
    84b2:	000bca63          	bltz	s7,84c6 <_dtoa_r+0xad8>
    84b6:	4792                	lw	a5,4(sp)
    84b8:	0177ebb3          	or	s7,a5,s7
    84bc:	47a2                	lw	a5,8(sp)
    84be:	00fbebb3          	or	s7,s7,a5
    84c2:	040b9563          	bnez	s7,850c <_dtoa_r+0xb1e>
    84c6:	fee053e3          	blez	a4,84ac <_dtoa_r+0xabe>
    84ca:	85ce                	mv	a1,s3
    84cc:	4605                	li	a2,1
    84ce:	8526                	mv	a0,s1
    84d0:	281000ef          	jal	ra,8f50 <__lshift>
    84d4:	85d6                	mv	a1,s5
    84d6:	89aa                	mv	s3,a0
    84d8:	347000ef          	jal	ra,901e <__mcmp>
    84dc:	00a04663          	bgtz	a0,84e8 <_dtoa_r+0xafa>
    84e0:	f571                	bnez	a0,84ac <_dtoa_r+0xabe>
    84e2:	001df713          	andi	a4,s11,1
    84e6:	d379                	beqz	a4,84ac <_dtoa_r+0xabe>
    84e8:	03900713          	li	a4,57
    84ec:	faed9ee3          	bne	s11,a4,84a8 <_dtoa_r+0xaba>
    84f0:	03900793          	li	a5,57
    84f4:	00fc8023          	sb	a5,0(s9)
    84f8:	03900693          	li	a3,57
    84fc:	fffa4783          	lbu	a5,-1(s4)
    8500:	fffa0713          	addi	a4,s4,-1
    8504:	08d78c63          	beq	a5,a3,859c <_dtoa_r+0xbae>
    8508:	0785                	addi	a5,a5,1
    850a:	a045                	j	85aa <_dtoa_r+0xbbc>
    850c:	00e05b63          	blez	a4,8522 <_dtoa_r+0xb34>
    8510:	03900713          	li	a4,57
    8514:	fced8ee3          	beq	s11,a4,84f0 <_dtoa_r+0xb02>
    8518:	001d8793          	addi	a5,s11,1
    851c:	00fc8023          	sb	a5,0(s9)
    8520:	bd69                	j	83ba <_dtoa_r+0x9cc>
    8522:	47b2                	lw	a5,12(sp)
    8524:	ffbc0fa3          	sb	s11,-1(s8)
    8528:	05878163          	beq	a5,s8,856a <_dtoa_r+0xb7c>
    852c:	85ce                	mv	a1,s3
    852e:	4681                	li	a3,0
    8530:	4629                	li	a2,10
    8532:	8526                	mv	a0,s1
    8534:	6b6000ef          	jal	ra,8bea <__multadd>
    8538:	89aa                	mv	s3,a0
    853a:	4681                	li	a3,0
    853c:	4629                	li	a2,10
    853e:	85da                	mv	a1,s6
    8540:	8526                	mv	a0,s1
    8542:	012b1863          	bne	s6,s2,8552 <_dtoa_r+0xb64>
    8546:	6a4000ef          	jal	ra,8bea <__multadd>
    854a:	8b2a                	mv	s6,a0
    854c:	892a                	mv	s2,a0
    854e:	0c05                	addi	s8,s8,1
    8550:	bded                	j	844a <_dtoa_r+0xa5c>
    8552:	698000ef          	jal	ra,8bea <__multadd>
    8556:	85ca                	mv	a1,s2
    8558:	8b2a                	mv	s6,a0
    855a:	4681                	li	a3,0
    855c:	4629                	li	a2,10
    855e:	8526                	mv	a0,s1
    8560:	68a000ef          	jal	ra,8bea <__multadd>
    8564:	892a                	mv	s2,a0
    8566:	b7e5                	j	854e <_dtoa_r+0xb60>
    8568:	4b01                	li	s6,0
    856a:	85ce                	mv	a1,s3
    856c:	4605                	li	a2,1
    856e:	8526                	mv	a0,s1
    8570:	1e1000ef          	jal	ra,8f50 <__lshift>
    8574:	85d6                	mv	a1,s5
    8576:	89aa                	mv	s3,a0
    8578:	2a7000ef          	jal	ra,901e <__mcmp>
    857c:	f6a04ee3          	bgtz	a0,84f8 <_dtoa_r+0xb0a>
    8580:	e501                	bnez	a0,8588 <_dtoa_r+0xb9a>
    8582:	001df793          	andi	a5,s11,1
    8586:	fbad                	bnez	a5,84f8 <_dtoa_r+0xb0a>
    8588:	03000793          	li	a5,48
    858c:	fffa4703          	lbu	a4,-1(s4)
    8590:	fffa0693          	addi	a3,s4,-1
    8594:	e2f713e3          	bne	a4,a5,83ba <_dtoa_r+0x9cc>
    8598:	8a36                	mv	s4,a3
    859a:	bfcd                	j	858c <_dtoa_r+0xb9e>
    859c:	4782                	lw	a5,0(sp)
    859e:	00e79963          	bne	a5,a4,85b0 <_dtoa_r+0xbc2>
    85a2:	4702                	lw	a4,0(sp)
    85a4:	0405                	addi	s0,s0,1
    85a6:	03100793          	li	a5,49
    85aa:	00f70023          	sb	a5,0(a4)
    85ae:	b531                	j	83ba <_dtoa_r+0x9cc>
    85b0:	8a3a                	mv	s4,a4
    85b2:	b7a9                	j	84fc <_dtoa_r+0xb0e>
    85b4:	4752                	lw	a4,20(sp)
    85b6:	00002797          	auipc	a5,0x2
    85ba:	bda78793          	addi	a5,a5,-1062 # a190 <__clz_tab+0x194>
    85be:	c03e                	sw	a5,0(sp)
    85c0:	00002797          	auipc	a5,0x2
    85c4:	bd878793          	addi	a5,a5,-1064 # a198 <__clz_tab+0x19c>
    85c8:	ce071763          	bnez	a4,7ab6 <_dtoa_r+0xc8>
    85cc:	ceeff06f          	j	7aba <_dtoa_r+0xcc>
    85d0:	47a2                	lw	a5,8(sp)
    85d2:	00f04663          	bgtz	a5,85de <_dtoa_r+0xbf0>
    85d6:	4712                	lw	a4,4(sp)
    85d8:	4789                	li	a5,2
    85da:	dae7cce3          	blt	a5,a4,8392 <_dtoa_r+0x9a4>
    85de:	4a02                	lw	s4,0(sp)
    85e0:	85d6                	mv	a1,s5
    85e2:	854e                	mv	a0,s3
    85e4:	ad0ff0ef          	jal	ra,78b4 <quorem>
    85e8:	4782                	lw	a5,0(sp)
    85ea:	0a05                	addi	s4,s4,1
    85ec:	03050d93          	addi	s11,a0,48
    85f0:	40fa0733          	sub	a4,s4,a5
    85f4:	47a2                	lw	a5,8(sp)
    85f6:	ffba0fa3          	sb	s11,-1(s4)
    85fa:	f6f757e3          	bge	a4,a5,8568 <_dtoa_r+0xb7a>
    85fe:	85ce                	mv	a1,s3
    8600:	4681                	li	a3,0
    8602:	4629                	li	a2,10
    8604:	8526                	mv	a0,s1
    8606:	23d5                	jal	8bea <__multadd>
    8608:	89aa                	mv	s3,a0
    860a:	bfd9                	j	85e0 <_dtoa_r+0xbf2>

0000860c <__sflush_r>:
__sflush_r():
    860c:	00c5d783          	lhu	a5,12(a1) # 7ff0000c <_eusrstack+0x5fef000c>
    8610:	1101                	addi	sp,sp,-32
    8612:	cc22                	sw	s0,24(sp)
    8614:	ca26                	sw	s1,20(sp)
    8616:	ce06                	sw	ra,28(sp)
    8618:	c84a                	sw	s2,16(sp)
    861a:	c64e                	sw	s3,12(sp)
    861c:	0087f713          	andi	a4,a5,8
    8620:	84aa                	mv	s1,a0
    8622:	842e                	mv	s0,a1
    8624:	ef79                	bnez	a4,8702 <__sflush_r+0xf6>
    8626:	41d8                	lw	a4,4(a1)
    8628:	00e04d63          	bgtz	a4,8642 <__sflush_r+0x36>
    862c:	41b8                	lw	a4,64(a1)
    862e:	00e04a63          	bgtz	a4,8642 <__sflush_r+0x36>
    8632:	4501                	li	a0,0
    8634:	40f2                	lw	ra,28(sp)
    8636:	4462                	lw	s0,24(sp)
    8638:	44d2                	lw	s1,20(sp)
    863a:	4942                	lw	s2,16(sp)
    863c:	49b2                	lw	s3,12(sp)
    863e:	6105                	addi	sp,sp,32
    8640:	8082                	ret
    8642:	5458                	lw	a4,44(s0)
    8644:	d77d                	beqz	a4,8632 <__sflush_r+0x26>
    8646:	0004a903          	lw	s2,0(s1)
    864a:	01379693          	slli	a3,a5,0x13
    864e:	0004a023          	sw	zero,0(s1)
    8652:	0606de63          	bgez	a3,86ce <__sflush_r+0xc2>
    8656:	4870                	lw	a2,84(s0)
    8658:	00c45783          	lhu	a5,12(s0)
    865c:	8b91                	andi	a5,a5,4
    865e:	c799                	beqz	a5,866c <__sflush_r+0x60>
    8660:	405c                	lw	a5,4(s0)
    8662:	8e1d                	sub	a2,a2,a5
    8664:	585c                	lw	a5,52(s0)
    8666:	c399                	beqz	a5,866c <__sflush_r+0x60>
    8668:	403c                	lw	a5,64(s0)
    866a:	8e1d                	sub	a2,a2,a5
    866c:	545c                	lw	a5,44(s0)
    866e:	500c                	lw	a1,32(s0)
    8670:	4681                	li	a3,0
    8672:	8526                	mv	a0,s1
    8674:	9782                	jalr	a5
    8676:	57fd                	li	a5,-1
    8678:	00c45703          	lhu	a4,12(s0)
    867c:	00f51d63          	bne	a0,a5,8696 <__sflush_r+0x8a>
    8680:	4094                	lw	a3,0(s1)
    8682:	47f5                	li	a5,29
    8684:	06d7e963          	bltu	a5,a3,86f6 <__sflush_r+0xea>
    8688:	204007b7          	lui	a5,0x20400
    868c:	0785                	addi	a5,a5,1
    868e:	00d7d7b3          	srl	a5,a5,a3
    8692:	8b85                	andi	a5,a5,1
    8694:	c3ad                	beqz	a5,86f6 <__sflush_r+0xea>
    8696:	481c                	lw	a5,16(s0)
    8698:	00042223          	sw	zero,4(s0)
    869c:	c01c                	sw	a5,0(s0)
    869e:	01371793          	slli	a5,a4,0x13
    86a2:	0007d863          	bgez	a5,86b2 <__sflush_r+0xa6>
    86a6:	57fd                	li	a5,-1
    86a8:	00f51463          	bne	a0,a5,86b0 <__sflush_r+0xa4>
    86ac:	409c                	lw	a5,0(s1)
    86ae:	e391                	bnez	a5,86b2 <__sflush_r+0xa6>
    86b0:	c868                	sw	a0,84(s0)
    86b2:	584c                	lw	a1,52(s0)
    86b4:	0124a023          	sw	s2,0(s1)
    86b8:	ddad                	beqz	a1,8632 <__sflush_r+0x26>
    86ba:	04440793          	addi	a5,s0,68
    86be:	00f58563          	beq	a1,a5,86c8 <__sflush_r+0xbc>
    86c2:	8526                	mv	a0,s1
    86c4:	379000ef          	jal	ra,923c <_free_r>
    86c8:	02042a23          	sw	zero,52(s0)
    86cc:	b79d                	j	8632 <__sflush_r+0x26>
    86ce:	500c                	lw	a1,32(s0)
    86d0:	4601                	li	a2,0
    86d2:	4685                	li	a3,1
    86d4:	8526                	mv	a0,s1
    86d6:	9702                	jalr	a4
    86d8:	57fd                	li	a5,-1
    86da:	862a                	mv	a2,a0
    86dc:	f6f51ee3          	bne	a0,a5,8658 <__sflush_r+0x4c>
    86e0:	409c                	lw	a5,0(s1)
    86e2:	dbbd                	beqz	a5,8658 <__sflush_r+0x4c>
    86e4:	4775                	li	a4,29
    86e6:	00e78563          	beq	a5,a4,86f0 <__sflush_r+0xe4>
    86ea:	4759                	li	a4,22
    86ec:	04e79463          	bne	a5,a4,8734 <__sflush_r+0x128>
    86f0:	0124a023          	sw	s2,0(s1)
    86f4:	bf3d                	j	8632 <__sflush_r+0x26>
    86f6:	04076713          	ori	a4,a4,64
    86fa:	00e41623          	sh	a4,12(s0)
    86fe:	557d                	li	a0,-1
    8700:	bf15                	j	8634 <__sflush_r+0x28>
    8702:	0105a983          	lw	s3,16(a1)
    8706:	f20986e3          	beqz	s3,8632 <__sflush_r+0x26>
    870a:	0005a903          	lw	s2,0(a1)
    870e:	8b8d                	andi	a5,a5,3
    8710:	0135a023          	sw	s3,0(a1)
    8714:	41390933          	sub	s2,s2,s3
    8718:	4701                	li	a4,0
    871a:	e391                	bnez	a5,871e <__sflush_r+0x112>
    871c:	49d8                	lw	a4,20(a1)
    871e:	c418                	sw	a4,8(s0)
    8720:	f12059e3          	blez	s2,8632 <__sflush_r+0x26>
    8724:	541c                	lw	a5,40(s0)
    8726:	500c                	lw	a1,32(s0)
    8728:	86ca                	mv	a3,s2
    872a:	864e                	mv	a2,s3
    872c:	8526                	mv	a0,s1
    872e:	9782                	jalr	a5
    8730:	00a04963          	bgtz	a0,8742 <__sflush_r+0x136>
    8734:	00c45783          	lhu	a5,12(s0)
    8738:	0407e793          	ori	a5,a5,64
    873c:	00f41623          	sh	a5,12(s0)
    8740:	bf7d                	j	86fe <__sflush_r+0xf2>
    8742:	99aa                	add	s3,s3,a0
    8744:	40a90933          	sub	s2,s2,a0
    8748:	bfe1                	j	8720 <__sflush_r+0x114>

0000874a <_fflush_r>:
_fflush_r():
    874a:	499c                	lw	a5,16(a1)
    874c:	c3a5                	beqz	a5,87ac <_fflush_r+0x62>
    874e:	1101                	addi	sp,sp,-32
    8750:	cc22                	sw	s0,24(sp)
    8752:	ce06                	sw	ra,28(sp)
    8754:	842a                	mv	s0,a0
    8756:	c511                	beqz	a0,8762 <_fflush_r+0x18>
    8758:	4d1c                	lw	a5,24(a0)
    875a:	e781                	bnez	a5,8762 <_fflush_r+0x18>
    875c:	c62e                	sw	a1,12(sp)
    875e:	2239                	jal	886c <__sinit>
    8760:	45b2                	lw	a1,12(sp)
    8762:	00002797          	auipc	a5,0x2
    8766:	a5e78793          	addi	a5,a5,-1442 # a1c0 <__sf_fake_stdin>
    876a:	00f59c63          	bne	a1,a5,8782 <_fflush_r+0x38>
    876e:	404c                	lw	a1,4(s0)
    8770:	00c59783          	lh	a5,12(a1)
    8774:	c79d                	beqz	a5,87a2 <_fflush_r+0x58>
    8776:	8522                	mv	a0,s0
    8778:	4462                	lw	s0,24(sp)
    877a:	40f2                	lw	ra,28(sp)
    877c:	6105                	addi	sp,sp,32
    877e:	e8fff06f          	j	860c <__sflush_r>
    8782:	00002797          	auipc	a5,0x2
    8786:	a5e78793          	addi	a5,a5,-1442 # a1e0 <__sf_fake_stdout>
    878a:	00f59463          	bne	a1,a5,8792 <_fflush_r+0x48>
    878e:	440c                	lw	a1,8(s0)
    8790:	b7c5                	j	8770 <_fflush_r+0x26>
    8792:	00002797          	auipc	a5,0x2
    8796:	a0e78793          	addi	a5,a5,-1522 # a1a0 <__sf_fake_stderr>
    879a:	fcf59be3          	bne	a1,a5,8770 <_fflush_r+0x26>
    879e:	444c                	lw	a1,12(s0)
    87a0:	bfc1                	j	8770 <_fflush_r+0x26>
    87a2:	40f2                	lw	ra,28(sp)
    87a4:	4462                	lw	s0,24(sp)
    87a6:	4501                	li	a0,0
    87a8:	6105                	addi	sp,sp,32
    87aa:	8082                	ret
    87ac:	4501                	li	a0,0
    87ae:	8082                	ret

000087b0 <std>:
std():
    87b0:	1141                	addi	sp,sp,-16
    87b2:	c422                	sw	s0,8(sp)
    87b4:	c606                	sw	ra,12(sp)
    87b6:	842a                	mv	s0,a0
    87b8:	00b51623          	sh	a1,12(a0)
    87bc:	00c51723          	sh	a2,14(a0)
    87c0:	00052023          	sw	zero,0(a0)
    87c4:	00052223          	sw	zero,4(a0)
    87c8:	00052423          	sw	zero,8(a0)
    87cc:	06052223          	sw	zero,100(a0)
    87d0:	00052823          	sw	zero,16(a0)
    87d4:	00052a23          	sw	zero,20(a0)
    87d8:	00052c23          	sw	zero,24(a0)
    87dc:	4621                	li	a2,8
    87de:	4581                	li	a1,0
    87e0:	05c50513          	addi	a0,a0,92
    87e4:	a31f70ef          	jal	ra,214 <memset>
    87e8:	00001797          	auipc	a5,0x1
    87ec:	efc78793          	addi	a5,a5,-260 # 96e4 <__sread>
    87f0:	d05c                	sw	a5,36(s0)
    87f2:	00001797          	auipc	a5,0x1
    87f6:	f2278793          	addi	a5,a5,-222 # 9714 <__swrite>
    87fa:	d41c                	sw	a5,40(s0)
    87fc:	00001797          	auipc	a5,0x1
    8800:	f6678793          	addi	a5,a5,-154 # 9762 <__sseek>
    8804:	d45c                	sw	a5,44(s0)
    8806:	00001797          	auipc	a5,0x1
    880a:	f9278793          	addi	a5,a5,-110 # 9798 <__sclose>
    880e:	d000                	sw	s0,32(s0)
    8810:	d81c                	sw	a5,48(s0)
    8812:	40b2                	lw	ra,12(sp)
    8814:	4422                	lw	s0,8(sp)
    8816:	0141                	addi	sp,sp,16
    8818:	8082                	ret

0000881a <_cleanup_r>:
_cleanup_r():
    881a:	00000597          	auipc	a1,0x0
    881e:	f3058593          	addi	a1,a1,-208 # 874a <_fflush_r>
    8822:	aa99                	j	8978 <_fwalk_reent>

00008824 <__sfmoreglue>:
__sfmoreglue():
    8824:	1141                	addi	sp,sp,-16
    8826:	c226                	sw	s1,4(sp)
    8828:	06800613          	li	a2,104
    882c:	fff58493          	addi	s1,a1,-1
    8830:	02c484b3          	mul	s1,s1,a2
    8834:	c04a                	sw	s2,0(sp)
    8836:	892e                	mv	s2,a1
    8838:	c422                	sw	s0,8(sp)
    883a:	c606                	sw	ra,12(sp)
    883c:	07448593          	addi	a1,s1,116
    8840:	2a1000ef          	jal	ra,92e0 <_malloc_r>
    8844:	842a                	mv	s0,a0
    8846:	cd01                	beqz	a0,885e <__sfmoreglue+0x3a>
    8848:	00052023          	sw	zero,0(a0)
    884c:	01252223          	sw	s2,4(a0)
    8850:	0531                	addi	a0,a0,12
    8852:	c408                	sw	a0,8(s0)
    8854:	06848613          	addi	a2,s1,104
    8858:	4581                	li	a1,0
    885a:	9bbf70ef          	jal	ra,214 <memset>
    885e:	8522                	mv	a0,s0
    8860:	40b2                	lw	ra,12(sp)
    8862:	4422                	lw	s0,8(sp)
    8864:	4492                	lw	s1,4(sp)
    8866:	4902                	lw	s2,0(sp)
    8868:	0141                	addi	sp,sp,16
    886a:	8082                	ret

0000886c <__sinit>:
__sinit():
    886c:	4d1c                	lw	a5,24(a0)
    886e:	e7a5                	bnez	a5,88d6 <__sinit+0x6a>
    8870:	1141                	addi	sp,sp,-16
    8872:	c606                	sw	ra,12(sp)
    8874:	c422                	sw	s0,8(sp)
    8876:	00000797          	auipc	a5,0x0
    887a:	fa478793          	addi	a5,a5,-92 # 881a <_cleanup_r>
    887e:	d51c                	sw	a5,40(a0)
    8880:	84818793          	addi	a5,gp,-1976 # 20000278 <_global_impure_ptr>
    8884:	439c                	lw	a5,0(a5)
    8886:	04052423          	sw	zero,72(a0)
    888a:	04052623          	sw	zero,76(a0)
    888e:	04052823          	sw	zero,80(a0)
    8892:	00f51463          	bne	a0,a5,889a <__sinit+0x2e>
    8896:	4785                	li	a5,1
    8898:	cd1c                	sw	a5,24(a0)
    889a:	842a                	mv	s0,a0
    889c:	2835                	jal	88d8 <__sfp>
    889e:	c048                	sw	a0,4(s0)
    88a0:	8522                	mv	a0,s0
    88a2:	281d                	jal	88d8 <__sfp>
    88a4:	c408                	sw	a0,8(s0)
    88a6:	8522                	mv	a0,s0
    88a8:	2805                	jal	88d8 <__sfp>
    88aa:	c448                	sw	a0,12(s0)
    88ac:	4048                	lw	a0,4(s0)
    88ae:	4601                	li	a2,0
    88b0:	4591                	li	a1,4
    88b2:	effff0ef          	jal	ra,87b0 <std>
    88b6:	4408                	lw	a0,8(s0)
    88b8:	4605                	li	a2,1
    88ba:	45a5                	li	a1,9
    88bc:	ef5ff0ef          	jal	ra,87b0 <std>
    88c0:	4448                	lw	a0,12(s0)
    88c2:	4609                	li	a2,2
    88c4:	45c9                	li	a1,18
    88c6:	eebff0ef          	jal	ra,87b0 <std>
    88ca:	4785                	li	a5,1
    88cc:	cc1c                	sw	a5,24(s0)
    88ce:	40b2                	lw	ra,12(sp)
    88d0:	4422                	lw	s0,8(sp)
    88d2:	0141                	addi	sp,sp,16
    88d4:	8082                	ret
    88d6:	8082                	ret

000088d8 <__sfp>:
__sfp():
    88d8:	1141                	addi	sp,sp,-16
    88da:	84818793          	addi	a5,gp,-1976 # 20000278 <_global_impure_ptr>
    88de:	c226                	sw	s1,4(sp)
    88e0:	4384                	lw	s1,0(a5)
    88e2:	c04a                	sw	s2,0(sp)
    88e4:	c606                	sw	ra,12(sp)
    88e6:	4c9c                	lw	a5,24(s1)
    88e8:	c422                	sw	s0,8(sp)
    88ea:	892a                	mv	s2,a0
    88ec:	e781                	bnez	a5,88f4 <__sfp+0x1c>
    88ee:	8526                	mv	a0,s1
    88f0:	f7dff0ef          	jal	ra,886c <__sinit>
    88f4:	04848493          	addi	s1,s1,72
    88f8:	4480                	lw	s0,8(s1)
    88fa:	40dc                	lw	a5,4(s1)
    88fc:	17fd                	addi	a5,a5,-1
    88fe:	0007d663          	bgez	a5,890a <__sfp+0x32>
    8902:	409c                	lw	a5,0(s1)
    8904:	cfb9                	beqz	a5,8962 <__sfp+0x8a>
    8906:	4084                	lw	s1,0(s1)
    8908:	bfc5                	j	88f8 <__sfp+0x20>
    890a:	00c41703          	lh	a4,12(s0)
    890e:	e739                	bnez	a4,895c <__sfp+0x84>
    8910:	77c1                	lui	a5,0xffff0
    8912:	0785                	addi	a5,a5,1
    8914:	06042223          	sw	zero,100(s0)
    8918:	00042023          	sw	zero,0(s0)
    891c:	00042223          	sw	zero,4(s0)
    8920:	00042423          	sw	zero,8(s0)
    8924:	c45c                	sw	a5,12(s0)
    8926:	00042823          	sw	zero,16(s0)
    892a:	00042a23          	sw	zero,20(s0)
    892e:	00042c23          	sw	zero,24(s0)
    8932:	4621                	li	a2,8
    8934:	4581                	li	a1,0
    8936:	05c40513          	addi	a0,s0,92
    893a:	8dbf70ef          	jal	ra,214 <memset>
    893e:	02042a23          	sw	zero,52(s0)
    8942:	02042c23          	sw	zero,56(s0)
    8946:	04042423          	sw	zero,72(s0)
    894a:	04042623          	sw	zero,76(s0)
    894e:	8522                	mv	a0,s0
    8950:	40b2                	lw	ra,12(sp)
    8952:	4422                	lw	s0,8(sp)
    8954:	4492                	lw	s1,4(sp)
    8956:	4902                	lw	s2,0(sp)
    8958:	0141                	addi	sp,sp,16
    895a:	8082                	ret
    895c:	06840413          	addi	s0,s0,104
    8960:	bf71                	j	88fc <__sfp+0x24>
    8962:	4591                	li	a1,4
    8964:	854a                	mv	a0,s2
    8966:	ebfff0ef          	jal	ra,8824 <__sfmoreglue>
    896a:	c088                	sw	a0,0(s1)
    896c:	fd49                	bnez	a0,8906 <__sfp+0x2e>
    896e:	47b1                	li	a5,12
    8970:	00f92023          	sw	a5,0(s2)
    8974:	4401                	li	s0,0
    8976:	bfe1                	j	894e <__sfp+0x76>

00008978 <_fwalk_reent>:
_fwalk_reent():
    8978:	7179                	addi	sp,sp,-48
    897a:	d422                	sw	s0,40(sp)
    897c:	d04a                	sw	s2,32(sp)
    897e:	cc52                	sw	s4,24(sp)
    8980:	ca56                	sw	s5,20(sp)
    8982:	c85a                	sw	s6,16(sp)
    8984:	c65e                	sw	s7,12(sp)
    8986:	d606                	sw	ra,44(sp)
    8988:	d226                	sw	s1,36(sp)
    898a:	ce4e                	sw	s3,28(sp)
    898c:	8a2a                	mv	s4,a0
    898e:	8aae                	mv	s5,a1
    8990:	04850413          	addi	s0,a0,72
    8994:	4901                	li	s2,0
    8996:	4b05                	li	s6,1
    8998:	5bfd                	li	s7,-1
    899a:	ec09                	bnez	s0,89b4 <_fwalk_reent+0x3c>
    899c:	50b2                	lw	ra,44(sp)
    899e:	5422                	lw	s0,40(sp)
    89a0:	854a                	mv	a0,s2
    89a2:	5492                	lw	s1,36(sp)
    89a4:	5902                	lw	s2,32(sp)
    89a6:	49f2                	lw	s3,28(sp)
    89a8:	4a62                	lw	s4,24(sp)
    89aa:	4ad2                	lw	s5,20(sp)
    89ac:	4b42                	lw	s6,16(sp)
    89ae:	4bb2                	lw	s7,12(sp)
    89b0:	6145                	addi	sp,sp,48
    89b2:	8082                	ret
    89b4:	4404                	lw	s1,8(s0)
    89b6:	00442983          	lw	s3,4(s0)
    89ba:	19fd                	addi	s3,s3,-1
    89bc:	0009d463          	bgez	s3,89c4 <_fwalk_reent+0x4c>
    89c0:	4000                	lw	s0,0(s0)
    89c2:	bfe1                	j	899a <_fwalk_reent+0x22>
    89c4:	00c4d783          	lhu	a5,12(s1)
    89c8:	00fb7b63          	bgeu	s6,a5,89de <_fwalk_reent+0x66>
    89cc:	00e49783          	lh	a5,14(s1)
    89d0:	01778763          	beq	a5,s7,89de <_fwalk_reent+0x66>
    89d4:	85a6                	mv	a1,s1
    89d6:	8552                	mv	a0,s4
    89d8:	9a82                	jalr	s5
    89da:	00a96933          	or	s2,s2,a0
    89de:	06848493          	addi	s1,s1,104
    89e2:	bfe1                	j	89ba <_fwalk_reent+0x42>

000089e4 <_localeconv_r>:
_localeconv_r():
    89e4:	81418793          	addi	a5,gp,-2028 # 20000244 <_impure_ptr>
    89e8:	439c                	lw	a5,0(a5)
    89ea:	5388                	lw	a0,32(a5)
    89ec:	e509                	bnez	a0,89f6 <_localeconv_r+0x12>
    89ee:	1fff7517          	auipc	a0,0x1fff7
    89f2:	6d250513          	addi	a0,a0,1746 # 200000c0 <__global_locale>
    89f6:	0f050513          	addi	a0,a0,240
    89fa:	8082                	ret

000089fc <__swhatbuf_r>:
__swhatbuf_r():
    89fc:	7119                	addi	sp,sp,-128
    89fe:	daa6                	sw	s1,116(sp)
    8a00:	84ae                	mv	s1,a1
    8a02:	00e59583          	lh	a1,14(a1)
    8a06:	dca2                	sw	s0,120(sp)
    8a08:	de86                	sw	ra,124(sp)
    8a0a:	8432                	mv	s0,a2
    8a0c:	0005dc63          	bgez	a1,8a24 <__swhatbuf_r+0x28>
    8a10:	00c4d783          	lhu	a5,12(s1)
    8a14:	0006a023          	sw	zero,0(a3)
    8a18:	0807f793          	andi	a5,a5,128
    8a1c:	e785                	bnez	a5,8a44 <__swhatbuf_r+0x48>
    8a1e:	40000793          	li	a5,1024
    8a22:	a01d                	j	8a48 <__swhatbuf_r+0x4c>
    8a24:	0830                	addi	a2,sp,24
    8a26:	c636                	sw	a3,12(sp)
    8a28:	5cd000ef          	jal	ra,97f4 <_fstat_r>
    8a2c:	46b2                	lw	a3,12(sp)
    8a2e:	fe0541e3          	bltz	a0,8a10 <__swhatbuf_r+0x14>
    8a32:	4772                	lw	a4,28(sp)
    8a34:	67bd                	lui	a5,0xf
    8a36:	8ff9                	and	a5,a5,a4
    8a38:	7779                	lui	a4,0xffffe
    8a3a:	97ba                	add	a5,a5,a4
    8a3c:	0017b793          	seqz	a5,a5
    8a40:	c29c                	sw	a5,0(a3)
    8a42:	bff1                	j	8a1e <__swhatbuf_r+0x22>
    8a44:	04000793          	li	a5,64
    8a48:	c01c                	sw	a5,0(s0)
    8a4a:	50f6                	lw	ra,124(sp)
    8a4c:	5466                	lw	s0,120(sp)
    8a4e:	54d6                	lw	s1,116(sp)
    8a50:	4501                	li	a0,0
    8a52:	6109                	addi	sp,sp,128
    8a54:	8082                	ret

00008a56 <__smakebuf_r>:
__smakebuf_r():
    8a56:	00c5d783          	lhu	a5,12(a1)
    8a5a:	1101                	addi	sp,sp,-32
    8a5c:	cc22                	sw	s0,24(sp)
    8a5e:	ce06                	sw	ra,28(sp)
    8a60:	ca26                	sw	s1,20(sp)
    8a62:	c84a                	sw	s2,16(sp)
    8a64:	8b89                	andi	a5,a5,2
    8a66:	842e                	mv	s0,a1
    8a68:	cf89                	beqz	a5,8a82 <__smakebuf_r+0x2c>
    8a6a:	04740793          	addi	a5,s0,71
    8a6e:	c01c                	sw	a5,0(s0)
    8a70:	c81c                	sw	a5,16(s0)
    8a72:	4785                	li	a5,1
    8a74:	c85c                	sw	a5,20(s0)
    8a76:	40f2                	lw	ra,28(sp)
    8a78:	4462                	lw	s0,24(sp)
    8a7a:	44d2                	lw	s1,20(sp)
    8a7c:	4942                	lw	s2,16(sp)
    8a7e:	6105                	addi	sp,sp,32
    8a80:	8082                	ret
    8a82:	0074                	addi	a3,sp,12
    8a84:	0030                	addi	a2,sp,8
    8a86:	84aa                	mv	s1,a0
    8a88:	f75ff0ef          	jal	ra,89fc <__swhatbuf_r>
    8a8c:	45a2                	lw	a1,8(sp)
    8a8e:	892a                	mv	s2,a0
    8a90:	8526                	mv	a0,s1
    8a92:	04f000ef          	jal	ra,92e0 <_malloc_r>
    8a96:	ed01                	bnez	a0,8aae <__smakebuf_r+0x58>
    8a98:	00c41783          	lh	a5,12(s0)
    8a9c:	2007f713          	andi	a4,a5,512
    8aa0:	fb79                	bnez	a4,8a76 <__smakebuf_r+0x20>
    8aa2:	9bf1                	andi	a5,a5,-4
    8aa4:	0027e793          	ori	a5,a5,2
    8aa8:	00f41623          	sh	a5,12(s0)
    8aac:	bf7d                	j	8a6a <__smakebuf_r+0x14>
    8aae:	00000797          	auipc	a5,0x0
    8ab2:	d6c78793          	addi	a5,a5,-660 # 881a <_cleanup_r>
    8ab6:	d49c                	sw	a5,40(s1)
    8ab8:	00c45783          	lhu	a5,12(s0)
    8abc:	c008                	sw	a0,0(s0)
    8abe:	c808                	sw	a0,16(s0)
    8ac0:	0807e793          	ori	a5,a5,128
    8ac4:	00f41623          	sh	a5,12(s0)
    8ac8:	47a2                	lw	a5,8(sp)
    8aca:	c85c                	sw	a5,20(s0)
    8acc:	47b2                	lw	a5,12(sp)
    8ace:	cf91                	beqz	a5,8aea <__smakebuf_r+0x94>
    8ad0:	00e41583          	lh	a1,14(s0)
    8ad4:	8526                	mv	a0,s1
    8ad6:	549000ef          	jal	ra,981e <_isatty_r>
    8ada:	c901                	beqz	a0,8aea <__smakebuf_r+0x94>
    8adc:	00c45783          	lhu	a5,12(s0)
    8ae0:	9bf1                	andi	a5,a5,-4
    8ae2:	0017e793          	ori	a5,a5,1
    8ae6:	00f41623          	sh	a5,12(s0)
    8aea:	00c45783          	lhu	a5,12(s0)
    8aee:	00f96933          	or	s2,s2,a5
    8af2:	01241623          	sh	s2,12(s0)
    8af6:	b741                	j	8a76 <__smakebuf_r+0x20>

00008af8 <malloc>:
malloc():
    8af8:	81418793          	addi	a5,gp,-2028 # 20000244 <_impure_ptr>
    8afc:	85aa                	mv	a1,a0
    8afe:	4388                	lw	a0,0(a5)
    8b00:	7e00006f          	j	92e0 <_malloc_r>

00008b04 <memchr>:
memchr():
    8b04:	0ff5f593          	andi	a1,a1,255
    8b08:	962a                	add	a2,a2,a0
    8b0a:	00c51463          	bne	a0,a2,8b12 <memchr+0xe>
    8b0e:	4501                	li	a0,0
    8b10:	8082                	ret
    8b12:	00054783          	lbu	a5,0(a0)
    8b16:	feb78de3          	beq	a5,a1,8b10 <memchr+0xc>
    8b1a:	0505                	addi	a0,a0,1
    8b1c:	b7fd                	j	8b0a <memchr+0x6>

00008b1e <_Balloc>:
_Balloc():
    8b1e:	515c                	lw	a5,36(a0)
    8b20:	1141                	addi	sp,sp,-16
    8b22:	c422                	sw	s0,8(sp)
    8b24:	c04a                	sw	s2,0(sp)
    8b26:	c606                	sw	ra,12(sp)
    8b28:	c226                	sw	s1,4(sp)
    8b2a:	842a                	mv	s0,a0
    8b2c:	892e                	mv	s2,a1
    8b2e:	ef89                	bnez	a5,8b48 <_Balloc+0x2a>
    8b30:	4541                	li	a0,16
    8b32:	fc7ff0ef          	jal	ra,8af8 <malloc>
    8b36:	d048                	sw	a0,36(s0)
    8b38:	00052223          	sw	zero,4(a0)
    8b3c:	00052423          	sw	zero,8(a0)
    8b40:	00052023          	sw	zero,0(a0)
    8b44:	00052623          	sw	zero,12(a0)
    8b48:	5044                	lw	s1,36(s0)
    8b4a:	44dc                	lw	a5,12(s1)
    8b4c:	c795                	beqz	a5,8b78 <_Balloc+0x5a>
    8b4e:	5058                	lw	a4,36(s0)
    8b50:	00291793          	slli	a5,s2,0x2
    8b54:	4758                	lw	a4,12(a4)
    8b56:	97ba                	add	a5,a5,a4
    8b58:	4388                	lw	a0,0(a5)
    8b5a:	ed1d                	bnez	a0,8b98 <_Balloc+0x7a>
    8b5c:	4485                	li	s1,1
    8b5e:	012494b3          	sll	s1,s1,s2
    8b62:	00548613          	addi	a2,s1,5
    8b66:	060a                	slli	a2,a2,0x2
    8b68:	4585                	li	a1,1
    8b6a:	8522                	mv	a0,s0
    8b6c:	256d                	jal	9216 <_calloc_r>
    8b6e:	cd11                	beqz	a0,8b8a <_Balloc+0x6c>
    8b70:	01252223          	sw	s2,4(a0)
    8b74:	c504                	sw	s1,8(a0)
    8b76:	a01d                	j	8b9c <_Balloc+0x7e>
    8b78:	02100613          	li	a2,33
    8b7c:	4591                	li	a1,4
    8b7e:	8522                	mv	a0,s0
    8b80:	2d59                	jal	9216 <_calloc_r>
    8b82:	505c                	lw	a5,36(s0)
    8b84:	c4c8                	sw	a0,12(s1)
    8b86:	47dc                	lw	a5,12(a5)
    8b88:	f3f9                	bnez	a5,8b4e <_Balloc+0x30>
    8b8a:	4501                	li	a0,0
    8b8c:	40b2                	lw	ra,12(sp)
    8b8e:	4422                	lw	s0,8(sp)
    8b90:	4492                	lw	s1,4(sp)
    8b92:	4902                	lw	s2,0(sp)
    8b94:	0141                	addi	sp,sp,16
    8b96:	8082                	ret
    8b98:	4118                	lw	a4,0(a0)
    8b9a:	c398                	sw	a4,0(a5)
    8b9c:	00052823          	sw	zero,16(a0)
    8ba0:	00052623          	sw	zero,12(a0)
    8ba4:	b7e5                	j	8b8c <_Balloc+0x6e>

00008ba6 <_Bfree>:
_Bfree():
    8ba6:	515c                	lw	a5,36(a0)
    8ba8:	1101                	addi	sp,sp,-32
    8baa:	cc22                	sw	s0,24(sp)
    8bac:	ce06                	sw	ra,28(sp)
    8bae:	842a                	mv	s0,a0
    8bb0:	ef99                	bnez	a5,8bce <_Bfree+0x28>
    8bb2:	4541                	li	a0,16
    8bb4:	c62e                	sw	a1,12(sp)
    8bb6:	f43ff0ef          	jal	ra,8af8 <malloc>
    8bba:	45b2                	lw	a1,12(sp)
    8bbc:	d048                	sw	a0,36(s0)
    8bbe:	00052223          	sw	zero,4(a0)
    8bc2:	00052423          	sw	zero,8(a0)
    8bc6:	00052023          	sw	zero,0(a0)
    8bca:	00052623          	sw	zero,12(a0)
    8bce:	c991                	beqz	a1,8be2 <_Bfree+0x3c>
    8bd0:	5054                	lw	a3,36(s0)
    8bd2:	41dc                	lw	a5,4(a1)
    8bd4:	00279713          	slli	a4,a5,0x2
    8bd8:	46dc                	lw	a5,12(a3)
    8bda:	97ba                	add	a5,a5,a4
    8bdc:	4398                	lw	a4,0(a5)
    8bde:	c198                	sw	a4,0(a1)
    8be0:	c38c                	sw	a1,0(a5)
    8be2:	40f2                	lw	ra,28(sp)
    8be4:	4462                	lw	s0,24(sp)
    8be6:	6105                	addi	sp,sp,32
    8be8:	8082                	ret

00008bea <__multadd>:
__multadd():
    8bea:	7179                	addi	sp,sp,-48
    8bec:	ce4e                	sw	s3,28(sp)
    8bee:	89aa                	mv	s3,a0
    8bf0:	6541                	lui	a0,0x10
    8bf2:	d422                	sw	s0,40(sp)
    8bf4:	d226                	sw	s1,36(sp)
    8bf6:	842e                	mv	s0,a1
    8bf8:	4984                	lw	s1,16(a1)
    8bfa:	d606                	sw	ra,44(sp)
    8bfc:	d04a                	sw	s2,32(sp)
    8bfe:	05d1                	addi	a1,a1,20
    8c00:	4801                	li	a6,0
    8c02:	157d                	addi	a0,a0,-1
    8c04:	419c                	lw	a5,0(a1)
    8c06:	0591                	addi	a1,a1,4
    8c08:	0805                	addi	a6,a6,1
    8c0a:	00a7f733          	and	a4,a5,a0
    8c0e:	02c70733          	mul	a4,a4,a2
    8c12:	83c1                	srli	a5,a5,0x10
    8c14:	02c787b3          	mul	a5,a5,a2
    8c18:	9736                	add	a4,a4,a3
    8c1a:	01075693          	srli	a3,a4,0x10
    8c1e:	8f69                	and	a4,a4,a0
    8c20:	97b6                	add	a5,a5,a3
    8c22:	0107d693          	srli	a3,a5,0x10
    8c26:	07c2                	slli	a5,a5,0x10
    8c28:	97ba                	add	a5,a5,a4
    8c2a:	fef5ae23          	sw	a5,-4(a1)
    8c2e:	fc984be3          	blt	a6,s1,8c04 <__multadd+0x1a>
    8c32:	c2a1                	beqz	a3,8c72 <__multadd+0x88>
    8c34:	441c                	lw	a5,8(s0)
    8c36:	02f4c763          	blt	s1,a5,8c64 <__multadd+0x7a>
    8c3a:	404c                	lw	a1,4(s0)
    8c3c:	854e                	mv	a0,s3
    8c3e:	c636                	sw	a3,12(sp)
    8c40:	0585                	addi	a1,a1,1
    8c42:	eddff0ef          	jal	ra,8b1e <_Balloc>
    8c46:	4810                	lw	a2,16(s0)
    8c48:	00c40593          	addi	a1,s0,12
    8c4c:	892a                	mv	s2,a0
    8c4e:	0609                	addi	a2,a2,2
    8c50:	060a                	slli	a2,a2,0x2
    8c52:	0531                	addi	a0,a0,12
    8c54:	f89fd0ef          	jal	ra,6bdc <memcpy>
    8c58:	85a2                	mv	a1,s0
    8c5a:	854e                	mv	a0,s3
    8c5c:	f4bff0ef          	jal	ra,8ba6 <_Bfree>
    8c60:	46b2                	lw	a3,12(sp)
    8c62:	844a                	mv	s0,s2
    8c64:	00448793          	addi	a5,s1,4
    8c68:	078a                	slli	a5,a5,0x2
    8c6a:	97a2                	add	a5,a5,s0
    8c6c:	c3d4                	sw	a3,4(a5)
    8c6e:	0485                	addi	s1,s1,1
    8c70:	c804                	sw	s1,16(s0)
    8c72:	8522                	mv	a0,s0
    8c74:	50b2                	lw	ra,44(sp)
    8c76:	5422                	lw	s0,40(sp)
    8c78:	5492                	lw	s1,36(sp)
    8c7a:	5902                	lw	s2,32(sp)
    8c7c:	49f2                	lw	s3,28(sp)
    8c7e:	6145                	addi	sp,sp,48
    8c80:	8082                	ret

00008c82 <__hi0bits>:
__hi0bits():
    8c82:	7741                	lui	a4,0xffff0
    8c84:	8f69                	and	a4,a4,a0
    8c86:	87aa                	mv	a5,a0
    8c88:	4501                	li	a0,0
    8c8a:	e319                	bnez	a4,8c90 <__hi0bits+0xe>
    8c8c:	07c2                	slli	a5,a5,0x10
    8c8e:	4541                	li	a0,16
    8c90:	ff000737          	lui	a4,0xff000
    8c94:	8f7d                	and	a4,a4,a5
    8c96:	e319                	bnez	a4,8c9c <__hi0bits+0x1a>
    8c98:	0521                	addi	a0,a0,8
    8c9a:	07a2                	slli	a5,a5,0x8
    8c9c:	f0000737          	lui	a4,0xf0000
    8ca0:	8f7d                	and	a4,a4,a5
    8ca2:	e319                	bnez	a4,8ca8 <__hi0bits+0x26>
    8ca4:	0511                	addi	a0,a0,4
    8ca6:	0792                	slli	a5,a5,0x4
    8ca8:	c0000737          	lui	a4,0xc0000
    8cac:	8f7d                	and	a4,a4,a5
    8cae:	e319                	bnez	a4,8cb4 <__hi0bits+0x32>
    8cb0:	0509                	addi	a0,a0,2
    8cb2:	078a                	slli	a5,a5,0x2
    8cb4:	0007c963          	bltz	a5,8cc6 <__hi0bits+0x44>
    8cb8:	00179713          	slli	a4,a5,0x1
    8cbc:	0505                	addi	a0,a0,1
    8cbe:	00074463          	bltz	a4,8cc6 <__hi0bits+0x44>
    8cc2:	02000513          	li	a0,32
    8cc6:	8082                	ret

00008cc8 <__lo0bits>:
__lo0bits():
    8cc8:	411c                	lw	a5,0(a0)
    8cca:	0077f713          	andi	a4,a5,7
    8cce:	c30d                	beqz	a4,8cf0 <__lo0bits+0x28>
    8cd0:	0017f693          	andi	a3,a5,1
    8cd4:	4701                	li	a4,0
    8cd6:	e699                	bnez	a3,8ce4 <__lo0bits+0x1c>
    8cd8:	0027f713          	andi	a4,a5,2
    8cdc:	c711                	beqz	a4,8ce8 <__lo0bits+0x20>
    8cde:	8385                	srli	a5,a5,0x1
    8ce0:	c11c                	sw	a5,0(a0)
    8ce2:	4705                	li	a4,1
    8ce4:	853a                	mv	a0,a4
    8ce6:	8082                	ret
    8ce8:	8389                	srli	a5,a5,0x2
    8cea:	c11c                	sw	a5,0(a0)
    8cec:	4709                	li	a4,2
    8cee:	bfdd                	j	8ce4 <__lo0bits+0x1c>
    8cf0:	01079693          	slli	a3,a5,0x10
    8cf4:	82c1                	srli	a3,a3,0x10
    8cf6:	4701                	li	a4,0
    8cf8:	e299                	bnez	a3,8cfe <__lo0bits+0x36>
    8cfa:	83c1                	srli	a5,a5,0x10
    8cfc:	4741                	li	a4,16
    8cfe:	0ff7f693          	andi	a3,a5,255
    8d02:	e299                	bnez	a3,8d08 <__lo0bits+0x40>
    8d04:	0721                	addi	a4,a4,8
    8d06:	83a1                	srli	a5,a5,0x8
    8d08:	00f7f693          	andi	a3,a5,15
    8d0c:	e299                	bnez	a3,8d12 <__lo0bits+0x4a>
    8d0e:	0711                	addi	a4,a4,4
    8d10:	8391                	srli	a5,a5,0x4
    8d12:	0037f693          	andi	a3,a5,3
    8d16:	e299                	bnez	a3,8d1c <__lo0bits+0x54>
    8d18:	0709                	addi	a4,a4,2
    8d1a:	8389                	srli	a5,a5,0x2
    8d1c:	0017f693          	andi	a3,a5,1
    8d20:	e681                	bnez	a3,8d28 <__lo0bits+0x60>
    8d22:	8385                	srli	a5,a5,0x1
    8d24:	0705                	addi	a4,a4,1
    8d26:	c399                	beqz	a5,8d2c <__lo0bits+0x64>
    8d28:	c11c                	sw	a5,0(a0)
    8d2a:	bf6d                	j	8ce4 <__lo0bits+0x1c>
    8d2c:	02000713          	li	a4,32
    8d30:	bf55                	j	8ce4 <__lo0bits+0x1c>

00008d32 <__i2b>:
__i2b():
    8d32:	1141                	addi	sp,sp,-16
    8d34:	c422                	sw	s0,8(sp)
    8d36:	842e                	mv	s0,a1
    8d38:	4585                	li	a1,1
    8d3a:	c606                	sw	ra,12(sp)
    8d3c:	de3ff0ef          	jal	ra,8b1e <_Balloc>
    8d40:	c940                	sw	s0,20(a0)
    8d42:	40b2                	lw	ra,12(sp)
    8d44:	4422                	lw	s0,8(sp)
    8d46:	4705                	li	a4,1
    8d48:	c918                	sw	a4,16(a0)
    8d4a:	0141                	addi	sp,sp,16
    8d4c:	8082                	ret

00008d4e <__multiply>:
__multiply():
    8d4e:	4998                	lw	a4,16(a1)
    8d50:	4a1c                	lw	a5,16(a2)
    8d52:	7179                	addi	sp,sp,-48
    8d54:	d226                	sw	s1,36(sp)
    8d56:	d606                	sw	ra,44(sp)
    8d58:	d422                	sw	s0,40(sp)
    8d5a:	d04a                	sw	s2,32(sp)
    8d5c:	ce4e                	sw	s3,28(sp)
    8d5e:	84ae                	mv	s1,a1
    8d60:	00f75463          	bge	a4,a5,8d68 <__multiply+0x1a>
    8d64:	84b2                	mv	s1,a2
    8d66:	862e                	mv	a2,a1
    8d68:	0104a983          	lw	s3,16(s1)
    8d6c:	01062903          	lw	s2,16(a2) # 10010 <_data_lma+0x5bec>
    8d70:	449c                	lw	a5,8(s1)
    8d72:	40cc                	lw	a1,4(s1)
    8d74:	01298433          	add	s0,s3,s2
    8d78:	0087d363          	bge	a5,s0,8d7e <__multiply+0x30>
    8d7c:	0585                	addi	a1,a1,1
    8d7e:	c632                	sw	a2,12(sp)
    8d80:	d9fff0ef          	jal	ra,8b1e <_Balloc>
    8d84:	4632                	lw	a2,12(sp)
    8d86:	01450813          	addi	a6,a0,20 # 10014 <_data_lma+0x5bf0>
    8d8a:	00241313          	slli	t1,s0,0x2
    8d8e:	9342                	add	t1,t1,a6
    8d90:	87c2                	mv	a5,a6
    8d92:	0267ed63          	bltu	a5,t1,8dcc <__multiply+0x7e>
    8d96:	01448593          	addi	a1,s1,20
    8d9a:	00299893          	slli	a7,s3,0x2
    8d9e:	0651                	addi	a2,a2,20
    8da0:	00291e13          	slli	t3,s2,0x2
    8da4:	66c1                	lui	a3,0x10
    8da6:	98ae                	add	a7,a7,a1
    8da8:	9e32                	add	t3,t3,a2
    8daa:	16fd                	addi	a3,a3,-1
    8dac:	03c66463          	bltu	a2,t3,8dd4 <__multiply+0x86>
    8db0:	00805663          	blez	s0,8dbc <__multiply+0x6e>
    8db4:	1371                	addi	t1,t1,-4
    8db6:	00032783          	lw	a5,0(t1)
    8dba:	cbf1                	beqz	a5,8e8e <__multiply+0x140>
    8dbc:	c900                	sw	s0,16(a0)
    8dbe:	50b2                	lw	ra,44(sp)
    8dc0:	5422                	lw	s0,40(sp)
    8dc2:	5492                	lw	s1,36(sp)
    8dc4:	5902                	lw	s2,32(sp)
    8dc6:	49f2                	lw	s3,28(sp)
    8dc8:	6145                	addi	sp,sp,48
    8dca:	8082                	ret
    8dcc:	0007a023          	sw	zero,0(a5)
    8dd0:	0791                	addi	a5,a5,4
    8dd2:	b7c1                	j	8d92 <__multiply+0x44>
    8dd4:	00062f83          	lw	t6,0(a2)
    8dd8:	00dfffb3          	and	t6,t6,a3
    8ddc:	040f8a63          	beqz	t6,8e30 <__multiply+0xe2>
    8de0:	8f42                	mv	t5,a6
    8de2:	82ae                	mv	t0,a1
    8de4:	4481                	li	s1,0
    8de6:	0002a703          	lw	a4,0(t0)
    8dea:	000f2383          	lw	t2,0(t5)
    8dee:	0f11                	addi	t5,t5,4
    8df0:	00d77eb3          	and	t4,a4,a3
    8df4:	03fe8eb3          	mul	t4,t4,t6
    8df8:	00d3f7b3          	and	a5,t2,a3
    8dfc:	0103d393          	srli	t2,t2,0x10
    8e00:	0291                	addi	t0,t0,4
    8e02:	9ebe                	add	t4,t4,a5
    8e04:	01075793          	srli	a5,a4,0x10
    8e08:	03f787b3          	mul	a5,a5,t6
    8e0c:	9ea6                	add	t4,t4,s1
    8e0e:	010ed713          	srli	a4,t4,0x10
    8e12:	00defeb3          	and	t4,t4,a3
    8e16:	979e                	add	a5,a5,t2
    8e18:	97ba                	add	a5,a5,a4
    8e1a:	0107d493          	srli	s1,a5,0x10
    8e1e:	07c2                	slli	a5,a5,0x10
    8e20:	01d7e7b3          	or	a5,a5,t4
    8e24:	feff2e23          	sw	a5,-4(t5)
    8e28:	fb12efe3          	bltu	t0,a7,8de6 <__multiply+0x98>
    8e2c:	009f2023          	sw	s1,0(t5)
    8e30:	00265283          	lhu	t0,2(a2)
    8e34:	04028a63          	beqz	t0,8e88 <__multiply+0x13a>
    8e38:	00082783          	lw	a5,0(a6)
    8e3c:	8ec2                	mv	t4,a6
    8e3e:	8f2e                	mv	t5,a1
    8e40:	4f81                	li	t6,0
    8e42:	000f2703          	lw	a4,0(t5)
    8e46:	002ed383          	lhu	t2,2(t4)
    8e4a:	8ff5                	and	a5,a5,a3
    8e4c:	8f75                	and	a4,a4,a3
    8e4e:	02570733          	mul	a4,a4,t0
    8e52:	0e91                	addi	t4,t4,4
    8e54:	0f11                	addi	t5,t5,4
    8e56:	971e                	add	a4,a4,t2
    8e58:	977e                	add	a4,a4,t6
    8e5a:	01071f93          	slli	t6,a4,0x10
    8e5e:	00ffe7b3          	or	a5,t6,a5
    8e62:	fefeae23          	sw	a5,-4(t4)
    8e66:	ffef5783          	lhu	a5,-2(t5)
    8e6a:	000eaf83          	lw	t6,0(t4)
    8e6e:	8341                	srli	a4,a4,0x10
    8e70:	025787b3          	mul	a5,a5,t0
    8e74:	00dfffb3          	and	t6,t6,a3
    8e78:	97fe                	add	a5,a5,t6
    8e7a:	97ba                	add	a5,a5,a4
    8e7c:	0107df93          	srli	t6,a5,0x10
    8e80:	fd1f61e3          	bltu	t5,a7,8e42 <__multiply+0xf4>
    8e84:	00fea023          	sw	a5,0(t4)
    8e88:	0611                	addi	a2,a2,4
    8e8a:	0811                	addi	a6,a6,4
    8e8c:	b705                	j	8dac <__multiply+0x5e>
    8e8e:	147d                	addi	s0,s0,-1
    8e90:	b705                	j	8db0 <__multiply+0x62>

00008e92 <__pow5mult>:
__pow5mult():
    8e92:	1101                	addi	sp,sp,-32
    8e94:	ca26                	sw	s1,20(sp)
    8e96:	c84a                	sw	s2,16(sp)
    8e98:	c64e                	sw	s3,12(sp)
    8e9a:	ce06                	sw	ra,28(sp)
    8e9c:	cc22                	sw	s0,24(sp)
    8e9e:	c452                	sw	s4,8(sp)
    8ea0:	00367793          	andi	a5,a2,3
    8ea4:	892a                	mv	s2,a0
    8ea6:	84b2                	mv	s1,a2
    8ea8:	89ae                	mv	s3,a1
    8eaa:	cf89                	beqz	a5,8ec4 <__pow5mult+0x32>
    8eac:	17fd                	addi	a5,a5,-1
    8eae:	00001717          	auipc	a4,0x1
    8eb2:	44270713          	addi	a4,a4,1090 # a2f0 <p05.3319>
    8eb6:	078a                	slli	a5,a5,0x2
    8eb8:	97ba                	add	a5,a5,a4
    8eba:	4390                	lw	a2,0(a5)
    8ebc:	4681                	li	a3,0
    8ebe:	d2dff0ef          	jal	ra,8bea <__multadd>
    8ec2:	89aa                	mv	s3,a0
    8ec4:	8489                	srai	s1,s1,0x2
    8ec6:	cca5                	beqz	s1,8f3e <__pow5mult+0xac>
    8ec8:	02492783          	lw	a5,36(s2)
    8ecc:	ef91                	bnez	a5,8ee8 <__pow5mult+0x56>
    8ece:	4541                	li	a0,16
    8ed0:	c29ff0ef          	jal	ra,8af8 <malloc>
    8ed4:	02a92223          	sw	a0,36(s2)
    8ed8:	00052223          	sw	zero,4(a0)
    8edc:	00052423          	sw	zero,8(a0)
    8ee0:	00052023          	sw	zero,0(a0)
    8ee4:	00052623          	sw	zero,12(a0)
    8ee8:	02492a03          	lw	s4,36(s2)
    8eec:	008a2403          	lw	s0,8(s4)
    8ef0:	e819                	bnez	s0,8f06 <__pow5mult+0x74>
    8ef2:	27100593          	li	a1,625
    8ef6:	854a                	mv	a0,s2
    8ef8:	e3bff0ef          	jal	ra,8d32 <__i2b>
    8efc:	00aa2423          	sw	a0,8(s4)
    8f00:	842a                	mv	s0,a0
    8f02:	00052023          	sw	zero,0(a0)
    8f06:	0014f793          	andi	a5,s1,1
    8f0a:	cf81                	beqz	a5,8f22 <__pow5mult+0x90>
    8f0c:	85ce                	mv	a1,s3
    8f0e:	8622                	mv	a2,s0
    8f10:	854a                	mv	a0,s2
    8f12:	e3dff0ef          	jal	ra,8d4e <__multiply>
    8f16:	8a2a                	mv	s4,a0
    8f18:	85ce                	mv	a1,s3
    8f1a:	854a                	mv	a0,s2
    8f1c:	c8bff0ef          	jal	ra,8ba6 <_Bfree>
    8f20:	89d2                	mv	s3,s4
    8f22:	8485                	srai	s1,s1,0x1
    8f24:	cc89                	beqz	s1,8f3e <__pow5mult+0xac>
    8f26:	4008                	lw	a0,0(s0)
    8f28:	e909                	bnez	a0,8f3a <__pow5mult+0xa8>
    8f2a:	8622                	mv	a2,s0
    8f2c:	85a2                	mv	a1,s0
    8f2e:	854a                	mv	a0,s2
    8f30:	e1fff0ef          	jal	ra,8d4e <__multiply>
    8f34:	c008                	sw	a0,0(s0)
    8f36:	00052023          	sw	zero,0(a0)
    8f3a:	842a                	mv	s0,a0
    8f3c:	b7e9                	j	8f06 <__pow5mult+0x74>
    8f3e:	40f2                	lw	ra,28(sp)
    8f40:	4462                	lw	s0,24(sp)
    8f42:	854e                	mv	a0,s3
    8f44:	44d2                	lw	s1,20(sp)
    8f46:	4942                	lw	s2,16(sp)
    8f48:	49b2                	lw	s3,12(sp)
    8f4a:	4a22                	lw	s4,8(sp)
    8f4c:	6105                	addi	sp,sp,32
    8f4e:	8082                	ret

00008f50 <__lshift>:
__lshift():
    8f50:	7179                	addi	sp,sp,-48
    8f52:	d226                	sw	s1,36(sp)
    8f54:	84ae                	mv	s1,a1
    8f56:	ce4e                	sw	s3,28(sp)
    8f58:	0104a983          	lw	s3,16(s1)
    8f5c:	d422                	sw	s0,40(sp)
    8f5e:	41cc                	lw	a1,4(a1)
    8f60:	40565413          	srai	s0,a2,0x5
    8f64:	449c                	lw	a5,8(s1)
    8f66:	99a2                	add	s3,s3,s0
    8f68:	d04a                	sw	s2,32(sp)
    8f6a:	ca56                	sw	s5,20(sp)
    8f6c:	d606                	sw	ra,44(sp)
    8f6e:	cc52                	sw	s4,24(sp)
    8f70:	8aaa                	mv	s5,a0
    8f72:	00198913          	addi	s2,s3,1
    8f76:	0927c463          	blt	a5,s2,8ffe <__lshift+0xae>
    8f7a:	8556                	mv	a0,s5
    8f7c:	c632                	sw	a2,12(sp)
    8f7e:	ba1ff0ef          	jal	ra,8b1e <_Balloc>
    8f82:	4632                	lw	a2,12(sp)
    8f84:	01450793          	addi	a5,a0,20
    8f88:	8a2a                	mv	s4,a0
    8f8a:	86be                	mv	a3,a5
    8f8c:	4701                	li	a4,0
    8f8e:	0691                	addi	a3,a3,4
    8f90:	06874a63          	blt	a4,s0,9004 <__lshift+0xb4>
    8f94:	00045363          	bgez	s0,8f9a <__lshift+0x4a>
    8f98:	4401                	li	s0,0
    8f9a:	4894                	lw	a3,16(s1)
    8f9c:	040a                	slli	s0,s0,0x2
    8f9e:	00878733          	add	a4,a5,s0
    8fa2:	068a                	slli	a3,a3,0x2
    8fa4:	01448793          	addi	a5,s1,20
    8fa8:	8a7d                	andi	a2,a2,31
    8faa:	96be                	add	a3,a3,a5
    8fac:	c225                	beqz	a2,900c <__lshift+0xbc>
    8fae:	02000813          	li	a6,32
    8fb2:	40c80833          	sub	a6,a6,a2
    8fb6:	4581                	li	a1,0
    8fb8:	4388                	lw	a0,0(a5)
    8fba:	0711                	addi	a4,a4,4
    8fbc:	0791                	addi	a5,a5,4
    8fbe:	00c51533          	sll	a0,a0,a2
    8fc2:	8dc9                	or	a1,a1,a0
    8fc4:	feb72e23          	sw	a1,-4(a4)
    8fc8:	ffc7a583          	lw	a1,-4(a5)
    8fcc:	0105d5b3          	srl	a1,a1,a6
    8fd0:	fed7e4e3          	bltu	a5,a3,8fb8 <__lshift+0x68>
    8fd4:	c30c                	sw	a1,0(a4)
    8fd6:	c199                	beqz	a1,8fdc <__lshift+0x8c>
    8fd8:	00298913          	addi	s2,s3,2
    8fdc:	197d                	addi	s2,s2,-1
    8fde:	012a2823          	sw	s2,16(s4)
    8fe2:	8556                	mv	a0,s5
    8fe4:	85a6                	mv	a1,s1
    8fe6:	bc1ff0ef          	jal	ra,8ba6 <_Bfree>
    8fea:	50b2                	lw	ra,44(sp)
    8fec:	5422                	lw	s0,40(sp)
    8fee:	8552                	mv	a0,s4
    8ff0:	5492                	lw	s1,36(sp)
    8ff2:	5902                	lw	s2,32(sp)
    8ff4:	49f2                	lw	s3,28(sp)
    8ff6:	4a62                	lw	s4,24(sp)
    8ff8:	4ad2                	lw	s5,20(sp)
    8ffa:	6145                	addi	sp,sp,48
    8ffc:	8082                	ret
    8ffe:	0585                	addi	a1,a1,1
    9000:	0786                	slli	a5,a5,0x1
    9002:	bf95                	j	8f76 <__lshift+0x26>
    9004:	fe06ae23          	sw	zero,-4(a3) # fffc <_data_lma+0x5bd8>
    9008:	0705                	addi	a4,a4,1
    900a:	b751                	j	8f8e <__lshift+0x3e>
    900c:	0791                	addi	a5,a5,4
    900e:	ffc7a603          	lw	a2,-4(a5)
    9012:	0711                	addi	a4,a4,4
    9014:	fec72e23          	sw	a2,-4(a4)
    9018:	fed7eae3          	bltu	a5,a3,900c <__lshift+0xbc>
    901c:	b7c1                	j	8fdc <__lshift+0x8c>

0000901e <__mcmp>:
__mcmp():
    901e:	491c                	lw	a5,16(a0)
    9020:	4998                	lw	a4,16(a1)
    9022:	8f99                	sub	a5,a5,a4
    9024:	e38d                	bnez	a5,9046 <__mcmp+0x28>
    9026:	070a                	slli	a4,a4,0x2
    9028:	0551                	addi	a0,a0,20
    902a:	05d1                	addi	a1,a1,20
    902c:	00e506b3          	add	a3,a0,a4
    9030:	95ba                	add	a1,a1,a4
    9032:	16f1                	addi	a3,a3,-4
    9034:	15f1                	addi	a1,a1,-4
    9036:	4290                	lw	a2,0(a3)
    9038:	4198                	lw	a4,0(a1)
    903a:	00e60863          	beq	a2,a4,904a <__mcmp+0x2c>
    903e:	57fd                	li	a5,-1
    9040:	00e66363          	bltu	a2,a4,9046 <__mcmp+0x28>
    9044:	4785                	li	a5,1
    9046:	853e                	mv	a0,a5
    9048:	8082                	ret
    904a:	fed564e3          	bltu	a0,a3,9032 <__mcmp+0x14>
    904e:	bfe5                	j	9046 <__mcmp+0x28>

00009050 <__mdiff>:
__mdiff():
    9050:	1101                	addi	sp,sp,-32
    9052:	ca26                	sw	s1,20(sp)
    9054:	84ae                	mv	s1,a1
    9056:	c64e                	sw	s3,12(sp)
    9058:	85b2                	mv	a1,a2
    905a:	89aa                	mv	s3,a0
    905c:	8526                	mv	a0,s1
    905e:	cc22                	sw	s0,24(sp)
    9060:	ce06                	sw	ra,28(sp)
    9062:	c84a                	sw	s2,16(sp)
    9064:	8432                	mv	s0,a2
    9066:	fb9ff0ef          	jal	ra,901e <__mcmp>
    906a:	e105                	bnez	a0,908a <__mdiff+0x3a>
    906c:	4581                	li	a1,0
    906e:	854e                	mv	a0,s3
    9070:	aafff0ef          	jal	ra,8b1e <_Balloc>
    9074:	4785                	li	a5,1
    9076:	c91c                	sw	a5,16(a0)
    9078:	00052a23          	sw	zero,20(a0)
    907c:	40f2                	lw	ra,28(sp)
    907e:	4462                	lw	s0,24(sp)
    9080:	44d2                	lw	s1,20(sp)
    9082:	4942                	lw	s2,16(sp)
    9084:	49b2                	lw	s3,12(sp)
    9086:	6105                	addi	sp,sp,32
    9088:	8082                	ret
    908a:	4905                	li	s2,1
    908c:	00054663          	bltz	a0,9098 <__mdiff+0x48>
    9090:	87a2                	mv	a5,s0
    9092:	4901                	li	s2,0
    9094:	8426                	mv	s0,s1
    9096:	84be                	mv	s1,a5
    9098:	404c                	lw	a1,4(s0)
    909a:	854e                	mv	a0,s3
    909c:	a83ff0ef          	jal	ra,8b1e <_Balloc>
    90a0:	01042303          	lw	t1,16(s0)
    90a4:	0104a883          	lw	a7,16(s1)
    90a8:	01440613          	addi	a2,s0,20
    90ac:	00231e13          	slli	t3,t1,0x2
    90b0:	01448813          	addi	a6,s1,20
    90b4:	088a                	slli	a7,a7,0x2
    90b6:	6ec1                	lui	t4,0x10
    90b8:	01252623          	sw	s2,12(a0)
    90bc:	9e32                	add	t3,t3,a2
    90be:	98c2                	add	a7,a7,a6
    90c0:	01450693          	addi	a3,a0,20
    90c4:	4f01                	li	t5,0
    90c6:	1efd                	addi	t4,t4,-1
    90c8:	4218                	lw	a4,0(a2)
    90ca:	00082f83          	lw	t6,0(a6)
    90ce:	0691                	addi	a3,a3,4
    90d0:	01d775b3          	and	a1,a4,t4
    90d4:	01dff7b3          	and	a5,t6,t4
    90d8:	95fa                	add	a1,a1,t5
    90da:	8d9d                	sub	a1,a1,a5
    90dc:	010fdf93          	srli	t6,t6,0x10
    90e0:	01075793          	srli	a5,a4,0x10
    90e4:	41f787b3          	sub	a5,a5,t6
    90e8:	4105d713          	srai	a4,a1,0x10
    90ec:	97ba                	add	a5,a5,a4
    90ee:	4107df13          	srai	t5,a5,0x10
    90f2:	01d5f5b3          	and	a1,a1,t4
    90f6:	07c2                	slli	a5,a5,0x10
    90f8:	8fcd                	or	a5,a5,a1
    90fa:	0811                	addi	a6,a6,4
    90fc:	fef6ae23          	sw	a5,-4(a3)
    9100:	0611                	addi	a2,a2,4
    9102:	fd1863e3          	bltu	a6,a7,90c8 <__mdiff+0x78>
    9106:	65c1                	lui	a1,0x10
    9108:	15fd                	addi	a1,a1,-1
    910a:	01c66863          	bltu	a2,t3,911a <__mdiff+0xca>
    910e:	16f1                	addi	a3,a3,-4
    9110:	429c                	lw	a5,0(a3)
    9112:	c795                	beqz	a5,913e <__mdiff+0xee>
    9114:	00652823          	sw	t1,16(a0)
    9118:	b795                	j	907c <__mdiff+0x2c>
    911a:	421c                	lw	a5,0(a2)
    911c:	0691                	addi	a3,a3,4
    911e:	0611                	addi	a2,a2,4
    9120:	00b7f733          	and	a4,a5,a1
    9124:	977a                	add	a4,a4,t5
    9126:	41075813          	srai	a6,a4,0x10
    912a:	83c1                	srli	a5,a5,0x10
    912c:	97c2                	add	a5,a5,a6
    912e:	4107df13          	srai	t5,a5,0x10
    9132:	8f6d                	and	a4,a4,a1
    9134:	07c2                	slli	a5,a5,0x10
    9136:	8fd9                	or	a5,a5,a4
    9138:	fef6ae23          	sw	a5,-4(a3)
    913c:	b7f9                	j	910a <__mdiff+0xba>
    913e:	137d                	addi	t1,t1,-1
    9140:	b7f9                	j	910e <__mdiff+0xbe>

00009142 <__d2b>:
__d2b():
    9142:	7179                	addi	sp,sp,-48
    9144:	d422                	sw	s0,40(sp)
    9146:	842e                	mv	s0,a1
    9148:	4585                	li	a1,1
    914a:	d226                	sw	s1,36(sp)
    914c:	d04a                	sw	s2,32(sp)
    914e:	84b2                	mv	s1,a2
    9150:	ce4e                	sw	s3,28(sp)
    9152:	cc52                	sw	s4,24(sp)
    9154:	893a                	mv	s2,a4
    9156:	d606                	sw	ra,44(sp)
    9158:	8a36                	mv	s4,a3
    915a:	9c5ff0ef          	jal	ra,8b1e <_Balloc>
    915e:	00100737          	lui	a4,0x100
    9162:	fff70793          	addi	a5,a4,-1 # fffff <_data_lma+0xf5bdb>
    9166:	8fe5                	and	a5,a5,s1
    9168:	80d1                	srli	s1,s1,0x14
    916a:	7ff4f493          	andi	s1,s1,2047
    916e:	89aa                	mv	s3,a0
    9170:	e0b5                	bnez	s1,91d4 <__d2b+0x92>
    9172:	c63e                	sw	a5,12(sp)
    9174:	c42d                	beqz	s0,91de <__d2b+0x9c>
    9176:	0028                	addi	a0,sp,8
    9178:	c422                	sw	s0,8(sp)
    917a:	b4fff0ef          	jal	ra,8cc8 <__lo0bits>
    917e:	46a2                	lw	a3,8(sp)
    9180:	cd21                	beqz	a0,91d8 <__d2b+0x96>
    9182:	4732                	lw	a4,12(sp)
    9184:	02000793          	li	a5,32
    9188:	8f89                	sub	a5,a5,a0
    918a:	00f717b3          	sll	a5,a4,a5
    918e:	8fd5                	or	a5,a5,a3
    9190:	00a75733          	srl	a4,a4,a0
    9194:	00f9aa23          	sw	a5,20(s3)
    9198:	c63a                	sw	a4,12(sp)
    919a:	4432                	lw	s0,12(sp)
    919c:	0089ac23          	sw	s0,24(s3)
    91a0:	00803433          	snez	s0,s0
    91a4:	0405                	addi	s0,s0,1
    91a6:	0089a823          	sw	s0,16(s3)
    91aa:	c4b9                	beqz	s1,91f8 <__d2b+0xb6>
    91ac:	bcd48493          	addi	s1,s1,-1075
    91b0:	94aa                	add	s1,s1,a0
    91b2:	03500793          	li	a5,53
    91b6:	009a2023          	sw	s1,0(s4)
    91ba:	40a78533          	sub	a0,a5,a0
    91be:	00a92023          	sw	a0,0(s2)
    91c2:	50b2                	lw	ra,44(sp)
    91c4:	5422                	lw	s0,40(sp)
    91c6:	854e                	mv	a0,s3
    91c8:	5492                	lw	s1,36(sp)
    91ca:	5902                	lw	s2,32(sp)
    91cc:	49f2                	lw	s3,28(sp)
    91ce:	4a62                	lw	s4,24(sp)
    91d0:	6145                	addi	sp,sp,48
    91d2:	8082                	ret
    91d4:	8fd9                	or	a5,a5,a4
    91d6:	bf71                	j	9172 <__d2b+0x30>
    91d8:	00d9aa23          	sw	a3,20(s3)
    91dc:	bf7d                	j	919a <__d2b+0x58>
    91de:	0068                	addi	a0,sp,12
    91e0:	ae9ff0ef          	jal	ra,8cc8 <__lo0bits>
    91e4:	47b2                	lw	a5,12(sp)
    91e6:	02050513          	addi	a0,a0,32
    91ea:	4405                	li	s0,1
    91ec:	00f9aa23          	sw	a5,20(s3)
    91f0:	4785                	li	a5,1
    91f2:	00f9a823          	sw	a5,16(s3)
    91f6:	bf55                	j	91aa <__d2b+0x68>
    91f8:	00241793          	slli	a5,s0,0x2
    91fc:	bce50513          	addi	a0,a0,-1074
    9200:	97ce                	add	a5,a5,s3
    9202:	00aa2023          	sw	a0,0(s4)
    9206:	4b88                	lw	a0,16(a5)
    9208:	0416                	slli	s0,s0,0x5
    920a:	a79ff0ef          	jal	ra,8c82 <__hi0bits>
    920e:	8c09                	sub	s0,s0,a0
    9210:	00892023          	sw	s0,0(s2)
    9214:	b77d                	j	91c2 <__d2b+0x80>

00009216 <_calloc_r>:
_calloc_r():
    9216:	02c58633          	mul	a2,a1,a2
    921a:	1101                	addi	sp,sp,-32
    921c:	cc22                	sw	s0,24(sp)
    921e:	ce06                	sw	ra,28(sp)
    9220:	85b2                	mv	a1,a2
    9222:	c632                	sw	a2,12(sp)
    9224:	2875                	jal	92e0 <_malloc_r>
    9226:	842a                	mv	s0,a0
    9228:	c509                	beqz	a0,9232 <_calloc_r+0x1c>
    922a:	4632                	lw	a2,12(sp)
    922c:	4581                	li	a1,0
    922e:	fe7f60ef          	jal	ra,214 <memset>
    9232:	8522                	mv	a0,s0
    9234:	40f2                	lw	ra,28(sp)
    9236:	4462                	lw	s0,24(sp)
    9238:	6105                	addi	sp,sp,32
    923a:	8082                	ret

0000923c <_free_r>:
_free_r():
    923c:	c1cd                	beqz	a1,92de <_free_r+0xa2>
    923e:	ffc5a783          	lw	a5,-4(a1) # fffc <_data_lma+0x5bd8>
    9242:	1141                	addi	sp,sp,-16
    9244:	c422                	sw	s0,8(sp)
    9246:	c606                	sw	ra,12(sp)
    9248:	c226                	sw	s1,4(sp)
    924a:	ffc58413          	addi	s0,a1,-4
    924e:	0007d363          	bgez	a5,9254 <_free_r+0x18>
    9252:	943e                	add	s0,s0,a5
    9254:	84aa                	mv	s1,a0
    9256:	2d99                	jal	98ac <__malloc_lock>
    9258:	8a418793          	addi	a5,gp,-1884 # 200002d4 <__malloc_free_list>
    925c:	439c                	lw	a5,0(a5)
    925e:	eb99                	bnez	a5,9274 <_free_r+0x38>
    9260:	00042223          	sw	zero,4(s0)
    9264:	8a81a223          	sw	s0,-1884(gp) # 200002d4 <__malloc_free_list>
    9268:	4422                	lw	s0,8(sp)
    926a:	40b2                	lw	ra,12(sp)
    926c:	8526                	mv	a0,s1
    926e:	4492                	lw	s1,4(sp)
    9270:	0141                	addi	sp,sp,16
    9272:	ad35                	j	98ae <__malloc_unlock>
    9274:	00f47e63          	bgeu	s0,a5,9290 <_free_r+0x54>
    9278:	4014                	lw	a3,0(s0)
    927a:	00d40733          	add	a4,s0,a3
    927e:	00e79663          	bne	a5,a4,928a <_free_r+0x4e>
    9282:	4398                	lw	a4,0(a5)
    9284:	43dc                	lw	a5,4(a5)
    9286:	9736                	add	a4,a4,a3
    9288:	c018                	sw	a4,0(s0)
    928a:	c05c                	sw	a5,4(s0)
    928c:	bfe1                	j	9264 <_free_r+0x28>
    928e:	87ba                	mv	a5,a4
    9290:	43d8                	lw	a4,4(a5)
    9292:	c319                	beqz	a4,9298 <_free_r+0x5c>
    9294:	fee47de3          	bgeu	s0,a4,928e <_free_r+0x52>
    9298:	4394                	lw	a3,0(a5)
    929a:	00d78633          	add	a2,a5,a3
    929e:	00861f63          	bne	a2,s0,92bc <_free_r+0x80>
    92a2:	4010                	lw	a2,0(s0)
    92a4:	96b2                	add	a3,a3,a2
    92a6:	c394                	sw	a3,0(a5)
    92a8:	00d78633          	add	a2,a5,a3
    92ac:	fac71ee3          	bne	a4,a2,9268 <_free_r+0x2c>
    92b0:	4310                	lw	a2,0(a4)
    92b2:	4358                	lw	a4,4(a4)
    92b4:	96b2                	add	a3,a3,a2
    92b6:	c394                	sw	a3,0(a5)
    92b8:	c3d8                	sw	a4,4(a5)
    92ba:	b77d                	j	9268 <_free_r+0x2c>
    92bc:	00c47563          	bgeu	s0,a2,92c6 <_free_r+0x8a>
    92c0:	47b1                	li	a5,12
    92c2:	c09c                	sw	a5,0(s1)
    92c4:	b755                	j	9268 <_free_r+0x2c>
    92c6:	4010                	lw	a2,0(s0)
    92c8:	00c406b3          	add	a3,s0,a2
    92cc:	00d71663          	bne	a4,a3,92d8 <_free_r+0x9c>
    92d0:	4314                	lw	a3,0(a4)
    92d2:	4358                	lw	a4,4(a4)
    92d4:	96b2                	add	a3,a3,a2
    92d6:	c014                	sw	a3,0(s0)
    92d8:	c058                	sw	a4,4(s0)
    92da:	c3c0                	sw	s0,4(a5)
    92dc:	b771                	j	9268 <_free_r+0x2c>
    92de:	8082                	ret

000092e0 <_malloc_r>:
_malloc_r():
    92e0:	1101                	addi	sp,sp,-32
    92e2:	ca26                	sw	s1,20(sp)
    92e4:	00358493          	addi	s1,a1,3
    92e8:	98f1                	andi	s1,s1,-4
    92ea:	ce06                	sw	ra,28(sp)
    92ec:	cc22                	sw	s0,24(sp)
    92ee:	c84a                	sw	s2,16(sp)
    92f0:	c64e                	sw	s3,12(sp)
    92f2:	04a1                	addi	s1,s1,8
    92f4:	47b1                	li	a5,12
    92f6:	04f4f163          	bgeu	s1,a5,9338 <_malloc_r+0x58>
    92fa:	44b1                	li	s1,12
    92fc:	04b4e063          	bltu	s1,a1,933c <_malloc_r+0x5c>
    9300:	892a                	mv	s2,a0
    9302:	236d                	jal	98ac <__malloc_lock>
    9304:	8a418793          	addi	a5,gp,-1884 # 200002d4 <__malloc_free_list>
    9308:	4398                	lw	a4,0(a5)
    930a:	843a                	mv	s0,a4
    930c:	e031                	bnez	s0,9350 <_malloc_r+0x70>
    930e:	8a818793          	addi	a5,gp,-1880 # 200002d8 <__malloc_sbrk_start>
    9312:	439c                	lw	a5,0(a5)
    9314:	e791                	bnez	a5,9320 <_malloc_r+0x40>
    9316:	4581                	li	a1,0
    9318:	854a                	mv	a0,s2
    931a:	264d                	jal	96bc <_sbrk_r>
    931c:	8aa1a423          	sw	a0,-1880(gp) # 200002d8 <__malloc_sbrk_start>
    9320:	85a6                	mv	a1,s1
    9322:	854a                	mv	a0,s2
    9324:	2e61                	jal	96bc <_sbrk_r>
    9326:	59fd                	li	s3,-1
    9328:	07351763          	bne	a0,s3,9396 <_malloc_r+0xb6>
    932c:	47b1                	li	a5,12
    932e:	00f92023          	sw	a5,0(s2)
    9332:	854a                	mv	a0,s2
    9334:	2bad                	jal	98ae <__malloc_unlock>
    9336:	a029                	j	9340 <_malloc_r+0x60>
    9338:	fc04d2e3          	bgez	s1,92fc <_malloc_r+0x1c>
    933c:	47b1                	li	a5,12
    933e:	c11c                	sw	a5,0(a0)
    9340:	4501                	li	a0,0
    9342:	40f2                	lw	ra,28(sp)
    9344:	4462                	lw	s0,24(sp)
    9346:	44d2                	lw	s1,20(sp)
    9348:	4942                	lw	s2,16(sp)
    934a:	49b2                	lw	s3,12(sp)
    934c:	6105                	addi	sp,sp,32
    934e:	8082                	ret
    9350:	401c                	lw	a5,0(s0)
    9352:	8f85                	sub	a5,a5,s1
    9354:	0207ce63          	bltz	a5,9390 <_malloc_r+0xb0>
    9358:	46ad                	li	a3,11
    935a:	00f6f663          	bgeu	a3,a5,9366 <_malloc_r+0x86>
    935e:	c01c                	sw	a5,0(s0)
    9360:	943e                	add	s0,s0,a5
    9362:	c004                	sw	s1,0(s0)
    9364:	a031                	j	9370 <_malloc_r+0x90>
    9366:	405c                	lw	a5,4(s0)
    9368:	02871263          	bne	a4,s0,938c <_malloc_r+0xac>
    936c:	8af1a223          	sw	a5,-1884(gp) # 200002d4 <__malloc_free_list>
    9370:	854a                	mv	a0,s2
    9372:	2b35                	jal	98ae <__malloc_unlock>
    9374:	00b40513          	addi	a0,s0,11
    9378:	00440793          	addi	a5,s0,4
    937c:	9961                	andi	a0,a0,-8
    937e:	40f50733          	sub	a4,a0,a5
    9382:	d361                	beqz	a4,9342 <_malloc_r+0x62>
    9384:	943a                	add	s0,s0,a4
    9386:	8f89                	sub	a5,a5,a0
    9388:	c01c                	sw	a5,0(s0)
    938a:	bf65                	j	9342 <_malloc_r+0x62>
    938c:	c35c                	sw	a5,4(a4)
    938e:	b7cd                	j	9370 <_malloc_r+0x90>
    9390:	8722                	mv	a4,s0
    9392:	4040                	lw	s0,4(s0)
    9394:	bfa5                	j	930c <_malloc_r+0x2c>
    9396:	00350413          	addi	s0,a0,3
    939a:	9871                	andi	s0,s0,-4
    939c:	fc8503e3          	beq	a0,s0,9362 <_malloc_r+0x82>
    93a0:	40a405b3          	sub	a1,s0,a0
    93a4:	854a                	mv	a0,s2
    93a6:	2e19                	jal	96bc <_sbrk_r>
    93a8:	fb351de3          	bne	a0,s3,9362 <_malloc_r+0x82>
    93ac:	b741                	j	932c <_malloc_r+0x4c>

000093ae <__sfputc_r>:
__sfputc_r():
    93ae:	461c                	lw	a5,8(a2)
    93b0:	17fd                	addi	a5,a5,-1
    93b2:	c61c                	sw	a5,8(a2)
    93b4:	0007da63          	bgez	a5,93c8 <__sfputc_r+0x1a>
    93b8:	4e18                	lw	a4,24(a2)
    93ba:	00e7c563          	blt	a5,a4,93c4 <__sfputc_r+0x16>
    93be:	47a9                	li	a5,10
    93c0:	00f59463          	bne	a1,a5,93c8 <__sfputc_r+0x1a>
    93c4:	b18fe06f          	j	76dc <__swbuf_r>
    93c8:	421c                	lw	a5,0(a2)
    93ca:	852e                	mv	a0,a1
    93cc:	00178713          	addi	a4,a5,1
    93d0:	c218                	sw	a4,0(a2)
    93d2:	00b78023          	sb	a1,0(a5)
    93d6:	8082                	ret

000093d8 <__sfputs_r>:
__sfputs_r():
    93d8:	1101                	addi	sp,sp,-32
    93da:	cc22                	sw	s0,24(sp)
    93dc:	ca26                	sw	s1,20(sp)
    93de:	c84a                	sw	s2,16(sp)
    93e0:	c64e                	sw	s3,12(sp)
    93e2:	c452                	sw	s4,8(sp)
    93e4:	ce06                	sw	ra,28(sp)
    93e6:	892a                	mv	s2,a0
    93e8:	89ae                	mv	s3,a1
    93ea:	8432                	mv	s0,a2
    93ec:	00d604b3          	add	s1,a2,a3
    93f0:	5a7d                	li	s4,-1
    93f2:	00941463          	bne	s0,s1,93fa <__sfputs_r+0x22>
    93f6:	4501                	li	a0,0
    93f8:	a811                	j	940c <__sfputs_r+0x34>
    93fa:	00044583          	lbu	a1,0(s0)
    93fe:	864e                	mv	a2,s3
    9400:	854a                	mv	a0,s2
    9402:	fadff0ef          	jal	ra,93ae <__sfputc_r>
    9406:	0405                	addi	s0,s0,1
    9408:	ff4515e3          	bne	a0,s4,93f2 <__sfputs_r+0x1a>
    940c:	40f2                	lw	ra,28(sp)
    940e:	4462                	lw	s0,24(sp)
    9410:	44d2                	lw	s1,20(sp)
    9412:	4942                	lw	s2,16(sp)
    9414:	49b2                	lw	s3,12(sp)
    9416:	4a22                	lw	s4,8(sp)
    9418:	6105                	addi	sp,sp,32
    941a:	8082                	ret

0000941c <_vfiprintf_r>:
_vfiprintf_r():
    941c:	7135                	addi	sp,sp,-160
    941e:	cd22                	sw	s0,152(sp)
    9420:	cb26                	sw	s1,148(sp)
    9422:	c94a                	sw	s2,144(sp)
    9424:	c74e                	sw	s3,140(sp)
    9426:	cf06                	sw	ra,156(sp)
    9428:	c552                	sw	s4,136(sp)
    942a:	c356                	sw	s5,132(sp)
    942c:	c15a                	sw	s6,128(sp)
    942e:	dede                	sw	s7,124(sp)
    9430:	dce2                	sw	s8,120(sp)
    9432:	dae6                	sw	s9,116(sp)
    9434:	89aa                	mv	s3,a0
    9436:	84ae                	mv	s1,a1
    9438:	8932                	mv	s2,a2
    943a:	8436                	mv	s0,a3
    943c:	c509                	beqz	a0,9446 <_vfiprintf_r+0x2a>
    943e:	4d1c                	lw	a5,24(a0)
    9440:	e399                	bnez	a5,9446 <_vfiprintf_r+0x2a>
    9442:	c2aff0ef          	jal	ra,886c <__sinit>
    9446:	00001797          	auipc	a5,0x1
    944a:	d7a78793          	addi	a5,a5,-646 # a1c0 <__sf_fake_stdin>
    944e:	0cf49d63          	bne	s1,a5,9528 <_vfiprintf_r+0x10c>
    9452:	0049a483          	lw	s1,4(s3)
    9456:	00c4d783          	lhu	a5,12(s1)
    945a:	8ba1                	andi	a5,a5,8
    945c:	cbe5                	beqz	a5,954c <_vfiprintf_r+0x130>
    945e:	489c                	lw	a5,16(s1)
    9460:	c7f5                	beqz	a5,954c <_vfiprintf_r+0x130>
    9462:	02000793          	li	a5,32
    9466:	02f104a3          	sb	a5,41(sp)
    946a:	03000793          	li	a5,48
    946e:	d202                	sw	zero,36(sp)
    9470:	02f10523          	sb	a5,42(sp)
    9474:	c622                	sw	s0,12(sp)
    9476:	02500b93          	li	s7,37
    947a:	00001a97          	auipc	s5,0x1
    947e:	e82a8a93          	addi	s5,s5,-382 # a2fc <p05.3319+0xc>
    9482:	4c05                	li	s8,1
    9484:	4b29                	li	s6,10
    9486:	844a                	mv	s0,s2
    9488:	00044783          	lbu	a5,0(s0)
    948c:	c399                	beqz	a5,9492 <_vfiprintf_r+0x76>
    948e:	0f779263          	bne	a5,s7,9572 <_vfiprintf_r+0x156>
    9492:	41240cb3          	sub	s9,s0,s2
    9496:	000c8e63          	beqz	s9,94b2 <_vfiprintf_r+0x96>
    949a:	86e6                	mv	a3,s9
    949c:	864a                	mv	a2,s2
    949e:	85a6                	mv	a1,s1
    94a0:	854e                	mv	a0,s3
    94a2:	f37ff0ef          	jal	ra,93d8 <__sfputs_r>
    94a6:	57fd                	li	a5,-1
    94a8:	1ef50763          	beq	a0,a5,9696 <_vfiprintf_r+0x27a>
    94ac:	5692                	lw	a3,36(sp)
    94ae:	96e6                	add	a3,a3,s9
    94b0:	d236                	sw	a3,36(sp)
    94b2:	00044783          	lbu	a5,0(s0)
    94b6:	1e078063          	beqz	a5,9696 <_vfiprintf_r+0x27a>
    94ba:	57fd                	li	a5,-1
    94bc:	00140913          	addi	s2,s0,1
    94c0:	c802                	sw	zero,16(sp)
    94c2:	ce02                	sw	zero,28(sp)
    94c4:	ca3e                	sw	a5,20(sp)
    94c6:	cc02                	sw	zero,24(sp)
    94c8:	040109a3          	sb	zero,83(sp)
    94cc:	d482                	sw	zero,104(sp)
    94ce:	00094583          	lbu	a1,0(s2)
    94d2:	4615                	li	a2,5
    94d4:	8556                	mv	a0,s5
    94d6:	e2eff0ef          	jal	ra,8b04 <memchr>
    94da:	00190413          	addi	s0,s2,1
    94de:	47c2                	lw	a5,16(sp)
    94e0:	e959                	bnez	a0,9576 <_vfiprintf_r+0x15a>
    94e2:	0107f713          	andi	a4,a5,16
    94e6:	c709                	beqz	a4,94f0 <_vfiprintf_r+0xd4>
    94e8:	02000713          	li	a4,32
    94ec:	04e109a3          	sb	a4,83(sp)
    94f0:	0087f713          	andi	a4,a5,8
    94f4:	c709                	beqz	a4,94fe <_vfiprintf_r+0xe2>
    94f6:	02b00713          	li	a4,43
    94fa:	04e109a3          	sb	a4,83(sp)
    94fe:	00094683          	lbu	a3,0(s2)
    9502:	02a00713          	li	a4,42
    9506:	08e68063          	beq	a3,a4,9586 <_vfiprintf_r+0x16a>
    950a:	47f2                	lw	a5,28(sp)
    950c:	844a                	mv	s0,s2
    950e:	4681                	li	a3,0
    9510:	4625                	li	a2,9
    9512:	00044703          	lbu	a4,0(s0)
    9516:	00140593          	addi	a1,s0,1
    951a:	fd070713          	addi	a4,a4,-48
    951e:	0ae67963          	bgeu	a2,a4,95d0 <_vfiprintf_r+0x1b4>
    9522:	cab5                	beqz	a3,9596 <_vfiprintf_r+0x17a>
    9524:	ce3e                	sw	a5,28(sp)
    9526:	a885                	j	9596 <_vfiprintf_r+0x17a>
    9528:	00001797          	auipc	a5,0x1
    952c:	cb878793          	addi	a5,a5,-840 # a1e0 <__sf_fake_stdout>
    9530:	00f49563          	bne	s1,a5,953a <_vfiprintf_r+0x11e>
    9534:	0089a483          	lw	s1,8(s3)
    9538:	bf39                	j	9456 <_vfiprintf_r+0x3a>
    953a:	00001797          	auipc	a5,0x1
    953e:	c6678793          	addi	a5,a5,-922 # a1a0 <__sf_fake_stderr>
    9542:	f0f49ae3          	bne	s1,a5,9456 <_vfiprintf_r+0x3a>
    9546:	00c9a483          	lw	s1,12(s3)
    954a:	b731                	j	9456 <_vfiprintf_r+0x3a>
    954c:	85a6                	mv	a1,s1
    954e:	854e                	mv	a0,s3
    9550:	a52fe0ef          	jal	ra,77a2 <__swsetup_r>
    9554:	d519                	beqz	a0,9462 <_vfiprintf_r+0x46>
    9556:	557d                	li	a0,-1
    9558:	40fa                	lw	ra,156(sp)
    955a:	446a                	lw	s0,152(sp)
    955c:	44da                	lw	s1,148(sp)
    955e:	494a                	lw	s2,144(sp)
    9560:	49ba                	lw	s3,140(sp)
    9562:	4a2a                	lw	s4,136(sp)
    9564:	4a9a                	lw	s5,132(sp)
    9566:	4b0a                	lw	s6,128(sp)
    9568:	5bf6                	lw	s7,124(sp)
    956a:	5c66                	lw	s8,120(sp)
    956c:	5cd6                	lw	s9,116(sp)
    956e:	610d                	addi	sp,sp,160
    9570:	8082                	ret
    9572:	0405                	addi	s0,s0,1
    9574:	bf11                	j	9488 <_vfiprintf_r+0x6c>
    9576:	41550533          	sub	a0,a0,s5
    957a:	00ac1533          	sll	a0,s8,a0
    957e:	8fc9                	or	a5,a5,a0
    9580:	c83e                	sw	a5,16(sp)
    9582:	8922                	mv	s2,s0
    9584:	b7a9                	j	94ce <_vfiprintf_r+0xb2>
    9586:	4732                	lw	a4,12(sp)
    9588:	00470693          	addi	a3,a4,4
    958c:	4318                	lw	a4,0(a4)
    958e:	c636                	sw	a3,12(sp)
    9590:	02074963          	bltz	a4,95c2 <_vfiprintf_r+0x1a6>
    9594:	ce3a                	sw	a4,28(sp)
    9596:	00044703          	lbu	a4,0(s0)
    959a:	02e00793          	li	a5,46
    959e:	04f71f63          	bne	a4,a5,95fc <_vfiprintf_r+0x1e0>
    95a2:	00144703          	lbu	a4,1(s0)
    95a6:	02a00793          	li	a5,42
    95aa:	02f71b63          	bne	a4,a5,95e0 <_vfiprintf_r+0x1c4>
    95ae:	47b2                	lw	a5,12(sp)
    95b0:	0409                	addi	s0,s0,2
    95b2:	00478713          	addi	a4,a5,4
    95b6:	439c                	lw	a5,0(a5)
    95b8:	c63a                	sw	a4,12(sp)
    95ba:	0207c163          	bltz	a5,95dc <_vfiprintf_r+0x1c0>
    95be:	ca3e                	sw	a5,20(sp)
    95c0:	a835                	j	95fc <_vfiprintf_r+0x1e0>
    95c2:	40e00733          	neg	a4,a4
    95c6:	0027e793          	ori	a5,a5,2
    95ca:	ce3a                	sw	a4,28(sp)
    95cc:	c83e                	sw	a5,16(sp)
    95ce:	b7e1                	j	9596 <_vfiprintf_r+0x17a>
    95d0:	036787b3          	mul	a5,a5,s6
    95d4:	4685                	li	a3,1
    95d6:	842e                	mv	s0,a1
    95d8:	97ba                	add	a5,a5,a4
    95da:	bf25                	j	9512 <_vfiprintf_r+0xf6>
    95dc:	57fd                	li	a5,-1
    95de:	b7c5                	j	95be <_vfiprintf_r+0x1a2>
    95e0:	0405                	addi	s0,s0,1
    95e2:	ca02                	sw	zero,20(sp)
    95e4:	4681                	li	a3,0
    95e6:	4781                	li	a5,0
    95e8:	4625                	li	a2,9
    95ea:	00044703          	lbu	a4,0(s0)
    95ee:	00140593          	addi	a1,s0,1
    95f2:	fd070713          	addi	a4,a4,-48
    95f6:	06e67863          	bgeu	a2,a4,9666 <_vfiprintf_r+0x24a>
    95fa:	f2f1                	bnez	a3,95be <_vfiprintf_r+0x1a2>
    95fc:	00044583          	lbu	a1,0(s0)
    9600:	460d                	li	a2,3
    9602:	00001517          	auipc	a0,0x1
    9606:	d0250513          	addi	a0,a0,-766 # a304 <p05.3319+0x14>
    960a:	cfaff0ef          	jal	ra,8b04 <memchr>
    960e:	cd11                	beqz	a0,962a <_vfiprintf_r+0x20e>
    9610:	00001797          	auipc	a5,0x1
    9614:	cf478793          	addi	a5,a5,-780 # a304 <p05.3319+0x14>
    9618:	8d1d                	sub	a0,a0,a5
    961a:	04000793          	li	a5,64
    961e:	00a797b3          	sll	a5,a5,a0
    9622:	4542                	lw	a0,16(sp)
    9624:	0405                	addi	s0,s0,1
    9626:	8d5d                	or	a0,a0,a5
    9628:	c82a                	sw	a0,16(sp)
    962a:	00044583          	lbu	a1,0(s0)
    962e:	4619                	li	a2,6
    9630:	00001517          	auipc	a0,0x1
    9634:	cd850513          	addi	a0,a0,-808 # a308 <p05.3319+0x18>
    9638:	00140913          	addi	s2,s0,1
    963c:	02b10423          	sb	a1,40(sp)
    9640:	cc4ff0ef          	jal	ra,8b04 <memchr>
    9644:	c12d                	beqz	a0,96a6 <_vfiprintf_r+0x28a>
    9646:	ffffd797          	auipc	a5,0xffffd
    964a:	7c678793          	addi	a5,a5,1990 # 6e0c <_printf_float>
    964e:	e795                	bnez	a5,967a <_vfiprintf_r+0x25e>
    9650:	4742                	lw	a4,16(sp)
    9652:	47b2                	lw	a5,12(sp)
    9654:	10077713          	andi	a4,a4,256
    9658:	cf09                	beqz	a4,9672 <_vfiprintf_r+0x256>
    965a:	0791                	addi	a5,a5,4
    965c:	c63e                	sw	a5,12(sp)
    965e:	5792                	lw	a5,36(sp)
    9660:	97d2                	add	a5,a5,s4
    9662:	d23e                	sw	a5,36(sp)
    9664:	b50d                	j	9486 <_vfiprintf_r+0x6a>
    9666:	036787b3          	mul	a5,a5,s6
    966a:	4685                	li	a3,1
    966c:	842e                	mv	s0,a1
    966e:	97ba                	add	a5,a5,a4
    9670:	bfad                	j	95ea <_vfiprintf_r+0x1ce>
    9672:	079d                	addi	a5,a5,7
    9674:	9be1                	andi	a5,a5,-8
    9676:	07a1                	addi	a5,a5,8
    9678:	b7d5                	j	965c <_vfiprintf_r+0x240>
    967a:	0078                	addi	a4,sp,12
    967c:	00000697          	auipc	a3,0x0
    9680:	d5c68693          	addi	a3,a3,-676 # 93d8 <__sfputs_r>
    9684:	8626                	mv	a2,s1
    9686:	080c                	addi	a1,sp,16
    9688:	854e                	mv	a0,s3
    968a:	f82fd0ef          	jal	ra,6e0c <_printf_float>
    968e:	57fd                	li	a5,-1
    9690:	8a2a                	mv	s4,a0
    9692:	fcf516e3          	bne	a0,a5,965e <_vfiprintf_r+0x242>
    9696:	00c4d783          	lhu	a5,12(s1)
    969a:	0407f793          	andi	a5,a5,64
    969e:	ea079ce3          	bnez	a5,9556 <_vfiprintf_r+0x13a>
    96a2:	5512                	lw	a0,36(sp)
    96a4:	bd55                	j	9558 <_vfiprintf_r+0x13c>
    96a6:	0078                	addi	a4,sp,12
    96a8:	00000697          	auipc	a3,0x0
    96ac:	d3068693          	addi	a3,a3,-720 # 93d8 <__sfputs_r>
    96b0:	8626                	mv	a2,s1
    96b2:	080c                	addi	a1,sp,16
    96b4:	854e                	mv	a0,s3
    96b6:	d27fd0ef          	jal	ra,73dc <_printf_i>
    96ba:	bfd1                	j	968e <_vfiprintf_r+0x272>

000096bc <_sbrk_r>:
_sbrk_r():
    96bc:	1141                	addi	sp,sp,-16
    96be:	c422                	sw	s0,8(sp)
    96c0:	842a                	mv	s0,a0
    96c2:	852e                	mv	a0,a1
    96c4:	9201ac23          	sw	zero,-1736(gp) # 20000368 <errno>
    96c8:	c606                	sw	ra,12(sp)
    96ca:	2bf9                	jal	9ca8 <_sbrk>
    96cc:	57fd                	li	a5,-1
    96ce:	00f51763          	bne	a0,a5,96dc <_sbrk_r+0x20>
    96d2:	93818793          	addi	a5,gp,-1736 # 20000368 <errno>
    96d6:	439c                	lw	a5,0(a5)
    96d8:	c391                	beqz	a5,96dc <_sbrk_r+0x20>
    96da:	c01c                	sw	a5,0(s0)
    96dc:	40b2                	lw	ra,12(sp)
    96de:	4422                	lw	s0,8(sp)
    96e0:	0141                	addi	sp,sp,16
    96e2:	8082                	ret

000096e4 <__sread>:
__sread():
    96e4:	1141                	addi	sp,sp,-16
    96e6:	c422                	sw	s0,8(sp)
    96e8:	842e                	mv	s0,a1
    96ea:	00e59583          	lh	a1,14(a1)
    96ee:	c606                	sw	ra,12(sp)
    96f0:	22c1                	jal	98b0 <_read_r>
    96f2:	00054963          	bltz	a0,9704 <__sread+0x20>
    96f6:	487c                	lw	a5,84(s0)
    96f8:	97aa                	add	a5,a5,a0
    96fa:	c87c                	sw	a5,84(s0)
    96fc:	40b2                	lw	ra,12(sp)
    96fe:	4422                	lw	s0,8(sp)
    9700:	0141                	addi	sp,sp,16
    9702:	8082                	ret
    9704:	00c45783          	lhu	a5,12(s0)
    9708:	777d                	lui	a4,0xfffff
    970a:	177d                	addi	a4,a4,-1
    970c:	8ff9                	and	a5,a5,a4
    970e:	00f41623          	sh	a5,12(s0)
    9712:	b7ed                	j	96fc <__sread+0x18>

00009714 <__swrite>:
__swrite():
    9714:	00c5d783          	lhu	a5,12(a1)
    9718:	1101                	addi	sp,sp,-32
    971a:	cc22                	sw	s0,24(sp)
    971c:	ca26                	sw	s1,20(sp)
    971e:	c84a                	sw	s2,16(sp)
    9720:	c64e                	sw	s3,12(sp)
    9722:	ce06                	sw	ra,28(sp)
    9724:	1007f793          	andi	a5,a5,256
    9728:	84aa                	mv	s1,a0
    972a:	842e                	mv	s0,a1
    972c:	8932                	mv	s2,a2
    972e:	89b6                	mv	s3,a3
    9730:	c791                	beqz	a5,973c <__swrite+0x28>
    9732:	00e59583          	lh	a1,14(a1)
    9736:	4689                	li	a3,2
    9738:	4601                	li	a2,0
    973a:	2231                	jal	9846 <_lseek_r>
    973c:	00c45783          	lhu	a5,12(s0)
    9740:	777d                	lui	a4,0xfffff
    9742:	177d                	addi	a4,a4,-1
    9744:	8ff9                	and	a5,a5,a4
    9746:	00f41623          	sh	a5,12(s0)
    974a:	00e41583          	lh	a1,14(s0)
    974e:	4462                	lw	s0,24(sp)
    9750:	40f2                	lw	ra,28(sp)
    9752:	86ce                	mv	a3,s3
    9754:	864a                	mv	a2,s2
    9756:	49b2                	lw	s3,12(sp)
    9758:	4942                	lw	s2,16(sp)
    975a:	8526                	mv	a0,s1
    975c:	44d2                	lw	s1,20(sp)
    975e:	6105                	addi	sp,sp,32
    9760:	a83d                	j	979e <_write_r>

00009762 <__sseek>:
__sseek():
    9762:	1141                	addi	sp,sp,-16
    9764:	c422                	sw	s0,8(sp)
    9766:	842e                	mv	s0,a1
    9768:	00e59583          	lh	a1,14(a1)
    976c:	c606                	sw	ra,12(sp)
    976e:	28e1                	jal	9846 <_lseek_r>
    9770:	57fd                	li	a5,-1
    9772:	00c45703          	lhu	a4,12(s0)
    9776:	00f51b63          	bne	a0,a5,978c <__sseek+0x2a>
    977a:	77fd                	lui	a5,0xfffff
    977c:	17fd                	addi	a5,a5,-1
    977e:	8ff9                	and	a5,a5,a4
    9780:	00f41623          	sh	a5,12(s0)
    9784:	40b2                	lw	ra,12(sp)
    9786:	4422                	lw	s0,8(sp)
    9788:	0141                	addi	sp,sp,16
    978a:	8082                	ret
    978c:	6785                	lui	a5,0x1
    978e:	8fd9                	or	a5,a5,a4
    9790:	00f41623          	sh	a5,12(s0)
    9794:	c868                	sw	a0,84(s0)
    9796:	b7fd                	j	9784 <__sseek+0x22>

00009798 <__sclose>:
__sclose():
    9798:	00e59583          	lh	a1,14(a1)
    979c:	a805                	j	97cc <_close_r>

0000979e <_write_r>:
_write_r():
    979e:	1141                	addi	sp,sp,-16
    97a0:	c422                	sw	s0,8(sp)
    97a2:	842a                	mv	s0,a0
    97a4:	852e                	mv	a0,a1
    97a6:	85b2                	mv	a1,a2
    97a8:	8636                	mv	a2,a3
    97aa:	9201ac23          	sw	zero,-1736(gp) # 20000368 <errno>
    97ae:	c606                	sw	ra,12(sp)
    97b0:	9d7f70ef          	jal	ra,1186 <_write>
    97b4:	57fd                	li	a5,-1
    97b6:	00f51763          	bne	a0,a5,97c4 <_write_r+0x26>
    97ba:	93818793          	addi	a5,gp,-1736 # 20000368 <errno>
    97be:	439c                	lw	a5,0(a5)
    97c0:	c391                	beqz	a5,97c4 <_write_r+0x26>
    97c2:	c01c                	sw	a5,0(s0)
    97c4:	40b2                	lw	ra,12(sp)
    97c6:	4422                	lw	s0,8(sp)
    97c8:	0141                	addi	sp,sp,16
    97ca:	8082                	ret

000097cc <_close_r>:
_close_r():
    97cc:	1141                	addi	sp,sp,-16
    97ce:	c422                	sw	s0,8(sp)
    97d0:	842a                	mv	s0,a0
    97d2:	852e                	mv	a0,a1
    97d4:	9201ac23          	sw	zero,-1736(gp) # 20000368 <errno>
    97d8:	c606                	sw	ra,12(sp)
    97da:	2949                	jal	9c6c <_close>
    97dc:	57fd                	li	a5,-1
    97de:	00f51763          	bne	a0,a5,97ec <_close_r+0x20>
    97e2:	93818793          	addi	a5,gp,-1736 # 20000368 <errno>
    97e6:	439c                	lw	a5,0(a5)
    97e8:	c391                	beqz	a5,97ec <_close_r+0x20>
    97ea:	c01c                	sw	a5,0(s0)
    97ec:	40b2                	lw	ra,12(sp)
    97ee:	4422                	lw	s0,8(sp)
    97f0:	0141                	addi	sp,sp,16
    97f2:	8082                	ret

000097f4 <_fstat_r>:
_fstat_r():
    97f4:	1141                	addi	sp,sp,-16
    97f6:	c422                	sw	s0,8(sp)
    97f8:	842a                	mv	s0,a0
    97fa:	852e                	mv	a0,a1
    97fc:	85b2                	mv	a1,a2
    97fe:	9201ac23          	sw	zero,-1736(gp) # 20000368 <errno>
    9802:	c606                	sw	ra,12(sp)
    9804:	2995                	jal	9c78 <_fstat>
    9806:	57fd                	li	a5,-1
    9808:	00f51763          	bne	a0,a5,9816 <_fstat_r+0x22>
    980c:	93818793          	addi	a5,gp,-1736 # 20000368 <errno>
    9810:	439c                	lw	a5,0(a5)
    9812:	c391                	beqz	a5,9816 <_fstat_r+0x22>
    9814:	c01c                	sw	a5,0(s0)
    9816:	40b2                	lw	ra,12(sp)
    9818:	4422                	lw	s0,8(sp)
    981a:	0141                	addi	sp,sp,16
    981c:	8082                	ret

0000981e <_isatty_r>:
_isatty_r():
    981e:	1141                	addi	sp,sp,-16
    9820:	c422                	sw	s0,8(sp)
    9822:	842a                	mv	s0,a0
    9824:	852e                	mv	a0,a1
    9826:	9201ac23          	sw	zero,-1736(gp) # 20000368 <errno>
    982a:	c606                	sw	ra,12(sp)
    982c:	29a1                	jal	9c84 <_isatty>
    982e:	57fd                	li	a5,-1
    9830:	00f51763          	bne	a0,a5,983e <_isatty_r+0x20>
    9834:	93818793          	addi	a5,gp,-1736 # 20000368 <errno>
    9838:	439c                	lw	a5,0(a5)
    983a:	c391                	beqz	a5,983e <_isatty_r+0x20>
    983c:	c01c                	sw	a5,0(s0)
    983e:	40b2                	lw	ra,12(sp)
    9840:	4422                	lw	s0,8(sp)
    9842:	0141                	addi	sp,sp,16
    9844:	8082                	ret

00009846 <_lseek_r>:
_lseek_r():
    9846:	1141                	addi	sp,sp,-16
    9848:	c422                	sw	s0,8(sp)
    984a:	842a                	mv	s0,a0
    984c:	852e                	mv	a0,a1
    984e:	85b2                	mv	a1,a2
    9850:	8636                	mv	a2,a3
    9852:	9201ac23          	sw	zero,-1736(gp) # 20000368 <errno>
    9856:	c606                	sw	ra,12(sp)
    9858:	2925                	jal	9c90 <_lseek>
    985a:	57fd                	li	a5,-1
    985c:	00f51763          	bne	a0,a5,986a <_lseek_r+0x24>
    9860:	93818793          	addi	a5,gp,-1736 # 20000368 <errno>
    9864:	439c                	lw	a5,0(a5)
    9866:	c391                	beqz	a5,986a <_lseek_r+0x24>
    9868:	c01c                	sw	a5,0(s0)
    986a:	40b2                	lw	ra,12(sp)
    986c:	4422                	lw	s0,8(sp)
    986e:	0141                	addi	sp,sp,16
    9870:	8082                	ret

00009872 <__ascii_mbtowc>:
__ascii_mbtowc():
    9872:	e185                	bnez	a1,9892 <__ascii_mbtowc+0x20>
    9874:	1141                	addi	sp,sp,-16
    9876:	006c                	addi	a1,sp,12
    9878:	4501                	li	a0,0
    987a:	ca11                	beqz	a2,988e <__ascii_mbtowc+0x1c>
    987c:	5579                	li	a0,-2
    987e:	ca81                	beqz	a3,988e <__ascii_mbtowc+0x1c>
    9880:	00064783          	lbu	a5,0(a2)
    9884:	c19c                	sw	a5,0(a1)
    9886:	00064503          	lbu	a0,0(a2)
    988a:	00a03533          	snez	a0,a0
    988e:	0141                	addi	sp,sp,16
    9890:	8082                	ret
    9892:	4501                	li	a0,0
    9894:	ca19                	beqz	a2,98aa <__ascii_mbtowc+0x38>
    9896:	5579                	li	a0,-2
    9898:	ca89                	beqz	a3,98aa <__ascii_mbtowc+0x38>
    989a:	00064783          	lbu	a5,0(a2)
    989e:	c19c                	sw	a5,0(a1)
    98a0:	00064503          	lbu	a0,0(a2)
    98a4:	00a03533          	snez	a0,a0
    98a8:	8082                	ret
    98aa:	8082                	ret

000098ac <__malloc_lock>:
__malloc_lock():
    98ac:	8082                	ret

000098ae <__malloc_unlock>:
__malloc_unlock():
    98ae:	8082                	ret

000098b0 <_read_r>:
_read_r():
    98b0:	1141                	addi	sp,sp,-16
    98b2:	c422                	sw	s0,8(sp)
    98b4:	842a                	mv	s0,a0
    98b6:	852e                	mv	a0,a1
    98b8:	85b2                	mv	a1,a2
    98ba:	8636                	mv	a2,a3
    98bc:	9201ac23          	sw	zero,-1736(gp) # 20000368 <errno>
    98c0:	c606                	sw	ra,12(sp)
    98c2:	2ee9                	jal	9c9c <_read>
    98c4:	57fd                	li	a5,-1
    98c6:	00f51763          	bne	a0,a5,98d4 <_read_r+0x24>
    98ca:	93818793          	addi	a5,gp,-1736 # 20000368 <errno>
    98ce:	439c                	lw	a5,0(a5)
    98d0:	c391                	beqz	a5,98d4 <_read_r+0x24>
    98d2:	c01c                	sw	a5,0(s0)
    98d4:	40b2                	lw	ra,12(sp)
    98d6:	4422                	lw	s0,8(sp)
    98d8:	0141                	addi	sp,sp,16
    98da:	8082                	ret

000098dc <__ascii_wctomb>:
__ascii_wctomb():
    98dc:	cd91                	beqz	a1,98f8 <__ascii_wctomb+0x1c>
    98de:	0ff00793          	li	a5,255
    98e2:	00c7f763          	bgeu	a5,a2,98f0 <__ascii_wctomb+0x14>
    98e6:	08a00793          	li	a5,138
    98ea:	c11c                	sw	a5,0(a0)
    98ec:	557d                	li	a0,-1
    98ee:	8082                	ret
    98f0:	00c58023          	sb	a2,0(a1)
    98f4:	4505                	li	a0,1
    98f6:	8082                	ret
    98f8:	4501                	li	a0,0
    98fa:	8082                	ret

000098fc <__gedf2>:
__gtdf2():
    98fc:	0145d713          	srli	a4,a1,0x14
    9900:	001007b7          	lui	a5,0x100
    9904:	17fd                	addi	a5,a5,-1
    9906:	0146d813          	srli	a6,a3,0x14
    990a:	7ff77713          	andi	a4,a4,2047
    990e:	7ff00893          	li	a7,2047
    9912:	00b7f333          	and	t1,a5,a1
    9916:	8e2a                	mv	t3,a0
    9918:	8ff5                	and	a5,a5,a3
    991a:	81fd                	srli	a1,a1,0x1f
    991c:	8eb2                	mv	t4,a2
    991e:	7ff87813          	andi	a6,a6,2047
    9922:	82fd                	srli	a3,a3,0x1f
    9924:	03170863          	beq	a4,a7,9954 <__gedf2+0x58>
    9928:	03180063          	beq	a6,a7,9948 <__gedf2+0x4c>
    992c:	eb0d                	bnez	a4,995e <__gedf2+0x62>
    992e:	00a368b3          	or	a7,t1,a0
    9932:	00081463          	bnez	a6,993a <__gedf2+0x3e>
    9936:	8e5d                	or	a2,a2,a5
    9938:	ca29                	beqz	a2,998a <__gedf2+0x8e>
    993a:	04088563          	beqz	a7,9984 <__gedf2+0x88>
    993e:	02d58863          	beq	a1,a3,996e <__gedf2+0x72>
    9942:	4505                	li	a0,1
    9944:	ed95                	bnez	a1,9980 <__gedf2+0x84>
    9946:	8082                	ret
    9948:	00c7e8b3          	or	a7,a5,a2
    994c:	fe0880e3          	beqz	a7,992c <__gedf2+0x30>
    9950:	5579                	li	a0,-2
    9952:	8082                	ret
    9954:	00a36533          	or	a0,t1,a0
    9958:	fd65                	bnez	a0,9950 <__gedf2+0x54>
    995a:	02e80c63          	beq	a6,a4,9992 <__gedf2+0x96>
    995e:	00081463          	bnez	a6,9966 <__gedf2+0x6a>
    9962:	8e5d                	or	a2,a2,a5
    9964:	de79                	beqz	a2,9942 <__gedf2+0x46>
    9966:	fcd59ee3          	bne	a1,a3,9942 <__gedf2+0x46>
    996a:	fce84ce3          	blt	a6,a4,9942 <__gedf2+0x46>
    996e:	01074863          	blt	a4,a6,997e <__gedf2+0x82>
    9972:	fc67e8e3          	bltu	a5,t1,9942 <__gedf2+0x46>
    9976:	02f30363          	beq	t1,a5,999c <__gedf2+0xa0>
    997a:	00f37f63          	bgeu	t1,a5,9998 <__gedf2+0x9c>
    997e:	e581                	bnez	a1,9986 <__gedf2+0x8a>
    9980:	557d                	li	a0,-1
    9982:	8082                	ret
    9984:	def5                	beqz	a3,9980 <__gedf2+0x84>
    9986:	4505                	li	a0,1
    9988:	8082                	ret
    998a:	4501                	li	a0,0
    998c:	fa089be3          	bnez	a7,9942 <__gedf2+0x46>
    9990:	8082                	ret
    9992:	8e5d                	or	a2,a2,a5
    9994:	da69                	beqz	a2,9966 <__gedf2+0x6a>
    9996:	bf6d                	j	9950 <__gedf2+0x54>
    9998:	4501                	li	a0,0
    999a:	8082                	ret
    999c:	fbcee3e3          	bltu	t4,t3,9942 <__gedf2+0x46>
    99a0:	4501                	li	a0,0
    99a2:	fbde72e3          	bgeu	t3,t4,9946 <__gedf2+0x4a>
    99a6:	f1e5                	bnez	a1,9986 <__gedf2+0x8a>
    99a8:	bfe1                	j	9980 <__gedf2+0x84>

000099aa <__unorddf2>:
__unorddf2():
    99aa:	0145d713          	srli	a4,a1,0x14
    99ae:	001007b7          	lui	a5,0x100
    99b2:	17fd                	addi	a5,a5,-1
    99b4:	fff74713          	not	a4,a4
    99b8:	0146d813          	srli	a6,a3,0x14
    99bc:	8dfd                	and	a1,a1,a5
    99be:	8ff5                	and	a5,a5,a3
    99c0:	01571693          	slli	a3,a4,0x15
    99c4:	7ff87813          	andi	a6,a6,2047
    99c8:	ca99                	beqz	a3,99de <__unorddf2+0x34>
    99ca:	7ff00713          	li	a4,2047
    99ce:	4501                	li	a0,0
    99d0:	00e80363          	beq	a6,a4,99d6 <__unorddf2+0x2c>
    99d4:	8082                	ret
    99d6:	8fd1                	or	a5,a5,a2
    99d8:	00f03533          	snez	a0,a5
    99dc:	8082                	ret
    99de:	8dc9                	or	a1,a1,a0
    99e0:	4505                	li	a0,1
    99e2:	d5e5                	beqz	a1,99ca <__unorddf2+0x20>
    99e4:	8082                	ret

000099e6 <__floatunsidf>:
__floatunsidf():
    99e6:	cd1d                	beqz	a0,9a24 <__floatunsidf+0x3e>
    99e8:	1141                	addi	sp,sp,-16
    99ea:	c422                	sw	s0,8(sp)
    99ec:	c606                	sw	ra,12(sp)
    99ee:	842a                	mv	s0,a0
    99f0:	976fd0ef          	jal	ra,6b66 <__clzsi2>
    99f4:	41e00693          	li	a3,1054
    99f8:	8e89                	sub	a3,a3,a0
    99fa:	47a9                	li	a5,10
    99fc:	7ff6f693          	andi	a3,a3,2047
    9a00:	02a7dc63          	bge	a5,a0,9a38 <__floatunsidf+0x52>
    9a04:	1555                	addi	a0,a0,-11
    9a06:	00a417b3          	sll	a5,s0,a0
    9a0a:	07b2                	slli	a5,a5,0xc
    9a0c:	83b1                	srli	a5,a5,0xc
    9a0e:	4701                	li	a4,0
    9a10:	40b2                	lw	ra,12(sp)
    9a12:	4422                	lw	s0,8(sp)
    9a14:	07b2                	slli	a5,a5,0xc
    9a16:	06d2                	slli	a3,a3,0x14
    9a18:	83b1                	srli	a5,a5,0xc
    9a1a:	8fd5                	or	a5,a5,a3
    9a1c:	853a                	mv	a0,a4
    9a1e:	85be                	mv	a1,a5
    9a20:	0141                	addi	sp,sp,16
    9a22:	8082                	ret
    9a24:	4781                	li	a5,0
    9a26:	4681                	li	a3,0
    9a28:	07b2                	slli	a5,a5,0xc
    9a2a:	06d2                	slli	a3,a3,0x14
    9a2c:	83b1                	srli	a5,a5,0xc
    9a2e:	4701                	li	a4,0
    9a30:	8fd5                	or	a5,a5,a3
    9a32:	853a                	mv	a0,a4
    9a34:	85be                	mv	a1,a5
    9a36:	8082                	ret
    9a38:	472d                	li	a4,11
    9a3a:	8f09                	sub	a4,a4,a0
    9a3c:	00e457b3          	srl	a5,s0,a4
    9a40:	07b2                	slli	a5,a5,0xc
    9a42:	01550713          	addi	a4,a0,21
    9a46:	00e41733          	sll	a4,s0,a4
    9a4a:	83b1                	srli	a5,a5,0xc
    9a4c:	b7d1                	j	9a10 <__floatunsidf+0x2a>

00009a4e <__trunctfdf2>:
__trunctfdf2():
    9a4e:	00c52803          	lw	a6,12(a0)
    9a52:	4118                	lw	a4,0(a0)
    9a54:	4154                	lw	a3,4(a0)
    9a56:	450c                	lw	a1,8(a0)
    9a58:	6521                	lui	a0,0x8
    9a5a:	fff50793          	addi	a5,a0,-1 # 7fff <_dtoa_r+0x611>
    9a5e:	01085613          	srli	a2,a6,0x10
    9a62:	00359e13          	slli	t3,a1,0x3
    9a66:	8e7d                	and	a2,a2,a5
    9a68:	01d75893          	srli	a7,a4,0x1d
    9a6c:	01d6d793          	srli	a5,a3,0x1d
    9a70:	01081313          	slli	t1,a6,0x10
    9a74:	068e                	slli	a3,a3,0x3
    9a76:	1141                	addi	sp,sp,-16
    9a78:	01c7e7b3          	or	a5,a5,t3
    9a7c:	0116e6b3          	or	a3,a3,a7
    9a80:	01035313          	srli	t1,t1,0x10
    9a84:	00371e13          	slli	t3,a4,0x3
    9a88:	00160893          	addi	a7,a2,1
    9a8c:	1579                	addi	a0,a0,-2
    9a8e:	81f5                	srli	a1,a1,0x1d
    9a90:	030e                	slli	t1,t1,0x3
    9a92:	c43e                	sw	a5,8(sp)
    9a94:	c236                	sw	a3,4(sp)
    9a96:	c072                	sw	t3,0(sp)
    9a98:	00a8f533          	and	a0,a7,a0
    9a9c:	01f85813          	srli	a6,a6,0x1f
    9aa0:	0065e5b3          	or	a1,a1,t1
    9aa4:	c905                	beqz	a0,9ad4 <__trunctfdf2+0x86>
    9aa6:	7771                	lui	a4,0xffffc
    9aa8:	40070713          	addi	a4,a4,1024 # ffffc400 <_eusrstack+0xdffec400>
    9aac:	963a                	add	a2,a2,a4
    9aae:	7fe00713          	li	a4,2046
    9ab2:	04c75d63          	bge	a4,a2,9b0c <__trunctfdf2+0xbe>
    9ab6:	7ff00613          	li	a2,2047
    9aba:	4701                	li	a4,0
    9abc:	4781                	li	a5,0
    9abe:	0732                	slli	a4,a4,0xc
    9ac0:	0652                	slli	a2,a2,0x14
    9ac2:	8331                	srli	a4,a4,0xc
    9ac4:	087e                	slli	a6,a6,0x1f
    9ac6:	8f51                	or	a4,a4,a2
    9ac8:	01076733          	or	a4,a4,a6
    9acc:	853e                	mv	a0,a5
    9ace:	85ba                	mv	a1,a4
    9ad0:	0141                	addi	sp,sp,16
    9ad2:	8082                	ret
    9ad4:	8fd5                	or	a5,a5,a3
    9ad6:	8fcd                	or	a5,a5,a1
    9ad8:	01c7e7b3          	or	a5,a5,t3
    9adc:	e205                	bnez	a2,9afc <__trunctfdf2+0xae>
    9ade:	cbf1                	beqz	a5,9bb2 <__trunctfdf2+0x164>
    9ae0:	4781                	li	a5,0
    9ae2:	4695                	li	a3,5
    9ae4:	0036d593          	srli	a1,a3,0x3
    9ae8:	00979713          	slli	a4,a5,0x9
    9aec:	01d79693          	slli	a3,a5,0x1d
    9af0:	00b6e7b3          	or	a5,a3,a1
    9af4:	8331                	srli	a4,a4,0xc
    9af6:	7ff67613          	andi	a2,a2,2047
    9afa:	b7d1                	j	9abe <__trunctfdf2+0x70>
    9afc:	dfcd                	beqz	a5,9ab6 <__trunctfdf2+0x68>
    9afe:	4801                	li	a6,0
    9b00:	7ff00613          	li	a2,2047
    9b04:	00080737          	lui	a4,0x80
    9b08:	4781                	li	a5,0
    9b0a:	bf55                	j	9abe <__trunctfdf2+0x70>
    9b0c:	0ac04663          	bgtz	a2,9bb8 <__trunctfdf2+0x16a>
    9b10:	fcc00793          	li	a5,-52
    9b14:	0ef64f63          	blt	a2,a5,9c12 <__trunctfdf2+0x1c4>
    9b18:	03d00793          	li	a5,61
    9b1c:	40c78633          	sub	a2,a5,a2
    9b20:	40565793          	srai	a5,a2,0x5
    9b24:	00080737          	lui	a4,0x80
    9b28:	8dd9                	or	a1,a1,a4
    9b2a:	00279513          	slli	a0,a5,0x2
    9b2e:	870a                	mv	a4,sp
    9b30:	4681                	li	a3,0
    9b32:	c62e                	sw	a1,12(sp)
    9b34:	00a108b3          	add	a7,sp,a0
    9b38:	0711                	addi	a4,a4,4
    9b3a:	8a7d                	andi	a2,a2,31
    9b3c:	01c6e6b3          	or	a3,a3,t3
    9b40:	01170963          	beq	a4,a7,9b52 <__trunctfdf2+0x104>
    9b44:	00072e03          	lw	t3,0(a4) # 80000 <_data_lma+0x75bdc>
    9b48:	0711                	addi	a4,a4,4
    9b4a:	01c6e6b3          	or	a3,a3,t3
    9b4e:	ff171be3          	bne	a4,a7,9b44 <__trunctfdf2+0xf6>
    9b52:	470d                	li	a4,3
    9b54:	8f1d                	sub	a4,a4,a5
    9b56:	ca79                	beqz	a2,9c2c <__trunctfdf2+0x1de>
    9b58:	01010893          	addi	a7,sp,16
    9b5c:	98aa                	add	a7,a7,a0
    9b5e:	ff08a883          	lw	a7,-16(a7) # fff0 <_data_lma+0x5bcc>
    9b62:	02000e13          	li	t3,32
    9b66:	40ce0e33          	sub	t3,t3,a2
    9b6a:	01c898b3          	sll	a7,a7,t3
    9b6e:	0116e6b3          	or	a3,a3,a7
    9b72:	cb75                	beqz	a4,9c66 <__trunctfdf2+0x218>
    9b74:	070a                	slli	a4,a4,0x2
    9b76:	950a                	add	a0,a0,sp
    9b78:	00e10eb3          	add	t4,sp,a4
    9b7c:	888a                	mv	a7,sp
    9b7e:	410c                	lw	a1,0(a0)
    9b80:	00452303          	lw	t1,4(a0)
    9b84:	0891                	addi	a7,a7,4
    9b86:	00c5d5b3          	srl	a1,a1,a2
    9b8a:	01c31333          	sll	t1,t1,t3
    9b8e:	0065e5b3          	or	a1,a1,t1
    9b92:	feb8ae23          	sw	a1,-4(a7)
    9b96:	0511                	addi	a0,a0,4
    9b98:	ff1e93e3          	bne	t4,a7,9b7e <__trunctfdf2+0x130>
    9b9c:	4591                	li	a1,4
    9b9e:	40f587b3          	sub	a5,a1,a5
    9ba2:	45b2                	lw	a1,12(sp)
    9ba4:	0808                	addi	a0,sp,16
    9ba6:	972a                	add	a4,a4,a0
    9ba8:	00c5d5b3          	srl	a1,a1,a2
    9bac:	feb72823          	sw	a1,-16(a4)
    9bb0:	a861                	j	9c48 <__trunctfdf2+0x1fa>
    9bb2:	4601                	li	a2,0
    9bb4:	4701                	li	a4,0
    9bb6:	b721                	j	9abe <__trunctfdf2+0x70>
    9bb8:	00469713          	slli	a4,a3,0x4
    9bbc:	00479513          	slli	a0,a5,0x4
    9bc0:	01c76733          	or	a4,a4,t3
    9bc4:	82f1                	srli	a3,a3,0x1c
    9bc6:	83f1                	srli	a5,a5,0x1c
    9bc8:	0592                	slli	a1,a1,0x4
    9bca:	00e03733          	snez	a4,a4
    9bce:	8ec9                	or	a3,a3,a0
    9bd0:	8fcd                	or	a5,a5,a1
    9bd2:	8ed9                	or	a3,a3,a4
    9bd4:	0076f713          	andi	a4,a3,7
    9bd8:	c711                	beqz	a4,9be4 <__trunctfdf2+0x196>
    9bda:	00f6f713          	andi	a4,a3,15
    9bde:	4591                	li	a1,4
    9be0:	02b71c63          	bne	a4,a1,9c18 <__trunctfdf2+0x1ca>
    9be4:	00800737          	lui	a4,0x800
    9be8:	8f7d                	and	a4,a4,a5
    9bea:	ee070de3          	beqz	a4,9ae4 <__trunctfdf2+0x96>
    9bee:	0605                	addi	a2,a2,1
    9bf0:	7ff00713          	li	a4,2047
    9bf4:	ece601e3          	beq	a2,a4,9ab6 <__trunctfdf2+0x68>
    9bf8:	ff800737          	lui	a4,0xff800
    9bfc:	177d                	addi	a4,a4,-1
    9bfe:	8f7d                	and	a4,a4,a5
    9c00:	01d71793          	slli	a5,a4,0x1d
    9c04:	828d                	srli	a3,a3,0x3
    9c06:	0726                	slli	a4,a4,0x9
    9c08:	7ff67613          	andi	a2,a2,2047
    9c0c:	8fd5                	or	a5,a5,a3
    9c0e:	8331                	srli	a4,a4,0xc
    9c10:	b57d                	j	9abe <__trunctfdf2+0x70>
    9c12:	4685                	li	a3,1
    9c14:	4781                	li	a5,0
    9c16:	4601                	li	a2,0
    9c18:	ffc6b713          	sltiu	a4,a3,-4
    9c1c:	00174713          	xori	a4,a4,1
    9c20:	97ba                	add	a5,a5,a4
    9c22:	00800737          	lui	a4,0x800
    9c26:	0691                	addi	a3,a3,4
    9c28:	8f7d                	and	a4,a4,a5
    9c2a:	b7c1                	j	9bea <__trunctfdf2+0x19c>
    9c2c:	858a                	mv	a1,sp
    9c2e:	00a588b3          	add	a7,a1,a0
    9c32:	0008a883          	lw	a7,0(a7)
    9c36:	0591                	addi	a1,a1,4
    9c38:	0605                	addi	a2,a2,1
    9c3a:	ff15ae23          	sw	a7,-4(a1)
    9c3e:	fec758e3          	bge	a4,a2,9c2e <__trunctfdf2+0x1e0>
    9c42:	4711                	li	a4,4
    9c44:	40f707b3          	sub	a5,a4,a5
    9c48:	078a                	slli	a5,a5,0x2
    9c4a:	978a                	add	a5,a5,sp
    9c4c:	0818                	addi	a4,sp,16
    9c4e:	0007a023          	sw	zero,0(a5) # 100000 <_data_lma+0xf5bdc>
    9c52:	0791                	addi	a5,a5,4
    9c54:	fee79de3          	bne	a5,a4,9c4e <__trunctfdf2+0x200>
    9c58:	4702                	lw	a4,0(sp)
    9c5a:	00d036b3          	snez	a3,a3
    9c5e:	4792                	lw	a5,4(sp)
    9c60:	8ed9                	or	a3,a3,a4
    9c62:	4601                	li	a2,0
    9c64:	bf85                	j	9bd4 <__trunctfdf2+0x186>
    9c66:	4785                	li	a5,1
    9c68:	4701                	li	a4,0
    9c6a:	bf2d                	j	9ba4 <__trunctfdf2+0x156>

00009c6c <_close>:
_close():
    9c6c:	05800793          	li	a5,88
    9c70:	92f1ac23          	sw	a5,-1736(gp) # 20000368 <errno>
    9c74:	557d                	li	a0,-1
    9c76:	8082                	ret

00009c78 <_fstat>:
_fstat():
    9c78:	05800793          	li	a5,88
    9c7c:	92f1ac23          	sw	a5,-1736(gp) # 20000368 <errno>
    9c80:	557d                	li	a0,-1
    9c82:	8082                	ret

00009c84 <_isatty>:
_isatty():
    9c84:	05800793          	li	a5,88
    9c88:	92f1ac23          	sw	a5,-1736(gp) # 20000368 <errno>
    9c8c:	4501                	li	a0,0
    9c8e:	8082                	ret

00009c90 <_lseek>:
_lseek():
    9c90:	05800793          	li	a5,88
    9c94:	92f1ac23          	sw	a5,-1736(gp) # 20000368 <errno>
    9c98:	557d                	li	a0,-1
    9c9a:	8082                	ret

00009c9c <_read>:
_read():
    9c9c:	05800793          	li	a5,88
    9ca0:	92f1ac23          	sw	a5,-1736(gp) # 20000368 <errno>
    9ca4:	557d                	li	a0,-1
    9ca6:	8082                	ret

00009ca8 <_sbrk>:
_sbrk():
    9ca8:	8ac18793          	addi	a5,gp,-1876 # 200002dc <heap_end.1518>
    9cac:	439c                	lw	a5,0(a5)
    9cae:	c791                	beqz	a5,9cba <_sbrk+0x12>
    9cb0:	953e                	add	a0,a0,a5
    9cb2:	8aa1a623          	sw	a0,-1876(gp) # 200002dc <heap_end.1518>
    9cb6:	853e                	mv	a0,a5
    9cb8:	8082                	ret
    9cba:	93c18793          	addi	a5,gp,-1732 # 2000036c <_ebss>
    9cbe:	953e                	add	a0,a0,a5
    9cc0:	8aa1a623          	sw	a0,-1876(gp) # 200002dc <heap_end.1518>
    9cc4:	853e                	mv	a0,a5
    9cc6:	8082                	ret
    9cc8:	7245                	lui	tp,0xffff1
    9cca:	6f72                	flw	ft10,28(sp)
    9ccc:	0072                	c.slli	zero,0x1c
    9cce:	0000                	unimp
    9cd0:	420a                	lw	tp,128(sp)
    9cd2:	7561                	lui	a0,0xffff8
    9cd4:	2064                	fld	fs1,192(s0)
    9cd6:	6152                	flw	ft2,20(sp)
    9cd8:	6574                	flw	fa3,76(a0)
    9cda:	3d20                	fld	fs0,120(a0)
    9cdc:	2520                	fld	fs0,72(a0)
    9cde:	0064                	addi	s1,sp,12
    9ce0:	640a                	flw	fs0,128(sp)
    9ce2:	7461                	lui	s0,0xffff8
    9ce4:	4261                	li	tp,24
    9ce6:	7469                	lui	s0,0xffffa
    9ce8:	3d20                	fld	fs0,120(a0)
    9cea:	2520                	fld	fs0,72(a0)
    9cec:	0064                	addi	s1,sp,12
    9cee:	0000                	unimp
    9cf0:	730a                	flw	ft6,160(sp)
    9cf2:	6f74                	flw	fa3,92(a4)
    9cf4:	4270                	lw	a2,68(a2)
    9cf6:	7469                	lui	s0,0xffffa
    9cf8:	3d20                	fld	fs0,120(a0)
    9cfa:	2520                	fld	fs0,72(a0)
    9cfc:	0064                	addi	s1,sp,12
    9cfe:	0000                	unimp
    9d00:	700a                	flw	ft0,160(sp)
    9d02:	7261                	lui	tp,0xffff8
    9d04:	7469                	lui	s0,0xffffa
    9d06:	5479                	li	s0,-2
    9d08:	7079                	c.lui	zero,0xffffe
    9d0a:	2065                	jal	9db2 <MyReportDescHD+0x12>
    9d0c:	203d                	jal	9d3a <uart_index+0x12>
    9d0e:	6425                	lui	s0,0x9
    9d10:	0000                	unimp
	...

00009d14 <gpio_group>:
    9d14:	0800 4001 0c00 4001 1000 4001 1400 4001     ...@...@...@...@
    9d24:	1800 4001                                   ...@

00009d28 <uart_index>:
    9d28:	3800 4001 4400 4000 4800 4000 4c00 4000     .8.@.D.@.H.@.L.@
    9d38:	5000 4000 1800 4000 1c00 4000 2000 4000     .P.@...@...@. .@

00009d48 <MyDevDescrHD>:
    9d48:	0112 0200 0002 0800 1a86 5722 0100 0201     .........."W....
    9d58:	0103 0000                                   ....

00009d5c <MyCfgDescrHD>:
    9d5c:	0209 0043 0102 a000 0932 0004 0100 0202     ..C.....2.......
    9d6c:	0001 2405 1000 0501 0124 0000 2404 0202     ...$....$....$..
    9d7c:	2405 0006 0701 8105 4003 ff00 0409 0001     .$.......@......
    9d8c:	0a02 0000 0700 0205 4002 0000 0507 0282     .........@......
    9d9c:	0040 0000                                   @...

00009da0 <MyReportDescHD>:
    9da0:	0314 0032 0030 0031 0037 002d 0032 002d     ..2.0.1.7.-.2.-.
    9db0:	0032 0035                                   2.5.

00009db4 <MyManuInfoHD>:
    9db4:	030e 0077 0063 0068 002e 0063 006e 0000     ..w.c.h...c.n...

00009dc4 <MyProdInfoHD>:
    9dc4:	030c 0043 0048 0033 0030 0037               ..C.H.3.0.7.

00009dd0 <MySerNumInfoHD>:
    9dd0:	0316 0030 0031 0032 0033 0034 0035 0036     ..0.1.2.3.4.5.6.
    9de0:	0037 0038 0039 0000                         7.8.9...

00009de8 <MyUSBQUADescHD>:
    9de8:	060a 0200 00ff 40ff 0001 0000 35ee 0000     .......@.....5..
    9df8:	3342 0000 36fc 0000 3438 0000 36fc 0000     B3...6..84...6..
    9e08:	32d8 0000 3116 0000 36fc 0000 32fc 0000     .2...1...6...2..
    9e18:	3324 0000 35b2 0000 35d2 0000 3262 0000     $3...5...5..b2..
    9e28:	3148 0000 315a 0000 316e 0000 3262 0000     H1..Z1..n1..b2..
    9e38:	3262 0000 3206 0000 3218 0000 3262 0000     b2...2...2..b2..
    9e48:	3262 0000 3262 0000 3262 0000 3262 0000     b2..b2..b2..b2..
    9e58:	3262 0000 3262 0000 325a 0000 3262 0000     b2..b2..Z2..b2..
    9e68:	3262 0000 3262 0000 3262 0000 3262 0000     b2..b2..b2..b2..
    9e78:	3262 0000 3262 0000 3262 0000 3262 0000     b2..b2..b2..b2..
    9e88:	3262 0000 3262 0000 3262 0000 3262 0000     b2..b2..b2..b2..
    9e98:	3262 0000 3262 0000 3262 0000 3262 0000     b2..b2..b2..b2..
    9ea8:	3262 0000 31f4 0000 4df0 0000 4ddc 0000     b2...1...M...M..
    9eb8:	4e10 0000 4ed6 0000 4ed6 0000 4ed6 0000     .N...N...N...N..
    9ec8:	4ed6 0000 4e30 0000 4e62 0000 4ed6 0000     .N..0N..bN...N..
    9ed8:	4ed6 0000 4e84 0000 4e96 0000 4ea6 0000     .N...N...N...N..
    9ee8:	4ec8 0000                                   .N..

00009eec <tx_config>:
    9eec:	5c40 0000 5ca0 0004 6cc0 0008 5c80 0004     @\...\...l...\..
    9efc:	3fe0 001e 7de0 001e                         .?...}..

00009f04 <fs_pll_cfg>:
    9f04:	0407 0900 0508 0840 1009 0840 0508 0840     ......@...@...@.
    9f14:	041d 0800 041d 0800                         ........

00009f1c <sftsh>:
    9f1c:	000a 0016 0001 0006 0001 0002               ............

00009f28 <digital_bb_config>:
    9f28:	002d 311a 0052 331a 009a 351a 011d 371a     -..1R..3...5...7
    9f38:	006b 313b 00be 333b 015e 353b 0296 373b     k.;1..;3^.;5..;7

00009f48 <lde_replicaCoeff>:
    9f48:	0000 5998 5998 51ea 428e 451e 2e14 8000     ...Y.Y.Q.B.E....
    9f58:	51ea 28f4 3332 3ae0 3d70 3ae0 35c2 2b84     .Q.(23.:p=.:.5.+
    9f68:	35c2 3332 35c2 35c2 47ae 3ae0 3850 30a2     .523.5.5.G.:P8.0
    9f78:	3850 0000 ba8e ffff b912 ffff ba22 ffff     P8.........."...
    9f88:	ba2a ffff ba22 ffff b942 ffff ba22 ffff     *..."...B..."...
    9f98:	ba2a ffff b912 ffff b912 ffff b942 ffff     *...........B...
    9fa8:	ba2a ffff ba84 ffff ba84 ffff ba84 ffff     *...............
    9fb8:	b942 ffff c0f0 ffff bfe2 ffff bfe2 ffff     B...............
    9fc8:	bfe0 ffff bfe8 ffff bfe8 ffff bfae ffff     ................
    9fd8:	bfe0 ffff bfe8 ffff bfae ffff bfe8 ffff     ................
    9fe8:	bfe0 ffff c0dc ffff c0dc ffff c0dc ffff     ................
    9ff8:	bfae ffff                                   ....

00009ffc <__clz_tab>:
    9ffc:	0100 0202 0303 0303 0404 0404 0404 0404     ................
    a00c:	0505 0505 0505 0505 0505 0505 0505 0505     ................
    a01c:	0606 0606 0606 0606 0606 0606 0606 0606     ................
    a02c:	0606 0606 0606 0606 0606 0606 0606 0606     ................
    a03c:	0707 0707 0707 0707 0707 0707 0707 0707     ................
    a04c:	0707 0707 0707 0707 0707 0707 0707 0707     ................
    a05c:	0707 0707 0707 0707 0707 0707 0707 0707     ................
    a06c:	0707 0707 0707 0707 0707 0707 0707 0707     ................
    a07c:	0808 0808 0808 0808 0808 0808 0808 0808     ................
    a08c:	0808 0808 0808 0808 0808 0808 0808 0808     ................
    a09c:	0808 0808 0808 0808 0808 0808 0808 0808     ................
    a0ac:	0808 0808 0808 0808 0808 0808 0808 0808     ................
    a0bc:	0808 0808 0808 0808 0808 0808 0808 0808     ................
    a0cc:	0808 0808 0808 0808 0808 0808 0808 0808     ................
    a0dc:	0808 0808 0808 0808 0808 0808 0808 0808     ................
    a0ec:	0808 0808 0808 0808 0808 0808 0808 0808     ................
    a0fc:	0000 0000 ffff ffff ffff 7fef 4e49 0046     ............INF.
    a10c:	6e69 0066 414e 004e 616e 006e 0030 0000     inf.NAN.nan.0...
    a11c:	3130 3332 3534 3736 3938 4241 4443 4645     0123456789ABCDEF
    a12c:	0000 0000 3130 3332 3534 3736 3938 6261     ....0123456789ab
    a13c:	6463 6665 0000 0000 0000 0000 0000 0000     cdef............
    a14c:	0000 3ff8 4361 636f 87a7 3fd2 c8b3 8b60     ...?aCoc...?..`.
    a15c:	8a28 3fc6 79fb 509f 4413 3fd3 0000 0000     (..?.y.P.D.?....
    a16c:	0000 3ff0 0000 0000 0000 4024 0000 0000     ...?......$@....
    a17c:	0000 401c 0000 0000 0000 4014 0000 0000     ...@.......@....
    a18c:	0000 3fe0 6e49 6966 696e 7974 0000 0000     ...?Infinity....
    a19c:	614e 004e                                   NaN.

0000a1a0 <__sf_fake_stderr>:
	...

0000a1c0 <__sf_fake_stdin>:
	...

0000a1e0 <__sf_fake_stdout>:
	...

0000a200 <__mprec_bigtens>:
    a200:	8000 37e0 c379 4341 6e17 b505 b8b5 4693     ...7y.AC.n.....F
    a210:	f9f5 e93f 4f03 4d38 1d32 f930 7748 5a82     ..?..O8M2.0.Hw.Z
    a220:	bf3c 7f73 4fdd 7515                         <.s..O.u

0000a228 <__mprec_tens>:
    a228:	0000 0000 0000 3ff0 0000 0000 0000 4024     .......?......$@
    a238:	0000 0000 0000 4059 0000 0000 4000 408f     ......Y@.....@.@
    a248:	0000 0000 8800 40c3 0000 0000 6a00 40f8     .......@.....j.@
    a258:	0000 0000 8480 412e 0000 0000 12d0 4163     .......A......cA
    a268:	0000 0000 d784 4197 0000 0000 cd65 41cd     .......A....e..A
    a278:	0000 2000 a05f 4202 0000 e800 4876 4237     ... _..B....vH7B
    a288:	0000 a200 1a94 426d 0000 e540 309c 42a2     ......mB..@..0.B
    a298:	0000 1e90 bcc4 42d6 0000 2634 6bf5 430c     .......B..4&.k.C
    a2a8:	8000 37e0 c379 4341 a000 85d8 3457 4376     ...7y.AC....W4vC
    a2b8:	c800 674e c16d 43ab 3d00 6091 58e4 43e1     ..Ngm..C.=.`.X.C
    a2c8:	8c40 78b5 af1d 4415 ef50 d6e2 1ae4 444b     @..x...DP.....KD
    a2d8:	d592 064d f0cf 4480 4af6 c7e1 2d02 44b5     ..M....D.J...-.D
    a2e8:	9db4 79d9 7843 44ea                         ...yCx.D

0000a2f0 <p05.3319>:
    a2f0:	0005 0000 0019 0000 007d 0000 2d23 2b30     ........}...#-0+
    a300:	0020 0000 6c68 004c 6665 4567 4746 0000      ...hlL.efgEFG..
    a310:	0043 0000 4f50 4953 0058 0000 002e 0000     C...POSIX.......

0000a320 <_ctype_>:
    a320:	2000 2020 2020 2020 2020 2828 2828 2028     .         ((((( 
    a330:	2020 2020 2020 2020 2020 2020 2020 2020                     
    a340:	8820 1010 1010 1010 1010 1010 1010 1010      ...............
    a350:	0410 0404 0404 0404 0404 1004 1010 1010     ................
    a360:	1010 4141 4141 4141 0101 0101 0101 0101     ..AAAAAA........
    a370:	0101 0101 0101 0101 0101 0101 1010 1010     ................
    a380:	1010 4242 4242 4242 0202 0202 0202 0202     ..BBBBBB........
    a390:	0202 0202 0202 0202 0202 0202 1010 1010     ................
    a3a0:	0020 0000 0000 0000 0000 0000 0000 0000      ...............
	...
