
CarMainControler.elf:     file format elf32-littleriscv
CarMainControler.elf
architecture: riscv:rv32, flags 0x00000112:
EXEC_P, HAS_SYMS, D_PAGED
start address 0x00000000

Program Header:
    LOAD off    0x00001000 vaddr 0x00000000 paddr 0x00000000 align 2**12
         filesz 0x0000a4d4 memsz 0x0000a4d4 flags r-x
    LOAD off    0x0000c000 vaddr 0x20000000 paddr 0x0000a4d4 align 2**12
         filesz 0x00000250 memsz 0x00000304 flags rw-
    LOAD off    0x0000c800 vaddr 0x2000f800 paddr 0x2000f800 align 2**12
         filesz 0x00000000 memsz 0x00000800 flags rw-

Sections:
Idx Name           Size      VMA       LMA       File off  Algn  Flags
  0 .init          00000038  00000000  00000000  00001000  2**1  CONTENTS, ALLOC, LOAD, READONLY, CODE
  1 .vector        000001c8  00000038  00000038  00001038  2**1  CONTENTS, ALLOC, LOAD, READONLY, CODE
  2 .text          0000a2d4  00000200  00000200  00001200  2**3  CONTENTS, ALLOC, LOAD, READONLY, CODE
  3 .fini          00000000  0000a4d4  0000a4d4  0000c250  2**0  CONTENTS, ALLOC, LOAD, CODE
  4 .dalign        00000000  20000000  20000000  0000c250  2**0  CONTENTS
  5 .dlalign       00000000  0000a4d4  0000a4d4  0000c250  2**0  CONTENTS
  6 .data          00000250  20000000  0000a4d4  0000c000  2**2  CONTENTS, ALLOC, LOAD, DATA
  7 .bss           000000b4  20000250  0000a724  0000c250  2**2  ALLOC
  8 .stack         00000800  2000f800  2000f800  0000c800  2**0  ALLOC
  9 .debug_info    00019553  00000000  00000000  0000c250  2**0  CONTENTS, READONLY, DEBUGGING
 10 .debug_abbrev  000040c9  00000000  00000000  000257a3  2**0  CONTENTS, READONLY, DEBUGGING
 11 .debug_aranges 00000f20  00000000  00000000  00029870  2**3  CONTENTS, READONLY, DEBUGGING
 12 .debug_ranges  00000d30  00000000  00000000  0002a790  2**3  CONTENTS, READONLY, DEBUGGING
 13 .debug_line    00011f7d  00000000  00000000  0002b4c0  2**0  CONTENTS, READONLY, DEBUGGING
 14 .debug_str     00005770  00000000  00000000  0003d43d  2**0  CONTENTS, READONLY, DEBUGGING
 15 .comment       00000033  00000000  00000000  00042bad  2**0  CONTENTS, READONLY
 16 .debug_frame   00004774  00000000  00000000  00042be0  2**2  CONTENTS, READONLY, DEBUGGING
 17 .stab          00000084  00000000  00000000  00047354  2**2  CONTENTS, READONLY, DEBUGGING
 18 .stabstr       00000117  00000000  00000000  000473d8  2**0  CONTENTS, READONLY, DEBUGGING
SYMBOL TABLE:
00000000 l    d  .init	00000000 .init
00000038 l    d  .vector	00000000 .vector
00000200 l    d  .text	00000000 .text
0000a4d4 l    d  .fini	00000000 .fini
20000000 l    d  .dalign	00000000 .dalign
0000a4d4 l    d  .dlalign	00000000 .dlalign
20000000 l    d  .data	00000000 .data
20000250 l    d  .bss	00000000 .bss
2000f800 l    d  .stack	00000000 .stack
00000000 l    d  .debug_info	00000000 .debug_info
00000000 l    d  .debug_abbrev	00000000 .debug_abbrev
00000000 l    d  .debug_aranges	00000000 .debug_aranges
00000000 l    d  .debug_ranges	00000000 .debug_ranges
00000000 l    d  .debug_line	00000000 .debug_line
00000000 l    d  .debug_str	00000000 .debug_str
00000000 l    d  .comment	00000000 .comment
00000000 l    d  .debug_frame	00000000 .debug_frame
00000000 l    d  .stab	00000000 .stab
00000000 l    d  .stabstr	00000000 .stabstr
00000000 l    df *ABS*	00000000 ./sdk/Startup/startup_ch32v30x.o
00000038 l       .vector	00000000 _vector_base
00000000 l    df *ABS*	00000000 zf_driver_delay.c
00000000 l    df *ABS*	00000000 zf_driver_gpio.c
00000000 l    df *ABS*	00000000 zf_driver_spi.c
00000000 l    df *ABS*	00000000 zf_driver_uart.c
00000000 l    df *ABS*	00000000 zf_device_bluetooth_ch9141.c
200002b0 l     O .bss	00000014 bluetooth_ch9141_fifo
20000250 l     O .bss	00000001 bluetooth_ch9141_data
00000000 l    df *ABS*	00000000 zf_device_bluetooth_ch9141_ch2.c
200002c4 l     O .bss	00000014 bluetooth_ch9141_fifo_ch2
20000251 l     O .bss	00000001 bluetooth_ch9141_data_ch2
00000000 l    df *ABS*	00000000 zf_device_camera.c
00000000 l    df *ABS*	00000000 zf_device_mt9v03x_dvp.c
20000254 l     O .bss	00000003 receive_dvp
20000257 l     O .bss	00000001 receive_num_dvp
20000258 l     O .bss	00000001 uart_receive_flag_dvp
00000000 l    df *ABS*	00000000 zf_device_scc8660_dvp.c
00000000 l    df *ABS*	00000000 zf_device_tft180.c
000013b6 l     F .text	0000007c tft180_write_index
00001432 l     F .text	000001ec tft180_set_region
00000000 l    df *ABS*	00000000 zf_device_wireless_ch573.c
200002d8 l     O .bss	00000014 wireless_ch573_fifo
20000270 l     O .bss	00000001 wireless_ch573_data
00000000 l    df *ABS*	00000000 zf_device_wireless_uart.c
200002ec l     O .bss	00000014 wireless_uart_fifo
20000271 l     O .bss	00000001 wireless_uart_data
00000000 l    df *ABS*	00000000 zf_common_clock.c
00001e08 l     F .text	00000076 clock_reset
00001e7e l     F .text	00000260 clock_set_freq
00000000 l    df *ABS*	00000000 zf_common_debug.c
000020de l     F .text	00000010 __NOP
00000000 l    df *ABS*	00000000 zf_common_fifo.c
00000000 l    df *ABS*	00000000 zf_common_interrupt.c
00002330 l     F .text	00000032 NVIC_EnableIRQ
00002362 l     F .text	00000032 NVIC_DisableIRQ
2000027c l     O .bss	00000004 interrupt_nest_count
00000000 l    df *ABS*	00000000 isr.c
00000000 l    df *ABS*	00000000 main.c
20000280 l     O .bss	00000004 i.6862
00000000 l    df *ABS*	00000000 system_ch32v30x.c
00002c62 l     F .text	00000014 SetSysClock
00002c76 l     F .text	00000162 SetSysClockTo144
00000000 l    df *ABS*	00000000 ch32v30x_exti.c
00000000 l    df *ABS*	00000000 ch32v30x_gpio.c
00000000 l    df *ABS*	00000000 ch32v30x_rcc.c
20000000 l     O .data	00000010 APBAHBPrescTable
20000228 l     O .data	00000004 ADCPrescTable
00000000 l    df *ABS*	00000000 ch32v30x_spi.c
00000000 l    df *ABS*	00000000 ch32v30x_tim.c
00000000 l    df *ABS*	00000000 ch32v30x_usart.c
00000000 l    df *ABS*	00000000 ch32v30x_usbotg_device.c
00000000 l    df *ABS*	00000000 adddf3.c
00000000 l    df *ABS*	00000000 divdf3.c
00000000 l    df *ABS*	00000000 eqdf2.c
00000000 l    df *ABS*	00000000 ledf2.c
00000000 l    df *ABS*	00000000 muldf3.c
00000000 l    df *ABS*	00000000 subdf3.c
00000000 l    df *ABS*	00000000 fixdfsi.c
00000000 l    df *ABS*	00000000 floatsidf.c
00000000 l    df *ABS*	00000000 libgcc2.c
00000000 l    df *ABS*	00000000 memcpy.c
00000000 l    df *ABS*	00000000 nano-vfprintf_float.c
00000000 l    df *ABS*	00000000 nano-vfprintf_i.c
00000000 l    df *ABS*	00000000 printf.c
00000000 l    df *ABS*	00000000 strlen.c
00000000 l    df *ABS*	00000000 wbuf.c
00000000 l    df *ABS*	00000000 wsetup.c
00000000 l    df *ABS*	00000000 dtoa.c
00007324 l     F .text	0000013a quorem
00000000 l    df *ABS*	00000000 fflush.c
00000000 l    df *ABS*	00000000 findfp.c
00008220 l     F .text	0000006a std
00000000 l    df *ABS*	00000000 fwalk.c
00000000 l    df *ABS*	00000000 localeconv.c
00000000 l    df *ABS*	00000000 makebuf.c
00000000 l    df *ABS*	00000000 malloc.c
00000000 l    df *ABS*	00000000 memchr.c
00000000 l    df *ABS*	00000000 mprec.c
0000a3a0 l     O .text	0000000c p05.3319
00000000 l    df *ABS*	00000000 nano-mallocr.c
00000000 l    df *ABS*	00000000 nano-mallocr.c
00000000 l    df *ABS*	00000000 nano-mallocr.c
00000000 l    df *ABS*	00000000 nano-vfprintf.c
00008e1e l     F .text	0000002a __sfputc_r
00000000 l    df *ABS*	00000000 sbrkr.c
00000000 l    df *ABS*	00000000 stdio.c
00000000 l    df *ABS*	00000000 writer.c
00000000 l    df *ABS*	00000000 closer.c
00000000 l    df *ABS*	00000000 fstatr.c
00000000 l    df *ABS*	00000000 isattyr.c
00000000 l    df *ABS*	00000000 lseekr.c
00000000 l    df *ABS*	00000000 mbtowc_r.c
00000000 l    df *ABS*	00000000 mlock.c
00000000 l    df *ABS*	00000000 readr.c
00000000 l    df *ABS*	00000000 wctomb_r.c
00000000 l    df *ABS*	00000000 gedf2.c
00000000 l    df *ABS*	00000000 unorddf2.c
00000000 l    df *ABS*	00000000 floatunsidf.c
00000000 l    df *ABS*	00000000 trunctfdf2.c
00000000 l    df *ABS*	00000000 close.c
00000000 l    df *ABS*	00000000 fstat.c
00000000 l    df *ABS*	00000000 isatty.c
00000000 l    df *ABS*	00000000 lseek.c
00000000 l    df *ABS*	00000000 read.c
00000000 l    df *ABS*	00000000 sbrk.c
200002ac l     O .bss	00000004 heap_end.1518
00000000 l    df *ABS*	00000000 zf_common_font.c
00000000 l    df *ABS*	00000000 libgcc2.c
00000000 l    df *ABS*	00000000 locale.c
00000000 l    df *ABS*	00000000 ctype_.c
00000000 l    df *ABS*	00000000 impure.c
20000054 l     O .data	00000060 impure_data
00000000 l    df *ABS*	00000000 zf_device_type.c
00000000 l    df *ABS*	00000000 reent.c
00006702 g     F .text	000000ee __cvt
00002690 g     F .text	00000024 EXTI2_IRQHandler
2000026c g     O .bss	00000004 wireless_type
00002b02  w      .text	00000000 TIM8_TRG_COM_IRQHandler
00002b04  w      .text	00000000 TIM8_CC_IRQHandler
00002122 g     F .text	00000044 debug_assert_handler
00000f06 g     F .text	0000005e uart_query_byte
2000029e g     O .bss	00000001 USBHD_Dev_SleepStatus
0000928e g     F .text	00000028 _isatty_r
00003d4c g     F .text	0000003e DevEP1_IN_Deal
000092b6 g     F .text	0000002c _lseek_r
20000260 g     O .bss	00000001 scc8660_uart_receive_flag_dvp
000025de g     F .text	0000002c UART8_IRQHandler
000057ec g     F .text	0000006a .hidden __eqdf2
000070f8 g     F .text	00000042 printf
20000a20 g       .data	00000000 __global_pointer$
00002ade  w      .text	00000000 TIM1_CC_IRQHandler
00000318 g     F .text	00000066 gpio_toggle_level
000091d2 g     F .text	00000036 __sseek
000082dc g     F .text	0000006c __sinit
0000714c g     F .text	000000c6 __swbuf_r
00002230 g     F .text	00000100 fifo_write_buffer
000029d4 g     F .text	00000008 HardFault_Handler
00008294 g     F .text	00000048 __sfmoreglue
0000931e g     F .text	00000002 __malloc_unlock
00001264 g     F .text	00000036 camera_uart_handler
00001d90 g     F .text	00000028 wireless_ch573_callback
000028e4 g     F .text	00000028 TIM6_IRQHandler
00002aa4  w      .text	00000000 SysTick_Handler
00002a18 g     F .text	00000024 Init
00002aaa  w      .text	00000000 PVD_IRQHandler
00002b0a  w      .text	00000000 SDIO_IRQHandler
00002b3c  w      .text	00000000 TIM9_BRK_IRQHandler
0000133e g     F .text	00000064 scc8660_uart_callback_dvp
000035ca g     F .text	00000076 SPI_I2S_DeInit
00002b50  w      .text	00000000 DMA2_Channel8_IRQHandler
000029c4 g     F .text	00000010 NMI_Handler
0000858e g     F .text	00000088 _Balloc
00002b2a  w      .text	00000000 CAN2_RX1_IRQHandler
000026b4 g     F .text	00000024 EXTI3_IRQHandler
20000268 g     O .bss	00000004 camera_type
0000936c g     F .text	000000ae .hidden __gtdf2
000016e4 g     F .text	00000034 tft180_set_color
00002b32  w      .text	00000000 USBHS_IRQHandler
00002aa6  w      .text	00000000 SW_handler
00003bb6 g     F .text	00000046 USART_GetFlagStatus
00002b52  w      .text	00000000 DMA2_Channel9_IRQHandler
00009264 g     F .text	0000002a _fstat_r
20000225 g     O .data	00000001 tft180_y_max
00009f1c g     O .text	00000014 MyReportDescHD
00002b4a  w      .text	00000000 TIM10_CC_IRQHandler
20000300 g     O .bss	00000004 errno
20000010 g     O .data	00000043 TAB_USB_FS_OSC_DESC
20000250 g       .bss	00000000 _sbss
00000800 g       *ABS*	00000000 __stack_size
00000206 g       .text	00000000 en_interrupt
2000029f g     O .bss	00000001 DevConfig
000023b0 g     F .text	0000001c interrupt_disable
00001214 g     F .text	00000028 bluetooth_ch9141_uart_callback_ch1
0000664c g     F .text	000000b6 memcpy
2000023c g     O .data	00000008 uart_irq
0000828a g     F .text	0000000a _cleanup_r
000030b0 g     F .text	0000013c GPIO_PinRemapConfig
00006566 g     F .text	00000070 .hidden __floatsidf
20000261 g     O .bss	00000001 scc8660_finish_flag_dvp
00005856 g     F .text	000000b6 .hidden __ltdf2
00002648 g     F .text	00000024 EXTI0_IRQHandler
00002aea  w      .text	00000000 I2C2_EV_IRQHandler
00002b48  w      .text	00000000 TIM10_TRG_COM_IRQHandler
20000220 g     O .data	00000002 tft180_pencolor
200002a2 g     O .bss	00000002 SetupReqLen
00009f4c g     O .text	00000016 MySerNumInfoHD
00008568 g     F .text	0000000c malloc
000096e8 g     F .text	0000000c _fstat
00000718 g     F .text	00000264 spi_init
0000a2d8 g     O .text	000000c8 __mprec_tens
00000038 g       .init	00000000 _einit
00003802 g     F .text	0000002e TIM_ClearITPendingBit
00009f64 g     O .text	0000000a MyUSBQUADescHD
000023cc g     F .text	0000000e interrupt_init
000034b2 g     F .text	00000046 RCC_APB2PeriphClockCmd
20000222 g     O .data	00000002 tft180_bgcolor
000098d4 g     O .text	000005f0 tft_ascii
00002b2c  w      .text	00000000 CAN2_SCE_IRQHandler
00002acc  w      .text	00000000 ADC1_2_IRQHandler
00002e4e g     F .text	0000022a GPIO_Init
00002aa2  w      .text	00000000 Break_Point_Handler
200002a0 g     O .bss	00000001 SetupReqCode
00008454 g     F .text	00000018 _localeconv_r
000087a2 g     F .text	0000001c __i2b
000021e2 g     F .text	0000004e fifo_head_offset
00002aee  w      .text	00000000 SPI1_IRQHandler
00003a64 g     F .text	00000060 USART_Cmd
0000912c g     F .text	00000028 _sbrk_r
00002aac  w      .text	00000000 TAMPER_IRQHandler
00009320 g     F .text	0000002c _read_r
00003cfe g     F .text	0000004e USART_ClearITPendingBit
00002b28  w      .text	00000000 CAN2_RX0_IRQHandler
0000293c g     F .text	00000030 TIM8_UP_IRQHandler
000034f8 g     F .text	00000046 RCC_APB1PeriphClockCmd
00004b08 g     F .text	00000730 .hidden __adddf3
00002a9e  w      .text	00000000 Ecall_M_Mode_Handler
000013a2 g     F .text	00000014 scc8660_vsync_dvp
000096f4 g     F .text	0000000c _isatty
20000248 g     O .data	00000004 _global_impure_ptr
00002b1a  w      .text	00000000 DMA2_Channel2_IRQHandler
00002ac4  w      .text	00000000 DMA1_Channel4_IRQHandler
0000a2b0 g     O .text	00000028 __mprec_bigtens
00009456 g     F .text	00000068 .hidden __floatunsidf
00009718 g     F .text	00000020 _sbrk
00008a8e g     F .text	00000032 __mcmp
000012c6 g     F .text	00000064 mt9v03x_uart_callback_dvp
0000296c g     F .text	00000030 TIM9_UP_IRQHandler
000024c6 g     F .text	00000034 USART3_IRQHandler
00002e2e g     F .text	00000020 EXTI_ClearITPendingBit
00002aae  w      .text	00000000 RTC_IRQHandler
20000304 g       .bss	00000000 _ebss
00003bfc g     F .text	00000102 USART_GetITStatus
00002aca  w      .text	00000000 DMA1_Channel7_IRQHandler
00009f40 g     O .text	0000000c MyProdInfoHD
000086f2 g     F .text	00000046 __hi0bits
00002ad2  w      .text	00000000 CAN1_RX1_IRQHandler
000064fe g     F .text	00000068 .hidden __fixdfsi
0000260a g     F .text	0000003e DVP_IRQHandler
0000252e g     F .text	00000030 UART5_IRQHandler
20000298 g     O .bss	00000004 pDescr
20000244 g     O .data	00000004 MyLangDescrHD
20000274 g     O .bss	00000004 system_clock
00002884 g     F .text	00000030 TIM4_IRQHandler
00005856 g     F .text	000000b6 .hidden __ledf2
00003078 g     F .text	00000038 GPIO_WriteBit
00001de0 g     F .text	00000028 clock_init
00002b18  w      .text	00000000 DMA2_Channel1_IRQHandler
00008902 g     F .text	000000be __pow5mult
00001718 g     F .text	00000142 tft180_show_char
0000a250 g     O .text	00000020 __sf_fake_stderr
20000304 g       .bss	00000000 end
20000230 g     O .data	00000007 LineCoding
00002ae6  w      .text	00000000 I2C1_EV_IRQHandler
00001920 g     F .text	00000470 tft180_init
00003792 g     F .text	00000070 TIM_GetITStatus
000009d2 g     F .text	000000a6 spi_write_16bit
000031ec g     F .text	000002c6 RCC_GetClocksFreq
00002ac8  w      .text	00000000 DMA1_Channel6_IRQHandler
000065d6 g     F .text	00000076 .hidden __clzsi2
00008e48 g     F .text	00000044 __sfputs_r
00000f64 g     F .text	000002b0 uart_init
000024fa g     F .text	00000034 UART4_IRQHandler
00002b1e  w      .text	00000000 DMA2_Channel4_IRQHandler
00008574 g     F .text	0000001a memchr
0000687c  w    F .text	000004c4 _printf_float
00003830 g     F .text	00000234 USART_Init
00008cac g     F .text	000000a4 _free_r
00002854 g     F .text	00000030 TIM3_IRQHandler
00002ab2  w      .text	00000000 RCC_IRQHandler
00000a78 g     F .text	00000408 uart_gpio_init
00002adc  w      .text	00000000 TIM1_TRG_COM_IRQHandler
00002abe  w      .text	00000000 DMA1_Channel1_IRQHandler
00000000 g       .init	00000000 _start
00002b4e  w      .text	00000000 DMA2_Channel7_IRQHandler
00009700 g     F .text	0000000c _lseek
000089c0 g     F .text	000000ce __lshift
00002778 g     F .text	0000007c EXTI15_10_IRQHandler
00000200 g       .text	00000000 dis_interrupt
00000e80 g     F .text	00000086 uart_rx_interrupt
00003ac4 g     F .text	000000c4 USART_ITConfig
20000294 g     O .bss	00000004 pEP2_RAM_Addr
000087be g     F .text	00000144 __multiply
00008bb2 g     F .text	000000d4 __d2b
0000123c g     F .text	00000028 bluetooth_ch9141_uart_callback_ch2
000002bc g     F .text	0000005c system_delay
0000290c g     F .text	00000030 TIM7_IRQHandler
0000923c g     F .text	00000028 _close_r
00002b26  w      .text	00000000 CAN2_TX_IRQHandler
20000000 g       .dalign	00000000 _data_vma
000028b4 g     F .text	00000030 TIM5_IRQHandler
00003e2e g     F .text	00000066 DevEP2_OUT_Deal
00007212 g     F .text	00000112 __swsetup_r
000026fc g     F .text	0000007c EXTI9_5_IRQHandler
00005238 g     F .text	000005b4 .hidden __divdf3
00008348 g     F .text	000000a0 __sfp
0000590c g     F .text	000004b8 .hidden __muldf3
00009154 g     F .text	00000030 __sread
0000161e g     F .text	00000078 tft180_clear
00002b24  w      .text	00000000 ETH_WKUP_IRQHandler
00001696 g     F .text	0000004e tft180_set_dir
00003dc8 g     F .text	00000066 DevEP1_OUT_Deal
0000931c g     F .text	00000002 __malloc_lock
000081ba g     F .text	00000066 _fflush_r
00008c86 g     F .text	00000026 _calloc_r
00002dd8 g     F .text	00000056 EXTI_GetITStatus
2000028c g     O .bss	00000004 pEP0_RAM_Addr
20000252 g     O .bss	00000001 mt9v03x_finish_flag_dvp
00002af0  w      .text	00000000 SPI2_IRQHandler
0000a270 g     O .text	00000020 __sf_fake_stdin
00009ec4 g     O .text	00000012 MyDevDescrHD
00000214 g     F .text	000000a8 memset
00002a3c g     F .text	0000005e main
00002b44  w      .text	00000000 TIM10_BRK_IRQHandler
00002b42  w      .text	00000000 TIM9_CC_IRQHandler
00009208 g     F .text	00000006 __sclose
00002b20  w      .text	00000000 DMA2_Channel5_IRQHandler
2000022c g     O .data	00000001 USBHD_Dev_Speed
2000025f g     O .bss	00000001 scc8660_uart_receive_num_dvp
0000745e g     F .text	00000c1e _dtoa_r
00008d50 g     F .text	000000ce _malloc_r
0000934c g     F .text	00000020 __ascii_wctomb
00009f30 g     O .text	0000000e MyManuInfoHD
2000025c g     O .bss	00000003 scc8660_uart_receive_dvp
00002ac6  w      .text	00000000 DMA1_Channel5_IRQHandler
20000278 g     O .bss	00000001 zf_debug_init_flag
000098b4 g     O .text	00000020 uart_index
000026d8 g     F .text	00000024 EXTI4_IRQHandler
0000185a g     F .text	000000c6 tft180_show_string
00002ad0  w      .text	00000000 USB_LP_CAN1_RX0_IRQHandler
0000132a g     F .text	00000014 mt9v03x_handler_dvp
00003738 g     F .text	0000005a SPI_Cmd
000020ee g     F .text	00000034 debug_init
00002be6 g     F .text	0000007c SystemInit
00002b06  w      .text	00000000 RNG_IRQHandler
000057ec g     F .text	0000006a .hidden __nedf2
000070f8 g     F .text	00000042 iprintf
20000284 g     O .bss	00000008 EP0_DatabufHD
00002ace  w      .text	00000000 USB_HP_CAN1_TX_IRQHandler
0000a0ac g     O .text	00000100 .hidden __clz_tab
000067f0 g     F .text	0000008c __exponent
00000000 g       .init	00000000 _sinit
00003d8a g     F .text	0000003e DevEP2_IN_Deal
0000920e g     F .text	0000002e _write_r
00002ac2  w      .text	00000000 DMA1_Channel3_IRQHandler
000098a8 g     O .text	0000000c spi_index
00002b08  w      .text	00000000 FSMC_IRQHandler
00002b22  w      .text	00000000 ETH_IRQHandler
00006d40 g     F .text	0000010c _printf_common
20000238 g     O .data	00000004 _impure_ptr
000027f4 g     F .text	00000030 TIM1_UP_IRQHandler
0000807c g     F .text	0000013e __sflush_r
00002aa8  w      .text	00000000 WWDG_IRQHandler
000029dc g     F .text	0000003c Blink
00002b30  w      .text	00000000 USBHSWakeup_IRQHandler
00002b56  w      .text	00000000 DMA2_Channel11_IRQHandler
00003584 g     F .text	00000046 RCC_APB1PeriphResetCmd
000092e2 g     F .text	0000003a __ascii_mbtowc
00002aa0  w      .text	00000000 Ecall_U_Mode_Handler
00002b4c  w      .text	00000000 DMA2_Channel6_IRQHandler
00002824 g     F .text	00000030 TIM2_IRQHandler
20010000 g       .stack	00000000 _eusrstack
0000097c g     F .text	00000056 spi_write_8bit
00009ed8 g     O .text	00000043 MyCfgDescrHD
00002ad8  w      .text	00000000 TIM1_BRK_IRQHandler
0000846c g     F .text	0000005a __swhatbuf_r
00003b88 g     F .text	0000002e USART_SendData
00002b54  w      .text	00000000 DMA2_Channel10_IRQHandler
0000266c g     F .text	00000024 EXTI1_IRQHandler
00002166 g     F .text	0000007c _write
20000250 g       .data	00000000 _edata
00001db8 g     F .text	00000028 wireless_uart_callback
2000029c g     O .bss	00000002 USBHD_Dev_SetupReqLen
00002afa  w      .text	00000000 RTCAlarm_IRQHandler
20000264 g     O .bss	00000004 tft180_display_dir
0000a4d4 g       .dlalign	00000000 _data_lma
0000299c g     F .text	00000028 TIM10_UP_IRQHandler
00002b40  w      .text	00000000 TIM9_TRG_COM_IRQHandler
00002592 g     F .text	0000004c UART7_IRQHandler
20000224 g     O .data	00000001 tft180_x_max
00002464 g     F .text	00000062 USART2_IRQHandler
0000255e g     F .text	00000034 UART6_IRQHandler
00009184 g     F .text	0000004e __swrite
00008e8c g     F .text	000002a0 _vfiprintf_r
000083e8 g     F .text	0000006c _fwalk_reent
00008ac0 g     F .text	000000f2 __mdiff
000023da g     F .text	0000002e interrupt_global_enable
00002aec  w      .text	00000000 I2C2_ER_IRQHandler
00002ac0  w      .text	00000000 DMA1_Channel2_IRQHandler
0000a290 g     O .text	00000020 __sf_fake_stdout
00002afe  w      .text	00000000 TIM8_BRK_IRQHandler
0000a3d0 g     O .text	00000101 _ctype_
0000970c g     F .text	0000000c _read
0000941a g     F .text	0000003c .hidden __unorddf2
00002b58  w      .text	00000000 handle_reset
00002ad4  w      .text	00000000 CAN1_SCE_IRQHandler
00009894 g     O .text	00000014 gpio_group
00002ab0  w      .text	00000000 FLASH_IRQHandler
00002430 g     F .text	00000034 USART1_IRQHandler
000084c6 g     F .text	000000a2 __smakebuf_r
00002394 g     F .text	0000001c interrupt_enable
0000713a g     F .text	00000012 strlen
00003e94 g     F .text	00000c74 OTG_FS_IRQHandler
00006e4c g     F .text	000002ac _printf_i
00002b0e  w      .text	00000000 SPI3_IRQHandler
0000129a g     F .text	0000002c camera_dvp_handler
0000936c g     F .text	000000ae .hidden __gedf2
200002a8 g     O .bss	00000004 __malloc_sbrk_start
0000353e g     F .text	00000046 RCC_APB2PeriphResetCmd
00002ae8  w      .text	00000000 I2C1_ER_IRQHandler
00003640 g     F .text	000000f8 SPI_Init
00000514 g     F .text	00000204 spi_gpio_init
0000037e g     F .text	00000196 gpio_init
200002a4 g     O .bss	00000004 __malloc_free_list
00005dc4 g     F .text	0000073a .hidden __subdf3
00008e8c g     F .text	000002a0 _vfprintf_r
00008738 g     F .text	0000006a __lo0bits
20000290 g     O .bss	00000004 pEP1_RAM_Addr
200000b4 g     O .data	0000016c __global_locale
00002afc  w      .text	00000000 USBWakeUp_IRQHandler
000094be g     F .text	0000021e .hidden __trunctfdf2
000096dc g     F .text	0000000c _close
00002b1c  w      .text	00000000 DMA2_Channel3_IRQHandler
0000865a g     F .text	00000098 __multadd
00002408 g     F .text	00000028 interrupt_global_disable
00008616 g     F .text	00000044 _Bfree



Disassembly of section .init:

00000000 <_sinit>:
_start():
D:/projects/mechanical_arm/Firmware/CarMainControl/libraries/sdk/Startup/startup_ch32v30x.S:13

	.section	.init,"ax",@progbits
	.global	_start
	.align	1
_start:
	j	handle_reset
   0:	3590206f          	j	2b58 <handle_reset>
   4:	00000013          	nop
   8:	00000013          	nop
   c:	00000013          	nop
  10:	00000013          	nop
  14:	00000013          	nop
  18:	00000013          	nop
  1c:	00000013          	nop
  20:	00000013          	nop
  24:	00000013          	nop
  28:	00000013          	nop
  2c:	00000013          	nop
  30:	00000013          	nop
  34:	00100073          	ebreak

Disassembly of section .vector:

00000038 <_vector_base>:
	...
_vector_base():
  40:	29c4                	fld	fs1,144(a1)
  42:	0000                	unimp
  44:	29d4                	fld	fa3,144(a1)
  46:	0000                	unimp
  48:	0000                	unimp
  4a:	0000                	unimp
  4c:	2a9e                	fld	fs5,448(sp)
	...
  56:	0000                	unimp
  58:	2aa0                	fld	fs0,80(a3)
  5a:	0000                	unimp
  5c:	2aa2                	fld	fs5,8(sp)
	...
  66:	0000                	unimp
  68:	2aa4                	fld	fs1,80(a3)
  6a:	0000                	unimp
  6c:	0000                	unimp
  6e:	0000                	unimp
  70:	2aa6                	fld	fs5,72(sp)
  72:	0000                	unimp
  74:	0000                	unimp
  76:	0000                	unimp
  78:	2aa8                	fld	fa0,80(a3)
  7a:	0000                	unimp
  7c:	2aaa                	fld	fs5,136(sp)
  7e:	0000                	unimp
  80:	2aac                	fld	fa1,80(a3)
  82:	0000                	unimp
  84:	2aae                	fld	fs5,200(sp)
  86:	0000                	unimp
  88:	2ab0                	fld	fa2,80(a3)
  8a:	0000                	unimp
  8c:	2ab2                	fld	fs5,264(sp)
  8e:	0000                	unimp
  90:	2648                	fld	fa0,136(a2)
  92:	0000                	unimp
  94:	266c                	fld	fa1,200(a2)
  96:	0000                	unimp
  98:	2690                	fld	fa2,8(a3)
  9a:	0000                	unimp
  9c:	26b4                	fld	fa3,72(a3)
  9e:	0000                	unimp
  a0:	26d8                	fld	fa4,136(a3)
  a2:	0000                	unimp
  a4:	2abe                	fld	fs5,456(sp)
  a6:	0000                	unimp
  a8:	2ac0                	fld	fs0,144(a3)
  aa:	0000                	unimp
  ac:	2ac2                	fld	fs5,16(sp)
  ae:	0000                	unimp
  b0:	2ac4                	fld	fs1,144(a3)
  b2:	0000                	unimp
  b4:	2ac6                	fld	fs5,80(sp)
  b6:	0000                	unimp
  b8:	2ac8                	fld	fa0,144(a3)
  ba:	0000                	unimp
  bc:	2aca                	fld	fs5,144(sp)
  be:	0000                	unimp
  c0:	2acc                	fld	fa1,144(a3)
  c2:	0000                	unimp
  c4:	2ace                	fld	fs5,208(sp)
  c6:	0000                	unimp
  c8:	2ad0                	fld	fa2,144(a3)
  ca:	0000                	unimp
  cc:	2ad2                	fld	fs5,272(sp)
  ce:	0000                	unimp
  d0:	2ad4                	fld	fa3,144(a3)
  d2:	0000                	unimp
  d4:	26fc                	fld	fa5,200(a3)
  d6:	0000                	unimp
  d8:	2ad8                	fld	fa4,144(a3)
  da:	0000                	unimp
  dc:	27f4                	fld	fa3,200(a5)
  de:	0000                	unimp
  e0:	2adc                	fld	fa5,144(a3)
  e2:	0000                	unimp
  e4:	2ade                	fld	fs5,464(sp)
  e6:	0000                	unimp
  e8:	2824                	fld	fs1,80(s0)
  ea:	0000                	unimp
  ec:	2854                	fld	fa3,144(s0)
  ee:	0000                	unimp
  f0:	2884                	fld	fs1,16(s1)
  f2:	0000                	unimp
  f4:	2ae6                	fld	fs5,88(sp)
  f6:	0000                	unimp
  f8:	2ae8                	fld	fa0,208(a3)
  fa:	0000                	unimp
  fc:	2aea                	fld	fs5,152(sp)
  fe:	0000                	unimp
 100:	2aec                	fld	fa1,208(a3)
 102:	0000                	unimp
 104:	2aee                	fld	fs5,216(sp)
 106:	0000                	unimp
 108:	2af0                	fld	fa2,208(a3)
 10a:	0000                	unimp
 10c:	2430                	fld	fa2,72(s0)
 10e:	0000                	unimp
 110:	2464                	fld	fs1,200(s0)
 112:	0000                	unimp
 114:	24c6                	fld	fs1,80(sp)
 116:	0000                	unimp
 118:	2778                	fld	fa4,200(a4)
 11a:	0000                	unimp
 11c:	2afa                	fld	fs5,408(sp)
 11e:	0000                	unimp
 120:	2afc                	fld	fa5,208(a3)
 122:	0000                	unimp
 124:	2afe                	fld	fs5,472(sp)
 126:	0000                	unimp
 128:	293c                	fld	fa5,80(a0)
 12a:	0000                	unimp
 12c:	2b02                	fld	fs6,0(sp)
 12e:	0000                	unimp
 130:	2b04                	fld	fs1,16(a4)
 132:	0000                	unimp
 134:	2b06                	fld	fs6,64(sp)
 136:	0000                	unimp
 138:	2b08                	fld	fa0,16(a4)
 13a:	0000                	unimp
 13c:	2b0a                	fld	fs6,128(sp)
 13e:	0000                	unimp
 140:	28b4                	fld	fa3,80(s1)
 142:	0000                	unimp
 144:	2b0e                	fld	fs6,192(sp)
 146:	0000                	unimp
 148:	24fa                	fld	fs1,408(sp)
 14a:	0000                	unimp
 14c:	252e                	fld	fa0,200(sp)
 14e:	0000                	unimp
 150:	28e4                	fld	fs1,208(s1)
 152:	0000                	unimp
 154:	290c                	fld	fa1,16(a0)
 156:	0000                	unimp
 158:	2b18                	fld	fa4,16(a4)
 15a:	0000                	unimp
 15c:	2b1a                	fld	fs6,384(sp)
 15e:	0000                	unimp
 160:	2b1c                	fld	fa5,16(a4)
 162:	0000                	unimp
 164:	2b1e                	fld	fs6,448(sp)
 166:	0000                	unimp
 168:	2b20                	fld	fs0,80(a4)
 16a:	0000                	unimp
 16c:	2b22                	fld	fs6,8(sp)
 16e:	0000                	unimp
 170:	2b24                	fld	fs1,80(a4)
 172:	0000                	unimp
 174:	2b26                	fld	fs6,72(sp)
 176:	0000                	unimp
 178:	2b28                	fld	fa0,80(a4)
 17a:	0000                	unimp
 17c:	2b2a                	fld	fs6,136(sp)
 17e:	0000                	unimp
 180:	2b2c                	fld	fa1,80(a4)
 182:	0000                	unimp
 184:	3e94                	fld	fa3,56(a3)
 186:	0000                	unimp
 188:	2b30                	fld	fa2,80(a4)
 18a:	0000                	unimp
 18c:	2b32                	fld	fs6,264(sp)
 18e:	0000                	unimp
 190:	260a                	fld	fa2,128(sp)
 192:	0000                	unimp
 194:	255e                	fld	fa0,464(sp)
 196:	0000                	unimp
 198:	2592                	fld	fa1,256(sp)
 19a:	0000                	unimp
 19c:	25de                	fld	fa1,464(sp)
 19e:	0000                	unimp
 1a0:	2b3c                	fld	fa5,80(a4)
 1a2:	0000                	unimp
 1a4:	296c                	fld	fa1,208(a0)
 1a6:	0000                	unimp
 1a8:	2b40                	fld	fs0,144(a4)
 1aa:	0000                	unimp
 1ac:	2b42                	fld	fs6,16(sp)
 1ae:	0000                	unimp
 1b0:	2b44                	fld	fs1,144(a4)
 1b2:	0000                	unimp
 1b4:	299c                	fld	fa5,16(a1)
 1b6:	0000                	unimp
 1b8:	2b48                	fld	fa0,144(a4)
 1ba:	0000                	unimp
 1bc:	2b4a                	fld	fs6,144(sp)
 1be:	0000                	unimp
 1c0:	2b4c                	fld	fa1,144(a4)
 1c2:	0000                	unimp
 1c4:	2b4e                	fld	fs6,208(sp)
 1c6:	0000                	unimp
 1c8:	2b50                	fld	fa2,144(a4)
 1ca:	0000                	unimp
 1cc:	2b52                	fld	fs6,272(sp)
 1ce:	0000                	unimp
 1d0:	2b54                	fld	fa3,144(a4)
 1d2:	0000                	unimp
 1d4:	2b56                	fld	fs6,336(sp)
	...

Disassembly of section .text:

00000200 <dis_interrupt>:
dis_interrupt():
D:/projects/mechanical_arm/Firmware/CarMainControl/libraries/zf_driver/zf_driver_irq.S:39
#a0 = 0x7888
#mstatus中的第11 12位MPP
#00 用户模式  (U)
#01 监管者模式(S)
#11 机器模式  (M) 只有该模式允许使用SCR指令
    csrrci a0, mstatus, 0x8
     200:	30047573          	csrrci	a0,mstatus,8
D:/projects/mechanical_arm/Firmware/CarMainControl/libraries/zf_driver/zf_driver_irq.S:40
    ret
     204:	8082                	ret

00000206 <en_interrupt>:
en_interrupt():
D:/projects/mechanical_arm/Firmware/CarMainControl/libraries/zf_driver/zf_driver_irq.S:57

#	li t0, 0x1f
#	csrw 0x804, t0

#mstatus寄存器中的MIE位置1，切换为用户模式
   	li t0, 0x6088
     206:	000062b7          	lui	t0,0x6
     20a:	08828293          	addi	t0,t0,136 # 6088 <__subdf3+0x2c4>
D:/projects/mechanical_arm/Firmware/CarMainControl/libraries/zf_driver/zf_driver_irq.S:58
   	csrs mstatus, t0
     20e:	3002a073          	csrs	mstatus,t0
D:/projects/mechanical_arm/Firmware/CarMainControl/libraries/zf_driver/zf_driver_irq.S:59
    ret
     212:	8082                	ret

00000214 <memset>:
memset():
     214:	433d                	li	t1,15
     216:	872a                	mv	a4,a0
     218:	02c37363          	bgeu	t1,a2,23e <memset+0x2a>
     21c:	00f77793          	andi	a5,a4,15
     220:	efbd                	bnez	a5,29e <memset+0x8a>
     222:	e5ad                	bnez	a1,28c <memset+0x78>
     224:	ff067693          	andi	a3,a2,-16
     228:	8a3d                	andi	a2,a2,15
     22a:	96ba                	add	a3,a3,a4
     22c:	c30c                	sw	a1,0(a4)
     22e:	c34c                	sw	a1,4(a4)
     230:	c70c                	sw	a1,8(a4)
     232:	c74c                	sw	a1,12(a4)
     234:	0741                	addi	a4,a4,16
     236:	fed76be3          	bltu	a4,a3,22c <memset+0x18>
     23a:	e211                	bnez	a2,23e <memset+0x2a>
     23c:	8082                	ret
     23e:	40c306b3          	sub	a3,t1,a2
     242:	068a                	slli	a3,a3,0x2
     244:	00000297          	auipc	t0,0x0
     248:	9696                	add	a3,a3,t0
     24a:	00a68067          	jr	10(a3)
     24e:	00b70723          	sb	a1,14(a4)
     252:	00b706a3          	sb	a1,13(a4)
     256:	00b70623          	sb	a1,12(a4)
     25a:	00b705a3          	sb	a1,11(a4)
     25e:	00b70523          	sb	a1,10(a4)
     262:	00b704a3          	sb	a1,9(a4)
     266:	00b70423          	sb	a1,8(a4)
     26a:	00b703a3          	sb	a1,7(a4)
     26e:	00b70323          	sb	a1,6(a4)
     272:	00b702a3          	sb	a1,5(a4)
     276:	00b70223          	sb	a1,4(a4)
     27a:	00b701a3          	sb	a1,3(a4)
     27e:	00b70123          	sb	a1,2(a4)
     282:	00b700a3          	sb	a1,1(a4)
     286:	00b70023          	sb	a1,0(a4)
     28a:	8082                	ret
     28c:	0ff5f593          	andi	a1,a1,255
     290:	00859693          	slli	a3,a1,0x8
     294:	8dd5                	or	a1,a1,a3
     296:	01059693          	slli	a3,a1,0x10
     29a:	8dd5                	or	a1,a1,a3
     29c:	b761                	j	224 <memset+0x10>
     29e:	00279693          	slli	a3,a5,0x2
     2a2:	00000297          	auipc	t0,0x0
     2a6:	9696                	add	a3,a3,t0
     2a8:	8286                	mv	t0,ra
     2aa:	fa8680e7          	jalr	-88(a3)
     2ae:	8096                	mv	ra,t0
     2b0:	17c1                	addi	a5,a5,-16
     2b2:	8f1d                	sub	a4,a4,a5
     2b4:	963e                	add	a2,a2,a5
     2b6:	f8c374e3          	bgeu	t1,a2,23e <memset+0x2a>
     2ba:	b7a5                	j	222 <memset+0xe>

000002bc <system_delay>:
system_delay():
D:/projects/mechanical_arm/Firmware/CarMainControl/libraries/zf_driver/zf_driver_delay.c:28
//  @param      time                us
//  @return     void
//  Sample usage:                   内部使用，用户无需关心
//-------------------------------------------------------------------------------------------------------------------
void system_delay(uint64_t time)
{
     2bc:	1101                	addi	sp,sp,-32
     2be:	ce22                	sw	s0,28(sp)
     2c0:	1000                	addi	s0,sp,32
     2c2:	fea42423          	sw	a0,-24(s0)
     2c6:	feb42623          	sw	a1,-20(s0)
D:/projects/mechanical_arm/Firmware/CarMainControl/libraries/zf_driver/zf_driver_delay.c:29
    SysTick->CTLR = 0;
     2ca:	e000f7b7          	lui	a5,0xe000f
     2ce:	0007a023          	sw	zero,0(a5) # e000f000 <_eusrstack+0xbffff000>
D:/projects/mechanical_arm/Firmware/CarMainControl/libraries/zf_driver/zf_driver_delay.c:30
    SysTick->CNT  = 0;
     2d2:	e000f7b7          	lui	a5,0xe000f
     2d6:	4681                	li	a3,0
     2d8:	4701                	li	a4,0
     2da:	c794                	sw	a3,8(a5)
     2dc:	c7d8                	sw	a4,12(a5)
D:/projects/mechanical_arm/Firmware/CarMainControl/libraries/zf_driver/zf_driver_delay.c:31
    SysTick->CTLR = 1;          //启动系统计数器 systick（HCLK/8 时基） us
     2de:	e000f7b7          	lui	a5,0xe000f
     2e2:	4705                	li	a4,1
     2e4:	c398                	sw	a4,0(a5)
D:/projects/mechanical_arm/Firmware/CarMainControl/libraries/zf_driver/zf_driver_delay.c:34

    //while((*(volatile uint32*)0xE000F004) <= time);
    while(SysTick->CNT <= time);
     2e6:	0001                	nop
D:/projects/mechanical_arm/Firmware/CarMainControl/libraries/zf_driver/zf_driver_delay.c:34 (discriminator 1)
     2e8:	e000f7b7          	lui	a5,0xe000f
     2ec:	00c7a803          	lw	a6,12(a5) # e000f00c <_eusrstack+0xbffff00c>
     2f0:	479c                	lw	a5,8(a5)
     2f2:	fec42703          	lw	a4,-20(s0)
     2f6:	86c2                	mv	a3,a6
     2f8:	00d76c63          	bltu	a4,a3,310 <system_delay+0x54>
     2fc:	fec42703          	lw	a4,-20(s0)
     300:	86c2                	mv	a3,a6
     302:	fed713e3          	bne	a4,a3,2e8 <system_delay+0x2c>
     306:	fe842703          	lw	a4,-24(s0)
     30a:	00f76363          	bltu	a4,a5,310 <system_delay+0x54>
     30e:	bfe9                	j	2e8 <system_delay+0x2c>
D:/projects/mechanical_arm/Firmware/CarMainControl/libraries/zf_driver/zf_driver_delay.c:36

}
     310:	0001                	nop
     312:	4472                	lw	s0,28(sp)
     314:	6105                	addi	sp,sp,32
     316:	8082                	ret

00000318 <gpio_toggle_level>:
gpio_toggle_level():
D:/projects/mechanical_arm/Firmware/CarMainControl/libraries/zf_driver/zf_driver_gpio.c:63
//  @param      pin         选择的引脚 (可选择范围由 common.h 内GPIO_PIN_enum枚举值确定)
//  @return     void        
//  Sample usage:           gpio_toggle_level(D5);//D5引脚电平翻转
//-------------------------------------------------------------------------------------------------------------------
void gpio_toggle_level(gpio_pin_enum pin)
{
     318:	7179                	addi	sp,sp,-48
     31a:	d622                	sw	s0,44(sp)
     31c:	1800                	addi	s0,sp,48
     31e:	fca42e23          	sw	a0,-36(s0)
D:/projects/mechanical_arm/Firmware/CarMainControl/libraries/zf_driver/zf_driver_gpio.c:64
    uint8 io_group = (pin & 0xF0) >> 5;
     322:	fdc42783          	lw	a5,-36(s0)
     326:	8395                	srli	a5,a5,0x5
     328:	0ff7f793          	andi	a5,a5,255
     32c:	8b9d                	andi	a5,a5,7
     32e:	fef407a3          	sb	a5,-17(s0)
D:/projects/mechanical_arm/Firmware/CarMainControl/libraries/zf_driver/zf_driver_gpio.c:65
    uint8 io_pin = pin & 0x0F;
     332:	fdc42783          	lw	a5,-36(s0)
     336:	0ff7f793          	andi	a5,a5,255
     33a:	8bbd                	andi	a5,a5,15
     33c:	fef40723          	sb	a5,-18(s0)
D:/projects/mechanical_arm/Firmware/CarMainControl/libraries/zf_driver/zf_driver_gpio.c:67

    ((GPIO_TypeDef*)(gpio_group[io_group]))->OUTDR ^= (uint16)(1 << io_pin);
     340:	fef44703          	lbu	a4,-17(s0)
     344:	67a9                	lui	a5,0xa
     346:	070a                	slli	a4,a4,0x2
     348:	89478793          	addi	a5,a5,-1900 # 9894 <gpio_group>
     34c:	97ba                	add	a5,a5,a4
     34e:	439c                	lw	a5,0(a5)
     350:	47dc                	lw	a5,12(a5)
     352:	fee44703          	lbu	a4,-18(s0)
     356:	4685                	li	a3,1
     358:	00e69733          	sll	a4,a3,a4
     35c:	0742                	slli	a4,a4,0x10
     35e:	8341                	srli	a4,a4,0x10
     360:	863a                	mv	a2,a4
     362:	fef44683          	lbu	a3,-17(s0)
     366:	6729                	lui	a4,0xa
     368:	068a                	slli	a3,a3,0x2
     36a:	89470713          	addi	a4,a4,-1900 # 9894 <gpio_group>
     36e:	9736                	add	a4,a4,a3
     370:	4318                	lw	a4,0(a4)
     372:	8fb1                	xor	a5,a5,a2
     374:	c75c                	sw	a5,12(a4)
D:/projects/mechanical_arm/Firmware/CarMainControl/libraries/zf_driver/zf_driver_gpio.c:68
}
     376:	0001                	nop
     378:	5432                	lw	s0,44(sp)
     37a:	6145                	addi	sp,sp,48
     37c:	8082                	ret

0000037e <gpio_init>:
gpio_init():
D:/projects/mechanical_arm/Firmware/CarMainControl/libraries/zf_driver/zf_driver_gpio.c:80
//  @param      pinconf     引脚配置（可设置参数由zf_gpio.h文件内GPIOSPEED_enum与GPIOMODE_enum枚举值确定，多个条件使用 | 相或）
//  @return     void
//  Sample usage:           gpio_init(D0, GPO, 1, GPIO_PIN_CONFIG);//D0初始化为GPIO功能、输出模式、输出高电平、速度100MHZ 推挽输出
//-------------------------------------------------------------------------------------------------------------------
void gpio_init(gpio_pin_enum gpio_pin, gpio_dir_enum gpio_dir, gpio_level_enum dat, uint32 pinconf)
{
     37e:	7179                	addi	sp,sp,-48
     380:	d606                	sw	ra,44(sp)
     382:	d422                	sw	s0,40(sp)
     384:	1800                	addi	s0,sp,48
     386:	fca42e23          	sw	a0,-36(s0)
     38a:	fcb42c23          	sw	a1,-40(s0)
     38e:	fcc42a23          	sw	a2,-44(s0)
     392:	fcd42823          	sw	a3,-48(s0)
D:/projects/mechanical_arm/Firmware/CarMainControl/libraries/zf_driver/zf_driver_gpio.c:82
    GPIO_InitTypeDef GPIO_InitStructure;
    uint8 io_group = (gpio_pin & 0xF0) >> 5;
     396:	fdc42783          	lw	a5,-36(s0)
     39a:	8395                	srli	a5,a5,0x5
     39c:	0ff7f793          	andi	a5,a5,255
     3a0:	8b9d                	andi	a5,a5,7
     3a2:	fef407a3          	sb	a5,-17(s0)
D:/projects/mechanical_arm/Firmware/CarMainControl/libraries/zf_driver/zf_driver_gpio.c:83
    uint8 io_pin = gpio_pin & 0x0F;
     3a6:	fdc42783          	lw	a5,-36(s0)
     3aa:	0ff7f793          	andi	a5,a5,255
     3ae:	8bbd                	andi	a5,a5,15
     3b0:	fef40723          	sb	a5,-18(s0)
D:/projects/mechanical_arm/Firmware/CarMainControl/libraries/zf_driver/zf_driver_gpio.c:87

    //GPIO_DeInit((GPIO_TypeDef *)(GPION[io_group]));
    //  空引脚则返回
    if(PIN_NULL == gpio_pin) return;
     3b4:	fdc42703          	lw	a4,-36(s0)
     3b8:	0ff00793          	li	a5,255
     3bc:	14f70563          	beq	a4,a5,506 <gpio_init+0x188>
D:/projects/mechanical_arm/Firmware/CarMainControl/libraries/zf_driver/zf_driver_gpio.c:88
    if(SPI_CS_NULL == gpio_pin) return;
     3c0:	fdc42703          	lw	a4,-36(s0)
     3c4:	0ff00793          	li	a5,255
     3c8:	14f70163          	beq	a4,a5,50a <gpio_init+0x18c>
D:/projects/mechanical_arm/Firmware/CarMainControl/libraries/zf_driver/zf_driver_gpio.c:91

    //  GPIO总线使能
    if(0 == io_group)      RCC_APB2PeriphClockCmd(RCC_APB2Periph_GPIOA, ENABLE);
     3cc:	fef44783          	lbu	a5,-17(s0)
     3d0:	e791                	bnez	a5,3dc <gpio_init+0x5e>
D:/projects/mechanical_arm/Firmware/CarMainControl/libraries/zf_driver/zf_driver_gpio.c:91 (discriminator 1)
     3d2:	4585                	li	a1,1
     3d4:	4511                	li	a0,4
     3d6:	0dc030ef          	jal	ra,34b2 <RCC_APB2PeriphClockCmd>
     3da:	a041                	j	45a <gpio_init+0xdc>
D:/projects/mechanical_arm/Firmware/CarMainControl/libraries/zf_driver/zf_driver_gpio.c:92
    else if(1 == io_group) RCC_APB2PeriphClockCmd(RCC_APB2Periph_GPIOB, ENABLE);
     3dc:	fef44703          	lbu	a4,-17(s0)
     3e0:	4785                	li	a5,1
     3e2:	00f71763          	bne	a4,a5,3f0 <gpio_init+0x72>
D:/projects/mechanical_arm/Firmware/CarMainControl/libraries/zf_driver/zf_driver_gpio.c:92 (discriminator 1)
     3e6:	4585                	li	a1,1
     3e8:	4521                	li	a0,8
     3ea:	0c8030ef          	jal	ra,34b2 <RCC_APB2PeriphClockCmd>
     3ee:	a0b5                	j	45a <gpio_init+0xdc>
D:/projects/mechanical_arm/Firmware/CarMainControl/libraries/zf_driver/zf_driver_gpio.c:93
    else if(2 == io_group) RCC_APB2PeriphClockCmd(RCC_APB2Periph_GPIOC, ENABLE);
     3f0:	fef44703          	lbu	a4,-17(s0)
     3f4:	4789                	li	a5,2
     3f6:	00f71763          	bne	a4,a5,404 <gpio_init+0x86>
D:/projects/mechanical_arm/Firmware/CarMainControl/libraries/zf_driver/zf_driver_gpio.c:93 (discriminator 1)
     3fa:	4585                	li	a1,1
     3fc:	4541                	li	a0,16
     3fe:	0b4030ef          	jal	ra,34b2 <RCC_APB2PeriphClockCmd>
     402:	a8a1                	j	45a <gpio_init+0xdc>
D:/projects/mechanical_arm/Firmware/CarMainControl/libraries/zf_driver/zf_driver_gpio.c:94
    else if(3 == io_group) RCC_APB2PeriphClockCmd(RCC_APB2Periph_GPIOD, ENABLE);
     404:	fef44703          	lbu	a4,-17(s0)
     408:	478d                	li	a5,3
     40a:	00f71863          	bne	a4,a5,41a <gpio_init+0x9c>
D:/projects/mechanical_arm/Firmware/CarMainControl/libraries/zf_driver/zf_driver_gpio.c:94 (discriminator 1)
     40e:	4585                	li	a1,1
     410:	02000513          	li	a0,32
     414:	09e030ef          	jal	ra,34b2 <RCC_APB2PeriphClockCmd>
     418:	a089                	j	45a <gpio_init+0xdc>
D:/projects/mechanical_arm/Firmware/CarMainControl/libraries/zf_driver/zf_driver_gpio.c:95
    else if(4 == io_group) RCC_APB2PeriphClockCmd(RCC_APB2Periph_GPIOE, ENABLE);
     41a:	fef44703          	lbu	a4,-17(s0)
     41e:	4791                	li	a5,4
     420:	00f71863          	bne	a4,a5,430 <gpio_init+0xb2>
D:/projects/mechanical_arm/Firmware/CarMainControl/libraries/zf_driver/zf_driver_gpio.c:95 (discriminator 1)
     424:	4585                	li	a1,1
     426:	04000513          	li	a0,64
     42a:	088030ef          	jal	ra,34b2 <RCC_APB2PeriphClockCmd>
     42e:	a035                	j	45a <gpio_init+0xdc>
D:/projects/mechanical_arm/Firmware/CarMainControl/libraries/zf_driver/zf_driver_gpio.c:96
    else if(5 == io_group) RCC_APB2PeriphClockCmd(RCC_APB2Periph_GPIOF, ENABLE);
     430:	fef44703          	lbu	a4,-17(s0)
     434:	4795                	li	a5,5
     436:	00f71863          	bne	a4,a5,446 <gpio_init+0xc8>
D:/projects/mechanical_arm/Firmware/CarMainControl/libraries/zf_driver/zf_driver_gpio.c:96 (discriminator 1)
     43a:	4585                	li	a1,1
     43c:	08000513          	li	a0,128
     440:	072030ef          	jal	ra,34b2 <RCC_APB2PeriphClockCmd>
     444:	a819                	j	45a <gpio_init+0xdc>
D:/projects/mechanical_arm/Firmware/CarMainControl/libraries/zf_driver/zf_driver_gpio.c:97
    else if(6 == io_group) RCC_APB2PeriphClockCmd(RCC_APB2Periph_GPIOG, ENABLE);
     446:	fef44703          	lbu	a4,-17(s0)
     44a:	4799                	li	a5,6
     44c:	00f71763          	bne	a4,a5,45a <gpio_init+0xdc>
D:/projects/mechanical_arm/Firmware/CarMainControl/libraries/zf_driver/zf_driver_gpio.c:97 (discriminator 1)
     450:	4585                	li	a1,1
     452:	10000513          	li	a0,256
     456:	05c030ef          	jal	ra,34b2 <RCC_APB2PeriphClockCmd>
D:/projects/mechanical_arm/Firmware/CarMainControl/libraries/zf_driver/zf_driver_gpio.c:100

    //  设置引脚号
    GPIO_InitStructure.GPIO_Pin = (uint16)(1 << io_pin);
     45a:	fee44783          	lbu	a5,-18(s0)
     45e:	4705                	li	a4,1
     460:	00f717b3          	sll	a5,a4,a5
     464:	07c2                	slli	a5,a5,0x10
     466:	83c1                	srli	a5,a5,0x10
     468:	fef41023          	sh	a5,-32(s0)
D:/projects/mechanical_arm/Firmware/CarMainControl/libraries/zf_driver/zf_driver_gpio.c:103

    //  只有输出需要设置速度
    if(GPO == gpio_dir)
     46c:	fd842703          	lw	a4,-40(s0)
     470:	4785                	li	a5,1
     472:	02f71763          	bne	a4,a5,4a0 <gpio_init+0x122>
D:/projects/mechanical_arm/Firmware/CarMainControl/libraries/zf_driver/zf_driver_gpio.c:105
    {
        if((uint16)pinconf >> 8 == 0) GPIO_InitStructure.GPIO_Speed = (GPIOSpeed_TypeDef)(GPIO_Speed_50MHz);            //防止没有填写这个参数,默认设置50Mhz
     476:	fd042783          	lw	a5,-48(s0)
     47a:	07c2                	slli	a5,a5,0x10
     47c:	83c1                	srli	a5,a5,0x10
     47e:	83a1                	srli	a5,a5,0x8
     480:	07c2                	slli	a5,a5,0x10
     482:	83c1                	srli	a5,a5,0x10
     484:	e789                	bnez	a5,48e <gpio_init+0x110>
D:/projects/mechanical_arm/Firmware/CarMainControl/libraries/zf_driver/zf_driver_gpio.c:105 (discriminator 1)
     486:	478d                	li	a5,3
     488:	fef42223          	sw	a5,-28(s0)
     48c:	a811                	j	4a0 <gpio_init+0x122>
D:/projects/mechanical_arm/Firmware/CarMainControl/libraries/zf_driver/zf_driver_gpio.c:106
        else GPIO_InitStructure.GPIO_Speed = (gpio_speed_enum)((uint16)pinconf >> 8);         //已经填写了该参数。根据值来设置
     48e:	fd042783          	lw	a5,-48(s0)
     492:	07c2                	slli	a5,a5,0x10
     494:	83c1                	srli	a5,a5,0x10
     496:	83a1                	srli	a5,a5,0x8
     498:	07c2                	slli	a5,a5,0x10
     49a:	83c1                	srli	a5,a5,0x10
     49c:	fef42223          	sw	a5,-28(s0)
D:/projects/mechanical_arm/Firmware/CarMainControl/libraries/zf_driver/zf_driver_gpio.c:110
    }

    //  设置模式
    GPIO_InitStructure.GPIO_Mode = (GPIOMode_TypeDef)((uint16)pinconf & 0xFF);
     4a0:	fd042783          	lw	a5,-48(s0)
     4a4:	07c2                	slli	a5,a5,0x10
     4a6:	83c1                	srli	a5,a5,0x10
     4a8:	0ff7f793          	andi	a5,a5,255
     4ac:	fef42423          	sw	a5,-24(s0)
D:/projects/mechanical_arm/Firmware/CarMainControl/libraries/zf_driver/zf_driver_gpio.c:111
    GPIO_Init((GPIO_TypeDef*)gpio_group[io_group], &GPIO_InitStructure);
     4b0:	fef44703          	lbu	a4,-17(s0)
     4b4:	67a9                	lui	a5,0xa
     4b6:	070a                	slli	a4,a4,0x2
     4b8:	89478793          	addi	a5,a5,-1900 # 9894 <gpio_group>
     4bc:	97ba                	add	a5,a5,a4
     4be:	439c                	lw	a5,0(a5)
     4c0:	873e                	mv	a4,a5
     4c2:	fe040793          	addi	a5,s0,-32
     4c6:	85be                	mv	a1,a5
     4c8:	853a                	mv	a0,a4
     4ca:	185020ef          	jal	ra,2e4e <GPIO_Init>
D:/projects/mechanical_arm/Firmware/CarMainControl/libraries/zf_driver/zf_driver_gpio.c:114

    //  只有输出需要设置引脚状态
    if(GPO == gpio_dir)
     4ce:	fd842703          	lw	a4,-40(s0)
     4d2:	4785                	li	a5,1
     4d4:	02f71c63          	bne	a4,a5,50c <gpio_init+0x18e>
D:/projects/mechanical_arm/Firmware/CarMainControl/libraries/zf_driver/zf_driver_gpio.c:116
    {
        GPIO_WriteBit((GPIO_TypeDef*)gpio_group[io_group], (uint16)(1 << io_pin), dat);
     4d8:	fef44703          	lbu	a4,-17(s0)
     4dc:	67a9                	lui	a5,0xa
     4de:	070a                	slli	a4,a4,0x2
     4e0:	89478793          	addi	a5,a5,-1900 # 9894 <gpio_group>
     4e4:	97ba                	add	a5,a5,a4
     4e6:	439c                	lw	a5,0(a5)
     4e8:	86be                	mv	a3,a5
     4ea:	fee44783          	lbu	a5,-18(s0)
     4ee:	4705                	li	a4,1
     4f0:	00f717b3          	sll	a5,a4,a5
     4f4:	07c2                	slli	a5,a5,0x10
     4f6:	83c1                	srli	a5,a5,0x10
     4f8:	fd442603          	lw	a2,-44(s0)
     4fc:	85be                	mv	a1,a5
     4fe:	8536                	mv	a0,a3
     500:	379020ef          	jal	ra,3078 <GPIO_WriteBit>
     504:	a021                	j	50c <gpio_init+0x18e>
D:/projects/mechanical_arm/Firmware/CarMainControl/libraries/zf_driver/zf_driver_gpio.c:87
    if(PIN_NULL == gpio_pin) return;
     506:	0001                	nop
     508:	a011                	j	50c <gpio_init+0x18e>
D:/projects/mechanical_arm/Firmware/CarMainControl/libraries/zf_driver/zf_driver_gpio.c:88
    if(SPI_CS_NULL == gpio_pin) return;
     50a:	0001                	nop
D:/projects/mechanical_arm/Firmware/CarMainControl/libraries/zf_driver/zf_driver_gpio.c:118
    }
}
     50c:	50b2                	lw	ra,44(sp)
     50e:	5422                	lw	s0,40(sp)
     510:	6145                	addi	sp,sp,48
     512:	8082                	ret

00000514 <spi_gpio_init>:
spi_gpio_init():
D:/projects/mechanical_arm/Firmware/CarMainControl/libraries/zf_driver/zf_driver_spi.c:35
//  @param      cs_pin      片选引脚(可选择范围由common.h内PIN_enum枚举值确定)
//  @return     void
//  Sample usage:           内部使用  用户无需关心
//-------------------------------------------------------------------------------------------------------------------
void spi_gpio_init(spi_pin_enum sck_pin, spi_pin_enum mosi_pin, spi_pin_enum miso_pin, gpio_pin_enum cs_pin)
{
     514:	1101                	addi	sp,sp,-32
     516:	ce06                	sw	ra,28(sp)
     518:	cc22                	sw	s0,24(sp)
     51a:	1000                	addi	s0,sp,32
     51c:	fea42623          	sw	a0,-20(s0)
     520:	feb42423          	sw	a1,-24(s0)
     524:	fec42223          	sw	a2,-28(s0)
     528:	fed42023          	sw	a3,-32(s0)
D:/projects/mechanical_arm/Firmware/CarMainControl/libraries/zf_driver/zf_driver_spi.c:36
    if(SPI1_SCK_A5        == sck_pin)    gpio_init(A5,  GPO, 1, SPEED_50MHZ|GPO_AF_PUSH_PULL);
     52c:	fec42783          	lw	a5,-20(s0)
     530:	eb81                	bnez	a5,540 <spi_gpio_init+0x2c>
D:/projects/mechanical_arm/Firmware/CarMainControl/libraries/zf_driver/zf_driver_spi.c:36 (discriminator 1)
     532:	31800693          	li	a3,792
     536:	4605                	li	a2,1
     538:	4585                	li	a1,1
     53a:	4515                	li	a0,5
     53c:	3589                	jal	37e <gpio_init>
     53e:	a041                	j	5be <spi_gpio_init+0xaa>
D:/projects/mechanical_arm/Firmware/CarMainControl/libraries/zf_driver/zf_driver_spi.c:37
    else if(SPI1_SCK_B3   == sck_pin)    gpio_init(B3,  GPO, 1, SPEED_50MHZ|GPO_AF_PUSH_PULL);
     540:	fec42703          	lw	a4,-20(s0)
     544:	47c1                	li	a5,16
     546:	00f71a63          	bne	a4,a5,55a <spi_gpio_init+0x46>
D:/projects/mechanical_arm/Firmware/CarMainControl/libraries/zf_driver/zf_driver_spi.c:37 (discriminator 1)
     54a:	31800693          	li	a3,792
     54e:	4605                	li	a2,1
     550:	4585                	li	a1,1
     552:	02300513          	li	a0,35
     556:	3525                	jal	37e <gpio_init>
     558:	a09d                	j	5be <spi_gpio_init+0xaa>
D:/projects/mechanical_arm/Firmware/CarMainControl/libraries/zf_driver/zf_driver_spi.c:38
    else if(SPI2_SCK_B13  == sck_pin)    gpio_init(B13, GPO, 1, SPEED_50MHZ|GPO_AF_PUSH_PULL);
     55a:	fec42703          	lw	a4,-20(s0)
     55e:	02000793          	li	a5,32
     562:	00f71a63          	bne	a4,a5,576 <spi_gpio_init+0x62>
D:/projects/mechanical_arm/Firmware/CarMainControl/libraries/zf_driver/zf_driver_spi.c:38 (discriminator 1)
     566:	31800693          	li	a3,792
     56a:	4605                	li	a2,1
     56c:	4585                	li	a1,1
     56e:	02d00513          	li	a0,45
     572:	3531                	jal	37e <gpio_init>
     574:	a0a9                	j	5be <spi_gpio_init+0xaa>
D:/projects/mechanical_arm/Firmware/CarMainControl/libraries/zf_driver/zf_driver_spi.c:39
    else if(SPI3_SCK_B3   == sck_pin)    gpio_init(B3,  GPO, 1, SPEED_50MHZ|GPO_AF_PUSH_PULL);
     576:	fec42703          	lw	a4,-20(s0)
     57a:	03000793          	li	a5,48
     57e:	00f71a63          	bne	a4,a5,592 <spi_gpio_init+0x7e>
D:/projects/mechanical_arm/Firmware/CarMainControl/libraries/zf_driver/zf_driver_spi.c:39 (discriminator 1)
     582:	31800693          	li	a3,792
     586:	4605                	li	a2,1
     588:	4585                	li	a1,1
     58a:	02300513          	li	a0,35
     58e:	3bc5                	jal	37e <gpio_init>
     590:	a03d                	j	5be <spi_gpio_init+0xaa>
D:/projects/mechanical_arm/Firmware/CarMainControl/libraries/zf_driver/zf_driver_spi.c:40
    else if(SPI3_SCK_C10  == sck_pin)    gpio_init(C10, GPO, 1, SPEED_50MHZ|GPO_AF_PUSH_PULL);
     592:	fec42703          	lw	a4,-20(s0)
     596:	04000793          	li	a5,64
     59a:	00f71a63          	bne	a4,a5,5ae <spi_gpio_init+0x9a>
D:/projects/mechanical_arm/Firmware/CarMainControl/libraries/zf_driver/zf_driver_spi.c:40 (discriminator 1)
     59e:	31800693          	li	a3,792
     5a2:	4605                	li	a2,1
     5a4:	4585                	li	a1,1
     5a6:	04a00513          	li	a0,74
     5aa:	3bd1                	jal	37e <gpio_init>
     5ac:	a809                	j	5be <spi_gpio_init+0xaa>
D:/projects/mechanical_arm/Firmware/CarMainControl/libraries/zf_driver/zf_driver_spi.c:41
    else zf_assert(0);         //无此参数进入断言
     5ae:	02900613          	li	a2,41
     5b2:	67a5                	lui	a5,0x9
     5b4:	73878593          	addi	a1,a5,1848 # 9738 <_sbrk+0x20>
     5b8:	4501                	li	a0,0
     5ba:	369010ef          	jal	ra,2122 <debug_assert_handler>
D:/projects/mechanical_arm/Firmware/CarMainControl/libraries/zf_driver/zf_driver_spi.c:43

    if(SPI1_MOSI_A7       == mosi_pin)   gpio_init(A7,  GPO, 1, SPEED_50MHZ|GPO_AF_PUSH_PULL);
     5be:	fe842703          	lw	a4,-24(s0)
     5c2:	4789                	li	a5,2
     5c4:	00f71963          	bne	a4,a5,5d6 <spi_gpio_init+0xc2>
D:/projects/mechanical_arm/Firmware/CarMainControl/libraries/zf_driver/zf_driver_spi.c:43 (discriminator 1)
     5c8:	31800693          	li	a3,792
     5cc:	4605                	li	a2,1
     5ce:	4585                	li	a1,1
     5d0:	451d                	li	a0,7
     5d2:	3375                	jal	37e <gpio_init>
     5d4:	a041                	j	654 <spi_gpio_init+0x140>
D:/projects/mechanical_arm/Firmware/CarMainControl/libraries/zf_driver/zf_driver_spi.c:44
    else if(SPI1_MOSI_B5  == mosi_pin)   gpio_init(B5,  GPO, 1, SPEED_50MHZ|GPO_AF_PUSH_PULL);
     5d6:	fe842703          	lw	a4,-24(s0)
     5da:	47c9                	li	a5,18
     5dc:	00f71a63          	bne	a4,a5,5f0 <spi_gpio_init+0xdc>
D:/projects/mechanical_arm/Firmware/CarMainControl/libraries/zf_driver/zf_driver_spi.c:44 (discriminator 1)
     5e0:	31800693          	li	a3,792
     5e4:	4605                	li	a2,1
     5e6:	4585                	li	a1,1
     5e8:	02500513          	li	a0,37
     5ec:	3b49                	jal	37e <gpio_init>
     5ee:	a09d                	j	654 <spi_gpio_init+0x140>
D:/projects/mechanical_arm/Firmware/CarMainControl/libraries/zf_driver/zf_driver_spi.c:45
    else if(SPI2_MOSI_B15 == mosi_pin)   gpio_init(B15, GPO, 1, SPEED_50MHZ|GPO_AF_PUSH_PULL);
     5f0:	fe842703          	lw	a4,-24(s0)
     5f4:	02200793          	li	a5,34
     5f8:	00f71a63          	bne	a4,a5,60c <spi_gpio_init+0xf8>
D:/projects/mechanical_arm/Firmware/CarMainControl/libraries/zf_driver/zf_driver_spi.c:45 (discriminator 1)
     5fc:	31800693          	li	a3,792
     600:	4605                	li	a2,1
     602:	4585                	li	a1,1
     604:	02f00513          	li	a0,47
     608:	3b9d                	jal	37e <gpio_init>
     60a:	a0a9                	j	654 <spi_gpio_init+0x140>
D:/projects/mechanical_arm/Firmware/CarMainControl/libraries/zf_driver/zf_driver_spi.c:46
    else if(SPI3_MOSI_B5  == mosi_pin)   gpio_init(B5,  GPO, 1, SPEED_50MHZ|GPO_AF_PUSH_PULL);
     60c:	fe842703          	lw	a4,-24(s0)
     610:	03200793          	li	a5,50
     614:	00f71a63          	bne	a4,a5,628 <spi_gpio_init+0x114>
D:/projects/mechanical_arm/Firmware/CarMainControl/libraries/zf_driver/zf_driver_spi.c:46 (discriminator 1)
     618:	31800693          	li	a3,792
     61c:	4605                	li	a2,1
     61e:	4585                	li	a1,1
     620:	02500513          	li	a0,37
     624:	3ba9                	jal	37e <gpio_init>
     626:	a03d                	j	654 <spi_gpio_init+0x140>
D:/projects/mechanical_arm/Firmware/CarMainControl/libraries/zf_driver/zf_driver_spi.c:47
    else if(SPI3_MOSI_C12 == mosi_pin)   gpio_init(C12, GPO, 1, SPEED_50MHZ|GPO_AF_PUSH_PULL);
     628:	fe842703          	lw	a4,-24(s0)
     62c:	04200793          	li	a5,66
     630:	00f71a63          	bne	a4,a5,644 <spi_gpio_init+0x130>
D:/projects/mechanical_arm/Firmware/CarMainControl/libraries/zf_driver/zf_driver_spi.c:47 (discriminator 1)
     634:	31800693          	li	a3,792
     638:	4605                	li	a2,1
     63a:	4585                	li	a1,1
     63c:	04c00513          	li	a0,76
     640:	3b3d                	jal	37e <gpio_init>
     642:	a809                	j	654 <spi_gpio_init+0x140>
D:/projects/mechanical_arm/Firmware/CarMainControl/libraries/zf_driver/zf_driver_spi.c:48
    else zf_assert(0);         //无此参数进入断言
     644:	03000613          	li	a2,48
     648:	67a5                	lui	a5,0x9
     64a:	73878593          	addi	a1,a5,1848 # 9738 <_sbrk+0x20>
     64e:	4501                	li	a0,0
     650:	2d3010ef          	jal	ra,2122 <debug_assert_handler>
D:/projects/mechanical_arm/Firmware/CarMainControl/libraries/zf_driver/zf_driver_spi.c:50

    if(SPI1_MISO_A6       == miso_pin)   gpio_init(A6,  GPI, 1, SPEED_50MHZ|GPI_FLOATING_IN);
     654:	fe442703          	lw	a4,-28(s0)
     658:	4785                	li	a5,1
     65a:	00f71963          	bne	a4,a5,66c <spi_gpio_init+0x158>
D:/projects/mechanical_arm/Firmware/CarMainControl/libraries/zf_driver/zf_driver_spi.c:50 (discriminator 1)
     65e:	30400693          	li	a3,772
     662:	4605                	li	a2,1
     664:	4581                	li	a1,0
     666:	4519                	li	a0,6
     668:	3b19                	jal	37e <gpio_init>
     66a:	a859                	j	700 <spi_gpio_init+0x1ec>
D:/projects/mechanical_arm/Firmware/CarMainControl/libraries/zf_driver/zf_driver_spi.c:51
    else if(SPI1_MISO_B4  == miso_pin)   gpio_init(B4,  GPI, 1, SPEED_50MHZ|GPI_FLOATING_IN);
     66c:	fe442703          	lw	a4,-28(s0)
     670:	47c5                	li	a5,17
     672:	00f71a63          	bne	a4,a5,686 <spi_gpio_init+0x172>
D:/projects/mechanical_arm/Firmware/CarMainControl/libraries/zf_driver/zf_driver_spi.c:51 (discriminator 1)
     676:	30400693          	li	a3,772
     67a:	4605                	li	a2,1
     67c:	4581                	li	a1,0
     67e:	02400513          	li	a0,36
     682:	39f5                	jal	37e <gpio_init>
     684:	a8b5                	j	700 <spi_gpio_init+0x1ec>
D:/projects/mechanical_arm/Firmware/CarMainControl/libraries/zf_driver/zf_driver_spi.c:52
    else if(SPI2_MISO_B14 == miso_pin)   gpio_init(B14, GPI, 1, SPEED_50MHZ|GPI_FLOATING_IN);
     686:	fe442703          	lw	a4,-28(s0)
     68a:	02100793          	li	a5,33
     68e:	00f71a63          	bne	a4,a5,6a2 <spi_gpio_init+0x18e>
D:/projects/mechanical_arm/Firmware/CarMainControl/libraries/zf_driver/zf_driver_spi.c:52 (discriminator 1)
     692:	30400693          	li	a3,772
     696:	4605                	li	a2,1
     698:	4581                	li	a1,0
     69a:	02e00513          	li	a0,46
     69e:	31c5                	jal	37e <gpio_init>
     6a0:	a085                	j	700 <spi_gpio_init+0x1ec>
D:/projects/mechanical_arm/Firmware/CarMainControl/libraries/zf_driver/zf_driver_spi.c:53
    else if(SPI3_MISO_C11 == miso_pin)   gpio_init(C11, GPI, 1, SPEED_50MHZ|GPI_FLOATING_IN);
     6a2:	fe442703          	lw	a4,-28(s0)
     6a6:	04100793          	li	a5,65
     6aa:	00f71a63          	bne	a4,a5,6be <spi_gpio_init+0x1aa>
D:/projects/mechanical_arm/Firmware/CarMainControl/libraries/zf_driver/zf_driver_spi.c:53 (discriminator 1)
     6ae:	30400693          	li	a3,772
     6b2:	4605                	li	a2,1
     6b4:	4581                	li	a1,0
     6b6:	04b00513          	li	a0,75
     6ba:	31d1                	jal	37e <gpio_init>
     6bc:	a091                	j	700 <spi_gpio_init+0x1ec>
D:/projects/mechanical_arm/Firmware/CarMainControl/libraries/zf_driver/zf_driver_spi.c:54
    else if(SPI3_MISO_B4  == miso_pin)   gpio_init(B4,  GPI, 1, SPEED_50MHZ|GPI_FLOATING_IN);
     6be:	fe442703          	lw	a4,-28(s0)
     6c2:	03100793          	li	a5,49
     6c6:	00f71a63          	bne	a4,a5,6da <spi_gpio_init+0x1c6>
D:/projects/mechanical_arm/Firmware/CarMainControl/libraries/zf_driver/zf_driver_spi.c:54 (discriminator 1)
     6ca:	30400693          	li	a3,772
     6ce:	4605                	li	a2,1
     6d0:	4581                	li	a1,0
     6d2:	02400513          	li	a0,36
     6d6:	3165                	jal	37e <gpio_init>
     6d8:	a025                	j	700 <spi_gpio_init+0x1ec>
D:/projects/mechanical_arm/Firmware/CarMainControl/libraries/zf_driver/zf_driver_spi.c:55
    else if(SPI_MISO_NULL == miso_pin)   miso_pin = SPI_MISO_NULL;
     6da:	fe442703          	lw	a4,-28(s0)
     6de:	0ff00793          	li	a5,255
     6e2:	00f71763          	bne	a4,a5,6f0 <spi_gpio_init+0x1dc>
D:/projects/mechanical_arm/Firmware/CarMainControl/libraries/zf_driver/zf_driver_spi.c:55 (discriminator 1)
     6e6:	0ff00793          	li	a5,255
     6ea:	fef42223          	sw	a5,-28(s0)
     6ee:	a809                	j	700 <spi_gpio_init+0x1ec>
D:/projects/mechanical_arm/Firmware/CarMainControl/libraries/zf_driver/zf_driver_spi.c:56
    else  zf_assert(0);         //无此参数进入断言
     6f0:	03800613          	li	a2,56
     6f4:	67a5                	lui	a5,0x9
     6f6:	73878593          	addi	a1,a5,1848 # 9738 <_sbrk+0x20>
     6fa:	4501                	li	a0,0
     6fc:	227010ef          	jal	ra,2122 <debug_assert_handler>
D:/projects/mechanical_arm/Firmware/CarMainControl/libraries/zf_driver/zf_driver_spi.c:59

    //初始化CS引脚
    gpio_init(cs_pin, GPO, 0, SPEED_50MHZ|GPO_PUSH_PULL);
     700:	31000693          	li	a3,784
     704:	4601                	li	a2,0
     706:	4585                	li	a1,1
     708:	fe042503          	lw	a0,-32(s0)
     70c:	398d                	jal	37e <gpio_init>
D:/projects/mechanical_arm/Firmware/CarMainControl/libraries/zf_driver/zf_driver_spi.c:61

}
     70e:	0001                	nop
     710:	40f2                	lw	ra,28(sp)
     712:	4462                	lw	s0,24(sp)
     714:	6105                	addi	sp,sp,32
     716:	8082                	ret

00000718 <spi_init>:
spi_init():
D:/projects/mechanical_arm/Firmware/CarMainControl/libraries/zf_driver/zf_driver_spi.c:76
// @param       cs_pin          选择 CS 引脚 参照 zf_driver_gpio.h 内 gpio_pin_enum 枚举体定义
// @return      void
// Sample usage:                spi_init(SPI_1, 0, 1*1000*1000, SPI1_SCK_A5, SPI1_MOSI_A7, SPI1_MISO_A6, A4);  //硬件SPI初始化  模式0 波特率为1Mhz
//-------------------------------------------------------------------------------------------------------------------
void spi_init(spi_index_enum spi_n, spi_mode_enum mode, uint32 baud, spi_pin_enum sck_pin, spi_pin_enum mosi_pin, spi_pin_enum miso_pin, gpio_pin_enum cs_pin)
{
     718:	715d                	addi	sp,sp,-80
     71a:	c686                	sw	ra,76(sp)
     71c:	c4a2                	sw	s0,72(sp)
     71e:	0880                	addi	s0,sp,80
     720:	fca42623          	sw	a0,-52(s0)
     724:	fcb42423          	sw	a1,-56(s0)
     728:	fcc42223          	sw	a2,-60(s0)
     72c:	fcd42023          	sw	a3,-64(s0)
     730:	fae42e23          	sw	a4,-68(s0)
     734:	faf42c23          	sw	a5,-72(s0)
     738:	fb042a23          	sw	a6,-76(s0)
D:/projects/mechanical_arm/Firmware/CarMainControl/libraries/zf_driver/zf_driver_spi.c:77
    uint16 psc = 0;
     73c:	fe041723          	sh	zero,-18(s0)
D:/projects/mechanical_arm/Firmware/CarMainControl/libraries/zf_driver/zf_driver_spi.c:88
//    {
//        assert(0);
//        return;
//    }

    SPI_I2S_DeInit((SPI_TypeDef *)(spi_index[spi_n]));
     740:	67a9                	lui	a5,0xa
     742:	fcc42703          	lw	a4,-52(s0)
     746:	070a                	slli	a4,a4,0x2
     748:	8a878793          	addi	a5,a5,-1880 # 98a8 <spi_index>
     74c:	97ba                	add	a5,a5,a4
     74e:	439c                	lw	a5,0(a5)
     750:	853e                	mv	a0,a5
     752:	679020ef          	jal	ra,35ca <SPI_I2S_DeInit>
D:/projects/mechanical_arm/Firmware/CarMainControl/libraries/zf_driver/zf_driver_spi.c:90

    RCC_APB2PeriphClockCmd(RCC_APB2Periph_AFIO, ENABLE);                                           // 复用总线使能
     756:	4585                	li	a1,1
     758:	4505                	li	a0,1
     75a:	559020ef          	jal	ra,34b2 <RCC_APB2PeriphClockCmd>
D:/projects/mechanical_arm/Firmware/CarMainControl/libraries/zf_driver/zf_driver_spi.c:92

    if(sck_pin == SPI1_SCK_B3 && mosi_pin == SPI1_MOSI_B5 && miso_pin == SPI1_MISO_B4)
     75e:	fc042703          	lw	a4,-64(s0)
     762:	47c1                	li	a5,16
     764:	02f71163          	bne	a4,a5,786 <spi_init+0x6e>
D:/projects/mechanical_arm/Firmware/CarMainControl/libraries/zf_driver/zf_driver_spi.c:92 (discriminator 1)
     768:	fbc42703          	lw	a4,-68(s0)
     76c:	47c9                	li	a5,18
     76e:	00f71c63          	bne	a4,a5,786 <spi_init+0x6e>
D:/projects/mechanical_arm/Firmware/CarMainControl/libraries/zf_driver/zf_driver_spi.c:92 (discriminator 2)
     772:	fb842703          	lw	a4,-72(s0)
     776:	47c5                	li	a5,17
     778:	00f71763          	bne	a4,a5,786 <spi_init+0x6e>
D:/projects/mechanical_arm/Firmware/CarMainControl/libraries/zf_driver/zf_driver_spi.c:93
        GPIO_PinRemapConfig(GPIO_Remap_SPI1, ENABLE);
     77c:	4585                	li	a1,1
     77e:	4505                	li	a0,1
     780:	131020ef          	jal	ra,30b0 <GPIO_PinRemapConfig>
     784:	a815                	j	7b8 <spi_init+0xa0>
D:/projects/mechanical_arm/Firmware/CarMainControl/libraries/zf_driver/zf_driver_spi.c:94
    else if(sck_pin == SPI3_SCK_C10 && mosi_pin == SPI3_MOSI_C12 && miso_pin == SPI3_MISO_C11)
     786:	fc042703          	lw	a4,-64(s0)
     78a:	04000793          	li	a5,64
     78e:	02f71563          	bne	a4,a5,7b8 <spi_init+0xa0>
D:/projects/mechanical_arm/Firmware/CarMainControl/libraries/zf_driver/zf_driver_spi.c:94 (discriminator 1)
     792:	fbc42703          	lw	a4,-68(s0)
     796:	04200793          	li	a5,66
     79a:	00f71f63          	bne	a4,a5,7b8 <spi_init+0xa0>
D:/projects/mechanical_arm/Firmware/CarMainControl/libraries/zf_driver/zf_driver_spi.c:94 (discriminator 2)
     79e:	fb842703          	lw	a4,-72(s0)
     7a2:	04100793          	li	a5,65
     7a6:	00f71963          	bne	a4,a5,7b8 <spi_init+0xa0>
D:/projects/mechanical_arm/Firmware/CarMainControl/libraries/zf_driver/zf_driver_spi.c:95
        GPIO_PinRemapConfig(GPIO_Remap_SPI3, ENABLE);
     7aa:	4585                	li	a1,1
     7ac:	002017b7          	lui	a5,0x201
     7b0:	10078513          	addi	a0,a5,256 # 201100 <_data_lma+0x1f6c2c>
     7b4:	0fd020ef          	jal	ra,30b0 <GPIO_PinRemapConfig>
D:/projects/mechanical_arm/Firmware/CarMainControl/libraries/zf_driver/zf_driver_spi.c:98


         if(SPI_1 == spi_n)   RCC_APB2PeriphClockCmd(RCC_APB2Periph_SPI1, ENABLE);                // SPI1时钟使能
     7b8:	fcc42783          	lw	a5,-52(s0)
     7bc:	e791                	bnez	a5,7c8 <spi_init+0xb0>
D:/projects/mechanical_arm/Firmware/CarMainControl/libraries/zf_driver/zf_driver_spi.c:98 (discriminator 1)
     7be:	4585                	li	a1,1
     7c0:	6505                	lui	a0,0x1
     7c2:	4f1020ef          	jal	ra,34b2 <RCC_APB2PeriphClockCmd>
     7c6:	a025                	j	7ee <spi_init+0xd6>
D:/projects/mechanical_arm/Firmware/CarMainControl/libraries/zf_driver/zf_driver_spi.c:99
    else if(SPI_2 == spi_n)   RCC_APB1PeriphClockCmd(RCC_APB1Periph_SPI2, ENABLE);                // SPI2时钟使能
     7c8:	fcc42703          	lw	a4,-52(s0)
     7cc:	4785                	li	a5,1
     7ce:	00f71763          	bne	a4,a5,7dc <spi_init+0xc4>
D:/projects/mechanical_arm/Firmware/CarMainControl/libraries/zf_driver/zf_driver_spi.c:99 (discriminator 1)
     7d2:	4585                	li	a1,1
     7d4:	6511                	lui	a0,0x4
     7d6:	523020ef          	jal	ra,34f8 <RCC_APB1PeriphClockCmd>
     7da:	a811                	j	7ee <spi_init+0xd6>
D:/projects/mechanical_arm/Firmware/CarMainControl/libraries/zf_driver/zf_driver_spi.c:100
    else if(SPI_3 == spi_n)   RCC_APB1PeriphClockCmd(RCC_APB1Periph_SPI3, ENABLE);                // SPI3时钟使能
     7dc:	fcc42703          	lw	a4,-52(s0)
     7e0:	4789                	li	a5,2
     7e2:	00f71663          	bne	a4,a5,7ee <spi_init+0xd6>
D:/projects/mechanical_arm/Firmware/CarMainControl/libraries/zf_driver/zf_driver_spi.c:100 (discriminator 1)
     7e6:	4585                	li	a1,1
     7e8:	6521                	lui	a0,0x8
     7ea:	50f020ef          	jal	ra,34f8 <RCC_APB1PeriphClockCmd>
D:/projects/mechanical_arm/Firmware/CarMainControl/libraries/zf_driver/zf_driver_spi.c:101
    spi_gpio_init(sck_pin, mosi_pin, miso_pin, cs_pin);
     7ee:	fb442683          	lw	a3,-76(s0)
     7f2:	fb842603          	lw	a2,-72(s0)
     7f6:	fbc42583          	lw	a1,-68(s0)
     7fa:	fc042503          	lw	a0,-64(s0)
     7fe:	3b19                	jal	514 <spi_gpio_init>
D:/projects/mechanical_arm/Firmware/CarMainControl/libraries/zf_driver/zf_driver_spi.c:104


    SPI_InitStructure.SPI_Direction = SPI_Direction_2Lines_FullDuplex;      // SPI设置为双线双向全双工
     800:	fc041e23          	sh	zero,-36(s0)
D:/projects/mechanical_arm/Firmware/CarMainControl/libraries/zf_driver/zf_driver_spi.c:105
    SPI_InitStructure.SPI_Mode = SPI_Mode_Master;                           // 设置SPI工作模式:设置为主SPI
     804:	10400793          	li	a5,260
     808:	fcf41f23          	sh	a5,-34(s0)
D:/projects/mechanical_arm/Firmware/CarMainControl/libraries/zf_driver/zf_driver_spi.c:106
    SPI_InitStructure.SPI_DataSize = SPI_DataSize_8b;                       // 设置SPI的数据大小:SPI发送接收8位帧结构
     80c:	fe041023          	sh	zero,-32(s0)
     810:	fc842703          	lw	a4,-56(s0)
     814:	4785                	li	a5,1
     816:	02f70563          	beq	a4,a5,840 <__stack_size+0x40>
     81a:	fc842783          	lw	a5,-56(s0)
     81e:	cf81                	beqz	a5,836 <__stack_size+0x36>
     820:	fc842703          	lw	a4,-56(s0)
     824:	4789                	li	a5,2
     826:	02f70363          	beq	a4,a5,84c <__stack_size+0x4c>
     82a:	fc842703          	lw	a4,-56(s0)
     82e:	478d                	li	a5,3
     830:	02f70463          	beq	a4,a5,858 <__stack_size+0x58>
     834:	a80d                	j	866 <__stack_size+0x66>
D:/projects/mechanical_arm/Firmware/CarMainControl/libraries/zf_driver/zf_driver_spi.c:112

    switch(mode)
    {
        case SPI_MODE0:
        {
            SPI_InitStructure.SPI_CPOL = SPI_CPOL_Low;                      // 串行同步时钟的空闲状态为低电平
     836:	fe041123          	sh	zero,-30(s0)
D:/projects/mechanical_arm/Firmware/CarMainControl/libraries/zf_driver/zf_driver_spi.c:113
            SPI_InitStructure.SPI_CPHA = SPI_CPHA_1Edge;                    // 串行同步时钟的第一个跳变沿（上升或下降）数据被采样
     83a:	fe041223          	sh	zero,-28(s0)
D:/projects/mechanical_arm/Firmware/CarMainControl/libraries/zf_driver/zf_driver_spi.c:114
        }break;
     83e:	a025                	j	866 <__stack_size+0x66>
D:/projects/mechanical_arm/Firmware/CarMainControl/libraries/zf_driver/zf_driver_spi.c:117
        case SPI_MODE1:
        {
            SPI_InitStructure.SPI_CPOL = SPI_CPOL_Low;                      // 串行同步时钟的空闲状态为低电平
     840:	fe041123          	sh	zero,-30(s0)
D:/projects/mechanical_arm/Firmware/CarMainControl/libraries/zf_driver/zf_driver_spi.c:118
            SPI_InitStructure.SPI_CPHA = SPI_CPHA_2Edge;                    // 串行同步时钟的第二个跳变沿（上升或下降）数据被采样
     844:	4785                	li	a5,1
     846:	fef41223          	sh	a5,-28(s0)
D:/projects/mechanical_arm/Firmware/CarMainControl/libraries/zf_driver/zf_driver_spi.c:119
        }break;
     84a:	a831                	j	866 <__stack_size+0x66>
D:/projects/mechanical_arm/Firmware/CarMainControl/libraries/zf_driver/zf_driver_spi.c:122
        case SPI_MODE2:
        {
            SPI_InitStructure.SPI_CPOL = SPI_CPOL_High;                     // 串行同步时钟的空闲状态为高电平
     84c:	4789                	li	a5,2
     84e:	fef41123          	sh	a5,-30(s0)
D:/projects/mechanical_arm/Firmware/CarMainControl/libraries/zf_driver/zf_driver_spi.c:123
            SPI_InitStructure.SPI_CPHA = SPI_CPHA_1Edge;                    // 串行同步时钟的第一个跳变沿（上升或下降）数据被采样
     852:	fe041223          	sh	zero,-28(s0)
D:/projects/mechanical_arm/Firmware/CarMainControl/libraries/zf_driver/zf_driver_spi.c:124
        }break;
     856:	a801                	j	866 <__stack_size+0x66>
D:/projects/mechanical_arm/Firmware/CarMainControl/libraries/zf_driver/zf_driver_spi.c:127
        case SPI_MODE3:
        {
            SPI_InitStructure.SPI_CPOL = SPI_CPOL_High;                     // 串行同步时钟的空闲状态为高电平
     858:	4789                	li	a5,2
     85a:	fef41123          	sh	a5,-30(s0)
D:/projects/mechanical_arm/Firmware/CarMainControl/libraries/zf_driver/zf_driver_spi.c:128
            SPI_InitStructure.SPI_CPHA = SPI_CPHA_2Edge;                    // 串行同步时钟的第二个跳变沿（上升或下降）数据被采样
     85e:	4785                	li	a5,1
     860:	fef41223          	sh	a5,-28(s0)
D:/projects/mechanical_arm/Firmware/CarMainControl/libraries/zf_driver/zf_driver_spi.c:129
        }break;
     864:	0001                	nop
D:/projects/mechanical_arm/Firmware/CarMainControl/libraries/zf_driver/zf_driver_spi.c:132
    }

    psc = system_clock / baud;                                              // 计算分频值
     866:	8541a703          	lw	a4,-1964(gp) # 20000274 <system_clock>
     86a:	fc442783          	lw	a5,-60(s0)
     86e:	02f757b3          	divu	a5,a4,a5
     872:	fef41723          	sh	a5,-18(s0)
D:/projects/mechanical_arm/Firmware/CarMainControl/libraries/zf_driver/zf_driver_spi.c:133
         if(psc >= 256) psc = SPI_BaudRatePrescaler_256;                    // 计算最佳分频值
     876:	fee45703          	lhu	a4,-18(s0)
     87a:	0ff00793          	li	a5,255
     87e:	00e7f763          	bgeu	a5,a4,88c <__stack_size+0x8c>
D:/projects/mechanical_arm/Firmware/CarMainControl/libraries/zf_driver/zf_driver_spi.c:133 (discriminator 1)
     882:	03800793          	li	a5,56
     886:	fef41723          	sh	a5,-18(s0)
     88a:	a861                	j	922 <__stack_size+0x122>
D:/projects/mechanical_arm/Firmware/CarMainControl/libraries/zf_driver/zf_driver_spi.c:134
    else if(psc >= 128) psc = SPI_BaudRatePrescaler_128;
     88c:	fee45703          	lhu	a4,-18(s0)
     890:	07f00793          	li	a5,127
     894:	00e7f763          	bgeu	a5,a4,8a2 <__stack_size+0xa2>
D:/projects/mechanical_arm/Firmware/CarMainControl/libraries/zf_driver/zf_driver_spi.c:134 (discriminator 1)
     898:	03000793          	li	a5,48
     89c:	fef41723          	sh	a5,-18(s0)
     8a0:	a049                	j	922 <__stack_size+0x122>
D:/projects/mechanical_arm/Firmware/CarMainControl/libraries/zf_driver/zf_driver_spi.c:135
    else if(psc >= 64)  psc = SPI_BaudRatePrescaler_64;
     8a2:	fee45703          	lhu	a4,-18(s0)
     8a6:	03f00793          	li	a5,63
     8aa:	00e7f763          	bgeu	a5,a4,8b8 <__stack_size+0xb8>
D:/projects/mechanical_arm/Firmware/CarMainControl/libraries/zf_driver/zf_driver_spi.c:135 (discriminator 1)
     8ae:	02800793          	li	a5,40
     8b2:	fef41723          	sh	a5,-18(s0)
     8b6:	a0b5                	j	922 <__stack_size+0x122>
D:/projects/mechanical_arm/Firmware/CarMainControl/libraries/zf_driver/zf_driver_spi.c:136
    else if(psc >= 32)  psc = SPI_BaudRatePrescaler_32;
     8b8:	fee45703          	lhu	a4,-18(s0)
     8bc:	47fd                	li	a5,31
     8be:	00e7f763          	bgeu	a5,a4,8cc <__stack_size+0xcc>
D:/projects/mechanical_arm/Firmware/CarMainControl/libraries/zf_driver/zf_driver_spi.c:136 (discriminator 1)
     8c2:	02000793          	li	a5,32
     8c6:	fef41723          	sh	a5,-18(s0)
     8ca:	a8a1                	j	922 <__stack_size+0x122>
D:/projects/mechanical_arm/Firmware/CarMainControl/libraries/zf_driver/zf_driver_spi.c:137
    else if(psc >= 16)  psc = SPI_BaudRatePrescaler_16;
     8cc:	fee45703          	lhu	a4,-18(s0)
     8d0:	47bd                	li	a5,15
     8d2:	00e7f663          	bgeu	a5,a4,8de <__stack_size+0xde>
D:/projects/mechanical_arm/Firmware/CarMainControl/libraries/zf_driver/zf_driver_spi.c:137 (discriminator 1)
     8d6:	47e1                	li	a5,24
     8d8:	fef41723          	sh	a5,-18(s0)
     8dc:	a099                	j	922 <__stack_size+0x122>
D:/projects/mechanical_arm/Firmware/CarMainControl/libraries/zf_driver/zf_driver_spi.c:138
    else if(psc >= 8)   psc = SPI_BaudRatePrescaler_8;
     8de:	fee45703          	lhu	a4,-18(s0)
     8e2:	479d                	li	a5,7
     8e4:	00e7f663          	bgeu	a5,a4,8f0 <__stack_size+0xf0>
D:/projects/mechanical_arm/Firmware/CarMainControl/libraries/zf_driver/zf_driver_spi.c:138 (discriminator 1)
     8e8:	47c1                	li	a5,16
     8ea:	fef41723          	sh	a5,-18(s0)
     8ee:	a815                	j	922 <__stack_size+0x122>
D:/projects/mechanical_arm/Firmware/CarMainControl/libraries/zf_driver/zf_driver_spi.c:139
    else if(psc >= 4)   psc = SPI_BaudRatePrescaler_4;
     8f0:	fee45703          	lhu	a4,-18(s0)
     8f4:	478d                	li	a5,3
     8f6:	00e7f663          	bgeu	a5,a4,902 <__stack_size+0x102>
D:/projects/mechanical_arm/Firmware/CarMainControl/libraries/zf_driver/zf_driver_spi.c:139 (discriminator 1)
     8fa:	47a1                	li	a5,8
     8fc:	fef41723          	sh	a5,-18(s0)
     900:	a00d                	j	922 <__stack_size+0x122>
D:/projects/mechanical_arm/Firmware/CarMainControl/libraries/zf_driver/zf_driver_spi.c:140
    else if(psc >= 2)   psc = SPI_BaudRatePrescaler_2;
     902:	fee45703          	lhu	a4,-18(s0)
     906:	4785                	li	a5,1
     908:	00e7f563          	bgeu	a5,a4,912 <__stack_size+0x112>
D:/projects/mechanical_arm/Firmware/CarMainControl/libraries/zf_driver/zf_driver_spi.c:140 (discriminator 1)
     90c:	fe041723          	sh	zero,-18(s0)
     910:	a809                	j	922 <__stack_size+0x122>
D:/projects/mechanical_arm/Firmware/CarMainControl/libraries/zf_driver/zf_driver_spi.c:141
    else zf_assert(0);
     912:	08d00613          	li	a2,141
     916:	67a5                	lui	a5,0x9
     918:	73878593          	addi	a1,a5,1848 # 9738 <_sbrk+0x20>
     91c:	4501                	li	a0,0
     91e:	005010ef          	jal	ra,2122 <debug_assert_handler>
D:/projects/mechanical_arm/Firmware/CarMainControl/libraries/zf_driver/zf_driver_spi.c:142
    SPI_InitStructure.SPI_BaudRatePrescaler = psc;                          // 定义波特率预分频的值
     922:	fee45783          	lhu	a5,-18(s0)
     926:	fef41423          	sh	a5,-24(s0)
D:/projects/mechanical_arm/Firmware/CarMainControl/libraries/zf_driver/zf_driver_spi.c:143
    SPI_InitStructure.SPI_NSS = SPI_NSS_Soft;                               // 主机模式，使用软件控制NSS引脚
     92a:	20000793          	li	a5,512
     92e:	fef41323          	sh	a5,-26(s0)
D:/projects/mechanical_arm/Firmware/CarMainControl/libraries/zf_driver/zf_driver_spi.c:144
    SPI_InitStructure.SPI_FirstBit = SPI_FirstBit_MSB;                      // 指定数据传输从MSB位还是LSB位开始:数据传输从MSB位开始
     932:	fe041523          	sh	zero,-22(s0)
D:/projects/mechanical_arm/Firmware/CarMainControl/libraries/zf_driver/zf_driver_spi.c:145
    SPI_InitStructure.SPI_CRCPolynomial = 7;                                // CRC值计算的多项式
     936:	479d                	li	a5,7
     938:	fef41623          	sh	a5,-20(s0)
D:/projects/mechanical_arm/Firmware/CarMainControl/libraries/zf_driver/zf_driver_spi.c:146
    SPI_Init((SPI_TypeDef *)(spi_index[spi_n]), &SPI_InitStructure);        // 根据SPI_InitStruct中指定的参数初始化外设SPIx寄存器
     93c:	67a9                	lui	a5,0xa
     93e:	fcc42703          	lw	a4,-52(s0)
     942:	070a                	slli	a4,a4,0x2
     944:	8a878793          	addi	a5,a5,-1880 # 98a8 <spi_index>
     948:	97ba                	add	a5,a5,a4
     94a:	439c                	lw	a5,0(a5)
     94c:	873e                	mv	a4,a5
     94e:	fdc40793          	addi	a5,s0,-36
     952:	85be                	mv	a1,a5
     954:	853a                	mv	a0,a4
     956:	4eb020ef          	jal	ra,3640 <SPI_Init>
D:/projects/mechanical_arm/Firmware/CarMainControl/libraries/zf_driver/zf_driver_spi.c:149


    SPI_Cmd(((SPI_TypeDef *)(spi_index[spi_n])), ENABLE);                   // 使能SPI外设
     95a:	67a9                	lui	a5,0xa
     95c:	fcc42703          	lw	a4,-52(s0)
     960:	070a                	slli	a4,a4,0x2
     962:	8a878793          	addi	a5,a5,-1880 # 98a8 <spi_index>
     966:	97ba                	add	a5,a5,a4
     968:	439c                	lw	a5,0(a5)
     96a:	4585                	li	a1,1
     96c:	853e                	mv	a0,a5
     96e:	5cb020ef          	jal	ra,3738 <SPI_Cmd>
D:/projects/mechanical_arm/Firmware/CarMainControl/libraries/zf_driver/zf_driver_spi.c:150
}
     972:	0001                	nop
     974:	40b6                	lw	ra,76(sp)
     976:	4426                	lw	s0,72(sp)
     978:	6161                	addi	sp,sp,80
     97a:	8082                	ret

0000097c <spi_write_8bit>:
spi_write_8bit():
D:/projects/mechanical_arm/Firmware/CarMainControl/libraries/zf_driver/zf_driver_spi.c:161
// @param       data            数据
// @return      void
// Sample usage:                spi_write_8bit(SPI_1,0x11);
//-------------------------------------------------------------------------------------------------------------------
void spi_write_8bit (spi_index_enum spi_n, uint8 dat)
{
     97c:	1101                	addi	sp,sp,-32
     97e:	ce22                	sw	s0,28(sp)
     980:	1000                	addi	s0,sp,32
     982:	fea42623          	sw	a0,-20(s0)
     986:	87ae                	mv	a5,a1
     988:	fef405a3          	sb	a5,-21(s0)
D:/projects/mechanical_arm/Firmware/CarMainControl/libraries/zf_driver/zf_driver_spi.c:162
    ((SPI_TypeDef *)(spi_index[spi_n]))->DATAR = dat;                                  // 发送数据
     98c:	67a9                	lui	a5,0xa
     98e:	fec42703          	lw	a4,-20(s0)
     992:	070a                	slli	a4,a4,0x2
     994:	8a878793          	addi	a5,a5,-1880 # 98a8 <spi_index>
     998:	97ba                	add	a5,a5,a4
     99a:	439c                	lw	a5,0(a5)
     99c:	873e                	mv	a4,a5
     99e:	feb44783          	lbu	a5,-21(s0)
     9a2:	07c2                	slli	a5,a5,0x10
     9a4:	83c1                	srli	a5,a5,0x10
     9a6:	00f71623          	sh	a5,12(a4)
D:/projects/mechanical_arm/Firmware/CarMainControl/libraries/zf_driver/zf_driver_spi.c:163
    while((((SPI_TypeDef *)(spi_index[spi_n]))->STATR & SPI_I2S_FLAG_BSY) != RESET);    // 发送为空
     9aa:	0001                	nop
D:/projects/mechanical_arm/Firmware/CarMainControl/libraries/zf_driver/zf_driver_spi.c:163 (discriminator 1)
     9ac:	67a9                	lui	a5,0xa
     9ae:	fec42703          	lw	a4,-20(s0)
     9b2:	070a                	slli	a4,a4,0x2
     9b4:	8a878793          	addi	a5,a5,-1880 # 98a8 <spi_index>
     9b8:	97ba                	add	a5,a5,a4
     9ba:	439c                	lw	a5,0(a5)
     9bc:	0087d783          	lhu	a5,8(a5)
     9c0:	07c2                	slli	a5,a5,0x10
     9c2:	83c1                	srli	a5,a5,0x10
     9c4:	0807f793          	andi	a5,a5,128
     9c8:	f3f5                	bnez	a5,9ac <spi_write_8bit+0x30>
D:/projects/mechanical_arm/Firmware/CarMainControl/libraries/zf_driver/zf_driver_spi.c:164
}
     9ca:	0001                	nop
     9cc:	4472                	lw	s0,28(sp)
     9ce:	6105                	addi	sp,sp,32
     9d0:	8082                	ret

000009d2 <spi_write_16bit>:
spi_write_16bit():
D:/projects/mechanical_arm/Firmware/CarMainControl/libraries/zf_driver/zf_driver_spi.c:191
// @param       data            数据
// @return      void
// Sample usage:                spi_write_16bit(SPI_1,0x1101);
//-------------------------------------------------------------------------------------------------------------------
void spi_write_16bit (spi_index_enum spi_n, uint16 dat)
{
     9d2:	1101                	addi	sp,sp,-32
     9d4:	ce22                	sw	s0,28(sp)
     9d6:	1000                	addi	s0,sp,32
     9d8:	fea42623          	sw	a0,-20(s0)
     9dc:	87ae                	mv	a5,a1
     9de:	fef41523          	sh	a5,-22(s0)
D:/projects/mechanical_arm/Firmware/CarMainControl/libraries/zf_driver/zf_driver_spi.c:192
    ((SPI_TypeDef *)(spi_index[spi_n]))->DATAR = (uint8)((dat & 0xFF00)>>8);
     9e2:	fea45783          	lhu	a5,-22(s0)
     9e6:	83a1                	srli	a5,a5,0x8
     9e8:	07c2                	slli	a5,a5,0x10
     9ea:	83c1                	srli	a5,a5,0x10
     9ec:	0ff7f693          	andi	a3,a5,255
     9f0:	67a9                	lui	a5,0xa
     9f2:	fec42703          	lw	a4,-20(s0)
     9f6:	070a                	slli	a4,a4,0x2
     9f8:	8a878793          	addi	a5,a5,-1880 # 98a8 <spi_index>
     9fc:	97ba                	add	a5,a5,a4
     9fe:	439c                	lw	a5,0(a5)
     a00:	873e                	mv	a4,a5
     a02:	01069793          	slli	a5,a3,0x10
     a06:	83c1                	srli	a5,a5,0x10
     a08:	00f71623          	sh	a5,12(a4)
D:/projects/mechanical_arm/Firmware/CarMainControl/libraries/zf_driver/zf_driver_spi.c:193
    while((((SPI_TypeDef *)(spi_index[spi_n]))->STATR & SPI_I2S_FLAG_BSY) != RESET);
     a0c:	0001                	nop
D:/projects/mechanical_arm/Firmware/CarMainControl/libraries/zf_driver/zf_driver_spi.c:193 (discriminator 1)
     a0e:	67a9                	lui	a5,0xa
     a10:	fec42703          	lw	a4,-20(s0)
     a14:	070a                	slli	a4,a4,0x2
     a16:	8a878793          	addi	a5,a5,-1880 # 98a8 <spi_index>
     a1a:	97ba                	add	a5,a5,a4
     a1c:	439c                	lw	a5,0(a5)
     a1e:	0087d783          	lhu	a5,8(a5)
     a22:	07c2                	slli	a5,a5,0x10
     a24:	83c1                	srli	a5,a5,0x10
     a26:	0807f793          	andi	a5,a5,128
     a2a:	f3f5                	bnez	a5,a0e <spi_write_16bit+0x3c>
D:/projects/mechanical_arm/Firmware/CarMainControl/libraries/zf_driver/zf_driver_spi.c:195

    ((SPI_TypeDef *)(spi_index[spi_n]))->DATAR = (uint8)(dat & 0x00FF);
     a2c:	fea45783          	lhu	a5,-22(s0)
     a30:	0ff7f693          	andi	a3,a5,255
     a34:	67a9                	lui	a5,0xa
     a36:	fec42703          	lw	a4,-20(s0)
     a3a:	070a                	slli	a4,a4,0x2
     a3c:	8a878793          	addi	a5,a5,-1880 # 98a8 <spi_index>
     a40:	97ba                	add	a5,a5,a4
     a42:	439c                	lw	a5,0(a5)
     a44:	873e                	mv	a4,a5
     a46:	01069793          	slli	a5,a3,0x10
     a4a:	83c1                	srli	a5,a5,0x10
     a4c:	00f71623          	sh	a5,12(a4)
D:/projects/mechanical_arm/Firmware/CarMainControl/libraries/zf_driver/zf_driver_spi.c:196
    while((((SPI_TypeDef *)(spi_index[spi_n]))->STATR & SPI_I2S_FLAG_BSY) != RESET);
     a50:	0001                	nop
D:/projects/mechanical_arm/Firmware/CarMainControl/libraries/zf_driver/zf_driver_spi.c:196 (discriminator 1)
     a52:	67a9                	lui	a5,0xa
     a54:	fec42703          	lw	a4,-20(s0)
     a58:	070a                	slli	a4,a4,0x2
     a5a:	8a878793          	addi	a5,a5,-1880 # 98a8 <spi_index>
     a5e:	97ba                	add	a5,a5,a4
     a60:	439c                	lw	a5,0(a5)
     a62:	0087d783          	lhu	a5,8(a5)
     a66:	07c2                	slli	a5,a5,0x10
     a68:	83c1                	srli	a5,a5,0x10
     a6a:	0807f793          	andi	a5,a5,128
     a6e:	f3f5                	bnez	a5,a52 <spi_write_16bit+0x80>
D:/projects/mechanical_arm/Firmware/CarMainControl/libraries/zf_driver/zf_driver_spi.c:197
}
     a70:	0001                	nop
     a72:	4472                	lw	s0,28(sp)
     a74:	6105                	addi	sp,sp,32
     a76:	8082                	ret

00000a78 <uart_gpio_init>:
uart_gpio_init():
D:/projects/mechanical_arm/Firmware/CarMainControl/libraries/zf_driver/zf_driver_uart.c:40
//  @param      rx_pin      串口接收引脚号
//  @return     void
//  Sample usage:           内部使用，用户无需关心
//-------------------------------------------------------------------------------------------------------------------
void uart_gpio_init(uart_pin_enum tx_pin, uart_pin_enum rx_pin)
{
     a78:	1101                	addi	sp,sp,-32
     a7a:	ce06                	sw	ra,28(sp)
     a7c:	cc22                	sw	s0,24(sp)
     a7e:	1000                	addi	s0,sp,32
     a80:	fea42623          	sw	a0,-20(s0)
     a84:	feb42423          	sw	a1,-24(s0)
D:/projects/mechanical_arm/Firmware/CarMainControl/libraries/zf_driver/zf_driver_uart.c:41
    if     (tx_pin == UART1_TX_A9 )     gpio_init(A9,  GPO, 0, GPO_AF_PUSH_PULL);
     a88:	fec42783          	lw	a5,-20(s0)
     a8c:	e799                	bnez	a5,a9a <uart_gpio_init+0x22>
D:/projects/mechanical_arm/Firmware/CarMainControl/libraries/zf_driver/zf_driver_uart.c:41 (discriminator 1)
     a8e:	46e1                	li	a3,24
     a90:	4601                	li	a2,0
     a92:	4585                	li	a1,1
     a94:	4525                	li	a0,9
     a96:	30e5                	jal	37e <gpio_init>
     a98:	aac9                	j	c6a <uart_gpio_init+0x1f2>
D:/projects/mechanical_arm/Firmware/CarMainControl/libraries/zf_driver/zf_driver_uart.c:42
    else if(tx_pin == UART1_TX_B6 )     gpio_init(B6,  GPO, 0, GPO_AF_PUSH_PULL);
     a9a:	fec42703          	lw	a4,-20(s0)
     a9e:	4789                	li	a5,2
     aa0:	00f71a63          	bne	a4,a5,ab4 <uart_gpio_init+0x3c>
D:/projects/mechanical_arm/Firmware/CarMainControl/libraries/zf_driver/zf_driver_uart.c:42 (discriminator 1)
     aa4:	46e1                	li	a3,24
     aa6:	4601                	li	a2,0
     aa8:	4585                	li	a1,1
     aaa:	02600513          	li	a0,38
     aae:	8d1ff0ef          	jal	ra,37e <gpio_init>
     ab2:	aa65                	j	c6a <uart_gpio_init+0x1f2>
D:/projects/mechanical_arm/Firmware/CarMainControl/libraries/zf_driver/zf_driver_uart.c:43
    else if(tx_pin == UART2_TX_A2 )     gpio_init(A2,  GPO, 0, GPO_AF_PUSH_PULL);
     ab4:	fec42703          	lw	a4,-20(s0)
     ab8:	47c1                	li	a5,16
     aba:	00f71963          	bne	a4,a5,acc <uart_gpio_init+0x54>
D:/projects/mechanical_arm/Firmware/CarMainControl/libraries/zf_driver/zf_driver_uart.c:43 (discriminator 1)
     abe:	46e1                	li	a3,24
     ac0:	4601                	li	a2,0
     ac2:	4585                	li	a1,1
     ac4:	4509                	li	a0,2
     ac6:	8b9ff0ef          	jal	ra,37e <gpio_init>
     aca:	a245                	j	c6a <uart_gpio_init+0x1f2>
D:/projects/mechanical_arm/Firmware/CarMainControl/libraries/zf_driver/zf_driver_uart.c:44
    else if(tx_pin == UART2_TX_D5 )     gpio_init(D5,  GPO, 0, GPO_AF_PUSH_PULL);
     acc:	fec42703          	lw	a4,-20(s0)
     ad0:	47c9                	li	a5,18
     ad2:	00f71a63          	bne	a4,a5,ae6 <uart_gpio_init+0x6e>
D:/projects/mechanical_arm/Firmware/CarMainControl/libraries/zf_driver/zf_driver_uart.c:44 (discriminator 1)
     ad6:	46e1                	li	a3,24
     ad8:	4601                	li	a2,0
     ada:	4585                	li	a1,1
     adc:	06500513          	li	a0,101
     ae0:	89fff0ef          	jal	ra,37e <gpio_init>
     ae4:	a259                	j	c6a <uart_gpio_init+0x1f2>
D:/projects/mechanical_arm/Firmware/CarMainControl/libraries/zf_driver/zf_driver_uart.c:45
    else if(tx_pin == UART3_TX_B10)     gpio_init(B10, GPO, 0, GPO_AF_PUSH_PULL);
     ae6:	fec42703          	lw	a4,-20(s0)
     aea:	02000793          	li	a5,32
     aee:	00f71a63          	bne	a4,a5,b02 <uart_gpio_init+0x8a>
D:/projects/mechanical_arm/Firmware/CarMainControl/libraries/zf_driver/zf_driver_uart.c:45 (discriminator 1)
     af2:	46e1                	li	a3,24
     af4:	4601                	li	a2,0
     af6:	4585                	li	a1,1
     af8:	02a00513          	li	a0,42
     afc:	883ff0ef          	jal	ra,37e <gpio_init>
     b00:	a2ad                	j	c6a <uart_gpio_init+0x1f2>
D:/projects/mechanical_arm/Firmware/CarMainControl/libraries/zf_driver/zf_driver_uart.c:46
    else if(tx_pin == UART3_TX_C10)     gpio_init(C10, GPO, 0, GPO_AF_PUSH_PULL);
     b02:	fec42703          	lw	a4,-20(s0)
     b06:	02200793          	li	a5,34
     b0a:	00f71a63          	bne	a4,a5,b1e <uart_gpio_init+0xa6>
D:/projects/mechanical_arm/Firmware/CarMainControl/libraries/zf_driver/zf_driver_uart.c:46 (discriminator 1)
     b0e:	46e1                	li	a3,24
     b10:	4601                	li	a2,0
     b12:	4585                	li	a1,1
     b14:	04a00513          	li	a0,74
     b18:	867ff0ef          	jal	ra,37e <gpio_init>
     b1c:	a2b9                	j	c6a <uart_gpio_init+0x1f2>
D:/projects/mechanical_arm/Firmware/CarMainControl/libraries/zf_driver/zf_driver_uart.c:47
    else if(tx_pin == UART3_TX_D8 )     gpio_init(D8,  GPO, 0, GPO_AF_PUSH_PULL);
     b1e:	fec42703          	lw	a4,-20(s0)
     b22:	02400793          	li	a5,36
     b26:	00f71a63          	bne	a4,a5,b3a <uart_gpio_init+0xc2>
D:/projects/mechanical_arm/Firmware/CarMainControl/libraries/zf_driver/zf_driver_uart.c:47 (discriminator 1)
     b2a:	46e1                	li	a3,24
     b2c:	4601                	li	a2,0
     b2e:	4585                	li	a1,1
     b30:	06800513          	li	a0,104
     b34:	84bff0ef          	jal	ra,37e <gpio_init>
     b38:	aa0d                	j	c6a <uart_gpio_init+0x1f2>
D:/projects/mechanical_arm/Firmware/CarMainControl/libraries/zf_driver/zf_driver_uart.c:48
    else if(tx_pin == UART4_TX_C10)     gpio_init(C10, GPO, 0, GPO_AF_PUSH_PULL);
     b3a:	fec42703          	lw	a4,-20(s0)
     b3e:	04000793          	li	a5,64
     b42:	00f71a63          	bne	a4,a5,b56 <uart_gpio_init+0xde>
D:/projects/mechanical_arm/Firmware/CarMainControl/libraries/zf_driver/zf_driver_uart.c:48 (discriminator 1)
     b46:	46e1                	li	a3,24
     b48:	4601                	li	a2,0
     b4a:	4585                	li	a1,1
     b4c:	04a00513          	li	a0,74
     b50:	82fff0ef          	jal	ra,37e <gpio_init>
     b54:	aa19                	j	c6a <uart_gpio_init+0x1f2>
D:/projects/mechanical_arm/Firmware/CarMainControl/libraries/zf_driver/zf_driver_uart.c:49
    else if(tx_pin == UART4_TX_B0)      gpio_init(B0, GPO, 0, GPO_AF_PUSH_PULL);
     b56:	fec42703          	lw	a4,-20(s0)
     b5a:	04200793          	li	a5,66
     b5e:	00f71a63          	bne	a4,a5,b72 <uart_gpio_init+0xfa>
D:/projects/mechanical_arm/Firmware/CarMainControl/libraries/zf_driver/zf_driver_uart.c:49 (discriminator 1)
     b62:	46e1                	li	a3,24
     b64:	4601                	li	a2,0
     b66:	4585                	li	a1,1
     b68:	02000513          	li	a0,32
     b6c:	813ff0ef          	jal	ra,37e <gpio_init>
     b70:	a8ed                	j	c6a <uart_gpio_init+0x1f2>
D:/projects/mechanical_arm/Firmware/CarMainControl/libraries/zf_driver/zf_driver_uart.c:50
    else if(tx_pin == UART5_TX_C12)     gpio_init(C12, GPO, 0, GPO_AF_PUSH_PULL);
     b72:	fec42703          	lw	a4,-20(s0)
     b76:	05000793          	li	a5,80
     b7a:	00f71a63          	bne	a4,a5,b8e <uart_gpio_init+0x116>
D:/projects/mechanical_arm/Firmware/CarMainControl/libraries/zf_driver/zf_driver_uart.c:50 (discriminator 1)
     b7e:	46e1                	li	a3,24
     b80:	4601                	li	a2,0
     b82:	4585                	li	a1,1
     b84:	04c00513          	li	a0,76
     b88:	ff6ff0ef          	jal	ra,37e <gpio_init>
     b8c:	a8f9                	j	c6a <uart_gpio_init+0x1f2>
D:/projects/mechanical_arm/Firmware/CarMainControl/libraries/zf_driver/zf_driver_uart.c:51
    else if(tx_pin == UART5_TX_E8)      gpio_init(E8, GPO, 0, GPO_AF_PUSH_PULL);
     b8e:	fec42703          	lw	a4,-20(s0)
     b92:	05200793          	li	a5,82
     b96:	00f71a63          	bne	a4,a5,baa <uart_gpio_init+0x132>
D:/projects/mechanical_arm/Firmware/CarMainControl/libraries/zf_driver/zf_driver_uart.c:51 (discriminator 1)
     b9a:	46e1                	li	a3,24
     b9c:	4601                	li	a2,0
     b9e:	4585                	li	a1,1
     ba0:	08800513          	li	a0,136
     ba4:	fdaff0ef          	jal	ra,37e <gpio_init>
     ba8:	a0c9                	j	c6a <uart_gpio_init+0x1f2>
D:/projects/mechanical_arm/Firmware/CarMainControl/libraries/zf_driver/zf_driver_uart.c:52
    else if(tx_pin == UART6_TX_C0 )     gpio_init(C0,  GPO, 0, GPO_AF_PUSH_PULL);
     baa:	fec42703          	lw	a4,-20(s0)
     bae:	06000793          	li	a5,96
     bb2:	00f71a63          	bne	a4,a5,bc6 <uart_gpio_init+0x14e>
D:/projects/mechanical_arm/Firmware/CarMainControl/libraries/zf_driver/zf_driver_uart.c:52 (discriminator 1)
     bb6:	46e1                	li	a3,24
     bb8:	4601                	li	a2,0
     bba:	4585                	li	a1,1
     bbc:	04000513          	li	a0,64
     bc0:	fbeff0ef          	jal	ra,37e <gpio_init>
     bc4:	a05d                	j	c6a <uart_gpio_init+0x1f2>
D:/projects/mechanical_arm/Firmware/CarMainControl/libraries/zf_driver/zf_driver_uart.c:53
    else if(tx_pin == UART6_TX_E10 )    gpio_init(C0,  GPO, 0, GPO_AF_PUSH_PULL);
     bc6:	fec42703          	lw	a4,-20(s0)
     bca:	06200793          	li	a5,98
     bce:	00f71a63          	bne	a4,a5,be2 <uart_gpio_init+0x16a>
D:/projects/mechanical_arm/Firmware/CarMainControl/libraries/zf_driver/zf_driver_uart.c:53 (discriminator 1)
     bd2:	46e1                	li	a3,24
     bd4:	4601                	li	a2,0
     bd6:	4585                	li	a1,1
     bd8:	04000513          	li	a0,64
     bdc:	fa2ff0ef          	jal	ra,37e <gpio_init>
     be0:	a069                	j	c6a <uart_gpio_init+0x1f2>
D:/projects/mechanical_arm/Firmware/CarMainControl/libraries/zf_driver/zf_driver_uart.c:54
    else if(tx_pin == UART7_TX_C2 )     gpio_init(C2,  GPO, 0, GPO_AF_PUSH_PULL);
     be2:	fec42703          	lw	a4,-20(s0)
     be6:	07000793          	li	a5,112
     bea:	00f71a63          	bne	a4,a5,bfe <uart_gpio_init+0x186>
D:/projects/mechanical_arm/Firmware/CarMainControl/libraries/zf_driver/zf_driver_uart.c:54 (discriminator 1)
     bee:	46e1                	li	a3,24
     bf0:	4601                	li	a2,0
     bf2:	4585                	li	a1,1
     bf4:	04200513          	li	a0,66
     bf8:	f86ff0ef          	jal	ra,37e <gpio_init>
     bfc:	a0bd                	j	c6a <uart_gpio_init+0x1f2>
D:/projects/mechanical_arm/Firmware/CarMainControl/libraries/zf_driver/zf_driver_uart.c:55
    else if(tx_pin == UART7_TX_A6 )     gpio_init(A6,  GPO, 0, GPO_AF_PUSH_PULL);
     bfe:	fec42703          	lw	a4,-20(s0)
     c02:	07200793          	li	a5,114
     c06:	00f71963          	bne	a4,a5,c18 <uart_gpio_init+0x1a0>
D:/projects/mechanical_arm/Firmware/CarMainControl/libraries/zf_driver/zf_driver_uart.c:55 (discriminator 1)
     c0a:	46e1                	li	a3,24
     c0c:	4601                	li	a2,0
     c0e:	4585                	li	a1,1
     c10:	4519                	li	a0,6
     c12:	f6cff0ef          	jal	ra,37e <gpio_init>
     c16:	a891                	j	c6a <uart_gpio_init+0x1f2>
D:/projects/mechanical_arm/Firmware/CarMainControl/libraries/zf_driver/zf_driver_uart.c:56
    else if(tx_pin == UART7_TX_E12 )    gpio_init(E12,  GPO, 0, GPO_AF_PUSH_PULL);
     c18:	fec42703          	lw	a4,-20(s0)
     c1c:	07400793          	li	a5,116
     c20:	00f71a63          	bne	a4,a5,c34 <uart_gpio_init+0x1bc>
D:/projects/mechanical_arm/Firmware/CarMainControl/libraries/zf_driver/zf_driver_uart.c:56 (discriminator 1)
     c24:	46e1                	li	a3,24
     c26:	4601                	li	a2,0
     c28:	4585                	li	a1,1
     c2a:	08c00513          	li	a0,140
     c2e:	f50ff0ef          	jal	ra,37e <gpio_init>
     c32:	a825                	j	c6a <uart_gpio_init+0x1f2>
D:/projects/mechanical_arm/Firmware/CarMainControl/libraries/zf_driver/zf_driver_uart.c:57
    else if(tx_pin == UART8_TX_C4 )     gpio_init(C4,  GPO, 0, GPO_AF_PUSH_PULL);
     c34:	fec42703          	lw	a4,-20(s0)
     c38:	08000793          	li	a5,128
     c3c:	00f71a63          	bne	a4,a5,c50 <uart_gpio_init+0x1d8>
D:/projects/mechanical_arm/Firmware/CarMainControl/libraries/zf_driver/zf_driver_uart.c:57 (discriminator 1)
     c40:	46e1                	li	a3,24
     c42:	4601                	li	a2,0
     c44:	4585                	li	a1,1
     c46:	04400513          	li	a0,68
     c4a:	f34ff0ef          	jal	ra,37e <gpio_init>
     c4e:	a831                	j	c6a <uart_gpio_init+0x1f2>
D:/projects/mechanical_arm/Firmware/CarMainControl/libraries/zf_driver/zf_driver_uart.c:58
    else if(tx_pin == UART8_TX_E14 )    gpio_init(E14,  GPO, 0, GPO_AF_PUSH_PULL);
     c50:	fec42703          	lw	a4,-20(s0)
     c54:	08200793          	li	a5,130
     c58:	00f71963          	bne	a4,a5,c6a <uart_gpio_init+0x1f2>
D:/projects/mechanical_arm/Firmware/CarMainControl/libraries/zf_driver/zf_driver_uart.c:58 (discriminator 1)
     c5c:	46e1                	li	a3,24
     c5e:	4601                	li	a2,0
     c60:	4585                	li	a1,1
     c62:	08e00513          	li	a0,142
     c66:	f18ff0ef          	jal	ra,37e <gpio_init>
D:/projects/mechanical_arm/Firmware/CarMainControl/libraries/zf_driver/zf_driver_uart.c:60

    if     (rx_pin == UART1_RX_A10)     gpio_init(A10, GPI, 0, GPI_PULL_UP);
     c6a:	fe842703          	lw	a4,-24(s0)
     c6e:	4785                	li	a5,1
     c70:	00f71a63          	bne	a4,a5,c84 <uart_gpio_init+0x20c>
D:/projects/mechanical_arm/Firmware/CarMainControl/libraries/zf_driver/zf_driver_uart.c:60 (discriminator 1)
     c74:	04800693          	li	a3,72
     c78:	4601                	li	a2,0
     c7a:	4581                	li	a1,0
     c7c:	4529                	li	a0,10
     c7e:	f00ff0ef          	jal	ra,37e <gpio_init>
D:/projects/mechanical_arm/Firmware/CarMainControl/libraries/zf_driver/zf_driver_uart.c:78 (discriminator 1)
    else if(rx_pin == UART7_RX_C3 )     gpio_init(C3,  GPI, 0, GPI_PULL_UP);
    else if(rx_pin == UART7_RX_A7 )     gpio_init(A7,  GPI, 0, GPI_PULL_UP);
    else if(rx_pin == UART7_RX_E13 )    gpio_init(E13,  GPI, 0, GPI_PULL_UP);
    else if(rx_pin == UART8_RX_C5 )     gpio_init(C5,  GPI, 0, GPI_PULL_UP);
    else if(rx_pin == UART8_RX_E15 )    gpio_init(E15,  GPI, 0, GPI_PULL_UP);
}
     c82:	aad5                	j	e76 <uart_gpio_init+0x3fe>
D:/projects/mechanical_arm/Firmware/CarMainControl/libraries/zf_driver/zf_driver_uart.c:61
    else if(rx_pin == UART1_RX_B7 )     gpio_init(B7,  GPI, 0, GPI_PULL_UP);
     c84:	fe842703          	lw	a4,-24(s0)
     c88:	478d                	li	a5,3
     c8a:	00f71b63          	bne	a4,a5,ca0 <uart_gpio_init+0x228>
D:/projects/mechanical_arm/Firmware/CarMainControl/libraries/zf_driver/zf_driver_uart.c:61 (discriminator 1)
     c8e:	04800693          	li	a3,72
     c92:	4601                	li	a2,0
     c94:	4581                	li	a1,0
     c96:	02700513          	li	a0,39
     c9a:	ee4ff0ef          	jal	ra,37e <gpio_init>
D:/projects/mechanical_arm/Firmware/CarMainControl/libraries/zf_driver/zf_driver_uart.c:78 (discriminator 1)
}
     c9e:	aae1                	j	e76 <uart_gpio_init+0x3fe>
D:/projects/mechanical_arm/Firmware/CarMainControl/libraries/zf_driver/zf_driver_uart.c:62
    else if(rx_pin == UART2_RX_A3 )     gpio_init(A3,  GPI, 0, GPI_PULL_UP);
     ca0:	fe842703          	lw	a4,-24(s0)
     ca4:	47c5                	li	a5,17
     ca6:	00f71a63          	bne	a4,a5,cba <uart_gpio_init+0x242>
D:/projects/mechanical_arm/Firmware/CarMainControl/libraries/zf_driver/zf_driver_uart.c:62 (discriminator 1)
     caa:	04800693          	li	a3,72
     cae:	4601                	li	a2,0
     cb0:	4581                	li	a1,0
     cb2:	450d                	li	a0,3
     cb4:	ecaff0ef          	jal	ra,37e <gpio_init>
D:/projects/mechanical_arm/Firmware/CarMainControl/libraries/zf_driver/zf_driver_uart.c:78 (discriminator 1)
}
     cb8:	aa7d                	j	e76 <uart_gpio_init+0x3fe>
D:/projects/mechanical_arm/Firmware/CarMainControl/libraries/zf_driver/zf_driver_uart.c:63
    else if(rx_pin == UART2_RX_D6 )     gpio_init(D6,  GPI, 0, GPI_PULL_UP);
     cba:	fe842703          	lw	a4,-24(s0)
     cbe:	47cd                	li	a5,19
     cc0:	00f71b63          	bne	a4,a5,cd6 <uart_gpio_init+0x25e>
D:/projects/mechanical_arm/Firmware/CarMainControl/libraries/zf_driver/zf_driver_uart.c:63 (discriminator 1)
     cc4:	04800693          	li	a3,72
     cc8:	4601                	li	a2,0
     cca:	4581                	li	a1,0
     ccc:	06600513          	li	a0,102
     cd0:	eaeff0ef          	jal	ra,37e <gpio_init>
D:/projects/mechanical_arm/Firmware/CarMainControl/libraries/zf_driver/zf_driver_uart.c:78 (discriminator 1)
}
     cd4:	a24d                	j	e76 <uart_gpio_init+0x3fe>
D:/projects/mechanical_arm/Firmware/CarMainControl/libraries/zf_driver/zf_driver_uart.c:64
    else if(rx_pin == UART3_RX_B11)     gpio_init(B11, GPI, 0, GPI_PULL_UP);
     cd6:	fe842703          	lw	a4,-24(s0)
     cda:	02100793          	li	a5,33
     cde:	00f71b63          	bne	a4,a5,cf4 <uart_gpio_init+0x27c>
D:/projects/mechanical_arm/Firmware/CarMainControl/libraries/zf_driver/zf_driver_uart.c:64 (discriminator 1)
     ce2:	04800693          	li	a3,72
     ce6:	4601                	li	a2,0
     ce8:	4581                	li	a1,0
     cea:	02b00513          	li	a0,43
     cee:	e90ff0ef          	jal	ra,37e <gpio_init>
D:/projects/mechanical_arm/Firmware/CarMainControl/libraries/zf_driver/zf_driver_uart.c:78 (discriminator 1)
}
     cf2:	a251                	j	e76 <uart_gpio_init+0x3fe>
D:/projects/mechanical_arm/Firmware/CarMainControl/libraries/zf_driver/zf_driver_uart.c:65
    else if(rx_pin == UART3_RX_C11)     gpio_init(C11, GPI, 0, GPI_PULL_UP);
     cf4:	fe842703          	lw	a4,-24(s0)
     cf8:	02300793          	li	a5,35
     cfc:	00f71b63          	bne	a4,a5,d12 <uart_gpio_init+0x29a>
D:/projects/mechanical_arm/Firmware/CarMainControl/libraries/zf_driver/zf_driver_uart.c:65 (discriminator 1)
     d00:	04800693          	li	a3,72
     d04:	4601                	li	a2,0
     d06:	4581                	li	a1,0
     d08:	04b00513          	li	a0,75
     d0c:	e72ff0ef          	jal	ra,37e <gpio_init>
D:/projects/mechanical_arm/Firmware/CarMainControl/libraries/zf_driver/zf_driver_uart.c:78 (discriminator 1)
}
     d10:	a29d                	j	e76 <uart_gpio_init+0x3fe>
D:/projects/mechanical_arm/Firmware/CarMainControl/libraries/zf_driver/zf_driver_uart.c:66
    else if(rx_pin == UART3_RX_D9 )     gpio_init(D9,  GPI, 0, GPI_PULL_UP);
     d12:	fe842703          	lw	a4,-24(s0)
     d16:	02500793          	li	a5,37
     d1a:	00f71b63          	bne	a4,a5,d30 <uart_gpio_init+0x2b8>
D:/projects/mechanical_arm/Firmware/CarMainControl/libraries/zf_driver/zf_driver_uart.c:66 (discriminator 1)
     d1e:	04800693          	li	a3,72
     d22:	4601                	li	a2,0
     d24:	4581                	li	a1,0
     d26:	06900513          	li	a0,105
     d2a:	e54ff0ef          	jal	ra,37e <gpio_init>
D:/projects/mechanical_arm/Firmware/CarMainControl/libraries/zf_driver/zf_driver_uart.c:78 (discriminator 1)
}
     d2e:	a2a1                	j	e76 <uart_gpio_init+0x3fe>
D:/projects/mechanical_arm/Firmware/CarMainControl/libraries/zf_driver/zf_driver_uart.c:67
    else if(rx_pin == UART4_RX_C11)     gpio_init(C11, GPI, 0, GPI_PULL_UP);
     d30:	fe842703          	lw	a4,-24(s0)
     d34:	04100793          	li	a5,65
     d38:	00f71b63          	bne	a4,a5,d4e <uart_gpio_init+0x2d6>
D:/projects/mechanical_arm/Firmware/CarMainControl/libraries/zf_driver/zf_driver_uart.c:67 (discriminator 1)
     d3c:	04800693          	li	a3,72
     d40:	4601                	li	a2,0
     d42:	4581                	li	a1,0
     d44:	04b00513          	li	a0,75
     d48:	e36ff0ef          	jal	ra,37e <gpio_init>
D:/projects/mechanical_arm/Firmware/CarMainControl/libraries/zf_driver/zf_driver_uart.c:78 (discriminator 1)
}
     d4c:	a22d                	j	e76 <uart_gpio_init+0x3fe>
D:/projects/mechanical_arm/Firmware/CarMainControl/libraries/zf_driver/zf_driver_uart.c:68
    else if(rx_pin == UART4_RX_B1)      gpio_init(B1, GPI, 0, GPI_PULL_UP);
     d4e:	fe842703          	lw	a4,-24(s0)
     d52:	04300793          	li	a5,67
     d56:	00f71b63          	bne	a4,a5,d6c <uart_gpio_init+0x2f4>
D:/projects/mechanical_arm/Firmware/CarMainControl/libraries/zf_driver/zf_driver_uart.c:68 (discriminator 1)
     d5a:	04800693          	li	a3,72
     d5e:	4601                	li	a2,0
     d60:	4581                	li	a1,0
     d62:	02100513          	li	a0,33
     d66:	e18ff0ef          	jal	ra,37e <gpio_init>
D:/projects/mechanical_arm/Firmware/CarMainControl/libraries/zf_driver/zf_driver_uart.c:78 (discriminator 1)
}
     d6a:	a231                	j	e76 <uart_gpio_init+0x3fe>
D:/projects/mechanical_arm/Firmware/CarMainControl/libraries/zf_driver/zf_driver_uart.c:69
    else if(rx_pin == UART5_RX_D2 )     gpio_init(D2,  GPI, 0, GPI_PULL_UP);
     d6c:	fe842703          	lw	a4,-24(s0)
     d70:	05100793          	li	a5,81
     d74:	00f71b63          	bne	a4,a5,d8a <uart_gpio_init+0x312>
D:/projects/mechanical_arm/Firmware/CarMainControl/libraries/zf_driver/zf_driver_uart.c:69 (discriminator 1)
     d78:	04800693          	li	a3,72
     d7c:	4601                	li	a2,0
     d7e:	4581                	li	a1,0
     d80:	06200513          	li	a0,98
     d84:	dfaff0ef          	jal	ra,37e <gpio_init>
D:/projects/mechanical_arm/Firmware/CarMainControl/libraries/zf_driver/zf_driver_uart.c:78 (discriminator 1)
}
     d88:	a0fd                	j	e76 <uart_gpio_init+0x3fe>
D:/projects/mechanical_arm/Firmware/CarMainControl/libraries/zf_driver/zf_driver_uart.c:70
    else if(rx_pin == UART5_RX_E9 )     gpio_init(E9,  GPI, 0, GPI_PULL_UP);
     d8a:	fe842703          	lw	a4,-24(s0)
     d8e:	05300793          	li	a5,83
     d92:	00f71b63          	bne	a4,a5,da8 <uart_gpio_init+0x330>
D:/projects/mechanical_arm/Firmware/CarMainControl/libraries/zf_driver/zf_driver_uart.c:70 (discriminator 1)
     d96:	04800693          	li	a3,72
     d9a:	4601                	li	a2,0
     d9c:	4581                	li	a1,0
     d9e:	08900513          	li	a0,137
     da2:	ddcff0ef          	jal	ra,37e <gpio_init>
D:/projects/mechanical_arm/Firmware/CarMainControl/libraries/zf_driver/zf_driver_uart.c:78 (discriminator 1)
}
     da6:	a8c1                	j	e76 <uart_gpio_init+0x3fe>
D:/projects/mechanical_arm/Firmware/CarMainControl/libraries/zf_driver/zf_driver_uart.c:71
    else if(rx_pin == UART6_RX_C1 )     gpio_init(C1,  GPI, 0, GPI_PULL_UP);
     da8:	fe842703          	lw	a4,-24(s0)
     dac:	06100793          	li	a5,97
     db0:	00f71b63          	bne	a4,a5,dc6 <uart_gpio_init+0x34e>
D:/projects/mechanical_arm/Firmware/CarMainControl/libraries/zf_driver/zf_driver_uart.c:71 (discriminator 1)
     db4:	04800693          	li	a3,72
     db8:	4601                	li	a2,0
     dba:	4581                	li	a1,0
     dbc:	04100513          	li	a0,65
     dc0:	dbeff0ef          	jal	ra,37e <gpio_init>
D:/projects/mechanical_arm/Firmware/CarMainControl/libraries/zf_driver/zf_driver_uart.c:78 (discriminator 1)
}
     dc4:	a84d                	j	e76 <uart_gpio_init+0x3fe>
D:/projects/mechanical_arm/Firmware/CarMainControl/libraries/zf_driver/zf_driver_uart.c:72
    else if(rx_pin == UART6_RX_E11 )    gpio_init(E11,  GPI, 0, GPI_PULL_UP);
     dc6:	fe842703          	lw	a4,-24(s0)
     dca:	06300793          	li	a5,99
     dce:	00f71b63          	bne	a4,a5,de4 <uart_gpio_init+0x36c>
D:/projects/mechanical_arm/Firmware/CarMainControl/libraries/zf_driver/zf_driver_uart.c:72 (discriminator 1)
     dd2:	04800693          	li	a3,72
     dd6:	4601                	li	a2,0
     dd8:	4581                	li	a1,0
     dda:	08b00513          	li	a0,139
     dde:	da0ff0ef          	jal	ra,37e <gpio_init>
D:/projects/mechanical_arm/Firmware/CarMainControl/libraries/zf_driver/zf_driver_uart.c:78 (discriminator 1)
}
     de2:	a851                	j	e76 <uart_gpio_init+0x3fe>
D:/projects/mechanical_arm/Firmware/CarMainControl/libraries/zf_driver/zf_driver_uart.c:73
    else if(rx_pin == UART7_RX_C3 )     gpio_init(C3,  GPI, 0, GPI_PULL_UP);
     de4:	fe842703          	lw	a4,-24(s0)
     de8:	07100793          	li	a5,113
     dec:	00f71b63          	bne	a4,a5,e02 <uart_gpio_init+0x38a>
D:/projects/mechanical_arm/Firmware/CarMainControl/libraries/zf_driver/zf_driver_uart.c:73 (discriminator 1)
     df0:	04800693          	li	a3,72
     df4:	4601                	li	a2,0
     df6:	4581                	li	a1,0
     df8:	04300513          	li	a0,67
     dfc:	d82ff0ef          	jal	ra,37e <gpio_init>
D:/projects/mechanical_arm/Firmware/CarMainControl/libraries/zf_driver/zf_driver_uart.c:78 (discriminator 1)
}
     e00:	a89d                	j	e76 <uart_gpio_init+0x3fe>
D:/projects/mechanical_arm/Firmware/CarMainControl/libraries/zf_driver/zf_driver_uart.c:74
    else if(rx_pin == UART7_RX_A7 )     gpio_init(A7,  GPI, 0, GPI_PULL_UP);
     e02:	fe842703          	lw	a4,-24(s0)
     e06:	07300793          	li	a5,115
     e0a:	00f71a63          	bne	a4,a5,e1e <uart_gpio_init+0x3a6>
D:/projects/mechanical_arm/Firmware/CarMainControl/libraries/zf_driver/zf_driver_uart.c:74 (discriminator 1)
     e0e:	04800693          	li	a3,72
     e12:	4601                	li	a2,0
     e14:	4581                	li	a1,0
     e16:	451d                	li	a0,7
     e18:	d66ff0ef          	jal	ra,37e <gpio_init>
D:/projects/mechanical_arm/Firmware/CarMainControl/libraries/zf_driver/zf_driver_uart.c:78 (discriminator 1)
}
     e1c:	a8a9                	j	e76 <uart_gpio_init+0x3fe>
D:/projects/mechanical_arm/Firmware/CarMainControl/libraries/zf_driver/zf_driver_uart.c:75
    else if(rx_pin == UART7_RX_E13 )    gpio_init(E13,  GPI, 0, GPI_PULL_UP);
     e1e:	fe842703          	lw	a4,-24(s0)
     e22:	07500793          	li	a5,117
     e26:	00f71b63          	bne	a4,a5,e3c <uart_gpio_init+0x3c4>
D:/projects/mechanical_arm/Firmware/CarMainControl/libraries/zf_driver/zf_driver_uart.c:75 (discriminator 1)
     e2a:	04800693          	li	a3,72
     e2e:	4601                	li	a2,0
     e30:	4581                	li	a1,0
     e32:	08d00513          	li	a0,141
     e36:	d48ff0ef          	jal	ra,37e <gpio_init>
D:/projects/mechanical_arm/Firmware/CarMainControl/libraries/zf_driver/zf_driver_uart.c:78 (discriminator 1)
}
     e3a:	a835                	j	e76 <uart_gpio_init+0x3fe>
D:/projects/mechanical_arm/Firmware/CarMainControl/libraries/zf_driver/zf_driver_uart.c:76
    else if(rx_pin == UART8_RX_C5 )     gpio_init(C5,  GPI, 0, GPI_PULL_UP);
     e3c:	fe842703          	lw	a4,-24(s0)
     e40:	08100793          	li	a5,129
     e44:	00f71b63          	bne	a4,a5,e5a <uart_gpio_init+0x3e2>
D:/projects/mechanical_arm/Firmware/CarMainControl/libraries/zf_driver/zf_driver_uart.c:76 (discriminator 1)
     e48:	04800693          	li	a3,72
     e4c:	4601                	li	a2,0
     e4e:	4581                	li	a1,0
     e50:	04500513          	li	a0,69
     e54:	d2aff0ef          	jal	ra,37e <gpio_init>
D:/projects/mechanical_arm/Firmware/CarMainControl/libraries/zf_driver/zf_driver_uart.c:78 (discriminator 1)
}
     e58:	a839                	j	e76 <uart_gpio_init+0x3fe>
D:/projects/mechanical_arm/Firmware/CarMainControl/libraries/zf_driver/zf_driver_uart.c:77
    else if(rx_pin == UART8_RX_E15 )    gpio_init(E15,  GPI, 0, GPI_PULL_UP);
     e5a:	fe842703          	lw	a4,-24(s0)
     e5e:	08300793          	li	a5,131
     e62:	00f71a63          	bne	a4,a5,e76 <uart_gpio_init+0x3fe>
D:/projects/mechanical_arm/Firmware/CarMainControl/libraries/zf_driver/zf_driver_uart.c:77 (discriminator 1)
     e66:	04800693          	li	a3,72
     e6a:	4601                	li	a2,0
     e6c:	4581                	li	a1,0
     e6e:	08f00513          	li	a0,143
     e72:	d0cff0ef          	jal	ra,37e <gpio_init>
D:/projects/mechanical_arm/Firmware/CarMainControl/libraries/zf_driver/zf_driver_uart.c:78
}
     e76:	0001                	nop
     e78:	40f2                	lw	ra,28(sp)
     e7a:	4462                	lw	s0,24(sp)
     e7c:	6105                	addi	sp,sp,32
     e7e:	8082                	ret

00000e80 <uart_rx_interrupt>:
uart_rx_interrupt():
D:/projects/mechanical_arm/Firmware/CarMainControl/libraries/zf_driver/zf_driver_uart.c:153
//  @param      status      使能或者失能
//  @return     void
//  Sample usage:           uart_rx_irq(UART_1, ENABLE);        //打开串口1接收中断
//-------------------------------------------------------------------------------------------------------------------
void uart_rx_interrupt(uart_index_enum uartn, uint8 status)
{
     e80:	1101                	addi	sp,sp,-32
     e82:	ce06                	sw	ra,28(sp)
     e84:	cc22                	sw	s0,24(sp)
     e86:	1000                	addi	s0,sp,32
     e88:	fea42623          	sw	a0,-20(s0)
     e8c:	87ae                	mv	a5,a1
     e8e:	fef405a3          	sb	a5,-21(s0)
D:/projects/mechanical_arm/Firmware/CarMainControl/libraries/zf_driver/zf_driver_uart.c:154
    USART_ITConfig(((USART_TypeDef*)uart_index[uartn]), USART_IT_RXNE, status);
     e92:	67a9                	lui	a5,0xa
     e94:	fec42703          	lw	a4,-20(s0)
     e98:	070a                	slli	a4,a4,0x2
     e9a:	8b478793          	addi	a5,a5,-1868 # 98b4 <uart_index>
     e9e:	97ba                	add	a5,a5,a4
     ea0:	439c                	lw	a5,0(a5)
     ea2:	873e                	mv	a4,a5
     ea4:	feb44783          	lbu	a5,-21(s0)
     ea8:	863e                	mv	a2,a5
     eaa:	52500593          	li	a1,1317
     eae:	853a                	mv	a0,a4
     eb0:	415020ef          	jal	ra,3ac4 <USART_ITConfig>
D:/projects/mechanical_arm/Firmware/CarMainControl/libraries/zf_driver/zf_driver_uart.c:156

    NVIC->IPRIOR[(uint32)((IRQn_Type)uart_irq[uartn])] = 0;
     eb4:	e000e7b7          	lui	a5,0xe000e
     eb8:	81c18693          	addi	a3,gp,-2020 # 2000023c <uart_irq>
     ebc:	fec42703          	lw	a4,-20(s0)
     ec0:	9736                	add	a4,a4,a3
     ec2:	00074703          	lbu	a4,0(a4)
     ec6:	97ba                	add	a5,a5,a4
     ec8:	40078023          	sb	zero,1024(a5) # e000e400 <_eusrstack+0xbfffe400>
D:/projects/mechanical_arm/Firmware/CarMainControl/libraries/zf_driver/zf_driver_uart.c:158

    if(status)  interrupt_enable((IRQn_Type)uart_irq[uartn]);
     ecc:	feb44783          	lbu	a5,-21(s0)
     ed0:	cf81                	beqz	a5,ee8 <uart_rx_interrupt+0x68>
D:/projects/mechanical_arm/Firmware/CarMainControl/libraries/zf_driver/zf_driver_uart.c:158 (discriminator 1)
     ed2:	81c18713          	addi	a4,gp,-2020 # 2000023c <uart_irq>
     ed6:	fec42783          	lw	a5,-20(s0)
     eda:	97ba                	add	a5,a5,a4
     edc:	0007c783          	lbu	a5,0(a5)
     ee0:	853e                	mv	a0,a5
     ee2:	4b2010ef          	jal	ra,2394 <interrupt_enable>
D:/projects/mechanical_arm/Firmware/CarMainControl/libraries/zf_driver/zf_driver_uart.c:162 (discriminator 1)
    else        interrupt_disable((IRQn_Type)uart_irq[uartn]);

    //nvic_init((IRQn_Type)uart_irq[uartn], 1, 0, status);
}
     ee6:	a819                	j	efc <uart_rx_interrupt+0x7c>
D:/projects/mechanical_arm/Firmware/CarMainControl/libraries/zf_driver/zf_driver_uart.c:159
    else        interrupt_disable((IRQn_Type)uart_irq[uartn]);
     ee8:	81c18713          	addi	a4,gp,-2020 # 2000023c <uart_irq>
     eec:	fec42783          	lw	a5,-20(s0)
     ef0:	97ba                	add	a5,a5,a4
     ef2:	0007c783          	lbu	a5,0(a5)
     ef6:	853e                	mv	a0,a5
     ef8:	4b8010ef          	jal	ra,23b0 <interrupt_disable>
D:/projects/mechanical_arm/Firmware/CarMainControl/libraries/zf_driver/zf_driver_uart.c:162
}
     efc:	0001                	nop
     efe:	40f2                	lw	ra,28(sp)
     f00:	4462                	lw	s0,24(sp)
     f02:	6105                	addi	sp,sp,32
     f04:	8082                	ret

00000f06 <uart_query_byte>:
uart_query_byte():
D:/projects/mechanical_arm/Firmware/CarMainControl/libraries/zf_driver/zf_driver_uart.c:203
//  @param      *dat            接收数据的地址
//  @return     uint8           1：接收成功   0：未接收到数据
//  Sample usage:               uint8 dat; uart_query_byte(USART_1,&dat);       // 接收串口1数据  存在在dat变量里
//-------------------------------------------------------------------------------------------------------------------
uint8 uart_query_byte(uart_index_enum uartn, uint8 *dat)
{
     f06:	1101                	addi	sp,sp,-32
     f08:	ce22                	sw	s0,28(sp)
     f0a:	1000                	addi	s0,sp,32
     f0c:	fea42623          	sw	a0,-20(s0)
     f10:	feb42423          	sw	a1,-24(s0)
D:/projects/mechanical_arm/Firmware/CarMainControl/libraries/zf_driver/zf_driver_uart.c:204
    if((((USART_TypeDef*)uart_index[uartn])->STATR & USART_FLAG_RXNE) != 0)
     f14:	67a9                	lui	a5,0xa
     f16:	fec42703          	lw	a4,-20(s0)
     f1a:	070a                	slli	a4,a4,0x2
     f1c:	8b478793          	addi	a5,a5,-1868 # 98b4 <uart_index>
     f20:	97ba                	add	a5,a5,a4
     f22:	439c                	lw	a5,0(a5)
     f24:	0007d783          	lhu	a5,0(a5)
     f28:	07c2                	slli	a5,a5,0x10
     f2a:	83c1                	srli	a5,a5,0x10
     f2c:	0207f793          	andi	a5,a5,32
     f30:	c78d                	beqz	a5,f5a <uart_query_byte+0x54>
D:/projects/mechanical_arm/Firmware/CarMainControl/libraries/zf_driver/zf_driver_uart.c:206
    {
        *dat = (((USART_TypeDef*)uart_index[uartn])->DATAR & 0xFF);
     f32:	67a9                	lui	a5,0xa
     f34:	fec42703          	lw	a4,-20(s0)
     f38:	070a                	slli	a4,a4,0x2
     f3a:	8b478793          	addi	a5,a5,-1868 # 98b4 <uart_index>
     f3e:	97ba                	add	a5,a5,a4
     f40:	439c                	lw	a5,0(a5)
     f42:	0047d783          	lhu	a5,4(a5)
     f46:	07c2                	slli	a5,a5,0x10
     f48:	83c1                	srli	a5,a5,0x10
     f4a:	0ff7f713          	andi	a4,a5,255
     f4e:	fe842783          	lw	a5,-24(s0)
     f52:	00e78023          	sb	a4,0(a5)
D:/projects/mechanical_arm/Firmware/CarMainControl/libraries/zf_driver/zf_driver_uart.c:207
        return 1;
     f56:	4785                	li	a5,1
     f58:	a011                	j	f5c <uart_query_byte+0x56>
D:/projects/mechanical_arm/Firmware/CarMainControl/libraries/zf_driver/zf_driver_uart.c:209
    }
    return 0;
     f5a:	4781                	li	a5,0
D:/projects/mechanical_arm/Firmware/CarMainControl/libraries/zf_driver/zf_driver_uart.c:210
}
     f5c:	853e                	mv	a0,a5
     f5e:	4472                	lw	s0,28(sp)
     f60:	6105                	addi	sp,sp,32
     f62:	8082                	ret

00000f64 <uart_init>:
uart_init():
D:/projects/mechanical_arm/Firmware/CarMainControl/libraries/zf_driver/zf_driver_uart.c:222
//  @param      rx_pin      串口接收引脚号
//  @return     void
//  Sample usage:           uart_init(UART_1, 115200, UART1_TX_A9, UART1_RX_A10); //串口1初始化引脚号,TX为A9,RX为A10
//-------------------------------------------------------------------------------------------------------------------
void uart_init(uart_index_enum uart_num, uint32 baud, uart_pin_enum tx_pin, uart_pin_enum rx_pin)
{
     f64:	7179                	addi	sp,sp,-48
     f66:	d606                	sw	ra,44(sp)
     f68:	d422                	sw	s0,40(sp)
     f6a:	1800                	addi	s0,sp,48
     f6c:	fca42e23          	sw	a0,-36(s0)
     f70:	fcb42c23          	sw	a1,-40(s0)
     f74:	fcc42a23          	sw	a2,-44(s0)
     f78:	fcd42823          	sw	a3,-48(s0)
D:/projects/mechanical_arm/Firmware/CarMainControl/libraries/zf_driver/zf_driver_uart.c:226
    USART_InitTypeDef USART_InitStructure;

    // AFIO总线开启
    RCC_APB2PeriphClockCmd(RCC_APB2Periph_AFIO, ENABLE);
     f7c:	4585                	li	a1,1
     f7e:	4505                	li	a0,1
     f80:	532020ef          	jal	ra,34b2 <RCC_APB2PeriphClockCmd>
D:/projects/mechanical_arm/Firmware/CarMainControl/libraries/zf_driver/zf_driver_uart.c:233

    // RX引脚和TX引脚必须组传入
//    zf_assert(((rx_pin - 1) == tx_pin) || (tx_pin == UART5_TX_C12 && UART5_RX_D2 == rx_pin));

    // 引脚初始化
    uart_gpio_init(tx_pin, rx_pin);
     f84:	fd042583          	lw	a1,-48(s0)
     f88:	fd442503          	lw	a0,-44(s0)
     f8c:	34f5                	jal	a78 <uart_gpio_init>
D:/projects/mechanical_arm/Firmware/CarMainControl/libraries/zf_driver/zf_driver_uart.c:236

    // 端口重映射
    if(UART1_TX_B6 == tx_pin && UART1_RX_B7 == rx_pin)
     f8e:	fd442703          	lw	a4,-44(s0)
     f92:	4789                	li	a5,2
     f94:	00f71c63          	bne	a4,a5,fac <uart_init+0x48>
D:/projects/mechanical_arm/Firmware/CarMainControl/libraries/zf_driver/zf_driver_uart.c:236 (discriminator 1)
     f98:	fd042703          	lw	a4,-48(s0)
     f9c:	478d                	li	a5,3
     f9e:	00f71763          	bne	a4,a5,fac <uart_init+0x48>
D:/projects/mechanical_arm/Firmware/CarMainControl/libraries/zf_driver/zf_driver_uart.c:237
        GPIO_PinRemapConfig(GPIO_Remap_USART1, ENABLE);
     fa2:	4585                	li	a1,1
     fa4:	4511                	li	a0,4
     fa6:	10a020ef          	jal	ra,30b0 <GPIO_PinRemapConfig>
     faa:	a295                	j	110e <uart_init+0x1aa>
D:/projects/mechanical_arm/Firmware/CarMainControl/libraries/zf_driver/zf_driver_uart.c:238
    else if(UART2_TX_D5 == tx_pin && UART2_RX_D6 == rx_pin)
     fac:	fd442703          	lw	a4,-44(s0)
     fb0:	47c9                	li	a5,18
     fb2:	00f71c63          	bne	a4,a5,fca <uart_init+0x66>
D:/projects/mechanical_arm/Firmware/CarMainControl/libraries/zf_driver/zf_driver_uart.c:238 (discriminator 1)
     fb6:	fd042703          	lw	a4,-48(s0)
     fba:	47cd                	li	a5,19
     fbc:	00f71763          	bne	a4,a5,fca <uart_init+0x66>
D:/projects/mechanical_arm/Firmware/CarMainControl/libraries/zf_driver/zf_driver_uart.c:239
        GPIO_PinRemapConfig(GPIO_Remap_USART2, ENABLE);
     fc0:	4585                	li	a1,1
     fc2:	4521                	li	a0,8
     fc4:	0ec020ef          	jal	ra,30b0 <GPIO_PinRemapConfig>
     fc8:	a299                	j	110e <uart_init+0x1aa>
D:/projects/mechanical_arm/Firmware/CarMainControl/libraries/zf_driver/zf_driver_uart.c:240
    else if(UART3_TX_C10 == tx_pin && UART3_RX_C11 == rx_pin)
     fca:	fd442703          	lw	a4,-44(s0)
     fce:	02200793          	li	a5,34
     fd2:	02f71063          	bne	a4,a5,ff2 <uart_init+0x8e>
D:/projects/mechanical_arm/Firmware/CarMainControl/libraries/zf_driver/zf_driver_uart.c:240 (discriminator 1)
     fd6:	fd042703          	lw	a4,-48(s0)
     fda:	02300793          	li	a5,35
     fde:	00f71a63          	bne	a4,a5,ff2 <uart_init+0x8e>
D:/projects/mechanical_arm/Firmware/CarMainControl/libraries/zf_driver/zf_driver_uart.c:241
        GPIO_PinRemapConfig(GPIO_PartialRemap_USART3, ENABLE);
     fe2:	4585                	li	a1,1
     fe4:	001407b7          	lui	a5,0x140
     fe8:	01078513          	addi	a0,a5,16 # 140010 <_data_lma+0x135b3c>
     fec:	0c4020ef          	jal	ra,30b0 <GPIO_PinRemapConfig>
     ff0:	aa39                	j	110e <uart_init+0x1aa>
D:/projects/mechanical_arm/Firmware/CarMainControl/libraries/zf_driver/zf_driver_uart.c:242
    else if(UART3_TX_D8 == tx_pin && UART3_RX_D9 == rx_pin)
     ff2:	fd442703          	lw	a4,-44(s0)
     ff6:	02400793          	li	a5,36
     ffa:	02f71063          	bne	a4,a5,101a <uart_init+0xb6>
D:/projects/mechanical_arm/Firmware/CarMainControl/libraries/zf_driver/zf_driver_uart.c:242 (discriminator 1)
     ffe:	fd042703          	lw	a4,-48(s0)
    1002:	02500793          	li	a5,37
    1006:	00f71a63          	bne	a4,a5,101a <uart_init+0xb6>
D:/projects/mechanical_arm/Firmware/CarMainControl/libraries/zf_driver/zf_driver_uart.c:243
        GPIO_PinRemapConfig(GPIO_FullRemap_USART3, ENABLE);
    100a:	4585                	li	a1,1
    100c:	001407b7          	lui	a5,0x140
    1010:	03078513          	addi	a0,a5,48 # 140030 <_data_lma+0x135b5c>
    1014:	09c020ef          	jal	ra,30b0 <GPIO_PinRemapConfig>
    1018:	a8dd                	j	110e <uart_init+0x1aa>
D:/projects/mechanical_arm/Firmware/CarMainControl/libraries/zf_driver/zf_driver_uart.c:244
    else if(UART4_TX_B0 == tx_pin && UART4_RX_B1 == rx_pin)
    101a:	fd442703          	lw	a4,-44(s0)
    101e:	04200793          	li	a5,66
    1022:	00f71d63          	bne	a4,a5,103c <uart_init+0xd8>
D:/projects/mechanical_arm/Firmware/CarMainControl/libraries/zf_driver/zf_driver_uart.c:244 (discriminator 1)
    1026:	fd042703          	lw	a4,-48(s0)
    102a:	04300793          	li	a5,67
    102e:	00f71763          	bne	a4,a5,103c <uart_init+0xd8>
D:/projects/mechanical_arm/Firmware/CarMainControl/libraries/zf_driver/zf_driver_uart.c:245
        GPIO_PinRemapConfig(GPIO_Remap_TIM4, ENABLE);
    1032:	4585                	li	a1,1
    1034:	6505                	lui	a0,0x1
    1036:	07a020ef          	jal	ra,30b0 <GPIO_PinRemapConfig>
    103a:	a8d1                	j	110e <uart_init+0x1aa>
D:/projects/mechanical_arm/Firmware/CarMainControl/libraries/zf_driver/zf_driver_uart.c:246
    else if(UART5_TX_E8 == tx_pin && UART5_RX_E9 == rx_pin)
    103c:	fd442703          	lw	a4,-44(s0)
    1040:	05200793          	li	a5,82
    1044:	02f71063          	bne	a4,a5,1064 <uart_init+0x100>
D:/projects/mechanical_arm/Firmware/CarMainControl/libraries/zf_driver/zf_driver_uart.c:246 (discriminator 1)
    1048:	fd042703          	lw	a4,-48(s0)
    104c:	05300793          	li	a5,83
    1050:	00f71a63          	bne	a4,a5,1064 <uart_init+0x100>
D:/projects/mechanical_arm/Firmware/CarMainControl/libraries/zf_driver/zf_driver_uart.c:247
        GPIO_PinRemapConfig(GPIO_Remap_TIM5CH4_LSI, ENABLE);
    1054:	4585                	li	a1,1
    1056:	002007b7          	lui	a5,0x200
    105a:	00178513          	addi	a0,a5,1 # 200001 <_data_lma+0x1f5b2d>
    105e:	052020ef          	jal	ra,30b0 <GPIO_PinRemapConfig>
    1062:	a075                	j	110e <uart_init+0x1aa>
D:/projects/mechanical_arm/Firmware/CarMainControl/libraries/zf_driver/zf_driver_uart.c:248
    else if(UART6_TX_E10 == tx_pin && UART6_RX_E11 == rx_pin)
    1064:	fd442703          	lw	a4,-44(s0)
    1068:	06200793          	li	a5,98
    106c:	02f71063          	bne	a4,a5,108c <uart_init+0x128>
D:/projects/mechanical_arm/Firmware/CarMainControl/libraries/zf_driver/zf_driver_uart.c:248 (discriminator 1)
    1070:	fd042703          	lw	a4,-48(s0)
    1074:	06300793          	li	a5,99
    1078:	00f71a63          	bne	a4,a5,108c <uart_init+0x128>
D:/projects/mechanical_arm/Firmware/CarMainControl/libraries/zf_driver/zf_driver_uart.c:249
        GPIO_PinRemapConfig(GPIO_Remap_TIM67_DAC_DMA, ENABLE);
    107c:	4585                	li	a1,1
    107e:	800017b7          	lui	a5,0x80001
    1082:	80078513          	addi	a0,a5,-2048 # 80000800 <_eusrstack+0x5fff0800>
    1086:	02a020ef          	jal	ra,30b0 <GPIO_PinRemapConfig>
    108a:	a051                	j	110e <uart_init+0x1aa>
D:/projects/mechanical_arm/Firmware/CarMainControl/libraries/zf_driver/zf_driver_uart.c:251

    else if(UART7_TX_A6 == tx_pin && UART7_RX_A7 == rx_pin)
    108c:	fd442703          	lw	a4,-44(s0)
    1090:	07200793          	li	a5,114
    1094:	02f71263          	bne	a4,a5,10b8 <uart_init+0x154>
D:/projects/mechanical_arm/Firmware/CarMainControl/libraries/zf_driver/zf_driver_uart.c:251 (discriminator 1)
    1098:	fd042703          	lw	a4,-48(s0)
    109c:	07300793          	li	a5,115
    10a0:	00f71c63          	bne	a4,a5,10b8 <uart_init+0x154>
D:/projects/mechanical_arm/Firmware/CarMainControl/libraries/zf_driver/zf_driver_uart.c:252
        AFIO->PCFR2 |= 0x01<<22;                       //[23:22]
    10a4:	400107b7          	lui	a5,0x40010
    10a8:	4fd4                	lw	a3,28(a5)
    10aa:	400107b7          	lui	a5,0x40010
    10ae:	00400737          	lui	a4,0x400
    10b2:	8f55                	or	a4,a4,a3
    10b4:	cfd8                	sw	a4,28(a5)
    10b6:	a8a1                	j	110e <uart_init+0x1aa>
D:/projects/mechanical_arm/Firmware/CarMainControl/libraries/zf_driver/zf_driver_uart.c:253
    else if(UART7_TX_E12 == tx_pin && UART7_RX_E13 == rx_pin)
    10b8:	fd442703          	lw	a4,-44(s0)
    10bc:	07400793          	li	a5,116
    10c0:	02f71263          	bne	a4,a5,10e4 <uart_init+0x180>
D:/projects/mechanical_arm/Firmware/CarMainControl/libraries/zf_driver/zf_driver_uart.c:253 (discriminator 1)
    10c4:	fd042703          	lw	a4,-48(s0)
    10c8:	07500793          	li	a5,117
    10cc:	00f71c63          	bne	a4,a5,10e4 <uart_init+0x180>
D:/projects/mechanical_arm/Firmware/CarMainControl/libraries/zf_driver/zf_driver_uart.c:254
        AFIO->PCFR2 |= 0x01<<23;                       //[23:22]
    10d0:	400107b7          	lui	a5,0x40010
    10d4:	4fd4                	lw	a3,28(a5)
    10d6:	400107b7          	lui	a5,0x40010
    10da:	00800737          	lui	a4,0x800
    10de:	8f55                	or	a4,a4,a3
    10e0:	cfd8                	sw	a4,28(a5)
    10e2:	a035                	j	110e <uart_init+0x1aa>
D:/projects/mechanical_arm/Firmware/CarMainControl/libraries/zf_driver/zf_driver_uart.c:256

    else if(UART8_TX_E14 == tx_pin && UART8_RX_E15 == rx_pin)
    10e4:	fd442703          	lw	a4,-44(s0)
    10e8:	08200793          	li	a5,130
    10ec:	02f71163          	bne	a4,a5,110e <uart_init+0x1aa>
D:/projects/mechanical_arm/Firmware/CarMainControl/libraries/zf_driver/zf_driver_uart.c:256 (discriminator 1)
    10f0:	fd042703          	lw	a4,-48(s0)
    10f4:	08300793          	li	a5,131
    10f8:	00f71b63          	bne	a4,a5,110e <uart_init+0x1aa>
D:/projects/mechanical_arm/Firmware/CarMainControl/libraries/zf_driver/zf_driver_uart.c:257
        AFIO->PCFR2 |= 1<<25;    //[25:24]
    10fc:	400107b7          	lui	a5,0x40010
    1100:	4fd4                	lw	a3,28(a5)
    1102:	400107b7          	lui	a5,0x40010
    1106:	02000737          	lui	a4,0x2000
    110a:	8f55                	or	a4,a4,a3
    110c:	cfd8                	sw	a4,28(a5)
D:/projects/mechanical_arm/Firmware/CarMainControl/libraries/zf_driver/zf_driver_uart.c:260

    //  串口总线使能
    if(UART_1 == uart_num) RCC_APB2PeriphClockCmd(RCC_APB2Periph_USART1, ENABLE);
    110e:	fdc42783          	lw	a5,-36(s0)
    1112:	e791                	bnez	a5,111e <uart_init+0x1ba>
D:/projects/mechanical_arm/Firmware/CarMainControl/libraries/zf_driver/zf_driver_uart.c:260 (discriminator 1)
    1114:	4585                	li	a1,1
    1116:	6511                	lui	a0,0x4
    1118:	39a020ef          	jal	ra,34b2 <RCC_APB2PeriphClockCmd>
    111c:	a869                	j	11b6 <uart_init+0x252>
D:/projects/mechanical_arm/Firmware/CarMainControl/libraries/zf_driver/zf_driver_uart.c:261
    else if(UART_2 == uart_num) RCC_APB1PeriphClockCmd(RCC_APB1Periph_USART2, ENABLE);
    111e:	fdc42703          	lw	a4,-36(s0)
    1122:	4785                	li	a5,1
    1124:	00f71863          	bne	a4,a5,1134 <uart_init+0x1d0>
D:/projects/mechanical_arm/Firmware/CarMainControl/libraries/zf_driver/zf_driver_uart.c:261 (discriminator 1)
    1128:	4585                	li	a1,1
    112a:	00020537          	lui	a0,0x20
    112e:	3ca020ef          	jal	ra,34f8 <RCC_APB1PeriphClockCmd>
    1132:	a051                	j	11b6 <uart_init+0x252>
D:/projects/mechanical_arm/Firmware/CarMainControl/libraries/zf_driver/zf_driver_uart.c:262
    else if(UART_3 == uart_num) RCC_APB1PeriphClockCmd(RCC_APB1Periph_USART3, ENABLE);
    1134:	fdc42703          	lw	a4,-36(s0)
    1138:	4789                	li	a5,2
    113a:	00f71863          	bne	a4,a5,114a <uart_init+0x1e6>
D:/projects/mechanical_arm/Firmware/CarMainControl/libraries/zf_driver/zf_driver_uart.c:262 (discriminator 1)
    113e:	4585                	li	a1,1
    1140:	00040537          	lui	a0,0x40
    1144:	3b4020ef          	jal	ra,34f8 <RCC_APB1PeriphClockCmd>
    1148:	a0bd                	j	11b6 <uart_init+0x252>
D:/projects/mechanical_arm/Firmware/CarMainControl/libraries/zf_driver/zf_driver_uart.c:263
    else if(UART_4 == uart_num) RCC_APB1PeriphClockCmd(RCC_APB1Periph_UART4, ENABLE);
    114a:	fdc42703          	lw	a4,-36(s0)
    114e:	478d                	li	a5,3
    1150:	00f71863          	bne	a4,a5,1160 <uart_init+0x1fc>
D:/projects/mechanical_arm/Firmware/CarMainControl/libraries/zf_driver/zf_driver_uart.c:263 (discriminator 1)
    1154:	4585                	li	a1,1
    1156:	00080537          	lui	a0,0x80
    115a:	39e020ef          	jal	ra,34f8 <RCC_APB1PeriphClockCmd>
    115e:	a8a1                	j	11b6 <uart_init+0x252>
D:/projects/mechanical_arm/Firmware/CarMainControl/libraries/zf_driver/zf_driver_uart.c:264
    else if(UART_5 == uart_num) RCC_APB1PeriphClockCmd(RCC_APB1Periph_UART5, ENABLE);
    1160:	fdc42703          	lw	a4,-36(s0)
    1164:	4791                	li	a5,4
    1166:	00f71863          	bne	a4,a5,1176 <uart_init+0x212>
D:/projects/mechanical_arm/Firmware/CarMainControl/libraries/zf_driver/zf_driver_uart.c:264 (discriminator 1)
    116a:	4585                	li	a1,1
    116c:	00100537          	lui	a0,0x100
    1170:	388020ef          	jal	ra,34f8 <RCC_APB1PeriphClockCmd>
    1174:	a089                	j	11b6 <uart_init+0x252>
D:/projects/mechanical_arm/Firmware/CarMainControl/libraries/zf_driver/zf_driver_uart.c:265
    else if(UART_6 == uart_num) RCC_APB1PeriphClockCmd(RCC_APB1Periph_UART6, ENABLE);
    1176:	fdc42703          	lw	a4,-36(s0)
    117a:	4795                	li	a5,5
    117c:	00f71863          	bne	a4,a5,118c <uart_init+0x228>
D:/projects/mechanical_arm/Firmware/CarMainControl/libraries/zf_driver/zf_driver_uart.c:265 (discriminator 1)
    1180:	4585                	li	a1,1
    1182:	04000513          	li	a0,64
    1186:	372020ef          	jal	ra,34f8 <RCC_APB1PeriphClockCmd>
    118a:	a035                	j	11b6 <uart_init+0x252>
D:/projects/mechanical_arm/Firmware/CarMainControl/libraries/zf_driver/zf_driver_uart.c:266
    else if(UART_7 == uart_num) RCC_APB1PeriphClockCmd(RCC_APB1Periph_UART7, ENABLE);
    118c:	fdc42703          	lw	a4,-36(s0)
    1190:	4799                	li	a5,6
    1192:	00f71863          	bne	a4,a5,11a2 <uart_init+0x23e>
D:/projects/mechanical_arm/Firmware/CarMainControl/libraries/zf_driver/zf_driver_uart.c:266 (discriminator 1)
    1196:	4585                	li	a1,1
    1198:	08000513          	li	a0,128
    119c:	35c020ef          	jal	ra,34f8 <RCC_APB1PeriphClockCmd>
    11a0:	a819                	j	11b6 <uart_init+0x252>
D:/projects/mechanical_arm/Firmware/CarMainControl/libraries/zf_driver/zf_driver_uart.c:267
    else if(UART_8 == uart_num) RCC_APB1PeriphClockCmd(RCC_APB1Periph_UART8, ENABLE);
    11a2:	fdc42703          	lw	a4,-36(s0)
    11a6:	479d                	li	a5,7
    11a8:	00f71763          	bne	a4,a5,11b6 <uart_init+0x252>
D:/projects/mechanical_arm/Firmware/CarMainControl/libraries/zf_driver/zf_driver_uart.c:267 (discriminator 1)
    11ac:	4585                	li	a1,1
    11ae:	10000513          	li	a0,256
    11b2:	346020ef          	jal	ra,34f8 <RCC_APB1PeriphClockCmd>
D:/projects/mechanical_arm/Firmware/CarMainControl/libraries/zf_driver/zf_driver_uart.c:271


    //  串口参数配置
    USART_InitStructure.USART_BaudRate = baud;
    11b6:	fd842783          	lw	a5,-40(s0)
    11ba:	fef42023          	sw	a5,-32(s0)
D:/projects/mechanical_arm/Firmware/CarMainControl/libraries/zf_driver/zf_driver_uart.c:272
    USART_InitStructure.USART_WordLength = USART_WordLength_8b;
    11be:	fe041223          	sh	zero,-28(s0)
D:/projects/mechanical_arm/Firmware/CarMainControl/libraries/zf_driver/zf_driver_uart.c:273
    USART_InitStructure.USART_StopBits = USART_StopBits_1;
    11c2:	fe041323          	sh	zero,-26(s0)
D:/projects/mechanical_arm/Firmware/CarMainControl/libraries/zf_driver/zf_driver_uart.c:274
    USART_InitStructure.USART_Parity = USART_Parity_No;
    11c6:	fe041423          	sh	zero,-24(s0)
D:/projects/mechanical_arm/Firmware/CarMainControl/libraries/zf_driver/zf_driver_uart.c:275
    USART_InitStructure.USART_HardwareFlowControl = USART_HardwareFlowControl_None;
    11ca:	fe041623          	sh	zero,-20(s0)
D:/projects/mechanical_arm/Firmware/CarMainControl/libraries/zf_driver/zf_driver_uart.c:276
    USART_InitStructure.USART_Mode = USART_Mode_Tx | USART_Mode_Rx;
    11ce:	47b1                	li	a5,12
    11d0:	fef41523          	sh	a5,-22(s0)
D:/projects/mechanical_arm/Firmware/CarMainControl/libraries/zf_driver/zf_driver_uart.c:279

    //  使能串口
    USART_Init((USART_TypeDef*)uart_index[uart_num], &USART_InitStructure);
    11d4:	67a9                	lui	a5,0xa
    11d6:	fdc42703          	lw	a4,-36(s0)
    11da:	070a                	slli	a4,a4,0x2
    11dc:	8b478793          	addi	a5,a5,-1868 # 98b4 <uart_index>
    11e0:	97ba                	add	a5,a5,a4
    11e2:	439c                	lw	a5,0(a5)
    11e4:	873e                	mv	a4,a5
    11e6:	fe040793          	addi	a5,s0,-32
    11ea:	85be                	mv	a1,a5
    11ec:	853a                	mv	a0,a4
    11ee:	642020ef          	jal	ra,3830 <USART_Init>
D:/projects/mechanical_arm/Firmware/CarMainControl/libraries/zf_driver/zf_driver_uart.c:280
    USART_Cmd((USART_TypeDef*)uart_index[uart_num], ENABLE);
    11f2:	67a9                	lui	a5,0xa
    11f4:	fdc42703          	lw	a4,-36(s0)
    11f8:	070a                	slli	a4,a4,0x2
    11fa:	8b478793          	addi	a5,a5,-1868 # 98b4 <uart_index>
    11fe:	97ba                	add	a5,a5,a4
    1200:	439c                	lw	a5,0(a5)
    1202:	4585                	li	a1,1
    1204:	853e                	mv	a0,a5
    1206:	05f020ef          	jal	ra,3a64 <USART_Cmd>
D:/projects/mechanical_arm/Firmware/CarMainControl/libraries/zf_driver/zf_driver_uart.c:282

}
    120a:	0001                	nop
    120c:	50b2                	lw	ra,44(sp)
    120e:	5422                	lw	s0,40(sp)
    1210:	6145                	addi	sp,sp,48
    1212:	8082                	ret

00001214 <bluetooth_ch9141_uart_callback_ch1>:
bluetooth_ch9141_uart_callback_ch1():
D:/projects/mechanical_arm/Firmware/CarMainControl/libraries/zf_device/zf_device_bluetooth_ch9141.c:39
//  @since      v1.0
//  Sample usage:
//  @note       该函数在ISR文件 串口8中断程序被调用
//-------------------------------------------------------------------------------------------------------------------
void bluetooth_ch9141_uart_callback_ch1 (void)
{
    1214:	1141                	addi	sp,sp,-16
    1216:	c606                	sw	ra,12(sp)
    1218:	c422                	sw	s0,8(sp)
    121a:	0800                	addi	s0,sp,16
D:/projects/mechanical_arm/Firmware/CarMainControl/libraries/zf_device/zf_device_bluetooth_ch9141.c:40
    uart_query_byte(BLUETOOTH_CH9141_INDEX, &bluetooth_ch9141_data);                // 读取串口数据
    121c:	83018593          	addi	a1,gp,-2000 # 20000250 <_edata>
    1220:	4519                	li	a0,6
    1222:	31d5                	jal	f06 <uart_query_byte>
D:/projects/mechanical_arm/Firmware/CarMainControl/libraries/zf_device/zf_device_bluetooth_ch9141.c:41
    fifo_write_buffer(&bluetooth_ch9141_fifo, &bluetooth_ch9141_data, 1);           // 存入 FIFO
    1224:	4605                	li	a2,1
    1226:	83018593          	addi	a1,gp,-2000 # 20000250 <_edata>
    122a:	89018513          	addi	a0,gp,-1904 # 200002b0 <bluetooth_ch9141_fifo>
    122e:	002010ef          	jal	ra,2230 <fifo_write_buffer>
D:/projects/mechanical_arm/Firmware/CarMainControl/libraries/zf_device/zf_device_bluetooth_ch9141.c:42
}
    1232:	0001                	nop
    1234:	40b2                	lw	ra,12(sp)
    1236:	4422                	lw	s0,8(sp)
    1238:	0141                	addi	sp,sp,16
    123a:	8082                	ret

0000123c <bluetooth_ch9141_uart_callback_ch2>:
bluetooth_ch9141_uart_callback_ch2():
D:/projects/mechanical_arm/Firmware/CarMainControl/libraries/zf_device/zf_device_bluetooth_ch9141_ch2.c:41
//  @since      v1.0
//  Sample usage:
//  @note       该函数在ISR文件 串口8中断程序被调用
//-------------------------------------------------------------------------------------------------------------------
void bluetooth_ch9141_uart_callback_ch2 (void)
{
    123c:	1141                	addi	sp,sp,-16
    123e:	c606                	sw	ra,12(sp)
    1240:	c422                	sw	s0,8(sp)
    1242:	0800                	addi	s0,sp,16
D:/projects/mechanical_arm/Firmware/CarMainControl/libraries/zf_device/zf_device_bluetooth_ch9141_ch2.c:42
    uart_query_byte(BLUETOOTH_CH9141_INDEX_CH2, &bluetooth_ch9141_data_ch2);                // 读取串口数据
    1244:	83118593          	addi	a1,gp,-1999 # 20000251 <bluetooth_ch9141_data_ch2>
    1248:	4505                	li	a0,1
    124a:	3975                	jal	f06 <uart_query_byte>
D:/projects/mechanical_arm/Firmware/CarMainControl/libraries/zf_device/zf_device_bluetooth_ch9141_ch2.c:43
    fifo_write_buffer(&bluetooth_ch9141_fifo_ch2, &bluetooth_ch9141_data_ch2, 1);           // 存入 FIFO
    124c:	4605                	li	a2,1
    124e:	83118593          	addi	a1,gp,-1999 # 20000251 <bluetooth_ch9141_data_ch2>
    1252:	8a418513          	addi	a0,gp,-1884 # 200002c4 <bluetooth_ch9141_fifo_ch2>
    1256:	7db000ef          	jal	ra,2230 <fifo_write_buffer>
D:/projects/mechanical_arm/Firmware/CarMainControl/libraries/zf_device/zf_device_bluetooth_ch9141_ch2.c:45

}
    125a:	0001                	nop
    125c:	40b2                	lw	ra,12(sp)
    125e:	4422                	lw	s0,8(sp)
    1260:	0141                	addi	sp,sp,16
    1262:	8082                	ret

00001264 <camera_uart_handler>:
camera_uart_handler():
D:/projects/mechanical_arm/Firmware/CarMainControl/libraries/zf_device/zf_device_camera.c:35
// @param       void
// @return      void
// Sample usage:
//-------------------------------------------------------------------------------------------------------------------
void camera_uart_handler (void)
{
    1264:	1141                	addi	sp,sp,-16
    1266:	c606                	sw	ra,12(sp)
    1268:	c422                	sw	s0,8(sp)
    126a:	0800                	addi	s0,sp,16
D:/projects/mechanical_arm/Firmware/CarMainControl/libraries/zf_device/zf_device_camera.c:36
    if(camera_type == CAMERA_BIN_UART)
    126c:	8481a703          	lw	a4,-1976(gp) # 20000268 <camera_type>
    1270:	4789                	li	a5,2
    1272:	00f70f63          	beq	a4,a5,1290 <camera_uart_handler+0x2c>
D:/projects/mechanical_arm/Firmware/CarMainControl/libraries/zf_device/zf_device_camera.c:41
    {
        // 小钻风暂不支持
        //ov7725_cof_uart_interrupt();
    }
    else if(camera_type == CAMERA_GRAYSCALE)
    1276:	8481a703          	lw	a4,-1976(gp) # 20000268 <camera_type>
    127a:	478d                	li	a5,3
    127c:	00f71463          	bne	a4,a5,1284 <camera_uart_handler+0x20>
D:/projects/mechanical_arm/Firmware/CarMainControl/libraries/zf_device/zf_device_camera.c:44
    {
        // 总钻风串口回调函数
        mt9v03x_uart_callback_dvp();
    1280:	2099                	jal	12c6 <mt9v03x_uart_callback_dvp>
D:/projects/mechanical_arm/Firmware/CarMainControl/libraries/zf_device/zf_device_camera.c:51
    else if(camera_type == CAMERA_COLOR)
    {
        //凌瞳串口回调函数
        scc8660_uart_callback_dvp();
    }
}
    1282:	a039                	j	1290 <camera_uart_handler+0x2c>
D:/projects/mechanical_arm/Firmware/CarMainControl/libraries/zf_device/zf_device_camera.c:46
    else if(camera_type == CAMERA_COLOR)
    1284:	8481a703          	lw	a4,-1976(gp) # 20000268 <camera_type>
    1288:	4791                	li	a5,4
    128a:	00f71363          	bne	a4,a5,1290 <camera_uart_handler+0x2c>
D:/projects/mechanical_arm/Firmware/CarMainControl/libraries/zf_device/zf_device_camera.c:49
        scc8660_uart_callback_dvp();
    128e:	2845                	jal	133e <scc8660_uart_callback_dvp>
D:/projects/mechanical_arm/Firmware/CarMainControl/libraries/zf_device/zf_device_camera.c:51
}
    1290:	0001                	nop
    1292:	40b2                	lw	ra,12(sp)
    1294:	4422                	lw	s0,8(sp)
    1296:	0141                	addi	sp,sp,16
    1298:	8082                	ret

0000129a <camera_dvp_handler>:
camera_dvp_handler():
D:/projects/mechanical_arm/Firmware/CarMainControl/libraries/zf_device/zf_device_camera.c:82
// @param       void
// @return      void
// Sample usage:
//-------------------------------------------------------------------------------------------------------------------
void camera_dvp_handler(void)
{
    129a:	1141                	addi	sp,sp,-16
    129c:	c606                	sw	ra,12(sp)
    129e:	c422                	sw	s0,8(sp)
    12a0:	0800                	addi	s0,sp,16
D:/projects/mechanical_arm/Firmware/CarMainControl/libraries/zf_device/zf_device_camera.c:83
    if(camera_type == CAMERA_COLOR)
    12a2:	8481a703          	lw	a4,-1976(gp) # 20000268 <camera_type>
    12a6:	4791                	li	a5,4
    12a8:	00f71463          	bne	a4,a5,12b0 <camera_dvp_handler+0x16>
D:/projects/mechanical_arm/Firmware/CarMainControl/libraries/zf_device/zf_device_camera.c:85
    {
        scc8660_vsync_dvp();
    12ac:	28dd                	jal	13a2 <scc8660_vsync_dvp>
D:/projects/mechanical_arm/Firmware/CarMainControl/libraries/zf_device/zf_device_camera.c:95
    }
    else if(camera_type == CAMERA_BIN_UART)
    {
        //小钻风不支持
    }
}
    12ae:	a039                	j	12bc <camera_dvp_handler+0x22>
D:/projects/mechanical_arm/Firmware/CarMainControl/libraries/zf_device/zf_device_camera.c:87
    else if(camera_type == CAMERA_GRAYSCALE)
    12b0:	8481a703          	lw	a4,-1976(gp) # 20000268 <camera_type>
    12b4:	478d                	li	a5,3
    12b6:	00f71363          	bne	a4,a5,12bc <camera_dvp_handler+0x22>
D:/projects/mechanical_arm/Firmware/CarMainControl/libraries/zf_device/zf_device_camera.c:89
        mt9v03x_handler_dvp();
    12ba:	2885                	jal	132a <mt9v03x_handler_dvp>
D:/projects/mechanical_arm/Firmware/CarMainControl/libraries/zf_device/zf_device_camera.c:95
}
    12bc:	0001                	nop
    12be:	40b2                	lw	ra,12(sp)
    12c0:	4422                	lw	s0,8(sp)
    12c2:	0141                	addi	sp,sp,16
    12c4:	8082                	ret

000012c6 <mt9v03x_uart_callback_dvp>:
mt9v03x_uart_callback_dvp():
D:/projects/mechanical_arm/Firmware/CarMainControl/libraries/zf_device/zf_device_mt9v03x_dvp.c:177
// @param       void
// @return      void
// Sample usage:
//-------------------------------------------------------------------------------------------------------------------
void mt9v03x_uart_callback_dvp (void)
{
    12c6:	1141                	addi	sp,sp,-16
    12c8:	c606                	sw	ra,12(sp)
    12ca:	c422                	sw	s0,8(sp)
    12cc:	0800                	addi	s0,sp,16
D:/projects/mechanical_arm/Firmware/CarMainControl/libraries/zf_device/zf_device_mt9v03x_dvp.c:181
//    receive_dvp[receive_num_dvp] = ((USART_TypeDef*)uart_index[MT9V03X_COF_UART_DVP])->DATAR & 0xFF;
//    receive_num_dvp++;

    if(uart_query_byte(MT9V03X_COF_UART_DVP, &receive_dvp[receive_num_dvp]))
    12ce:	8371c783          	lbu	a5,-1993(gp) # 20000257 <receive_num_dvp>
    12d2:	873e                	mv	a4,a5
    12d4:	83418793          	addi	a5,gp,-1996 # 20000254 <receive_dvp>
    12d8:	97ba                	add	a5,a5,a4
    12da:	85be                	mv	a1,a5
    12dc:	4511                	li	a0,4
    12de:	3125                	jal	f06 <uart_query_byte>
    12e0:	87aa                	mv	a5,a0
    12e2:	cb81                	beqz	a5,12f2 <mt9v03x_uart_callback_dvp+0x2c>
D:/projects/mechanical_arm/Firmware/CarMainControl/libraries/zf_device/zf_device_mt9v03x_dvp.c:182
        receive_num_dvp++;
    12e4:	8371c783          	lbu	a5,-1993(gp) # 20000257 <receive_num_dvp>
    12e8:	0785                	addi	a5,a5,1
    12ea:	0ff7f713          	andi	a4,a5,255
    12ee:	82e18ba3          	sb	a4,-1993(gp) # 20000257 <receive_num_dvp>
D:/projects/mechanical_arm/Firmware/CarMainControl/libraries/zf_device/zf_device_mt9v03x_dvp.c:184

    if(1 == receive_num_dvp && 0XA5!=receive_dvp[0])
    12f2:	8371c703          	lbu	a4,-1993(gp) # 20000257 <receive_num_dvp>
    12f6:	4785                	li	a5,1
    12f8:	00f71a63          	bne	a4,a5,130c <mt9v03x_uart_callback_dvp+0x46>
D:/projects/mechanical_arm/Firmware/CarMainControl/libraries/zf_device/zf_device_mt9v03x_dvp.c:184 (discriminator 1)
    12fc:	8341c703          	lbu	a4,-1996(gp) # 20000254 <receive_dvp>
    1300:	0a500793          	li	a5,165
    1304:	00f70463          	beq	a4,a5,130c <mt9v03x_uart_callback_dvp+0x46>
D:/projects/mechanical_arm/Firmware/CarMainControl/libraries/zf_device/zf_device_mt9v03x_dvp.c:185
        receive_num_dvp = 0;
    1308:	82018ba3          	sb	zero,-1993(gp) # 20000257 <receive_num_dvp>
D:/projects/mechanical_arm/Firmware/CarMainControl/libraries/zf_device/zf_device_mt9v03x_dvp.c:186
    if(3 == receive_num_dvp)
    130c:	8371c703          	lbu	a4,-1993(gp) # 20000257 <receive_num_dvp>
    1310:	478d                	li	a5,3
    1312:	00f71763          	bne	a4,a5,1320 <mt9v03x_uart_callback_dvp+0x5a>
D:/projects/mechanical_arm/Firmware/CarMainControl/libraries/zf_device/zf_device_mt9v03x_dvp.c:188
    {
        receive_num_dvp = 0;
    1316:	82018ba3          	sb	zero,-1993(gp) # 20000257 <receive_num_dvp>
D:/projects/mechanical_arm/Firmware/CarMainControl/libraries/zf_device/zf_device_mt9v03x_dvp.c:189
        uart_receive_flag_dvp = 1;
    131a:	4705                	li	a4,1
    131c:	82e18c23          	sb	a4,-1992(gp) # 20000258 <uart_receive_flag_dvp>
D:/projects/mechanical_arm/Firmware/CarMainControl/libraries/zf_device/zf_device_mt9v03x_dvp.c:191
    }
}
    1320:	0001                	nop
    1322:	40b2                	lw	ra,12(sp)
    1324:	4422                	lw	s0,8(sp)
    1326:	0141                	addi	sp,sp,16
    1328:	8082                	ret

0000132a <mt9v03x_handler_dvp>:
mt9v03x_handler_dvp():
D:/projects/mechanical_arm/Firmware/CarMainControl/libraries/zf_device/zf_device_mt9v03x_dvp.c:306
//  @return     void
//  @since      v1.0
//  Sample usage:               在isr.c里面先创建对应的中断函数，然后调用该函数(之后别忘记清除中断标志位)
//-------------------------------------------------------------------------------------------------------------------
void mt9v03x_handler_dvp(void)
{
    132a:	1141                	addi	sp,sp,-16
    132c:	c622                	sw	s0,12(sp)
    132e:	0800                	addi	s0,sp,16
D:/projects/mechanical_arm/Firmware/CarMainControl/libraries/zf_device/zf_device_mt9v03x_dvp.c:309
    //已经修改为循环采集模式。不需要设置地址和开启DVP
    //DVP->DMA_BUF0 = (uint32)camera_buffer_addr;       // 恢复DMA地址
    mt9v03x_finish_flag_dvp = 1;                        // 摄像头采集完成标志位置1
    1330:	4705                	li	a4,1
    1332:	82e18923          	sb	a4,-1998(gp) # 20000252 <mt9v03x_finish_flag_dvp>
D:/projects/mechanical_arm/Firmware/CarMainControl/libraries/zf_device/zf_device_mt9v03x_dvp.c:312
    //已经修改为循环采集模式。不需要设置地址和开启DVP
    //DVP->CR0 |= RB_DVP_ENABLE;                          // 重新打开DVP，采集下一副图像
}
    1336:	0001                	nop
    1338:	4432                	lw	s0,12(sp)
    133a:	0141                	addi	sp,sp,16
    133c:	8082                	ret

0000133e <scc8660_uart_callback_dvp>:
scc8660_uart_callback_dvp():
D:/projects/mechanical_arm/Firmware/CarMainControl/libraries/zf_device/zf_device_scc8660_dvp.c:106
//  @since      v1.0
//  Sample usage:	
//  @note       该函数在SDK底层fsl_lpuart文件中的串口3中断函数内调用
//-------------------------------------------------------------------------------------------------------------------
void scc8660_uart_callback_dvp(void)
{
    133e:	1141                	addi	sp,sp,-16
    1340:	c606                	sw	ra,12(sp)
    1342:	c422                	sw	s0,8(sp)
    1344:	0800                	addi	s0,sp,16
D:/projects/mechanical_arm/Firmware/CarMainControl/libraries/zf_device/zf_device_scc8660_dvp.c:107
    if(uart_query_byte(SCC8660_COF_UART_DVP, &scc8660_uart_receive_dvp[scc8660_uart_receive_num_dvp]))
    1346:	83f1c783          	lbu	a5,-1985(gp) # 2000025f <scc8660_uart_receive_num_dvp>
    134a:	873e                	mv	a4,a5
    134c:	83c18793          	addi	a5,gp,-1988 # 2000025c <scc8660_uart_receive_dvp>
    1350:	97ba                	add	a5,a5,a4
    1352:	85be                	mv	a1,a5
    1354:	4511                	li	a0,4
    1356:	3e45                	jal	f06 <uart_query_byte>
    1358:	87aa                	mv	a5,a0
    135a:	cb81                	beqz	a5,136a <scc8660_uart_callback_dvp+0x2c>
D:/projects/mechanical_arm/Firmware/CarMainControl/libraries/zf_device/zf_device_scc8660_dvp.c:108
        scc8660_uart_receive_num_dvp++;
    135c:	83f1c783          	lbu	a5,-1985(gp) # 2000025f <scc8660_uart_receive_num_dvp>
    1360:	0785                	addi	a5,a5,1
    1362:	0ff7f713          	andi	a4,a5,255
    1366:	82e18fa3          	sb	a4,-1985(gp) # 2000025f <scc8660_uart_receive_num_dvp>
D:/projects/mechanical_arm/Firmware/CarMainControl/libraries/zf_device/zf_device_scc8660_dvp.c:110

    if(1==scc8660_uart_receive_num_dvp && 0XA5!=scc8660_uart_receive_dvp[0])  scc8660_uart_receive_num_dvp = 0;
    136a:	83f1c703          	lbu	a4,-1985(gp) # 2000025f <scc8660_uart_receive_num_dvp>
    136e:	4785                	li	a5,1
    1370:	00f71a63          	bne	a4,a5,1384 <scc8660_uart_callback_dvp+0x46>
D:/projects/mechanical_arm/Firmware/CarMainControl/libraries/zf_device/zf_device_scc8660_dvp.c:110 (discriminator 1)
    1374:	83c1c703          	lbu	a4,-1988(gp) # 2000025c <scc8660_uart_receive_dvp>
    1378:	0a500793          	li	a5,165
    137c:	00f70463          	beq	a4,a5,1384 <scc8660_uart_callback_dvp+0x46>
D:/projects/mechanical_arm/Firmware/CarMainControl/libraries/zf_device/zf_device_scc8660_dvp.c:110 (discriminator 2)
    1380:	82018fa3          	sb	zero,-1985(gp) # 2000025f <scc8660_uart_receive_num_dvp>
D:/projects/mechanical_arm/Firmware/CarMainControl/libraries/zf_device/zf_device_scc8660_dvp.c:111
    if(3 == scc8660_uart_receive_num_dvp)
    1384:	83f1c703          	lbu	a4,-1985(gp) # 2000025f <scc8660_uart_receive_num_dvp>
    1388:	478d                	li	a5,3
    138a:	00f71763          	bne	a4,a5,1398 <scc8660_uart_callback_dvp+0x5a>
D:/projects/mechanical_arm/Firmware/CarMainControl/libraries/zf_device/zf_device_scc8660_dvp.c:113
    {
        scc8660_uart_receive_num_dvp = 0;
    138e:	82018fa3          	sb	zero,-1985(gp) # 2000025f <scc8660_uart_receive_num_dvp>
D:/projects/mechanical_arm/Firmware/CarMainControl/libraries/zf_device/zf_device_scc8660_dvp.c:114
        scc8660_uart_receive_flag_dvp = 1;
    1392:	4705                	li	a4,1
    1394:	84e18023          	sb	a4,-1984(gp) # 20000260 <scc8660_uart_receive_flag_dvp>
D:/projects/mechanical_arm/Firmware/CarMainControl/libraries/zf_device/zf_device_scc8660_dvp.c:116
    }
}
    1398:	0001                	nop
    139a:	40b2                	lw	ra,12(sp)
    139c:	4422                	lw	s0,8(sp)
    139e:	0141                	addi	sp,sp,16
    13a0:	8082                	ret

000013a2 <scc8660_vsync_dvp>:
scc8660_vsync_dvp():
D:/projects/mechanical_arm/Firmware/CarMainControl/libraries/zf_device/zf_device_scc8660_dvp.c:452
//  @return     void
//  @since      v1.0
//  Sample usage:               在isr.c里面先创建对应的中断函数，然后调用该函数(之后别忘记清除中断标志位)
//-------------------------------------------------------------------------------------------------------------------
void scc8660_vsync_dvp(void)
{
    13a2:	1141                	addi	sp,sp,-16
    13a4:	c622                	sw	s0,12(sp)
    13a6:	0800                	addi	s0,sp,16
D:/projects/mechanical_arm/Firmware/CarMainControl/libraries/zf_device/zf_device_scc8660_dvp.c:458
    //已经修改为循环采集模式。不需要设置地址和开启DVP
    //恢复DMA地址
    //DVP->DMA_BUF0 = (uint32)camera_buffer_addr;

    //采集完成标志位置1
    scc8660_finish_flag_dvp = 1;
    13a8:	4705                	li	a4,1
    13aa:	84e180a3          	sb	a4,-1983(gp) # 20000261 <scc8660_finish_flag_dvp>
D:/projects/mechanical_arm/Firmware/CarMainControl/libraries/zf_device/zf_device_scc8660_dvp.c:463

    //已经修改为循环采集模式。不需要设置地址和开启DVP
    //开启DVP
    //DVP->CR0 |= RB_DVP_ENABLE;
}
    13ae:	0001                	nop
    13b0:	4432                	lw	s0,12(sp)
    13b2:	0141                	addi	sp,sp,16
    13b4:	8082                	ret

000013b6 <tft180_write_index>:
tft180_write_index():
D:/projects/mechanical_arm/Firmware/CarMainControl/libraries/zf_device/zf_device_tft180.c:58
//-------------------------------------------------------------------------------------------------------------------
// @brief       写命令 内部调用
// @note        内部调用 用户无需关心
//-------------------------------------------------------------------------------------------------------------------
static void tft180_write_index (uint8 dat)
{
    13b6:	1101                	addi	sp,sp,-32
    13b8:	ce06                	sw	ra,28(sp)
    13ba:	cc22                	sw	s0,24(sp)
    13bc:	1000                	addi	s0,sp,32
    13be:	87aa                	mv	a5,a0
    13c0:	fef407a3          	sb	a5,-17(s0)
D:/projects/mechanical_arm/Firmware/CarMainControl/libraries/zf_device/zf_device_tft180.c:59
    TFT180_CS(1);
    13c4:	67a9                	lui	a5,0xa
    13c6:	89478793          	addi	a5,a5,-1900 # 9894 <gpio_group>
    13ca:	47dc                	lw	a5,12(a5)
    13cc:	873e                	mv	a4,a5
    13ce:	47c1                	li	a5,16
    13d0:	cb1c                	sw	a5,16(a4)
D:/projects/mechanical_arm/Firmware/CarMainControl/libraries/zf_device/zf_device_tft180.c:60
    TFT180_CS(0);
    13d2:	67a9                	lui	a5,0xa
    13d4:	89478793          	addi	a5,a5,-1900 # 9894 <gpio_group>
    13d8:	47dc                	lw	a5,12(a5)
    13da:	873e                	mv	a4,a5
    13dc:	47c1                	li	a5,16
    13de:	cb5c                	sw	a5,20(a4)
D:/projects/mechanical_arm/Firmware/CarMainControl/libraries/zf_device/zf_device_tft180.c:61
    TFT180_DC(0);
    13e0:	67a9                	lui	a5,0xa
    13e2:	89478793          	addi	a5,a5,-1900 # 9894 <gpio_group>
    13e6:	47dc                	lw	a5,12(a5)
    13e8:	873e                	mv	a4,a5
    13ea:	08000793          	li	a5,128
    13ee:	cb5c                	sw	a5,20(a4)
D:/projects/mechanical_arm/Firmware/CarMainControl/libraries/zf_device/zf_device_tft180.c:62
    tft180_write_8bit_data(dat);
    13f0:	fef44783          	lbu	a5,-17(s0)
    13f4:	85be                	mv	a1,a5
    13f6:	4505                	li	a0,1
    13f8:	d84ff0ef          	jal	ra,97c <spi_write_8bit>
D:/projects/mechanical_arm/Firmware/CarMainControl/libraries/zf_device/zf_device_tft180.c:63
    TFT180_CS(1);
    13fc:	67a9                	lui	a5,0xa
    13fe:	89478793          	addi	a5,a5,-1900 # 9894 <gpio_group>
    1402:	47dc                	lw	a5,12(a5)
    1404:	873e                	mv	a4,a5
    1406:	47c1                	li	a5,16
    1408:	cb1c                	sw	a5,16(a4)
D:/projects/mechanical_arm/Firmware/CarMainControl/libraries/zf_device/zf_device_tft180.c:64
    TFT180_DC(1);
    140a:	67a9                	lui	a5,0xa
    140c:	89478793          	addi	a5,a5,-1900 # 9894 <gpio_group>
    1410:	47dc                	lw	a5,12(a5)
    1412:	873e                	mv	a4,a5
    1414:	08000793          	li	a5,128
    1418:	cb1c                	sw	a5,16(a4)
D:/projects/mechanical_arm/Firmware/CarMainControl/libraries/zf_device/zf_device_tft180.c:65
    TFT180_CS(0);
    141a:	67a9                	lui	a5,0xa
    141c:	89478793          	addi	a5,a5,-1900 # 9894 <gpio_group>
    1420:	47dc                	lw	a5,12(a5)
    1422:	873e                	mv	a4,a5
    1424:	47c1                	li	a5,16
    1426:	cb5c                	sw	a5,20(a4)
D:/projects/mechanical_arm/Firmware/CarMainControl/libraries/zf_device/zf_device_tft180.c:66
}
    1428:	0001                	nop
    142a:	40f2                	lw	ra,28(sp)
    142c:	4462                	lw	s0,24(sp)
    142e:	6105                	addi	sp,sp,32
    1430:	8082                	ret

00001432 <tft180_set_region>:
tft180_set_region():
D:/projects/mechanical_arm/Firmware/CarMainControl/libraries/zf_device/zf_device_tft180.c:78
// @param       y2              结束y轴坐标
// @return      void
// @note        内部调用 用户无需关心
//-------------------------------------------------------------------------------------------------------------------
static void tft180_set_region (uint16 x1, uint16 y1, uint16 x2, uint16 y2)
{
    1432:	1101                	addi	sp,sp,-32
    1434:	ce06                	sw	ra,28(sp)
    1436:	cc22                	sw	s0,24(sp)
    1438:	1000                	addi	s0,sp,32
    143a:	87aa                	mv	a5,a0
    143c:	8736                	mv	a4,a3
    143e:	fef41723          	sh	a5,-18(s0)
    1442:	87ae                	mv	a5,a1
    1444:	fef41623          	sh	a5,-20(s0)
    1448:	87b2                	mv	a5,a2
    144a:	fef41523          	sh	a5,-22(s0)
    144e:	87ba                	mv	a5,a4
    1450:	fef41423          	sh	a5,-24(s0)
D:/projects/mechanical_arm/Firmware/CarMainControl/libraries/zf_device/zf_device_tft180.c:79
    zf_assert(x1 < tft180_x_max);
    1454:	200007b7          	lui	a5,0x20000
    1458:	2247c783          	lbu	a5,548(a5) # 20000224 <tft180_x_max>
    145c:	07c2                	slli	a5,a5,0x10
    145e:	83c1                	srli	a5,a5,0x10
    1460:	fee45703          	lhu	a4,-18(s0)
    1464:	00f737b3          	sltu	a5,a4,a5
    1468:	0ff7f793          	andi	a5,a5,255
    146c:	873e                	mv	a4,a5
    146e:	04f00613          	li	a2,79
    1472:	67a5                	lui	a5,0x9
    1474:	79078593          	addi	a1,a5,1936 # 9790 <_sbrk+0x78>
    1478:	853a                	mv	a0,a4
    147a:	4a9000ef          	jal	ra,2122 <debug_assert_handler>
D:/projects/mechanical_arm/Firmware/CarMainControl/libraries/zf_device/zf_device_tft180.c:80
    zf_assert(y1 < tft180_y_max);
    147e:	8051c783          	lbu	a5,-2043(gp) # 20000225 <tft180_y_max>
    1482:	07c2                	slli	a5,a5,0x10
    1484:	83c1                	srli	a5,a5,0x10
    1486:	fec45703          	lhu	a4,-20(s0)
    148a:	00f737b3          	sltu	a5,a4,a5
    148e:	0ff7f793          	andi	a5,a5,255
    1492:	873e                	mv	a4,a5
    1494:	05000613          	li	a2,80
    1498:	67a5                	lui	a5,0x9
    149a:	79078593          	addi	a1,a5,1936 # 9790 <_sbrk+0x78>
    149e:	853a                	mv	a0,a4
    14a0:	483000ef          	jal	ra,2122 <debug_assert_handler>
D:/projects/mechanical_arm/Firmware/CarMainControl/libraries/zf_device/zf_device_tft180.c:81
    zf_assert(x2 < tft180_x_max);
    14a4:	200007b7          	lui	a5,0x20000
    14a8:	2247c783          	lbu	a5,548(a5) # 20000224 <tft180_x_max>
    14ac:	07c2                	slli	a5,a5,0x10
    14ae:	83c1                	srli	a5,a5,0x10
    14b0:	fea45703          	lhu	a4,-22(s0)
    14b4:	00f737b3          	sltu	a5,a4,a5
    14b8:	0ff7f793          	andi	a5,a5,255
    14bc:	873e                	mv	a4,a5
    14be:	05100613          	li	a2,81
    14c2:	67a5                	lui	a5,0x9
    14c4:	79078593          	addi	a1,a5,1936 # 9790 <_sbrk+0x78>
    14c8:	853a                	mv	a0,a4
    14ca:	459000ef          	jal	ra,2122 <debug_assert_handler>
D:/projects/mechanical_arm/Firmware/CarMainControl/libraries/zf_device/zf_device_tft180.c:82
    zf_assert(y2 < tft180_y_max);
    14ce:	8051c783          	lbu	a5,-2043(gp) # 20000225 <tft180_y_max>
    14d2:	07c2                	slli	a5,a5,0x10
    14d4:	83c1                	srli	a5,a5,0x10
    14d6:	fe845703          	lhu	a4,-24(s0)
    14da:	00f737b3          	sltu	a5,a4,a5
    14de:	0ff7f793          	andi	a5,a5,255
    14e2:	873e                	mv	a4,a5
    14e4:	05200613          	li	a2,82
    14e8:	67a5                	lui	a5,0x9
    14ea:	79078593          	addi	a1,a5,1936 # 9790 <_sbrk+0x78>
    14ee:	853a                	mv	a0,a4
    14f0:	433000ef          	jal	ra,2122 <debug_assert_handler>
D:/projects/mechanical_arm/Firmware/CarMainControl/libraries/zf_device/zf_device_tft180.c:84

    if(tft180_display_dir==TFT180_PORTAIT || tft180_display_dir==TFT180_PORTAIT_180)
    14f4:	8441a783          	lw	a5,-1980(gp) # 20000264 <tft180_display_dir>
    14f8:	c791                	beqz	a5,1504 <tft180_set_region+0xd2>
D:/projects/mechanical_arm/Firmware/CarMainControl/libraries/zf_device/zf_device_tft180.c:84 (discriminator 1)
    14fa:	8441a703          	lw	a4,-1980(gp) # 20000264 <tft180_display_dir>
    14fe:	4785                	li	a5,1
    1500:	08f71563          	bne	a4,a5,158a <tft180_set_region+0x158>
D:/projects/mechanical_arm/Firmware/CarMainControl/libraries/zf_device/zf_device_tft180.c:86
    {
        tft180_write_index(0x2a);
    1504:	02a00513          	li	a0,42
    1508:	357d                	jal	13b6 <tft180_write_index>
D:/projects/mechanical_arm/Firmware/CarMainControl/libraries/zf_device/zf_device_tft180.c:87
        tft180_write_8bit_data(0x00);
    150a:	4581                	li	a1,0
    150c:	4505                	li	a0,1
    150e:	c6eff0ef          	jal	ra,97c <spi_write_8bit>
D:/projects/mechanical_arm/Firmware/CarMainControl/libraries/zf_device/zf_device_tft180.c:88
        tft180_write_8bit_data(x1+2);
    1512:	fee45783          	lhu	a5,-18(s0)
    1516:	0ff7f793          	andi	a5,a5,255
    151a:	0789                	addi	a5,a5,2
    151c:	0ff7f793          	andi	a5,a5,255
    1520:	85be                	mv	a1,a5
    1522:	4505                	li	a0,1
    1524:	c58ff0ef          	jal	ra,97c <spi_write_8bit>
D:/projects/mechanical_arm/Firmware/CarMainControl/libraries/zf_device/zf_device_tft180.c:89
        tft180_write_8bit_data(0x00);
    1528:	4581                	li	a1,0
    152a:	4505                	li	a0,1
    152c:	c50ff0ef          	jal	ra,97c <spi_write_8bit>
D:/projects/mechanical_arm/Firmware/CarMainControl/libraries/zf_device/zf_device_tft180.c:90
        tft180_write_8bit_data(x2+2);
    1530:	fea45783          	lhu	a5,-22(s0)
    1534:	0ff7f793          	andi	a5,a5,255
    1538:	0789                	addi	a5,a5,2
    153a:	0ff7f793          	andi	a5,a5,255
    153e:	85be                	mv	a1,a5
    1540:	4505                	li	a0,1
    1542:	c3aff0ef          	jal	ra,97c <spi_write_8bit>
D:/projects/mechanical_arm/Firmware/CarMainControl/libraries/zf_device/zf_device_tft180.c:92

        tft180_write_index(0x2b);
    1546:	02b00513          	li	a0,43
    154a:	35b5                	jal	13b6 <tft180_write_index>
D:/projects/mechanical_arm/Firmware/CarMainControl/libraries/zf_device/zf_device_tft180.c:93
        tft180_write_8bit_data(0x00);
    154c:	4581                	li	a1,0
    154e:	4505                	li	a0,1
    1550:	c2cff0ef          	jal	ra,97c <spi_write_8bit>
D:/projects/mechanical_arm/Firmware/CarMainControl/libraries/zf_device/zf_device_tft180.c:94
        tft180_write_8bit_data(y1+1);
    1554:	fec45783          	lhu	a5,-20(s0)
    1558:	0ff7f793          	andi	a5,a5,255
    155c:	0785                	addi	a5,a5,1
    155e:	0ff7f793          	andi	a5,a5,255
    1562:	85be                	mv	a1,a5
    1564:	4505                	li	a0,1
    1566:	c16ff0ef          	jal	ra,97c <spi_write_8bit>
D:/projects/mechanical_arm/Firmware/CarMainControl/libraries/zf_device/zf_device_tft180.c:95
        tft180_write_8bit_data(0x00);
    156a:	4581                	li	a1,0
    156c:	4505                	li	a0,1
    156e:	c0eff0ef          	jal	ra,97c <spi_write_8bit>
D:/projects/mechanical_arm/Firmware/CarMainControl/libraries/zf_device/zf_device_tft180.c:96
        tft180_write_8bit_data(y2+1);
    1572:	fe845783          	lhu	a5,-24(s0)
    1576:	0ff7f793          	andi	a5,a5,255
    157a:	0785                	addi	a5,a5,1
    157c:	0ff7f793          	andi	a5,a5,255
    1580:	85be                	mv	a1,a5
    1582:	4505                	li	a0,1
    1584:	bf8ff0ef          	jal	ra,97c <spi_write_8bit>
    1588:	a059                	j	160e <tft180_set_region+0x1dc>
D:/projects/mechanical_arm/Firmware/CarMainControl/libraries/zf_device/zf_device_tft180.c:100
    }
    else
    {
        tft180_write_index(0x2a);
    158a:	02a00513          	li	a0,42
    158e:	3525                	jal	13b6 <tft180_write_index>
D:/projects/mechanical_arm/Firmware/CarMainControl/libraries/zf_device/zf_device_tft180.c:101
        tft180_write_8bit_data(0x00);
    1590:	4581                	li	a1,0
    1592:	4505                	li	a0,1
    1594:	be8ff0ef          	jal	ra,97c <spi_write_8bit>
D:/projects/mechanical_arm/Firmware/CarMainControl/libraries/zf_device/zf_device_tft180.c:102
        tft180_write_8bit_data(x1+1);
    1598:	fee45783          	lhu	a5,-18(s0)
    159c:	0ff7f793          	andi	a5,a5,255
    15a0:	0785                	addi	a5,a5,1
    15a2:	0ff7f793          	andi	a5,a5,255
    15a6:	85be                	mv	a1,a5
    15a8:	4505                	li	a0,1
    15aa:	bd2ff0ef          	jal	ra,97c <spi_write_8bit>
D:/projects/mechanical_arm/Firmware/CarMainControl/libraries/zf_device/zf_device_tft180.c:103
        tft180_write_8bit_data(0x0);
    15ae:	4581                	li	a1,0
    15b0:	4505                	li	a0,1
    15b2:	bcaff0ef          	jal	ra,97c <spi_write_8bit>
D:/projects/mechanical_arm/Firmware/CarMainControl/libraries/zf_device/zf_device_tft180.c:104
        tft180_write_8bit_data(x2+1);
    15b6:	fea45783          	lhu	a5,-22(s0)
    15ba:	0ff7f793          	andi	a5,a5,255
    15be:	0785                	addi	a5,a5,1
    15c0:	0ff7f793          	andi	a5,a5,255
    15c4:	85be                	mv	a1,a5
    15c6:	4505                	li	a0,1
    15c8:	bb4ff0ef          	jal	ra,97c <spi_write_8bit>
D:/projects/mechanical_arm/Firmware/CarMainControl/libraries/zf_device/zf_device_tft180.c:106

        tft180_write_index(0x2b);
    15cc:	02b00513          	li	a0,43
    15d0:	33dd                	jal	13b6 <tft180_write_index>
D:/projects/mechanical_arm/Firmware/CarMainControl/libraries/zf_device/zf_device_tft180.c:107
        tft180_write_8bit_data(0x00);
    15d2:	4581                	li	a1,0
    15d4:	4505                	li	a0,1
    15d6:	ba6ff0ef          	jal	ra,97c <spi_write_8bit>
D:/projects/mechanical_arm/Firmware/CarMainControl/libraries/zf_device/zf_device_tft180.c:108
        tft180_write_8bit_data(y1+2);
    15da:	fec45783          	lhu	a5,-20(s0)
    15de:	0ff7f793          	andi	a5,a5,255
    15e2:	0789                	addi	a5,a5,2
    15e4:	0ff7f793          	andi	a5,a5,255
    15e8:	85be                	mv	a1,a5
    15ea:	4505                	li	a0,1
    15ec:	b90ff0ef          	jal	ra,97c <spi_write_8bit>
D:/projects/mechanical_arm/Firmware/CarMainControl/libraries/zf_device/zf_device_tft180.c:109
        tft180_write_8bit_data(0x00);
    15f0:	4581                	li	a1,0
    15f2:	4505                	li	a0,1
    15f4:	b88ff0ef          	jal	ra,97c <spi_write_8bit>
D:/projects/mechanical_arm/Firmware/CarMainControl/libraries/zf_device/zf_device_tft180.c:110
        tft180_write_8bit_data(y2+2);
    15f8:	fe845783          	lhu	a5,-24(s0)
    15fc:	0ff7f793          	andi	a5,a5,255
    1600:	0789                	addi	a5,a5,2
    1602:	0ff7f793          	andi	a5,a5,255
    1606:	85be                	mv	a1,a5
    1608:	4505                	li	a0,1
    160a:	b72ff0ef          	jal	ra,97c <spi_write_8bit>
D:/projects/mechanical_arm/Firmware/CarMainControl/libraries/zf_device/zf_device_tft180.c:112
    }
    tft180_write_index(0x2c);
    160e:	02c00513          	li	a0,44
    1612:	3355                	jal	13b6 <tft180_write_index>
D:/projects/mechanical_arm/Firmware/CarMainControl/libraries/zf_device/zf_device_tft180.c:113
}
    1614:	0001                	nop
    1616:	40f2                	lw	ra,28(sp)
    1618:	4462                	lw	s0,24(sp)
    161a:	6105                	addi	sp,sp,32
    161c:	8082                	ret

0000161e <tft180_clear>:
tft180_clear():
D:/projects/mechanical_arm/Firmware/CarMainControl/libraries/zf_device/zf_device_tft180.c:122
// @param       color           颜色格式 RGB565 或者可以使用 zf_common_font.h 内常用颜色宏定义
// @return      void
// Sample usage:                tft180_clear(YELLOW);
//-------------------------------------------------------------------------------------------------------------------
void tft180_clear (uint16 color)
{
    161e:	7179                	addi	sp,sp,-48
    1620:	d606                	sw	ra,44(sp)
    1622:	d422                	sw	s0,40(sp)
    1624:	1800                	addi	s0,sp,48
    1626:	87aa                	mv	a5,a0
    1628:	fcf41f23          	sh	a5,-34(s0)
D:/projects/mechanical_arm/Firmware/CarMainControl/libraries/zf_device/zf_device_tft180.c:123
    uint32 i = tft180_x_max*tft180_y_max;
    162c:	200007b7          	lui	a5,0x20000
    1630:	2247c783          	lbu	a5,548(a5) # 20000224 <tft180_x_max>
    1634:	873e                	mv	a4,a5
    1636:	8051c783          	lbu	a5,-2043(gp) # 20000225 <tft180_y_max>
    163a:	02f707b3          	mul	a5,a4,a5
    163e:	fef42623          	sw	a5,-20(s0)
D:/projects/mechanical_arm/Firmware/CarMainControl/libraries/zf_device/zf_device_tft180.c:125

    tft180_set_region(0,0,tft180_x_max-1,tft180_y_max-1);
    1642:	200007b7          	lui	a5,0x20000
    1646:	2247c783          	lbu	a5,548(a5) # 20000224 <tft180_x_max>
    164a:	07c2                	slli	a5,a5,0x10
    164c:	83c1                	srli	a5,a5,0x10
    164e:	17fd                	addi	a5,a5,-1
    1650:	01079713          	slli	a4,a5,0x10
    1654:	8341                	srli	a4,a4,0x10
    1656:	8051c783          	lbu	a5,-2043(gp) # 20000225 <tft180_y_max>
    165a:	07c2                	slli	a5,a5,0x10
    165c:	83c1                	srli	a5,a5,0x10
    165e:	17fd                	addi	a5,a5,-1
    1660:	07c2                	slli	a5,a5,0x10
    1662:	83c1                	srli	a5,a5,0x10
    1664:	86be                	mv	a3,a5
    1666:	863a                	mv	a2,a4
    1668:	4581                	li	a1,0
    166a:	4501                	li	a0,0
    166c:	33d9                	jal	1432 <tft180_set_region>
D:/projects/mechanical_arm/Firmware/CarMainControl/libraries/zf_device/zf_device_tft180.c:126
    for( ; i>0; i--)
    166e:	a821                	j	1686 <tft180_clear+0x68>
D:/projects/mechanical_arm/Firmware/CarMainControl/libraries/zf_device/zf_device_tft180.c:128 (discriminator 2)
    {
        tft180_write_16bit_data(color);
    1670:	fde45783          	lhu	a5,-34(s0)
    1674:	85be                	mv	a1,a5
    1676:	4505                	li	a0,1
    1678:	b5aff0ef          	jal	ra,9d2 <spi_write_16bit>
D:/projects/mechanical_arm/Firmware/CarMainControl/libraries/zf_device/zf_device_tft180.c:126 (discriminator 2)
    for( ; i>0; i--)
    167c:	fec42783          	lw	a5,-20(s0)
    1680:	17fd                	addi	a5,a5,-1
    1682:	fef42623          	sw	a5,-20(s0)
D:/projects/mechanical_arm/Firmware/CarMainControl/libraries/zf_device/zf_device_tft180.c:126 (discriminator 1)
    1686:	fec42783          	lw	a5,-20(s0)
    168a:	f3fd                	bnez	a5,1670 <tft180_clear+0x52>
D:/projects/mechanical_arm/Firmware/CarMainControl/libraries/zf_device/zf_device_tft180.c:130
    }
}
    168c:	0001                	nop
    168e:	50b2                	lw	ra,44(sp)
    1690:	5422                	lw	s0,40(sp)
    1692:	6145                	addi	sp,sp,48
    1694:	8082                	ret

00001696 <tft180_set_dir>:
tft180_set_dir():
D:/projects/mechanical_arm/Firmware/CarMainControl/libraries/zf_device/zf_device_tft180.c:139
// @param       dir             显示方向  参照 zf_device_ips114.h 内 tft180_dir_enum 枚举体定义
// @return      void
// Sample usage:                tft180_set_dir(TFT180_CROSSWISE);
//-------------------------------------------------------------------------------------------------------------------
void tft180_set_dir (tft180_dir_enum dir)
{
    1696:	1101                	addi	sp,sp,-32
    1698:	ce22                	sw	s0,28(sp)
    169a:	1000                	addi	s0,sp,32
    169c:	fea42623          	sw	a0,-20(s0)
D:/projects/mechanical_arm/Firmware/CarMainControl/libraries/zf_device/zf_device_tft180.c:140
    tft180_display_dir = dir;
    16a0:	fec42703          	lw	a4,-20(s0)
    16a4:	84e1a223          	sw	a4,-1980(gp) # 20000264 <tft180_display_dir>
D:/projects/mechanical_arm/Firmware/CarMainControl/libraries/zf_device/zf_device_tft180.c:141
    if(dir < 2)
    16a8:	fec42703          	lw	a4,-20(s0)
    16ac:	4785                	li	a5,1
    16ae:	00e7ed63          	bltu	a5,a4,16c8 <tft180_set_dir+0x32>
D:/projects/mechanical_arm/Firmware/CarMainControl/libraries/zf_device/zf_device_tft180.c:143
    {
        tft180_x_max = 128;
    16b2:	200007b7          	lui	a5,0x20000
    16b6:	f8000713          	li	a4,-128
    16ba:	22e78223          	sb	a4,548(a5) # 20000224 <tft180_x_max>
D:/projects/mechanical_arm/Firmware/CarMainControl/libraries/zf_device/zf_device_tft180.c:144
        tft180_y_max = 160;
    16be:	fa000713          	li	a4,-96
    16c2:	80e182a3          	sb	a4,-2043(gp) # 20000225 <tft180_y_max>
D:/projects/mechanical_arm/Firmware/CarMainControl/libraries/zf_device/zf_device_tft180.c:151
    else
    {
        tft180_x_max = 160;
        tft180_y_max = 128;
    }
}
    16c6:	a819                	j	16dc <tft180_set_dir+0x46>
D:/projects/mechanical_arm/Firmware/CarMainControl/libraries/zf_device/zf_device_tft180.c:148
        tft180_x_max = 160;
    16c8:	200007b7          	lui	a5,0x20000
    16cc:	fa000713          	li	a4,-96
    16d0:	22e78223          	sb	a4,548(a5) # 20000224 <tft180_x_max>
D:/projects/mechanical_arm/Firmware/CarMainControl/libraries/zf_device/zf_device_tft180.c:149
        tft180_y_max = 128;
    16d4:	f8000713          	li	a4,-128
    16d8:	80e182a3          	sb	a4,-2043(gp) # 20000225 <tft180_y_max>
D:/projects/mechanical_arm/Firmware/CarMainControl/libraries/zf_device/zf_device_tft180.c:151
}
    16dc:	0001                	nop
    16de:	4472                	lw	s0,28(sp)
    16e0:	6105                	addi	sp,sp,32
    16e2:	8082                	ret

000016e4 <tft180_set_color>:
tft180_set_color():
D:/projects/mechanical_arm/Firmware/CarMainControl/libraries/zf_device/zf_device_tft180.c:161
// @param       bgcolor         颜色格式 RGB565 或者可以使用 zf_common_font.h 内常用颜色宏定义
// @return      void
// Sample usage:                tft180_set_color(WHITE,BLACK);
//-------------------------------------------------------------------------------------------------------------------
void tft180_set_color (uint16 pen, uint16 bgcolor)
{
    16e4:	1101                	addi	sp,sp,-32
    16e6:	ce22                	sw	s0,28(sp)
    16e8:	1000                	addi	s0,sp,32
    16ea:	87aa                	mv	a5,a0
    16ec:	872e                	mv	a4,a1
    16ee:	fef41723          	sh	a5,-18(s0)
    16f2:	87ba                	mv	a5,a4
    16f4:	fef41623          	sh	a5,-20(s0)
D:/projects/mechanical_arm/Firmware/CarMainControl/libraries/zf_device/zf_device_tft180.c:162
    tft180_pencolor = pen;
    16f8:	200007b7          	lui	a5,0x20000
    16fc:	fee45703          	lhu	a4,-18(s0)
    1700:	22e79023          	sh	a4,544(a5) # 20000220 <tft180_pencolor>
D:/projects/mechanical_arm/Firmware/CarMainControl/libraries/zf_device/zf_device_tft180.c:163
    tft180_bgcolor = bgcolor;
    1704:	200007b7          	lui	a5,0x20000
    1708:	fec45703          	lhu	a4,-20(s0)
    170c:	22e79123          	sh	a4,546(a5) # 20000222 <tft180_bgcolor>
D:/projects/mechanical_arm/Firmware/CarMainControl/libraries/zf_device/zf_device_tft180.c:164
}
    1710:	0001                	nop
    1712:	4472                	lw	s0,28(sp)
    1714:	6105                	addi	sp,sp,32
    1716:	8082                	ret

00001718 <tft180_show_char>:
tft180_show_char():
D:/projects/mechanical_arm/Firmware/CarMainControl/libraries/zf_device/zf_device_tft180.c:247
// @param       dat             需要显示的字符
// @return      void
// Sample usage:                tft180_show_char(0,0,'x');                      // 坐标 0,0 写一个字符 x
//-------------------------------------------------------------------------------------------------------------------
void tft180_show_char (uint16 x, uint16 y, const char dat)
{
    1718:	7179                	addi	sp,sp,-48
    171a:	d606                	sw	ra,44(sp)
    171c:	d422                	sw	s0,40(sp)
    171e:	1800                	addi	s0,sp,48
    1720:	87aa                	mv	a5,a0
    1722:	86ae                	mv	a3,a1
    1724:	8732                	mv	a4,a2
    1726:	fcf41f23          	sh	a5,-34(s0)
    172a:	87b6                	mv	a5,a3
    172c:	fcf41e23          	sh	a5,-36(s0)
    1730:	87ba                	mv	a5,a4
    1732:	fcf40da3          	sb	a5,-37(s0)
D:/projects/mechanical_arm/Firmware/CarMainControl/libraries/zf_device/zf_device_tft180.c:248
    zf_assert(x < tft180_x_max);
    1736:	200007b7          	lui	a5,0x20000
    173a:	2247c783          	lbu	a5,548(a5) # 20000224 <tft180_x_max>
    173e:	07c2                	slli	a5,a5,0x10
    1740:	83c1                	srli	a5,a5,0x10
    1742:	fde45703          	lhu	a4,-34(s0)
    1746:	00f737b3          	sltu	a5,a4,a5
    174a:	0ff7f793          	andi	a5,a5,255
    174e:	873e                	mv	a4,a5
    1750:	0f800613          	li	a2,248
    1754:	67a5                	lui	a5,0x9
    1756:	79078593          	addi	a1,a5,1936 # 9790 <_sbrk+0x78>
    175a:	853a                	mv	a0,a4
    175c:	1c7000ef          	jal	ra,2122 <debug_assert_handler>
D:/projects/mechanical_arm/Firmware/CarMainControl/libraries/zf_device/zf_device_tft180.c:249
    zf_assert(y < tft180_y_max);
    1760:	8051c783          	lbu	a5,-2043(gp) # 20000225 <tft180_y_max>
    1764:	07c2                	slli	a5,a5,0x10
    1766:	83c1                	srli	a5,a5,0x10
    1768:	fdc45703          	lhu	a4,-36(s0)
    176c:	00f737b3          	sltu	a5,a4,a5
    1770:	0ff7f793          	andi	a5,a5,255
    1774:	873e                	mv	a4,a5
    1776:	0f900613          	li	a2,249
    177a:	67a5                	lui	a5,0x9
    177c:	79078593          	addi	a1,a5,1936 # 9790 <_sbrk+0x78>
    1780:	853a                	mv	a0,a4
    1782:	1a1000ef          	jal	ra,2122 <debug_assert_handler>
D:/projects/mechanical_arm/Firmware/CarMainControl/libraries/zf_device/zf_device_tft180.c:254

    uint8 i,j;
    uint8 temp;

    for(i=0; i<16; i++)
    1786:	fe0407a3          	sb	zero,-17(s0)
    178a:	a875                	j	1846 <tft180_show_char+0x12e>
D:/projects/mechanical_arm/Firmware/CarMainControl/libraries/zf_device/zf_device_tft180.c:256
    {
        tft180_set_region(x,y+i,x+7,y+i);
    178c:	fef44783          	lbu	a5,-17(s0)
    1790:	01079713          	slli	a4,a5,0x10
    1794:	8341                	srli	a4,a4,0x10
    1796:	fdc45783          	lhu	a5,-36(s0)
    179a:	97ba                	add	a5,a5,a4
    179c:	01079593          	slli	a1,a5,0x10
    17a0:	81c1                	srli	a1,a1,0x10
    17a2:	fde45783          	lhu	a5,-34(s0)
    17a6:	079d                	addi	a5,a5,7
    17a8:	01079613          	slli	a2,a5,0x10
    17ac:	8241                	srli	a2,a2,0x10
    17ae:	fef44783          	lbu	a5,-17(s0)
    17b2:	01079713          	slli	a4,a5,0x10
    17b6:	8341                	srli	a4,a4,0x10
    17b8:	fdc45783          	lhu	a5,-36(s0)
    17bc:	97ba                	add	a5,a5,a4
    17be:	01079713          	slli	a4,a5,0x10
    17c2:	8341                	srli	a4,a4,0x10
    17c4:	fde45783          	lhu	a5,-34(s0)
    17c8:	86ba                	mv	a3,a4
    17ca:	853e                	mv	a0,a5
    17cc:	319d                	jal	1432 <tft180_set_region>
D:/projects/mechanical_arm/Firmware/CarMainControl/libraries/zf_device/zf_device_tft180.c:257
        temp = tft_ascii[dat-32][i];                                            //减 32 因为是取模是从空格开始取得 空格在 ascii 中序号是 32
    17ce:	fdb40783          	lb	a5,-37(s0)
    17d2:	fe078693          	addi	a3,a5,-32
    17d6:	fef44783          	lbu	a5,-17(s0)
    17da:	6729                	lui	a4,0xa
    17dc:	0692                	slli	a3,a3,0x4
    17de:	8d470713          	addi	a4,a4,-1836 # 98d4 <tft_ascii>
    17e2:	9736                	add	a4,a4,a3
    17e4:	97ba                	add	a5,a5,a4
    17e6:	0007c783          	lbu	a5,0(a5)
    17ea:	fef406a3          	sb	a5,-19(s0)
D:/projects/mechanical_arm/Firmware/CarMainControl/libraries/zf_device/zf_device_tft180.c:258
        for(j=0; j<8; j++)
    17ee:	fe040723          	sb	zero,-18(s0)
    17f2:	a081                	j	1832 <tft180_show_char+0x11a>
D:/projects/mechanical_arm/Firmware/CarMainControl/libraries/zf_device/zf_device_tft180.c:260
        {
            if(temp&0x01)   
    17f4:	fed44783          	lbu	a5,-19(s0)
    17f8:	8b85                	andi	a5,a5,1
    17fa:	cb91                	beqz	a5,180e <tft180_show_char+0xf6>
D:/projects/mechanical_arm/Firmware/CarMainControl/libraries/zf_device/zf_device_tft180.c:261
                tft180_write_16bit_data(tft180_pencolor);
    17fc:	200007b7          	lui	a5,0x20000
    1800:	2207d783          	lhu	a5,544(a5) # 20000220 <tft180_pencolor>
    1804:	85be                	mv	a1,a5
    1806:	4505                	li	a0,1
    1808:	9caff0ef          	jal	ra,9d2 <spi_write_16bit>
    180c:	a809                	j	181e <tft180_show_char+0x106>
D:/projects/mechanical_arm/Firmware/CarMainControl/libraries/zf_device/zf_device_tft180.c:263
            else
                tft180_write_16bit_data(tft180_bgcolor);
    180e:	200007b7          	lui	a5,0x20000
    1812:	2227d783          	lhu	a5,546(a5) # 20000222 <tft180_bgcolor>
    1816:	85be                	mv	a1,a5
    1818:	4505                	li	a0,1
    181a:	9b8ff0ef          	jal	ra,9d2 <spi_write_16bit>
D:/projects/mechanical_arm/Firmware/CarMainControl/libraries/zf_device/zf_device_tft180.c:264 (discriminator 2)
            temp>>=1;
    181e:	fed44783          	lbu	a5,-19(s0)
    1822:	8385                	srli	a5,a5,0x1
    1824:	fef406a3          	sb	a5,-19(s0)
D:/projects/mechanical_arm/Firmware/CarMainControl/libraries/zf_device/zf_device_tft180.c:258 (discriminator 2)
        for(j=0; j<8; j++)
    1828:	fee44783          	lbu	a5,-18(s0)
    182c:	0785                	addi	a5,a5,1
    182e:	fef40723          	sb	a5,-18(s0)
D:/projects/mechanical_arm/Firmware/CarMainControl/libraries/zf_device/zf_device_tft180.c:258 (discriminator 1)
    1832:	fee44703          	lbu	a4,-18(s0)
    1836:	479d                	li	a5,7
    1838:	fae7fee3          	bgeu	a5,a4,17f4 <tft180_show_char+0xdc>
D:/projects/mechanical_arm/Firmware/CarMainControl/libraries/zf_device/zf_device_tft180.c:254 (discriminator 2)
    for(i=0; i<16; i++)
    183c:	fef44783          	lbu	a5,-17(s0)
    1840:	0785                	addi	a5,a5,1
    1842:	fef407a3          	sb	a5,-17(s0)
D:/projects/mechanical_arm/Firmware/CarMainControl/libraries/zf_device/zf_device_tft180.c:254 (discriminator 1)
    1846:	fef44703          	lbu	a4,-17(s0)
    184a:	47bd                	li	a5,15
    184c:	f4e7f0e3          	bgeu	a5,a4,178c <tft180_show_char+0x74>
D:/projects/mechanical_arm/Firmware/CarMainControl/libraries/zf_device/zf_device_tft180.c:267
        }
    }
}
    1850:	0001                	nop
    1852:	50b2                	lw	ra,44(sp)
    1854:	5422                	lw	s0,40(sp)
    1856:	6145                	addi	sp,sp,48
    1858:	8082                	ret

0000185a <tft180_show_string>:
tft180_show_string():
D:/projects/mechanical_arm/Firmware/CarMainControl/libraries/zf_device/zf_device_tft180.c:278
// @param       dat             需要显示的字符串
// @return      void
// Sample usage:                tft180_show_string(0,0,"seekfree");
//-------------------------------------------------------------------------------------------------------------------
void tft180_show_string (uint16 x, uint16 y, const char dat[])
{
    185a:	7179                	addi	sp,sp,-48
    185c:	d606                	sw	ra,44(sp)
    185e:	d422                	sw	s0,40(sp)
    1860:	1800                	addi	s0,sp,48
    1862:	87aa                	mv	a5,a0
    1864:	872e                	mv	a4,a1
    1866:	fcc42c23          	sw	a2,-40(s0)
    186a:	fcf41f23          	sh	a5,-34(s0)
    186e:	87ba                	mv	a5,a4
    1870:	fcf41e23          	sh	a5,-36(s0)
D:/projects/mechanical_arm/Firmware/CarMainControl/libraries/zf_device/zf_device_tft180.c:279
    zf_assert(x < tft180_x_max);
    1874:	200007b7          	lui	a5,0x20000
    1878:	2247c783          	lbu	a5,548(a5) # 20000224 <tft180_x_max>
    187c:	07c2                	slli	a5,a5,0x10
    187e:	83c1                	srli	a5,a5,0x10
    1880:	fde45703          	lhu	a4,-34(s0)
    1884:	00f737b3          	sltu	a5,a4,a5
    1888:	0ff7f793          	andi	a5,a5,255
    188c:	873e                	mv	a4,a5
    188e:	11700613          	li	a2,279
    1892:	67a5                	lui	a5,0x9
    1894:	79078593          	addi	a1,a5,1936 # 9790 <_sbrk+0x78>
    1898:	853a                	mv	a0,a4
    189a:	089000ef          	jal	ra,2122 <debug_assert_handler>
D:/projects/mechanical_arm/Firmware/CarMainControl/libraries/zf_device/zf_device_tft180.c:280
    zf_assert(y < tft180_y_max);
    189e:	8051c783          	lbu	a5,-2043(gp) # 20000225 <tft180_y_max>
    18a2:	07c2                	slli	a5,a5,0x10
    18a4:	83c1                	srli	a5,a5,0x10
    18a6:	fdc45703          	lhu	a4,-36(s0)
    18aa:	00f737b3          	sltu	a5,a4,a5
    18ae:	0ff7f793          	andi	a5,a5,255
    18b2:	873e                	mv	a4,a5
    18b4:	11800613          	li	a2,280
    18b8:	67a5                	lui	a5,0x9
    18ba:	79078593          	addi	a1,a5,1936 # 9790 <_sbrk+0x78>
    18be:	853a                	mv	a0,a4
    18c0:	063000ef          	jal	ra,2122 <debug_assert_handler>
D:/projects/mechanical_arm/Firmware/CarMainControl/libraries/zf_device/zf_device_tft180.c:282
    
    uint16 j = 0;
    18c4:	fe041723          	sh	zero,-18(s0)
D:/projects/mechanical_arm/Firmware/CarMainControl/libraries/zf_device/zf_device_tft180.c:283
    while(dat[j] != '\0')
    18c8:	a83d                	j	1906 <tft180_show_string+0xac>
D:/projects/mechanical_arm/Firmware/CarMainControl/libraries/zf_device/zf_device_tft180.c:285
    {
        tft180_show_char(x+8*j,y,dat[j]);
    18ca:	fee45783          	lhu	a5,-18(s0)
    18ce:	078e                	slli	a5,a5,0x3
    18d0:	01079713          	slli	a4,a5,0x10
    18d4:	8341                	srli	a4,a4,0x10
    18d6:	fde45783          	lhu	a5,-34(s0)
    18da:	97ba                	add	a5,a5,a4
    18dc:	01079693          	slli	a3,a5,0x10
    18e0:	82c1                	srli	a3,a3,0x10
    18e2:	fee45783          	lhu	a5,-18(s0)
    18e6:	fd842703          	lw	a4,-40(s0)
    18ea:	97ba                	add	a5,a5,a4
    18ec:	00078703          	lb	a4,0(a5)
    18f0:	fdc45783          	lhu	a5,-36(s0)
    18f4:	863a                	mv	a2,a4
    18f6:	85be                	mv	a1,a5
    18f8:	8536                	mv	a0,a3
    18fa:	3d39                	jal	1718 <tft180_show_char>
D:/projects/mechanical_arm/Firmware/CarMainControl/libraries/zf_device/zf_device_tft180.c:286
        j++;
    18fc:	fee45783          	lhu	a5,-18(s0)
    1900:	0785                	addi	a5,a5,1
    1902:	fef41723          	sh	a5,-18(s0)
D:/projects/mechanical_arm/Firmware/CarMainControl/libraries/zf_device/zf_device_tft180.c:283
    while(dat[j] != '\0')
    1906:	fee45783          	lhu	a5,-18(s0)
    190a:	fd842703          	lw	a4,-40(s0)
    190e:	97ba                	add	a5,a5,a4
    1910:	00078783          	lb	a5,0(a5)
    1914:	fbdd                	bnez	a5,18ca <tft180_show_string+0x70>
D:/projects/mechanical_arm/Firmware/CarMainControl/libraries/zf_device/zf_device_tft180.c:288
    }
}
    1916:	0001                	nop
    1918:	50b2                	lw	ra,44(sp)
    191a:	5422                	lw	s0,40(sp)
    191c:	6145                	addi	sp,sp,48
    191e:	8082                	ret

00001920 <tft180_init>:
tft180_init():
D:/projects/mechanical_arm/Firmware/CarMainControl/libraries/zf_device/zf_device_tft180.c:607
// @brief       1.8寸 TFT屏幕初始化
// @return      void
// Sample usage:                tft180_init();
//-------------------------------------------------------------------------------------------------------------------
void tft180_init (void)
{
    1920:	1101                	addi	sp,sp,-32
    1922:	ce06                	sw	ra,28(sp)
    1924:	cc22                	sw	s0,24(sp)
    1926:	ca4a                	sw	s2,20(sp)
    1928:	c84e                	sw	s3,16(sp)
    192a:	c652                	sw	s4,12(sp)
    192c:	c456                	sw	s5,8(sp)
    192e:	c25a                	sw	s6,4(sp)
    1930:	c05e                	sw	s7,0(sp)
    1932:	1000                	addi	s0,sp,32
D:/projects/mechanical_arm/Firmware/CarMainControl/libraries/zf_device/zf_device_tft180.c:611
#if TFT180_USE_SOFT_SPI
    soft_spi_init(&tft180_spi, 0, TFT180_SOFT_SPI_DELAY, TFT180_SCL_PIN, TFT180_SDA_PIN, SOFT_SPI_PIN_NULL, SOFT_SPI_PIN_NULL);
#else
    spi_init(TFT180_SPI, SPI_MODE0, TFT180_SPI_SPEED, TFT180_SCL_PIN, TFT180_SDA_PIN, SPI_MISO_NULL, SPI_CS_NULL);
    1934:	8541a783          	lw	a5,-1964(gp) # 20000274 <system_clock>
    1938:	0027d613          	srli	a2,a5,0x2
    193c:	0ff00813          	li	a6,255
    1940:	0ff00793          	li	a5,255
    1944:	02200713          	li	a4,34
    1948:	02000693          	li	a3,32
    194c:	4581                	li	a1,0
    194e:	4505                	li	a0,1
    1950:	dc9fe0ef          	jal	ra,718 <spi_init>
D:/projects/mechanical_arm/Firmware/CarMainControl/libraries/zf_device/zf_device_tft180.c:614
#endif

    gpio_init(TFT180_DC_PIN, GPO, GPIO_LOW, GPO_PUSH_PULL);
    1954:	46c1                	li	a3,16
    1956:	4601                	li	a2,0
    1958:	4585                	li	a1,1
    195a:	06700513          	li	a0,103
    195e:	a21fe0ef          	jal	ra,37e <gpio_init>
D:/projects/mechanical_arm/Firmware/CarMainControl/libraries/zf_device/zf_device_tft180.c:615
    gpio_init(TFT180_RES_PIN, GPO, GPIO_LOW, GPO_PUSH_PULL);
    1962:	46c1                	li	a3,16
    1964:	4601                	li	a2,0
    1966:	4585                	li	a1,1
    1968:	06a00513          	li	a0,106
    196c:	a13fe0ef          	jal	ra,37e <gpio_init>
D:/projects/mechanical_arm/Firmware/CarMainControl/libraries/zf_device/zf_device_tft180.c:616
    gpio_init(TFT180_CS_PIN, GPO, GPIO_LOW, GPO_PUSH_PULL);
    1970:	46c1                	li	a3,16
    1972:	4601                	li	a2,0
    1974:	4585                	li	a1,1
    1976:	06400513          	li	a0,100
    197a:	a05fe0ef          	jal	ra,37e <gpio_init>
D:/projects/mechanical_arm/Firmware/CarMainControl/libraries/zf_device/zf_device_tft180.c:617
    gpio_init(TFT180_BL_PIN, GPO, GPIO_HIGH, GPO_PUSH_PULL);
    197e:	46c1                	li	a3,16
    1980:	4605                	li	a2,1
    1982:	4585                	li	a1,1
    1984:	06000513          	li	a0,96
    1988:	9f7fe0ef          	jal	ra,37e <gpio_init>
D:/projects/mechanical_arm/Firmware/CarMainControl/libraries/zf_device/zf_device_tft180.c:619

    tft180_set_dir(tft180_display_dir);
    198c:	8441a783          	lw	a5,-1980(gp) # 20000264 <tft180_display_dir>
    1990:	853e                	mv	a0,a5
    1992:	3311                	jal	1696 <tft180_set_dir>
D:/projects/mechanical_arm/Firmware/CarMainControl/libraries/zf_device/zf_device_tft180.c:620
    tft180_set_color(tft180_pencolor, tft180_bgcolor);
    1994:	200007b7          	lui	a5,0x20000
    1998:	2207d703          	lhu	a4,544(a5) # 20000220 <tft180_pencolor>
    199c:	200007b7          	lui	a5,0x20000
    19a0:	2227d783          	lhu	a5,546(a5) # 20000222 <tft180_bgcolor>
    19a4:	85be                	mv	a1,a5
    19a6:	853a                	mv	a0,a4
    19a8:	3b35                	jal	16e4 <tft180_set_color>
D:/projects/mechanical_arm/Firmware/CarMainControl/libraries/zf_device/zf_device_tft180.c:622

    TFT180_RES(0);
    19aa:	67a9                	lui	a5,0xa
    19ac:	89478793          	addi	a5,a5,-1900 # 9894 <gpio_group>
    19b0:	47dc                	lw	a5,12(a5)
    19b2:	873e                	mv	a4,a5
    19b4:	40000793          	li	a5,1024
    19b8:	cb5c                	sw	a5,20(a4)
D:/projects/mechanical_arm/Firmware/CarMainControl/libraries/zf_device/zf_device_tft180.c:623
    system_delay_ms(10);
    19ba:	8541a703          	lw	a4,-1964(gp) # 20000274 <system_clock>
    19be:	6789                	lui	a5,0x2
    19c0:	f4078793          	addi	a5,a5,-192 # 1f40 <clock_set_freq+0xc2>
    19c4:	02f75733          	divu	a4,a4,a5
    19c8:	87ba                	mv	a5,a4
    19ca:	078a                	slli	a5,a5,0x2
    19cc:	97ba                	add	a5,a5,a4
    19ce:	0786                	slli	a5,a5,0x1
    19d0:	8b3e                	mv	s6,a5
    19d2:	4b81                	li	s7,0
    19d4:	855a                	mv	a0,s6
    19d6:	85de                	mv	a1,s7
    19d8:	8e5fe0ef          	jal	ra,2bc <system_delay>
D:/projects/mechanical_arm/Firmware/CarMainControl/libraries/zf_device/zf_device_tft180.c:625

    TFT180_RES(1);
    19dc:	67a9                	lui	a5,0xa
    19de:	89478793          	addi	a5,a5,-1900 # 9894 <gpio_group>
    19e2:	47dc                	lw	a5,12(a5)
    19e4:	873e                	mv	a4,a5
    19e6:	40000793          	li	a5,1024
    19ea:	cb1c                	sw	a5,16(a4)
D:/projects/mechanical_arm/Firmware/CarMainControl/libraries/zf_device/zf_device_tft180.c:626
    system_delay_ms(120);
    19ec:	8541a703          	lw	a4,-1964(gp) # 20000274 <system_clock>
    19f0:	6789                	lui	a5,0x2
    19f2:	f4078793          	addi	a5,a5,-192 # 1f40 <clock_set_freq+0xc2>
    19f6:	02f75733          	divu	a4,a4,a5
    19fa:	87ba                	mv	a5,a4
    19fc:	0792                	slli	a5,a5,0x4
    19fe:	8f99                	sub	a5,a5,a4
    1a00:	078e                	slli	a5,a5,0x3
    1a02:	8a3e                	mv	s4,a5
    1a04:	4a81                	li	s5,0
    1a06:	8552                	mv	a0,s4
    1a08:	85d6                	mv	a1,s5
    1a0a:	8b3fe0ef          	jal	ra,2bc <system_delay>
D:/projects/mechanical_arm/Firmware/CarMainControl/libraries/zf_device/zf_device_tft180.c:628

    tft180_write_index(0x11);
    1a0e:	4545                	li	a0,17
    1a10:	9a7ff0ef          	jal	ra,13b6 <tft180_write_index>
D:/projects/mechanical_arm/Firmware/CarMainControl/libraries/zf_device/zf_device_tft180.c:629
    system_delay_ms(120);
    1a14:	8541a703          	lw	a4,-1964(gp) # 20000274 <system_clock>
    1a18:	6789                	lui	a5,0x2
    1a1a:	f4078793          	addi	a5,a5,-192 # 1f40 <clock_set_freq+0xc2>
    1a1e:	02f75733          	divu	a4,a4,a5
    1a22:	87ba                	mv	a5,a4
    1a24:	0792                	slli	a5,a5,0x4
    1a26:	8f99                	sub	a5,a5,a4
    1a28:	078e                	slli	a5,a5,0x3
    1a2a:	893e                	mv	s2,a5
    1a2c:	4981                	li	s3,0
    1a2e:	854a                	mv	a0,s2
    1a30:	85ce                	mv	a1,s3
    1a32:	88bfe0ef          	jal	ra,2bc <system_delay>
D:/projects/mechanical_arm/Firmware/CarMainControl/libraries/zf_device/zf_device_tft180.c:631

    tft180_write_index(0xB1);
    1a36:	0b100513          	li	a0,177
    1a3a:	97dff0ef          	jal	ra,13b6 <tft180_write_index>
D:/projects/mechanical_arm/Firmware/CarMainControl/libraries/zf_device/zf_device_tft180.c:632
    tft180_write_8bit_data(0x01);
    1a3e:	4585                	li	a1,1
    1a40:	4505                	li	a0,1
    1a42:	f3bfe0ef          	jal	ra,97c <spi_write_8bit>
D:/projects/mechanical_arm/Firmware/CarMainControl/libraries/zf_device/zf_device_tft180.c:633
    tft180_write_8bit_data(0x2C);
    1a46:	02c00593          	li	a1,44
    1a4a:	4505                	li	a0,1
    1a4c:	f31fe0ef          	jal	ra,97c <spi_write_8bit>
D:/projects/mechanical_arm/Firmware/CarMainControl/libraries/zf_device/zf_device_tft180.c:634
    tft180_write_8bit_data(0x2D);
    1a50:	02d00593          	li	a1,45
    1a54:	4505                	li	a0,1
    1a56:	f27fe0ef          	jal	ra,97c <spi_write_8bit>
D:/projects/mechanical_arm/Firmware/CarMainControl/libraries/zf_device/zf_device_tft180.c:636

    tft180_write_index(0xB2);
    1a5a:	0b200513          	li	a0,178
    1a5e:	959ff0ef          	jal	ra,13b6 <tft180_write_index>
D:/projects/mechanical_arm/Firmware/CarMainControl/libraries/zf_device/zf_device_tft180.c:637
    tft180_write_8bit_data(0x01);
    1a62:	4585                	li	a1,1
    1a64:	4505                	li	a0,1
    1a66:	f17fe0ef          	jal	ra,97c <spi_write_8bit>
D:/projects/mechanical_arm/Firmware/CarMainControl/libraries/zf_device/zf_device_tft180.c:638
    tft180_write_8bit_data(0x2C);
    1a6a:	02c00593          	li	a1,44
    1a6e:	4505                	li	a0,1
    1a70:	f0dfe0ef          	jal	ra,97c <spi_write_8bit>
D:/projects/mechanical_arm/Firmware/CarMainControl/libraries/zf_device/zf_device_tft180.c:639
    tft180_write_8bit_data(0x2D);
    1a74:	02d00593          	li	a1,45
    1a78:	4505                	li	a0,1
    1a7a:	f03fe0ef          	jal	ra,97c <spi_write_8bit>
D:/projects/mechanical_arm/Firmware/CarMainControl/libraries/zf_device/zf_device_tft180.c:641

    tft180_write_index(0xB3);
    1a7e:	0b300513          	li	a0,179
    1a82:	935ff0ef          	jal	ra,13b6 <tft180_write_index>
D:/projects/mechanical_arm/Firmware/CarMainControl/libraries/zf_device/zf_device_tft180.c:642
    tft180_write_8bit_data(0x01);
    1a86:	4585                	li	a1,1
    1a88:	4505                	li	a0,1
    1a8a:	ef3fe0ef          	jal	ra,97c <spi_write_8bit>
D:/projects/mechanical_arm/Firmware/CarMainControl/libraries/zf_device/zf_device_tft180.c:643
    tft180_write_8bit_data(0x2C);
    1a8e:	02c00593          	li	a1,44
    1a92:	4505                	li	a0,1
    1a94:	ee9fe0ef          	jal	ra,97c <spi_write_8bit>
D:/projects/mechanical_arm/Firmware/CarMainControl/libraries/zf_device/zf_device_tft180.c:644
    tft180_write_8bit_data(0x2D);
    1a98:	02d00593          	li	a1,45
    1a9c:	4505                	li	a0,1
    1a9e:	edffe0ef          	jal	ra,97c <spi_write_8bit>
D:/projects/mechanical_arm/Firmware/CarMainControl/libraries/zf_device/zf_device_tft180.c:645
    tft180_write_8bit_data(0x01);
    1aa2:	4585                	li	a1,1
    1aa4:	4505                	li	a0,1
    1aa6:	ed7fe0ef          	jal	ra,97c <spi_write_8bit>
D:/projects/mechanical_arm/Firmware/CarMainControl/libraries/zf_device/zf_device_tft180.c:646
    tft180_write_8bit_data(0x2C);
    1aaa:	02c00593          	li	a1,44
    1aae:	4505                	li	a0,1
    1ab0:	ecdfe0ef          	jal	ra,97c <spi_write_8bit>
D:/projects/mechanical_arm/Firmware/CarMainControl/libraries/zf_device/zf_device_tft180.c:647
    tft180_write_8bit_data(0x2D);
    1ab4:	02d00593          	li	a1,45
    1ab8:	4505                	li	a0,1
    1aba:	ec3fe0ef          	jal	ra,97c <spi_write_8bit>
D:/projects/mechanical_arm/Firmware/CarMainControl/libraries/zf_device/zf_device_tft180.c:649

    tft180_write_index(0xB4);
    1abe:	0b400513          	li	a0,180
    1ac2:	8f5ff0ef          	jal	ra,13b6 <tft180_write_index>
D:/projects/mechanical_arm/Firmware/CarMainControl/libraries/zf_device/zf_device_tft180.c:650
    tft180_write_8bit_data(0x07);
    1ac6:	459d                	li	a1,7
    1ac8:	4505                	li	a0,1
    1aca:	eb3fe0ef          	jal	ra,97c <spi_write_8bit>
D:/projects/mechanical_arm/Firmware/CarMainControl/libraries/zf_device/zf_device_tft180.c:652

    tft180_write_index(0xC0);
    1ace:	0c000513          	li	a0,192
    1ad2:	8e5ff0ef          	jal	ra,13b6 <tft180_write_index>
D:/projects/mechanical_arm/Firmware/CarMainControl/libraries/zf_device/zf_device_tft180.c:653
    tft180_write_8bit_data(0xA2);
    1ad6:	0a200593          	li	a1,162
    1ada:	4505                	li	a0,1
    1adc:	ea1fe0ef          	jal	ra,97c <spi_write_8bit>
D:/projects/mechanical_arm/Firmware/CarMainControl/libraries/zf_device/zf_device_tft180.c:654
    tft180_write_8bit_data(0x02);
    1ae0:	4589                	li	a1,2
    1ae2:	4505                	li	a0,1
    1ae4:	e99fe0ef          	jal	ra,97c <spi_write_8bit>
D:/projects/mechanical_arm/Firmware/CarMainControl/libraries/zf_device/zf_device_tft180.c:655
    tft180_write_8bit_data(0x84);
    1ae8:	08400593          	li	a1,132
    1aec:	4505                	li	a0,1
    1aee:	e8ffe0ef          	jal	ra,97c <spi_write_8bit>
D:/projects/mechanical_arm/Firmware/CarMainControl/libraries/zf_device/zf_device_tft180.c:656
    tft180_write_index(0xC1);
    1af2:	0c100513          	li	a0,193
    1af6:	8c1ff0ef          	jal	ra,13b6 <tft180_write_index>
D:/projects/mechanical_arm/Firmware/CarMainControl/libraries/zf_device/zf_device_tft180.c:657
    tft180_write_8bit_data(0xC5);
    1afa:	0c500593          	li	a1,197
    1afe:	4505                	li	a0,1
    1b00:	e7dfe0ef          	jal	ra,97c <spi_write_8bit>
D:/projects/mechanical_arm/Firmware/CarMainControl/libraries/zf_device/zf_device_tft180.c:659

    tft180_write_index(0xC2);
    1b04:	0c200513          	li	a0,194
    1b08:	8afff0ef          	jal	ra,13b6 <tft180_write_index>
D:/projects/mechanical_arm/Firmware/CarMainControl/libraries/zf_device/zf_device_tft180.c:660
    tft180_write_8bit_data(0x0A);
    1b0c:	45a9                	li	a1,10
    1b0e:	4505                	li	a0,1
    1b10:	e6dfe0ef          	jal	ra,97c <spi_write_8bit>
D:/projects/mechanical_arm/Firmware/CarMainControl/libraries/zf_device/zf_device_tft180.c:661
    tft180_write_8bit_data(0x00);
    1b14:	4581                	li	a1,0
    1b16:	4505                	li	a0,1
    1b18:	e65fe0ef          	jal	ra,97c <spi_write_8bit>
D:/projects/mechanical_arm/Firmware/CarMainControl/libraries/zf_device/zf_device_tft180.c:663

    tft180_write_index(0xC3);
    1b1c:	0c300513          	li	a0,195
    1b20:	897ff0ef          	jal	ra,13b6 <tft180_write_index>
D:/projects/mechanical_arm/Firmware/CarMainControl/libraries/zf_device/zf_device_tft180.c:664
    tft180_write_8bit_data(0x8A);
    1b24:	08a00593          	li	a1,138
    1b28:	4505                	li	a0,1
    1b2a:	e53fe0ef          	jal	ra,97c <spi_write_8bit>
D:/projects/mechanical_arm/Firmware/CarMainControl/libraries/zf_device/zf_device_tft180.c:665
    tft180_write_8bit_data(0x2A);
    1b2e:	02a00593          	li	a1,42
    1b32:	4505                	li	a0,1
    1b34:	e49fe0ef          	jal	ra,97c <spi_write_8bit>
D:/projects/mechanical_arm/Firmware/CarMainControl/libraries/zf_device/zf_device_tft180.c:666
    tft180_write_index(0xC4);
    1b38:	0c400513          	li	a0,196
    1b3c:	87bff0ef          	jal	ra,13b6 <tft180_write_index>
D:/projects/mechanical_arm/Firmware/CarMainControl/libraries/zf_device/zf_device_tft180.c:667
    tft180_write_8bit_data(0x8A);
    1b40:	08a00593          	li	a1,138
    1b44:	4505                	li	a0,1
    1b46:	e37fe0ef          	jal	ra,97c <spi_write_8bit>
D:/projects/mechanical_arm/Firmware/CarMainControl/libraries/zf_device/zf_device_tft180.c:668
    tft180_write_8bit_data(0xEE);
    1b4a:	0ee00593          	li	a1,238
    1b4e:	4505                	li	a0,1
    1b50:	e2dfe0ef          	jal	ra,97c <spi_write_8bit>
D:/projects/mechanical_arm/Firmware/CarMainControl/libraries/zf_device/zf_device_tft180.c:670

    tft180_write_index(0xC5);
    1b54:	0c500513          	li	a0,197
    1b58:	85fff0ef          	jal	ra,13b6 <tft180_write_index>
D:/projects/mechanical_arm/Firmware/CarMainControl/libraries/zf_device/zf_device_tft180.c:671
    tft180_write_8bit_data(0x0E);
    1b5c:	45b9                	li	a1,14
    1b5e:	4505                	li	a0,1
    1b60:	e1dfe0ef          	jal	ra,97c <spi_write_8bit>
D:/projects/mechanical_arm/Firmware/CarMainControl/libraries/zf_device/zf_device_tft180.c:673

    tft180_write_index(0x36);
    1b64:	03600513          	li	a0,54
    1b68:	84fff0ef          	jal	ra,13b6 <tft180_write_index>
D:/projects/mechanical_arm/Firmware/CarMainControl/libraries/zf_device/zf_device_tft180.c:674
    switch(tft180_display_dir)                                                         // y x v
    1b6c:	8441a783          	lw	a5,-1980(gp) # 20000264 <tft180_display_dir>
    1b70:	4705                	li	a4,1
    1b72:	02e78063          	beq	a5,a4,1b92 <tft180_init+0x272>
    1b76:	cb81                	beqz	a5,1b86 <tft180_init+0x266>
    1b78:	4709                	li	a4,2
    1b7a:	02e78163          	beq	a5,a4,1b9c <tft180_init+0x27c>
    1b7e:	470d                	li	a4,3
    1b80:	02e78463          	beq	a5,a4,1ba8 <tft180_init+0x288>
    1b84:	a805                	j	1bb4 <tft180_init+0x294>
D:/projects/mechanical_arm/Firmware/CarMainControl/libraries/zf_device/zf_device_tft180.c:676
    {
        case 0: tft180_write_8bit_data(1<<7 | 1<<6 | 0<<5);  break;                          // 竖屏模式
    1b86:	0c000593          	li	a1,192
    1b8a:	4505                	li	a0,1
    1b8c:	df1fe0ef          	jal	ra,97c <spi_write_8bit>
    1b90:	a015                	j	1bb4 <tft180_init+0x294>
D:/projects/mechanical_arm/Firmware/CarMainControl/libraries/zf_device/zf_device_tft180.c:677
        case 1: tft180_write_8bit_data(0<<7 | 0<<6 | 0<<5);  break;                          // 竖屏模式  旋转180
    1b92:	4581                	li	a1,0
    1b94:	4505                	li	a0,1
    1b96:	de7fe0ef          	jal	ra,97c <spi_write_8bit>
    1b9a:	a829                	j	1bb4 <tft180_init+0x294>
D:/projects/mechanical_arm/Firmware/CarMainControl/libraries/zf_device/zf_device_tft180.c:678
        case 2: tft180_write_8bit_data(1<<7 | 0<<6 | 1<<5);  break;                          // 横屏模式
    1b9c:	0a000593          	li	a1,160
    1ba0:	4505                	li	a0,1
    1ba2:	ddbfe0ef          	jal	ra,97c <spi_write_8bit>
    1ba6:	a039                	j	1bb4 <tft180_init+0x294>
D:/projects/mechanical_arm/Firmware/CarMainControl/libraries/zf_device/zf_device_tft180.c:679
        case 3: tft180_write_8bit_data(0<<7 | 1<<6 | 1<<5);  break;                          // 横屏模式  旋转180
    1ba8:	06000593          	li	a1,96
    1bac:	4505                	li	a0,1
    1bae:	dcffe0ef          	jal	ra,97c <spi_write_8bit>
    1bb2:	0001                	nop
D:/projects/mechanical_arm/Firmware/CarMainControl/libraries/zf_device/zf_device_tft180.c:682
    }

    tft180_write_index(0xe0);
    1bb4:	0e000513          	li	a0,224
    1bb8:	ffeff0ef          	jal	ra,13b6 <tft180_write_index>
D:/projects/mechanical_arm/Firmware/CarMainControl/libraries/zf_device/zf_device_tft180.c:683
    tft180_write_8bit_data(0x0f);
    1bbc:	45bd                	li	a1,15
    1bbe:	4505                	li	a0,1
    1bc0:	dbdfe0ef          	jal	ra,97c <spi_write_8bit>
D:/projects/mechanical_arm/Firmware/CarMainControl/libraries/zf_device/zf_device_tft180.c:684
    tft180_write_8bit_data(0x1a);
    1bc4:	45e9                	li	a1,26
    1bc6:	4505                	li	a0,1
    1bc8:	db5fe0ef          	jal	ra,97c <spi_write_8bit>
D:/projects/mechanical_arm/Firmware/CarMainControl/libraries/zf_device/zf_device_tft180.c:685
    tft180_write_8bit_data(0x0f);
    1bcc:	45bd                	li	a1,15
    1bce:	4505                	li	a0,1
    1bd0:	dadfe0ef          	jal	ra,97c <spi_write_8bit>
D:/projects/mechanical_arm/Firmware/CarMainControl/libraries/zf_device/zf_device_tft180.c:686
    tft180_write_8bit_data(0x18);
    1bd4:	45e1                	li	a1,24
    1bd6:	4505                	li	a0,1
    1bd8:	da5fe0ef          	jal	ra,97c <spi_write_8bit>
D:/projects/mechanical_arm/Firmware/CarMainControl/libraries/zf_device/zf_device_tft180.c:687
    tft180_write_8bit_data(0x2f);
    1bdc:	02f00593          	li	a1,47
    1be0:	4505                	li	a0,1
    1be2:	d9bfe0ef          	jal	ra,97c <spi_write_8bit>
D:/projects/mechanical_arm/Firmware/CarMainControl/libraries/zf_device/zf_device_tft180.c:688
    tft180_write_8bit_data(0x28);
    1be6:	02800593          	li	a1,40
    1bea:	4505                	li	a0,1
    1bec:	d91fe0ef          	jal	ra,97c <spi_write_8bit>
D:/projects/mechanical_arm/Firmware/CarMainControl/libraries/zf_device/zf_device_tft180.c:689
    tft180_write_8bit_data(0x20);
    1bf0:	02000593          	li	a1,32
    1bf4:	4505                	li	a0,1
    1bf6:	d87fe0ef          	jal	ra,97c <spi_write_8bit>
D:/projects/mechanical_arm/Firmware/CarMainControl/libraries/zf_device/zf_device_tft180.c:690
    tft180_write_8bit_data(0x22);
    1bfa:	02200593          	li	a1,34
    1bfe:	4505                	li	a0,1
    1c00:	d7dfe0ef          	jal	ra,97c <spi_write_8bit>
D:/projects/mechanical_arm/Firmware/CarMainControl/libraries/zf_device/zf_device_tft180.c:691
    tft180_write_8bit_data(0x1f);
    1c04:	45fd                	li	a1,31
    1c06:	4505                	li	a0,1
    1c08:	d75fe0ef          	jal	ra,97c <spi_write_8bit>
D:/projects/mechanical_arm/Firmware/CarMainControl/libraries/zf_device/zf_device_tft180.c:692
    tft180_write_8bit_data(0x1b);
    1c0c:	45ed                	li	a1,27
    1c0e:	4505                	li	a0,1
    1c10:	d6dfe0ef          	jal	ra,97c <spi_write_8bit>
D:/projects/mechanical_arm/Firmware/CarMainControl/libraries/zf_device/zf_device_tft180.c:693
    tft180_write_8bit_data(0x23);
    1c14:	02300593          	li	a1,35
    1c18:	4505                	li	a0,1
    1c1a:	d63fe0ef          	jal	ra,97c <spi_write_8bit>
D:/projects/mechanical_arm/Firmware/CarMainControl/libraries/zf_device/zf_device_tft180.c:694
    tft180_write_8bit_data(0x37);
    1c1e:	03700593          	li	a1,55
    1c22:	4505                	li	a0,1
    1c24:	d59fe0ef          	jal	ra,97c <spi_write_8bit>
D:/projects/mechanical_arm/Firmware/CarMainControl/libraries/zf_device/zf_device_tft180.c:695
    tft180_write_8bit_data(0x00);
    1c28:	4581                	li	a1,0
    1c2a:	4505                	li	a0,1
    1c2c:	d51fe0ef          	jal	ra,97c <spi_write_8bit>
D:/projects/mechanical_arm/Firmware/CarMainControl/libraries/zf_device/zf_device_tft180.c:696
    tft180_write_8bit_data(0x07);
    1c30:	459d                	li	a1,7
    1c32:	4505                	li	a0,1
    1c34:	d49fe0ef          	jal	ra,97c <spi_write_8bit>
D:/projects/mechanical_arm/Firmware/CarMainControl/libraries/zf_device/zf_device_tft180.c:697
    tft180_write_8bit_data(0x02);
    1c38:	4589                	li	a1,2
    1c3a:	4505                	li	a0,1
    1c3c:	d41fe0ef          	jal	ra,97c <spi_write_8bit>
D:/projects/mechanical_arm/Firmware/CarMainControl/libraries/zf_device/zf_device_tft180.c:698
    tft180_write_8bit_data(0x10);
    1c40:	45c1                	li	a1,16
    1c42:	4505                	li	a0,1
    1c44:	d39fe0ef          	jal	ra,97c <spi_write_8bit>
D:/projects/mechanical_arm/Firmware/CarMainControl/libraries/zf_device/zf_device_tft180.c:700

    tft180_write_index(0xe1);
    1c48:	0e100513          	li	a0,225
    1c4c:	f6aff0ef          	jal	ra,13b6 <tft180_write_index>
D:/projects/mechanical_arm/Firmware/CarMainControl/libraries/zf_device/zf_device_tft180.c:701
    tft180_write_8bit_data(0x0f);
    1c50:	45bd                	li	a1,15
    1c52:	4505                	li	a0,1
    1c54:	d29fe0ef          	jal	ra,97c <spi_write_8bit>
D:/projects/mechanical_arm/Firmware/CarMainControl/libraries/zf_device/zf_device_tft180.c:702
    tft180_write_8bit_data(0x1b);
    1c58:	45ed                	li	a1,27
    1c5a:	4505                	li	a0,1
    1c5c:	d21fe0ef          	jal	ra,97c <spi_write_8bit>
D:/projects/mechanical_arm/Firmware/CarMainControl/libraries/zf_device/zf_device_tft180.c:703
    tft180_write_8bit_data(0x0f);
    1c60:	45bd                	li	a1,15
    1c62:	4505                	li	a0,1
    1c64:	d19fe0ef          	jal	ra,97c <spi_write_8bit>
D:/projects/mechanical_arm/Firmware/CarMainControl/libraries/zf_device/zf_device_tft180.c:704
    tft180_write_8bit_data(0x17);
    1c68:	45dd                	li	a1,23
    1c6a:	4505                	li	a0,1
    1c6c:	d11fe0ef          	jal	ra,97c <spi_write_8bit>
D:/projects/mechanical_arm/Firmware/CarMainControl/libraries/zf_device/zf_device_tft180.c:705
    tft180_write_8bit_data(0x33);
    1c70:	03300593          	li	a1,51
    1c74:	4505                	li	a0,1
    1c76:	d07fe0ef          	jal	ra,97c <spi_write_8bit>
D:/projects/mechanical_arm/Firmware/CarMainControl/libraries/zf_device/zf_device_tft180.c:706
    tft180_write_8bit_data(0x2c);
    1c7a:	02c00593          	li	a1,44
    1c7e:	4505                	li	a0,1
    1c80:	cfdfe0ef          	jal	ra,97c <spi_write_8bit>
D:/projects/mechanical_arm/Firmware/CarMainControl/libraries/zf_device/zf_device_tft180.c:707
    tft180_write_8bit_data(0x29);
    1c84:	02900593          	li	a1,41
    1c88:	4505                	li	a0,1
    1c8a:	cf3fe0ef          	jal	ra,97c <spi_write_8bit>
D:/projects/mechanical_arm/Firmware/CarMainControl/libraries/zf_device/zf_device_tft180.c:708
    tft180_write_8bit_data(0x2e);
    1c8e:	02e00593          	li	a1,46
    1c92:	4505                	li	a0,1
    1c94:	ce9fe0ef          	jal	ra,97c <spi_write_8bit>
D:/projects/mechanical_arm/Firmware/CarMainControl/libraries/zf_device/zf_device_tft180.c:709
    tft180_write_8bit_data(0x30);
    1c98:	03000593          	li	a1,48
    1c9c:	4505                	li	a0,1
    1c9e:	cdffe0ef          	jal	ra,97c <spi_write_8bit>
D:/projects/mechanical_arm/Firmware/CarMainControl/libraries/zf_device/zf_device_tft180.c:710
    tft180_write_8bit_data(0x30);
    1ca2:	03000593          	li	a1,48
    1ca6:	4505                	li	a0,1
    1ca8:	cd5fe0ef          	jal	ra,97c <spi_write_8bit>
D:/projects/mechanical_arm/Firmware/CarMainControl/libraries/zf_device/zf_device_tft180.c:711
    tft180_write_8bit_data(0x39);
    1cac:	03900593          	li	a1,57
    1cb0:	4505                	li	a0,1
    1cb2:	ccbfe0ef          	jal	ra,97c <spi_write_8bit>
D:/projects/mechanical_arm/Firmware/CarMainControl/libraries/zf_device/zf_device_tft180.c:712
    tft180_write_8bit_data(0x3f);
    1cb6:	03f00593          	li	a1,63
    1cba:	4505                	li	a0,1
    1cbc:	cc1fe0ef          	jal	ra,97c <spi_write_8bit>
D:/projects/mechanical_arm/Firmware/CarMainControl/libraries/zf_device/zf_device_tft180.c:713
    tft180_write_8bit_data(0x00);
    1cc0:	4581                	li	a1,0
    1cc2:	4505                	li	a0,1
    1cc4:	cb9fe0ef          	jal	ra,97c <spi_write_8bit>
D:/projects/mechanical_arm/Firmware/CarMainControl/libraries/zf_device/zf_device_tft180.c:714
    tft180_write_8bit_data(0x07);
    1cc8:	459d                	li	a1,7
    1cca:	4505                	li	a0,1
    1ccc:	cb1fe0ef          	jal	ra,97c <spi_write_8bit>
D:/projects/mechanical_arm/Firmware/CarMainControl/libraries/zf_device/zf_device_tft180.c:715
    tft180_write_8bit_data(0x03);
    1cd0:	458d                	li	a1,3
    1cd2:	4505                	li	a0,1
    1cd4:	ca9fe0ef          	jal	ra,97c <spi_write_8bit>
D:/projects/mechanical_arm/Firmware/CarMainControl/libraries/zf_device/zf_device_tft180.c:716
    tft180_write_8bit_data(0x10);
    1cd8:	45c1                	li	a1,16
    1cda:	4505                	li	a0,1
    1cdc:	ca1fe0ef          	jal	ra,97c <spi_write_8bit>
D:/projects/mechanical_arm/Firmware/CarMainControl/libraries/zf_device/zf_device_tft180.c:718

    tft180_write_index(0x2a);
    1ce0:	02a00513          	li	a0,42
    1ce4:	ed2ff0ef          	jal	ra,13b6 <tft180_write_index>
D:/projects/mechanical_arm/Firmware/CarMainControl/libraries/zf_device/zf_device_tft180.c:719
    tft180_write_8bit_data(0x00);
    1ce8:	4581                	li	a1,0
    1cea:	4505                	li	a0,1
    1cec:	c91fe0ef          	jal	ra,97c <spi_write_8bit>
D:/projects/mechanical_arm/Firmware/CarMainControl/libraries/zf_device/zf_device_tft180.c:720
    tft180_write_8bit_data(0x00+2);
    1cf0:	4589                	li	a1,2
    1cf2:	4505                	li	a0,1
    1cf4:	c89fe0ef          	jal	ra,97c <spi_write_8bit>
D:/projects/mechanical_arm/Firmware/CarMainControl/libraries/zf_device/zf_device_tft180.c:721
    tft180_write_8bit_data(0x00);
    1cf8:	4581                	li	a1,0
    1cfa:	4505                	li	a0,1
    1cfc:	c81fe0ef          	jal	ra,97c <spi_write_8bit>
D:/projects/mechanical_arm/Firmware/CarMainControl/libraries/zf_device/zf_device_tft180.c:722
    tft180_write_8bit_data(0x80+2);
    1d00:	08200593          	li	a1,130
    1d04:	4505                	li	a0,1
    1d06:	c77fe0ef          	jal	ra,97c <spi_write_8bit>
D:/projects/mechanical_arm/Firmware/CarMainControl/libraries/zf_device/zf_device_tft180.c:724

    tft180_write_index(0x2b);
    1d0a:	02b00513          	li	a0,43
    1d0e:	ea8ff0ef          	jal	ra,13b6 <tft180_write_index>
D:/projects/mechanical_arm/Firmware/CarMainControl/libraries/zf_device/zf_device_tft180.c:725
    tft180_write_8bit_data(0x00);
    1d12:	4581                	li	a1,0
    1d14:	4505                	li	a0,1
    1d16:	c67fe0ef          	jal	ra,97c <spi_write_8bit>
D:/projects/mechanical_arm/Firmware/CarMainControl/libraries/zf_device/zf_device_tft180.c:726
    tft180_write_8bit_data(0x00+3);
    1d1a:	458d                	li	a1,3
    1d1c:	4505                	li	a0,1
    1d1e:	c5ffe0ef          	jal	ra,97c <spi_write_8bit>
D:/projects/mechanical_arm/Firmware/CarMainControl/libraries/zf_device/zf_device_tft180.c:727
    tft180_write_8bit_data(0x00);
    1d22:	4581                	li	a1,0
    1d24:	4505                	li	a0,1
    1d26:	c57fe0ef          	jal	ra,97c <spi_write_8bit>
D:/projects/mechanical_arm/Firmware/CarMainControl/libraries/zf_device/zf_device_tft180.c:728
    tft180_write_8bit_data(0x80+3);
    1d2a:	08300593          	li	a1,131
    1d2e:	4505                	li	a0,1
    1d30:	c4dfe0ef          	jal	ra,97c <spi_write_8bit>
D:/projects/mechanical_arm/Firmware/CarMainControl/libraries/zf_device/zf_device_tft180.c:730

    tft180_write_index(0xF0);
    1d34:	0f000513          	li	a0,240
    1d38:	e7eff0ef          	jal	ra,13b6 <tft180_write_index>
D:/projects/mechanical_arm/Firmware/CarMainControl/libraries/zf_device/zf_device_tft180.c:731
    tft180_write_8bit_data(0x01);
    1d3c:	4585                	li	a1,1
    1d3e:	4505                	li	a0,1
    1d40:	c3dfe0ef          	jal	ra,97c <spi_write_8bit>
D:/projects/mechanical_arm/Firmware/CarMainControl/libraries/zf_device/zf_device_tft180.c:732
    tft180_write_index(0xF6);
    1d44:	0f600513          	li	a0,246
    1d48:	e6eff0ef          	jal	ra,13b6 <tft180_write_index>
D:/projects/mechanical_arm/Firmware/CarMainControl/libraries/zf_device/zf_device_tft180.c:733
    tft180_write_8bit_data(0x00);
    1d4c:	4581                	li	a1,0
    1d4e:	4505                	li	a0,1
    1d50:	c2dfe0ef          	jal	ra,97c <spi_write_8bit>
D:/projects/mechanical_arm/Firmware/CarMainControl/libraries/zf_device/zf_device_tft180.c:735

    tft180_write_index(0x3A);
    1d54:	03a00513          	li	a0,58
    1d58:	e5eff0ef          	jal	ra,13b6 <tft180_write_index>
D:/projects/mechanical_arm/Firmware/CarMainControl/libraries/zf_device/zf_device_tft180.c:736
    tft180_write_8bit_data(0x05);
    1d5c:	4595                	li	a1,5
    1d5e:	4505                	li	a0,1
    1d60:	c1dfe0ef          	jal	ra,97c <spi_write_8bit>
D:/projects/mechanical_arm/Firmware/CarMainControl/libraries/zf_device/zf_device_tft180.c:737
    tft180_write_index(0x29);
    1d64:	02900513          	li	a0,41
    1d68:	e4eff0ef          	jal	ra,13b6 <tft180_write_index>
D:/projects/mechanical_arm/Firmware/CarMainControl/libraries/zf_device/zf_device_tft180.c:739

    tft180_clear(tft180_bgcolor);
    1d6c:	200007b7          	lui	a5,0x20000
    1d70:	2227d783          	lhu	a5,546(a5) # 20000222 <tft180_bgcolor>
    1d74:	853e                	mv	a0,a5
    1d76:	8a9ff0ef          	jal	ra,161e <tft180_clear>
D:/projects/mechanical_arm/Firmware/CarMainControl/libraries/zf_device/zf_device_tft180.c:740
}
    1d7a:	0001                	nop
    1d7c:	40f2                	lw	ra,28(sp)
    1d7e:	4462                	lw	s0,24(sp)
    1d80:	4952                	lw	s2,20(sp)
    1d82:	49c2                	lw	s3,16(sp)
    1d84:	4a32                	lw	s4,12(sp)
    1d86:	4aa2                	lw	s5,8(sp)
    1d88:	4b12                	lw	s6,4(sp)
    1d8a:	4b82                	lw	s7,0(sp)
    1d8c:	6105                	addi	sp,sp,32
    1d8e:	8082                	ret

00001d90 <wireless_ch573_callback>:
wireless_ch573_callback():
D:/projects/mechanical_arm/Firmware/CarMainControl/libraries/zf_device/zf_device_wireless_ch573.c:37
// @return      void
// Sample usage:
// @note
//-------------------------------------------------------------------------------------------------------------------
void wireless_ch573_callback (void)
{
    1d90:	1141                	addi	sp,sp,-16
    1d92:	c606                	sw	ra,12(sp)
    1d94:	c422                	sw	s0,8(sp)
    1d96:	0800                	addi	s0,sp,16
D:/projects/mechanical_arm/Firmware/CarMainControl/libraries/zf_device/zf_device_wireless_ch573.c:38
    uart_query_byte(WIRELESS_CH573_INDEX, &wireless_ch573_data);
    1d98:	85018593          	addi	a1,gp,-1968 # 20000270 <wireless_ch573_data>
    1d9c:	4505                	li	a0,1
    1d9e:	968ff0ef          	jal	ra,f06 <uart_query_byte>
D:/projects/mechanical_arm/Firmware/CarMainControl/libraries/zf_device/zf_device_wireless_ch573.c:39
    fifo_write_buffer(&wireless_ch573_fifo, &wireless_ch573_data, 1);
    1da2:	4605                	li	a2,1
    1da4:	85018593          	addi	a1,gp,-1968 # 20000270 <wireless_ch573_data>
    1da8:	8b818513          	addi	a0,gp,-1864 # 200002d8 <wireless_ch573_fifo>
    1dac:	2151                	jal	2230 <fifo_write_buffer>
D:/projects/mechanical_arm/Firmware/CarMainControl/libraries/zf_device/zf_device_wireless_ch573.c:41

}
    1dae:	0001                	nop
    1db0:	40b2                	lw	ra,12(sp)
    1db2:	4422                	lw	s0,8(sp)
    1db4:	0141                	addi	sp,sp,16
    1db6:	8082                	ret

00001db8 <wireless_uart_callback>:
wireless_uart_callback():
D:/projects/mechanical_arm/Firmware/CarMainControl/libraries/zf_device/zf_device_wireless_uart.c:41
// @return      void
// Sample usage:
// @note
//-------------------------------------------------------------------------------------------------------------------
void wireless_uart_callback (void)
{
    1db8:	1141                	addi	sp,sp,-16
    1dba:	c606                	sw	ra,12(sp)
    1dbc:	c422                	sw	s0,8(sp)
    1dbe:	0800                	addi	s0,sp,16
D:/projects/mechanical_arm/Firmware/CarMainControl/libraries/zf_device/zf_device_wireless_uart.c:42
    uart_query_byte(WIRELESS_UART_INDEX, &wireless_uart_data);
    1dc0:	85118593          	addi	a1,gp,-1967 # 20000271 <wireless_uart_data>
    1dc4:	4505                	li	a0,1
    1dc6:	940ff0ef          	jal	ra,f06 <uart_query_byte>
D:/projects/mechanical_arm/Firmware/CarMainControl/libraries/zf_device/zf_device_wireless_uart.c:43
    fifo_write_buffer(&wireless_uart_fifo, &wireless_uart_data, 1);
    1dca:	4605                	li	a2,1
    1dcc:	85118593          	addi	a1,gp,-1967 # 20000271 <wireless_uart_data>
    1dd0:	8cc18513          	addi	a0,gp,-1844 # 200002ec <wireless_uart_fifo>
    1dd4:	29b1                	jal	2230 <fifo_write_buffer>
D:/projects/mechanical_arm/Firmware/CarMainControl/libraries/zf_device/zf_device_wireless_uart.c:51
    {
        wireless_auto_baud_flag = 3;
        fifo_read_buffer(&wireless_uart_fifo, (uint8 *)wireless_auto_baud_data, (uint32 *)&wireless_auto_baud_flag, FIFO_READ_AND_CLEAN);
    }
#endif
}
    1dd6:	0001                	nop
    1dd8:	40b2                	lw	ra,12(sp)
    1dda:	4422                	lw	s0,8(sp)
    1ddc:	0141                	addi	sp,sp,16
    1dde:	8082                	ret

00001de0 <clock_init>:
clock_init():
D:/projects/mechanical_arm/Firmware/CarMainControl/libraries/zf_common/zf_common_clock.c:36
// @param       clock           时钟频率 推荐使用 zf_common_clock.h 中 system_clock_enum 定义的选项
// @return      void
// Sample usage:                clock_init(SYSTEM_CLOCK_144M);                   // 初始化核心时钟为 144MHz
//-------------------------------------------------------------------------------------------------------------------
void clock_init (uint32 clock)
{
    1de0:	1101                	addi	sp,sp,-32
    1de2:	ce06                	sw	ra,28(sp)
    1de4:	cc22                	sw	s0,24(sp)
    1de6:	1000                	addi	s0,sp,32
    1de8:	fea42623          	sw	a0,-20(s0)
D:/projects/mechanical_arm/Firmware/CarMainControl/libraries/zf_common/zf_common_clock.c:37
    system_clock = clock;                                                       // 记录核心时钟频率
    1dec:	fec42703          	lw	a4,-20(s0)
    1df0:	84e1aa23          	sw	a4,-1964(gp) # 20000274 <system_clock>
D:/projects/mechanical_arm/Firmware/CarMainControl/libraries/zf_common/zf_common_clock.c:38
    clock_reset();
    1df4:	2811                	jal	1e08 <clock_reset>
D:/projects/mechanical_arm/Firmware/CarMainControl/libraries/zf_common/zf_common_clock.c:39
    clock_set_freq(clock);
    1df6:	fec42503          	lw	a0,-20(s0)
    1dfa:	2051                	jal	1e7e <clock_set_freq>
D:/projects/mechanical_arm/Firmware/CarMainControl/libraries/zf_common/zf_common_clock.c:40
    interrupt_init();
    1dfc:	2bc1                	jal	23cc <interrupt_init>
D:/projects/mechanical_arm/Firmware/CarMainControl/libraries/zf_common/zf_common_clock.c:41
}
    1dfe:	0001                	nop
    1e00:	40f2                	lw	ra,28(sp)
    1e02:	4462                	lw	s0,24(sp)
    1e04:	6105                	addi	sp,sp,32
    1e06:	8082                	ret

00001e08 <clock_reset>:
clock_reset():
D:/projects/mechanical_arm/Firmware/CarMainControl/libraries/zf_common/zf_common_clock.c:49
// @brief       核心时钟恢复初始设置 内部调用
// @param       void
// @return      void
//-------------------------------------------------------------------------------------------------------------------
static void clock_reset (void)
{
    1e08:	1141                	addi	sp,sp,-16
    1e0a:	c622                	sw	s0,12(sp)
    1e0c:	0800                	addi	s0,sp,16
D:/projects/mechanical_arm/Firmware/CarMainControl/libraries/zf_common/zf_common_clock.c:50
    RCC->CTLR |= (uint32)0x00000001;      //使能HSI振荡器
    1e0e:	400217b7          	lui	a5,0x40021
    1e12:	4398                	lw	a4,0(a5)
    1e14:	400217b7          	lui	a5,0x40021
    1e18:	00176713          	ori	a4,a4,1
    1e1c:	c398                	sw	a4,0(a5)
D:/projects/mechanical_arm/Firmware/CarMainControl/libraries/zf_common/zf_common_clock.c:51
    RCC->CFGR0 &= (uint32)0xF8FF0000;
    1e1e:	400217b7          	lui	a5,0x40021
    1e22:	43d4                	lw	a3,4(a5)
    1e24:	400217b7          	lui	a5,0x40021
    1e28:	f8ff0737          	lui	a4,0xf8ff0
    1e2c:	8f75                	and	a4,a4,a3
    1e2e:	c3d8                	sw	a4,4(a5)
D:/projects/mechanical_arm/Firmware/CarMainControl/libraries/zf_common/zf_common_clock.c:52
    RCC->CTLR &= (uint32)0xFEF6FFFF;
    1e30:	400217b7          	lui	a5,0x40021
    1e34:	4394                	lw	a3,0(a5)
    1e36:	400217b7          	lui	a5,0x40021
    1e3a:	fef70737          	lui	a4,0xfef70
    1e3e:	177d                	addi	a4,a4,-1
    1e40:	8f75                	and	a4,a4,a3
    1e42:	c398                	sw	a4,0(a5)
D:/projects/mechanical_arm/Firmware/CarMainControl/libraries/zf_common/zf_common_clock.c:53
    RCC->CTLR &= (uint32)0xFFFBFFFF;
    1e44:	400217b7          	lui	a5,0x40021
    1e48:	4394                	lw	a3,0(a5)
    1e4a:	400217b7          	lui	a5,0x40021
    1e4e:	fffc0737          	lui	a4,0xfffc0
    1e52:	177d                	addi	a4,a4,-1
    1e54:	8f75                	and	a4,a4,a3
    1e56:	c398                	sw	a4,0(a5)
D:/projects/mechanical_arm/Firmware/CarMainControl/libraries/zf_common/zf_common_clock.c:54
    RCC->CFGR0 &= (uint32)0xFF80FFFF;
    1e58:	400217b7          	lui	a5,0x40021
    1e5c:	43d4                	lw	a3,4(a5)
    1e5e:	400217b7          	lui	a5,0x40021
    1e62:	ff810737          	lui	a4,0xff810
    1e66:	177d                	addi	a4,a4,-1
    1e68:	8f75                	and	a4,a4,a3
    1e6a:	c3d8                	sw	a4,4(a5)
D:/projects/mechanical_arm/Firmware/CarMainControl/libraries/zf_common/zf_common_clock.c:55
    RCC->INTR = 0x009F0000;                 // 禁用所有中断并清除挂起位
    1e6c:	400217b7          	lui	a5,0x40021
    1e70:	009f0737          	lui	a4,0x9f0
    1e74:	c798                	sw	a4,8(a5)
D:/projects/mechanical_arm/Firmware/CarMainControl/libraries/zf_common/zf_common_clock.c:56
}
    1e76:	0001                	nop
    1e78:	4432                	lw	s0,12(sp)
    1e7a:	0141                	addi	sp,sp,16
    1e7c:	8082                	ret

00001e7e <clock_set_freq>:
clock_set_freq():
D:/projects/mechanical_arm/Firmware/CarMainControl/libraries/zf_common/zf_common_clock.c:66
// @brief       核心时钟设置
// @param       clock           时钟频率 推荐使用 zf_common_clock.h 中 system_clock_enum 定义的选项
// @return      void
//-------------------------------------------------------------------------------------------------------------------
static void clock_set_freq (uint32 clock)
{
    1e7e:	7179                	addi	sp,sp,-48
    1e80:	d622                	sw	s0,44(sp)
    1e82:	1800                	addi	s0,sp,48
    1e84:	fca42e23          	sw	a0,-36(s0)
D:/projects/mechanical_arm/Firmware/CarMainControl/libraries/zf_common/zf_common_clock.c:67
    __IO uint32 StartUpCounter = 0, HSEStatus = 0;
    1e88:	fe042623          	sw	zero,-20(s0)
    1e8c:	fe042423          	sw	zero,-24(s0)
D:/projects/mechanical_arm/Firmware/CarMainControl/libraries/zf_common/zf_common_clock.c:69

    RCC->CTLR |= ((uint32)RCC_HSEON);
    1e90:	400217b7          	lui	a5,0x40021
    1e94:	4394                	lw	a3,0(a5)
    1e96:	400217b7          	lui	a5,0x40021
    1e9a:	6741                	lui	a4,0x10
    1e9c:	8f55                	or	a4,a4,a3
    1e9e:	c398                	sw	a4,0(a5)
D:/projects/mechanical_arm/Firmware/CarMainControl/libraries/zf_common/zf_common_clock.c:74 (discriminator 2)

    /* Wait till HSE is ready and if Time out is reached exit */
    do
    {
        HSEStatus = RCC->CTLR & RCC_HSERDY;
    1ea0:	400217b7          	lui	a5,0x40021
    1ea4:	4398                	lw	a4,0(a5)
    1ea6:	000207b7          	lui	a5,0x20
    1eaa:	8ff9                	and	a5,a5,a4
    1eac:	fef42423          	sw	a5,-24(s0)
D:/projects/mechanical_arm/Firmware/CarMainControl/libraries/zf_common/zf_common_clock.c:75 (discriminator 2)
        StartUpCounter++;
    1eb0:	fec42783          	lw	a5,-20(s0)
    1eb4:	0785                	addi	a5,a5,1
    1eb6:	fef42623          	sw	a5,-20(s0)
D:/projects/mechanical_arm/Firmware/CarMainControl/libraries/zf_common/zf_common_clock.c:76 (discriminator 2)
    } while((HSEStatus == 0) && (StartUpCounter != HSE_STARTUP_TIMEOUT));
    1eba:	fe842783          	lw	a5,-24(s0)
    1ebe:	e799                	bnez	a5,1ecc <clock_set_freq+0x4e>
D:/projects/mechanical_arm/Firmware/CarMainControl/libraries/zf_common/zf_common_clock.c:76 (discriminator 1)
    1ec0:	fec42703          	lw	a4,-20(s0)
    1ec4:	50000793          	li	a5,1280
    1ec8:	fcf71ce3          	bne	a4,a5,1ea0 <clock_set_freq+0x22>
D:/projects/mechanical_arm/Firmware/CarMainControl/libraries/zf_common/zf_common_clock.c:78

    if ((RCC->CTLR & RCC_HSERDY) != RESET)
    1ecc:	400217b7          	lui	a5,0x40021
    1ed0:	4398                	lw	a4,0(a5)
    1ed2:	000207b7          	lui	a5,0x20
    1ed6:	8ff9                	and	a5,a5,a4
    1ed8:	c789                	beqz	a5,1ee2 <clock_set_freq+0x64>
D:/projects/mechanical_arm/Firmware/CarMainControl/libraries/zf_common/zf_common_clock.c:80
    {
        HSEStatus = (uint32)0x01;
    1eda:	4785                	li	a5,1
    1edc:	fef42423          	sw	a5,-24(s0)
    1ee0:	a019                	j	1ee6 <clock_set_freq+0x68>
D:/projects/mechanical_arm/Firmware/CarMainControl/libraries/zf_common/zf_common_clock.c:84
    }
    else
    {
        HSEStatus = (uint32)0x00;
    1ee2:	fe042423          	sw	zero,-24(s0)
D:/projects/mechanical_arm/Firmware/CarMainControl/libraries/zf_common/zf_common_clock.c:87
    }

    if (HSEStatus == (uint32)0x01)
    1ee6:	fe842703          	lw	a4,-24(s0)
    1eea:	4785                	li	a5,1
    1eec:	1ef71563          	bne	a4,a5,20d6 <clock_set_freq+0x258>
D:/projects/mechanical_arm/Firmware/CarMainControl/libraries/zf_common/zf_common_clock.c:90
    {
        /* Enable Prefetch Buffer */
        FLASH->ACTLR |= FLASH_ACTLR_PRFTBE;
    1ef0:	400227b7          	lui	a5,0x40022
    1ef4:	4398                	lw	a4,0(a5)
    1ef6:	400227b7          	lui	a5,0x40022
    1efa:	01076713          	ori	a4,a4,16
    1efe:	c398                	sw	a4,0(a5)
D:/projects/mechanical_arm/Firmware/CarMainControl/libraries/zf_common/zf_common_clock.c:93

        /* Flash wait state */
        FLASH->ACTLR &= (uint32)((uint32)~FLASH_ACTLR_LATENCY);
    1f00:	400227b7          	lui	a5,0x40022
    1f04:	4398                	lw	a4,0(a5)
    1f06:	400227b7          	lui	a5,0x40022
    1f0a:	9b71                	andi	a4,a4,-4
    1f0c:	c398                	sw	a4,0(a5)
D:/projects/mechanical_arm/Firmware/CarMainControl/libraries/zf_common/zf_common_clock.c:95

        FLASH->ACTLR |= (((clock-1)/24000000)&0x07);
    1f0e:	400227b7          	lui	a5,0x40022
    1f12:	4394                	lw	a3,0(a5)
    1f14:	fdc42783          	lw	a5,-36(s0)
    1f18:	fff78713          	addi	a4,a5,-1 # 40021fff <_eusrstack+0x20011fff>
    1f1c:	016e37b7          	lui	a5,0x16e3
    1f20:	60078793          	addi	a5,a5,1536 # 16e3600 <_data_lma+0x16d912c>
    1f24:	02f757b3          	divu	a5,a4,a5
    1f28:	0077f713          	andi	a4,a5,7
    1f2c:	400227b7          	lui	a5,0x40022
    1f30:	8f55                	or	a4,a4,a3
    1f32:	c398                	sw	a4,0(a5)
D:/projects/mechanical_arm/Firmware/CarMainControl/libraries/zf_common/zf_common_clock.c:98

        /* HCLK = SYSCLK */
        RCC->CFGR0 |= (uint32)RCC_HPRE_DIV1;
    1f34:	40021737          	lui	a4,0x40021
    1f38:	400217b7          	lui	a5,0x40021
    1f3c:	4358                	lw	a4,4(a4)
    1f3e:	c3d8                	sw	a4,4(a5)
D:/projects/mechanical_arm/Firmware/CarMainControl/libraries/zf_common/zf_common_clock.c:100
        /* PCLK2 = HCLK */
        RCC->CFGR0 |= (uint32)RCC_PPRE2_DIV1;
    1f40:	40021737          	lui	a4,0x40021
    1f44:	400217b7          	lui	a5,0x40021
    1f48:	4358                	lw	a4,4(a4)
    1f4a:	c3d8                	sw	a4,4(a5)
D:/projects/mechanical_arm/Firmware/CarMainControl/libraries/zf_common/zf_common_clock.c:102
        /* PCLK1 = HCLK */
        RCC->CFGR0 |= (uint32)RCC_PPRE1_DIV1;
    1f4c:	40021737          	lui	a4,0x40021
    1f50:	400217b7          	lui	a5,0x40021
    1f54:	4358                	lw	a4,4(a4)
    1f56:	c3d8                	sw	a4,4(a5)
D:/projects/mechanical_arm/Firmware/CarMainControl/libraries/zf_common/zf_common_clock.c:105


        if(clock == SYSTEM_CLOCK_XTAL)
    1f58:	fdc42703          	lw	a4,-36(s0)
    1f5c:	007a17b7          	lui	a5,0x7a1
    1f60:	20078793          	addi	a5,a5,512 # 7a1200 <_data_lma+0x796d2c>
    1f64:	02f71b63          	bne	a4,a5,1f9a <clock_set_freq+0x11c>
D:/projects/mechanical_arm/Firmware/CarMainControl/libraries/zf_common/zf_common_clock.c:108
        {
            /* Select HSE as system clock source */
            RCC->CFGR0 &= (uint32)((uint32)~(RCC_SW));
    1f68:	400217b7          	lui	a5,0x40021
    1f6c:	43d8                	lw	a4,4(a5)
    1f6e:	400217b7          	lui	a5,0x40021
    1f72:	9b71                	andi	a4,a4,-4
    1f74:	c3d8                	sw	a4,4(a5)
D:/projects/mechanical_arm/Firmware/CarMainControl/libraries/zf_common/zf_common_clock.c:109
            RCC->CFGR0 |= (uint32)RCC_SW_HSE;
    1f76:	400217b7          	lui	a5,0x40021
    1f7a:	43d8                	lw	a4,4(a5)
    1f7c:	400217b7          	lui	a5,0x40021
    1f80:	00176713          	ori	a4,a4,1
    1f84:	c3d8                	sw	a4,4(a5)
D:/projects/mechanical_arm/Firmware/CarMainControl/libraries/zf_common/zf_common_clock.c:111
            /* Wait till HSE is used as system clock source */
            while ((RCC->CFGR0 & (uint32)RCC_SWS) != (uint32)0x04)
    1f86:	0001                	nop
D:/projects/mechanical_arm/Firmware/CarMainControl/libraries/zf_common/zf_common_clock.c:111 (discriminator 1)
    1f88:	400217b7          	lui	a5,0x40021
    1f8c:	43dc                	lw	a5,4(a5)
    1f8e:	00c7f713          	andi	a4,a5,12
    1f92:	4791                	li	a5,4
    1f94:	fef71ae3          	bne	a4,a5,1f88 <clock_set_freq+0x10a>
D:/projects/mechanical_arm/Firmware/CarMainControl/libraries/zf_common/zf_common_clock.c:161
        /*
        * If HSE fails to start-up, the application will have wrong clock
        * configuration. User can add here some code to deal with this error
        */
    }
}
    1f98:	a281                	j	20d8 <clock_set_freq+0x25a>
D:/projects/mechanical_arm/Firmware/CarMainControl/libraries/zf_common/zf_common_clock.c:118
            RCC->CFGR0 &= (uint32)((uint32)~(RCC_PLLSRC | RCC_PLLXTPRE | RCC_PLLMULL));
    1f9a:	400217b7          	lui	a5,0x40021
    1f9e:	43d4                	lw	a3,4(a5)
    1fa0:	400217b7          	lui	a5,0x40021
    1fa4:	ffc10737          	lui	a4,0xffc10
    1fa8:	177d                	addi	a4,a4,-1
    1faa:	8f75                	and	a4,a4,a3
    1fac:	c3d8                	sw	a4,4(a5)
D:/projects/mechanical_arm/Firmware/CarMainControl/libraries/zf_common/zf_common_clock.c:120
            if(clock == SYSTEM_CLOCK_144M)
    1fae:	fdc42703          	lw	a4,-36(s0)
    1fb2:	089547b7          	lui	a5,0x8954
    1fb6:	40078793          	addi	a5,a5,1024 # 8954400 <_data_lma+0x8949f2c>
    1fba:	00f71b63          	bne	a4,a5,1fd0 <clock_set_freq+0x152>
D:/projects/mechanical_arm/Firmware/CarMainControl/libraries/zf_common/zf_common_clock.c:121
            RCC->CFGR0 |= (uint32)(RCC_PLLSRC_HSE | RCC_PLLXTPRE_HSE | RCC_PLLMULL18_EXTEN);
    1fbe:	400217b7          	lui	a5,0x40021
    1fc2:	43d4                	lw	a3,4(a5)
    1fc4:	400217b7          	lui	a5,0x40021
    1fc8:	6741                	lui	a4,0x10
    1fca:	8f55                	or	a4,a4,a3
    1fcc:	c3d8                	sw	a4,4(a5)
    1fce:	a855                	j	2082 <clock_set_freq+0x204>
D:/projects/mechanical_arm/Firmware/CarMainControl/libraries/zf_common/zf_common_clock.c:122
            else if(clock == SYSTEM_CLOCK_120M)
    1fd0:	fdc42703          	lw	a4,-36(s0)
    1fd4:	072717b7          	lui	a5,0x7271
    1fd8:	e0078793          	addi	a5,a5,-512 # 7270e00 <_data_lma+0x726692c>
    1fdc:	00f71c63          	bne	a4,a5,1ff4 <clock_set_freq+0x176>
D:/projects/mechanical_arm/Firmware/CarMainControl/libraries/zf_common/zf_common_clock.c:123
            RCC->CFGR0 |= (uint32)(RCC_PLLSRC_HSE | RCC_PLLXTPRE_HSE | RCC_PLLMULL15_EXTEN);
    1fe0:	400217b7          	lui	a5,0x40021
    1fe4:	43d4                	lw	a3,4(a5)
    1fe6:	400217b7          	lui	a5,0x40021
    1fea:	00390737          	lui	a4,0x390
    1fee:	8f55                	or	a4,a4,a3
    1ff0:	c3d8                	sw	a4,4(a5)
    1ff2:	a841                	j	2082 <clock_set_freq+0x204>
D:/projects/mechanical_arm/Firmware/CarMainControl/libraries/zf_common/zf_common_clock.c:124
            else if(clock == SYSTEM_CLOCK_96M)
    1ff4:	fdc42703          	lw	a4,-36(s0)
    1ff8:	05b8e7b7          	lui	a5,0x5b8e
    1ffc:	80078793          	addi	a5,a5,-2048 # 5b8d800 <_data_lma+0x5b8332c>
    2000:	00f71c63          	bne	a4,a5,2018 <clock_set_freq+0x19a>
D:/projects/mechanical_arm/Firmware/CarMainControl/libraries/zf_common/zf_common_clock.c:125
            RCC->CFGR0 |= (uint32)(RCC_PLLSRC_HSE | RCC_PLLXTPRE_HSE | RCC_PLLMULL12_EXTEN);
    2004:	400217b7          	lui	a5,0x40021
    2008:	43d4                	lw	a3,4(a5)
    200a:	400217b7          	lui	a5,0x40021
    200e:	00290737          	lui	a4,0x290
    2012:	8f55                	or	a4,a4,a3
    2014:	c3d8                	sw	a4,4(a5)
    2016:	a0b5                	j	2082 <clock_set_freq+0x204>
D:/projects/mechanical_arm/Firmware/CarMainControl/libraries/zf_common/zf_common_clock.c:126
            else if(clock == SYSTEM_CLOCK_72M)
    2018:	fdc42703          	lw	a4,-36(s0)
    201c:	044aa7b7          	lui	a5,0x44aa
    2020:	20078793          	addi	a5,a5,512 # 44aa200 <_data_lma+0x449fd2c>
    2024:	00f71c63          	bne	a4,a5,203c <clock_set_freq+0x1be>
D:/projects/mechanical_arm/Firmware/CarMainControl/libraries/zf_common/zf_common_clock.c:127
            RCC->CFGR0 |= (uint32)(RCC_PLLSRC_HSE | RCC_PLLXTPRE_HSE | RCC_PLLMULL9_EXTEN);
    2028:	400217b7          	lui	a5,0x40021
    202c:	43d4                	lw	a3,4(a5)
    202e:	400217b7          	lui	a5,0x40021
    2032:	001d0737          	lui	a4,0x1d0
    2036:	8f55                	or	a4,a4,a3
    2038:	c3d8                	sw	a4,4(a5)
    203a:	a0a1                	j	2082 <clock_set_freq+0x204>
D:/projects/mechanical_arm/Firmware/CarMainControl/libraries/zf_common/zf_common_clock.c:128
            else if(clock == SYSTEM_CLOCK_48M)
    203c:	fdc42703          	lw	a4,-36(s0)
    2040:	02dc77b7          	lui	a5,0x2dc7
    2044:	c0078793          	addi	a5,a5,-1024 # 2dc6c00 <_data_lma+0x2dbc72c>
    2048:	00f71c63          	bne	a4,a5,2060 <clock_set_freq+0x1e2>
D:/projects/mechanical_arm/Firmware/CarMainControl/libraries/zf_common/zf_common_clock.c:129
            RCC->CFGR0 |= (uint32)(RCC_PLLSRC_HSE | RCC_PLLXTPRE_HSE | RCC_PLLMULL6_EXTEN);
    204c:	400217b7          	lui	a5,0x40021
    2050:	43d4                	lw	a3,4(a5)
    2052:	400217b7          	lui	a5,0x40021
    2056:	00110737          	lui	a4,0x110
    205a:	8f55                	or	a4,a4,a3
    205c:	c3d8                	sw	a4,4(a5)
    205e:	a015                	j	2082 <clock_set_freq+0x204>
D:/projects/mechanical_arm/Firmware/CarMainControl/libraries/zf_common/zf_common_clock.c:130
            else if(clock == SYSTEM_CLOCK_24M)
    2060:	fdc42703          	lw	a4,-36(s0)
    2064:	016e37b7          	lui	a5,0x16e3
    2068:	60078793          	addi	a5,a5,1536 # 16e3600 <_data_lma+0x16d912c>
    206c:	00f71b63          	bne	a4,a5,2082 <clock_set_freq+0x204>
D:/projects/mechanical_arm/Firmware/CarMainControl/libraries/zf_common/zf_common_clock.c:131
            RCC->CFGR0 |= (uint32)(RCC_PLLSRC_HSE | RCC_PLLXTPRE_HSE | RCC_PLLMULL3_EXTEN);
    2070:	400217b7          	lui	a5,0x40021
    2074:	43d4                	lw	a3,4(a5)
    2076:	400217b7          	lui	a5,0x40021
    207a:	00050737          	lui	a4,0x50
    207e:	8f55                	or	a4,a4,a3
    2080:	c3d8                	sw	a4,4(a5)
D:/projects/mechanical_arm/Firmware/CarMainControl/libraries/zf_common/zf_common_clock.c:138
            RCC->CTLR |= RCC_PLLON;
    2082:	400217b7          	lui	a5,0x40021
    2086:	4394                	lw	a3,0(a5)
    2088:	400217b7          	lui	a5,0x40021
    208c:	01000737          	lui	a4,0x1000
    2090:	8f55                	or	a4,a4,a3
    2092:	c398                	sw	a4,0(a5)
D:/projects/mechanical_arm/Firmware/CarMainControl/libraries/zf_common/zf_common_clock.c:140
            while((RCC->CTLR & RCC_PLLRDY) == 0)
    2094:	0001                	nop
D:/projects/mechanical_arm/Firmware/CarMainControl/libraries/zf_common/zf_common_clock.c:140 (discriminator 1)
    2096:	400217b7          	lui	a5,0x40021
    209a:	4398                	lw	a4,0(a5)
    209c:	020007b7          	lui	a5,0x2000
    20a0:	8ff9                	and	a5,a5,a4
    20a2:	dbf5                	beqz	a5,2096 <clock_set_freq+0x218>
D:/projects/mechanical_arm/Firmware/CarMainControl/libraries/zf_common/zf_common_clock.c:144
            RCC->CFGR0 &= (uint32)((uint32)~(RCC_SW));
    20a4:	400217b7          	lui	a5,0x40021
    20a8:	43d8                	lw	a4,4(a5)
    20aa:	400217b7          	lui	a5,0x40021
    20ae:	9b71                	andi	a4,a4,-4
    20b0:	c3d8                	sw	a4,4(a5)
D:/projects/mechanical_arm/Firmware/CarMainControl/libraries/zf_common/zf_common_clock.c:145
            RCC->CFGR0 |= (uint32)RCC_SW_PLL;
    20b2:	400217b7          	lui	a5,0x40021
    20b6:	43d8                	lw	a4,4(a5)
    20b8:	400217b7          	lui	a5,0x40021
    20bc:	00276713          	ori	a4,a4,2
    20c0:	c3d8                	sw	a4,4(a5)
D:/projects/mechanical_arm/Firmware/CarMainControl/libraries/zf_common/zf_common_clock.c:147
            while ((RCC->CFGR0 & (uint32)RCC_SWS) != (uint32)0x08)
    20c2:	0001                	nop
D:/projects/mechanical_arm/Firmware/CarMainControl/libraries/zf_common/zf_common_clock.c:147 (discriminator 1)
    20c4:	400217b7          	lui	a5,0x40021
    20c8:	43dc                	lw	a5,4(a5)
    20ca:	00c7f713          	andi	a4,a5,12
    20ce:	47a1                	li	a5,8
    20d0:	fef71ae3          	bne	a4,a5,20c4 <clock_set_freq+0x246>
D:/projects/mechanical_arm/Firmware/CarMainControl/libraries/zf_common/zf_common_clock.c:161
}
    20d4:	a011                	j	20d8 <clock_set_freq+0x25a>
D:/projects/mechanical_arm/Firmware/CarMainControl/libraries/zf_common/zf_common_clock.c:155 (discriminator 2)
        while(1);           // 外部晶振不稳定或缺失 时钟设置失败
    20d6:	a001                	j	20d6 <clock_set_freq+0x258>
D:/projects/mechanical_arm/Firmware/CarMainControl/libraries/zf_common/zf_common_clock.c:161
}
    20d8:	5432                	lw	s0,44(sp)
    20da:	6145                	addi	sp,sp,48
    20dc:	8082                	ret

000020de <__NOP>:
__NOP():
D:\projects\mechanical_arm\Firmware\CarMainControl\libraries\sdk\Core/core_riscv.h:117
#define SysTick         ((SysTick_Type *) 0xE000F000)

/* risc-v specific functions */
RV_STATIC_INLINE void __enable_irq() { __asm volatile ("csrw 0x800, %0" : : "r" (0x6088) ); }
RV_STATIC_INLINE void __disable_irq() { __asm volatile ("csrw 0x800, %0" : : "r" (0x6000) ); }
RV_STATIC_INLINE void __NOP() { __asm volatile ("nop"); }
    20de:	1141                	addi	sp,sp,-16
    20e0:	c622                	sw	s0,12(sp)
    20e2:	0800                	addi	s0,sp,16
    20e4:	0001                	nop
    20e6:	0001                	nop
    20e8:	4432                	lw	s0,12(sp)
    20ea:	0141                	addi	sp,sp,16
    20ec:	8082                	ret

000020ee <debug_init>:
debug_init():
D:/projects/mechanical_arm/Firmware/CarMainControl/libraries/zf_common/zf_common_debug.c:41
// @param       void
// @return      void
// Sample usage:
//-------------------------------------------------------------------------------------------------------------------
void debug_init (void)
{
    20ee:	1141                	addi	sp,sp,-16
    20f0:	c606                	sw	ra,12(sp)
    20f2:	c422                	sw	s0,8(sp)
    20f4:	0800                	addi	s0,sp,16
D:/projects/mechanical_arm/Firmware/CarMainControl/libraries/zf_common/zf_common_debug.c:48
//    GPIO_DeInit(GPIOB);
//    GPIO_DeInit(GPIOC);
//    GPIO_DeInit(GPIOD);
//    GPIO_DeInit(GPIOE);

    uart_init(
    20f6:	02100693          	li	a3,33
    20fa:	02000613          	li	a2,32
    20fe:	67f1                	lui	a5,0x1c
    2100:	20078593          	addi	a1,a5,512 # 1c200 <_data_lma+0x11d2c>
    2104:	4509                	li	a0,2
    2106:	e5ffe0ef          	jal	ra,f64 <uart_init>
D:/projects/mechanical_arm/Firmware/CarMainControl/libraries/zf_common/zf_common_debug.c:56
        DEBUG_UART_TX_PIN,                                                      // 在 zf_common_debug.h 中查看对应值
        DEBUG_UART_RX_PIN);                                                     // 在 zf_common_debug.h 中查看对应值

    if(DEBUG_UART_USE_INTERRUPT)                                                // 如果启用串口中断
    {
        uart_rx_interrupt(DEBUG_UART_INDEX, 1);                                 // 使能对应串口接收中断
    210a:	4585                	li	a1,1
    210c:	4509                	li	a0,2
    210e:	d73fe0ef          	jal	ra,e80 <uart_rx_interrupt>
D:/projects/mechanical_arm/Firmware/CarMainControl/libraries/zf_common/zf_common_debug.c:58
    }
    zf_debug_init_flag = 1;
    2112:	4705                	li	a4,1
    2114:	84e18c23          	sb	a4,-1960(gp) # 20000278 <zf_debug_init_flag>
D:/projects/mechanical_arm/Firmware/CarMainControl/libraries/zf_common/zf_common_debug.c:59
}
    2118:	0001                	nop
    211a:	40b2                	lw	ra,12(sp)
    211c:	4422                	lw	s0,8(sp)
    211e:	0141                	addi	sp,sp,16
    2120:	8082                	ret

00002122 <debug_assert_handler>:
debug_assert_handler():
D:/projects/mechanical_arm/Firmware/CarMainControl/libraries/zf_common/zf_common_debug.c:70
// @param       line        目标行数
// @return      void
// Sample usage:            这个函数不是直接调用的 使用 zf_commmon_debug.h 中的 zf_assert(x) 接口
//-------------------------------------------------------------------------------------------------------------------
void debug_assert_handler (uint8 pass, char *file, uint32 line)
{
    2122:	1101                	addi	sp,sp,-32
    2124:	ce06                	sw	ra,28(sp)
    2126:	cc22                	sw	s0,24(sp)
    2128:	1000                	addi	s0,sp,32
    212a:	87aa                	mv	a5,a0
    212c:	feb42423          	sw	a1,-24(s0)
    2130:	fec42223          	sw	a2,-28(s0)
    2134:	fef407a3          	sb	a5,-17(s0)
D:/projects/mechanical_arm/Firmware/CarMainControl/libraries/zf_common/zf_common_debug.c:71
    if(pass)
    2138:	fef44783          	lbu	a5,-17(s0)
    213c:	e385                	bnez	a5,215c <debug_assert_handler+0x3a>
D:/projects/mechanical_arm/Firmware/CarMainControl/libraries/zf_common/zf_common_debug.c:73
        return;
    if(zf_debug_init_flag)
    213e:	8581c783          	lbu	a5,-1960(gp) # 20000278 <zf_debug_init_flag>
    2142:	cb91                	beqz	a5,2156 <debug_assert_handler+0x34>
D:/projects/mechanical_arm/Firmware/CarMainControl/libraries/zf_common/zf_common_debug.c:75
    {
        printf("Assert error in %s line %d.\r\n", file, line);
    2144:	fe442603          	lw	a2,-28(s0)
    2148:	fe842583          	lw	a1,-24(s0)
    214c:	67a5                	lui	a5,0x9
    214e:	7f478513          	addi	a0,a5,2036 # 97f4 <_sbrk+0xdc>
    2152:	7a7040ef          	jal	ra,70f8 <iprintf>
D:/projects/mechanical_arm/Firmware/CarMainControl/libraries/zf_common/zf_common_debug.c:77
    }
    interrupt_global_disable();
    2156:	2c4d                	jal	2408 <interrupt_global_disable>
D:/projects/mechanical_arm/Firmware/CarMainControl/libraries/zf_common/zf_common_debug.c:92 (discriminator 1)
        // 如果没有初始化 debug
        // 那就看看这个 file 的字符串值和 line 的行数
        // 那代表报错的文件路径名称和对应报错行数

        // 再去调试看看是为什么参数出错
        __NOP();
    2158:	3759                	jal	20de <__NOP>
    215a:	bffd                	j	2158 <debug_assert_handler+0x36>
D:/projects/mechanical_arm/Firmware/CarMainControl/libraries/zf_common/zf_common_debug.c:72
        return;
    215c:	0001                	nop
D:/projects/mechanical_arm/Firmware/CarMainControl/libraries/zf_common/zf_common_debug.c:94
    }
}
    215e:	40f2                	lw	ra,28(sp)
    2160:	4462                	lw	s0,24(sp)
    2162:	6105                	addi	sp,sp,32
    2164:	8082                	ret

00002166 <_write>:
_write():
D:/projects/mechanical_arm/Firmware/CarMainControl/libraries/zf_common/zf_common_debug.c:159
//  @since      v1.0
//  Sample usage:              重定向printf到DEBUG串口上
//-------------------------------------------------------------------------------------------------------------------
#if (1 == PRINTF_ENABLE)
int _write(int fd, char *buf, int size)
{
    2166:	7179                	addi	sp,sp,-48
    2168:	d606                	sw	ra,44(sp)
    216a:	d422                	sw	s0,40(sp)
    216c:	1800                	addi	s0,sp,48
    216e:	fca42e23          	sw	a0,-36(s0)
    2172:	fcb42c23          	sw	a1,-40(s0)
    2176:	fcc42a23          	sw	a2,-44(s0)
D:/projects/mechanical_arm/Firmware/CarMainControl/libraries/zf_common/zf_common_debug.c:161
    int i;
    for(i=0; i<size; i++)
    217a:	fe042623          	sw	zero,-20(s0)
    217e:	a0a9                	j	21c8 <_write+0x62>
D:/projects/mechanical_arm/Firmware/CarMainControl/libraries/zf_common/zf_common_debug.c:163
    {
        while (USART_GetFlagStatus((USART_TypeDef*)uart_index[DEBUG_UART_INDEX], USART_FLAG_TC) == RESET);
    2180:	0001                	nop
D:/projects/mechanical_arm/Firmware/CarMainControl/libraries/zf_common/zf_common_debug.c:163 (discriminator 1)
    2182:	67a9                	lui	a5,0xa
    2184:	8b478793          	addi	a5,a5,-1868 # 98b4 <uart_index>
    2188:	479c                	lw	a5,8(a5)
    218a:	04000593          	li	a1,64
    218e:	853e                	mv	a0,a5
    2190:	227010ef          	jal	ra,3bb6 <USART_GetFlagStatus>
    2194:	87aa                	mv	a5,a0
    2196:	d7f5                	beqz	a5,2182 <_write+0x1c>
D:/projects/mechanical_arm/Firmware/CarMainControl/libraries/zf_common/zf_common_debug.c:164 (discriminator 2)
        USART_SendData((USART_TypeDef*)uart_index[DEBUG_UART_INDEX], *buf++);
    2198:	67a9                	lui	a5,0xa
    219a:	8b478793          	addi	a5,a5,-1868 # 98b4 <uart_index>
    219e:	479c                	lw	a5,8(a5)
    21a0:	86be                	mv	a3,a5
    21a2:	fd842783          	lw	a5,-40(s0)
    21a6:	00178713          	addi	a4,a5,1
    21aa:	fce42c23          	sw	a4,-40(s0)
    21ae:	00078783          	lb	a5,0(a5)
    21b2:	07c2                	slli	a5,a5,0x10
    21b4:	83c1                	srli	a5,a5,0x10
    21b6:	85be                	mv	a1,a5
    21b8:	8536                	mv	a0,a3
    21ba:	1cf010ef          	jal	ra,3b88 <USART_SendData>
D:/projects/mechanical_arm/Firmware/CarMainControl/libraries/zf_common/zf_common_debug.c:161 (discriminator 2)
    for(i=0; i<size; i++)
    21be:	fec42783          	lw	a5,-20(s0)
    21c2:	0785                	addi	a5,a5,1
    21c4:	fef42623          	sw	a5,-20(s0)
D:/projects/mechanical_arm/Firmware/CarMainControl/libraries/zf_common/zf_common_debug.c:161 (discriminator 1)
    21c8:	fec42703          	lw	a4,-20(s0)
    21cc:	fd442783          	lw	a5,-44(s0)
    21d0:	faf748e3          	blt	a4,a5,2180 <_write+0x1a>
D:/projects/mechanical_arm/Firmware/CarMainControl/libraries/zf_common/zf_common_debug.c:167

    }
    return size;
    21d4:	fd442783          	lw	a5,-44(s0)
D:/projects/mechanical_arm/Firmware/CarMainControl/libraries/zf_common/zf_common_debug.c:168
}
    21d8:	853e                	mv	a0,a5
    21da:	50b2                	lw	ra,44(sp)
    21dc:	5422                	lw	s0,40(sp)
    21de:	6145                	addi	sp,sp,48
    21e0:	8082                	ret

000021e2 <fifo_head_offset>:
fifo_head_offset():
D:/projects/mechanical_arm/Firmware/CarMainControl/libraries/zf_common/zf_common_fifo.c:53
// @param       offset          偏移量
// @return      void
// Sample usage:
//-------------------------------------------------------------------------------------------------------------------
void fifo_head_offset (fifo_struct *fifo, uint32 offset)
{
    21e2:	1101                	addi	sp,sp,-32
    21e4:	ce22                	sw	s0,28(sp)
    21e6:	1000                	addi	s0,sp,32
    21e8:	fea42623          	sw	a0,-20(s0)
    21ec:	feb42423          	sw	a1,-24(s0)
D:/projects/mechanical_arm/Firmware/CarMainControl/libraries/zf_common/zf_common_fifo.c:54
    fifo->head += offset;
    21f0:	fec42783          	lw	a5,-20(s0)
    21f4:	43d8                	lw	a4,4(a5)
    21f6:	fe842783          	lw	a5,-24(s0)
    21fa:	973e                	add	a4,a4,a5
    21fc:	fec42783          	lw	a5,-20(s0)
    2200:	c3d8                	sw	a4,4(a5)
D:/projects/mechanical_arm/Firmware/CarMainControl/libraries/zf_common/zf_common_fifo.c:56
    
    while(fifo->max <= fifo->head)                                              // 如果范围超过则减缓冲区大小 直到小于最大缓冲区大小
    2202:	a819                	j	2218 <fifo_head_offset+0x36>
D:/projects/mechanical_arm/Firmware/CarMainControl/libraries/zf_common/zf_common_fifo.c:58
    {
        fifo->head -= fifo->max;
    2204:	fec42783          	lw	a5,-20(s0)
    2208:	43d8                	lw	a4,4(a5)
    220a:	fec42783          	lw	a5,-20(s0)
    220e:	4b9c                	lw	a5,16(a5)
    2210:	8f1d                	sub	a4,a4,a5
    2212:	fec42783          	lw	a5,-20(s0)
    2216:	c3d8                	sw	a4,4(a5)
D:/projects/mechanical_arm/Firmware/CarMainControl/libraries/zf_common/zf_common_fifo.c:56
    while(fifo->max <= fifo->head)                                              // 如果范围超过则减缓冲区大小 直到小于最大缓冲区大小
    2218:	fec42783          	lw	a5,-20(s0)
    221c:	4b98                	lw	a4,16(a5)
    221e:	fec42783          	lw	a5,-20(s0)
    2222:	43dc                	lw	a5,4(a5)
    2224:	fee7f0e3          	bgeu	a5,a4,2204 <fifo_head_offset+0x22>
D:/projects/mechanical_arm/Firmware/CarMainControl/libraries/zf_common/zf_common_fifo.c:60
    }
}
    2228:	0001                	nop
    222a:	4472                	lw	s0,28(sp)
    222c:	6105                	addi	sp,sp,32
    222e:	8082                	ret

00002230 <fifo_write_buffer>:
fifo_write_buffer():
D:/projects/mechanical_arm/Firmware/CarMainControl/libraries/zf_common/zf_common_fifo.c:112
// @param       length          需要写入的数据长度
// @return      fifo_state_enum 操作状态
// Sample usage:                if(fifo_write(&fifo,data,32)!=FIFO_SUCCESS) while(1);
//-------------------------------------------------------------------------------------------------------------------
fifo_state_enum fifo_write_buffer (fifo_struct *fifo, uint8 *dat, uint32 length)
{
    2230:	7179                	addi	sp,sp,-48
    2232:	d606                	sw	ra,44(sp)
    2234:	d422                	sw	s0,40(sp)
    2236:	1800                	addi	s0,sp,48
    2238:	fca42e23          	sw	a0,-36(s0)
    223c:	fcb42c23          	sw	a1,-40(s0)
    2240:	fcc42a23          	sw	a2,-44(s0)
D:/projects/mechanical_arm/Firmware/CarMainControl/libraries/zf_common/zf_common_fifo.c:115
    uint32 temp_length;
    
    if(length < fifo->size)                                                     // 剩余空间足够装下本次数据
    2244:	fdc42783          	lw	a5,-36(s0)
    2248:	47dc                	lw	a5,12(a5)
    224a:	fd442703          	lw	a4,-44(s0)
    224e:	0cf77b63          	bgeu	a4,a5,2324 <fifo_write_buffer+0xf4>
D:/projects/mechanical_arm/Firmware/CarMainControl/libraries/zf_common/zf_common_fifo.c:117
    {
        interrupt_global_disable();
    2252:	2a5d                	jal	2408 <interrupt_global_disable>
D:/projects/mechanical_arm/Firmware/CarMainControl/libraries/zf_common/zf_common_fifo.c:118
        temp_length = fifo->max - fifo->head;                                   // 计算头指针距离缓冲区尾还有多少空间
    2254:	fdc42783          	lw	a5,-36(s0)
    2258:	4b98                	lw	a4,16(a5)
    225a:	fdc42783          	lw	a5,-36(s0)
    225e:	43dc                	lw	a5,4(a5)
    2260:	40f707b3          	sub	a5,a4,a5
    2264:	fef42623          	sw	a5,-20(s0)
D:/projects/mechanical_arm/Firmware/CarMainControl/libraries/zf_common/zf_common_fifo.c:120

        if(length > temp_length)                                                // 距离缓冲区尾长度不足写入数据 环形缓冲区分段操作
    2268:	fd442703          	lw	a4,-44(s0)
    226c:	fec42783          	lw	a5,-20(s0)
    2270:	06e7fb63          	bgeu	a5,a4,22e6 <fifo_write_buffer+0xb6>
D:/projects/mechanical_arm/Firmware/CarMainControl/libraries/zf_common/zf_common_fifo.c:122
        {
            memcpy(&fifo->buffer[fifo->head], dat, temp_length);                // 拷贝第一段数据
    2274:	fdc42783          	lw	a5,-36(s0)
    2278:	4398                	lw	a4,0(a5)
    227a:	fdc42783          	lw	a5,-36(s0)
    227e:	43dc                	lw	a5,4(a5)
    2280:	97ba                	add	a5,a5,a4
    2282:	fec42603          	lw	a2,-20(s0)
    2286:	fd842583          	lw	a1,-40(s0)
    228a:	853e                	mv	a0,a5
    228c:	3c0040ef          	jal	ra,664c <memcpy>
D:/projects/mechanical_arm/Firmware/CarMainControl/libraries/zf_common/zf_common_fifo.c:123
            fifo_head_offset(fifo, temp_length);                                // 头指针偏移
    2290:	fec42583          	lw	a1,-20(s0)
    2294:	fdc42503          	lw	a0,-36(s0)
    2298:	37a9                	jal	21e2 <fifo_head_offset>
D:/projects/mechanical_arm/Firmware/CarMainControl/libraries/zf_common/zf_common_fifo.c:124
            dat += temp_length;                                                 // 读取缓冲偏移
    229a:	fd842703          	lw	a4,-40(s0)
    229e:	fec42783          	lw	a5,-20(s0)
    22a2:	97ba                	add	a5,a5,a4
    22a4:	fcf42c23          	sw	a5,-40(s0)
D:/projects/mechanical_arm/Firmware/CarMainControl/libraries/zf_common/zf_common_fifo.c:125
            memcpy(&fifo->buffer[fifo->head], dat, length - temp_length);       // 拷贝第一段数据
    22a8:	fdc42783          	lw	a5,-36(s0)
    22ac:	4398                	lw	a4,0(a5)
    22ae:	fdc42783          	lw	a5,-36(s0)
    22b2:	43dc                	lw	a5,4(a5)
    22b4:	00f706b3          	add	a3,a4,a5
    22b8:	fd442703          	lw	a4,-44(s0)
    22bc:	fec42783          	lw	a5,-20(s0)
    22c0:	40f707b3          	sub	a5,a4,a5
    22c4:	863e                	mv	a2,a5
    22c6:	fd842583          	lw	a1,-40(s0)
    22ca:	8536                	mv	a0,a3
    22cc:	380040ef          	jal	ra,664c <memcpy>
D:/projects/mechanical_arm/Firmware/CarMainControl/libraries/zf_common/zf_common_fifo.c:126
            fifo_head_offset(fifo, length - temp_length);                       // 头指针偏移
    22d0:	fd442703          	lw	a4,-44(s0)
    22d4:	fec42783          	lw	a5,-20(s0)
    22d8:	40f707b3          	sub	a5,a4,a5
    22dc:	85be                	mv	a1,a5
    22de:	fdc42503          	lw	a0,-36(s0)
    22e2:	3701                	jal	21e2 <fifo_head_offset>
    22e4:	a025                	j	230c <fifo_write_buffer+0xdc>
D:/projects/mechanical_arm/Firmware/CarMainControl/libraries/zf_common/zf_common_fifo.c:130
        }
        else
        {
            memcpy(&fifo->buffer[fifo->head], dat, length);                     // 一次完整写入
    22e6:	fdc42783          	lw	a5,-36(s0)
    22ea:	4398                	lw	a4,0(a5)
    22ec:	fdc42783          	lw	a5,-36(s0)
    22f0:	43dc                	lw	a5,4(a5)
    22f2:	97ba                	add	a5,a5,a4
    22f4:	fd442603          	lw	a2,-44(s0)
    22f8:	fd842583          	lw	a1,-40(s0)
    22fc:	853e                	mv	a0,a5
    22fe:	34e040ef          	jal	ra,664c <memcpy>
D:/projects/mechanical_arm/Firmware/CarMainControl/libraries/zf_common/zf_common_fifo.c:131
            fifo_head_offset(fifo, length);                                     // 头指针偏移
    2302:	fd442583          	lw	a1,-44(s0)
    2306:	fdc42503          	lw	a0,-36(s0)
    230a:	3de1                	jal	21e2 <fifo_head_offset>
D:/projects/mechanical_arm/Firmware/CarMainControl/libraries/zf_common/zf_common_fifo.c:134
        }

        fifo->size -= length;                                                   // 缓冲区剩余长度减小
    230c:	fdc42783          	lw	a5,-36(s0)
    2310:	47d8                	lw	a4,12(a5)
    2312:	fd442783          	lw	a5,-44(s0)
    2316:	8f1d                	sub	a4,a4,a5
    2318:	fdc42783          	lw	a5,-36(s0)
    231c:	c7d8                	sw	a4,12(a5)
D:/projects/mechanical_arm/Firmware/CarMainControl/libraries/zf_common/zf_common_fifo.c:135
        interrupt_global_enable();
    231e:	2875                	jal	23da <interrupt_global_enable>
D:/projects/mechanical_arm/Firmware/CarMainControl/libraries/zf_common/zf_common_fifo.c:142
    else
    {
        return FIFO_SPACE_NO_ENOUGH;
    }
    
    return FIFO_SUCCESS;
    2320:	4781                	li	a5,0
    2322:	a011                	j	2326 <fifo_write_buffer+0xf6>
D:/projects/mechanical_arm/Firmware/CarMainControl/libraries/zf_common/zf_common_fifo.c:139
        return FIFO_SPACE_NO_ENOUGH;
    2324:	4789                	li	a5,2
D:/projects/mechanical_arm/Firmware/CarMainControl/libraries/zf_common/zf_common_fifo.c:143
}
    2326:	853e                	mv	a0,a5
    2328:	50b2                	lw	ra,44(sp)
    232a:	5422                	lw	s0,40(sp)
    232c:	6145                	addi	sp,sp,48
    232e:	8082                	ret

00002330 <NVIC_EnableIRQ>:
NVIC_EnableIRQ():
D:\projects\mechanical_arm\Firmware\CarMainControl\libraries\sdk\Core/core_riscv.h:129
* Function Name  : NVIC_EnableIRQ
* Description    : Enable Interrupt
* Input          : IRQn: Interrupt Numbers
* Return         : None
*******************************************************************************/
RV_STATIC_INLINE void NVIC_EnableIRQ(IRQn_Type IRQn){
    2330:	1101                	addi	sp,sp,-32
    2332:	ce22                	sw	s0,28(sp)
    2334:	1000                	addi	s0,sp,32
    2336:	fea42623          	sw	a0,-20(s0)
D:\projects\mechanical_arm\Firmware\CarMainControl\libraries\sdk\Core/core_riscv.h:130
  NVIC->IENR[((uint32_t)(IRQn) >> 5)] = (1 << ((uint32_t)(IRQn) & 0x1F));
    233a:	fec42783          	lw	a5,-20(s0)
    233e:	8bfd                	andi	a5,a5,31
    2340:	4705                	li	a4,1
    2342:	00f716b3          	sll	a3,a4,a5
    2346:	e000e737          	lui	a4,0xe000e
    234a:	fec42783          	lw	a5,-20(s0)
    234e:	8395                	srli	a5,a5,0x5
    2350:	04078793          	addi	a5,a5,64
    2354:	078a                	slli	a5,a5,0x2
    2356:	97ba                	add	a5,a5,a4
    2358:	c394                	sw	a3,0(a5)
D:\projects\mechanical_arm\Firmware\CarMainControl\libraries\sdk\Core/core_riscv.h:131
}
    235a:	0001                	nop
    235c:	4472                	lw	s0,28(sp)
    235e:	6105                	addi	sp,sp,32
    2360:	8082                	ret

00002362 <NVIC_DisableIRQ>:
NVIC_DisableIRQ():
D:\projects\mechanical_arm\Firmware\CarMainControl\libraries\sdk\Core/core_riscv.h:140
* Description    : Disable Interrupt
* Input          : IRQn: Interrupt Numbers
* Return         : None
*******************************************************************************/
RV_STATIC_INLINE void NVIC_DisableIRQ(IRQn_Type IRQn)
{
    2362:	1101                	addi	sp,sp,-32
    2364:	ce22                	sw	s0,28(sp)
    2366:	1000                	addi	s0,sp,32
    2368:	fea42623          	sw	a0,-20(s0)
D:\projects\mechanical_arm\Firmware\CarMainControl\libraries\sdk\Core/core_riscv.h:141
  NVIC->IRER[((uint32_t)(IRQn) >> 5)] = (1 << ((uint32_t)(IRQn) & 0x1F));
    236c:	fec42783          	lw	a5,-20(s0)
    2370:	8bfd                	andi	a5,a5,31
    2372:	4705                	li	a4,1
    2374:	00f716b3          	sll	a3,a4,a5
    2378:	e000e737          	lui	a4,0xe000e
    237c:	fec42783          	lw	a5,-20(s0)
    2380:	8395                	srli	a5,a5,0x5
    2382:	06078793          	addi	a5,a5,96
    2386:	078a                	slli	a5,a5,0x2
    2388:	97ba                	add	a5,a5,a4
    238a:	c394                	sw	a3,0(a5)
D:\projects\mechanical_arm\Firmware\CarMainControl\libraries\sdk\Core/core_riscv.h:142
}
    238c:	0001                	nop
    238e:	4472                	lw	s0,28(sp)
    2390:	6105                	addi	sp,sp,32
    2392:	8082                	ret

00002394 <interrupt_enable>:
interrupt_enable():
D:/projects/mechanical_arm/Firmware/CarMainControl/libraries/zf_common/zf_common_interrupt.c:34
// @param       irqn            指定中断号 可查看 isr.c 对应中断服务函数的标注
// @return      void
// Sample usage:                interrupt_enable(UART1_IRQn);
//-------------------------------------------------------------------------------------------------------------------
void interrupt_enable (IRQn_Type irqn)
{
    2394:	1101                	addi	sp,sp,-32
    2396:	ce06                	sw	ra,28(sp)
    2398:	cc22                	sw	s0,24(sp)
    239a:	1000                	addi	s0,sp,32
    239c:	fea42623          	sw	a0,-20(s0)
D:/projects/mechanical_arm/Firmware/CarMainControl/libraries/zf_common/zf_common_interrupt.c:35
    NVIC_EnableIRQ(irqn);
    23a0:	fec42503          	lw	a0,-20(s0)
    23a4:	3771                	jal	2330 <NVIC_EnableIRQ>
D:/projects/mechanical_arm/Firmware/CarMainControl/libraries/zf_common/zf_common_interrupt.c:36
}
    23a6:	0001                	nop
    23a8:	40f2                	lw	ra,28(sp)
    23aa:	4462                	lw	s0,24(sp)
    23ac:	6105                	addi	sp,sp,32
    23ae:	8082                	ret

000023b0 <interrupt_disable>:
interrupt_disable():
D:/projects/mechanical_arm/Firmware/CarMainControl/libraries/zf_common/zf_common_interrupt.c:45
// @param       irqn            指定中断号 可查看 isr.c 对应中断服务函数的标注
// @return      void
// Sample usage:                interrupt_disable(UART1_IRQn);
//-------------------------------------------------------------------------------------------------------------------
void interrupt_disable (IRQn_Type irqn)
{
    23b0:	1101                	addi	sp,sp,-32
    23b2:	ce06                	sw	ra,28(sp)
    23b4:	cc22                	sw	s0,24(sp)
    23b6:	1000                	addi	s0,sp,32
    23b8:	fea42623          	sw	a0,-20(s0)
D:/projects/mechanical_arm/Firmware/CarMainControl/libraries/zf_common/zf_common_interrupt.c:46
    NVIC_DisableIRQ(irqn);
    23bc:	fec42503          	lw	a0,-20(s0)
    23c0:	374d                	jal	2362 <NVIC_DisableIRQ>
D:/projects/mechanical_arm/Firmware/CarMainControl/libraries/zf_common/zf_common_interrupt.c:47
}
    23c2:	0001                	nop
    23c4:	40f2                	lw	ra,28(sp)
    23c6:	4462                	lw	s0,24(sp)
    23c8:	6105                	addi	sp,sp,32
    23ca:	8082                	ret

000023cc <interrupt_init>:
interrupt_init():
D:/projects/mechanical_arm/Firmware/CarMainControl/libraries/zf_common/zf_common_interrupt.c:69
// @param       void
// @return      void
// Sample usage:                interrupt_init();
//-------------------------------------------------------------------------------------------------------------------
void interrupt_init (void)
{
    23cc:	1141                	addi	sp,sp,-16
    23ce:	c622                	sw	s0,12(sp)
    23d0:	0800                	addi	s0,sp,16
D:/projects/mechanical_arm/Firmware/CarMainControl/libraries/zf_common/zf_common_interrupt.c:72
    //NVIC_SetPriorityGrouping(4);

}
    23d2:	0001                	nop
    23d4:	4432                	lw	s0,12(sp)
    23d6:	0141                	addi	sp,sp,16
    23d8:	8082                	ret

000023da <interrupt_global_enable>:
interrupt_global_enable():
D:/projects/mechanical_arm/Firmware/CarMainControl/libraries/zf_common/zf_common_interrupt.c:81
// @param       void            还原的嵌套层 如果传入 0 则直接清空嵌套层数开启总中断
// @return      void
// Sample usage:                interrupt_global_enable();
//-------------------------------------------------------------------------------------------------------------------
void interrupt_global_enable (void)
{
    23da:	1141                	addi	sp,sp,-16
    23dc:	c606                	sw	ra,12(sp)
    23de:	c422                	sw	s0,8(sp)
    23e0:	0800                	addi	s0,sp,16
D:/projects/mechanical_arm/Firmware/CarMainControl/libraries/zf_common/zf_common_interrupt.c:82
    if(interrupt_nest_count)
    23e2:	85c1a783          	lw	a5,-1956(gp) # 2000027c <interrupt_nest_count>
    23e6:	c799                	beqz	a5,23f4 <interrupt_global_enable+0x1a>
D:/projects/mechanical_arm/Firmware/CarMainControl/libraries/zf_common/zf_common_interrupt.c:83
        interrupt_nest_count--;
    23e8:	85c1a783          	lw	a5,-1956(gp) # 2000027c <interrupt_nest_count>
    23ec:	fff78713          	addi	a4,a5,-1
    23f0:	84e1ae23          	sw	a4,-1956(gp) # 2000027c <interrupt_nest_count>
D:/projects/mechanical_arm/Firmware/CarMainControl/libraries/zf_common/zf_common_interrupt.c:85

    if(interrupt_nest_count == 0)
    23f4:	85c1a783          	lw	a5,-1956(gp) # 2000027c <interrupt_nest_count>
    23f8:	e399                	bnez	a5,23fe <interrupt_global_enable+0x24>
D:/projects/mechanical_arm/Firmware/CarMainControl/libraries/zf_common/zf_common_interrupt.c:88
    {
        extern void en_interrupt();
        en_interrupt();
    23fa:	e0dfd0ef          	jal	ra,206 <en_interrupt>
D:/projects/mechanical_arm/Firmware/CarMainControl/libraries/zf_common/zf_common_interrupt.c:90
    }
}
    23fe:	0001                	nop
    2400:	40b2                	lw	ra,12(sp)
    2402:	4422                	lw	s0,8(sp)
    2404:	0141                	addi	sp,sp,16
    2406:	8082                	ret

00002408 <interrupt_global_disable>:
interrupt_global_disable():
D:/projects/mechanical_arm/Firmware/CarMainControl/libraries/zf_common/zf_common_interrupt.c:99
// @param       void
// @return      void
// Sample usage:                interrupt_disable_all();
//-------------------------------------------------------------------------------------------------------------------
void interrupt_global_disable (void)
{
    2408:	1141                	addi	sp,sp,-16
    240a:	c606                	sw	ra,12(sp)
    240c:	c422                	sw	s0,8(sp)
    240e:	0800                	addi	s0,sp,16
D:/projects/mechanical_arm/Firmware/CarMainControl/libraries/zf_common/zf_common_interrupt.c:100
    if(!interrupt_nest_count)
    2410:	85c1a783          	lw	a5,-1956(gp) # 2000027c <interrupt_nest_count>
    2414:	e399                	bnez	a5,241a <interrupt_global_disable+0x12>
D:/projects/mechanical_arm/Firmware/CarMainControl/libraries/zf_common/zf_common_interrupt.c:103
    {
        extern void dis_interrupt();
        dis_interrupt();
    2416:	debfd0ef          	jal	ra,200 <dis_interrupt>
D:/projects/mechanical_arm/Firmware/CarMainControl/libraries/zf_common/zf_common_interrupt.c:105
    }
    interrupt_nest_count++;
    241a:	85c1a783          	lw	a5,-1956(gp) # 2000027c <interrupt_nest_count>
    241e:	00178713          	addi	a4,a5,1
    2422:	84e1ae23          	sw	a4,-1956(gp) # 2000027c <interrupt_nest_count>
D:/projects/mechanical_arm/Firmware/CarMainControl/libraries/zf_common/zf_common_interrupt.c:110
    //返回当前mstatus寄存器的值
//    uint32 temp;
//    temp = __get_MSTATUS();
//    return temp;
}
    2426:	0001                	nop
    2428:	40b2                	lw	ra,12(sp)
    242a:	4422                	lw	s0,8(sp)
    242c:	0141                	addi	sp,sp,16
    242e:	8082                	ret

00002430 <USART1_IRQHandler>:
USART1_IRQHandler():
D:/projects/mechanical_arm/Firmware/CarMainControl/project/user/src/isr.c:65
void EXTI4_IRQHandler(void) __attribute__((interrupt("WCH-Interrupt-fast")));
void EXTI9_5_IRQHandler(void) __attribute__((interrupt("WCH-Interrupt-fast")));
void EXTI15_10_IRQHandler(void) __attribute__((interrupt("WCH-Interrupt-fast")));

void USART1_IRQHandler(void)
{
    2430:	1141                	addi	sp,sp,-16
    2432:	c622                	sw	s0,12(sp)
    2434:	0800                	addi	s0,sp,16
D:/projects/mechanical_arm/Firmware/CarMainControl/project/user/src/isr.c:66
    if(USART_GetITStatus(USART1, USART_IT_RXNE) != RESET)
    2436:	52500593          	li	a1,1317
    243a:	400147b7          	lui	a5,0x40014
    243e:	80078513          	addi	a0,a5,-2048 # 40013800 <_eusrstack+0x20003800>
    2442:	7ba010ef          	jal	ra,3bfc <USART_GetITStatus>
    2446:	87aa                	mv	a5,a0
    2448:	cb89                	beqz	a5,245a <USART1_IRQHandler+0x2a>
D:/projects/mechanical_arm/Firmware/CarMainControl/project/user/src/isr.c:69
    {

        USART_ClearITPendingBit(USART1, USART_IT_RXNE);
    244a:	52500593          	li	a1,1317
    244e:	400147b7          	lui	a5,0x40014
    2452:	80078513          	addi	a0,a5,-2048 # 40013800 <_eusrstack+0x20003800>
    2456:	0a9010ef          	jal	ra,3cfe <USART_ClearITPendingBit>
D:/projects/mechanical_arm/Firmware/CarMainControl/project/user/src/isr.c:71
    }
}
    245a:	0001                	nop
    245c:	4432                	lw	s0,12(sp)
    245e:	0141                	addi	sp,sp,16
    2460:	30200073          	mret

00002464 <USART2_IRQHandler>:
USART2_IRQHandler():
D:/projects/mechanical_arm/Firmware/CarMainControl/project/user/src/isr.c:73
void USART2_IRQHandler(void)
{
    2464:	1141                	addi	sp,sp,-16
    2466:	c622                	sw	s0,12(sp)
    2468:	0800                	addi	s0,sp,16
D:/projects/mechanical_arm/Firmware/CarMainControl/project/user/src/isr.c:74
    if(USART_GetITStatus(USART2, USART_IT_RXNE) != RESET)
    246a:	52500593          	li	a1,1317
    246e:	400047b7          	lui	a5,0x40004
    2472:	40078513          	addi	a0,a5,1024 # 40004400 <_eusrstack+0x1fff4400>
    2476:	786010ef          	jal	ra,3bfc <USART_GetITStatus>
    247a:	87aa                	mv	a5,a0
    247c:	c3a1                	beqz	a5,24bc <USART2_IRQHandler+0x58>
D:/projects/mechanical_arm/Firmware/CarMainControl/project/user/src/isr.c:76
    {
        if(wireless_type == WIRELESS_UART)
    247e:	84c1a703          	lw	a4,-1972(gp) # 2000026c <wireless_type>
    2482:	4785                	li	a5,1
    2484:	00f71563          	bne	a4,a5,248e <USART2_IRQHandler+0x2a>
D:/projects/mechanical_arm/Firmware/CarMainControl/project/user/src/isr.c:78
        {
            wireless_uart_callback();
    2488:	931ff0ef          	jal	ra,1db8 <wireless_uart_callback>
    248c:	a005                	j	24ac <USART2_IRQHandler+0x48>
D:/projects/mechanical_arm/Firmware/CarMainControl/project/user/src/isr.c:80
        }
        else if(wireless_type == BLUETOOTH_CH9141)
    248e:	84c1a703          	lw	a4,-1972(gp) # 2000026c <wireless_type>
    2492:	4789                	li	a5,2
    2494:	00f71563          	bne	a4,a5,249e <USART2_IRQHandler+0x3a>
D:/projects/mechanical_arm/Firmware/CarMainControl/project/user/src/isr.c:82
        {
            bluetooth_ch9141_uart_callback_ch2();
    2498:	da5fe0ef          	jal	ra,123c <bluetooth_ch9141_uart_callback_ch2>
    249c:	a801                	j	24ac <USART2_IRQHandler+0x48>
D:/projects/mechanical_arm/Firmware/CarMainControl/project/user/src/isr.c:84
        }
        else if(wireless_type == WIRELESS_CH573)
    249e:	84c1a703          	lw	a4,-1972(gp) # 2000026c <wireless_type>
    24a2:	478d                	li	a5,3
    24a4:	00f71463          	bne	a4,a5,24ac <USART2_IRQHandler+0x48>
D:/projects/mechanical_arm/Firmware/CarMainControl/project/user/src/isr.c:86
        {
            wireless_ch573_callback();
    24a8:	8e9ff0ef          	jal	ra,1d90 <wireless_ch573_callback>
D:/projects/mechanical_arm/Firmware/CarMainControl/project/user/src/isr.c:88
        }
        USART_ClearITPendingBit(USART2, USART_IT_RXNE);
    24ac:	52500593          	li	a1,1317
    24b0:	400047b7          	lui	a5,0x40004
    24b4:	40078513          	addi	a0,a5,1024 # 40004400 <_eusrstack+0x1fff4400>
    24b8:	047010ef          	jal	ra,3cfe <USART_ClearITPendingBit>
D:/projects/mechanical_arm/Firmware/CarMainControl/project/user/src/isr.c:90
    }
}
    24bc:	0001                	nop
    24be:	4432                	lw	s0,12(sp)
    24c0:	0141                	addi	sp,sp,16
    24c2:	30200073          	mret

000024c6 <USART3_IRQHandler>:
USART3_IRQHandler():
D:/projects/mechanical_arm/Firmware/CarMainControl/project/user/src/isr.c:92
void USART3_IRQHandler(void)
{
    24c6:	1141                	addi	sp,sp,-16
    24c8:	c622                	sw	s0,12(sp)
    24ca:	0800                	addi	s0,sp,16
D:/projects/mechanical_arm/Firmware/CarMainControl/project/user/src/isr.c:93
    if(USART_GetITStatus(USART3, USART_IT_RXNE) != RESET)
    24cc:	52500593          	li	a1,1317
    24d0:	400057b7          	lui	a5,0x40005
    24d4:	80078513          	addi	a0,a5,-2048 # 40004800 <_eusrstack+0x1fff4800>
    24d8:	724010ef          	jal	ra,3bfc <USART_GetITStatus>
    24dc:	87aa                	mv	a5,a0
    24de:	cb89                	beqz	a5,24f0 <USART3_IRQHandler+0x2a>
D:/projects/mechanical_arm/Firmware/CarMainControl/project/user/src/isr.c:96
    {

        USART_ClearITPendingBit(USART3, USART_IT_RXNE);
    24e0:	52500593          	li	a1,1317
    24e4:	400057b7          	lui	a5,0x40005
    24e8:	80078513          	addi	a0,a5,-2048 # 40004800 <_eusrstack+0x1fff4800>
    24ec:	013010ef          	jal	ra,3cfe <USART_ClearITPendingBit>
D:/projects/mechanical_arm/Firmware/CarMainControl/project/user/src/isr.c:98
    }
}
    24f0:	0001                	nop
    24f2:	4432                	lw	s0,12(sp)
    24f4:	0141                	addi	sp,sp,16
    24f6:	30200073          	mret

000024fa <UART4_IRQHandler>:
UART4_IRQHandler():
D:/projects/mechanical_arm/Firmware/CarMainControl/project/user/src/isr.c:100
void UART4_IRQHandler (void)
{
    24fa:	1141                	addi	sp,sp,-16
    24fc:	c622                	sw	s0,12(sp)
    24fe:	0800                	addi	s0,sp,16
D:/projects/mechanical_arm/Firmware/CarMainControl/project/user/src/isr.c:101
    if(USART_GetITStatus(UART4, USART_IT_RXNE) != RESET)
    2500:	52500593          	li	a1,1317
    2504:	400057b7          	lui	a5,0x40005
    2508:	c0078513          	addi	a0,a5,-1024 # 40004c00 <_eusrstack+0x1fff4c00>
    250c:	6f0010ef          	jal	ra,3bfc <USART_GetITStatus>
    2510:	87aa                	mv	a5,a0
    2512:	cb89                	beqz	a5,2524 <UART4_IRQHandler+0x2a>
D:/projects/mechanical_arm/Firmware/CarMainControl/project/user/src/isr.c:104
    {

        USART_ClearITPendingBit(UART4, USART_IT_RXNE);
    2514:	52500593          	li	a1,1317
    2518:	400057b7          	lui	a5,0x40005
    251c:	c0078513          	addi	a0,a5,-1024 # 40004c00 <_eusrstack+0x1fff4c00>
    2520:	7de010ef          	jal	ra,3cfe <USART_ClearITPendingBit>
D:/projects/mechanical_arm/Firmware/CarMainControl/project/user/src/isr.c:106
    }
}
    2524:	0001                	nop
    2526:	4432                	lw	s0,12(sp)
    2528:	0141                	addi	sp,sp,16
    252a:	30200073          	mret

0000252e <UART5_IRQHandler>:
UART5_IRQHandler():
D:/projects/mechanical_arm/Firmware/CarMainControl/project/user/src/isr.c:108
void UART5_IRQHandler (void)
{
    252e:	1141                	addi	sp,sp,-16
    2530:	c622                	sw	s0,12(sp)
    2532:	0800                	addi	s0,sp,16
D:/projects/mechanical_arm/Firmware/CarMainControl/project/user/src/isr.c:109
    if(USART_GetITStatus(UART5, USART_IT_RXNE) != RESET)
    2534:	52500593          	li	a1,1317
    2538:	40005537          	lui	a0,0x40005
    253c:	6c0010ef          	jal	ra,3bfc <USART_GetITStatus>
    2540:	87aa                	mv	a5,a0
    2542:	cb89                	beqz	a5,2554 <UART5_IRQHandler+0x26>
D:/projects/mechanical_arm/Firmware/CarMainControl/project/user/src/isr.c:111
    {
        camera_uart_handler();
    2544:	d21fe0ef          	jal	ra,1264 <camera_uart_handler>
D:/projects/mechanical_arm/Firmware/CarMainControl/project/user/src/isr.c:112
        USART_ClearITPendingBit(UART5, USART_IT_RXNE);
    2548:	52500593          	li	a1,1317
    254c:	40005537          	lui	a0,0x40005
    2550:	7ae010ef          	jal	ra,3cfe <USART_ClearITPendingBit>
D:/projects/mechanical_arm/Firmware/CarMainControl/project/user/src/isr.c:114
    }
}
    2554:	0001                	nop
    2556:	4432                	lw	s0,12(sp)
    2558:	0141                	addi	sp,sp,16
    255a:	30200073          	mret

0000255e <UART6_IRQHandler>:
UART6_IRQHandler():
D:/projects/mechanical_arm/Firmware/CarMainControl/project/user/src/isr.c:116
void UART6_IRQHandler (void)
{
    255e:	1141                	addi	sp,sp,-16
    2560:	c622                	sw	s0,12(sp)
    2562:	0800                	addi	s0,sp,16
D:/projects/mechanical_arm/Firmware/CarMainControl/project/user/src/isr.c:117
    if(USART_GetITStatus(UART6, USART_IT_RXNE) != RESET)
    2564:	52500593          	li	a1,1317
    2568:	400027b7          	lui	a5,0x40002
    256c:	80078513          	addi	a0,a5,-2048 # 40001800 <_eusrstack+0x1fff1800>
    2570:	68c010ef          	jal	ra,3bfc <USART_GetITStatus>
    2574:	87aa                	mv	a5,a0
    2576:	cb89                	beqz	a5,2588 <UART6_IRQHandler+0x2a>
D:/projects/mechanical_arm/Firmware/CarMainControl/project/user/src/isr.c:120
    {

        USART_ClearITPendingBit(UART6, USART_IT_RXNE);
    2578:	52500593          	li	a1,1317
    257c:	400027b7          	lui	a5,0x40002
    2580:	80078513          	addi	a0,a5,-2048 # 40001800 <_eusrstack+0x1fff1800>
    2584:	77a010ef          	jal	ra,3cfe <USART_ClearITPendingBit>
D:/projects/mechanical_arm/Firmware/CarMainControl/project/user/src/isr.c:122
    }
}
    2588:	0001                	nop
    258a:	4432                	lw	s0,12(sp)
    258c:	0141                	addi	sp,sp,16
    258e:	30200073          	mret

00002592 <UART7_IRQHandler>:
UART7_IRQHandler():
D:/projects/mechanical_arm/Firmware/CarMainControl/project/user/src/isr.c:124
void UART7_IRQHandler (void)
{
    2592:	1141                	addi	sp,sp,-16
    2594:	c622                	sw	s0,12(sp)
    2596:	0800                	addi	s0,sp,16
D:/projects/mechanical_arm/Firmware/CarMainControl/project/user/src/isr.c:125
    if(USART_GetITStatus(UART7, USART_IT_RXNE) != RESET)
    2598:	52500593          	li	a1,1317
    259c:	400027b7          	lui	a5,0x40002
    25a0:	c0078513          	addi	a0,a5,-1024 # 40001c00 <_eusrstack+0x1fff1c00>
    25a4:	658010ef          	jal	ra,3bfc <USART_GetITStatus>
    25a8:	87aa                	mv	a5,a0
    25aa:	c78d                	beqz	a5,25d4 <UART7_IRQHandler+0x42>
D:/projects/mechanical_arm/Firmware/CarMainControl/project/user/src/isr.c:127
    {
        if(wireless_type == WIRELESS_UART)
    25ac:	84c1a703          	lw	a4,-1972(gp) # 2000026c <wireless_type>
    25b0:	4785                	li	a5,1
    25b2:	00f70963          	beq	a4,a5,25c4 <UART7_IRQHandler+0x32>
D:/projects/mechanical_arm/Firmware/CarMainControl/project/user/src/isr.c:131
        {

        }
        else if(wireless_type == BLUETOOTH_CH9141)
    25b6:	84c1a703          	lw	a4,-1972(gp) # 2000026c <wireless_type>
    25ba:	4789                	li	a5,2
    25bc:	00f71463          	bne	a4,a5,25c4 <UART7_IRQHandler+0x32>
D:/projects/mechanical_arm/Firmware/CarMainControl/project/user/src/isr.c:133
        {
            bluetooth_ch9141_uart_callback_ch1();
    25c0:	c55fe0ef          	jal	ra,1214 <bluetooth_ch9141_uart_callback_ch1>
D:/projects/mechanical_arm/Firmware/CarMainControl/project/user/src/isr.c:135
        }
        USART_ClearITPendingBit(UART7, USART_IT_RXNE);
    25c4:	52500593          	li	a1,1317
    25c8:	400027b7          	lui	a5,0x40002
    25cc:	c0078513          	addi	a0,a5,-1024 # 40001c00 <_eusrstack+0x1fff1c00>
    25d0:	72e010ef          	jal	ra,3cfe <USART_ClearITPendingBit>
D:/projects/mechanical_arm/Firmware/CarMainControl/project/user/src/isr.c:137
    }
}
    25d4:	0001                	nop
    25d6:	4432                	lw	s0,12(sp)
    25d8:	0141                	addi	sp,sp,16
    25da:	30200073          	mret

000025de <UART8_IRQHandler>:
UART8_IRQHandler():
D:/projects/mechanical_arm/Firmware/CarMainControl/project/user/src/isr.c:139
void UART8_IRQHandler (void)
{
    25de:	1141                	addi	sp,sp,-16
    25e0:	c622                	sw	s0,12(sp)
    25e2:	0800                	addi	s0,sp,16
D:/projects/mechanical_arm/Firmware/CarMainControl/project/user/src/isr.c:140
    if(USART_GetITStatus(UART8, USART_IT_RXNE) != RESET)
    25e4:	52500593          	li	a1,1317
    25e8:	40002537          	lui	a0,0x40002
    25ec:	610010ef          	jal	ra,3bfc <USART_GetITStatus>
    25f0:	87aa                	mv	a5,a0
    25f2:	c799                	beqz	a5,2600 <UART8_IRQHandler+0x22>
D:/projects/mechanical_arm/Firmware/CarMainControl/project/user/src/isr.c:144
    {
//        extern void uart_handler (void);
//        uart_handler();
        USART_ClearITPendingBit(UART8, USART_IT_RXNE);
    25f4:	52500593          	li	a1,1317
    25f8:	40002537          	lui	a0,0x40002
    25fc:	702010ef          	jal	ra,3cfe <USART_ClearITPendingBit>
D:/projects/mechanical_arm/Firmware/CarMainControl/project/user/src/isr.c:146
    }
}
    2600:	0001                	nop
    2602:	4432                	lw	s0,12(sp)
    2604:	0141                	addi	sp,sp,16
    2606:	30200073          	mret

0000260a <DVP_IRQHandler>:
DVP_IRQHandler():
D:/projects/mechanical_arm/Firmware/CarMainControl/project/user/src/isr.c:151



void DVP_IRQHandler(void)
{
    260a:	1141                	addi	sp,sp,-16
    260c:	c622                	sw	s0,12(sp)
    260e:	0800                	addi	s0,sp,16
D:/projects/mechanical_arm/Firmware/CarMainControl/project/user/src/isr.c:152
    if (DVP->IFR & RB_DVP_IF_FRM_DONE)
    2610:	500507b7          	lui	a5,0x50050
    2614:	0107c783          	lbu	a5,16(a5) # 50050010 <_eusrstack+0x30040010>
    2618:	0ff7f793          	andi	a5,a5,255
    261c:	8b91                	andi	a5,a5,4
    261e:	c385                	beqz	a5,263e <DVP_IRQHandler+0x34>
D:/projects/mechanical_arm/Firmware/CarMainControl/project/user/src/isr.c:154
    {
        camera_dvp_handler();
    2620:	c7bfe0ef          	jal	ra,129a <camera_dvp_handler>
D:/projects/mechanical_arm/Firmware/CarMainControl/project/user/src/isr.c:155
        DVP->IFR &= ~RB_DVP_IF_FRM_DONE;
    2624:	500507b7          	lui	a5,0x50050
    2628:	0107c783          	lbu	a5,16(a5) # 50050010 <_eusrstack+0x30040010>
    262c:	0ff7f713          	andi	a4,a5,255
    2630:	500507b7          	lui	a5,0x50050
    2634:	9b6d                	andi	a4,a4,-5
    2636:	0ff77713          	andi	a4,a4,255
    263a:	00e78823          	sb	a4,16(a5) # 50050010 <_eusrstack+0x30040010>
D:/projects/mechanical_arm/Firmware/CarMainControl/project/user/src/isr.c:157
    }
}
    263e:	0001                	nop
    2640:	4432                	lw	s0,12(sp)
    2642:	0141                	addi	sp,sp,16
    2644:	30200073          	mret

00002648 <EXTI0_IRQHandler>:
EXTI0_IRQHandler():
D:/projects/mechanical_arm/Firmware/CarMainControl/project/user/src/isr.c:159
void EXTI0_IRQHandler(void)
{
    2648:	1141                	addi	sp,sp,-16
    264a:	c622                	sw	s0,12(sp)
    264c:	0800                	addi	s0,sp,16
D:/projects/mechanical_arm/Firmware/CarMainControl/project/user/src/isr.c:160
    if(SET == EXTI_GetITStatus(EXTI_Line0))
    264e:	4505                	li	a0,1
    2650:	788000ef          	jal	ra,2dd8 <EXTI_GetITStatus>
    2654:	872a                	mv	a4,a0
    2656:	4785                	li	a5,1
    2658:	00f71563          	bne	a4,a5,2662 <EXTI0_IRQHandler+0x1a>
D:/projects/mechanical_arm/Firmware/CarMainControl/project/user/src/isr.c:162
    {
        EXTI_ClearITPendingBit(EXTI_Line0);
    265c:	4505                	li	a0,1
    265e:	7d0000ef          	jal	ra,2e2e <EXTI_ClearITPendingBit>
D:/projects/mechanical_arm/Firmware/CarMainControl/project/user/src/isr.c:165

    }
}
    2662:	0001                	nop
    2664:	4432                	lw	s0,12(sp)
    2666:	0141                	addi	sp,sp,16
    2668:	30200073          	mret

0000266c <EXTI1_IRQHandler>:
EXTI1_IRQHandler():
D:/projects/mechanical_arm/Firmware/CarMainControl/project/user/src/isr.c:168

void EXTI1_IRQHandler(void)
{
    266c:	1141                	addi	sp,sp,-16
    266e:	c622                	sw	s0,12(sp)
    2670:	0800                	addi	s0,sp,16
D:/projects/mechanical_arm/Firmware/CarMainControl/project/user/src/isr.c:169
    if(SET == EXTI_GetITStatus(EXTI_Line1))
    2672:	4509                	li	a0,2
    2674:	764000ef          	jal	ra,2dd8 <EXTI_GetITStatus>
    2678:	872a                	mv	a4,a0
    267a:	4785                	li	a5,1
    267c:	00f71563          	bne	a4,a5,2686 <EXTI1_IRQHandler+0x1a>
D:/projects/mechanical_arm/Firmware/CarMainControl/project/user/src/isr.c:171
    {
        EXTI_ClearITPendingBit(EXTI_Line1);
    2680:	4509                	li	a0,2
    2682:	7ac000ef          	jal	ra,2e2e <EXTI_ClearITPendingBit>
D:/projects/mechanical_arm/Firmware/CarMainControl/project/user/src/isr.c:174

    }
}
    2686:	0001                	nop
    2688:	4432                	lw	s0,12(sp)
    268a:	0141                	addi	sp,sp,16
    268c:	30200073          	mret

00002690 <EXTI2_IRQHandler>:
EXTI2_IRQHandler():
D:/projects/mechanical_arm/Firmware/CarMainControl/project/user/src/isr.c:177

void EXTI2_IRQHandler(void)
{
    2690:	1141                	addi	sp,sp,-16
    2692:	c622                	sw	s0,12(sp)
    2694:	0800                	addi	s0,sp,16
D:/projects/mechanical_arm/Firmware/CarMainControl/project/user/src/isr.c:178
    if(SET == EXTI_GetITStatus(EXTI_Line2))
    2696:	4511                	li	a0,4
    2698:	740000ef          	jal	ra,2dd8 <EXTI_GetITStatus>
    269c:	872a                	mv	a4,a0
    269e:	4785                	li	a5,1
    26a0:	00f71563          	bne	a4,a5,26aa <EXTI2_IRQHandler+0x1a>
D:/projects/mechanical_arm/Firmware/CarMainControl/project/user/src/isr.c:180
    {
        EXTI_ClearITPendingBit(EXTI_Line2);
    26a4:	4511                	li	a0,4
    26a6:	788000ef          	jal	ra,2e2e <EXTI_ClearITPendingBit>
D:/projects/mechanical_arm/Firmware/CarMainControl/project/user/src/isr.c:183

    }
}
    26aa:	0001                	nop
    26ac:	4432                	lw	s0,12(sp)
    26ae:	0141                	addi	sp,sp,16
    26b0:	30200073          	mret

000026b4 <EXTI3_IRQHandler>:
EXTI3_IRQHandler():
D:/projects/mechanical_arm/Firmware/CarMainControl/project/user/src/isr.c:186

void EXTI3_IRQHandler(void)
{
    26b4:	1141                	addi	sp,sp,-16
    26b6:	c622                	sw	s0,12(sp)
    26b8:	0800                	addi	s0,sp,16
D:/projects/mechanical_arm/Firmware/CarMainControl/project/user/src/isr.c:187
    if(SET == EXTI_GetITStatus(EXTI_Line3))
    26ba:	4521                	li	a0,8
    26bc:	71c000ef          	jal	ra,2dd8 <EXTI_GetITStatus>
    26c0:	872a                	mv	a4,a0
    26c2:	4785                	li	a5,1
    26c4:	00f71563          	bne	a4,a5,26ce <EXTI3_IRQHandler+0x1a>
D:/projects/mechanical_arm/Firmware/CarMainControl/project/user/src/isr.c:189
    {
        EXTI_ClearITPendingBit(EXTI_Line3);
    26c8:	4521                	li	a0,8
    26ca:	764000ef          	jal	ra,2e2e <EXTI_ClearITPendingBit>
D:/projects/mechanical_arm/Firmware/CarMainControl/project/user/src/isr.c:192

    }
}
    26ce:	0001                	nop
    26d0:	4432                	lw	s0,12(sp)
    26d2:	0141                	addi	sp,sp,16
    26d4:	30200073          	mret

000026d8 <EXTI4_IRQHandler>:
EXTI4_IRQHandler():
D:/projects/mechanical_arm/Firmware/CarMainControl/project/user/src/isr.c:195

void EXTI4_IRQHandler(void)
{
    26d8:	1141                	addi	sp,sp,-16
    26da:	c622                	sw	s0,12(sp)
    26dc:	0800                	addi	s0,sp,16
D:/projects/mechanical_arm/Firmware/CarMainControl/project/user/src/isr.c:196
    if(SET == EXTI_GetITStatus(EXTI_Line4))
    26de:	4541                	li	a0,16
    26e0:	6f8000ef          	jal	ra,2dd8 <EXTI_GetITStatus>
    26e4:	872a                	mv	a4,a0
    26e6:	4785                	li	a5,1
    26e8:	00f71563          	bne	a4,a5,26f2 <EXTI4_IRQHandler+0x1a>
D:/projects/mechanical_arm/Firmware/CarMainControl/project/user/src/isr.c:198
    {
        EXTI_ClearITPendingBit(EXTI_Line4);
    26ec:	4541                	li	a0,16
    26ee:	740000ef          	jal	ra,2e2e <EXTI_ClearITPendingBit>
D:/projects/mechanical_arm/Firmware/CarMainControl/project/user/src/isr.c:201

    }
}
    26f2:	0001                	nop
    26f4:	4432                	lw	s0,12(sp)
    26f6:	0141                	addi	sp,sp,16
    26f8:	30200073          	mret

000026fc <EXTI9_5_IRQHandler>:
EXTI9_5_IRQHandler():
D:/projects/mechanical_arm/Firmware/CarMainControl/project/user/src/isr.c:203
void EXTI9_5_IRQHandler(void)
{
    26fc:	1141                	addi	sp,sp,-16
    26fe:	c622                	sw	s0,12(sp)
    2700:	0800                	addi	s0,sp,16
D:/projects/mechanical_arm/Firmware/CarMainControl/project/user/src/isr.c:204
    if(SET == EXTI_GetITStatus(EXTI_Line5))
    2702:	02000513          	li	a0,32
    2706:	2dc9                	jal	2dd8 <EXTI_GetITStatus>
    2708:	872a                	mv	a4,a0
    270a:	4785                	li	a5,1
    270c:	00f71663          	bne	a4,a5,2718 <EXTI9_5_IRQHandler+0x1c>
D:/projects/mechanical_arm/Firmware/CarMainControl/project/user/src/isr.c:206
    {
        EXTI_ClearITPendingBit(EXTI_Line5);
    2710:	02000513          	li	a0,32
    2714:	71a000ef          	jal	ra,2e2e <EXTI_ClearITPendingBit>
D:/projects/mechanical_arm/Firmware/CarMainControl/project/user/src/isr.c:209

    }
    if(SET == EXTI_GetITStatus(EXTI_Line6))
    2718:	04000513          	li	a0,64
    271c:	2d75                	jal	2dd8 <EXTI_GetITStatus>
    271e:	872a                	mv	a4,a0
    2720:	4785                	li	a5,1
    2722:	00f71663          	bne	a4,a5,272e <EXTI9_5_IRQHandler+0x32>
D:/projects/mechanical_arm/Firmware/CarMainControl/project/user/src/isr.c:211
    {
        EXTI_ClearITPendingBit(EXTI_Line6);
    2726:	04000513          	li	a0,64
    272a:	704000ef          	jal	ra,2e2e <EXTI_ClearITPendingBit>
D:/projects/mechanical_arm/Firmware/CarMainControl/project/user/src/isr.c:214

    }
    if(SET == EXTI_GetITStatus(EXTI_Line7))
    272e:	08000513          	li	a0,128
    2732:	255d                	jal	2dd8 <EXTI_GetITStatus>
    2734:	872a                	mv	a4,a0
    2736:	4785                	li	a5,1
    2738:	00f71663          	bne	a4,a5,2744 <EXTI9_5_IRQHandler+0x48>
D:/projects/mechanical_arm/Firmware/CarMainControl/project/user/src/isr.c:216
    {
        EXTI_ClearITPendingBit(EXTI_Line7);
    273c:	08000513          	li	a0,128
    2740:	6ee000ef          	jal	ra,2e2e <EXTI_ClearITPendingBit>
D:/projects/mechanical_arm/Firmware/CarMainControl/project/user/src/isr.c:219

    }
    if(SET == EXTI_GetITStatus(EXTI_Line8))
    2744:	10000513          	li	a0,256
    2748:	2d41                	jal	2dd8 <EXTI_GetITStatus>
    274a:	872a                	mv	a4,a0
    274c:	4785                	li	a5,1
    274e:	00f71663          	bne	a4,a5,275a <EXTI9_5_IRQHandler+0x5e>
D:/projects/mechanical_arm/Firmware/CarMainControl/project/user/src/isr.c:221
    {
        EXTI_ClearITPendingBit(EXTI_Line8);
    2752:	10000513          	li	a0,256
    2756:	6d8000ef          	jal	ra,2e2e <EXTI_ClearITPendingBit>
D:/projects/mechanical_arm/Firmware/CarMainControl/project/user/src/isr.c:224

    }
    if(SET == EXTI_GetITStatus(EXTI_Line9))
    275a:	20000513          	li	a0,512
    275e:	2dad                	jal	2dd8 <EXTI_GetITStatus>
    2760:	872a                	mv	a4,a0
    2762:	4785                	li	a5,1
    2764:	00f71563          	bne	a4,a5,276e <EXTI9_5_IRQHandler+0x72>
D:/projects/mechanical_arm/Firmware/CarMainControl/project/user/src/isr.c:226
    {
        EXTI_ClearITPendingBit(EXTI_Line9);
    2768:	20000513          	li	a0,512
    276c:	25c9                	jal	2e2e <EXTI_ClearITPendingBit>
D:/projects/mechanical_arm/Firmware/CarMainControl/project/user/src/isr.c:230

    }

}
    276e:	0001                	nop
    2770:	4432                	lw	s0,12(sp)
    2772:	0141                	addi	sp,sp,16
    2774:	30200073          	mret

00002778 <EXTI15_10_IRQHandler>:
EXTI15_10_IRQHandler():
D:/projects/mechanical_arm/Firmware/CarMainControl/project/user/src/isr.c:233

void EXTI15_10_IRQHandler(void)
{
    2778:	1141                	addi	sp,sp,-16
    277a:	c622                	sw	s0,12(sp)
    277c:	0800                	addi	s0,sp,16
D:/projects/mechanical_arm/Firmware/CarMainControl/project/user/src/isr.c:234
    if(SET == EXTI_GetITStatus(EXTI_Line10))
    277e:	40000513          	li	a0,1024
    2782:	2d99                	jal	2dd8 <EXTI_GetITStatus>
    2784:	872a                	mv	a4,a0
    2786:	4785                	li	a5,1
    2788:	00f71563          	bne	a4,a5,2792 <EXTI15_10_IRQHandler+0x1a>
D:/projects/mechanical_arm/Firmware/CarMainControl/project/user/src/isr.c:236
    {
        EXTI_ClearITPendingBit(EXTI_Line10);
    278c:	40000513          	li	a0,1024
    2790:	2d79                	jal	2e2e <EXTI_ClearITPendingBit>
D:/projects/mechanical_arm/Firmware/CarMainControl/project/user/src/isr.c:239

    }
    if(SET == EXTI_GetITStatus(EXTI_Line11))
    2792:	6785                	lui	a5,0x1
    2794:	80078513          	addi	a0,a5,-2048 # 800 <__stack_size>
    2798:	2581                	jal	2dd8 <EXTI_GetITStatus>
    279a:	872a                	mv	a4,a0
    279c:	4785                	li	a5,1
    279e:	00f71663          	bne	a4,a5,27aa <EXTI15_10_IRQHandler+0x32>
D:/projects/mechanical_arm/Firmware/CarMainControl/project/user/src/isr.c:241
    {
        EXTI_ClearITPendingBit(EXTI_Line11);
    27a2:	6785                	lui	a5,0x1
    27a4:	80078513          	addi	a0,a5,-2048 # 800 <__stack_size>
    27a8:	2559                	jal	2e2e <EXTI_ClearITPendingBit>
D:/projects/mechanical_arm/Firmware/CarMainControl/project/user/src/isr.c:244

    }
    if(SET == EXTI_GetITStatus(EXTI_Line12))
    27aa:	6505                	lui	a0,0x1
    27ac:	2535                	jal	2dd8 <EXTI_GetITStatus>
    27ae:	872a                	mv	a4,a0
    27b0:	4785                	li	a5,1
    27b2:	00f71463          	bne	a4,a5,27ba <EXTI15_10_IRQHandler+0x42>
D:/projects/mechanical_arm/Firmware/CarMainControl/project/user/src/isr.c:246
    {
        EXTI_ClearITPendingBit(EXTI_Line12);
    27b6:	6505                	lui	a0,0x1
    27b8:	2d9d                	jal	2e2e <EXTI_ClearITPendingBit>
D:/projects/mechanical_arm/Firmware/CarMainControl/project/user/src/isr.c:249

    }
    if(SET == EXTI_GetITStatus(EXTI_Line13))
    27ba:	6509                	lui	a0,0x2
    27bc:	2d31                	jal	2dd8 <EXTI_GetITStatus>
    27be:	872a                	mv	a4,a0
    27c0:	4785                	li	a5,1
    27c2:	00f71463          	bne	a4,a5,27ca <EXTI15_10_IRQHandler+0x52>
D:/projects/mechanical_arm/Firmware/CarMainControl/project/user/src/isr.c:251
    {
        EXTI_ClearITPendingBit(EXTI_Line13);
    27c6:	6509                	lui	a0,0x2
    27c8:	259d                	jal	2e2e <EXTI_ClearITPendingBit>
D:/projects/mechanical_arm/Firmware/CarMainControl/project/user/src/isr.c:254

    }
    if(SET == EXTI_GetITStatus(EXTI_Line14))
    27ca:	6511                	lui	a0,0x4
    27cc:	2531                	jal	2dd8 <EXTI_GetITStatus>
    27ce:	872a                	mv	a4,a0
    27d0:	4785                	li	a5,1
    27d2:	00f71463          	bne	a4,a5,27da <EXTI15_10_IRQHandler+0x62>
D:/projects/mechanical_arm/Firmware/CarMainControl/project/user/src/isr.c:256
    {
        EXTI_ClearITPendingBit(EXTI_Line14);
    27d6:	6511                	lui	a0,0x4
    27d8:	2d99                	jal	2e2e <EXTI_ClearITPendingBit>
D:/projects/mechanical_arm/Firmware/CarMainControl/project/user/src/isr.c:259

    }
    if(SET == EXTI_GetITStatus(EXTI_Line15))
    27da:	6521                	lui	a0,0x8
    27dc:	2bf5                	jal	2dd8 <EXTI_GetITStatus>
    27de:	872a                	mv	a4,a0
    27e0:	4785                	li	a5,1
    27e2:	00f71463          	bne	a4,a5,27ea <EXTI15_10_IRQHandler+0x72>
D:/projects/mechanical_arm/Firmware/CarMainControl/project/user/src/isr.c:261
    {
        EXTI_ClearITPendingBit(EXTI_Line15);
    27e6:	6521                	lui	a0,0x8
    27e8:	2599                	jal	2e2e <EXTI_ClearITPendingBit>
D:/projects/mechanical_arm/Firmware/CarMainControl/project/user/src/isr.c:264

    }
}
    27ea:	0001                	nop
    27ec:	4432                	lw	s0,12(sp)
    27ee:	0141                	addi	sp,sp,16
    27f0:	30200073          	mret

000027f4 <TIM1_UP_IRQHandler>:
TIM1_UP_IRQHandler():
D:/projects/mechanical_arm/Firmware/CarMainControl/project/user/src/isr.c:267

void TIM1_UP_IRQHandler(void)
{
    27f4:	1141                	addi	sp,sp,-16
    27f6:	c622                	sw	s0,12(sp)
    27f8:	0800                	addi	s0,sp,16
D:/projects/mechanical_arm/Firmware/CarMainControl/project/user/src/isr.c:268
    if(TIM_GetITStatus(TIM1, TIM_IT_Update) != RESET)
    27fa:	4585                	li	a1,1
    27fc:	400137b7          	lui	a5,0x40013
    2800:	c0078513          	addi	a0,a5,-1024 # 40012c00 <_eusrstack+0x20002c00>
    2804:	78f000ef          	jal	ra,3792 <TIM_GetITStatus>
    2808:	87aa                	mv	a5,a0
    280a:	cb81                	beqz	a5,281a <TIM1_UP_IRQHandler+0x26>
D:/projects/mechanical_arm/Firmware/CarMainControl/project/user/src/isr.c:270
    {
        TIM_ClearITPendingBit(TIM1, TIM_IT_Update);
    280c:	4585                	li	a1,1
    280e:	400137b7          	lui	a5,0x40013
    2812:	c0078513          	addi	a0,a5,-1024 # 40012c00 <_eusrstack+0x20002c00>
    2816:	7ed000ef          	jal	ra,3802 <TIM_ClearITPendingBit>
D:/projects/mechanical_arm/Firmware/CarMainControl/project/user/src/isr.c:273

    }
}
    281a:	0001                	nop
    281c:	4432                	lw	s0,12(sp)
    281e:	0141                	addi	sp,sp,16
    2820:	30200073          	mret

00002824 <TIM2_IRQHandler>:
TIM2_IRQHandler():
D:/projects/mechanical_arm/Firmware/CarMainControl/project/user/src/isr.c:277


void TIM2_IRQHandler(void)
{
    2824:	1141                	addi	sp,sp,-16
    2826:	c622                	sw	s0,12(sp)
    2828:	0800                	addi	s0,sp,16
D:/projects/mechanical_arm/Firmware/CarMainControl/project/user/src/isr.c:278
    if(TIM_GetITStatus(TIM2, TIM_IT_Update) != RESET)
    282a:	4585                	li	a1,1
    282c:	40000537          	lui	a0,0x40000
    2830:	763000ef          	jal	ra,3792 <TIM_GetITStatus>
    2834:	87aa                	mv	a5,a0
    2836:	cb91                	beqz	a5,284a <TIM2_IRQHandler+0x26>
D:/projects/mechanical_arm/Firmware/CarMainControl/project/user/src/isr.c:280
    {
       TIM_ClearITPendingBit(TIM2, TIM_IT_Update );
    2838:	4585                	li	a1,1
    283a:	40000537          	lui	a0,0x40000
    283e:	7c5000ef          	jal	ra,3802 <TIM_ClearITPendingBit>
D:/projects/mechanical_arm/Firmware/CarMainControl/project/user/src/isr.c:281
       gpio_toggle_level(E2);
    2842:	08200513          	li	a0,130
    2846:	ad3fd0ef          	jal	ra,318 <gpio_toggle_level>
D:/projects/mechanical_arm/Firmware/CarMainControl/project/user/src/isr.c:284

    }
}
    284a:	0001                	nop
    284c:	4432                	lw	s0,12(sp)
    284e:	0141                	addi	sp,sp,16
    2850:	30200073          	mret

00002854 <TIM3_IRQHandler>:
TIM3_IRQHandler():
D:/projects/mechanical_arm/Firmware/CarMainControl/project/user/src/isr.c:287

void TIM3_IRQHandler(void)
{
    2854:	1141                	addi	sp,sp,-16
    2856:	c622                	sw	s0,12(sp)
    2858:	0800                	addi	s0,sp,16
D:/projects/mechanical_arm/Firmware/CarMainControl/project/user/src/isr.c:288
    if(TIM_GetITStatus(TIM3, TIM_IT_Update) != RESET)
    285a:	4585                	li	a1,1
    285c:	400007b7          	lui	a5,0x40000
    2860:	40078513          	addi	a0,a5,1024 # 40000400 <_eusrstack+0x1fff0400>
    2864:	72f000ef          	jal	ra,3792 <TIM_GetITStatus>
    2868:	87aa                	mv	a5,a0
    286a:	cb81                	beqz	a5,287a <TIM3_IRQHandler+0x26>
D:/projects/mechanical_arm/Firmware/CarMainControl/project/user/src/isr.c:290
    {
       TIM_ClearITPendingBit(TIM3, TIM_IT_Update );
    286c:	4585                	li	a1,1
    286e:	400007b7          	lui	a5,0x40000
    2872:	40078513          	addi	a0,a5,1024 # 40000400 <_eusrstack+0x1fff0400>
    2876:	78d000ef          	jal	ra,3802 <TIM_ClearITPendingBit>
D:/projects/mechanical_arm/Firmware/CarMainControl/project/user/src/isr.c:294


    }
}
    287a:	0001                	nop
    287c:	4432                	lw	s0,12(sp)
    287e:	0141                	addi	sp,sp,16
    2880:	30200073          	mret

00002884 <TIM4_IRQHandler>:
TIM4_IRQHandler():
D:/projects/mechanical_arm/Firmware/CarMainControl/project/user/src/isr.c:297

void TIM4_IRQHandler(void)
{
    2884:	1141                	addi	sp,sp,-16
    2886:	c622                	sw	s0,12(sp)
    2888:	0800                	addi	s0,sp,16
D:/projects/mechanical_arm/Firmware/CarMainControl/project/user/src/isr.c:298
    if(TIM_GetITStatus(TIM4, TIM_IT_Update) != RESET)
    288a:	4585                	li	a1,1
    288c:	400017b7          	lui	a5,0x40001
    2890:	80078513          	addi	a0,a5,-2048 # 40000800 <_eusrstack+0x1fff0800>
    2894:	6ff000ef          	jal	ra,3792 <TIM_GetITStatus>
    2898:	87aa                	mv	a5,a0
    289a:	cb81                	beqz	a5,28aa <TIM4_IRQHandler+0x26>
D:/projects/mechanical_arm/Firmware/CarMainControl/project/user/src/isr.c:300
    {
       TIM_ClearITPendingBit(TIM4, TIM_IT_Update );
    289c:	4585                	li	a1,1
    289e:	400017b7          	lui	a5,0x40001
    28a2:	80078513          	addi	a0,a5,-2048 # 40000800 <_eusrstack+0x1fff0800>
    28a6:	75d000ef          	jal	ra,3802 <TIM_ClearITPendingBit>
D:/projects/mechanical_arm/Firmware/CarMainControl/project/user/src/isr.c:304


    }
}
    28aa:	0001                	nop
    28ac:	4432                	lw	s0,12(sp)
    28ae:	0141                	addi	sp,sp,16
    28b0:	30200073          	mret

000028b4 <TIM5_IRQHandler>:
TIM5_IRQHandler():
D:/projects/mechanical_arm/Firmware/CarMainControl/project/user/src/isr.c:307

void TIM5_IRQHandler(void)
{
    28b4:	1141                	addi	sp,sp,-16
    28b6:	c622                	sw	s0,12(sp)
    28b8:	0800                	addi	s0,sp,16
D:/projects/mechanical_arm/Firmware/CarMainControl/project/user/src/isr.c:308
    if(TIM_GetITStatus(TIM5, TIM_IT_Update) != RESET)
    28ba:	4585                	li	a1,1
    28bc:	400017b7          	lui	a5,0x40001
    28c0:	c0078513          	addi	a0,a5,-1024 # 40000c00 <_eusrstack+0x1fff0c00>
    28c4:	6cf000ef          	jal	ra,3792 <TIM_GetITStatus>
    28c8:	87aa                	mv	a5,a0
    28ca:	cb81                	beqz	a5,28da <TIM5_IRQHandler+0x26>
D:/projects/mechanical_arm/Firmware/CarMainControl/project/user/src/isr.c:310
    {
       TIM_ClearITPendingBit(TIM5, TIM_IT_Update );
    28cc:	4585                	li	a1,1
    28ce:	400017b7          	lui	a5,0x40001
    28d2:	c0078513          	addi	a0,a5,-1024 # 40000c00 <_eusrstack+0x1fff0c00>
    28d6:	72d000ef          	jal	ra,3802 <TIM_ClearITPendingBit>
D:/projects/mechanical_arm/Firmware/CarMainControl/project/user/src/isr.c:314


    }
}
    28da:	0001                	nop
    28dc:	4432                	lw	s0,12(sp)
    28de:	0141                	addi	sp,sp,16
    28e0:	30200073          	mret

000028e4 <TIM6_IRQHandler>:
TIM6_IRQHandler():
D:/projects/mechanical_arm/Firmware/CarMainControl/project/user/src/isr.c:317

void TIM6_IRQHandler(void)
{
    28e4:	1141                	addi	sp,sp,-16
    28e6:	c622                	sw	s0,12(sp)
    28e8:	0800                	addi	s0,sp,16
D:/projects/mechanical_arm/Firmware/CarMainControl/project/user/src/isr.c:318
    if(TIM_GetITStatus(TIM6, TIM_IT_Update) != RESET)
    28ea:	4585                	li	a1,1
    28ec:	40001537          	lui	a0,0x40001
    28f0:	6a3000ef          	jal	ra,3792 <TIM_GetITStatus>
    28f4:	87aa                	mv	a5,a0
    28f6:	c791                	beqz	a5,2902 <TIM6_IRQHandler+0x1e>
D:/projects/mechanical_arm/Firmware/CarMainControl/project/user/src/isr.c:320
    {
       TIM_ClearITPendingBit(TIM6, TIM_IT_Update );
    28f8:	4585                	li	a1,1
    28fa:	40001537          	lui	a0,0x40001
    28fe:	705000ef          	jal	ra,3802 <TIM_ClearITPendingBit>
D:/projects/mechanical_arm/Firmware/CarMainControl/project/user/src/isr.c:324


    }
}
    2902:	0001                	nop
    2904:	4432                	lw	s0,12(sp)
    2906:	0141                	addi	sp,sp,16
    2908:	30200073          	mret

0000290c <TIM7_IRQHandler>:
TIM7_IRQHandler():
D:/projects/mechanical_arm/Firmware/CarMainControl/project/user/src/isr.c:327

void TIM7_IRQHandler(void)
{
    290c:	1141                	addi	sp,sp,-16
    290e:	c622                	sw	s0,12(sp)
    2910:	0800                	addi	s0,sp,16
D:/projects/mechanical_arm/Firmware/CarMainControl/project/user/src/isr.c:328
    if(TIM_GetITStatus(TIM7, TIM_IT_Update) != RESET)
    2912:	4585                	li	a1,1
    2914:	400017b7          	lui	a5,0x40001
    2918:	40078513          	addi	a0,a5,1024 # 40001400 <_eusrstack+0x1fff1400>
    291c:	677000ef          	jal	ra,3792 <TIM_GetITStatus>
    2920:	87aa                	mv	a5,a0
    2922:	cb81                	beqz	a5,2932 <TIM7_IRQHandler+0x26>
D:/projects/mechanical_arm/Firmware/CarMainControl/project/user/src/isr.c:330
    {
       TIM_ClearITPendingBit(TIM7, TIM_IT_Update );
    2924:	4585                	li	a1,1
    2926:	400017b7          	lui	a5,0x40001
    292a:	40078513          	addi	a0,a5,1024 # 40001400 <_eusrstack+0x1fff1400>
    292e:	6d5000ef          	jal	ra,3802 <TIM_ClearITPendingBit>
D:/projects/mechanical_arm/Firmware/CarMainControl/project/user/src/isr.c:334


    }
}
    2932:	0001                	nop
    2934:	4432                	lw	s0,12(sp)
    2936:	0141                	addi	sp,sp,16
    2938:	30200073          	mret

0000293c <TIM8_UP_IRQHandler>:
TIM8_UP_IRQHandler():
D:/projects/mechanical_arm/Firmware/CarMainControl/project/user/src/isr.c:338


void TIM8_UP_IRQHandler(void)
{
    293c:	1141                	addi	sp,sp,-16
    293e:	c622                	sw	s0,12(sp)
    2940:	0800                	addi	s0,sp,16
D:/projects/mechanical_arm/Firmware/CarMainControl/project/user/src/isr.c:339
    if(TIM_GetITStatus(TIM8, TIM_IT_Update) != RESET)
    2942:	4585                	li	a1,1
    2944:	400137b7          	lui	a5,0x40013
    2948:	40078513          	addi	a0,a5,1024 # 40013400 <_eusrstack+0x20003400>
    294c:	647000ef          	jal	ra,3792 <TIM_GetITStatus>
    2950:	87aa                	mv	a5,a0
    2952:	cb81                	beqz	a5,2962 <TIM8_UP_IRQHandler+0x26>
D:/projects/mechanical_arm/Firmware/CarMainControl/project/user/src/isr.c:341
    {
        TIM_ClearITPendingBit(TIM8, TIM_IT_Update);
    2954:	4585                	li	a1,1
    2956:	400137b7          	lui	a5,0x40013
    295a:	40078513          	addi	a0,a5,1024 # 40013400 <_eusrstack+0x20003400>
    295e:	6a5000ef          	jal	ra,3802 <TIM_ClearITPendingBit>
D:/projects/mechanical_arm/Firmware/CarMainControl/project/user/src/isr.c:344

    }
}
    2962:	0001                	nop
    2964:	4432                	lw	s0,12(sp)
    2966:	0141                	addi	sp,sp,16
    2968:	30200073          	mret

0000296c <TIM9_UP_IRQHandler>:
TIM9_UP_IRQHandler():
D:/projects/mechanical_arm/Firmware/CarMainControl/project/user/src/isr.c:348


void TIM9_UP_IRQHandler(void)
{
    296c:	1141                	addi	sp,sp,-16
    296e:	c622                	sw	s0,12(sp)
    2970:	0800                	addi	s0,sp,16
D:/projects/mechanical_arm/Firmware/CarMainControl/project/user/src/isr.c:349
    if(TIM_GetITStatus(TIM9, TIM_IT_Update) != RESET)
    2972:	4585                	li	a1,1
    2974:	400157b7          	lui	a5,0x40015
    2978:	c0078513          	addi	a0,a5,-1024 # 40014c00 <_eusrstack+0x20004c00>
    297c:	617000ef          	jal	ra,3792 <TIM_GetITStatus>
    2980:	87aa                	mv	a5,a0
    2982:	cb81                	beqz	a5,2992 <TIM9_UP_IRQHandler+0x26>
D:/projects/mechanical_arm/Firmware/CarMainControl/project/user/src/isr.c:351
    {
        TIM_ClearITPendingBit(TIM9, TIM_IT_Update);
    2984:	4585                	li	a1,1
    2986:	400157b7          	lui	a5,0x40015
    298a:	c0078513          	addi	a0,a5,-1024 # 40014c00 <_eusrstack+0x20004c00>
    298e:	675000ef          	jal	ra,3802 <TIM_ClearITPendingBit>
D:/projects/mechanical_arm/Firmware/CarMainControl/project/user/src/isr.c:354

    }
}
    2992:	0001                	nop
    2994:	4432                	lw	s0,12(sp)
    2996:	0141                	addi	sp,sp,16
    2998:	30200073          	mret

0000299c <TIM10_UP_IRQHandler>:
TIM10_UP_IRQHandler():
D:/projects/mechanical_arm/Firmware/CarMainControl/project/user/src/isr.c:358


void TIM10_UP_IRQHandler(void)
{
    299c:	1141                	addi	sp,sp,-16
    299e:	c622                	sw	s0,12(sp)
    29a0:	0800                	addi	s0,sp,16
D:/projects/mechanical_arm/Firmware/CarMainControl/project/user/src/isr.c:359
    if(TIM_GetITStatus(TIM10, TIM_IT_Update) != RESET)
    29a2:	4585                	li	a1,1
    29a4:	40015537          	lui	a0,0x40015
    29a8:	5eb000ef          	jal	ra,3792 <TIM_GetITStatus>
    29ac:	87aa                	mv	a5,a0
    29ae:	c791                	beqz	a5,29ba <TIM10_UP_IRQHandler+0x1e>
D:/projects/mechanical_arm/Firmware/CarMainControl/project/user/src/isr.c:361
    {
        TIM_ClearITPendingBit(TIM10, TIM_IT_Update);
    29b0:	4585                	li	a1,1
    29b2:	40015537          	lui	a0,0x40015
    29b6:	64d000ef          	jal	ra,3802 <TIM_ClearITPendingBit>
D:/projects/mechanical_arm/Firmware/CarMainControl/project/user/src/isr.c:364

    }
}
    29ba:	0001                	nop
    29bc:	4432                	lw	s0,12(sp)
    29be:	0141                	addi	sp,sp,16
    29c0:	30200073          	mret

000029c4 <NMI_Handler>:
NMI_Handler():
D:/projects/mechanical_arm/Firmware/CarMainControl/project/user/src/isr.c:460
* Description    : This function handles NMI exception.
* Input          : None
* Return         : None
*******************************************************************************/
void NMI_Handler(void)
{
    29c4:	1141                	addi	sp,sp,-16
    29c6:	c622                	sw	s0,12(sp)
    29c8:	0800                	addi	s0,sp,16
D:/projects/mechanical_arm/Firmware/CarMainControl/project/user/src/isr.c:461
}
    29ca:	0001                	nop
    29cc:	4432                	lw	s0,12(sp)
    29ce:	0141                	addi	sp,sp,16
    29d0:	30200073          	mret

000029d4 <HardFault_Handler>:
HardFault_Handler():
D:/projects/mechanical_arm/Firmware/CarMainControl/project/user/src/isr.c:470
* Description    : This function handles Hard Fault exception.
* Input          : None
* Return         : None
*******************************************************************************/
void HardFault_Handler(void)
{
    29d4:	1141                	addi	sp,sp,-16
    29d6:	c622                	sw	s0,12(sp)
    29d8:	0800                	addi	s0,sp,16
D:/projects/mechanical_arm/Firmware/CarMainControl/project/user/src/isr.c:471 (discriminator 1)
  while (1)
    29da:	a001                	j	29da <HardFault_Handler+0x6>

000029dc <Blink>:
Blink():
D:/projects/mechanical_arm/Firmware/CarMainControl/project/user/src/main.c:4
#include "zf_common_headfile.h"
#include "Config.h"
void Blink(uint16_t _times)
{
    29dc:	1101                	addi	sp,sp,-32
    29de:	ce06                	sw	ra,28(sp)
    29e0:	cc22                	sw	s0,24(sp)
    29e2:	1000                	addi	s0,sp,32
    29e4:	87aa                	mv	a5,a0
    29e6:	fef41723          	sh	a5,-18(s0)
D:/projects/mechanical_arm/Firmware/CarMainControl/project/user/src/main.c:6
    static int i = 0;
    if (i >= _times)
    29ea:	fee45703          	lhu	a4,-18(s0)
    29ee:	8601a783          	lw	a5,-1952(gp) # 20000280 <i.6862>
    29f2:	00e7c863          	blt	a5,a4,2a02 <Blink+0x26>
D:/projects/mechanical_arm/Firmware/CarMainControl/project/user/src/main.c:8
    {
        gpio_toggle_level(INDICATOR);
    29f6:	08700513          	li	a0,135
    29fa:	91ffd0ef          	jal	ra,318 <gpio_toggle_level>
D:/projects/mechanical_arm/Firmware/CarMainControl/project/user/src/main.c:9
        i = 0;
    29fe:	8601a023          	sw	zero,-1952(gp) # 20000280 <i.6862>
D:/projects/mechanical_arm/Firmware/CarMainControl/project/user/src/main.c:11
    }
    i++;
    2a02:	8601a783          	lw	a5,-1952(gp) # 20000280 <i.6862>
    2a06:	00178713          	addi	a4,a5,1
    2a0a:	86e1a023          	sw	a4,-1952(gp) # 20000280 <i.6862>
D:/projects/mechanical_arm/Firmware/CarMainControl/project/user/src/main.c:12
}
    2a0e:	0001                	nop
    2a10:	40f2                	lw	ra,28(sp)
    2a12:	4462                	lw	s0,24(sp)
    2a14:	6105                	addi	sp,sp,32
    2a16:	8082                	ret

00002a18 <Init>:
Init():
D:/projects/mechanical_arm/Firmware/CarMainControl/project/user/src/main.c:15

void Init()
{
    2a18:	1141                	addi	sp,sp,-16
    2a1a:	c606                	sw	ra,12(sp)
    2a1c:	c422                	sw	s0,8(sp)
    2a1e:	0800                	addi	s0,sp,16
D:/projects/mechanical_arm/Firmware/CarMainControl/project/user/src/main.c:16
    gpio_init(INDICATOR, GPO, GPIO_LOW, GPO_PUSH_PULL);
    2a20:	46c1                	li	a3,16
    2a22:	4601                	li	a2,0
    2a24:	4585                	li	a1,1
    2a26:	08700513          	li	a0,135
    2a2a:	955fd0ef          	jal	ra,37e <gpio_init>
D:/projects/mechanical_arm/Firmware/CarMainControl/project/user/src/main.c:17
    tft180_init();
    2a2e:	ef3fe0ef          	jal	ra,1920 <tft180_init>
D:/projects/mechanical_arm/Firmware/CarMainControl/project/user/src/main.c:18
}
    2a32:	0001                	nop
    2a34:	40b2                	lw	ra,12(sp)
    2a36:	4422                	lw	s0,8(sp)
    2a38:	0141                	addi	sp,sp,16
    2a3a:	8082                	ret

00002a3c <main>:
main():
D:/projects/mechanical_arm/Firmware/CarMainControl/project/user/src/main.c:21

int main(void)
{
    2a3c:	1141                	addi	sp,sp,-16
    2a3e:	c606                	sw	ra,12(sp)
    2a40:	c422                	sw	s0,8(sp)
    2a42:	c24a                	sw	s2,4(sp)
    2a44:	c04e                	sw	s3,0(sp)
    2a46:	0800                	addi	s0,sp,16
D:/projects/mechanical_arm/Firmware/CarMainControl/project/user/src/main.c:22
    interrupt_global_disable();             // 关闭总中断
    2a48:	9c1ff0ef          	jal	ra,2408 <interrupt_global_disable>
D:/projects/mechanical_arm/Firmware/CarMainControl/project/user/src/main.c:23
    clock_init(SYSTEM_CLOCK_144M);          // 务必保留，设置系统时钟。
    2a4c:	089547b7          	lui	a5,0x8954
    2a50:	40078513          	addi	a0,a5,1024 # 8954400 <_data_lma+0x8949f2c>
    2a54:	b8cff0ef          	jal	ra,1de0 <clock_init>
D:/projects/mechanical_arm/Firmware/CarMainControl/project/user/src/main.c:24
    debug_init();                           // 务必保留，本函数用于初始化MPU 时钟 调试串口
    2a58:	e96ff0ef          	jal	ra,20ee <debug_init>
D:/projects/mechanical_arm/Firmware/CarMainControl/project/user/src/main.c:25
    Init();
    2a5c:	3f75                	jal	2a18 <Init>
D:/projects/mechanical_arm/Firmware/CarMainControl/project/user/src/main.c:26
    interrupt_global_enable();              // 总中断最后开启
    2a5e:	97dff0ef          	jal	ra,23da <interrupt_global_enable>
D:/projects/mechanical_arm/Firmware/CarMainControl/project/user/src/main.c:30 (discriminator 1)
    while(1)
    {

        Blink(1);
    2a62:	4505                	li	a0,1
    2a64:	f79ff0ef          	jal	ra,29dc <Blink>
D:/projects/mechanical_arm/Firmware/CarMainControl/project/user/src/main.c:31 (discriminator 1)
        tft180_show_string(0,0,"ZongJie is SB!!!");
    2a68:	67a9                	lui	a5,0xa
    2a6a:	83c78613          	addi	a2,a5,-1988 # 983c <_sbrk+0x124>
    2a6e:	4581                	li	a1,0
    2a70:	4501                	li	a0,0
    2a72:	de9fe0ef          	jal	ra,185a <tft180_show_string>
D:/projects/mechanical_arm/Firmware/CarMainControl/project/user/src/main.c:32 (discriminator 1)
        system_delay_ms(500);
    2a76:	8541a703          	lw	a4,-1964(gp) # 20000274 <system_clock>
    2a7a:	6789                	lui	a5,0x2
    2a7c:	f4078793          	addi	a5,a5,-192 # 1f40 <clock_set_freq+0xc2>
    2a80:	02f75733          	divu	a4,a4,a5
    2a84:	1f400793          	li	a5,500
    2a88:	02f707b3          	mul	a5,a4,a5
    2a8c:	893e                	mv	s2,a5
    2a8e:	4981                	li	s3,0
    2a90:	854a                	mv	a0,s2
    2a92:	85ce                	mv	a1,s3
    2a94:	829fd0ef          	jal	ra,2bc <system_delay>
D:/projects/mechanical_arm/Firmware/CarMainControl/project/user/src/main.c:30 (discriminator 1)
        Blink(1);
    2a98:	b7e9                	j	2a62 <main+0x26>
D:/projects/mechanical_arm/Firmware/CarMainControl/libraries/sdk/Startup/startup_ch32v30x.S:236
    .weak   DMA2_Channel8_IRQHandler   /* DMA2 Channel 8 */
    .weak   DMA2_Channel9_IRQHandler   /* DMA2 Channel 9 */
    .weak   DMA2_Channel10_IRQHandler  /* DMA2 Channel 10 */
    .weak   DMA2_Channel11_IRQHandler  /* DMA2 Channel 11 */

NMI_Handler:  1:  j 1b
    2a9a:	a001                	j	2a9a <main+0x5e>
D:/projects/mechanical_arm/Firmware/CarMainControl/libraries/sdk/Startup/startup_ch32v30x.S:237
HardFault_Handler:  1:  j 1b
    2a9c:	a001                	j	2a9c <main+0x60>

00002a9e <Ecall_M_Mode_Handler>:
Ecall_M_Mode_Handler():
D:/projects/mechanical_arm/Firmware/CarMainControl/libraries/sdk/Startup/startup_ch32v30x.S:238
Ecall_M_Mode_Handler:  1:  j 1b
    2a9e:	a001                	j	2a9e <Ecall_M_Mode_Handler>

00002aa0 <Ecall_U_Mode_Handler>:
Ecall_U_Mode_Handler():
D:/projects/mechanical_arm/Firmware/CarMainControl/libraries/sdk/Startup/startup_ch32v30x.S:239
Ecall_U_Mode_Handler:  1:  j 1b
    2aa0:	a001                	j	2aa0 <Ecall_U_Mode_Handler>

00002aa2 <Break_Point_Handler>:
Break_Point_Handler():
D:/projects/mechanical_arm/Firmware/CarMainControl/libraries/sdk/Startup/startup_ch32v30x.S:240
Break_Point_Handler:  1:  j 1b
    2aa2:	a001                	j	2aa2 <Break_Point_Handler>

00002aa4 <SysTick_Handler>:
SysTick_Handler():
D:/projects/mechanical_arm/Firmware/CarMainControl/libraries/sdk/Startup/startup_ch32v30x.S:241
SysTick_Handler:  1:  j 1b
    2aa4:	a001                	j	2aa4 <SysTick_Handler>

00002aa6 <SW_handler>:
SW_handler():
D:/projects/mechanical_arm/Firmware/CarMainControl/libraries/sdk/Startup/startup_ch32v30x.S:242
SW_handler:  1:  j 1b
    2aa6:	a001                	j	2aa6 <SW_handler>

00002aa8 <WWDG_IRQHandler>:
WWDG_IRQHandler():
D:/projects/mechanical_arm/Firmware/CarMainControl/libraries/sdk/Startup/startup_ch32v30x.S:243
WWDG_IRQHandler:  1:  j 1b
    2aa8:	a001                	j	2aa8 <WWDG_IRQHandler>

00002aaa <PVD_IRQHandler>:
PVD_IRQHandler():
D:/projects/mechanical_arm/Firmware/CarMainControl/libraries/sdk/Startup/startup_ch32v30x.S:244
PVD_IRQHandler:  1:  j 1b
    2aaa:	a001                	j	2aaa <PVD_IRQHandler>

00002aac <TAMPER_IRQHandler>:
TAMPER_IRQHandler():
D:/projects/mechanical_arm/Firmware/CarMainControl/libraries/sdk/Startup/startup_ch32v30x.S:245
TAMPER_IRQHandler:  1:  j 1b
    2aac:	a001                	j	2aac <TAMPER_IRQHandler>

00002aae <RTC_IRQHandler>:
RTC_IRQHandler():
D:/projects/mechanical_arm/Firmware/CarMainControl/libraries/sdk/Startup/startup_ch32v30x.S:246
RTC_IRQHandler:  1:  j 1b
    2aae:	a001                	j	2aae <RTC_IRQHandler>

00002ab0 <FLASH_IRQHandler>:
FLASH_IRQHandler():
D:/projects/mechanical_arm/Firmware/CarMainControl/libraries/sdk/Startup/startup_ch32v30x.S:247
FLASH_IRQHandler:  1:  j 1b
    2ab0:	a001                	j	2ab0 <FLASH_IRQHandler>

00002ab2 <RCC_IRQHandler>:
RCC_IRQHandler():
D:/projects/mechanical_arm/Firmware/CarMainControl/libraries/sdk/Startup/startup_ch32v30x.S:248
RCC_IRQHandler:  1:  j 1b
    2ab2:	a001                	j	2ab2 <RCC_IRQHandler>
D:/projects/mechanical_arm/Firmware/CarMainControl/libraries/sdk/Startup/startup_ch32v30x.S:249
EXTI0_IRQHandler:  1:  j 1b
    2ab4:	a001                	j	2ab4 <RCC_IRQHandler+0x2>
D:/projects/mechanical_arm/Firmware/CarMainControl/libraries/sdk/Startup/startup_ch32v30x.S:250
EXTI1_IRQHandler:  1:  j 1b
    2ab6:	a001                	j	2ab6 <RCC_IRQHandler+0x4>
D:/projects/mechanical_arm/Firmware/CarMainControl/libraries/sdk/Startup/startup_ch32v30x.S:251
EXTI2_IRQHandler:  1:  j 1b
    2ab8:	a001                	j	2ab8 <RCC_IRQHandler+0x6>
D:/projects/mechanical_arm/Firmware/CarMainControl/libraries/sdk/Startup/startup_ch32v30x.S:252
EXTI3_IRQHandler:  1:  j 1b
    2aba:	a001                	j	2aba <RCC_IRQHandler+0x8>
D:/projects/mechanical_arm/Firmware/CarMainControl/libraries/sdk/Startup/startup_ch32v30x.S:253
EXTI4_IRQHandler:  1:  j 1b
    2abc:	a001                	j	2abc <RCC_IRQHandler+0xa>

00002abe <DMA1_Channel1_IRQHandler>:
DMA1_Channel1_IRQHandler():
D:/projects/mechanical_arm/Firmware/CarMainControl/libraries/sdk/Startup/startup_ch32v30x.S:254
DMA1_Channel1_IRQHandler:  1:  j 1b
    2abe:	a001                	j	2abe <DMA1_Channel1_IRQHandler>

00002ac0 <DMA1_Channel2_IRQHandler>:
DMA1_Channel2_IRQHandler():
D:/projects/mechanical_arm/Firmware/CarMainControl/libraries/sdk/Startup/startup_ch32v30x.S:255
DMA1_Channel2_IRQHandler:  1:  j 1b
    2ac0:	a001                	j	2ac0 <DMA1_Channel2_IRQHandler>

00002ac2 <DMA1_Channel3_IRQHandler>:
DMA1_Channel3_IRQHandler():
D:/projects/mechanical_arm/Firmware/CarMainControl/libraries/sdk/Startup/startup_ch32v30x.S:256
DMA1_Channel3_IRQHandler:  1:  j 1b
    2ac2:	a001                	j	2ac2 <DMA1_Channel3_IRQHandler>

00002ac4 <DMA1_Channel4_IRQHandler>:
DMA1_Channel4_IRQHandler():
D:/projects/mechanical_arm/Firmware/CarMainControl/libraries/sdk/Startup/startup_ch32v30x.S:257
DMA1_Channel4_IRQHandler:  1:  j 1b
    2ac4:	a001                	j	2ac4 <DMA1_Channel4_IRQHandler>

00002ac6 <DMA1_Channel5_IRQHandler>:
DMA1_Channel5_IRQHandler():
D:/projects/mechanical_arm/Firmware/CarMainControl/libraries/sdk/Startup/startup_ch32v30x.S:258
DMA1_Channel5_IRQHandler:  1:  j 1b
    2ac6:	a001                	j	2ac6 <DMA1_Channel5_IRQHandler>

00002ac8 <DMA1_Channel6_IRQHandler>:
DMA1_Channel6_IRQHandler():
D:/projects/mechanical_arm/Firmware/CarMainControl/libraries/sdk/Startup/startup_ch32v30x.S:259
DMA1_Channel6_IRQHandler:  1:  j 1b
    2ac8:	a001                	j	2ac8 <DMA1_Channel6_IRQHandler>

00002aca <DMA1_Channel7_IRQHandler>:
DMA1_Channel7_IRQHandler():
D:/projects/mechanical_arm/Firmware/CarMainControl/libraries/sdk/Startup/startup_ch32v30x.S:260
DMA1_Channel7_IRQHandler:  1:  j 1b
    2aca:	a001                	j	2aca <DMA1_Channel7_IRQHandler>

00002acc <ADC1_2_IRQHandler>:
ADC1_2_IRQHandler():
D:/projects/mechanical_arm/Firmware/CarMainControl/libraries/sdk/Startup/startup_ch32v30x.S:261
ADC1_2_IRQHandler:  1:  j 1b
    2acc:	a001                	j	2acc <ADC1_2_IRQHandler>

00002ace <USB_HP_CAN1_TX_IRQHandler>:
USB_HP_CAN1_TX_IRQHandler():
D:/projects/mechanical_arm/Firmware/CarMainControl/libraries/sdk/Startup/startup_ch32v30x.S:262
USB_HP_CAN1_TX_IRQHandler:  1:  j 1b
    2ace:	a001                	j	2ace <USB_HP_CAN1_TX_IRQHandler>

00002ad0 <USB_LP_CAN1_RX0_IRQHandler>:
USB_LP_CAN1_RX0_IRQHandler():
D:/projects/mechanical_arm/Firmware/CarMainControl/libraries/sdk/Startup/startup_ch32v30x.S:263
USB_LP_CAN1_RX0_IRQHandler:  1:  j 1b
    2ad0:	a001                	j	2ad0 <USB_LP_CAN1_RX0_IRQHandler>

00002ad2 <CAN1_RX1_IRQHandler>:
CAN1_RX1_IRQHandler():
D:/projects/mechanical_arm/Firmware/CarMainControl/libraries/sdk/Startup/startup_ch32v30x.S:264
CAN1_RX1_IRQHandler:  1:  j 1b
    2ad2:	a001                	j	2ad2 <CAN1_RX1_IRQHandler>

00002ad4 <CAN1_SCE_IRQHandler>:
CAN1_SCE_IRQHandler():
D:/projects/mechanical_arm/Firmware/CarMainControl/libraries/sdk/Startup/startup_ch32v30x.S:265
CAN1_SCE_IRQHandler:  1:  j 1b
    2ad4:	a001                	j	2ad4 <CAN1_SCE_IRQHandler>
D:/projects/mechanical_arm/Firmware/CarMainControl/libraries/sdk/Startup/startup_ch32v30x.S:266
EXTI9_5_IRQHandler:  1:  j 1b
    2ad6:	a001                	j	2ad6 <CAN1_SCE_IRQHandler+0x2>

00002ad8 <TIM1_BRK_IRQHandler>:
TIM1_BRK_IRQHandler():
D:/projects/mechanical_arm/Firmware/CarMainControl/libraries/sdk/Startup/startup_ch32v30x.S:267
TIM1_BRK_IRQHandler:  1:  j 1b
    2ad8:	a001                	j	2ad8 <TIM1_BRK_IRQHandler>
D:/projects/mechanical_arm/Firmware/CarMainControl/libraries/sdk/Startup/startup_ch32v30x.S:268
TIM1_UP_IRQHandler:  1:  j 1b
    2ada:	a001                	j	2ada <TIM1_BRK_IRQHandler+0x2>

00002adc <TIM1_TRG_COM_IRQHandler>:
TIM1_TRG_COM_IRQHandler():
D:/projects/mechanical_arm/Firmware/CarMainControl/libraries/sdk/Startup/startup_ch32v30x.S:269
TIM1_TRG_COM_IRQHandler:  1:  j 1b
    2adc:	a001                	j	2adc <TIM1_TRG_COM_IRQHandler>

00002ade <TIM1_CC_IRQHandler>:
TIM1_CC_IRQHandler():
D:/projects/mechanical_arm/Firmware/CarMainControl/libraries/sdk/Startup/startup_ch32v30x.S:270
TIM1_CC_IRQHandler:  1:  j 1b
    2ade:	a001                	j	2ade <TIM1_CC_IRQHandler>
D:/projects/mechanical_arm/Firmware/CarMainControl/libraries/sdk/Startup/startup_ch32v30x.S:271
TIM2_IRQHandler:  1:  j 1b
    2ae0:	a001                	j	2ae0 <TIM1_CC_IRQHandler+0x2>
D:/projects/mechanical_arm/Firmware/CarMainControl/libraries/sdk/Startup/startup_ch32v30x.S:272
TIM3_IRQHandler:  1:  j 1b
    2ae2:	a001                	j	2ae2 <TIM1_CC_IRQHandler+0x4>
D:/projects/mechanical_arm/Firmware/CarMainControl/libraries/sdk/Startup/startup_ch32v30x.S:273
TIM4_IRQHandler:  1:  j 1b
    2ae4:	a001                	j	2ae4 <TIM1_CC_IRQHandler+0x6>

00002ae6 <I2C1_EV_IRQHandler>:
I2C1_EV_IRQHandler():
D:/projects/mechanical_arm/Firmware/CarMainControl/libraries/sdk/Startup/startup_ch32v30x.S:274
I2C1_EV_IRQHandler:  1:  j 1b
    2ae6:	a001                	j	2ae6 <I2C1_EV_IRQHandler>

00002ae8 <I2C1_ER_IRQHandler>:
I2C1_ER_IRQHandler():
D:/projects/mechanical_arm/Firmware/CarMainControl/libraries/sdk/Startup/startup_ch32v30x.S:275
I2C1_ER_IRQHandler:  1:  j 1b
    2ae8:	a001                	j	2ae8 <I2C1_ER_IRQHandler>

00002aea <I2C2_EV_IRQHandler>:
I2C2_EV_IRQHandler():
D:/projects/mechanical_arm/Firmware/CarMainControl/libraries/sdk/Startup/startup_ch32v30x.S:276
I2C2_EV_IRQHandler:  1:  j 1b
    2aea:	a001                	j	2aea <I2C2_EV_IRQHandler>

00002aec <I2C2_ER_IRQHandler>:
I2C2_ER_IRQHandler():
D:/projects/mechanical_arm/Firmware/CarMainControl/libraries/sdk/Startup/startup_ch32v30x.S:277
I2C2_ER_IRQHandler:  1:  j 1b
    2aec:	a001                	j	2aec <I2C2_ER_IRQHandler>

00002aee <SPI1_IRQHandler>:
SPI1_IRQHandler():
D:/projects/mechanical_arm/Firmware/CarMainControl/libraries/sdk/Startup/startup_ch32v30x.S:278
SPI1_IRQHandler:  1:  j 1b
    2aee:	a001                	j	2aee <SPI1_IRQHandler>

00002af0 <SPI2_IRQHandler>:
SPI2_IRQHandler():
D:/projects/mechanical_arm/Firmware/CarMainControl/libraries/sdk/Startup/startup_ch32v30x.S:279
SPI2_IRQHandler:  1:  j 1b
    2af0:	a001                	j	2af0 <SPI2_IRQHandler>
D:/projects/mechanical_arm/Firmware/CarMainControl/libraries/sdk/Startup/startup_ch32v30x.S:280
USART1_IRQHandler:  1:  j 1b
    2af2:	a001                	j	2af2 <SPI2_IRQHandler+0x2>
D:/projects/mechanical_arm/Firmware/CarMainControl/libraries/sdk/Startup/startup_ch32v30x.S:281
USART2_IRQHandler:  1:  j 1b
    2af4:	a001                	j	2af4 <SPI2_IRQHandler+0x4>
D:/projects/mechanical_arm/Firmware/CarMainControl/libraries/sdk/Startup/startup_ch32v30x.S:282
USART3_IRQHandler:  1:  j 1b
    2af6:	a001                	j	2af6 <SPI2_IRQHandler+0x6>
D:/projects/mechanical_arm/Firmware/CarMainControl/libraries/sdk/Startup/startup_ch32v30x.S:283
EXTI15_10_IRQHandler:  1:  j 1b
    2af8:	a001                	j	2af8 <SPI2_IRQHandler+0x8>

00002afa <RTCAlarm_IRQHandler>:
RTCAlarm_IRQHandler():
D:/projects/mechanical_arm/Firmware/CarMainControl/libraries/sdk/Startup/startup_ch32v30x.S:284
RTCAlarm_IRQHandler:  1:  j 1b
    2afa:	a001                	j	2afa <RTCAlarm_IRQHandler>

00002afc <USBWakeUp_IRQHandler>:
USBWakeUp_IRQHandler():
D:/projects/mechanical_arm/Firmware/CarMainControl/libraries/sdk/Startup/startup_ch32v30x.S:285
USBWakeUp_IRQHandler:  1:  j 1b
    2afc:	a001                	j	2afc <USBWakeUp_IRQHandler>

00002afe <TIM8_BRK_IRQHandler>:
TIM8_BRK_IRQHandler():
D:/projects/mechanical_arm/Firmware/CarMainControl/libraries/sdk/Startup/startup_ch32v30x.S:286
TIM8_BRK_IRQHandler:  1:  j 1b
    2afe:	a001                	j	2afe <TIM8_BRK_IRQHandler>
D:/projects/mechanical_arm/Firmware/CarMainControl/libraries/sdk/Startup/startup_ch32v30x.S:287
TIM8_UP_IRQHandler:  1:  j 1b
    2b00:	a001                	j	2b00 <TIM8_BRK_IRQHandler+0x2>

00002b02 <TIM8_TRG_COM_IRQHandler>:
TIM8_TRG_COM_IRQHandler():
D:/projects/mechanical_arm/Firmware/CarMainControl/libraries/sdk/Startup/startup_ch32v30x.S:288
TIM8_TRG_COM_IRQHandler:  1:  j 1b
    2b02:	a001                	j	2b02 <TIM8_TRG_COM_IRQHandler>

00002b04 <TIM8_CC_IRQHandler>:
TIM8_CC_IRQHandler():
D:/projects/mechanical_arm/Firmware/CarMainControl/libraries/sdk/Startup/startup_ch32v30x.S:289
TIM8_CC_IRQHandler:  1:  j 1b
    2b04:	a001                	j	2b04 <TIM8_CC_IRQHandler>

00002b06 <RNG_IRQHandler>:
RNG_IRQHandler():
D:/projects/mechanical_arm/Firmware/CarMainControl/libraries/sdk/Startup/startup_ch32v30x.S:290
RNG_IRQHandler:  1:  j 1b
    2b06:	a001                	j	2b06 <RNG_IRQHandler>

00002b08 <FSMC_IRQHandler>:
FSMC_IRQHandler():
D:/projects/mechanical_arm/Firmware/CarMainControl/libraries/sdk/Startup/startup_ch32v30x.S:291
FSMC_IRQHandler:  1:  j 1b
    2b08:	a001                	j	2b08 <FSMC_IRQHandler>

00002b0a <SDIO_IRQHandler>:
SDIO_IRQHandler():
D:/projects/mechanical_arm/Firmware/CarMainControl/libraries/sdk/Startup/startup_ch32v30x.S:292
SDIO_IRQHandler:  1:  j 1b
    2b0a:	a001                	j	2b0a <SDIO_IRQHandler>
D:/projects/mechanical_arm/Firmware/CarMainControl/libraries/sdk/Startup/startup_ch32v30x.S:293
TIM5_IRQHandler:  1:  j 1b
    2b0c:	a001                	j	2b0c <SDIO_IRQHandler+0x2>

00002b0e <SPI3_IRQHandler>:
SPI3_IRQHandler():
D:/projects/mechanical_arm/Firmware/CarMainControl/libraries/sdk/Startup/startup_ch32v30x.S:294
SPI3_IRQHandler:  1:  j 1b
    2b0e:	a001                	j	2b0e <SPI3_IRQHandler>
D:/projects/mechanical_arm/Firmware/CarMainControl/libraries/sdk/Startup/startup_ch32v30x.S:295
UART4_IRQHandler:  1:  j 1b
    2b10:	a001                	j	2b10 <SPI3_IRQHandler+0x2>
D:/projects/mechanical_arm/Firmware/CarMainControl/libraries/sdk/Startup/startup_ch32v30x.S:296
UART5_IRQHandler:  1:  j 1b
    2b12:	a001                	j	2b12 <SPI3_IRQHandler+0x4>
D:/projects/mechanical_arm/Firmware/CarMainControl/libraries/sdk/Startup/startup_ch32v30x.S:297
TIM6_IRQHandler:  1:  j 1b
    2b14:	a001                	j	2b14 <SPI3_IRQHandler+0x6>
D:/projects/mechanical_arm/Firmware/CarMainControl/libraries/sdk/Startup/startup_ch32v30x.S:298
TIM7_IRQHandler:  1:  j 1b
    2b16:	a001                	j	2b16 <SPI3_IRQHandler+0x8>

00002b18 <DMA2_Channel1_IRQHandler>:
DMA2_Channel1_IRQHandler():
D:/projects/mechanical_arm/Firmware/CarMainControl/libraries/sdk/Startup/startup_ch32v30x.S:299
DMA2_Channel1_IRQHandler:  1:  j 1b
    2b18:	a001                	j	2b18 <DMA2_Channel1_IRQHandler>

00002b1a <DMA2_Channel2_IRQHandler>:
DMA2_Channel2_IRQHandler():
D:/projects/mechanical_arm/Firmware/CarMainControl/libraries/sdk/Startup/startup_ch32v30x.S:300
DMA2_Channel2_IRQHandler:  1:  j 1b
    2b1a:	a001                	j	2b1a <DMA2_Channel2_IRQHandler>

00002b1c <DMA2_Channel3_IRQHandler>:
DMA2_Channel3_IRQHandler():
D:/projects/mechanical_arm/Firmware/CarMainControl/libraries/sdk/Startup/startup_ch32v30x.S:301
DMA2_Channel3_IRQHandler:  1:  j 1b
    2b1c:	a001                	j	2b1c <DMA2_Channel3_IRQHandler>

00002b1e <DMA2_Channel4_IRQHandler>:
DMA2_Channel4_IRQHandler():
D:/projects/mechanical_arm/Firmware/CarMainControl/libraries/sdk/Startup/startup_ch32v30x.S:302
DMA2_Channel4_IRQHandler:  1:  j 1b
    2b1e:	a001                	j	2b1e <DMA2_Channel4_IRQHandler>

00002b20 <DMA2_Channel5_IRQHandler>:
DMA2_Channel5_IRQHandler():
D:/projects/mechanical_arm/Firmware/CarMainControl/libraries/sdk/Startup/startup_ch32v30x.S:303
DMA2_Channel5_IRQHandler:  1:  j 1b
    2b20:	a001                	j	2b20 <DMA2_Channel5_IRQHandler>

00002b22 <ETH_IRQHandler>:
ETH_IRQHandler():
D:/projects/mechanical_arm/Firmware/CarMainControl/libraries/sdk/Startup/startup_ch32v30x.S:304
ETH_IRQHandler:  1:  j 1b
    2b22:	a001                	j	2b22 <ETH_IRQHandler>

00002b24 <ETH_WKUP_IRQHandler>:
ETH_WKUP_IRQHandler():
D:/projects/mechanical_arm/Firmware/CarMainControl/libraries/sdk/Startup/startup_ch32v30x.S:305
ETH_WKUP_IRQHandler:  1:  j 1b
    2b24:	a001                	j	2b24 <ETH_WKUP_IRQHandler>

00002b26 <CAN2_TX_IRQHandler>:
CAN2_TX_IRQHandler():
D:/projects/mechanical_arm/Firmware/CarMainControl/libraries/sdk/Startup/startup_ch32v30x.S:306
CAN2_TX_IRQHandler:  1:  j 1b
    2b26:	a001                	j	2b26 <CAN2_TX_IRQHandler>

00002b28 <CAN2_RX0_IRQHandler>:
CAN2_RX0_IRQHandler():
D:/projects/mechanical_arm/Firmware/CarMainControl/libraries/sdk/Startup/startup_ch32v30x.S:307
CAN2_RX0_IRQHandler:  1:  j 1b
    2b28:	a001                	j	2b28 <CAN2_RX0_IRQHandler>

00002b2a <CAN2_RX1_IRQHandler>:
CAN2_RX1_IRQHandler():
D:/projects/mechanical_arm/Firmware/CarMainControl/libraries/sdk/Startup/startup_ch32v30x.S:308
CAN2_RX1_IRQHandler:  1:  j 1b
    2b2a:	a001                	j	2b2a <CAN2_RX1_IRQHandler>

00002b2c <CAN2_SCE_IRQHandler>:
CAN2_SCE_IRQHandler():
D:/projects/mechanical_arm/Firmware/CarMainControl/libraries/sdk/Startup/startup_ch32v30x.S:309
CAN2_SCE_IRQHandler:  1:  j 1b
    2b2c:	a001                	j	2b2c <CAN2_SCE_IRQHandler>
D:/projects/mechanical_arm/Firmware/CarMainControl/libraries/sdk/Startup/startup_ch32v30x.S:310
OTG_FS_IRQHandler:  1:  j 1b
    2b2e:	a001                	j	2b2e <CAN2_SCE_IRQHandler+0x2>

00002b30 <USBHSWakeup_IRQHandler>:
USBHSWakeup_IRQHandler():
D:/projects/mechanical_arm/Firmware/CarMainControl/libraries/sdk/Startup/startup_ch32v30x.S:311
USBHSWakeup_IRQHandler:  1:  j 1b
    2b30:	a001                	j	2b30 <USBHSWakeup_IRQHandler>

00002b32 <USBHS_IRQHandler>:
USBHS_IRQHandler():
D:/projects/mechanical_arm/Firmware/CarMainControl/libraries/sdk/Startup/startup_ch32v30x.S:312
USBHS_IRQHandler:  1:  j 1b
    2b32:	a001                	j	2b32 <USBHS_IRQHandler>
D:/projects/mechanical_arm/Firmware/CarMainControl/libraries/sdk/Startup/startup_ch32v30x.S:313
DVP_IRQHandler:  1:  j 1b
    2b34:	a001                	j	2b34 <USBHS_IRQHandler+0x2>
D:/projects/mechanical_arm/Firmware/CarMainControl/libraries/sdk/Startup/startup_ch32v30x.S:314
UART6_IRQHandler:  1:  j 1b
    2b36:	a001                	j	2b36 <USBHS_IRQHandler+0x4>
D:/projects/mechanical_arm/Firmware/CarMainControl/libraries/sdk/Startup/startup_ch32v30x.S:315
UART7_IRQHandler:  1:  j 1b
    2b38:	a001                	j	2b38 <USBHS_IRQHandler+0x6>
D:/projects/mechanical_arm/Firmware/CarMainControl/libraries/sdk/Startup/startup_ch32v30x.S:316
UART8_IRQHandler:  1:  j 1b
    2b3a:	a001                	j	2b3a <USBHS_IRQHandler+0x8>

00002b3c <TIM9_BRK_IRQHandler>:
TIM9_BRK_IRQHandler():
D:/projects/mechanical_arm/Firmware/CarMainControl/libraries/sdk/Startup/startup_ch32v30x.S:317
TIM9_BRK_IRQHandler:  1:  j 1b
    2b3c:	a001                	j	2b3c <TIM9_BRK_IRQHandler>
D:/projects/mechanical_arm/Firmware/CarMainControl/libraries/sdk/Startup/startup_ch32v30x.S:318
TIM9_UP_IRQHandler:  1:  j 1b
    2b3e:	a001                	j	2b3e <TIM9_BRK_IRQHandler+0x2>

00002b40 <TIM9_TRG_COM_IRQHandler>:
TIM9_TRG_COM_IRQHandler():
D:/projects/mechanical_arm/Firmware/CarMainControl/libraries/sdk/Startup/startup_ch32v30x.S:319
TIM9_TRG_COM_IRQHandler:  1:  j 1b
    2b40:	a001                	j	2b40 <TIM9_TRG_COM_IRQHandler>

00002b42 <TIM9_CC_IRQHandler>:
TIM9_CC_IRQHandler():
D:/projects/mechanical_arm/Firmware/CarMainControl/libraries/sdk/Startup/startup_ch32v30x.S:320
TIM9_CC_IRQHandler:  1:  j 1b
    2b42:	a001                	j	2b42 <TIM9_CC_IRQHandler>

00002b44 <TIM10_BRK_IRQHandler>:
TIM10_BRK_IRQHandler():
D:/projects/mechanical_arm/Firmware/CarMainControl/libraries/sdk/Startup/startup_ch32v30x.S:321
TIM10_BRK_IRQHandler:  1:  j 1b
    2b44:	a001                	j	2b44 <TIM10_BRK_IRQHandler>
D:/projects/mechanical_arm/Firmware/CarMainControl/libraries/sdk/Startup/startup_ch32v30x.S:322
TIM10_UP_IRQHandler:  1:  j 1b
    2b46:	a001                	j	2b46 <TIM10_BRK_IRQHandler+0x2>

00002b48 <TIM10_TRG_COM_IRQHandler>:
TIM10_TRG_COM_IRQHandler():
D:/projects/mechanical_arm/Firmware/CarMainControl/libraries/sdk/Startup/startup_ch32v30x.S:323
TIM10_TRG_COM_IRQHandler:  1:  j 1b
    2b48:	a001                	j	2b48 <TIM10_TRG_COM_IRQHandler>

00002b4a <TIM10_CC_IRQHandler>:
TIM10_CC_IRQHandler():
D:/projects/mechanical_arm/Firmware/CarMainControl/libraries/sdk/Startup/startup_ch32v30x.S:324
TIM10_CC_IRQHandler:  1:  j 1b
    2b4a:	a001                	j	2b4a <TIM10_CC_IRQHandler>

00002b4c <DMA2_Channel6_IRQHandler>:
DMA2_Channel6_IRQHandler():
D:/projects/mechanical_arm/Firmware/CarMainControl/libraries/sdk/Startup/startup_ch32v30x.S:325
DMA2_Channel6_IRQHandler:  1:  j 1b
    2b4c:	a001                	j	2b4c <DMA2_Channel6_IRQHandler>

00002b4e <DMA2_Channel7_IRQHandler>:
DMA2_Channel7_IRQHandler():
D:/projects/mechanical_arm/Firmware/CarMainControl/libraries/sdk/Startup/startup_ch32v30x.S:326
DMA2_Channel7_IRQHandler:  1:  j 1b
    2b4e:	a001                	j	2b4e <DMA2_Channel7_IRQHandler>

00002b50 <DMA2_Channel8_IRQHandler>:
DMA2_Channel8_IRQHandler():
D:/projects/mechanical_arm/Firmware/CarMainControl/libraries/sdk/Startup/startup_ch32v30x.S:327
DMA2_Channel8_IRQHandler:  1:  j 1b
    2b50:	a001                	j	2b50 <DMA2_Channel8_IRQHandler>

00002b52 <DMA2_Channel9_IRQHandler>:
DMA2_Channel9_IRQHandler():
D:/projects/mechanical_arm/Firmware/CarMainControl/libraries/sdk/Startup/startup_ch32v30x.S:328
DMA2_Channel9_IRQHandler:  1:  j 1b
    2b52:	a001                	j	2b52 <DMA2_Channel9_IRQHandler>

00002b54 <DMA2_Channel10_IRQHandler>:
DMA2_Channel10_IRQHandler():
D:/projects/mechanical_arm/Firmware/CarMainControl/libraries/sdk/Startup/startup_ch32v30x.S:329
DMA2_Channel10_IRQHandler:  1:  j 1b
    2b54:	a001                	j	2b54 <DMA2_Channel10_IRQHandler>

00002b56 <DMA2_Channel11_IRQHandler>:
DMA2_Channel11_IRQHandler():
D:/projects/mechanical_arm/Firmware/CarMainControl/libraries/sdk/Startup/startup_ch32v30x.S:330
DMA2_Channel11_IRQHandler:  1:  j 1b
    2b56:	a001                	j	2b56 <DMA2_Channel11_IRQHandler>

00002b58 <handle_reset>:
handle_reset():
D:/projects/mechanical_arm/Firmware/CarMainControl/libraries/sdk/Startup/startup_ch32v30x.S:340
	.align	1
handle_reset:
.option push 
.option	norelax 

    csrw mepc, t0
    2b58:	34129073          	csrw	mepc,t0
D:/projects/mechanical_arm/Firmware/CarMainControl/libraries/sdk/Startup/startup_ch32v30x.S:341
	la gp, __global_pointer$
    2b5c:	1fffe197          	auipc	gp,0x1fffe
    2b60:	ec418193          	addi	gp,gp,-316 # 20000a20 <__global_pointer$>
D:/projects/mechanical_arm/Firmware/CarMainControl/libraries/sdk/Startup/startup_ch32v30x.S:344
.option	pop 
1:
	la sp, _eusrstack 
    2b64:	2000d117          	auipc	sp,0x2000d
    2b68:	49c10113          	addi	sp,sp,1180 # 20010000 <_eusrstack>
D:/projects/mechanical_arm/Firmware/CarMainControl/libraries/sdk/Startup/startup_ch32v30x.S:347
2:
	/* Load data section from flash to RAM */
	la a0, _data_lma
    2b6c:	00008517          	auipc	a0,0x8
    2b70:	96850513          	addi	a0,a0,-1688 # a4d4 <_data_lma>
D:/projects/mechanical_arm/Firmware/CarMainControl/libraries/sdk/Startup/startup_ch32v30x.S:348
	la a1, _data_vma
    2b74:	1fffd597          	auipc	a1,0x1fffd
    2b78:	48c58593          	addi	a1,a1,1164 # 20000000 <_data_vma>
D:/projects/mechanical_arm/Firmware/CarMainControl/libraries/sdk/Startup/startup_ch32v30x.S:349
	la a2, _edata
    2b7c:	83018613          	addi	a2,gp,-2000 # 20000250 <_edata>
D:/projects/mechanical_arm/Firmware/CarMainControl/libraries/sdk/Startup/startup_ch32v30x.S:350
	bgeu a1, a2, 2f
    2b80:	00c5fa63          	bgeu	a1,a2,2b94 <handle_reset+0x3c>
D:/projects/mechanical_arm/Firmware/CarMainControl/libraries/sdk/Startup/startup_ch32v30x.S:352
1:
	lw t0, (a0)
    2b84:	00052283          	lw	t0,0(a0)
D:/projects/mechanical_arm/Firmware/CarMainControl/libraries/sdk/Startup/startup_ch32v30x.S:353
	sw t0, (a1)
    2b88:	0055a023          	sw	t0,0(a1)
D:/projects/mechanical_arm/Firmware/CarMainControl/libraries/sdk/Startup/startup_ch32v30x.S:354
	addi a0, a0, 4
    2b8c:	0511                	addi	a0,a0,4
D:/projects/mechanical_arm/Firmware/CarMainControl/libraries/sdk/Startup/startup_ch32v30x.S:355
	addi a1, a1, 4
    2b8e:	0591                	addi	a1,a1,4
D:/projects/mechanical_arm/Firmware/CarMainControl/libraries/sdk/Startup/startup_ch32v30x.S:356
	bltu a1, a2, 1b
    2b90:	fec5eae3          	bltu	a1,a2,2b84 <handle_reset+0x2c>
D:/projects/mechanical_arm/Firmware/CarMainControl/libraries/sdk/Startup/startup_ch32v30x.S:359
2:
	/* Clear bss section */
	la a0, _sbss
    2b94:	83018513          	addi	a0,gp,-2000 # 20000250 <_edata>
D:/projects/mechanical_arm/Firmware/CarMainControl/libraries/sdk/Startup/startup_ch32v30x.S:360
	la a1, _ebss
    2b98:	8e418593          	addi	a1,gp,-1820 # 20000304 <_ebss>
D:/projects/mechanical_arm/Firmware/CarMainControl/libraries/sdk/Startup/startup_ch32v30x.S:361
	bgeu a0, a1, 2f
    2b9c:	00b57763          	bgeu	a0,a1,2baa <handle_reset+0x52>
D:/projects/mechanical_arm/Firmware/CarMainControl/libraries/sdk/Startup/startup_ch32v30x.S:363
1:
	sw zero, (a0)
    2ba0:	00052023          	sw	zero,0(a0)
D:/projects/mechanical_arm/Firmware/CarMainControl/libraries/sdk/Startup/startup_ch32v30x.S:364
	addi a0, a0, 4
    2ba4:	0511                	addi	a0,a0,4
D:/projects/mechanical_arm/Firmware/CarMainControl/libraries/sdk/Startup/startup_ch32v30x.S:365
	bltu a0, a1, 1b
    2ba6:	feb56de3          	bltu	a0,a1,2ba0 <handle_reset+0x48>
D:/projects/mechanical_arm/Firmware/CarMainControl/libraries/sdk/Startup/startup_ch32v30x.S:367
2:
    li t0, 0x1f
    2baa:	42fd                	li	t0,31
D:/projects/mechanical_arm/Firmware/CarMainControl/libraries/sdk/Startup/startup_ch32v30x.S:368
    csrw 0xbc0, t0
    2bac:	bc029073          	csrw	0xbc0,t0
D:/projects/mechanical_arm/Firmware/CarMainControl/libraries/sdk/Startup/startup_ch32v30x.S:371

    /* Enable nested and hardware stack */
	li t0, 0x1f
    2bb0:	42fd                	li	t0,31
D:/projects/mechanical_arm/Firmware/CarMainControl/libraries/sdk/Startup/startup_ch32v30x.S:372
	csrw 0x804, t0
    2bb2:	80429073          	csrw	0x804,t0
D:/projects/mechanical_arm/Firmware/CarMainControl/libraries/sdk/Startup/startup_ch32v30x.S:376

    /* Enable floating point and interrupt */

   	li t0, 0x7888
    2bb6:	000082b7          	lui	t0,0x8
    2bba:	88828293          	addi	t0,t0,-1912 # 7888 <_dtoa_r+0x42a>
D:/projects/mechanical_arm/Firmware/CarMainControl/libraries/sdk/Startup/startup_ch32v30x.S:377
   	csrs mstatus, t0
    2bbe:	3002a073          	csrs	mstatus,t0
D:/projects/mechanical_arm/Firmware/CarMainControl/libraries/sdk/Startup/startup_ch32v30x.S:379

 	la t0, _vector_base
    2bc2:	ffffd297          	auipc	t0,0xffffd
    2bc6:	47628293          	addi	t0,t0,1142 # 38 <_einit>
D:/projects/mechanical_arm/Firmware/CarMainControl/libraries/sdk/Startup/startup_ch32v30x.S:380
    ori t0, t0, 3           
    2bca:	0032e293          	ori	t0,t0,3
D:/projects/mechanical_arm/Firmware/CarMainControl/libraries/sdk/Startup/startup_ch32v30x.S:381
	csrw mtvec, t0
    2bce:	30529073          	csrw	mtvec,t0
D:/projects/mechanical_arm/Firmware/CarMainControl/libraries/sdk/Startup/startup_ch32v30x.S:383

    jal  SystemInit
    2bd2:	014000ef          	jal	ra,2be6 <SystemInit>
D:/projects/mechanical_arm/Firmware/CarMainControl/libraries/sdk/Startup/startup_ch32v30x.S:384
	la t0, main
    2bd6:	00000297          	auipc	t0,0x0
    2bda:	e6628293          	addi	t0,t0,-410 # 2a3c <main>
D:/projects/mechanical_arm/Firmware/CarMainControl/libraries/sdk/Startup/startup_ch32v30x.S:385
	csrw mepc, t0
    2bde:	34129073          	csrw	mepc,t0
D:/projects/mechanical_arm/Firmware/CarMainControl/libraries/sdk/Startup/startup_ch32v30x.S:386
	mret
    2be2:	30200073          	mret

00002be6 <SystemInit>:
SystemInit():
D:/projects/mechanical_arm/Firmware/CarMainControl/libraries/sdk/Startup/system_ch32v30x.c:83
*                  the PLL and update the SystemCoreClock variable.
* Input          : None
* Return         : None
*******************************************************************************************/
void SystemInit (void)
{
    2be6:	1141                	addi	sp,sp,-16
    2be8:	c606                	sw	ra,12(sp)
    2bea:	c422                	sw	s0,8(sp)
    2bec:	0800                	addi	s0,sp,16
D:/projects/mechanical_arm/Firmware/CarMainControl/libraries/sdk/Startup/system_ch32v30x.c:84
  RCC->CTLR |= (uint32_t)0x00000001;
    2bee:	400217b7          	lui	a5,0x40021
    2bf2:	4398                	lw	a4,0(a5)
    2bf4:	400217b7          	lui	a5,0x40021
    2bf8:	00176713          	ori	a4,a4,1
    2bfc:	c398                	sw	a4,0(a5)
D:/projects/mechanical_arm/Firmware/CarMainControl/libraries/sdk/Startup/system_ch32v30x.c:85
  RCC->CFGR0 &= (uint32_t)0xF8FF0000;
    2bfe:	400217b7          	lui	a5,0x40021
    2c02:	43d4                	lw	a3,4(a5)
    2c04:	400217b7          	lui	a5,0x40021
    2c08:	f8ff0737          	lui	a4,0xf8ff0
    2c0c:	8f75                	and	a4,a4,a3
    2c0e:	c3d8                	sw	a4,4(a5)
D:/projects/mechanical_arm/Firmware/CarMainControl/libraries/sdk/Startup/system_ch32v30x.c:86
  RCC->CTLR &= (uint32_t)0xFEF6FFFF;
    2c10:	400217b7          	lui	a5,0x40021
    2c14:	4394                	lw	a3,0(a5)
    2c16:	400217b7          	lui	a5,0x40021
    2c1a:	fef70737          	lui	a4,0xfef70
    2c1e:	177d                	addi	a4,a4,-1
    2c20:	8f75                	and	a4,a4,a3
    2c22:	c398                	sw	a4,0(a5)
D:/projects/mechanical_arm/Firmware/CarMainControl/libraries/sdk/Startup/system_ch32v30x.c:87
  RCC->CTLR &= (uint32_t)0xFFFBFFFF;
    2c24:	400217b7          	lui	a5,0x40021
    2c28:	4394                	lw	a3,0(a5)
    2c2a:	400217b7          	lui	a5,0x40021
    2c2e:	fffc0737          	lui	a4,0xfffc0
    2c32:	177d                	addi	a4,a4,-1
    2c34:	8f75                	and	a4,a4,a3
    2c36:	c398                	sw	a4,0(a5)
D:/projects/mechanical_arm/Firmware/CarMainControl/libraries/sdk/Startup/system_ch32v30x.c:88
  RCC->CFGR0 &= (uint32_t)0xFF80FFFF;
    2c38:	400217b7          	lui	a5,0x40021
    2c3c:	43d4                	lw	a3,4(a5)
    2c3e:	400217b7          	lui	a5,0x40021
    2c42:	ff810737          	lui	a4,0xff810
    2c46:	177d                	addi	a4,a4,-1
    2c48:	8f75                	and	a4,a4,a3
    2c4a:	c3d8                	sw	a4,4(a5)
D:/projects/mechanical_arm/Firmware/CarMainControl/libraries/sdk/Startup/system_ch32v30x.c:89
  RCC->INTR = 0x009F0000;    
    2c4c:	400217b7          	lui	a5,0x40021
    2c50:	009f0737          	lui	a4,0x9f0
    2c54:	c798                	sw	a4,8(a5)
D:/projects/mechanical_arm/Firmware/CarMainControl/libraries/sdk/Startup/system_ch32v30x.c:90
  SetSysClock();
    2c56:	2031                	jal	2c62 <SetSysClock>
D:/projects/mechanical_arm/Firmware/CarMainControl/libraries/sdk/Startup/system_ch32v30x.c:91
}
    2c58:	0001                	nop
    2c5a:	40b2                	lw	ra,12(sp)
    2c5c:	4422                	lw	s0,8(sp)
    2c5e:	0141                	addi	sp,sp,16
    2c60:	8082                	ret

00002c62 <SetSysClock>:
SetSysClock():
D:/projects/mechanical_arm/Firmware/CarMainControl/libraries/sdk/Startup/system_ch32v30x.c:168
* Description    : Configures the System clock frequency, HCLK, PCLK2 and PCLK1 prescalers. 
* Input          : None
* Return         : None
*******************************************************************************************/
static void SetSysClock(void)
{
    2c62:	1141                	addi	sp,sp,-16
    2c64:	c606                	sw	ra,12(sp)
    2c66:	c422                	sw	s0,8(sp)
    2c68:	0800                	addi	s0,sp,16
D:/projects/mechanical_arm/Firmware/CarMainControl/libraries/sdk/Startup/system_ch32v30x.c:185
#elif defined SYSCLK_FREQ_96MHz
  SetSysClockTo96();
#elif defined SYSCLK_FREQ_120MHz
  SetSysClockTo120();
#elif defined SYSCLK_FREQ_144MHz
  SetSysClockTo144();
    2c6a:	2031                	jal	2c76 <SetSysClockTo144>
D:/projects/mechanical_arm/Firmware/CarMainControl/libraries/sdk/Startup/system_ch32v30x.c:193
#endif
 
 /* If none of the define above is enabled, the HSI is used as System clock
  * source (default after reset) 
	*/ 
}
    2c6c:	0001                	nop
    2c6e:	40b2                	lw	ra,12(sp)
    2c70:	4422                	lw	s0,8(sp)
    2c72:	0141                	addi	sp,sp,16
    2c74:	8082                	ret

00002c76 <SetSysClockTo144>:
SetSysClockTo144():
D:/projects/mechanical_arm/Firmware/CarMainControl/libraries/sdk/Startup/system_ch32v30x.c:745
* Description    : Sets System clock frequency to 144MHz and configure HCLK, PCLK2 and PCLK1 prescalers.
* Input          : None
* Return         : None
*******************************************************************************************/
static void SetSysClockTo144(void)
{
    2c76:	1101                	addi	sp,sp,-32
    2c78:	ce22                	sw	s0,28(sp)
    2c7a:	1000                	addi	s0,sp,32
D:/projects/mechanical_arm/Firmware/CarMainControl/libraries/sdk/Startup/system_ch32v30x.c:746
  __IO uint32_t StartUpCounter = 0, HSEStatus = 0;
    2c7c:	fe042623          	sw	zero,-20(s0)
    2c80:	fe042423          	sw	zero,-24(s0)
D:/projects/mechanical_arm/Firmware/CarMainControl/libraries/sdk/Startup/system_ch32v30x.c:748

  RCC->CTLR |= ((uint32_t)RCC_HSEON);
    2c84:	400217b7          	lui	a5,0x40021
    2c88:	4394                	lw	a3,0(a5)
    2c8a:	400217b7          	lui	a5,0x40021
    2c8e:	6741                	lui	a4,0x10
    2c90:	8f55                	or	a4,a4,a3
    2c92:	c398                	sw	a4,0(a5)
D:/projects/mechanical_arm/Firmware/CarMainControl/libraries/sdk/Startup/system_ch32v30x.c:753 (discriminator 2)

  /* Wait till HSE is ready and if Time out is reached exit */
  do
  {
    HSEStatus = RCC->CTLR & RCC_HSERDY;
    2c94:	400217b7          	lui	a5,0x40021
    2c98:	4398                	lw	a4,0(a5)
    2c9a:	000207b7          	lui	a5,0x20
    2c9e:	8ff9                	and	a5,a5,a4
    2ca0:	fef42423          	sw	a5,-24(s0)
D:/projects/mechanical_arm/Firmware/CarMainControl/libraries/sdk/Startup/system_ch32v30x.c:754 (discriminator 2)
    StartUpCounter++;
    2ca4:	fec42783          	lw	a5,-20(s0)
    2ca8:	0785                	addi	a5,a5,1
    2caa:	fef42623          	sw	a5,-20(s0)
D:/projects/mechanical_arm/Firmware/CarMainControl/libraries/sdk/Startup/system_ch32v30x.c:755 (discriminator 2)
  } while((HSEStatus == 0) && (StartUpCounter != HSE_STARTUP_TIMEOUT));
    2cae:	fe842783          	lw	a5,-24(s0)
    2cb2:	e799                	bnez	a5,2cc0 <SetSysClockTo144+0x4a>
D:/projects/mechanical_arm/Firmware/CarMainControl/libraries/sdk/Startup/system_ch32v30x.c:755 (discriminator 1)
    2cb4:	fec42703          	lw	a4,-20(s0)
    2cb8:	50000793          	li	a5,1280
    2cbc:	fcf71ce3          	bne	a4,a5,2c94 <SetSysClockTo144+0x1e>
D:/projects/mechanical_arm/Firmware/CarMainControl/libraries/sdk/Startup/system_ch32v30x.c:757

  if ((RCC->CTLR & RCC_HSERDY) != RESET)
    2cc0:	400217b7          	lui	a5,0x40021
    2cc4:	4398                	lw	a4,0(a5)
    2cc6:	000207b7          	lui	a5,0x20
    2cca:	8ff9                	and	a5,a5,a4
    2ccc:	c789                	beqz	a5,2cd6 <SetSysClockTo144+0x60>
D:/projects/mechanical_arm/Firmware/CarMainControl/libraries/sdk/Startup/system_ch32v30x.c:759
  {
    HSEStatus = (uint32_t)0x01;
    2cce:	4785                	li	a5,1
    2cd0:	fef42423          	sw	a5,-24(s0)
    2cd4:	a019                	j	2cda <SetSysClockTo144+0x64>
D:/projects/mechanical_arm/Firmware/CarMainControl/libraries/sdk/Startup/system_ch32v30x.c:763
  }
  else
  {
    HSEStatus = (uint32_t)0x00;
    2cd6:	fe042423          	sw	zero,-24(s0)
D:/projects/mechanical_arm/Firmware/CarMainControl/libraries/sdk/Startup/system_ch32v30x.c:766
  }

  if (HSEStatus == (uint32_t)0x01)
    2cda:	fe842703          	lw	a4,-24(s0)
    2cde:	4785                	li	a5,1
    2ce0:	0ef71863          	bne	a4,a5,2dd0 <SetSysClockTo144+0x15a>
D:/projects/mechanical_arm/Firmware/CarMainControl/libraries/sdk/Startup/system_ch32v30x.c:769
  {
    /* Enable Prefetch Buffer */
    FLASH->ACTLR |= FLASH_ACTLR_PRFTBE;
    2ce4:	400227b7          	lui	a5,0x40022
    2ce8:	4398                	lw	a4,0(a5)
    2cea:	400227b7          	lui	a5,0x40022
    2cee:	01076713          	ori	a4,a4,16
    2cf2:	c398                	sw	a4,0(a5)
D:/projects/mechanical_arm/Firmware/CarMainControl/libraries/sdk/Startup/system_ch32v30x.c:772

    /* Flash 2 wait state */
    FLASH->ACTLR &= (uint32_t)((uint32_t)~FLASH_ACTLR_LATENCY);
    2cf4:	400227b7          	lui	a5,0x40022
    2cf8:	4398                	lw	a4,0(a5)
    2cfa:	400227b7          	lui	a5,0x40022
    2cfe:	9b71                	andi	a4,a4,-4
    2d00:	c398                	sw	a4,0(a5)
D:/projects/mechanical_arm/Firmware/CarMainControl/libraries/sdk/Startup/system_ch32v30x.c:773
    FLASH->ACTLR |= (uint32_t)FLASH_ACTLR_LATENCY_2;
    2d02:	400227b7          	lui	a5,0x40022
    2d06:	4398                	lw	a4,0(a5)
    2d08:	400227b7          	lui	a5,0x40022
    2d0c:	00276713          	ori	a4,a4,2
    2d10:	c398                	sw	a4,0(a5)
D:/projects/mechanical_arm/Firmware/CarMainControl/libraries/sdk/Startup/system_ch32v30x.c:776

    /* HCLK = SYSCLK */
    RCC->CFGR0 |= (uint32_t)RCC_HPRE_DIV1;
    2d12:	40021737          	lui	a4,0x40021
    2d16:	400217b7          	lui	a5,0x40021
    2d1a:	4358                	lw	a4,4(a4)
    2d1c:	c3d8                	sw	a4,4(a5)
D:/projects/mechanical_arm/Firmware/CarMainControl/libraries/sdk/Startup/system_ch32v30x.c:778
    /* PCLK2 = HCLK */
    RCC->CFGR0 |= (uint32_t)RCC_PPRE2_DIV1;
    2d1e:	40021737          	lui	a4,0x40021
    2d22:	400217b7          	lui	a5,0x40021
    2d26:	4358                	lw	a4,4(a4)
    2d28:	c3d8                	sw	a4,4(a5)
D:/projects/mechanical_arm/Firmware/CarMainControl/libraries/sdk/Startup/system_ch32v30x.c:780
    /* PCLK1 = HCLK */
    RCC->CFGR0 |= (uint32_t)RCC_PPRE1_DIV1;
    2d2a:	40021737          	lui	a4,0x40021
    2d2e:	400217b7          	lui	a5,0x40021
    2d32:	4358                	lw	a4,4(a4)
    2d34:	c3d8                	sw	a4,4(a5)
D:/projects/mechanical_arm/Firmware/CarMainControl/libraries/sdk/Startup/system_ch32v30x.c:783

    /*  PLL configuration: PLLCLK = HSE * 18 = 144 MHz */
    RCC->CFGR0 &= (uint32_t)((uint32_t)~(RCC_PLLSRC | RCC_PLLXTPRE |
    2d36:	400217b7          	lui	a5,0x40021
    2d3a:	43d4                	lw	a3,4(a5)
    2d3c:	400217b7          	lui	a5,0x40021
    2d40:	ffc10737          	lui	a4,0xffc10
    2d44:	177d                	addi	a4,a4,-1
    2d46:	8f75                	and	a4,a4,a3
    2d48:	c3d8                	sw	a4,4(a5)
D:/projects/mechanical_arm/Firmware/CarMainControl/libraries/sdk/Startup/system_ch32v30x.c:786
                                        RCC_PLLMULL));

    if(((*(uint32_t*)0x1FFFF70C) & (1<<14)) != (1<<14)){
    2d4a:	1ffff7b7          	lui	a5,0x1ffff
    2d4e:	70c78793          	addi	a5,a5,1804 # 1ffff70c <_data_lma+0x1fff5238>
    2d52:	4398                	lw	a4,0(a5)
    2d54:	6791                	lui	a5,0x4
    2d56:	8ff9                	and	a5,a5,a4
    2d58:	eb99                	bnez	a5,2d6e <SetSysClockTo144+0xf8>
D:/projects/mechanical_arm/Firmware/CarMainControl/libraries/sdk/Startup/system_ch32v30x.c:787
        RCC->CFGR0 |= (uint32_t)(RCC_PLLSRC_HSE | RCC_PLLXTPRE_HSE | RCC_PLLMULL18);
    2d5a:	400217b7          	lui	a5,0x40021
    2d5e:	43d4                	lw	a3,4(a5)
    2d60:	400217b7          	lui	a5,0x40021
    2d64:	003d0737          	lui	a4,0x3d0
    2d68:	8f55                	or	a4,a4,a3
    2d6a:	c3d8                	sw	a4,4(a5)
    2d6c:	a809                	j	2d7e <SetSysClockTo144+0x108>
D:/projects/mechanical_arm/Firmware/CarMainControl/libraries/sdk/Startup/system_ch32v30x.c:790
    }
    else{
        RCC->CFGR0 |= (uint32_t)(RCC_PLLSRC_HSE | RCC_PLLXTPRE_HSE | RCC_PLLMULL18_EXTEN);
    2d6e:	400217b7          	lui	a5,0x40021
    2d72:	43d4                	lw	a3,4(a5)
    2d74:	400217b7          	lui	a5,0x40021
    2d78:	6741                	lui	a4,0x10
    2d7a:	8f55                	or	a4,a4,a3
    2d7c:	c3d8                	sw	a4,4(a5)
D:/projects/mechanical_arm/Firmware/CarMainControl/libraries/sdk/Startup/system_ch32v30x.c:794
    }

    /* Enable PLL */
    RCC->CTLR |= RCC_PLLON;
    2d7e:	400217b7          	lui	a5,0x40021
    2d82:	4394                	lw	a3,0(a5)
    2d84:	400217b7          	lui	a5,0x40021
    2d88:	01000737          	lui	a4,0x1000
    2d8c:	8f55                	or	a4,a4,a3
    2d8e:	c398                	sw	a4,0(a5)
D:/projects/mechanical_arm/Firmware/CarMainControl/libraries/sdk/Startup/system_ch32v30x.c:796
    /* Wait till PLL is ready */
    while((RCC->CTLR & RCC_PLLRDY) == 0)
    2d90:	0001                	nop
D:/projects/mechanical_arm/Firmware/CarMainControl/libraries/sdk/Startup/system_ch32v30x.c:796 (discriminator 1)
    2d92:	400217b7          	lui	a5,0x40021
    2d96:	4398                	lw	a4,0(a5)
    2d98:	020007b7          	lui	a5,0x2000
    2d9c:	8ff9                	and	a5,a5,a4
    2d9e:	dbf5                	beqz	a5,2d92 <SetSysClockTo144+0x11c>
D:/projects/mechanical_arm/Firmware/CarMainControl/libraries/sdk/Startup/system_ch32v30x.c:800
    {
    }
    /* Select PLL as system clock source */
    RCC->CFGR0 &= (uint32_t)((uint32_t)~(RCC_SW));
    2da0:	400217b7          	lui	a5,0x40021
    2da4:	43d8                	lw	a4,4(a5)
    2da6:	400217b7          	lui	a5,0x40021
    2daa:	9b71                	andi	a4,a4,-4
    2dac:	c3d8                	sw	a4,4(a5)
D:/projects/mechanical_arm/Firmware/CarMainControl/libraries/sdk/Startup/system_ch32v30x.c:801
    RCC->CFGR0 |= (uint32_t)RCC_SW_PLL;
    2dae:	400217b7          	lui	a5,0x40021
    2db2:	43d8                	lw	a4,4(a5)
    2db4:	400217b7          	lui	a5,0x40021
    2db8:	00276713          	ori	a4,a4,2
    2dbc:	c3d8                	sw	a4,4(a5)
D:/projects/mechanical_arm/Firmware/CarMainControl/libraries/sdk/Startup/system_ch32v30x.c:803
    /* Wait till PLL is used as system clock source */
    while ((RCC->CFGR0 & (uint32_t)RCC_SWS) != (uint32_t)0x08)
    2dbe:	0001                	nop
D:/projects/mechanical_arm/Firmware/CarMainControl/libraries/sdk/Startup/system_ch32v30x.c:803 (discriminator 1)
    2dc0:	400217b7          	lui	a5,0x40021
    2dc4:	43dc                	lw	a5,4(a5)
    2dc6:	00c7f713          	andi	a4,a5,12
    2dca:	47a1                	li	a5,8
    2dcc:	fef71ae3          	bne	a4,a5,2dc0 <SetSysClockTo144+0x14a>
D:/projects/mechanical_arm/Firmware/CarMainControl/libraries/sdk/Startup/system_ch32v30x.c:814
        /*
         * If HSE fails to start-up, the application will have wrong clock
     * configuration. User can add here some code to deal with this error
         */
  }
}
    2dd0:	0001                	nop
    2dd2:	4472                	lw	s0,28(sp)
    2dd4:	6105                	addi	sp,sp,32
    2dd6:	8082                	ret

00002dd8 <EXTI_GetITStatus>:
EXTI_GetITStatus():
D:/projects/mechanical_arm/Firmware/CarMainControl/libraries/sdk/Peripheral/ch32v30x_exti.c:131
* Description    : Checks whether the specified EXTI line is asserted or not.
* Input          : EXTI_Line: specifies the EXTI lines to be enabled or disabled.
* Return         : The new state of EXTI_Line (SET or RESET).
*********************************************************************************/	
ITStatus EXTI_GetITStatus(uint32_t EXTI_Line)
{
    2dd8:	7179                	addi	sp,sp,-48
    2dda:	d622                	sw	s0,44(sp)
    2ddc:	1800                	addi	s0,sp,48
    2dde:	fca42e23          	sw	a0,-36(s0)
D:/projects/mechanical_arm/Firmware/CarMainControl/libraries/sdk/Peripheral/ch32v30x_exti.c:132
  ITStatus bitstatus = RESET;
    2de2:	fe042623          	sw	zero,-20(s0)
D:/projects/mechanical_arm/Firmware/CarMainControl/libraries/sdk/Peripheral/ch32v30x_exti.c:133
  uint32_t enablestatus = 0;
    2de6:	fe042423          	sw	zero,-24(s0)
D:/projects/mechanical_arm/Firmware/CarMainControl/libraries/sdk/Peripheral/ch32v30x_exti.c:135
  
  enablestatus =  EXTI->INTENR & EXTI_Line;
    2dea:	400107b7          	lui	a5,0x40010
    2dee:	40078793          	addi	a5,a5,1024 # 40010400 <_eusrstack+0x20000400>
    2df2:	439c                	lw	a5,0(a5)
    2df4:	fdc42703          	lw	a4,-36(s0)
    2df8:	8ff9                	and	a5,a5,a4
    2dfa:	fef42423          	sw	a5,-24(s0)
D:/projects/mechanical_arm/Firmware/CarMainControl/libraries/sdk/Peripheral/ch32v30x_exti.c:136
  if (((EXTI->INTFR & EXTI_Line) != (uint32_t)RESET) && (enablestatus != (uint32_t)RESET))
    2dfe:	400107b7          	lui	a5,0x40010
    2e02:	40078793          	addi	a5,a5,1024 # 40010400 <_eusrstack+0x20000400>
    2e06:	4bd8                	lw	a4,20(a5)
    2e08:	fdc42783          	lw	a5,-36(s0)
    2e0c:	8ff9                	and	a5,a5,a4
    2e0e:	cb81                	beqz	a5,2e1e <EXTI_GetITStatus+0x46>
D:/projects/mechanical_arm/Firmware/CarMainControl/libraries/sdk/Peripheral/ch32v30x_exti.c:136 (discriminator 1)
    2e10:	fe842783          	lw	a5,-24(s0)
    2e14:	c789                	beqz	a5,2e1e <EXTI_GetITStatus+0x46>
D:/projects/mechanical_arm/Firmware/CarMainControl/libraries/sdk/Peripheral/ch32v30x_exti.c:138
  {
    bitstatus = SET;
    2e16:	4785                	li	a5,1
    2e18:	fef42623          	sw	a5,-20(s0)
    2e1c:	a019                	j	2e22 <EXTI_GetITStatus+0x4a>
D:/projects/mechanical_arm/Firmware/CarMainControl/libraries/sdk/Peripheral/ch32v30x_exti.c:142
  }
  else
  {
    bitstatus = RESET;
    2e1e:	fe042623          	sw	zero,-20(s0)
D:/projects/mechanical_arm/Firmware/CarMainControl/libraries/sdk/Peripheral/ch32v30x_exti.c:144
  }
  return bitstatus;
    2e22:	fec42783          	lw	a5,-20(s0)
D:/projects/mechanical_arm/Firmware/CarMainControl/libraries/sdk/Peripheral/ch32v30x_exti.c:145
}
    2e26:	853e                	mv	a0,a5
    2e28:	5432                	lw	s0,44(sp)
    2e2a:	6145                	addi	sp,sp,48
    2e2c:	8082                	ret

00002e2e <EXTI_ClearITPendingBit>:
EXTI_ClearITPendingBit():
D:/projects/mechanical_arm/Firmware/CarMainControl/libraries/sdk/Peripheral/ch32v30x_exti.c:154
* Description    : Clears the EXTI's line pending bits.
* Input          : EXTI_Line: specifies the EXTI lines to be enabled or disabled.
* Return         : None
*********************************************************************************/
void EXTI_ClearITPendingBit(uint32_t EXTI_Line)
{  
    2e2e:	1101                	addi	sp,sp,-32
    2e30:	ce22                	sw	s0,28(sp)
    2e32:	1000                	addi	s0,sp,32
    2e34:	fea42623          	sw	a0,-20(s0)
D:/projects/mechanical_arm/Firmware/CarMainControl/libraries/sdk/Peripheral/ch32v30x_exti.c:155
  EXTI->INTFR = EXTI_Line;
    2e38:	400107b7          	lui	a5,0x40010
    2e3c:	40078793          	addi	a5,a5,1024 # 40010400 <_eusrstack+0x20000400>
    2e40:	fec42703          	lw	a4,-20(s0)
    2e44:	cbd8                	sw	a4,20(a5)
D:/projects/mechanical_arm/Firmware/CarMainControl/libraries/sdk/Peripheral/ch32v30x_exti.c:156
}
    2e46:	0001                	nop
    2e48:	4472                	lw	s0,28(sp)
    2e4a:	6105                	addi	sp,sp,32
    2e4c:	8082                	ret

00002e4e <GPIO_Init>:
GPIO_Init():
D:/projects/mechanical_arm/Firmware/CarMainControl/libraries/sdk/Peripheral/ch32v30x_gpio.c:88
* Input          : GPIO_InitStruct: pointer to a GPIO_InitTypeDef structure that
*      contains the configuration information for the specified GPIO peripheral.
* Return         : None
*******************************************************************************/
void GPIO_Init(GPIO_TypeDef* GPIOx, GPIO_InitTypeDef* GPIO_InitStruct)
{
    2e4e:	7139                	addi	sp,sp,-64
    2e50:	de22                	sw	s0,60(sp)
    2e52:	0080                	addi	s0,sp,64
    2e54:	fca42623          	sw	a0,-52(s0)
    2e58:	fcb42423          	sw	a1,-56(s0)
D:/projects/mechanical_arm/Firmware/CarMainControl/libraries/sdk/Peripheral/ch32v30x_gpio.c:89
  uint32_t currentmode = 0x00, currentpin = 0x00, pinpos = 0x00, pos = 0x00;
    2e5c:	fe042623          	sw	zero,-20(s0)
    2e60:	fe042023          	sw	zero,-32(s0)
    2e64:	fe042423          	sw	zero,-24(s0)
    2e68:	fc042e23          	sw	zero,-36(s0)
D:/projects/mechanical_arm/Firmware/CarMainControl/libraries/sdk/Peripheral/ch32v30x_gpio.c:90
  uint32_t tmpreg = 0x00, pinmask = 0x00;
    2e6c:	fe042223          	sw	zero,-28(s0)
    2e70:	fc042c23          	sw	zero,-40(s0)
D:/projects/mechanical_arm/Firmware/CarMainControl/libraries/sdk/Peripheral/ch32v30x_gpio.c:92

  currentmode = ((uint32_t)GPIO_InitStruct->GPIO_Mode) & ((uint32_t)0x0F);
    2e74:	fc842783          	lw	a5,-56(s0)
    2e78:	479c                	lw	a5,8(a5)
    2e7a:	8bbd                	andi	a5,a5,15
    2e7c:	fef42623          	sw	a5,-20(s0)
D:/projects/mechanical_arm/Firmware/CarMainControl/libraries/sdk/Peripheral/ch32v30x_gpio.c:94
	
  if ((((uint32_t)GPIO_InitStruct->GPIO_Mode) & ((uint32_t)0x10)) != 0x00)
    2e80:	fc842783          	lw	a5,-56(s0)
    2e84:	479c                	lw	a5,8(a5)
    2e86:	8bc1                	andi	a5,a5,16
    2e88:	cb89                	beqz	a5,2e9a <GPIO_Init+0x4c>
D:/projects/mechanical_arm/Firmware/CarMainControl/libraries/sdk/Peripheral/ch32v30x_gpio.c:96
  { 
    currentmode |= (uint32_t)GPIO_InitStruct->GPIO_Speed;
    2e8a:	fc842783          	lw	a5,-56(s0)
    2e8e:	43dc                	lw	a5,4(a5)
    2e90:	fec42703          	lw	a4,-20(s0)
    2e94:	8fd9                	or	a5,a5,a4
    2e96:	fef42623          	sw	a5,-20(s0)
D:/projects/mechanical_arm/Firmware/CarMainControl/libraries/sdk/Peripheral/ch32v30x_gpio.c:99
  }

  if (((uint32_t)GPIO_InitStruct->GPIO_Pin & ((uint32_t)0x00FF)) != 0x00)
    2e9a:	fc842783          	lw	a5,-56(s0)
    2e9e:	0007d783          	lhu	a5,0(a5)
    2ea2:	0ff7f793          	andi	a5,a5,255
    2ea6:	cff1                	beqz	a5,2f82 <GPIO_Init+0x134>
D:/projects/mechanical_arm/Firmware/CarMainControl/libraries/sdk/Peripheral/ch32v30x_gpio.c:101
  {
    tmpreg = GPIOx->CFGLR;
    2ea8:	fcc42783          	lw	a5,-52(s0)
    2eac:	439c                	lw	a5,0(a5)
    2eae:	fef42223          	sw	a5,-28(s0)
D:/projects/mechanical_arm/Firmware/CarMainControl/libraries/sdk/Peripheral/ch32v30x_gpio.c:103
		
    for (pinpos = 0x00; pinpos < 0x08; pinpos++)
    2eb2:	fe042423          	sw	zero,-24(s0)
    2eb6:	a865                	j	2f6e <GPIO_Init+0x120>
D:/projects/mechanical_arm/Firmware/CarMainControl/libraries/sdk/Peripheral/ch32v30x_gpio.c:105
    {
      pos = ((uint32_t)0x01) << pinpos;
    2eb8:	fe842783          	lw	a5,-24(s0)
    2ebc:	4705                	li	a4,1
    2ebe:	00f717b3          	sll	a5,a4,a5
    2ec2:	fcf42e23          	sw	a5,-36(s0)
D:/projects/mechanical_arm/Firmware/CarMainControl/libraries/sdk/Peripheral/ch32v30x_gpio.c:106
      currentpin = (GPIO_InitStruct->GPIO_Pin) & pos;
    2ec6:	fc842783          	lw	a5,-56(s0)
    2eca:	0007d783          	lhu	a5,0(a5)
    2ece:	873e                	mv	a4,a5
    2ed0:	fdc42783          	lw	a5,-36(s0)
    2ed4:	8ff9                	and	a5,a5,a4
    2ed6:	fef42023          	sw	a5,-32(s0)
D:/projects/mechanical_arm/Firmware/CarMainControl/libraries/sdk/Peripheral/ch32v30x_gpio.c:108
			
      if (currentpin == pos)
    2eda:	fe042703          	lw	a4,-32(s0)
    2ede:	fdc42783          	lw	a5,-36(s0)
    2ee2:	08f71163          	bne	a4,a5,2f64 <GPIO_Init+0x116>
D:/projects/mechanical_arm/Firmware/CarMainControl/libraries/sdk/Peripheral/ch32v30x_gpio.c:110
      {
        pos = pinpos << 2;
    2ee6:	fe842783          	lw	a5,-24(s0)
    2eea:	078a                	slli	a5,a5,0x2
    2eec:	fcf42e23          	sw	a5,-36(s0)
D:/projects/mechanical_arm/Firmware/CarMainControl/libraries/sdk/Peripheral/ch32v30x_gpio.c:111
        pinmask = ((uint32_t)0x0F) << pos;
    2ef0:	fdc42783          	lw	a5,-36(s0)
    2ef4:	473d                	li	a4,15
    2ef6:	00f717b3          	sll	a5,a4,a5
    2efa:	fcf42c23          	sw	a5,-40(s0)
D:/projects/mechanical_arm/Firmware/CarMainControl/libraries/sdk/Peripheral/ch32v30x_gpio.c:112
        tmpreg &= ~pinmask;
    2efe:	fd842783          	lw	a5,-40(s0)
    2f02:	fff7c793          	not	a5,a5
    2f06:	fe442703          	lw	a4,-28(s0)
    2f0a:	8ff9                	and	a5,a5,a4
    2f0c:	fef42223          	sw	a5,-28(s0)
D:/projects/mechanical_arm/Firmware/CarMainControl/libraries/sdk/Peripheral/ch32v30x_gpio.c:113
        tmpreg |= (currentmode << pos);
    2f10:	fdc42783          	lw	a5,-36(s0)
    2f14:	fec42703          	lw	a4,-20(s0)
    2f18:	00f717b3          	sll	a5,a4,a5
    2f1c:	fe442703          	lw	a4,-28(s0)
    2f20:	8fd9                	or	a5,a5,a4
    2f22:	fef42223          	sw	a5,-28(s0)
D:/projects/mechanical_arm/Firmware/CarMainControl/libraries/sdk/Peripheral/ch32v30x_gpio.c:115

        if (GPIO_InitStruct->GPIO_Mode == GPIO_Mode_IPD)
    2f26:	fc842783          	lw	a5,-56(s0)
    2f2a:	4798                	lw	a4,8(a5)
    2f2c:	02800793          	li	a5,40
    2f30:	00f71b63          	bne	a4,a5,2f46 <GPIO_Init+0xf8>
D:/projects/mechanical_arm/Firmware/CarMainControl/libraries/sdk/Peripheral/ch32v30x_gpio.c:117
        {
          GPIOx->BCR = (((uint32_t)0x01) << pinpos);
    2f34:	fe842783          	lw	a5,-24(s0)
    2f38:	4705                	li	a4,1
    2f3a:	00f71733          	sll	a4,a4,a5
    2f3e:	fcc42783          	lw	a5,-52(s0)
    2f42:	cbd8                	sw	a4,20(a5)
    2f44:	a005                	j	2f64 <GPIO_Init+0x116>
D:/projects/mechanical_arm/Firmware/CarMainControl/libraries/sdk/Peripheral/ch32v30x_gpio.c:121
        }
        else
        {
          if (GPIO_InitStruct->GPIO_Mode == GPIO_Mode_IPU)
    2f46:	fc842783          	lw	a5,-56(s0)
    2f4a:	4798                	lw	a4,8(a5)
    2f4c:	04800793          	li	a5,72
    2f50:	00f71a63          	bne	a4,a5,2f64 <GPIO_Init+0x116>
D:/projects/mechanical_arm/Firmware/CarMainControl/libraries/sdk/Peripheral/ch32v30x_gpio.c:123
          {
            GPIOx->BSHR = (((uint32_t)0x01) << pinpos);
    2f54:	fe842783          	lw	a5,-24(s0)
    2f58:	4705                	li	a4,1
    2f5a:	00f71733          	sll	a4,a4,a5
    2f5e:	fcc42783          	lw	a5,-52(s0)
    2f62:	cb98                	sw	a4,16(a5)
D:/projects/mechanical_arm/Firmware/CarMainControl/libraries/sdk/Peripheral/ch32v30x_gpio.c:103 (discriminator 2)
    for (pinpos = 0x00; pinpos < 0x08; pinpos++)
    2f64:	fe842783          	lw	a5,-24(s0)
    2f68:	0785                	addi	a5,a5,1
    2f6a:	fef42423          	sw	a5,-24(s0)
D:/projects/mechanical_arm/Firmware/CarMainControl/libraries/sdk/Peripheral/ch32v30x_gpio.c:103 (discriminator 1)
    2f6e:	fe842703          	lw	a4,-24(s0)
    2f72:	479d                	li	a5,7
    2f74:	f4e7f2e3          	bgeu	a5,a4,2eb8 <GPIO_Init+0x6a>
D:/projects/mechanical_arm/Firmware/CarMainControl/libraries/sdk/Peripheral/ch32v30x_gpio.c:128
          }
        }
      }
    }
    GPIOx->CFGLR = tmpreg;
    2f78:	fcc42783          	lw	a5,-52(s0)
    2f7c:	fe442703          	lw	a4,-28(s0)
    2f80:	c398                	sw	a4,0(a5)
D:/projects/mechanical_arm/Firmware/CarMainControl/libraries/sdk/Peripheral/ch32v30x_gpio.c:131
  }

  if (GPIO_InitStruct->GPIO_Pin > 0x00FF)
    2f82:	fc842783          	lw	a5,-56(s0)
    2f86:	0007d703          	lhu	a4,0(a5)
    2f8a:	0ff00793          	li	a5,255
    2f8e:	0ee7f163          	bgeu	a5,a4,3070 <GPIO_Init+0x222>
D:/projects/mechanical_arm/Firmware/CarMainControl/libraries/sdk/Peripheral/ch32v30x_gpio.c:133
  {
    tmpreg = GPIOx->CFGHR;
    2f92:	fcc42783          	lw	a5,-52(s0)
    2f96:	43dc                	lw	a5,4(a5)
    2f98:	fef42223          	sw	a5,-28(s0)
D:/projects/mechanical_arm/Firmware/CarMainControl/libraries/sdk/Peripheral/ch32v30x_gpio.c:135
		
    for (pinpos = 0x00; pinpos < 0x08; pinpos++)
    2f9c:	fe042423          	sw	zero,-24(s0)
    2fa0:	a875                	j	305c <GPIO_Init+0x20e>
D:/projects/mechanical_arm/Firmware/CarMainControl/libraries/sdk/Peripheral/ch32v30x_gpio.c:137
    {
      pos = (((uint32_t)0x01) << (pinpos + 0x08));
    2fa2:	fe842783          	lw	a5,-24(s0)
    2fa6:	07a1                	addi	a5,a5,8
    2fa8:	4705                	li	a4,1
    2faa:	00f717b3          	sll	a5,a4,a5
    2fae:	fcf42e23          	sw	a5,-36(s0)
D:/projects/mechanical_arm/Firmware/CarMainControl/libraries/sdk/Peripheral/ch32v30x_gpio.c:138
      currentpin = ((GPIO_InitStruct->GPIO_Pin) & pos);
    2fb2:	fc842783          	lw	a5,-56(s0)
    2fb6:	0007d783          	lhu	a5,0(a5)
    2fba:	873e                	mv	a4,a5
    2fbc:	fdc42783          	lw	a5,-36(s0)
    2fc0:	8ff9                	and	a5,a5,a4
    2fc2:	fef42023          	sw	a5,-32(s0)
D:/projects/mechanical_arm/Firmware/CarMainControl/libraries/sdk/Peripheral/ch32v30x_gpio.c:140
			
      if (currentpin == pos)
    2fc6:	fe042703          	lw	a4,-32(s0)
    2fca:	fdc42783          	lw	a5,-36(s0)
    2fce:	08f71263          	bne	a4,a5,3052 <GPIO_Init+0x204>
D:/projects/mechanical_arm/Firmware/CarMainControl/libraries/sdk/Peripheral/ch32v30x_gpio.c:142
      {
        pos = pinpos << 2;
    2fd2:	fe842783          	lw	a5,-24(s0)
    2fd6:	078a                	slli	a5,a5,0x2
    2fd8:	fcf42e23          	sw	a5,-36(s0)
D:/projects/mechanical_arm/Firmware/CarMainControl/libraries/sdk/Peripheral/ch32v30x_gpio.c:143
        pinmask = ((uint32_t)0x0F) << pos;
    2fdc:	fdc42783          	lw	a5,-36(s0)
    2fe0:	473d                	li	a4,15
    2fe2:	00f717b3          	sll	a5,a4,a5
    2fe6:	fcf42c23          	sw	a5,-40(s0)
D:/projects/mechanical_arm/Firmware/CarMainControl/libraries/sdk/Peripheral/ch32v30x_gpio.c:144
        tmpreg &= ~pinmask;
    2fea:	fd842783          	lw	a5,-40(s0)
    2fee:	fff7c793          	not	a5,a5
    2ff2:	fe442703          	lw	a4,-28(s0)
    2ff6:	8ff9                	and	a5,a5,a4
    2ff8:	fef42223          	sw	a5,-28(s0)
D:/projects/mechanical_arm/Firmware/CarMainControl/libraries/sdk/Peripheral/ch32v30x_gpio.c:145
        tmpreg |= (currentmode << pos);
    2ffc:	fdc42783          	lw	a5,-36(s0)
    3000:	fec42703          	lw	a4,-20(s0)
    3004:	00f717b3          	sll	a5,a4,a5
    3008:	fe442703          	lw	a4,-28(s0)
    300c:	8fd9                	or	a5,a5,a4
    300e:	fef42223          	sw	a5,-28(s0)
D:/projects/mechanical_arm/Firmware/CarMainControl/libraries/sdk/Peripheral/ch32v30x_gpio.c:147

        if (GPIO_InitStruct->GPIO_Mode == GPIO_Mode_IPD)
    3012:	fc842783          	lw	a5,-56(s0)
    3016:	4798                	lw	a4,8(a5)
    3018:	02800793          	li	a5,40
    301c:	00f71b63          	bne	a4,a5,3032 <GPIO_Init+0x1e4>
D:/projects/mechanical_arm/Firmware/CarMainControl/libraries/sdk/Peripheral/ch32v30x_gpio.c:149
        {
          GPIOx->BCR = (((uint32_t)0x01) << (pinpos + 0x08));
    3020:	fe842783          	lw	a5,-24(s0)
    3024:	07a1                	addi	a5,a5,8
    3026:	4705                	li	a4,1
    3028:	00f71733          	sll	a4,a4,a5
    302c:	fcc42783          	lw	a5,-52(s0)
    3030:	cbd8                	sw	a4,20(a5)
D:/projects/mechanical_arm/Firmware/CarMainControl/libraries/sdk/Peripheral/ch32v30x_gpio.c:152
        }

        if (GPIO_InitStruct->GPIO_Mode == GPIO_Mode_IPU)
    3032:	fc842783          	lw	a5,-56(s0)
    3036:	4798                	lw	a4,8(a5)
    3038:	04800793          	li	a5,72
    303c:	00f71b63          	bne	a4,a5,3052 <GPIO_Init+0x204>
D:/projects/mechanical_arm/Firmware/CarMainControl/libraries/sdk/Peripheral/ch32v30x_gpio.c:154
        {
          GPIOx->BSHR = (((uint32_t)0x01) << (pinpos + 0x08));
    3040:	fe842783          	lw	a5,-24(s0)
    3044:	07a1                	addi	a5,a5,8
    3046:	4705                	li	a4,1
    3048:	00f71733          	sll	a4,a4,a5
    304c:	fcc42783          	lw	a5,-52(s0)
    3050:	cb98                	sw	a4,16(a5)
D:/projects/mechanical_arm/Firmware/CarMainControl/libraries/sdk/Peripheral/ch32v30x_gpio.c:135 (discriminator 2)
    for (pinpos = 0x00; pinpos < 0x08; pinpos++)
    3052:	fe842783          	lw	a5,-24(s0)
    3056:	0785                	addi	a5,a5,1
    3058:	fef42423          	sw	a5,-24(s0)
D:/projects/mechanical_arm/Firmware/CarMainControl/libraries/sdk/Peripheral/ch32v30x_gpio.c:135 (discriminator 1)
    305c:	fe842703          	lw	a4,-24(s0)
    3060:	479d                	li	a5,7
    3062:	f4e7f0e3          	bgeu	a5,a4,2fa2 <GPIO_Init+0x154>
D:/projects/mechanical_arm/Firmware/CarMainControl/libraries/sdk/Peripheral/ch32v30x_gpio.c:158
        }
      }
    }
    GPIOx->CFGHR = tmpreg;
    3066:	fcc42783          	lw	a5,-52(s0)
    306a:	fe442703          	lw	a4,-28(s0)
    306e:	c3d8                	sw	a4,4(a5)
D:/projects/mechanical_arm/Firmware/CarMainControl/libraries/sdk/Peripheral/ch32v30x_gpio.c:160
  }
}
    3070:	0001                	nop
    3072:	5472                	lw	s0,60(sp)
    3074:	6121                	addi	sp,sp,64
    3076:	8082                	ret

00003078 <GPIO_WriteBit>:
GPIO_WriteBit():
D:/projects/mechanical_arm/Firmware/CarMainControl/libraries/sdk/Peripheral/ch32v30x_gpio.c:282
*                    Bit_SetL: to clear the port pin.
*                    Bit_SetH: to set the port pin.                  
* Return         : None
*******************************************************************************/
void GPIO_WriteBit(GPIO_TypeDef* GPIOx, uint16_t GPIO_Pin, BitAction BitVal)
{
    3078:	1101                	addi	sp,sp,-32
    307a:	ce22                	sw	s0,28(sp)
    307c:	1000                	addi	s0,sp,32
    307e:	fea42623          	sw	a0,-20(s0)
    3082:	87ae                	mv	a5,a1
    3084:	fec42223          	sw	a2,-28(s0)
    3088:	fef41523          	sh	a5,-22(s0)
D:/projects/mechanical_arm/Firmware/CarMainControl/libraries/sdk/Peripheral/ch32v30x_gpio.c:283
  if (BitVal != Bit_RESET)
    308c:	fe442783          	lw	a5,-28(s0)
    3090:	c799                	beqz	a5,309e <GPIO_WriteBit+0x26>
D:/projects/mechanical_arm/Firmware/CarMainControl/libraries/sdk/Peripheral/ch32v30x_gpio.c:285
  {
    GPIOx->BSHR = GPIO_Pin;
    3092:	fea45703          	lhu	a4,-22(s0)
    3096:	fec42783          	lw	a5,-20(s0)
    309a:	cb98                	sw	a4,16(a5)
D:/projects/mechanical_arm/Firmware/CarMainControl/libraries/sdk/Peripheral/ch32v30x_gpio.c:291
  }
  else
  {
    GPIOx->BCR = GPIO_Pin;
  }
}
    309c:	a031                	j	30a8 <GPIO_WriteBit+0x30>
D:/projects/mechanical_arm/Firmware/CarMainControl/libraries/sdk/Peripheral/ch32v30x_gpio.c:289
    GPIOx->BCR = GPIO_Pin;
    309e:	fea45703          	lhu	a4,-22(s0)
    30a2:	fec42783          	lw	a5,-20(s0)
    30a6:	cbd8                	sw	a4,20(a5)
D:/projects/mechanical_arm/Firmware/CarMainControl/libraries/sdk/Peripheral/ch32v30x_gpio.c:291
}
    30a8:	0001                	nop
    30aa:	4472                	lw	s0,28(sp)
    30ac:	6105                	addi	sp,sp,32
    30ae:	8082                	ret

000030b0 <GPIO_PinRemapConfig>:
GPIO_PinRemapConfig():
D:/projects/mechanical_arm/Firmware/CarMainControl/libraries/sdk/Peripheral/ch32v30x_gpio.c:402
*      only for High density Value line devices)     
*                  NewState: ENABLE or DISABLE.             
* Return         : None
*******************************************************************************/
void GPIO_PinRemapConfig(uint32_t GPIO_Remap, FunctionalState NewState)
{
    30b0:	7179                	addi	sp,sp,-48
    30b2:	d622                	sw	s0,44(sp)
    30b4:	1800                	addi	s0,sp,48
    30b6:	fca42e23          	sw	a0,-36(s0)
    30ba:	fcb42c23          	sw	a1,-40(s0)
D:/projects/mechanical_arm/Firmware/CarMainControl/libraries/sdk/Peripheral/ch32v30x_gpio.c:403
  uint32_t tmp = 0x00, tmp1 = 0x00, tmpreg = 0x00, tmpmask = 0x00;
    30be:	fe042423          	sw	zero,-24(s0)
    30c2:	fe042223          	sw	zero,-28(s0)
    30c6:	fe042623          	sw	zero,-20(s0)
    30ca:	fe042023          	sw	zero,-32(s0)
D:/projects/mechanical_arm/Firmware/CarMainControl/libraries/sdk/Peripheral/ch32v30x_gpio.c:405

  if((GPIO_Remap & 0x80000000) == 0x80000000)
    30ce:	fdc42783          	lw	a5,-36(s0)
    30d2:	0007d863          	bgez	a5,30e2 <GPIO_PinRemapConfig+0x32>
D:/projects/mechanical_arm/Firmware/CarMainControl/libraries/sdk/Peripheral/ch32v30x_gpio.c:407
  {
    tmpreg = AFIO->PCFR2;
    30d6:	400107b7          	lui	a5,0x40010
    30da:	4fdc                	lw	a5,28(a5)
    30dc:	fef42623          	sw	a5,-20(s0)
    30e0:	a031                	j	30ec <GPIO_PinRemapConfig+0x3c>
D:/projects/mechanical_arm/Firmware/CarMainControl/libraries/sdk/Peripheral/ch32v30x_gpio.c:411
  }
  else
  {
    tmpreg = AFIO->PCFR1;
    30e2:	400107b7          	lui	a5,0x40010
    30e6:	43dc                	lw	a5,4(a5)
    30e8:	fef42623          	sw	a5,-20(s0)
D:/projects/mechanical_arm/Firmware/CarMainControl/libraries/sdk/Peripheral/ch32v30x_gpio.c:414
  }

  tmpmask = (GPIO_Remap & DBGAFR_POSITION_MASK) >> 0x10;
    30ec:	fdc42783          	lw	a5,-36(s0)
    30f0:	83c1                	srli	a5,a5,0x10
    30f2:	8bbd                	andi	a5,a5,15
    30f4:	fef42023          	sw	a5,-32(s0)
D:/projects/mechanical_arm/Firmware/CarMainControl/libraries/sdk/Peripheral/ch32v30x_gpio.c:415
  tmp = GPIO_Remap & LSB_MASK;
    30f8:	fdc42703          	lw	a4,-36(s0)
    30fc:	67c1                	lui	a5,0x10
    30fe:	17fd                	addi	a5,a5,-1
    3100:	8ff9                	and	a5,a5,a4
    3102:	fef42423          	sw	a5,-24(s0)
D:/projects/mechanical_arm/Firmware/CarMainControl/libraries/sdk/Peripheral/ch32v30x_gpio.c:417

  if ((GPIO_Remap & (DBGAFR_LOCATION_MASK | DBGAFR_NUMBITS_MASK)) == (DBGAFR_LOCATION_MASK | DBGAFR_NUMBITS_MASK))
    3106:	fdc42703          	lw	a4,-36(s0)
    310a:	003007b7          	lui	a5,0x300
    310e:	8f7d                	and	a4,a4,a5
    3110:	003007b7          	lui	a5,0x300
    3114:	02f71563          	bne	a4,a5,313e <GPIO_PinRemapConfig+0x8e>
D:/projects/mechanical_arm/Firmware/CarMainControl/libraries/sdk/Peripheral/ch32v30x_gpio.c:419
  {
    tmpreg &= DBGAFR_SWJCFG_MASK;
    3118:	fec42703          	lw	a4,-20(s0)
    311c:	f10007b7          	lui	a5,0xf1000
    3120:	17fd                	addi	a5,a5,-1
    3122:	8ff9                	and	a5,a5,a4
    3124:	fef42623          	sw	a5,-20(s0)
D:/projects/mechanical_arm/Firmware/CarMainControl/libraries/sdk/Peripheral/ch32v30x_gpio.c:420
    AFIO->PCFR1 &= DBGAFR_SWJCFG_MASK;
    3128:	400107b7          	lui	a5,0x40010
    312c:	43d4                	lw	a3,4(a5)
    312e:	400107b7          	lui	a5,0x40010
    3132:	f1000737          	lui	a4,0xf1000
    3136:	177d                	addi	a4,a4,-1
    3138:	8f75                	and	a4,a4,a3
    313a:	c3d8                	sw	a4,4(a5)
    313c:	a0ad                	j	31a6 <GPIO_PinRemapConfig+0xf6>
D:/projects/mechanical_arm/Firmware/CarMainControl/libraries/sdk/Peripheral/ch32v30x_gpio.c:422
  }
  else if ((GPIO_Remap & DBGAFR_NUMBITS_MASK) == DBGAFR_NUMBITS_MASK)
    313e:	fdc42703          	lw	a4,-36(s0)
    3142:	001007b7          	lui	a5,0x100
    3146:	8ff9                	and	a5,a5,a4
    3148:	cb8d                	beqz	a5,317a <GPIO_PinRemapConfig+0xca>
D:/projects/mechanical_arm/Firmware/CarMainControl/libraries/sdk/Peripheral/ch32v30x_gpio.c:424
  {
    tmp1 = ((uint32_t)0x03) << tmpmask;
    314a:	fe042783          	lw	a5,-32(s0)
    314e:	470d                	li	a4,3
    3150:	00f717b3          	sll	a5,a4,a5
    3154:	fef42223          	sw	a5,-28(s0)
D:/projects/mechanical_arm/Firmware/CarMainControl/libraries/sdk/Peripheral/ch32v30x_gpio.c:425
    tmpreg &= ~tmp1;
    3158:	fe442783          	lw	a5,-28(s0)
    315c:	fff7c793          	not	a5,a5
    3160:	fec42703          	lw	a4,-20(s0)
    3164:	8ff9                	and	a5,a5,a4
    3166:	fef42623          	sw	a5,-20(s0)
D:/projects/mechanical_arm/Firmware/CarMainControl/libraries/sdk/Peripheral/ch32v30x_gpio.c:426
    tmpreg |= ~DBGAFR_SWJCFG_MASK;
    316a:	fec42703          	lw	a4,-20(s0)
    316e:	0f0007b7          	lui	a5,0xf000
    3172:	8fd9                	or	a5,a5,a4
    3174:	fef42623          	sw	a5,-20(s0)
    3178:	a03d                	j	31a6 <GPIO_PinRemapConfig+0xf6>
D:/projects/mechanical_arm/Firmware/CarMainControl/libraries/sdk/Peripheral/ch32v30x_gpio.c:430
  }
  else
  {
    tmpreg &= ~(tmp << ((GPIO_Remap >> 0x15)*0x10));
    317a:	fdc42783          	lw	a5,-36(s0)
    317e:	83d5                	srli	a5,a5,0x15
    3180:	0792                	slli	a5,a5,0x4
    3182:	fe842703          	lw	a4,-24(s0)
    3186:	00f717b3          	sll	a5,a4,a5
    318a:	fff7c793          	not	a5,a5
    318e:	fec42703          	lw	a4,-20(s0)
    3192:	8ff9                	and	a5,a5,a4
    3194:	fef42623          	sw	a5,-20(s0)
D:/projects/mechanical_arm/Firmware/CarMainControl/libraries/sdk/Peripheral/ch32v30x_gpio.c:431
    tmpreg |= ~DBGAFR_SWJCFG_MASK;
    3198:	fec42703          	lw	a4,-20(s0)
    319c:	0f0007b7          	lui	a5,0xf000
    31a0:	8fd9                	or	a5,a5,a4
    31a2:	fef42623          	sw	a5,-20(s0)
D:/projects/mechanical_arm/Firmware/CarMainControl/libraries/sdk/Peripheral/ch32v30x_gpio.c:434
  }

  if (NewState != DISABLE)
    31a6:	fd842783          	lw	a5,-40(s0)
    31aa:	cf91                	beqz	a5,31c6 <GPIO_PinRemapConfig+0x116>
D:/projects/mechanical_arm/Firmware/CarMainControl/libraries/sdk/Peripheral/ch32v30x_gpio.c:436
  {
    tmpreg |= (tmp << ((GPIO_Remap >> 0x15)*0x10));
    31ac:	fdc42783          	lw	a5,-36(s0)
    31b0:	83d5                	srli	a5,a5,0x15
    31b2:	0792                	slli	a5,a5,0x4
    31b4:	fe842703          	lw	a4,-24(s0)
    31b8:	00f717b3          	sll	a5,a4,a5
    31bc:	fec42703          	lw	a4,-20(s0)
    31c0:	8fd9                	or	a5,a5,a4
    31c2:	fef42623          	sw	a5,-20(s0)
D:/projects/mechanical_arm/Firmware/CarMainControl/libraries/sdk/Peripheral/ch32v30x_gpio.c:439
  }

  if((GPIO_Remap & 0x80000000) == 0x80000000)
    31c6:	fdc42783          	lw	a5,-36(s0)
    31ca:	0007d863          	bgez	a5,31da <GPIO_PinRemapConfig+0x12a>
D:/projects/mechanical_arm/Firmware/CarMainControl/libraries/sdk/Peripheral/ch32v30x_gpio.c:441
  {
    AFIO->PCFR2 = tmpreg;
    31ce:	400107b7          	lui	a5,0x40010
    31d2:	fec42703          	lw	a4,-20(s0)
    31d6:	cfd8                	sw	a4,28(a5)
D:/projects/mechanical_arm/Firmware/CarMainControl/libraries/sdk/Peripheral/ch32v30x_gpio.c:447
  }
  else
  {
    AFIO->PCFR1 = tmpreg;
  }  
}
    31d8:	a031                	j	31e4 <GPIO_PinRemapConfig+0x134>
D:/projects/mechanical_arm/Firmware/CarMainControl/libraries/sdk/Peripheral/ch32v30x_gpio.c:445
    AFIO->PCFR1 = tmpreg;
    31da:	400107b7          	lui	a5,0x40010
    31de:	fec42703          	lw	a4,-20(s0)
    31e2:	c3d8                	sw	a4,4(a5)
D:/projects/mechanical_arm/Firmware/CarMainControl/libraries/sdk/Peripheral/ch32v30x_gpio.c:447
}
    31e4:	0001                	nop
    31e6:	5432                	lw	s0,44(sp)
    31e8:	6145                	addi	sp,sp,48
    31ea:	8082                	ret

000031ec <RCC_GetClocksFreq>:
RCC_GetClocksFreq():
D:/projects/mechanical_arm/Firmware/CarMainControl/libraries/sdk/Peripheral/ch32v30x_rcc.c:489
* Input          : RCC_Clocks: pointer to a RCC_ClocksTypeDef structure which will hold
*      the clocks frequencies.
* Return         : None
********************************************************************************/
void RCC_GetClocksFreq(RCC_ClocksTypeDef* RCC_Clocks)
{
    31ec:	7139                	addi	sp,sp,-64
    31ee:	de22                	sw	s0,60(sp)
    31f0:	0080                	addi	s0,sp,64
    31f2:	fca42623          	sw	a0,-52(s0)
D:/projects/mechanical_arm/Firmware/CarMainControl/libraries/sdk/Peripheral/ch32v30x_rcc.c:490
    uint32_t tmp = 0, pllmull = 0, pllsource = 0, presc = 0, Pll_6_5 = 0;
    31f6:	fe042223          	sw	zero,-28(s0)
    31fa:	fe042623          	sw	zero,-20(s0)
    31fe:	fe042023          	sw	zero,-32(s0)
    3202:	fc042e23          	sw	zero,-36(s0)
    3206:	fe042423          	sw	zero,-24(s0)
D:/projects/mechanical_arm/Firmware/CarMainControl/libraries/sdk/Peripheral/ch32v30x_rcc.c:492

    tmp = RCC->CFGR0 & CFGR0_SWS_Mask;
    320a:	400217b7          	lui	a5,0x40021
    320e:	43dc                	lw	a5,4(a5)
    3210:	8bb1                	andi	a5,a5,12
    3212:	fef42223          	sw	a5,-28(s0)
    3216:	fe442703          	lw	a4,-28(s0)
    321a:	4791                	li	a5,4
    321c:	02f70363          	beq	a4,a5,3242 <RCC_GetClocksFreq+0x56>
    3220:	fe442703          	lw	a4,-28(s0)
    3224:	47a1                	li	a5,8
    3226:	02f70663          	beq	a4,a5,3252 <RCC_GetClocksFreq+0x66>
    322a:	fe442783          	lw	a5,-28(s0)
    322e:	14079963          	bnez	a5,3380 <RCC_GetClocksFreq+0x194>
D:/projects/mechanical_arm/Firmware/CarMainControl/libraries/sdk/Peripheral/ch32v30x_rcc.c:497

    switch (tmp)
    {
      case 0x00:
        RCC_Clocks->SYSCLK_Frequency = HSI_VALUE;
    3232:	fcc42783          	lw	a5,-52(s0)
    3236:	007a1737          	lui	a4,0x7a1
    323a:	20070713          	addi	a4,a4,512 # 7a1200 <_data_lma+0x796d2c>
    323e:	c398                	sw	a4,0(a5)
D:/projects/mechanical_arm/Firmware/CarMainControl/libraries/sdk/Peripheral/ch32v30x_rcc.c:498
        break;
    3240:	aa89                	j	3392 <RCC_GetClocksFreq+0x1a6>
D:/projects/mechanical_arm/Firmware/CarMainControl/libraries/sdk/Peripheral/ch32v30x_rcc.c:501

      case 0x04:
        RCC_Clocks->SYSCLK_Frequency = HSE_VALUE;
    3242:	fcc42783          	lw	a5,-52(s0)
    3246:	007a1737          	lui	a4,0x7a1
    324a:	20070713          	addi	a4,a4,512 # 7a1200 <_data_lma+0x796d2c>
    324e:	c398                	sw	a4,0(a5)
D:/projects/mechanical_arm/Firmware/CarMainControl/libraries/sdk/Peripheral/ch32v30x_rcc.c:502
        break;
    3250:	a289                	j	3392 <RCC_GetClocksFreq+0x1a6>
D:/projects/mechanical_arm/Firmware/CarMainControl/libraries/sdk/Peripheral/ch32v30x_rcc.c:505

      case 0x08:
        pllmull = RCC->CFGR0 & CFGR0_PLLMull_Mask;
    3252:	400217b7          	lui	a5,0x40021
    3256:	43d8                	lw	a4,4(a5)
    3258:	003c07b7          	lui	a5,0x3c0
    325c:	8ff9                	and	a5,a5,a4
    325e:	fef42623          	sw	a5,-20(s0)
D:/projects/mechanical_arm/Firmware/CarMainControl/libraries/sdk/Peripheral/ch32v30x_rcc.c:506
        pllsource = RCC->CFGR0 & CFGR0_PLLSRC_Mask;
    3262:	400217b7          	lui	a5,0x40021
    3266:	43d8                	lw	a4,4(a5)
    3268:	67c1                	lui	a5,0x10
    326a:	8ff9                	and	a5,a5,a4
    326c:	fef42023          	sw	a5,-32(s0)
D:/projects/mechanical_arm/Firmware/CarMainControl/libraries/sdk/Peripheral/ch32v30x_rcc.c:508

        pllmull = ( pllmull >> 18) + 2;
    3270:	fec42783          	lw	a5,-20(s0)
    3274:	83c9                	srli	a5,a5,0x12
    3276:	0789                	addi	a5,a5,2
    3278:	fef42623          	sw	a5,-20(s0)
D:/projects/mechanical_arm/Firmware/CarMainControl/libraries/sdk/Peripheral/ch32v30x_rcc.c:510

        if(((*(uint32_t*)0x1FFFF70C) & (1<<14)) != (1<<14)){ /* for other CH32V30x */
    327c:	1ffff7b7          	lui	a5,0x1ffff
    3280:	70c78793          	addi	a5,a5,1804 # 1ffff70c <_data_lma+0x1fff5238>
    3284:	4398                	lw	a4,0(a5)
    3286:	6791                	lui	a5,0x4
    3288:	8ff9                	and	a5,a5,a4
    328a:	eb91                	bnez	a5,329e <RCC_GetClocksFreq+0xb2>
D:/projects/mechanical_arm/Firmware/CarMainControl/libraries/sdk/Peripheral/ch32v30x_rcc.c:511
            if(pllmull == 17) pllmull = 18;
    328c:	fec42703          	lw	a4,-20(s0)
    3290:	47c5                	li	a5,17
    3292:	04f71963          	bne	a4,a5,32e4 <RCC_GetClocksFreq+0xf8>
D:/projects/mechanical_arm/Firmware/CarMainControl/libraries/sdk/Peripheral/ch32v30x_rcc.c:511 (discriminator 1)
    3296:	47c9                	li	a5,18
    3298:	fef42623          	sw	a5,-20(s0)
    329c:	a0a1                	j	32e4 <RCC_GetClocksFreq+0xf8>
D:/projects/mechanical_arm/Firmware/CarMainControl/libraries/sdk/Peripheral/ch32v30x_rcc.c:514
        }
        else{  /* for CH32V307 */
            if(pllmull == 2) pllmull = 18;
    329e:	fec42703          	lw	a4,-20(s0)
    32a2:	4789                	li	a5,2
    32a4:	00f71563          	bne	a4,a5,32ae <RCC_GetClocksFreq+0xc2>
D:/projects/mechanical_arm/Firmware/CarMainControl/libraries/sdk/Peripheral/ch32v30x_rcc.c:514 (discriminator 1)
    32a8:	47c9                	li	a5,18
    32aa:	fef42623          	sw	a5,-20(s0)
D:/projects/mechanical_arm/Firmware/CarMainControl/libraries/sdk/Peripheral/ch32v30x_rcc.c:515
            if(pllmull == 15){
    32ae:	fec42703          	lw	a4,-20(s0)
    32b2:	47bd                	li	a5,15
    32b4:	00f71863          	bne	a4,a5,32c4 <RCC_GetClocksFreq+0xd8>
D:/projects/mechanical_arm/Firmware/CarMainControl/libraries/sdk/Peripheral/ch32v30x_rcc.c:516
                pllmull = 13;  /* *6.5 */
    32b8:	47b5                	li	a5,13
    32ba:	fef42623          	sw	a5,-20(s0)
D:/projects/mechanical_arm/Firmware/CarMainControl/libraries/sdk/Peripheral/ch32v30x_rcc.c:517
                Pll_6_5 = 1;
    32be:	4785                	li	a5,1
    32c0:	fef42423          	sw	a5,-24(s0)
D:/projects/mechanical_arm/Firmware/CarMainControl/libraries/sdk/Peripheral/ch32v30x_rcc.c:519
            }
            if(pllmull == 16) pllmull = 15;
    32c4:	fec42703          	lw	a4,-20(s0)
    32c8:	47c1                	li	a5,16
    32ca:	00f71563          	bne	a4,a5,32d4 <RCC_GetClocksFreq+0xe8>
D:/projects/mechanical_arm/Firmware/CarMainControl/libraries/sdk/Peripheral/ch32v30x_rcc.c:519 (discriminator 1)
    32ce:	47bd                	li	a5,15
    32d0:	fef42623          	sw	a5,-20(s0)
D:/projects/mechanical_arm/Firmware/CarMainControl/libraries/sdk/Peripheral/ch32v30x_rcc.c:520
            if(pllmull == 17) pllmull = 16;
    32d4:	fec42703          	lw	a4,-20(s0)
    32d8:	47c5                	li	a5,17
    32da:	00f71563          	bne	a4,a5,32e4 <RCC_GetClocksFreq+0xf8>
D:/projects/mechanical_arm/Firmware/CarMainControl/libraries/sdk/Peripheral/ch32v30x_rcc.c:520 (discriminator 1)
    32de:	47c1                	li	a5,16
    32e0:	fef42623          	sw	a5,-20(s0)
D:/projects/mechanical_arm/Firmware/CarMainControl/libraries/sdk/Peripheral/ch32v30x_rcc.c:524
        }


        if (pllsource == 0x00)
    32e4:	fe042783          	lw	a5,-32(s0)
    32e8:	e3a1                	bnez	a5,3328 <RCC_GetClocksFreq+0x13c>
D:/projects/mechanical_arm/Firmware/CarMainControl/libraries/sdk/Peripheral/ch32v30x_rcc.c:526
        {
                  if(EXTEN->EXTEN_CTR & EXTEN_PLL_HSI_PRE){
    32ea:	400247b7          	lui	a5,0x40024
    32ee:	80078793          	addi	a5,a5,-2048 # 40023800 <_eusrstack+0x20013800>
    32f2:	439c                	lw	a5,0(a5)
    32f4:	8bc1                	andi	a5,a5,16
    32f6:	cf89                	beqz	a5,3310 <RCC_GetClocksFreq+0x124>
D:/projects/mechanical_arm/Firmware/CarMainControl/libraries/sdk/Peripheral/ch32v30x_rcc.c:527
                   RCC_Clocks->SYSCLK_Frequency = (HSI_VALUE) * pllmull;
    32f8:	fec42703          	lw	a4,-20(s0)
    32fc:	007a17b7          	lui	a5,0x7a1
    3300:	20078793          	addi	a5,a5,512 # 7a1200 <_data_lma+0x796d2c>
    3304:	02f70733          	mul	a4,a4,a5
    3308:	fcc42783          	lw	a5,-52(s0)
    330c:	c398                	sw	a4,0(a5)
    330e:	a899                	j	3364 <RCC_GetClocksFreq+0x178>
D:/projects/mechanical_arm/Firmware/CarMainControl/libraries/sdk/Peripheral/ch32v30x_rcc.c:530
                  }
                  else{
                   RCC_Clocks->SYSCLK_Frequency = (HSI_VALUE >>1) * pllmull;
    3310:	fec42703          	lw	a4,-20(s0)
    3314:	003d17b7          	lui	a5,0x3d1
    3318:	90078793          	addi	a5,a5,-1792 # 3d0900 <_data_lma+0x3c642c>
    331c:	02f70733          	mul	a4,a4,a5
    3320:	fcc42783          	lw	a5,-52(s0)
    3324:	c398                	sw	a4,0(a5)
    3326:	a83d                	j	3364 <RCC_GetClocksFreq+0x178>
D:/projects/mechanical_arm/Firmware/CarMainControl/libraries/sdk/Peripheral/ch32v30x_rcc.c:535
                  }
        }
        else
        {
          if ((RCC->CFGR0 & CFGR0_PLLXTPRE_Mask) != (uint32_t)RESET)
    3328:	400217b7          	lui	a5,0x40021
    332c:	43d8                	lw	a4,4(a5)
    332e:	000207b7          	lui	a5,0x20
    3332:	8ff9                	and	a5,a5,a4
    3334:	cf89                	beqz	a5,334e <RCC_GetClocksFreq+0x162>
D:/projects/mechanical_arm/Firmware/CarMainControl/libraries/sdk/Peripheral/ch32v30x_rcc.c:537
          {
            RCC_Clocks->SYSCLK_Frequency = (HSE_VALUE >> 1) * pllmull;
    3336:	fec42703          	lw	a4,-20(s0)
    333a:	003d17b7          	lui	a5,0x3d1
    333e:	90078793          	addi	a5,a5,-1792 # 3d0900 <_data_lma+0x3c642c>
    3342:	02f70733          	mul	a4,a4,a5
    3346:	fcc42783          	lw	a5,-52(s0)
    334a:	c398                	sw	a4,0(a5)
    334c:	a821                	j	3364 <RCC_GetClocksFreq+0x178>
D:/projects/mechanical_arm/Firmware/CarMainControl/libraries/sdk/Peripheral/ch32v30x_rcc.c:541
          }
          else
          {
            RCC_Clocks->SYSCLK_Frequency = HSE_VALUE * pllmull;
    334e:	fec42703          	lw	a4,-20(s0)
    3352:	007a17b7          	lui	a5,0x7a1
    3356:	20078793          	addi	a5,a5,512 # 7a1200 <_data_lma+0x796d2c>
    335a:	02f70733          	mul	a4,a4,a5
    335e:	fcc42783          	lw	a5,-52(s0)
    3362:	c398                	sw	a4,0(a5)
D:/projects/mechanical_arm/Firmware/CarMainControl/libraries/sdk/Peripheral/ch32v30x_rcc.c:545
          }
        }

        if(Pll_6_5 == 1) RCC_Clocks->SYSCLK_Frequency = (RCC_Clocks->SYSCLK_Frequency / 2);
    3364:	fe842703          	lw	a4,-24(s0)
    3368:	4785                	li	a5,1
    336a:	02f71363          	bne	a4,a5,3390 <RCC_GetClocksFreq+0x1a4>
D:/projects/mechanical_arm/Firmware/CarMainControl/libraries/sdk/Peripheral/ch32v30x_rcc.c:545 (discriminator 1)
    336e:	fcc42783          	lw	a5,-52(s0)
    3372:	439c                	lw	a5,0(a5)
    3374:	0017d713          	srli	a4,a5,0x1
    3378:	fcc42783          	lw	a5,-52(s0)
    337c:	c398                	sw	a4,0(a5)
D:/projects/mechanical_arm/Firmware/CarMainControl/libraries/sdk/Peripheral/ch32v30x_rcc.c:547 (discriminator 1)

        break;
    337e:	a809                	j	3390 <RCC_GetClocksFreq+0x1a4>
D:/projects/mechanical_arm/Firmware/CarMainControl/libraries/sdk/Peripheral/ch32v30x_rcc.c:550

      default:
        RCC_Clocks->SYSCLK_Frequency = HSI_VALUE;
    3380:	fcc42783          	lw	a5,-52(s0)
    3384:	007a1737          	lui	a4,0x7a1
    3388:	20070713          	addi	a4,a4,512 # 7a1200 <_data_lma+0x796d2c>
    338c:	c398                	sw	a4,0(a5)
D:/projects/mechanical_arm/Firmware/CarMainControl/libraries/sdk/Peripheral/ch32v30x_rcc.c:551
        break;
    338e:	a011                	j	3392 <RCC_GetClocksFreq+0x1a6>
D:/projects/mechanical_arm/Firmware/CarMainControl/libraries/sdk/Peripheral/ch32v30x_rcc.c:547
        break;
    3390:	0001                	nop
D:/projects/mechanical_arm/Firmware/CarMainControl/libraries/sdk/Peripheral/ch32v30x_rcc.c:554
    }

    tmp = RCC->CFGR0 & CFGR0_HPRE_Set_Mask;
    3392:	400217b7          	lui	a5,0x40021
    3396:	43dc                	lw	a5,4(a5)
    3398:	0f07f793          	andi	a5,a5,240
    339c:	fef42223          	sw	a5,-28(s0)
D:/projects/mechanical_arm/Firmware/CarMainControl/libraries/sdk/Peripheral/ch32v30x_rcc.c:555
    tmp = tmp >> 4;
    33a0:	fe442783          	lw	a5,-28(s0)
    33a4:	8391                	srli	a5,a5,0x4
    33a6:	fef42223          	sw	a5,-28(s0)
D:/projects/mechanical_arm/Firmware/CarMainControl/libraries/sdk/Peripheral/ch32v30x_rcc.c:556
    presc = APBAHBPrescTable[tmp];
    33aa:	200007b7          	lui	a5,0x20000
    33ae:	00078713          	mv	a4,a5
    33b2:	fe442783          	lw	a5,-28(s0)
    33b6:	97ba                	add	a5,a5,a4
    33b8:	0007c783          	lbu	a5,0(a5) # 20000000 <_data_vma>
    33bc:	0ff7f793          	andi	a5,a5,255
    33c0:	fcf42e23          	sw	a5,-36(s0)
D:/projects/mechanical_arm/Firmware/CarMainControl/libraries/sdk/Peripheral/ch32v30x_rcc.c:557
    RCC_Clocks->HCLK_Frequency = RCC_Clocks->SYSCLK_Frequency >> presc;
    33c4:	fcc42783          	lw	a5,-52(s0)
    33c8:	4398                	lw	a4,0(a5)
    33ca:	fdc42783          	lw	a5,-36(s0)
    33ce:	00f75733          	srl	a4,a4,a5
    33d2:	fcc42783          	lw	a5,-52(s0)
    33d6:	c3d8                	sw	a4,4(a5)
D:/projects/mechanical_arm/Firmware/CarMainControl/libraries/sdk/Peripheral/ch32v30x_rcc.c:558
    tmp = RCC->CFGR0 & CFGR0_PPRE1_Set_Mask;
    33d8:	400217b7          	lui	a5,0x40021
    33dc:	43dc                	lw	a5,4(a5)
    33de:	7007f793          	andi	a5,a5,1792
    33e2:	fef42223          	sw	a5,-28(s0)
D:/projects/mechanical_arm/Firmware/CarMainControl/libraries/sdk/Peripheral/ch32v30x_rcc.c:559
    tmp = tmp >> 8;
    33e6:	fe442783          	lw	a5,-28(s0)
    33ea:	83a1                	srli	a5,a5,0x8
    33ec:	fef42223          	sw	a5,-28(s0)
D:/projects/mechanical_arm/Firmware/CarMainControl/libraries/sdk/Peripheral/ch32v30x_rcc.c:560
    presc = APBAHBPrescTable[tmp];
    33f0:	200007b7          	lui	a5,0x20000
    33f4:	00078713          	mv	a4,a5
    33f8:	fe442783          	lw	a5,-28(s0)
    33fc:	97ba                	add	a5,a5,a4
    33fe:	0007c783          	lbu	a5,0(a5) # 20000000 <_data_vma>
    3402:	0ff7f793          	andi	a5,a5,255
    3406:	fcf42e23          	sw	a5,-36(s0)
D:/projects/mechanical_arm/Firmware/CarMainControl/libraries/sdk/Peripheral/ch32v30x_rcc.c:561
    RCC_Clocks->PCLK1_Frequency = RCC_Clocks->HCLK_Frequency >> presc;
    340a:	fcc42783          	lw	a5,-52(s0)
    340e:	43d8                	lw	a4,4(a5)
    3410:	fdc42783          	lw	a5,-36(s0)
    3414:	00f75733          	srl	a4,a4,a5
    3418:	fcc42783          	lw	a5,-52(s0)
    341c:	c798                	sw	a4,8(a5)
D:/projects/mechanical_arm/Firmware/CarMainControl/libraries/sdk/Peripheral/ch32v30x_rcc.c:562
    tmp = RCC->CFGR0 & CFGR0_PPRE2_Set_Mask;
    341e:	400217b7          	lui	a5,0x40021
    3422:	43d8                	lw	a4,4(a5)
    3424:	6791                	lui	a5,0x4
    3426:	80078793          	addi	a5,a5,-2048 # 3800 <TIM_GetITStatus+0x6e>
    342a:	8ff9                	and	a5,a5,a4
    342c:	fef42223          	sw	a5,-28(s0)
D:/projects/mechanical_arm/Firmware/CarMainControl/libraries/sdk/Peripheral/ch32v30x_rcc.c:563
    tmp = tmp >> 11;
    3430:	fe442783          	lw	a5,-28(s0)
    3434:	83ad                	srli	a5,a5,0xb
    3436:	fef42223          	sw	a5,-28(s0)
D:/projects/mechanical_arm/Firmware/CarMainControl/libraries/sdk/Peripheral/ch32v30x_rcc.c:564
    presc = APBAHBPrescTable[tmp];
    343a:	200007b7          	lui	a5,0x20000
    343e:	00078713          	mv	a4,a5
    3442:	fe442783          	lw	a5,-28(s0)
    3446:	97ba                	add	a5,a5,a4
    3448:	0007c783          	lbu	a5,0(a5) # 20000000 <_data_vma>
    344c:	0ff7f793          	andi	a5,a5,255
    3450:	fcf42e23          	sw	a5,-36(s0)
D:/projects/mechanical_arm/Firmware/CarMainControl/libraries/sdk/Peripheral/ch32v30x_rcc.c:565
    RCC_Clocks->PCLK2_Frequency = RCC_Clocks->HCLK_Frequency >> presc;
    3454:	fcc42783          	lw	a5,-52(s0)
    3458:	43d8                	lw	a4,4(a5)
    345a:	fdc42783          	lw	a5,-36(s0)
    345e:	00f75733          	srl	a4,a4,a5
    3462:	fcc42783          	lw	a5,-52(s0)
    3466:	c7d8                	sw	a4,12(a5)
D:/projects/mechanical_arm/Firmware/CarMainControl/libraries/sdk/Peripheral/ch32v30x_rcc.c:566
    tmp = RCC->CFGR0 & CFGR0_ADCPRE_Set_Mask;
    3468:	400217b7          	lui	a5,0x40021
    346c:	43d8                	lw	a4,4(a5)
    346e:	67b1                	lui	a5,0xc
    3470:	8ff9                	and	a5,a5,a4
    3472:	fef42223          	sw	a5,-28(s0)
D:/projects/mechanical_arm/Firmware/CarMainControl/libraries/sdk/Peripheral/ch32v30x_rcc.c:567
    tmp = tmp >> 14;
    3476:	fe442783          	lw	a5,-28(s0)
    347a:	83b9                	srli	a5,a5,0xe
    347c:	fef42223          	sw	a5,-28(s0)
D:/projects/mechanical_arm/Firmware/CarMainControl/libraries/sdk/Peripheral/ch32v30x_rcc.c:568
    presc = ADCPrescTable[tmp];
    3480:	80818713          	addi	a4,gp,-2040 # 20000228 <ADCPrescTable>
    3484:	fe442783          	lw	a5,-28(s0)
    3488:	97ba                	add	a5,a5,a4
    348a:	0007c783          	lbu	a5,0(a5) # c000 <_data_lma+0x1b2c>
    348e:	0ff7f793          	andi	a5,a5,255
    3492:	fcf42e23          	sw	a5,-36(s0)
D:/projects/mechanical_arm/Firmware/CarMainControl/libraries/sdk/Peripheral/ch32v30x_rcc.c:569
    RCC_Clocks->ADCCLK_Frequency = RCC_Clocks->PCLK2_Frequency / presc;
    3496:	fcc42783          	lw	a5,-52(s0)
    349a:	47d8                	lw	a4,12(a5)
    349c:	fdc42783          	lw	a5,-36(s0)
    34a0:	02f75733          	divu	a4,a4,a5
    34a4:	fcc42783          	lw	a5,-52(s0)
    34a8:	cb98                	sw	a4,16(a5)
D:/projects/mechanical_arm/Firmware/CarMainControl/libraries/sdk/Peripheral/ch32v30x_rcc.c:570
}
    34aa:	0001                	nop
    34ac:	5472                	lw	s0,60(sp)
    34ae:	6121                	addi	sp,sp,64
    34b0:	8082                	ret

000034b2 <RCC_APB2PeriphClockCmd>:
RCC_APB2PeriphClockCmd():
D:/projects/mechanical_arm/Firmware/CarMainControl/libraries/sdk/Peripheral/ch32v30x_rcc.c:627
*                    RCC_APB2Periph_USART1.
*                  NewState: ENABLE or DISABLE
* Return         : None
*******************************************************************************/	
void RCC_APB2PeriphClockCmd(uint32_t RCC_APB2Periph, FunctionalState NewState)
{
    34b2:	1101                	addi	sp,sp,-32
    34b4:	ce22                	sw	s0,28(sp)
    34b6:	1000                	addi	s0,sp,32
    34b8:	fea42623          	sw	a0,-20(s0)
    34bc:	feb42423          	sw	a1,-24(s0)
D:/projects/mechanical_arm/Firmware/CarMainControl/libraries/sdk/Peripheral/ch32v30x_rcc.c:628
  if (NewState != DISABLE)
    34c0:	fe842783          	lw	a5,-24(s0)
    34c4:	cb99                	beqz	a5,34da <RCC_APB2PeriphClockCmd+0x28>
D:/projects/mechanical_arm/Firmware/CarMainControl/libraries/sdk/Peripheral/ch32v30x_rcc.c:630
  {
    RCC->APB2PCENR |= RCC_APB2Periph;
    34c6:	400217b7          	lui	a5,0x40021
    34ca:	4f94                	lw	a3,24(a5)
    34cc:	400217b7          	lui	a5,0x40021
    34d0:	fec42703          	lw	a4,-20(s0)
    34d4:	8f55                	or	a4,a4,a3
    34d6:	cf98                	sw	a4,24(a5)
D:/projects/mechanical_arm/Firmware/CarMainControl/libraries/sdk/Peripheral/ch32v30x_rcc.c:636
  }
  else
  {
    RCC->APB2PCENR &= ~RCC_APB2Periph;
  }
}
    34d8:	a821                	j	34f0 <RCC_APB2PeriphClockCmd+0x3e>
D:/projects/mechanical_arm/Firmware/CarMainControl/libraries/sdk/Peripheral/ch32v30x_rcc.c:634
    RCC->APB2PCENR &= ~RCC_APB2Periph;
    34da:	400217b7          	lui	a5,0x40021
    34de:	4f94                	lw	a3,24(a5)
    34e0:	fec42783          	lw	a5,-20(s0)
    34e4:	fff7c713          	not	a4,a5
    34e8:	400217b7          	lui	a5,0x40021
    34ec:	8f75                	and	a4,a4,a3
    34ee:	cf98                	sw	a4,24(a5)
D:/projects/mechanical_arm/Firmware/CarMainControl/libraries/sdk/Peripheral/ch32v30x_rcc.c:636
}
    34f0:	0001                	nop
    34f2:	4472                	lw	s0,28(sp)
    34f4:	6105                	addi	sp,sp,32
    34f6:	8082                	ret

000034f8 <RCC_APB1PeriphClockCmd>:
RCC_APB1PeriphClockCmd():
D:/projects/mechanical_arm/Firmware/CarMainControl/libraries/sdk/Peripheral/ch32v30x_rcc.c:668
*                    RCC_APB1Periph_DAC.                
*                  NewState: ENABLE or DISABLE.
* Return         : None
*******************************************************************************/	
void RCC_APB1PeriphClockCmd(uint32_t RCC_APB1Periph, FunctionalState NewState)
{
    34f8:	1101                	addi	sp,sp,-32
    34fa:	ce22                	sw	s0,28(sp)
    34fc:	1000                	addi	s0,sp,32
    34fe:	fea42623          	sw	a0,-20(s0)
    3502:	feb42423          	sw	a1,-24(s0)
D:/projects/mechanical_arm/Firmware/CarMainControl/libraries/sdk/Peripheral/ch32v30x_rcc.c:669
  if (NewState != DISABLE)
    3506:	fe842783          	lw	a5,-24(s0)
    350a:	cb99                	beqz	a5,3520 <RCC_APB1PeriphClockCmd+0x28>
D:/projects/mechanical_arm/Firmware/CarMainControl/libraries/sdk/Peripheral/ch32v30x_rcc.c:671
  {
    RCC->APB1PCENR |= RCC_APB1Periph;
    350c:	400217b7          	lui	a5,0x40021
    3510:	4fd4                	lw	a3,28(a5)
    3512:	400217b7          	lui	a5,0x40021
    3516:	fec42703          	lw	a4,-20(s0)
    351a:	8f55                	or	a4,a4,a3
    351c:	cfd8                	sw	a4,28(a5)
D:/projects/mechanical_arm/Firmware/CarMainControl/libraries/sdk/Peripheral/ch32v30x_rcc.c:677
  }
  else
  {
    RCC->APB1PCENR &= ~RCC_APB1Periph;
  }
}
    351e:	a821                	j	3536 <RCC_APB1PeriphClockCmd+0x3e>
D:/projects/mechanical_arm/Firmware/CarMainControl/libraries/sdk/Peripheral/ch32v30x_rcc.c:675
    RCC->APB1PCENR &= ~RCC_APB1Periph;
    3520:	400217b7          	lui	a5,0x40021
    3524:	4fd4                	lw	a3,28(a5)
    3526:	fec42783          	lw	a5,-20(s0)
    352a:	fff7c713          	not	a4,a5
    352e:	400217b7          	lui	a5,0x40021
    3532:	8f75                	and	a4,a4,a3
    3534:	cfd8                	sw	a4,28(a5)
D:/projects/mechanical_arm/Firmware/CarMainControl/libraries/sdk/Peripheral/ch32v30x_rcc.c:677
}
    3536:	0001                	nop
    3538:	4472                	lw	s0,28(sp)
    353a:	6105                	addi	sp,sp,32
    353c:	8082                	ret

0000353e <RCC_APB2PeriphResetCmd>:
RCC_APB2PeriphResetCmd():
D:/projects/mechanical_arm/Firmware/CarMainControl/libraries/sdk/Peripheral/ch32v30x_rcc.c:701
*                    RCC_APB2Periph_USART1.                
*                  NewState: ENABLE or DISABLE.
* Return         : None
*******************************************************************************/	
void RCC_APB2PeriphResetCmd(uint32_t RCC_APB2Periph, FunctionalState NewState)
{
    353e:	1101                	addi	sp,sp,-32
    3540:	ce22                	sw	s0,28(sp)
    3542:	1000                	addi	s0,sp,32
    3544:	fea42623          	sw	a0,-20(s0)
    3548:	feb42423          	sw	a1,-24(s0)
D:/projects/mechanical_arm/Firmware/CarMainControl/libraries/sdk/Peripheral/ch32v30x_rcc.c:702
  if (NewState != DISABLE)
    354c:	fe842783          	lw	a5,-24(s0)
    3550:	cb99                	beqz	a5,3566 <RCC_APB2PeriphResetCmd+0x28>
D:/projects/mechanical_arm/Firmware/CarMainControl/libraries/sdk/Peripheral/ch32v30x_rcc.c:704
  {
    RCC->APB2PRSTR |= RCC_APB2Periph;
    3552:	400217b7          	lui	a5,0x40021
    3556:	47d4                	lw	a3,12(a5)
    3558:	400217b7          	lui	a5,0x40021
    355c:	fec42703          	lw	a4,-20(s0)
    3560:	8f55                	or	a4,a4,a3
    3562:	c7d8                	sw	a4,12(a5)
D:/projects/mechanical_arm/Firmware/CarMainControl/libraries/sdk/Peripheral/ch32v30x_rcc.c:710
  }
  else
  {
    RCC->APB2PRSTR &= ~RCC_APB2Periph;
  }
}
    3564:	a821                	j	357c <RCC_APB2PeriphResetCmd+0x3e>
D:/projects/mechanical_arm/Firmware/CarMainControl/libraries/sdk/Peripheral/ch32v30x_rcc.c:708
    RCC->APB2PRSTR &= ~RCC_APB2Periph;
    3566:	400217b7          	lui	a5,0x40021
    356a:	47d4                	lw	a3,12(a5)
    356c:	fec42783          	lw	a5,-20(s0)
    3570:	fff7c713          	not	a4,a5
    3574:	400217b7          	lui	a5,0x40021
    3578:	8f75                	and	a4,a4,a3
    357a:	c7d8                	sw	a4,12(a5)
D:/projects/mechanical_arm/Firmware/CarMainControl/libraries/sdk/Peripheral/ch32v30x_rcc.c:710
}
    357c:	0001                	nop
    357e:	4472                	lw	s0,28(sp)
    3580:	6105                	addi	sp,sp,32
    3582:	8082                	ret

00003584 <RCC_APB1PeriphResetCmd>:
RCC_APB1PeriphResetCmd():
D:/projects/mechanical_arm/Firmware/CarMainControl/libraries/sdk/Peripheral/ch32v30x_rcc.c:742
*                    RCC_APB1Periph_DAC.
*                  NewState: ENABLE or DISABLE.
* Return         : None
*******************************************************************************/	
void RCC_APB1PeriphResetCmd(uint32_t RCC_APB1Periph, FunctionalState NewState)
{
    3584:	1101                	addi	sp,sp,-32
    3586:	ce22                	sw	s0,28(sp)
    3588:	1000                	addi	s0,sp,32
    358a:	fea42623          	sw	a0,-20(s0)
    358e:	feb42423          	sw	a1,-24(s0)
D:/projects/mechanical_arm/Firmware/CarMainControl/libraries/sdk/Peripheral/ch32v30x_rcc.c:743
  if (NewState != DISABLE)
    3592:	fe842783          	lw	a5,-24(s0)
    3596:	cb99                	beqz	a5,35ac <RCC_APB1PeriphResetCmd+0x28>
D:/projects/mechanical_arm/Firmware/CarMainControl/libraries/sdk/Peripheral/ch32v30x_rcc.c:745
  {
    RCC->APB1PRSTR |= RCC_APB1Periph;
    3598:	400217b7          	lui	a5,0x40021
    359c:	4b94                	lw	a3,16(a5)
    359e:	400217b7          	lui	a5,0x40021
    35a2:	fec42703          	lw	a4,-20(s0)
    35a6:	8f55                	or	a4,a4,a3
    35a8:	cb98                	sw	a4,16(a5)
D:/projects/mechanical_arm/Firmware/CarMainControl/libraries/sdk/Peripheral/ch32v30x_rcc.c:751
  }
  else
  {
    RCC->APB1PRSTR &= ~RCC_APB1Periph;
  }
}
    35aa:	a821                	j	35c2 <RCC_APB1PeriphResetCmd+0x3e>
D:/projects/mechanical_arm/Firmware/CarMainControl/libraries/sdk/Peripheral/ch32v30x_rcc.c:749
    RCC->APB1PRSTR &= ~RCC_APB1Periph;
    35ac:	400217b7          	lui	a5,0x40021
    35b0:	4b94                	lw	a3,16(a5)
    35b2:	fec42783          	lw	a5,-20(s0)
    35b6:	fff7c713          	not	a4,a5
    35ba:	400217b7          	lui	a5,0x40021
    35be:	8f75                	and	a4,a4,a3
    35c0:	cb98                	sw	a4,16(a5)
D:/projects/mechanical_arm/Firmware/CarMainControl/libraries/sdk/Peripheral/ch32v30x_rcc.c:751
}
    35c2:	0001                	nop
    35c4:	4472                	lw	s0,28(sp)
    35c6:	6105                	addi	sp,sp,32
    35c8:	8082                	ret

000035ca <SPI_I2S_DeInit>:
SPI_I2S_DeInit():
D:/projects/mechanical_arm/Firmware/CarMainControl/libraries/sdk/Peripheral/ch32v30x_spi.c:52
*      reset values (Affects also the I2Ss).
* Input          : SPIx: where x can be 1, 2 or 3 to select the SPI peripheral.
* Return         : None
*******************************************************************************/
void SPI_I2S_DeInit(SPI_TypeDef* SPIx)
{
    35ca:	1101                	addi	sp,sp,-32
    35cc:	ce06                	sw	ra,28(sp)
    35ce:	cc22                	sw	s0,24(sp)
    35d0:	1000                	addi	s0,sp,32
    35d2:	fea42623          	sw	a0,-20(s0)
D:/projects/mechanical_arm/Firmware/CarMainControl/libraries/sdk/Peripheral/ch32v30x_spi.c:53
  if (SPIx == SPI1)
    35d6:	fec42703          	lw	a4,-20(s0)
    35da:	400137b7          	lui	a5,0x40013
    35de:	00f71b63          	bne	a4,a5,35f4 <SPI_I2S_DeInit+0x2a>
D:/projects/mechanical_arm/Firmware/CarMainControl/libraries/sdk/Peripheral/ch32v30x_spi.c:55
  {
    RCC_APB2PeriphResetCmd(RCC_APB2Periph_SPI1, ENABLE);
    35e2:	4585                	li	a1,1
    35e4:	6505                	lui	a0,0x1
    35e6:	f59ff0ef          	jal	ra,353e <RCC_APB2PeriphResetCmd>
D:/projects/mechanical_arm/Firmware/CarMainControl/libraries/sdk/Peripheral/ch32v30x_spi.c:56
    RCC_APB2PeriphResetCmd(RCC_APB2Periph_SPI1, DISABLE);
    35ea:	4581                	li	a1,0
    35ec:	6505                	lui	a0,0x1
    35ee:	f51ff0ef          	jal	ra,353e <RCC_APB2PeriphResetCmd>
D:/projects/mechanical_arm/Firmware/CarMainControl/libraries/sdk/Peripheral/ch32v30x_spi.c:71
    {
      RCC_APB1PeriphResetCmd(RCC_APB1Periph_SPI3, ENABLE);
      RCC_APB1PeriphResetCmd(RCC_APB1Periph_SPI3, DISABLE);
    }
  }
}
    35f2:	a091                	j	3636 <SPI_I2S_DeInit+0x6c>
D:/projects/mechanical_arm/Firmware/CarMainControl/libraries/sdk/Peripheral/ch32v30x_spi.c:58
  else if (SPIx == SPI2)
    35f4:	fec42703          	lw	a4,-20(s0)
    35f8:	400047b7          	lui	a5,0x40004
    35fc:	80078793          	addi	a5,a5,-2048 # 40003800 <_eusrstack+0x1fff3800>
    3600:	00f71b63          	bne	a4,a5,3616 <SPI_I2S_DeInit+0x4c>
D:/projects/mechanical_arm/Firmware/CarMainControl/libraries/sdk/Peripheral/ch32v30x_spi.c:60
    RCC_APB1PeriphResetCmd(RCC_APB1Periph_SPI2, ENABLE);
    3604:	4585                	li	a1,1
    3606:	6511                	lui	a0,0x4
    3608:	f7dff0ef          	jal	ra,3584 <RCC_APB1PeriphResetCmd>
D:/projects/mechanical_arm/Firmware/CarMainControl/libraries/sdk/Peripheral/ch32v30x_spi.c:61
    RCC_APB1PeriphResetCmd(RCC_APB1Periph_SPI2, DISABLE);
    360c:	4581                	li	a1,0
    360e:	6511                	lui	a0,0x4
    3610:	f75ff0ef          	jal	ra,3584 <RCC_APB1PeriphResetCmd>
D:/projects/mechanical_arm/Firmware/CarMainControl/libraries/sdk/Peripheral/ch32v30x_spi.c:71
}
    3614:	a00d                	j	3636 <SPI_I2S_DeInit+0x6c>
D:/projects/mechanical_arm/Firmware/CarMainControl/libraries/sdk/Peripheral/ch32v30x_spi.c:65
    if (SPIx == SPI3)
    3616:	fec42703          	lw	a4,-20(s0)
    361a:	400047b7          	lui	a5,0x40004
    361e:	c0078793          	addi	a5,a5,-1024 # 40003c00 <_eusrstack+0x1fff3c00>
    3622:	00f71a63          	bne	a4,a5,3636 <SPI_I2S_DeInit+0x6c>
D:/projects/mechanical_arm/Firmware/CarMainControl/libraries/sdk/Peripheral/ch32v30x_spi.c:67
      RCC_APB1PeriphResetCmd(RCC_APB1Periph_SPI3, ENABLE);
    3626:	4585                	li	a1,1
    3628:	6521                	lui	a0,0x8
    362a:	f5bff0ef          	jal	ra,3584 <RCC_APB1PeriphResetCmd>
D:/projects/mechanical_arm/Firmware/CarMainControl/libraries/sdk/Peripheral/ch32v30x_spi.c:68
      RCC_APB1PeriphResetCmd(RCC_APB1Periph_SPI3, DISABLE);
    362e:	4581                	li	a1,0
    3630:	6521                	lui	a0,0x8
    3632:	f53ff0ef          	jal	ra,3584 <RCC_APB1PeriphResetCmd>
D:/projects/mechanical_arm/Firmware/CarMainControl/libraries/sdk/Peripheral/ch32v30x_spi.c:71
}
    3636:	0001                	nop
    3638:	40f2                	lw	ra,28(sp)
    363a:	4462                	lw	s0,24(sp)
    363c:	6105                	addi	sp,sp,32
    363e:	8082                	ret

00003640 <SPI_Init>:
SPI_Init():
D:/projects/mechanical_arm/Firmware/CarMainControl/libraries/sdk/Peripheral/ch32v30x_spi.c:83
*                  SPI_InitStruct: pointer to a SPI_InitTypeDef structure that
*      contains the configuration information for the specified SPI peripheral.
* Return         : None
*******************************************************************************/
void SPI_Init(SPI_TypeDef* SPIx, SPI_InitTypeDef* SPI_InitStruct)
{
    3640:	7179                	addi	sp,sp,-48
    3642:	d622                	sw	s0,44(sp)
    3644:	1800                	addi	s0,sp,48
    3646:	fca42e23          	sw	a0,-36(s0)
    364a:	fcb42c23          	sw	a1,-40(s0)
D:/projects/mechanical_arm/Firmware/CarMainControl/libraries/sdk/Peripheral/ch32v30x_spi.c:84
  uint16_t tmpreg = 0;
    364e:	fe041723          	sh	zero,-18(s0)
D:/projects/mechanical_arm/Firmware/CarMainControl/libraries/sdk/Peripheral/ch32v30x_spi.c:86
  
  tmpreg = SPIx->CTLR1;
    3652:	fdc42783          	lw	a5,-36(s0)
    3656:	0007d783          	lhu	a5,0(a5)
    365a:	fef41723          	sh	a5,-18(s0)
D:/projects/mechanical_arm/Firmware/CarMainControl/libraries/sdk/Peripheral/ch32v30x_spi.c:87
  tmpreg &= CTLR1_CLEAR_Mask;
    365e:	fee45703          	lhu	a4,-18(s0)
    3662:	678d                	lui	a5,0x3
    3664:	04078793          	addi	a5,a5,64 # 3040 <GPIO_Init+0x1f2>
    3668:	8ff9                	and	a5,a5,a4
    366a:	fef41723          	sh	a5,-18(s0)
D:/projects/mechanical_arm/Firmware/CarMainControl/libraries/sdk/Peripheral/ch32v30x_spi.c:88
  tmpreg |= (uint16_t)((uint32_t)SPI_InitStruct->SPI_Direction | SPI_InitStruct->SPI_Mode |
    366e:	fd842783          	lw	a5,-40(s0)
    3672:	0007d703          	lhu	a4,0(a5)
    3676:	fd842783          	lw	a5,-40(s0)
    367a:	0027d783          	lhu	a5,2(a5)
    367e:	8fd9                	or	a5,a5,a4
    3680:	01079713          	slli	a4,a5,0x10
    3684:	8341                	srli	a4,a4,0x10
D:/projects/mechanical_arm/Firmware/CarMainControl/libraries/sdk/Peripheral/ch32v30x_spi.c:89
                  SPI_InitStruct->SPI_DataSize | SPI_InitStruct->SPI_CPOL |  
    3686:	fd842783          	lw	a5,-40(s0)
    368a:	0047d783          	lhu	a5,4(a5)
D:/projects/mechanical_arm/Firmware/CarMainControl/libraries/sdk/Peripheral/ch32v30x_spi.c:88
  tmpreg |= (uint16_t)((uint32_t)SPI_InitStruct->SPI_Direction | SPI_InitStruct->SPI_Mode |
    368e:	8fd9                	or	a5,a5,a4
    3690:	01079713          	slli	a4,a5,0x10
    3694:	8341                	srli	a4,a4,0x10
D:/projects/mechanical_arm/Firmware/CarMainControl/libraries/sdk/Peripheral/ch32v30x_spi.c:89
                  SPI_InitStruct->SPI_DataSize | SPI_InitStruct->SPI_CPOL |  
    3696:	fd842783          	lw	a5,-40(s0)
    369a:	0067d783          	lhu	a5,6(a5)
D:/projects/mechanical_arm/Firmware/CarMainControl/libraries/sdk/Peripheral/ch32v30x_spi.c:88
  tmpreg |= (uint16_t)((uint32_t)SPI_InitStruct->SPI_Direction | SPI_InitStruct->SPI_Mode |
    369e:	8fd9                	or	a5,a5,a4
    36a0:	01079713          	slli	a4,a5,0x10
    36a4:	8341                	srli	a4,a4,0x10
D:/projects/mechanical_arm/Firmware/CarMainControl/libraries/sdk/Peripheral/ch32v30x_spi.c:90
                  SPI_InitStruct->SPI_CPHA | SPI_InitStruct->SPI_NSS |  
    36a6:	fd842783          	lw	a5,-40(s0)
    36aa:	0087d783          	lhu	a5,8(a5)
D:/projects/mechanical_arm/Firmware/CarMainControl/libraries/sdk/Peripheral/ch32v30x_spi.c:88
  tmpreg |= (uint16_t)((uint32_t)SPI_InitStruct->SPI_Direction | SPI_InitStruct->SPI_Mode |
    36ae:	8fd9                	or	a5,a5,a4
    36b0:	01079713          	slli	a4,a5,0x10
    36b4:	8341                	srli	a4,a4,0x10
D:/projects/mechanical_arm/Firmware/CarMainControl/libraries/sdk/Peripheral/ch32v30x_spi.c:90
                  SPI_InitStruct->SPI_CPHA | SPI_InitStruct->SPI_NSS |  
    36b6:	fd842783          	lw	a5,-40(s0)
    36ba:	00a7d783          	lhu	a5,10(a5)
D:/projects/mechanical_arm/Firmware/CarMainControl/libraries/sdk/Peripheral/ch32v30x_spi.c:88
  tmpreg |= (uint16_t)((uint32_t)SPI_InitStruct->SPI_Direction | SPI_InitStruct->SPI_Mode |
    36be:	8fd9                	or	a5,a5,a4
    36c0:	01079713          	slli	a4,a5,0x10
    36c4:	8341                	srli	a4,a4,0x10
D:/projects/mechanical_arm/Firmware/CarMainControl/libraries/sdk/Peripheral/ch32v30x_spi.c:91
                  SPI_InitStruct->SPI_BaudRatePrescaler | SPI_InitStruct->SPI_FirstBit);
    36c6:	fd842783          	lw	a5,-40(s0)
    36ca:	00c7d783          	lhu	a5,12(a5)
D:/projects/mechanical_arm/Firmware/CarMainControl/libraries/sdk/Peripheral/ch32v30x_spi.c:88
  tmpreg |= (uint16_t)((uint32_t)SPI_InitStruct->SPI_Direction | SPI_InitStruct->SPI_Mode |
    36ce:	8fd9                	or	a5,a5,a4
    36d0:	01079713          	slli	a4,a5,0x10
    36d4:	8341                	srli	a4,a4,0x10
D:/projects/mechanical_arm/Firmware/CarMainControl/libraries/sdk/Peripheral/ch32v30x_spi.c:91
                  SPI_InitStruct->SPI_BaudRatePrescaler | SPI_InitStruct->SPI_FirstBit);
    36d6:	fd842783          	lw	a5,-40(s0)
    36da:	00e7d783          	lhu	a5,14(a5)
D:/projects/mechanical_arm/Firmware/CarMainControl/libraries/sdk/Peripheral/ch32v30x_spi.c:88
  tmpreg |= (uint16_t)((uint32_t)SPI_InitStruct->SPI_Direction | SPI_InitStruct->SPI_Mode |
    36de:	8fd9                	or	a5,a5,a4
    36e0:	01079713          	slli	a4,a5,0x10
    36e4:	8341                	srli	a4,a4,0x10
    36e6:	fee45783          	lhu	a5,-18(s0)
    36ea:	8fd9                	or	a5,a5,a4
    36ec:	fef41723          	sh	a5,-18(s0)
D:/projects/mechanical_arm/Firmware/CarMainControl/libraries/sdk/Peripheral/ch32v30x_spi.c:93

  SPIx->CTLR1 = tmpreg;
    36f0:	fdc42783          	lw	a5,-36(s0)
    36f4:	fee45703          	lhu	a4,-18(s0)
    36f8:	00e79023          	sh	a4,0(a5)
D:/projects/mechanical_arm/Firmware/CarMainControl/libraries/sdk/Peripheral/ch32v30x_spi.c:94
  SPIx->I2SCFGR &= SPI_Mode_Select;		
    36fc:	fdc42783          	lw	a5,-36(s0)
    3700:	01c7d783          	lhu	a5,28(a5)
    3704:	01079713          	slli	a4,a5,0x10
    3708:	8341                	srli	a4,a4,0x10
    370a:	77fd                	lui	a5,0xfffff
    370c:	7ff78793          	addi	a5,a5,2047 # fffff7ff <_eusrstack+0xdffef7ff>
    3710:	8ff9                	and	a5,a5,a4
    3712:	01079713          	slli	a4,a5,0x10
    3716:	8341                	srli	a4,a4,0x10
    3718:	fdc42783          	lw	a5,-36(s0)
    371c:	00e79e23          	sh	a4,28(a5)
D:/projects/mechanical_arm/Firmware/CarMainControl/libraries/sdk/Peripheral/ch32v30x_spi.c:95
  SPIx->CRCR = SPI_InitStruct->SPI_CRCPolynomial;
    3720:	fd842783          	lw	a5,-40(s0)
    3724:	0107d703          	lhu	a4,16(a5)
    3728:	fdc42783          	lw	a5,-36(s0)
    372c:	00e79823          	sh	a4,16(a5)
D:/projects/mechanical_arm/Firmware/CarMainControl/libraries/sdk/Peripheral/ch32v30x_spi.c:96
}
    3730:	0001                	nop
    3732:	5432                	lw	s0,44(sp)
    3734:	6145                	addi	sp,sp,48
    3736:	8082                	ret

00003738 <SPI_Cmd>:
SPI_Cmd():
D:/projects/mechanical_arm/Firmware/CarMainControl/libraries/sdk/Peripheral/ch32v30x_spi.c:221
* Input          : SPIx: where x can be 1, 2 or 3 to select the SPI peripheral.
*                  NewState: ENABLE or DISABLE.
* Return         : None
*******************************************************************************/
void SPI_Cmd(SPI_TypeDef* SPIx, FunctionalState NewState)
{
    3738:	1101                	addi	sp,sp,-32
    373a:	ce22                	sw	s0,28(sp)
    373c:	1000                	addi	s0,sp,32
    373e:	fea42623          	sw	a0,-20(s0)
    3742:	feb42423          	sw	a1,-24(s0)
D:/projects/mechanical_arm/Firmware/CarMainControl/libraries/sdk/Peripheral/ch32v30x_spi.c:222
  if (NewState != DISABLE)
    3746:	fe842783          	lw	a5,-24(s0)
    374a:	c38d                	beqz	a5,376c <SPI_Cmd+0x34>
D:/projects/mechanical_arm/Firmware/CarMainControl/libraries/sdk/Peripheral/ch32v30x_spi.c:224
  {
    SPIx->CTLR1 |= CTLR1_SPE_Set;
    374c:	fec42783          	lw	a5,-20(s0)
    3750:	0007d783          	lhu	a5,0(a5)
    3754:	07c2                	slli	a5,a5,0x10
    3756:	83c1                	srli	a5,a5,0x10
    3758:	0407e793          	ori	a5,a5,64
    375c:	01079713          	slli	a4,a5,0x10
    3760:	8341                	srli	a4,a4,0x10
    3762:	fec42783          	lw	a5,-20(s0)
    3766:	00e79023          	sh	a4,0(a5)
D:/projects/mechanical_arm/Firmware/CarMainControl/libraries/sdk/Peripheral/ch32v30x_spi.c:230
  }
  else
  {
    SPIx->CTLR1 &= CTLR1_SPE_Reset;
  }
}
    376a:	a005                	j	378a <SPI_Cmd+0x52>
D:/projects/mechanical_arm/Firmware/CarMainControl/libraries/sdk/Peripheral/ch32v30x_spi.c:228
    SPIx->CTLR1 &= CTLR1_SPE_Reset;
    376c:	fec42783          	lw	a5,-20(s0)
    3770:	0007d783          	lhu	a5,0(a5)
    3774:	07c2                	slli	a5,a5,0x10
    3776:	83c1                	srli	a5,a5,0x10
    3778:	fbf7f793          	andi	a5,a5,-65
    377c:	01079713          	slli	a4,a5,0x10
    3780:	8341                	srli	a4,a4,0x10
    3782:	fec42783          	lw	a5,-20(s0)
    3786:	00e79023          	sh	a4,0(a5)
D:/projects/mechanical_arm/Firmware/CarMainControl/libraries/sdk/Peripheral/ch32v30x_spi.c:230
}
    378a:	0001                	nop
    378c:	4472                	lw	s0,28(sp)
    378e:	6105                	addi	sp,sp,32
    3790:	8082                	ret

00003792 <TIM_GetITStatus>:
TIM_GetITStatus():
D:/projects/mechanical_arm/Firmware/CarMainControl/libraries/sdk/Peripheral/ch32v30x_tim.c:1887
*                    TIM_IT_Trigger: TIM Trigger Interrupt source.
*                    TIM_IT_Break: TIM Break Interrupt source.
* Return         : bitstatus: SET or RESET.
*******************************************************************************/
ITStatus TIM_GetITStatus(TIM_TypeDef* TIMx, uint16_t TIM_IT)
{
    3792:	7179                	addi	sp,sp,-48
    3794:	d622                	sw	s0,44(sp)
    3796:	1800                	addi	s0,sp,48
    3798:	fca42e23          	sw	a0,-36(s0)
    379c:	87ae                	mv	a5,a1
    379e:	fcf41d23          	sh	a5,-38(s0)
D:/projects/mechanical_arm/Firmware/CarMainControl/libraries/sdk/Peripheral/ch32v30x_tim.c:1888
  ITStatus bitstatus = RESET;  
    37a2:	fe042623          	sw	zero,-20(s0)
D:/projects/mechanical_arm/Firmware/CarMainControl/libraries/sdk/Peripheral/ch32v30x_tim.c:1889
  uint16_t itstatus = 0x0, itenable = 0x0;
    37a6:	fe041523          	sh	zero,-22(s0)
    37aa:	fe041423          	sh	zero,-24(s0)
D:/projects/mechanical_arm/Firmware/CarMainControl/libraries/sdk/Peripheral/ch32v30x_tim.c:1891
   
  itstatus = TIMx->INTFR & TIM_IT;
    37ae:	fdc42783          	lw	a5,-36(s0)
    37b2:	0107d783          	lhu	a5,16(a5)
    37b6:	01079713          	slli	a4,a5,0x10
    37ba:	8341                	srli	a4,a4,0x10
    37bc:	fda45783          	lhu	a5,-38(s0)
    37c0:	8ff9                	and	a5,a5,a4
    37c2:	fef41523          	sh	a5,-22(s0)
D:/projects/mechanical_arm/Firmware/CarMainControl/libraries/sdk/Peripheral/ch32v30x_tim.c:1893
  
  itenable = TIMx->DMAINTENR & TIM_IT;
    37c6:	fdc42783          	lw	a5,-36(s0)
    37ca:	00c7d783          	lhu	a5,12(a5)
    37ce:	01079713          	slli	a4,a5,0x10
    37d2:	8341                	srli	a4,a4,0x10
    37d4:	fda45783          	lhu	a5,-38(s0)
    37d8:	8ff9                	and	a5,a5,a4
    37da:	fef41423          	sh	a5,-24(s0)
D:/projects/mechanical_arm/Firmware/CarMainControl/libraries/sdk/Peripheral/ch32v30x_tim.c:1894
  if ((itstatus != (uint16_t)RESET) && (itenable != (uint16_t)RESET))
    37de:	fea45783          	lhu	a5,-22(s0)
    37e2:	cb81                	beqz	a5,37f2 <TIM_GetITStatus+0x60>
D:/projects/mechanical_arm/Firmware/CarMainControl/libraries/sdk/Peripheral/ch32v30x_tim.c:1894 (discriminator 1)
    37e4:	fe845783          	lhu	a5,-24(s0)
    37e8:	c789                	beqz	a5,37f2 <TIM_GetITStatus+0x60>
D:/projects/mechanical_arm/Firmware/CarMainControl/libraries/sdk/Peripheral/ch32v30x_tim.c:1896
  {
    bitstatus = SET;
    37ea:	4785                	li	a5,1
    37ec:	fef42623          	sw	a5,-20(s0)
    37f0:	a019                	j	37f6 <TIM_GetITStatus+0x64>
D:/projects/mechanical_arm/Firmware/CarMainControl/libraries/sdk/Peripheral/ch32v30x_tim.c:1900
  }
  else
  {
    bitstatus = RESET;
    37f2:	fe042623          	sw	zero,-20(s0)
D:/projects/mechanical_arm/Firmware/CarMainControl/libraries/sdk/Peripheral/ch32v30x_tim.c:1903
  }
	
  return bitstatus;
    37f6:	fec42783          	lw	a5,-20(s0)
D:/projects/mechanical_arm/Firmware/CarMainControl/libraries/sdk/Peripheral/ch32v30x_tim.c:1904
}
    37fa:	853e                	mv	a0,a5
    37fc:	5432                	lw	s0,44(sp)
    37fe:	6145                	addi	sp,sp,48
    3800:	8082                	ret

00003802 <TIM_ClearITPendingBit>:
TIM_ClearITPendingBit():
D:/projects/mechanical_arm/Firmware/CarMainControl/libraries/sdk/Peripheral/ch32v30x_tim.c:1922
*                    TIM_IT_Trigger: TIM Trigger Interrupt source.
*                    TIM_IT_Break: TIM Break Interrupt source.
* Return         : None
*******************************************************************************/
void TIM_ClearITPendingBit(TIM_TypeDef* TIMx, uint16_t TIM_IT)
{
    3802:	1101                	addi	sp,sp,-32
    3804:	ce22                	sw	s0,28(sp)
    3806:	1000                	addi	s0,sp,32
    3808:	fea42623          	sw	a0,-20(s0)
    380c:	87ae                	mv	a5,a1
    380e:	fef41523          	sh	a5,-22(s0)
D:/projects/mechanical_arm/Firmware/CarMainControl/libraries/sdk/Peripheral/ch32v30x_tim.c:1923
  TIMx->INTFR = (uint16_t)~TIM_IT;
    3812:	fea45783          	lhu	a5,-22(s0)
    3816:	fff7c793          	not	a5,a5
    381a:	01079713          	slli	a4,a5,0x10
    381e:	8341                	srli	a4,a4,0x10
    3820:	fec42783          	lw	a5,-20(s0)
    3824:	00e79823          	sh	a4,16(a5)
D:/projects/mechanical_arm/Firmware/CarMainControl/libraries/sdk/Peripheral/ch32v30x_tim.c:1924
}
    3828:	0001                	nop
    382a:	4472                	lw	s0,28(sp)
    382c:	6105                	addi	sp,sp,32
    382e:	8082                	ret

00003830 <USART_Init>:
USART_Init():
D:/projects/mechanical_arm/Firmware/CarMainControl/libraries/sdk/Peripheral/ch32v30x_usart.c:105
*                  USART_InitStruct: pointer to a USART_InitTypeDef structure
*      that contains the configuration information for the specified USART peripheral. 
* Return         : None
*******************************************************************************/
void USART_Init(USART_TypeDef* USARTx, USART_InitTypeDef* USART_InitStruct)
{
    3830:	715d                	addi	sp,sp,-80
    3832:	c686                	sw	ra,76(sp)
    3834:	c4a2                	sw	s0,72(sp)
    3836:	0880                	addi	s0,sp,80
    3838:	faa42e23          	sw	a0,-68(s0)
    383c:	fab42c23          	sw	a1,-72(s0)
D:/projects/mechanical_arm/Firmware/CarMainControl/libraries/sdk/Peripheral/ch32v30x_usart.c:106
  uint32_t tmpreg = 0x00, apbclock = 0x00;
    3840:	fe042623          	sw	zero,-20(s0)
    3844:	fe042423          	sw	zero,-24(s0)
D:/projects/mechanical_arm/Firmware/CarMainControl/libraries/sdk/Peripheral/ch32v30x_usart.c:107
  uint32_t integerdivider = 0x00;
    3848:	fe042223          	sw	zero,-28(s0)
D:/projects/mechanical_arm/Firmware/CarMainControl/libraries/sdk/Peripheral/ch32v30x_usart.c:108
  uint32_t fractionaldivider = 0x00;
    384c:	fe042023          	sw	zero,-32(s0)
D:/projects/mechanical_arm/Firmware/CarMainControl/libraries/sdk/Peripheral/ch32v30x_usart.c:109
  uint32_t usartxbase = 0;
    3850:	fc042e23          	sw	zero,-36(s0)
D:/projects/mechanical_arm/Firmware/CarMainControl/libraries/sdk/Peripheral/ch32v30x_usart.c:116

  if (USART_InitStruct->USART_HardwareFlowControl != USART_HardwareFlowControl_None)
  {
  }

  usartxbase = (uint32_t)USARTx;
    3854:	fbc42783          	lw	a5,-68(s0)
    3858:	fcf42e23          	sw	a5,-36(s0)
D:/projects/mechanical_arm/Firmware/CarMainControl/libraries/sdk/Peripheral/ch32v30x_usart.c:117
  tmpreg = USARTx->CTLR2;
    385c:	fbc42783          	lw	a5,-68(s0)
    3860:	0107d783          	lhu	a5,16(a5)
    3864:	07c2                	slli	a5,a5,0x10
    3866:	83c1                	srli	a5,a5,0x10
    3868:	fef42623          	sw	a5,-20(s0)
D:/projects/mechanical_arm/Firmware/CarMainControl/libraries/sdk/Peripheral/ch32v30x_usart.c:118
  tmpreg &= CTLR2_STOP_CLEAR_Mask;
    386c:	fec42703          	lw	a4,-20(s0)
    3870:	67b5                	lui	a5,0xd
    3872:	17fd                	addi	a5,a5,-1
    3874:	8ff9                	and	a5,a5,a4
    3876:	fef42623          	sw	a5,-20(s0)
D:/projects/mechanical_arm/Firmware/CarMainControl/libraries/sdk/Peripheral/ch32v30x_usart.c:119
  tmpreg |= (uint32_t)USART_InitStruct->USART_StopBits;  
    387a:	fb842783          	lw	a5,-72(s0)
    387e:	0067d783          	lhu	a5,6(a5) # d006 <_data_lma+0x2b32>
    3882:	873e                	mv	a4,a5
    3884:	fec42783          	lw	a5,-20(s0)
    3888:	8fd9                	or	a5,a5,a4
    388a:	fef42623          	sw	a5,-20(s0)
D:/projects/mechanical_arm/Firmware/CarMainControl/libraries/sdk/Peripheral/ch32v30x_usart.c:121
	
  USARTx->CTLR2 = (uint16_t)tmpreg;
    388e:	fec42783          	lw	a5,-20(s0)
    3892:	01079713          	slli	a4,a5,0x10
    3896:	8341                	srli	a4,a4,0x10
    3898:	fbc42783          	lw	a5,-68(s0)
    389c:	00e79823          	sh	a4,16(a5)
D:/projects/mechanical_arm/Firmware/CarMainControl/libraries/sdk/Peripheral/ch32v30x_usart.c:122
  tmpreg = USARTx->CTLR1;
    38a0:	fbc42783          	lw	a5,-68(s0)
    38a4:	00c7d783          	lhu	a5,12(a5)
    38a8:	07c2                	slli	a5,a5,0x10
    38aa:	83c1                	srli	a5,a5,0x10
    38ac:	fef42623          	sw	a5,-20(s0)
D:/projects/mechanical_arm/Firmware/CarMainControl/libraries/sdk/Peripheral/ch32v30x_usart.c:123
  tmpreg &= CTLR1_CLEAR_Mask;
    38b0:	fec42703          	lw	a4,-20(s0)
    38b4:	67bd                	lui	a5,0xf
    38b6:	9f378793          	addi	a5,a5,-1549 # e9f3 <_data_lma+0x451f>
    38ba:	8ff9                	and	a5,a5,a4
    38bc:	fef42623          	sw	a5,-20(s0)
D:/projects/mechanical_arm/Firmware/CarMainControl/libraries/sdk/Peripheral/ch32v30x_usart.c:124
  tmpreg |= (uint32_t)USART_InitStruct->USART_WordLength | USART_InitStruct->USART_Parity |
    38c0:	fb842783          	lw	a5,-72(s0)
    38c4:	0047d703          	lhu	a4,4(a5)
    38c8:	fb842783          	lw	a5,-72(s0)
    38cc:	0087d783          	lhu	a5,8(a5)
    38d0:	8fd9                	or	a5,a5,a4
    38d2:	01079713          	slli	a4,a5,0x10
    38d6:	8341                	srli	a4,a4,0x10
D:/projects/mechanical_arm/Firmware/CarMainControl/libraries/sdk/Peripheral/ch32v30x_usart.c:125
            USART_InitStruct->USART_Mode;
    38d8:	fb842783          	lw	a5,-72(s0)
    38dc:	00a7d783          	lhu	a5,10(a5)
D:/projects/mechanical_arm/Firmware/CarMainControl/libraries/sdk/Peripheral/ch32v30x_usart.c:124
  tmpreg |= (uint32_t)USART_InitStruct->USART_WordLength | USART_InitStruct->USART_Parity |
    38e0:	8fd9                	or	a5,a5,a4
    38e2:	07c2                	slli	a5,a5,0x10
    38e4:	83c1                	srli	a5,a5,0x10
    38e6:	873e                	mv	a4,a5
    38e8:	fec42783          	lw	a5,-20(s0)
    38ec:	8fd9                	or	a5,a5,a4
    38ee:	fef42623          	sw	a5,-20(s0)
D:/projects/mechanical_arm/Firmware/CarMainControl/libraries/sdk/Peripheral/ch32v30x_usart.c:126
  USARTx->CTLR1 = (uint16_t)tmpreg;
    38f2:	fec42783          	lw	a5,-20(s0)
    38f6:	01079713          	slli	a4,a5,0x10
    38fa:	8341                	srli	a4,a4,0x10
    38fc:	fbc42783          	lw	a5,-68(s0)
    3900:	00e79623          	sh	a4,12(a5)
D:/projects/mechanical_arm/Firmware/CarMainControl/libraries/sdk/Peripheral/ch32v30x_usart.c:128
 
  tmpreg = USARTx->CTLR3;
    3904:	fbc42783          	lw	a5,-68(s0)
    3908:	0147d783          	lhu	a5,20(a5)
    390c:	07c2                	slli	a5,a5,0x10
    390e:	83c1                	srli	a5,a5,0x10
    3910:	fef42623          	sw	a5,-20(s0)
D:/projects/mechanical_arm/Firmware/CarMainControl/libraries/sdk/Peripheral/ch32v30x_usart.c:129
  tmpreg &= CTLR3_CLEAR_Mask;
    3914:	fec42703          	lw	a4,-20(s0)
    3918:	67c1                	lui	a5,0x10
    391a:	cff78793          	addi	a5,a5,-769 # fcff <_data_lma+0x582b>
    391e:	8ff9                	and	a5,a5,a4
    3920:	fef42623          	sw	a5,-20(s0)
D:/projects/mechanical_arm/Firmware/CarMainControl/libraries/sdk/Peripheral/ch32v30x_usart.c:130
  tmpreg |= USART_InitStruct->USART_HardwareFlowControl;
    3924:	fb842783          	lw	a5,-72(s0)
    3928:	00c7d783          	lhu	a5,12(a5)
    392c:	873e                	mv	a4,a5
    392e:	fec42783          	lw	a5,-20(s0)
    3932:	8fd9                	or	a5,a5,a4
    3934:	fef42623          	sw	a5,-20(s0)
D:/projects/mechanical_arm/Firmware/CarMainControl/libraries/sdk/Peripheral/ch32v30x_usart.c:131
  USARTx->CTLR3 = (uint16_t)tmpreg;
    3938:	fec42783          	lw	a5,-20(s0)
    393c:	01079713          	slli	a4,a5,0x10
    3940:	8341                	srli	a4,a4,0x10
    3942:	fbc42783          	lw	a5,-68(s0)
    3946:	00e79a23          	sh	a4,20(a5)
D:/projects/mechanical_arm/Firmware/CarMainControl/libraries/sdk/Peripheral/ch32v30x_usart.c:133

  RCC_GetClocksFreq(&RCC_ClocksStatus);
    394a:	fc840793          	addi	a5,s0,-56
    394e:	853e                	mv	a0,a5
    3950:	89dff0ef          	jal	ra,31ec <RCC_GetClocksFreq>
D:/projects/mechanical_arm/Firmware/CarMainControl/libraries/sdk/Peripheral/ch32v30x_usart.c:135
	
  if (usartxbase == USART1_BASE)
    3954:	fdc42703          	lw	a4,-36(s0)
    3958:	400147b7          	lui	a5,0x40014
    395c:	80078793          	addi	a5,a5,-2048 # 40013800 <_eusrstack+0x20003800>
    3960:	00f71763          	bne	a4,a5,396e <USART_Init+0x13e>
D:/projects/mechanical_arm/Firmware/CarMainControl/libraries/sdk/Peripheral/ch32v30x_usart.c:137
  {
    apbclock = RCC_ClocksStatus.PCLK2_Frequency;
    3964:	fd442783          	lw	a5,-44(s0)
    3968:	fef42423          	sw	a5,-24(s0)
    396c:	a029                	j	3976 <USART_Init+0x146>
D:/projects/mechanical_arm/Firmware/CarMainControl/libraries/sdk/Peripheral/ch32v30x_usart.c:141
  }
  else
  {
    apbclock = RCC_ClocksStatus.PCLK1_Frequency;
    396e:	fd042783          	lw	a5,-48(s0)
    3972:	fef42423          	sw	a5,-24(s0)
D:/projects/mechanical_arm/Firmware/CarMainControl/libraries/sdk/Peripheral/ch32v30x_usart.c:144
  }
  
  if ((USARTx->CTLR1 & CTLR1_OVER8_Set) != 0)
    3976:	fbc42783          	lw	a5,-68(s0)
    397a:	00c7d783          	lhu	a5,12(a5)
    397e:	07c2                	slli	a5,a5,0x10
    3980:	83c1                	srli	a5,a5,0x10
    3982:	07c2                	slli	a5,a5,0x10
    3984:	87c1                	srai	a5,a5,0x10
    3986:	0207d263          	bgez	a5,39aa <USART_Init+0x17a>
D:/projects/mechanical_arm/Firmware/CarMainControl/libraries/sdk/Peripheral/ch32v30x_usart.c:146
  {
    integerdivider = ((25 * apbclock) / (2 * (USART_InitStruct->USART_BaudRate)));    
    398a:	fe842703          	lw	a4,-24(s0)
    398e:	87ba                	mv	a5,a4
    3990:	0786                	slli	a5,a5,0x1
    3992:	97ba                	add	a5,a5,a4
    3994:	078e                	slli	a5,a5,0x3
    3996:	973e                	add	a4,a4,a5
    3998:	fb842783          	lw	a5,-72(s0)
    399c:	439c                	lw	a5,0(a5)
    399e:	0786                	slli	a5,a5,0x1
    39a0:	02f757b3          	divu	a5,a4,a5
    39a4:	fef42223          	sw	a5,-28(s0)
    39a8:	a005                	j	39c8 <USART_Init+0x198>
D:/projects/mechanical_arm/Firmware/CarMainControl/libraries/sdk/Peripheral/ch32v30x_usart.c:150
  }
  else 
  {
    integerdivider = ((25 * apbclock) / (4 * (USART_InitStruct->USART_BaudRate)));    
    39aa:	fe842703          	lw	a4,-24(s0)
    39ae:	87ba                	mv	a5,a4
    39b0:	0786                	slli	a5,a5,0x1
    39b2:	97ba                	add	a5,a5,a4
    39b4:	078e                	slli	a5,a5,0x3
    39b6:	973e                	add	a4,a4,a5
    39b8:	fb842783          	lw	a5,-72(s0)
    39bc:	439c                	lw	a5,0(a5)
    39be:	078a                	slli	a5,a5,0x2
    39c0:	02f757b3          	divu	a5,a4,a5
    39c4:	fef42223          	sw	a5,-28(s0)
D:/projects/mechanical_arm/Firmware/CarMainControl/libraries/sdk/Peripheral/ch32v30x_usart.c:152
  }
  tmpreg = (integerdivider / 100) << 4;
    39c8:	fe442703          	lw	a4,-28(s0)
    39cc:	06400793          	li	a5,100
    39d0:	02f757b3          	divu	a5,a4,a5
    39d4:	0792                	slli	a5,a5,0x4
    39d6:	fef42623          	sw	a5,-20(s0)
D:/projects/mechanical_arm/Firmware/CarMainControl/libraries/sdk/Peripheral/ch32v30x_usart.c:154

  fractionaldivider = integerdivider - (100 * (tmpreg >> 4));
    39da:	fec42783          	lw	a5,-20(s0)
    39de:	0047d713          	srli	a4,a5,0x4
    39e2:	06400793          	li	a5,100
    39e6:	02f707b3          	mul	a5,a4,a5
    39ea:	fe442703          	lw	a4,-28(s0)
    39ee:	40f707b3          	sub	a5,a4,a5
    39f2:	fef42023          	sw	a5,-32(s0)
D:/projects/mechanical_arm/Firmware/CarMainControl/libraries/sdk/Peripheral/ch32v30x_usart.c:156

  if ((USARTx->CTLR1 & CTLR1_OVER8_Set) != 0)
    39f6:	fbc42783          	lw	a5,-68(s0)
    39fa:	00c7d783          	lhu	a5,12(a5)
    39fe:	07c2                	slli	a5,a5,0x10
    3a00:	83c1                	srli	a5,a5,0x10
    3a02:	07c2                	slli	a5,a5,0x10
    3a04:	87c1                	srai	a5,a5,0x10
    3a06:	0207d263          	bgez	a5,3a2a <USART_Init+0x1fa>
D:/projects/mechanical_arm/Firmware/CarMainControl/libraries/sdk/Peripheral/ch32v30x_usart.c:158
  {
    tmpreg |= ((((fractionaldivider * 8) + 50) / 100)) & ((uint8_t)0x07);
    3a0a:	fe042783          	lw	a5,-32(s0)
    3a0e:	078e                	slli	a5,a5,0x3
    3a10:	03278713          	addi	a4,a5,50
    3a14:	06400793          	li	a5,100
    3a18:	02f757b3          	divu	a5,a4,a5
    3a1c:	8b9d                	andi	a5,a5,7
    3a1e:	fec42703          	lw	a4,-20(s0)
    3a22:	8fd9                	or	a5,a5,a4
    3a24:	fef42623          	sw	a5,-20(s0)
    3a28:	a005                	j	3a48 <USART_Init+0x218>
D:/projects/mechanical_arm/Firmware/CarMainControl/libraries/sdk/Peripheral/ch32v30x_usart.c:162
  }
  else 
  {
    tmpreg |= ((((fractionaldivider * 16) + 50) / 100)) & ((uint8_t)0x0F);
    3a2a:	fe042783          	lw	a5,-32(s0)
    3a2e:	0792                	slli	a5,a5,0x4
    3a30:	03278713          	addi	a4,a5,50
    3a34:	06400793          	li	a5,100
    3a38:	02f757b3          	divu	a5,a4,a5
    3a3c:	8bbd                	andi	a5,a5,15
    3a3e:	fec42703          	lw	a4,-20(s0)
    3a42:	8fd9                	or	a5,a5,a4
    3a44:	fef42623          	sw	a5,-20(s0)
D:/projects/mechanical_arm/Firmware/CarMainControl/libraries/sdk/Peripheral/ch32v30x_usart.c:165
  }
  
  USARTx->BRR = (uint16_t)tmpreg;
    3a48:	fec42783          	lw	a5,-20(s0)
    3a4c:	01079713          	slli	a4,a5,0x10
    3a50:	8341                	srli	a4,a4,0x10
    3a52:	fbc42783          	lw	a5,-68(s0)
    3a56:	00e79423          	sh	a4,8(a5)
D:/projects/mechanical_arm/Firmware/CarMainControl/libraries/sdk/Peripheral/ch32v30x_usart.c:166
}
    3a5a:	0001                	nop
    3a5c:	40b6                	lw	ra,76(sp)
    3a5e:	4426                	lw	s0,72(sp)
    3a60:	6161                	addi	sp,sp,80
    3a62:	8082                	ret

00003a64 <USART_Cmd>:
USART_Cmd():
D:/projects/mechanical_arm/Firmware/CarMainControl/libraries/sdk/Peripheral/ch32v30x_usart.c:229
* Input          : USARTx: where x can be 1, 2, 3 to select the USART peripheral.
*                  NewState: ENABLE or DISABLE.
* Return         : None
*******************************************************************************/
void USART_Cmd(USART_TypeDef* USARTx, FunctionalState NewState)
{
    3a64:	1101                	addi	sp,sp,-32
    3a66:	ce22                	sw	s0,28(sp)
    3a68:	1000                	addi	s0,sp,32
    3a6a:	fea42623          	sw	a0,-20(s0)
    3a6e:	feb42423          	sw	a1,-24(s0)
D:/projects/mechanical_arm/Firmware/CarMainControl/libraries/sdk/Peripheral/ch32v30x_usart.c:230
  if (NewState != DISABLE)
    3a72:	fe842783          	lw	a5,-24(s0)
    3a76:	c395                	beqz	a5,3a9a <USART_Cmd+0x36>
D:/projects/mechanical_arm/Firmware/CarMainControl/libraries/sdk/Peripheral/ch32v30x_usart.c:232
  {
    USARTx->CTLR1 |= CTLR1_UE_Set;
    3a78:	fec42783          	lw	a5,-20(s0)
    3a7c:	00c7d783          	lhu	a5,12(a5)
    3a80:	01079713          	slli	a4,a5,0x10
    3a84:	8341                	srli	a4,a4,0x10
    3a86:	6789                	lui	a5,0x2
    3a88:	8fd9                	or	a5,a5,a4
    3a8a:	01079713          	slli	a4,a5,0x10
    3a8e:	8341                	srli	a4,a4,0x10
    3a90:	fec42783          	lw	a5,-20(s0)
    3a94:	00e79623          	sh	a4,12(a5) # 200c <clock_set_freq+0x18e>
D:/projects/mechanical_arm/Firmware/CarMainControl/libraries/sdk/Peripheral/ch32v30x_usart.c:238
  }
  else
  {
    USARTx->CTLR1 &= CTLR1_UE_Reset;
  }
}
    3a98:	a015                	j	3abc <USART_Cmd+0x58>
D:/projects/mechanical_arm/Firmware/CarMainControl/libraries/sdk/Peripheral/ch32v30x_usart.c:236
    USARTx->CTLR1 &= CTLR1_UE_Reset;
    3a9a:	fec42783          	lw	a5,-20(s0)
    3a9e:	00c7d783          	lhu	a5,12(a5)
    3aa2:	01079713          	slli	a4,a5,0x10
    3aa6:	8341                	srli	a4,a4,0x10
    3aa8:	77f9                	lui	a5,0xffffe
    3aaa:	17fd                	addi	a5,a5,-1
    3aac:	8ff9                	and	a5,a5,a4
    3aae:	01079713          	slli	a4,a5,0x10
    3ab2:	8341                	srli	a4,a4,0x10
    3ab4:	fec42783          	lw	a5,-20(s0)
    3ab8:	00e79623          	sh	a4,12(a5) # ffffe00c <_eusrstack+0xdffee00c>
D:/projects/mechanical_arm/Firmware/CarMainControl/libraries/sdk/Peripheral/ch32v30x_usart.c:238
}
    3abc:	0001                	nop
    3abe:	4472                	lw	s0,28(sp)
    3ac0:	6105                	addi	sp,sp,32
    3ac2:	8082                	ret

00003ac4 <USART_ITConfig>:
USART_ITConfig():
D:/projects/mechanical_arm/Firmware/CarMainControl/libraries/sdk/Peripheral/ch32v30x_usart.c:257
*                    USART_IT_ERR:  Error interrupt.
*                  NewState: ENABLE or DISABLE.
* Return         : None
*******************************************************************************/
void USART_ITConfig(USART_TypeDef* USARTx, uint16_t USART_IT, FunctionalState NewState)
{
    3ac4:	7179                	addi	sp,sp,-48
    3ac6:	d622                	sw	s0,44(sp)
    3ac8:	1800                	addi	s0,sp,48
    3aca:	fca42e23          	sw	a0,-36(s0)
    3ace:	87ae                	mv	a5,a1
    3ad0:	fcc42a23          	sw	a2,-44(s0)
    3ad4:	fcf41d23          	sh	a5,-38(s0)
D:/projects/mechanical_arm/Firmware/CarMainControl/libraries/sdk/Peripheral/ch32v30x_usart.c:258
  uint32_t usartreg = 0x00, itpos = 0x00, itmask = 0x00;
    3ad8:	fe042423          	sw	zero,-24(s0)
    3adc:	fe042223          	sw	zero,-28(s0)
    3ae0:	fe042023          	sw	zero,-32(s0)
D:/projects/mechanical_arm/Firmware/CarMainControl/libraries/sdk/Peripheral/ch32v30x_usart.c:259
  uint32_t usartxbase = 0x00;
    3ae4:	fe042623          	sw	zero,-20(s0)
D:/projects/mechanical_arm/Firmware/CarMainControl/libraries/sdk/Peripheral/ch32v30x_usart.c:265

  if (USART_IT == USART_IT_CTS)
  {
  }   
  
  usartxbase = (uint32_t)USARTx;
    3ae8:	fdc42783          	lw	a5,-36(s0)
    3aec:	fef42623          	sw	a5,-20(s0)
D:/projects/mechanical_arm/Firmware/CarMainControl/libraries/sdk/Peripheral/ch32v30x_usart.c:266
  usartreg = (((uint8_t)USART_IT) >> 0x05);
    3af0:	fda45783          	lhu	a5,-38(s0)
    3af4:	0ff7f793          	andi	a5,a5,255
    3af8:	8395                	srli	a5,a5,0x5
    3afa:	0ff7f793          	andi	a5,a5,255
    3afe:	fef42423          	sw	a5,-24(s0)
D:/projects/mechanical_arm/Firmware/CarMainControl/libraries/sdk/Peripheral/ch32v30x_usart.c:267
  itpos = USART_IT & IT_Mask;
    3b02:	fda45783          	lhu	a5,-38(s0)
    3b06:	8bfd                	andi	a5,a5,31
    3b08:	fef42223          	sw	a5,-28(s0)
D:/projects/mechanical_arm/Firmware/CarMainControl/libraries/sdk/Peripheral/ch32v30x_usart.c:268
  itmask = (((uint32_t)0x01) << itpos);
    3b0c:	fe442783          	lw	a5,-28(s0)
    3b10:	4705                	li	a4,1
    3b12:	00f717b3          	sll	a5,a4,a5
    3b16:	fef42023          	sw	a5,-32(s0)
D:/projects/mechanical_arm/Firmware/CarMainControl/libraries/sdk/Peripheral/ch32v30x_usart.c:270
    
  if (usartreg == 0x01) 
    3b1a:	fe842703          	lw	a4,-24(s0)
    3b1e:	4785                	li	a5,1
    3b20:	00f71863          	bne	a4,a5,3b30 <USART_ITConfig+0x6c>
D:/projects/mechanical_arm/Firmware/CarMainControl/libraries/sdk/Peripheral/ch32v30x_usart.c:272
  {
    usartxbase += 0x0C;
    3b24:	fec42783          	lw	a5,-20(s0)
    3b28:	07b1                	addi	a5,a5,12
    3b2a:	fef42623          	sw	a5,-20(s0)
    3b2e:	a00d                	j	3b50 <USART_ITConfig+0x8c>
D:/projects/mechanical_arm/Firmware/CarMainControl/libraries/sdk/Peripheral/ch32v30x_usart.c:274
  }
  else if (usartreg == 0x02) 
    3b30:	fe842703          	lw	a4,-24(s0)
    3b34:	4789                	li	a5,2
    3b36:	00f71863          	bne	a4,a5,3b46 <USART_ITConfig+0x82>
D:/projects/mechanical_arm/Firmware/CarMainControl/libraries/sdk/Peripheral/ch32v30x_usart.c:276
  {
    usartxbase += 0x10;
    3b3a:	fec42783          	lw	a5,-20(s0)
    3b3e:	07c1                	addi	a5,a5,16
    3b40:	fef42623          	sw	a5,-20(s0)
    3b44:	a031                	j	3b50 <USART_ITConfig+0x8c>
D:/projects/mechanical_arm/Firmware/CarMainControl/libraries/sdk/Peripheral/ch32v30x_usart.c:280
  }
  else 
  {
    usartxbase += 0x14; 
    3b46:	fec42783          	lw	a5,-20(s0)
    3b4a:	07d1                	addi	a5,a5,20
    3b4c:	fef42623          	sw	a5,-20(s0)
D:/projects/mechanical_arm/Firmware/CarMainControl/libraries/sdk/Peripheral/ch32v30x_usart.c:283
  }
	
  if (NewState != DISABLE)
    3b50:	fd442783          	lw	a5,-44(s0)
    3b54:	cb99                	beqz	a5,3b6a <USART_ITConfig+0xa6>
D:/projects/mechanical_arm/Firmware/CarMainControl/libraries/sdk/Peripheral/ch32v30x_usart.c:285
  {
    *(__IO uint32_t*)usartxbase  |= itmask;
    3b56:	fec42783          	lw	a5,-20(s0)
    3b5a:	4394                	lw	a3,0(a5)
    3b5c:	fec42783          	lw	a5,-20(s0)
    3b60:	fe042703          	lw	a4,-32(s0)
    3b64:	8f55                	or	a4,a4,a3
    3b66:	c398                	sw	a4,0(a5)
D:/projects/mechanical_arm/Firmware/CarMainControl/libraries/sdk/Peripheral/ch32v30x_usart.c:291
  }
  else
  {
    *(__IO uint32_t*)usartxbase &= ~itmask;
  }
}
    3b68:	a821                	j	3b80 <USART_ITConfig+0xbc>
D:/projects/mechanical_arm/Firmware/CarMainControl/libraries/sdk/Peripheral/ch32v30x_usart.c:289
    *(__IO uint32_t*)usartxbase &= ~itmask;
    3b6a:	fec42783          	lw	a5,-20(s0)
    3b6e:	4394                	lw	a3,0(a5)
    3b70:	fe042783          	lw	a5,-32(s0)
    3b74:	fff7c713          	not	a4,a5
    3b78:	fec42783          	lw	a5,-20(s0)
    3b7c:	8f75                	and	a4,a4,a3
    3b7e:	c398                	sw	a4,0(a5)
D:/projects/mechanical_arm/Firmware/CarMainControl/libraries/sdk/Peripheral/ch32v30x_usart.c:291
}
    3b80:	0001                	nop
    3b82:	5432                	lw	s0,44(sp)
    3b84:	6145                	addi	sp,sp,48
    3b86:	8082                	ret

00003b88 <USART_SendData>:
USART_SendData():
D:/projects/mechanical_arm/Firmware/CarMainControl/libraries/sdk/Peripheral/ch32v30x_usart.c:404
* Input          : USARTx: where x can be 1, 2, 3 to select the USART peripheral.
*                  Data: the data to transmit..
* Return         : None
*******************************************************************************/
void USART_SendData(USART_TypeDef* USARTx, uint16_t Data)
{
    3b88:	1101                	addi	sp,sp,-32
    3b8a:	ce22                	sw	s0,28(sp)
    3b8c:	1000                	addi	s0,sp,32
    3b8e:	fea42623          	sw	a0,-20(s0)
    3b92:	87ae                	mv	a5,a1
    3b94:	fef41523          	sh	a5,-22(s0)
D:/projects/mechanical_arm/Firmware/CarMainControl/libraries/sdk/Peripheral/ch32v30x_usart.c:405
  USARTx->DATAR = (Data & (uint16_t)0x01FF);
    3b98:	fea45783          	lhu	a5,-22(s0)
    3b9c:	1ff7f793          	andi	a5,a5,511
    3ba0:	01079713          	slli	a4,a5,0x10
    3ba4:	8341                	srli	a4,a4,0x10
    3ba6:	fec42783          	lw	a5,-20(s0)
    3baa:	00e79223          	sh	a4,4(a5)
D:/projects/mechanical_arm/Firmware/CarMainControl/libraries/sdk/Peripheral/ch32v30x_usart.c:406
}
    3bae:	0001                	nop
    3bb0:	4472                	lw	s0,28(sp)
    3bb2:	6105                	addi	sp,sp,32
    3bb4:	8082                	ret

00003bb6 <USART_GetFlagStatus>:
USART_GetFlagStatus():
D:/projects/mechanical_arm/Firmware/CarMainControl/libraries/sdk/Peripheral/ch32v30x_usart.c:603
*                    USART_FLAG_FE: Framing Error flag.
*                    USART_FLAG_PE: Parity Error flag.
* Return         : bitstatus: SET or RESET.
*******************************************************************************/
FlagStatus USART_GetFlagStatus(USART_TypeDef* USARTx, uint16_t USART_FLAG)
{
    3bb6:	7179                	addi	sp,sp,-48
    3bb8:	d622                	sw	s0,44(sp)
    3bba:	1800                	addi	s0,sp,48
    3bbc:	fca42e23          	sw	a0,-36(s0)
    3bc0:	87ae                	mv	a5,a1
    3bc2:	fcf41d23          	sh	a5,-38(s0)
D:/projects/mechanical_arm/Firmware/CarMainControl/libraries/sdk/Peripheral/ch32v30x_usart.c:604
  FlagStatus bitstatus = RESET;
    3bc6:	fe042623          	sw	zero,-20(s0)
D:/projects/mechanical_arm/Firmware/CarMainControl/libraries/sdk/Peripheral/ch32v30x_usart.c:610

  if (USART_FLAG == USART_FLAG_CTS)
  {
  }  
  
  if ((USARTx->STATR & USART_FLAG) != (uint16_t)RESET)
    3bca:	fdc42783          	lw	a5,-36(s0)
    3bce:	0007d783          	lhu	a5,0(a5)
    3bd2:	01079713          	slli	a4,a5,0x10
    3bd6:	8341                	srli	a4,a4,0x10
    3bd8:	fda45783          	lhu	a5,-38(s0)
    3bdc:	8ff9                	and	a5,a5,a4
    3bde:	07c2                	slli	a5,a5,0x10
    3be0:	83c1                	srli	a5,a5,0x10
    3be2:	c789                	beqz	a5,3bec <USART_GetFlagStatus+0x36>
D:/projects/mechanical_arm/Firmware/CarMainControl/libraries/sdk/Peripheral/ch32v30x_usart.c:612
  {
    bitstatus = SET;
    3be4:	4785                	li	a5,1
    3be6:	fef42623          	sw	a5,-20(s0)
    3bea:	a019                	j	3bf0 <USART_GetFlagStatus+0x3a>
D:/projects/mechanical_arm/Firmware/CarMainControl/libraries/sdk/Peripheral/ch32v30x_usart.c:616
  }
  else
  {
    bitstatus = RESET;
    3bec:	fe042623          	sw	zero,-20(s0)
D:/projects/mechanical_arm/Firmware/CarMainControl/libraries/sdk/Peripheral/ch32v30x_usart.c:618
  }
  return bitstatus;
    3bf0:	fec42783          	lw	a5,-20(s0)
D:/projects/mechanical_arm/Firmware/CarMainControl/libraries/sdk/Peripheral/ch32v30x_usart.c:619
}
    3bf4:	853e                	mv	a0,a5
    3bf6:	5432                	lw	s0,44(sp)
    3bf8:	6145                	addi	sp,sp,48
    3bfa:	8082                	ret

00003bfc <USART_GetITStatus>:
USART_GetITStatus():
D:/projects/mechanical_arm/Firmware/CarMainControl/libraries/sdk/Peripheral/ch32v30x_usart.c:660
*                    USART_IT_FE: Framing Error interrupt.
*                    USART_IT_PE: Parity Error interrupt.
* Return         : bitstatus: SET or RESET.
*******************************************************************************/
ITStatus USART_GetITStatus(USART_TypeDef* USARTx, uint16_t USART_IT)
{
    3bfc:	7179                	addi	sp,sp,-48
    3bfe:	d622                	sw	s0,44(sp)
    3c00:	1800                	addi	s0,sp,48
    3c02:	fca42e23          	sw	a0,-36(s0)
    3c06:	87ae                	mv	a5,a1
    3c08:	fcf41d23          	sh	a5,-38(s0)
D:/projects/mechanical_arm/Firmware/CarMainControl/libraries/sdk/Peripheral/ch32v30x_usart.c:661
  uint32_t bitpos = 0x00, itmask = 0x00, usartreg = 0x00;
    3c0c:	fe042223          	sw	zero,-28(s0)
    3c10:	fe042623          	sw	zero,-20(s0)
    3c14:	fe042023          	sw	zero,-32(s0)
D:/projects/mechanical_arm/Firmware/CarMainControl/libraries/sdk/Peripheral/ch32v30x_usart.c:662
  ITStatus bitstatus = RESET;
    3c18:	fe042423          	sw	zero,-24(s0)
D:/projects/mechanical_arm/Firmware/CarMainControl/libraries/sdk/Peripheral/ch32v30x_usart.c:668

  if (USART_IT == USART_IT_CTS)
  {
  }   
  
  usartreg = (((uint8_t)USART_IT) >> 0x05);
    3c1c:	fda45783          	lhu	a5,-38(s0)
    3c20:	0ff7f793          	andi	a5,a5,255
    3c24:	8395                	srli	a5,a5,0x5
    3c26:	0ff7f793          	andi	a5,a5,255
    3c2a:	fef42023          	sw	a5,-32(s0)
D:/projects/mechanical_arm/Firmware/CarMainControl/libraries/sdk/Peripheral/ch32v30x_usart.c:669
  itmask = USART_IT & IT_Mask;
    3c2e:	fda45783          	lhu	a5,-38(s0)
    3c32:	8bfd                	andi	a5,a5,31
    3c34:	fef42623          	sw	a5,-20(s0)
D:/projects/mechanical_arm/Firmware/CarMainControl/libraries/sdk/Peripheral/ch32v30x_usart.c:670
  itmask = (uint32_t)0x01 << itmask;
    3c38:	fec42783          	lw	a5,-20(s0)
    3c3c:	4705                	li	a4,1
    3c3e:	00f717b3          	sll	a5,a4,a5
    3c42:	fef42623          	sw	a5,-20(s0)
D:/projects/mechanical_arm/Firmware/CarMainControl/libraries/sdk/Peripheral/ch32v30x_usart.c:672
  
  if (usartreg == 0x01) 
    3c46:	fe042703          	lw	a4,-32(s0)
    3c4a:	4785                	li	a5,1
    3c4c:	00f71f63          	bne	a4,a5,3c6a <USART_GetITStatus+0x6e>
D:/projects/mechanical_arm/Firmware/CarMainControl/libraries/sdk/Peripheral/ch32v30x_usart.c:674
  {
    itmask &= USARTx->CTLR1;
    3c50:	fdc42783          	lw	a5,-36(s0)
    3c54:	00c7d783          	lhu	a5,12(a5)
    3c58:	07c2                	slli	a5,a5,0x10
    3c5a:	83c1                	srli	a5,a5,0x10
    3c5c:	873e                	mv	a4,a5
    3c5e:	fec42783          	lw	a5,-20(s0)
    3c62:	8ff9                	and	a5,a5,a4
    3c64:	fef42623          	sw	a5,-20(s0)
    3c68:	a83d                	j	3ca6 <USART_GetITStatus+0xaa>
D:/projects/mechanical_arm/Firmware/CarMainControl/libraries/sdk/Peripheral/ch32v30x_usart.c:676
  }
  else if (usartreg == 0x02) 
    3c6a:	fe042703          	lw	a4,-32(s0)
    3c6e:	4789                	li	a5,2
    3c70:	00f71f63          	bne	a4,a5,3c8e <USART_GetITStatus+0x92>
D:/projects/mechanical_arm/Firmware/CarMainControl/libraries/sdk/Peripheral/ch32v30x_usart.c:678
  {
    itmask &= USARTx->CTLR2;
    3c74:	fdc42783          	lw	a5,-36(s0)
    3c78:	0107d783          	lhu	a5,16(a5)
    3c7c:	07c2                	slli	a5,a5,0x10
    3c7e:	83c1                	srli	a5,a5,0x10
    3c80:	873e                	mv	a4,a5
    3c82:	fec42783          	lw	a5,-20(s0)
    3c86:	8ff9                	and	a5,a5,a4
    3c88:	fef42623          	sw	a5,-20(s0)
    3c8c:	a829                	j	3ca6 <USART_GetITStatus+0xaa>
D:/projects/mechanical_arm/Firmware/CarMainControl/libraries/sdk/Peripheral/ch32v30x_usart.c:682
  }
  else 
  {
    itmask &= USARTx->CTLR3;
    3c8e:	fdc42783          	lw	a5,-36(s0)
    3c92:	0147d783          	lhu	a5,20(a5)
    3c96:	07c2                	slli	a5,a5,0x10
    3c98:	83c1                	srli	a5,a5,0x10
    3c9a:	873e                	mv	a4,a5
    3c9c:	fec42783          	lw	a5,-20(s0)
    3ca0:	8ff9                	and	a5,a5,a4
    3ca2:	fef42623          	sw	a5,-20(s0)
D:/projects/mechanical_arm/Firmware/CarMainControl/libraries/sdk/Peripheral/ch32v30x_usart.c:685
  }
  
  bitpos = USART_IT >> 0x08;
    3ca6:	fda45783          	lhu	a5,-38(s0)
    3caa:	83a1                	srli	a5,a5,0x8
    3cac:	07c2                	slli	a5,a5,0x10
    3cae:	83c1                	srli	a5,a5,0x10
    3cb0:	fef42223          	sw	a5,-28(s0)
D:/projects/mechanical_arm/Firmware/CarMainControl/libraries/sdk/Peripheral/ch32v30x_usart.c:686
  bitpos = (uint32_t)0x01 << bitpos;
    3cb4:	fe442783          	lw	a5,-28(s0)
    3cb8:	4705                	li	a4,1
    3cba:	00f717b3          	sll	a5,a4,a5
    3cbe:	fef42223          	sw	a5,-28(s0)
D:/projects/mechanical_arm/Firmware/CarMainControl/libraries/sdk/Peripheral/ch32v30x_usart.c:687
  bitpos &= USARTx->STATR;
    3cc2:	fdc42783          	lw	a5,-36(s0)
    3cc6:	0007d783          	lhu	a5,0(a5)
    3cca:	07c2                	slli	a5,a5,0x10
    3ccc:	83c1                	srli	a5,a5,0x10
    3cce:	873e                	mv	a4,a5
    3cd0:	fe442783          	lw	a5,-28(s0)
    3cd4:	8ff9                	and	a5,a5,a4
    3cd6:	fef42223          	sw	a5,-28(s0)
D:/projects/mechanical_arm/Firmware/CarMainControl/libraries/sdk/Peripheral/ch32v30x_usart.c:689
	
  if ((itmask != (uint16_t)RESET)&&(bitpos != (uint16_t)RESET))
    3cda:	fec42783          	lw	a5,-20(s0)
    3cde:	cb81                	beqz	a5,3cee <USART_GetITStatus+0xf2>
D:/projects/mechanical_arm/Firmware/CarMainControl/libraries/sdk/Peripheral/ch32v30x_usart.c:689 (discriminator 1)
    3ce0:	fe442783          	lw	a5,-28(s0)
    3ce4:	c789                	beqz	a5,3cee <USART_GetITStatus+0xf2>
D:/projects/mechanical_arm/Firmware/CarMainControl/libraries/sdk/Peripheral/ch32v30x_usart.c:691
  {
    bitstatus = SET;
    3ce6:	4785                	li	a5,1
    3ce8:	fef42423          	sw	a5,-24(s0)
    3cec:	a019                	j	3cf2 <USART_GetITStatus+0xf6>
D:/projects/mechanical_arm/Firmware/CarMainControl/libraries/sdk/Peripheral/ch32v30x_usart.c:695
  }
  else
  {
    bitstatus = RESET;
    3cee:	fe042423          	sw	zero,-24(s0)
D:/projects/mechanical_arm/Firmware/CarMainControl/libraries/sdk/Peripheral/ch32v30x_usart.c:698
  }
  
  return bitstatus;  
    3cf2:	fe842783          	lw	a5,-24(s0)
D:/projects/mechanical_arm/Firmware/CarMainControl/libraries/sdk/Peripheral/ch32v30x_usart.c:699
}
    3cf6:	853e                	mv	a0,a5
    3cf8:	5432                	lw	s0,44(sp)
    3cfa:	6145                	addi	sp,sp,48
    3cfc:	8082                	ret

00003cfe <USART_ClearITPendingBit>:
USART_ClearITPendingBit():
D:/projects/mechanical_arm/Firmware/CarMainControl/libraries/sdk/Peripheral/ch32v30x_usart.c:713
*                    USART_IT_TC:   Transmission complete interrupt.
*                    USART_IT_RXNE: Receive Data register not empty interrupt.
* Return         : None
*******************************************************************************/
void USART_ClearITPendingBit(USART_TypeDef* USARTx, uint16_t USART_IT)
{
    3cfe:	7179                	addi	sp,sp,-48
    3d00:	d622                	sw	s0,44(sp)
    3d02:	1800                	addi	s0,sp,48
    3d04:	fca42e23          	sw	a0,-36(s0)
    3d08:	87ae                	mv	a5,a1
    3d0a:	fcf41d23          	sh	a5,-38(s0)
D:/projects/mechanical_arm/Firmware/CarMainControl/libraries/sdk/Peripheral/ch32v30x_usart.c:714
  uint16_t bitpos = 0x00, itmask = 0x00;
    3d0e:	fe041723          	sh	zero,-18(s0)
    3d12:	fe041623          	sh	zero,-20(s0)
D:/projects/mechanical_arm/Firmware/CarMainControl/libraries/sdk/Peripheral/ch32v30x_usart.c:720

  if (USART_IT == USART_IT_CTS)
  {
  }   
  
  bitpos = USART_IT >> 0x08;
    3d16:	fda45783          	lhu	a5,-38(s0)
    3d1a:	83a1                	srli	a5,a5,0x8
    3d1c:	fef41723          	sh	a5,-18(s0)
D:/projects/mechanical_arm/Firmware/CarMainControl/libraries/sdk/Peripheral/ch32v30x_usart.c:721
  itmask = ((uint16_t)0x01 << (uint16_t)bitpos);
    3d20:	fee45783          	lhu	a5,-18(s0)
    3d24:	4705                	li	a4,1
    3d26:	00f717b3          	sll	a5,a4,a5
    3d2a:	fef41623          	sh	a5,-20(s0)
D:/projects/mechanical_arm/Firmware/CarMainControl/libraries/sdk/Peripheral/ch32v30x_usart.c:722
  USARTx->STATR = (uint16_t)~itmask;
    3d2e:	fec45783          	lhu	a5,-20(s0)
    3d32:	fff7c793          	not	a5,a5
    3d36:	01079713          	slli	a4,a5,0x10
    3d3a:	8341                	srli	a4,a4,0x10
    3d3c:	fdc42783          	lw	a5,-36(s0)
    3d40:	00e79023          	sh	a4,0(a5)
D:/projects/mechanical_arm/Firmware/CarMainControl/libraries/sdk/Peripheral/ch32v30x_usart.c:723
}
    3d44:	0001                	nop
    3d46:	5432                	lw	s0,44(sp)
    3d48:	6145                	addi	sp,sp,48
    3d4a:	8082                	ret

00003d4c <DevEP1_IN_Deal>:
DevEP1_IN_Deal():
D:/projects/mechanical_arm/Firmware/CarMainControl/libraries/sdk/Peripheral/ch32v30x_usbotg_device.c:329
* Description    : Device endpoint1 IN.
* Input          : l: IN length(<64B)
* Return         : None
*******************************************************************************/
void DevEP1_IN_Deal( UINT8 l )
{
    3d4c:	1101                	addi	sp,sp,-32
    3d4e:	ce22                	sw	s0,28(sp)
    3d50:	1000                	addi	s0,sp,32
    3d52:	87aa                	mv	a5,a0
    3d54:	fef407a3          	sb	a5,-17(s0)
D:/projects/mechanical_arm/Firmware/CarMainControl/libraries/sdk/Peripheral/ch32v30x_usbotg_device.c:330
    USBOTG_FS->UEP1_TX_LEN = l;
    3d58:	500007b7          	lui	a5,0x50000
    3d5c:	fef44703          	lbu	a4,-17(s0)
    3d60:	0742                	slli	a4,a4,0x10
    3d62:	8341                	srli	a4,a4,0x10
    3d64:	02e79a23          	sh	a4,52(a5) # 50000034 <_eusrstack+0x2fff0034>
D:/projects/mechanical_arm/Firmware/CarMainControl/libraries/sdk/Peripheral/ch32v30x_usbotg_device.c:331
    USBOTG_FS->UEP1_TX_CTRL = (USBOTG_FS->UEP1_TX_CTRL & ~USBHD_UEP_T_RES_MASK)| USBHD_UEP_T_RES_ACK;
    3d68:	500007b7          	lui	a5,0x50000
    3d6c:	0367c783          	lbu	a5,54(a5) # 50000036 <_eusrstack+0x2fff0036>
    3d70:	0ff7f713          	andi	a4,a5,255
    3d74:	500007b7          	lui	a5,0x50000
    3d78:	9b71                	andi	a4,a4,-4
    3d7a:	0ff77713          	andi	a4,a4,255
    3d7e:	02e78b23          	sb	a4,54(a5) # 50000036 <_eusrstack+0x2fff0036>
D:/projects/mechanical_arm/Firmware/CarMainControl/libraries/sdk/Peripheral/ch32v30x_usbotg_device.c:332
}
    3d82:	0001                	nop
    3d84:	4472                	lw	s0,28(sp)
    3d86:	6105                	addi	sp,sp,32
    3d88:	8082                	ret

00003d8a <DevEP2_IN_Deal>:
DevEP2_IN_Deal():
D:/projects/mechanical_arm/Firmware/CarMainControl/libraries/sdk/Peripheral/ch32v30x_usbotg_device.c:341
* Description    : Device endpoint2 IN.
* Input          : l: IN length(<64B)
* Return         : None
*******************************************************************************/
void DevEP2_IN_Deal( UINT8 l )
{
    3d8a:	1101                	addi	sp,sp,-32
    3d8c:	ce22                	sw	s0,28(sp)
    3d8e:	1000                	addi	s0,sp,32
    3d90:	87aa                	mv	a5,a0
    3d92:	fef407a3          	sb	a5,-17(s0)
D:/projects/mechanical_arm/Firmware/CarMainControl/libraries/sdk/Peripheral/ch32v30x_usbotg_device.c:342
    USBOTG_FS->UEP2_TX_LEN = l;
    3d96:	500007b7          	lui	a5,0x50000
    3d9a:	fef44703          	lbu	a4,-17(s0)
    3d9e:	0742                	slli	a4,a4,0x10
    3da0:	8341                	srli	a4,a4,0x10
    3da2:	02e79c23          	sh	a4,56(a5) # 50000038 <_eusrstack+0x2fff0038>
D:/projects/mechanical_arm/Firmware/CarMainControl/libraries/sdk/Peripheral/ch32v30x_usbotg_device.c:343
    USBOTG_FS->UEP2_TX_CTRL = (USBOTG_FS->UEP2_TX_CTRL & ~USBHD_UEP_T_RES_MASK)| USBHD_UEP_T_RES_ACK;
    3da6:	500007b7          	lui	a5,0x50000
    3daa:	03a7c783          	lbu	a5,58(a5) # 5000003a <_eusrstack+0x2fff003a>
    3dae:	0ff7f713          	andi	a4,a5,255
    3db2:	500007b7          	lui	a5,0x50000
    3db6:	9b71                	andi	a4,a4,-4
    3db8:	0ff77713          	andi	a4,a4,255
    3dbc:	02e78d23          	sb	a4,58(a5) # 5000003a <_eusrstack+0x2fff003a>
D:/projects/mechanical_arm/Firmware/CarMainControl/libraries/sdk/Peripheral/ch32v30x_usbotg_device.c:344
}
    3dc0:	0001                	nop
    3dc2:	4472                	lw	s0,28(sp)
    3dc4:	6105                	addi	sp,sp,32
    3dc6:	8082                	ret

00003dc8 <DevEP1_OUT_Deal>:
DevEP1_OUT_Deal():
D:/projects/mechanical_arm/Firmware/CarMainControl/libraries/sdk/Peripheral/ch32v30x_usbotg_device.c:353
* Description    : Deal device Endpoint 1 OUT.
* Input          : l: Data length.
* Return         : None
*******************************************************************************/
void DevEP1_OUT_Deal( UINT8 l )
{
    3dc8:	7179                	addi	sp,sp,-48
    3dca:	d606                	sw	ra,44(sp)
    3dcc:	d422                	sw	s0,40(sp)
    3dce:	1800                	addi	s0,sp,48
    3dd0:	87aa                	mv	a5,a0
    3dd2:	fcf40fa3          	sb	a5,-33(s0)
D:/projects/mechanical_arm/Firmware/CarMainControl/libraries/sdk/Peripheral/ch32v30x_usbotg_device.c:356
    UINT8 i;

    for(i=0; i<l; i++)
    3dd6:	fe0407a3          	sb	zero,-17(s0)
    3dda:	a815                	j	3e0e <DevEP1_OUT_Deal+0x46>
D:/projects/mechanical_arm/Firmware/CarMainControl/libraries/sdk/Peripheral/ch32v30x_usbotg_device.c:358 (discriminator 3)
    {
        pEP1_IN_DataBuf[i] = ~pEP1_OUT_DataBuf[i];
    3ddc:	8701a703          	lw	a4,-1936(gp) # 20000290 <pEP1_RAM_Addr>
    3de0:	fef44783          	lbu	a5,-17(s0)
    3de4:	97ba                	add	a5,a5,a4
    3de6:	0007c703          	lbu	a4,0(a5)
    3dea:	8701a683          	lw	a3,-1936(gp) # 20000290 <pEP1_RAM_Addr>
    3dee:	fef44783          	lbu	a5,-17(s0)
    3df2:	04078793          	addi	a5,a5,64
    3df6:	97b6                	add	a5,a5,a3
    3df8:	fff74713          	not	a4,a4
    3dfc:	0ff77713          	andi	a4,a4,255
    3e00:	00e78023          	sb	a4,0(a5)
D:/projects/mechanical_arm/Firmware/CarMainControl/libraries/sdk/Peripheral/ch32v30x_usbotg_device.c:356 (discriminator 3)
    for(i=0; i<l; i++)
    3e04:	fef44783          	lbu	a5,-17(s0)
    3e08:	0785                	addi	a5,a5,1
    3e0a:	fef407a3          	sb	a5,-17(s0)
D:/projects/mechanical_arm/Firmware/CarMainControl/libraries/sdk/Peripheral/ch32v30x_usbotg_device.c:356 (discriminator 1)
    3e0e:	fef44703          	lbu	a4,-17(s0)
    3e12:	fdf44783          	lbu	a5,-33(s0)
    3e16:	fcf763e3          	bltu	a4,a5,3ddc <DevEP1_OUT_Deal+0x14>
D:/projects/mechanical_arm/Firmware/CarMainControl/libraries/sdk/Peripheral/ch32v30x_usbotg_device.c:361
    }

    DevEP1_IN_Deal( l );
    3e1a:	fdf44783          	lbu	a5,-33(s0)
    3e1e:	853e                	mv	a0,a5
    3e20:	f2dff0ef          	jal	ra,3d4c <DevEP1_IN_Deal>
D:/projects/mechanical_arm/Firmware/CarMainControl/libraries/sdk/Peripheral/ch32v30x_usbotg_device.c:362
}
    3e24:	0001                	nop
    3e26:	50b2                	lw	ra,44(sp)
    3e28:	5422                	lw	s0,40(sp)
    3e2a:	6145                	addi	sp,sp,48
    3e2c:	8082                	ret

00003e2e <DevEP2_OUT_Deal>:
DevEP2_OUT_Deal():
D:/projects/mechanical_arm/Firmware/CarMainControl/libraries/sdk/Peripheral/ch32v30x_usbotg_device.c:371
* Description    : Deal device Endpoint 2 OUT.
* Input          : l: Data length.
* Return         : None
*******************************************************************************/
void DevEP2_OUT_Deal( UINT8 l )
{
    3e2e:	7179                	addi	sp,sp,-48
    3e30:	d606                	sw	ra,44(sp)
    3e32:	d422                	sw	s0,40(sp)
    3e34:	1800                	addi	s0,sp,48
    3e36:	87aa                	mv	a5,a0
    3e38:	fcf40fa3          	sb	a5,-33(s0)
D:/projects/mechanical_arm/Firmware/CarMainControl/libraries/sdk/Peripheral/ch32v30x_usbotg_device.c:374
    UINT8 i;

    for(i=0; i<l; i++)
    3e3c:	fe0407a3          	sb	zero,-17(s0)
    3e40:	a815                	j	3e74 <DevEP2_OUT_Deal+0x46>
D:/projects/mechanical_arm/Firmware/CarMainControl/libraries/sdk/Peripheral/ch32v30x_usbotg_device.c:376 (discriminator 3)
    {
        pEP2_IN_DataBuf[i] = ~pEP2_OUT_DataBuf[i];
    3e42:	8741a703          	lw	a4,-1932(gp) # 20000294 <pEP2_RAM_Addr>
    3e46:	fef44783          	lbu	a5,-17(s0)
    3e4a:	97ba                	add	a5,a5,a4
    3e4c:	0007c703          	lbu	a4,0(a5)
    3e50:	8741a683          	lw	a3,-1932(gp) # 20000294 <pEP2_RAM_Addr>
    3e54:	fef44783          	lbu	a5,-17(s0)
    3e58:	04078793          	addi	a5,a5,64
    3e5c:	97b6                	add	a5,a5,a3
    3e5e:	fff74713          	not	a4,a4
    3e62:	0ff77713          	andi	a4,a4,255
    3e66:	00e78023          	sb	a4,0(a5)
D:/projects/mechanical_arm/Firmware/CarMainControl/libraries/sdk/Peripheral/ch32v30x_usbotg_device.c:374 (discriminator 3)
    for(i=0; i<l; i++)
    3e6a:	fef44783          	lbu	a5,-17(s0)
    3e6e:	0785                	addi	a5,a5,1
    3e70:	fef407a3          	sb	a5,-17(s0)
D:/projects/mechanical_arm/Firmware/CarMainControl/libraries/sdk/Peripheral/ch32v30x_usbotg_device.c:374 (discriminator 1)
    3e74:	fef44703          	lbu	a4,-17(s0)
    3e78:	fdf44783          	lbu	a5,-33(s0)
    3e7c:	fcf763e3          	bltu	a4,a5,3e42 <DevEP2_OUT_Deal+0x14>
D:/projects/mechanical_arm/Firmware/CarMainControl/libraries/sdk/Peripheral/ch32v30x_usbotg_device.c:379
    }

    DevEP2_IN_Deal( l );
    3e80:	fdf44783          	lbu	a5,-33(s0)
    3e84:	853e                	mv	a0,a5
    3e86:	f05ff0ef          	jal	ra,3d8a <DevEP2_IN_Deal>
D:/projects/mechanical_arm/Firmware/CarMainControl/libraries/sdk/Peripheral/ch32v30x_usbotg_device.c:380
}
    3e8a:	0001                	nop
    3e8c:	50b2                	lw	ra,44(sp)
    3e8e:	5422                	lw	s0,40(sp)
    3e90:	6145                	addi	sp,sp,48
    3e92:	8082                	ret

00003e94 <OTG_FS_IRQHandler>:
OTG_FS_IRQHandler():
D:/projects/mechanical_arm/Firmware/CarMainControl/libraries/sdk/Peripheral/ch32v30x_usbotg_device.c:389
* Description    : OTG_FS_IRQHandler OTG设备中断处理函数
* Input          : None
* Return         : None
*******************************************************************************/
void OTG_FS_IRQHandler( void )
{
    3e94:	1101                	addi	sp,sp,-32
    3e96:	ce22                	sw	s0,28(sp)
    3e98:	1000                	addi	s0,sp,32
D:/projects/mechanical_arm/Firmware/CarMainControl/libraries/sdk/Peripheral/ch32v30x_usbotg_device.c:391
    UINT8  len, chtype;
    UINT8  intflag, errflag = 0;
    3e9a:	fe040723          	sb	zero,-18(s0)
D:/projects/mechanical_arm/Firmware/CarMainControl/libraries/sdk/Peripheral/ch32v30x_usbotg_device.c:393

    intflag = USBOTG_FS->INT_FG;
    3e9e:	500007b7          	lui	a5,0x50000
    3ea2:	0067c783          	lbu	a5,6(a5) # 50000006 <_eusrstack+0x2fff0006>
    3ea6:	fef406a3          	sb	a5,-19(s0)
D:/projects/mechanical_arm/Firmware/CarMainControl/libraries/sdk/Peripheral/ch32v30x_usbotg_device.c:395

    if( intflag & USBHD_UIF_TRANSFER )
    3eaa:	fed44783          	lbu	a5,-19(s0)
    3eae:	8b89                	andi	a5,a5,2
    3eb0:	3c0781e3          	beqz	a5,4a72 <OTG_FS_IRQHandler+0xbde>
D:/projects/mechanical_arm/Firmware/CarMainControl/libraries/sdk/Peripheral/ch32v30x_usbotg_device.c:397
    {
        switch ( USBOTG_FS->INT_ST & USBHD_UIS_TOKEN_MASK )
    3eb4:	500007b7          	lui	a5,0x50000
    3eb8:	0077c783          	lbu	a5,7(a5) # 50000007 <_eusrstack+0x2fff0007>
    3ebc:	0ff7f793          	andi	a5,a5,255
    3ec0:	0307f793          	andi	a5,a5,48
    3ec4:	4741                	li	a4,16
    3ec6:	38e78be3          	beq	a5,a4,4a5c <OTG_FS_IRQHandler+0xbc8>
    3eca:	4741                	li	a4,16
    3ecc:	00f74663          	blt	a4,a5,3ed8 <OTG_FS_IRQHandler+0x44>
    3ed0:	20078ee3          	beqz	a5,48ec <OTG_FS_IRQHandler+0xa58>
D:/projects/mechanical_arm/Firmware/CarMainControl/libraries/sdk/Peripheral/ch32v30x_usbotg_device.c:878
            case USBHD_UIS_TOKEN_SOF:

                break;

            default :
                break;
    3ed4:	38d0006f          	j	4a60 <OTG_FS_IRQHandler+0xbcc>
    3ed8:	02000713          	li	a4,32
    3edc:	04e786e3          	beq	a5,a4,4728 <OTG_FS_IRQHandler+0x894>
    3ee0:	03000713          	li	a4,48
    3ee4:	36e79ee3          	bne	a5,a4,4a60 <OTG_FS_IRQHandler+0xbcc>
D:/projects/mechanical_arm/Firmware/CarMainControl/libraries/sdk/Peripheral/ch32v30x_usbotg_device.c:411
                USBOTG_FS->UEP0_TX_CTRL = USBHD_UEP_T_TOG|USBHD_UEP_T_RES_NAK;
    3ee8:	500007b7          	lui	a5,0x50000
    3eec:	4719                	li	a4,6
    3eee:	02e78923          	sb	a4,50(a5) # 50000032 <_eusrstack+0x2fff0032>
D:/projects/mechanical_arm/Firmware/CarMainControl/libraries/sdk/Peripheral/ch32v30x_usbotg_device.c:412
                USBOTG_FS->UEP0_RX_CTRL = USBHD_UEP_R_TOG|USBHD_UEP_R_RES_ACK;
    3ef2:	500007b7          	lui	a5,0x50000
    3ef6:	4711                	li	a4,4
    3ef8:	02e789a3          	sb	a4,51(a5) # 50000033 <_eusrstack+0x2fff0033>
D:/projects/mechanical_arm/Firmware/CarMainControl/libraries/sdk/Peripheral/ch32v30x_usbotg_device.c:413
                SetupReqLen  = pSetupReqPakHD->wLength;
    3efc:	86c1a783          	lw	a5,-1940(gp) # 2000028c <pEP0_RAM_Addr>
    3f00:	0067c703          	lbu	a4,6(a5)
    3f04:	0077c783          	lbu	a5,7(a5)
    3f08:	07a2                	slli	a5,a5,0x8
    3f0a:	8fd9                	or	a5,a5,a4
    3f0c:	01079713          	slli	a4,a5,0x10
    3f10:	8341                	srli	a4,a4,0x10
    3f12:	88e19123          	sh	a4,-1918(gp) # 200002a2 <SetupReqLen>
D:/projects/mechanical_arm/Firmware/CarMainControl/libraries/sdk/Peripheral/ch32v30x_usbotg_device.c:414
                SetupReqCode = pSetupReqPakHD->bRequest;
    3f16:	86c1a783          	lw	a5,-1940(gp) # 2000028c <pEP0_RAM_Addr>
    3f1a:	0017c703          	lbu	a4,1(a5)
    3f1e:	88e18023          	sb	a4,-1920(gp) # 200002a0 <SetupReqCode>
D:/projects/mechanical_arm/Firmware/CarMainControl/libraries/sdk/Peripheral/ch32v30x_usbotg_device.c:415
                chtype = pSetupReqPakHD->bRequestType;
    3f22:	86c1a783          	lw	a5,-1940(gp) # 2000028c <pEP0_RAM_Addr>
    3f26:	0007c783          	lbu	a5,0(a5)
    3f2a:	fef40623          	sb	a5,-20(s0)
D:/projects/mechanical_arm/Firmware/CarMainControl/libraries/sdk/Peripheral/ch32v30x_usbotg_device.c:416
                len = 0;
    3f2e:	fe0407a3          	sb	zero,-17(s0)
D:/projects/mechanical_arm/Firmware/CarMainControl/libraries/sdk/Peripheral/ch32v30x_usbotg_device.c:417
                errflag = 0;
    3f32:	fe040723          	sb	zero,-18(s0)
D:/projects/mechanical_arm/Firmware/CarMainControl/libraries/sdk/Peripheral/ch32v30x_usbotg_device.c:419
                if ( ( pSetupReqPakHD->bRequestType & USB_REQ_TYP_MASK ) != USB_REQ_TYP_STANDARD )  //非标准请求
    3f36:	86c1a783          	lw	a5,-1940(gp) # 2000028c <pEP0_RAM_Addr>
    3f3a:	0007c783          	lbu	a5,0(a5)
    3f3e:	0607f793          	andi	a5,a5,96
    3f42:	12078b63          	beqz	a5,4078 <OTG_FS_IRQHandler+0x1e4>
D:/projects/mechanical_arm/Firmware/CarMainControl/libraries/sdk/Peripheral/ch32v30x_usbotg_device.c:422
                    if(SetupReqCode & 0x20)
    3f46:	8801c783          	lbu	a5,-1920(gp) # 200002a0 <SetupReqCode>
    3f4a:	0ff7f793          	andi	a5,a5,255
    3f4e:	0207f793          	andi	a5,a5,32
    3f52:	c3d5                	beqz	a5,3ff6 <OTG_FS_IRQHandler+0x162>
D:/projects/mechanical_arm/Firmware/CarMainControl/libraries/sdk/Peripheral/ch32v30x_usbotg_device.c:424
                        switch( SetupReqCode )
    3f54:	8801c783          	lbu	a5,-1920(gp) # 200002a0 <SetupReqCode>
    3f58:	0ff7f793          	andi	a5,a5,255
    3f5c:	02100713          	li	a4,33
    3f60:	00e78b63          	beq	a5,a4,3f76 <OTG_FS_IRQHandler+0xe2>
    3f64:	02200713          	li	a4,34
    3f68:	08e78963          	beq	a5,a4,3ffa <OTG_FS_IRQHandler+0x166>
    3f6c:	02000713          	li	a4,32
    3f70:	08e78763          	beq	a5,a4,3ffe <OTG_FS_IRQHandler+0x16a>
    3f74:	a8ad                	j	3fee <OTG_FS_IRQHandler+0x15a>
D:/projects/mechanical_arm/Firmware/CarMainControl/libraries/sdk/Peripheral/ch32v30x_usbotg_device.c:427
                                pDescr = LineCoding;
    3f76:	81018713          	addi	a4,gp,-2032 # 20000230 <LineCoding>
    3f7a:	86e1ac23          	sw	a4,-1928(gp) # 20000298 <pDescr>
D:/projects/mechanical_arm/Firmware/CarMainControl/libraries/sdk/Peripheral/ch32v30x_usbotg_device.c:428
                                len = sizeof(LineCoding);
    3f7e:	479d                	li	a5,7
    3f80:	fef407a3          	sb	a5,-17(s0)
D:/projects/mechanical_arm/Firmware/CarMainControl/libraries/sdk/Peripheral/ch32v30x_usbotg_device.c:429
                                len = SetupReqLen >= DEFAULT_ENDP0_SIZE ? DEFAULT_ENDP0_SIZE : SetupReqLen;  // 本次传输长度
    3f84:	8821d783          	lhu	a5,-1918(gp) # 200002a2 <SetupReqLen>
    3f88:	01079713          	slli	a4,a5,0x10
    3f8c:	8341                	srli	a4,a4,0x10
    3f8e:	479d                	li	a5,7
    3f90:	00e7e963          	bltu	a5,a4,3fa2 <OTG_FS_IRQHandler+0x10e>
D:/projects/mechanical_arm/Firmware/CarMainControl/libraries/sdk/Peripheral/ch32v30x_usbotg_device.c:429 (discriminator 1)
    3f94:	8821d783          	lhu	a5,-1918(gp) # 200002a2 <SetupReqLen>
    3f98:	07c2                	slli	a5,a5,0x10
    3f9a:	83c1                	srli	a5,a5,0x10
    3f9c:	0ff7f793          	andi	a5,a5,255
    3fa0:	a011                	j	3fa4 <OTG_FS_IRQHandler+0x110>
D:/projects/mechanical_arm/Firmware/CarMainControl/libraries/sdk/Peripheral/ch32v30x_usbotg_device.c:429 (discriminator 2)
    3fa2:	47a1                	li	a5,8
D:/projects/mechanical_arm/Firmware/CarMainControl/libraries/sdk/Peripheral/ch32v30x_usbotg_device.c:429 (discriminator 4)
    3fa4:	fef407a3          	sb	a5,-17(s0)
D:/projects/mechanical_arm/Firmware/CarMainControl/libraries/sdk/Peripheral/ch32v30x_usbotg_device.c:430 (discriminator 4)
                                memcpy(pEP0_DataBuf,pDescr,len);
    3fa8:	86c1a703          	lw	a4,-1940(gp) # 2000028c <pEP0_RAM_Addr>
    3fac:	8781a783          	lw	a5,-1928(gp) # 20000298 <pDescr>
    3fb0:	fef44683          	lbu	a3,-17(s0)
    3fb4:	8636                	mv	a2,a3
    3fb6:	85be                	mv	a1,a5
    3fb8:	853a                	mv	a0,a4
    3fba:	692020ef          	jal	ra,664c <memcpy>
D:/projects/mechanical_arm/Firmware/CarMainControl/libraries/sdk/Peripheral/ch32v30x_usbotg_device.c:431 (discriminator 4)
                                SetupReqLen -= len;
    3fbe:	8821d783          	lhu	a5,-1918(gp) # 200002a2 <SetupReqLen>
    3fc2:	01079713          	slli	a4,a5,0x10
    3fc6:	8341                	srli	a4,a4,0x10
    3fc8:	fef44783          	lbu	a5,-17(s0)
    3fcc:	07c2                	slli	a5,a5,0x10
    3fce:	83c1                	srli	a5,a5,0x10
    3fd0:	40f707b3          	sub	a5,a4,a5
    3fd4:	01079713          	slli	a4,a5,0x10
    3fd8:	8341                	srli	a4,a4,0x10
    3fda:	88e19123          	sh	a4,-1918(gp) # 200002a2 <SetupReqLen>
D:/projects/mechanical_arm/Firmware/CarMainControl/libraries/sdk/Peripheral/ch32v30x_usbotg_device.c:432 (discriminator 4)
                                pDescr += len;
    3fde:	8781a703          	lw	a4,-1928(gp) # 20000298 <pDescr>
    3fe2:	fef44783          	lbu	a5,-17(s0)
    3fe6:	973e                	add	a4,a4,a5
    3fe8:	86e1ac23          	sw	a4,-1928(gp) # 20000298 <pDescr>
D:/projects/mechanical_arm/Firmware/CarMainControl/libraries/sdk/Peripheral/ch32v30x_usbotg_device.c:433 (discriminator 4)
                            break;
    3fec:	a811                	j	4000 <OTG_FS_IRQHandler+0x16c>
D:/projects/mechanical_arm/Firmware/CarMainControl/libraries/sdk/Peripheral/ch32v30x_usbotg_device.c:442
                                errflag = 0xFF;
    3fee:	57fd                	li	a5,-1
    3ff0:	fef40723          	sb	a5,-18(s0)
    3ff4:	a031                	j	4000 <OTG_FS_IRQHandler+0x16c>
D:/projects/mechanical_arm/Firmware/CarMainControl/libraries/sdk/Peripheral/ch32v30x_usbotg_device.c:444
                    }
    3ff6:	0001                	nop
    3ff8:	a021                	j	4000 <OTG_FS_IRQHandler+0x16c>
D:/projects/mechanical_arm/Firmware/CarMainControl/libraries/sdk/Peripheral/ch32v30x_usbotg_device.c:436
                            break;
    3ffa:	0001                	nop
    3ffc:	a011                	j	4000 <OTG_FS_IRQHandler+0x16c>
D:/projects/mechanical_arm/Firmware/CarMainControl/libraries/sdk/Peripheral/ch32v30x_usbotg_device.c:439
                            break;
    3ffe:	0001                	nop
D:/projects/mechanical_arm/Firmware/CarMainControl/libraries/sdk/Peripheral/ch32v30x_usbotg_device.c:461
                    if( errflag != 0xFF )
    4000:	fee44703          	lbu	a4,-18(s0)
    4004:	0ff00793          	li	a5,255
    4008:	68f70363          	beq	a4,a5,468e <OTG_FS_IRQHandler+0x7fa>
D:/projects/mechanical_arm/Firmware/CarMainControl/libraries/sdk/Peripheral/ch32v30x_usbotg_device.c:463
                        if( SetupReqLen > len )
    400c:	fef44783          	lbu	a5,-17(s0)
    4010:	01079713          	slli	a4,a5,0x10
    4014:	8341                	srli	a4,a4,0x10
    4016:	8821d783          	lhu	a5,-1918(gp) # 200002a2 <SetupReqLen>
    401a:	07c2                	slli	a5,a5,0x10
    401c:	83c1                	srli	a5,a5,0x10
    401e:	00f77963          	bgeu	a4,a5,4030 <OTG_FS_IRQHandler+0x19c>
D:/projects/mechanical_arm/Firmware/CarMainControl/libraries/sdk/Peripheral/ch32v30x_usbotg_device.c:465
                            SetupReqLen = len;
    4022:	fef44783          	lbu	a5,-17(s0)
    4026:	01079713          	slli	a4,a5,0x10
    402a:	8341                	srli	a4,a4,0x10
    402c:	88e19123          	sh	a4,-1918(gp) # 200002a2 <SetupReqLen>
D:/projects/mechanical_arm/Firmware/CarMainControl/libraries/sdk/Peripheral/ch32v30x_usbotg_device.c:467
                        len = ( USBHD_Dev_SetupReqLen >= DevEP0SIZE ) ? DevEP0SIZE : USBHD_Dev_SetupReqLen;
    4030:	87c1d783          	lhu	a5,-1924(gp) # 2000029c <USBHD_Dev_SetupReqLen>
    4034:	01079713          	slli	a4,a5,0x10
    4038:	8341                	srli	a4,a4,0x10
    403a:	479d                	li	a5,7
    403c:	00e7e963          	bltu	a5,a4,404e <OTG_FS_IRQHandler+0x1ba>
D:/projects/mechanical_arm/Firmware/CarMainControl/libraries/sdk/Peripheral/ch32v30x_usbotg_device.c:467 (discriminator 1)
    4040:	87c1d783          	lhu	a5,-1924(gp) # 2000029c <USBHD_Dev_SetupReqLen>
    4044:	07c2                	slli	a5,a5,0x10
    4046:	83c1                	srli	a5,a5,0x10
    4048:	0ff7f793          	andi	a5,a5,255
    404c:	a011                	j	4050 <OTG_FS_IRQHandler+0x1bc>
D:/projects/mechanical_arm/Firmware/CarMainControl/libraries/sdk/Peripheral/ch32v30x_usbotg_device.c:467 (discriminator 2)
    404e:	47a1                	li	a5,8
D:/projects/mechanical_arm/Firmware/CarMainControl/libraries/sdk/Peripheral/ch32v30x_usbotg_device.c:467 (discriminator 4)
    4050:	fef407a3          	sb	a5,-17(s0)
D:/projects/mechanical_arm/Firmware/CarMainControl/libraries/sdk/Peripheral/ch32v30x_usbotg_device.c:468 (discriminator 4)
                        memcpy( EP0_DatabufHD, pDescr, len );
    4054:	8781a783          	lw	a5,-1928(gp) # 20000298 <pDescr>
    4058:	fef44703          	lbu	a4,-17(s0)
    405c:	863a                	mv	a2,a4
    405e:	85be                	mv	a1,a5
    4060:	86418513          	addi	a0,gp,-1948 # 20000284 <EP0_DatabufHD>
    4064:	5e8020ef          	jal	ra,664c <memcpy>
D:/projects/mechanical_arm/Firmware/CarMainControl/libraries/sdk/Peripheral/ch32v30x_usbotg_device.c:469 (discriminator 4)
                        pDescr += len;
    4068:	8781a703          	lw	a4,-1928(gp) # 20000298 <pDescr>
    406c:	fef44783          	lbu	a5,-17(s0)
    4070:	973e                	add	a4,a4,a5
    4072:	86e1ac23          	sw	a4,-1928(gp) # 20000298 <pDescr>
    4076:	ad21                	j	468e <OTG_FS_IRQHandler+0x7fa>
D:/projects/mechanical_arm/Firmware/CarMainControl/libraries/sdk/Peripheral/ch32v30x_usbotg_device.c:475
                    switch( SetupReqCode )
    4078:	8801c783          	lbu	a5,-1920(gp) # 200002a0 <SetupReqCode>
    407c:	0ff7f793          	andi	a5,a5,255
    4080:	472d                	li	a4,11
    4082:	5ef76b63          	bltu	a4,a5,4678 <OTG_FS_IRQHandler+0x7e4>
    4086:	00279713          	slli	a4,a5,0x2
    408a:	67a9                	lui	a5,0xa
    408c:	f7078793          	addi	a5,a5,-144 # 9f70 <MyUSBQUADescHD+0xc>
    4090:	97ba                	add	a5,a5,a4
    4092:	439c                	lw	a5,0(a5)
    4094:	8782                	jr	a5
D:/projects/mechanical_arm/Firmware/CarMainControl/libraries/sdk/Peripheral/ch32v30x_usbotg_device.c:479 (discriminator 1)
                            switch( ((pSetupReqPakHD->wValue)>>8) )
    4096:	86c1a783          	lw	a5,-1940(gp) # 2000028c <pEP0_RAM_Addr>
    409a:	0027c703          	lbu	a4,2(a5)
    409e:	0037c783          	lbu	a5,3(a5)
    40a2:	07a2                	slli	a5,a5,0x8
    40a4:	8fd9                	or	a5,a5,a4
    40a6:	07c2                	slli	a5,a5,0x10
    40a8:	83c1                	srli	a5,a5,0x10
    40aa:	83a1                	srli	a5,a5,0x8
    40ac:	07c2                	slli	a5,a5,0x10
    40ae:	83c1                	srli	a5,a5,0x10
    40b0:	02200713          	li	a4,34
    40b4:	12f76563          	bltu	a4,a5,41de <OTG_FS_IRQHandler+0x34a>
    40b8:	00279713          	slli	a4,a5,0x2
    40bc:	67a9                	lui	a5,0xa
    40be:	fa078793          	addi	a5,a5,-96 # 9fa0 <MyUSBQUADescHD+0x3c>
    40c2:	97ba                	add	a5,a5,a4
    40c4:	439c                	lw	a5,0(a5)
    40c6:	8782                	jr	a5
D:/projects/mechanical_arm/Firmware/CarMainControl/libraries/sdk/Peripheral/ch32v30x_usbotg_device.c:483
                                    pDescr = MyDevDescrHD;
    40c8:	6729                	lui	a4,0xa
    40ca:	ec470713          	addi	a4,a4,-316 # 9ec4 <MyDevDescrHD>
    40ce:	86e1ac23          	sw	a4,-1928(gp) # 20000298 <pDescr>
D:/projects/mechanical_arm/Firmware/CarMainControl/libraries/sdk/Peripheral/ch32v30x_usbotg_device.c:484
                                    len = MyDevDescrHD[0];
    40d2:	47c9                	li	a5,18
    40d4:	fef407a3          	sb	a5,-17(s0)
D:/projects/mechanical_arm/Firmware/CarMainControl/libraries/sdk/Peripheral/ch32v30x_usbotg_device.c:485
                                    break;
    40d8:	a239                	j	41e6 <OTG_FS_IRQHandler+0x352>
D:/projects/mechanical_arm/Firmware/CarMainControl/libraries/sdk/Peripheral/ch32v30x_usbotg_device.c:489
                                    pDescr = MyCfgDescrHD;
    40da:	6729                	lui	a4,0xa
    40dc:	ed870713          	addi	a4,a4,-296 # 9ed8 <MyCfgDescrHD>
    40e0:	86e1ac23          	sw	a4,-1928(gp) # 20000298 <pDescr>
D:/projects/mechanical_arm/Firmware/CarMainControl/libraries/sdk/Peripheral/ch32v30x_usbotg_device.c:490
                                    len = MyCfgDescrHD[2];
    40e4:	04300793          	li	a5,67
    40e8:	fef407a3          	sb	a5,-17(s0)
D:/projects/mechanical_arm/Firmware/CarMainControl/libraries/sdk/Peripheral/ch32v30x_usbotg_device.c:491
                                    break;
    40ec:	a8ed                	j	41e6 <OTG_FS_IRQHandler+0x352>
D:/projects/mechanical_arm/Firmware/CarMainControl/libraries/sdk/Peripheral/ch32v30x_usbotg_device.c:495 (discriminator 2)
                                    switch( (pSetupReqPakHD->wValue)&0xff )
    40ee:	86c1a783          	lw	a5,-1940(gp) # 2000028c <pEP0_RAM_Addr>
    40f2:	0027c703          	lbu	a4,2(a5)
    40f6:	0037c783          	lbu	a5,3(a5)
    40fa:	07a2                	slli	a5,a5,0x8
    40fc:	8fd9                	or	a5,a5,a4
    40fe:	07c2                	slli	a5,a5,0x10
    4100:	83c1                	srli	a5,a5,0x10
    4102:	0ff7f793          	andi	a5,a5,255
    4106:	4705                	li	a4,1
    4108:	02e78663          	beq	a5,a4,4134 <OTG_FS_IRQHandler+0x2a0>
    410c:	4705                	li	a4,1
    410e:	00f74463          	blt	a4,a5,4116 <OTG_FS_IRQHandler+0x282>
    4112:	cb89                	beqz	a5,4124 <OTG_FS_IRQHandler+0x290>
    4114:	a899                	j	416a <OTG_FS_IRQHandler+0x2d6>
    4116:	4709                	li	a4,2
    4118:	02e78763          	beq	a5,a4,4146 <OTG_FS_IRQHandler+0x2b2>
    411c:	470d                	li	a4,3
    411e:	02e78d63          	beq	a5,a4,4158 <OTG_FS_IRQHandler+0x2c4>
    4122:	a0a1                	j	416a <OTG_FS_IRQHandler+0x2d6>
D:/projects/mechanical_arm/Firmware/CarMainControl/libraries/sdk/Peripheral/ch32v30x_usbotg_device.c:499
                                        pDescr = MyLangDescrHD;
    4124:	82418713          	addi	a4,gp,-2012 # 20000244 <MyLangDescrHD>
    4128:	86e1ac23          	sw	a4,-1928(gp) # 20000298 <pDescr>
D:/projects/mechanical_arm/Firmware/CarMainControl/libraries/sdk/Peripheral/ch32v30x_usbotg_device.c:500
                                        len = MyLangDescrHD[0];
    412c:	4791                	li	a5,4
    412e:	fef407a3          	sb	a5,-17(s0)
D:/projects/mechanical_arm/Firmware/CarMainControl/libraries/sdk/Peripheral/ch32v30x_usbotg_device.c:501
                                            break;
    4132:	a081                	j	4172 <OTG_FS_IRQHandler+0x2de>
D:/projects/mechanical_arm/Firmware/CarMainControl/libraries/sdk/Peripheral/ch32v30x_usbotg_device.c:505
                                            pDescr = MyManuInfoHD;
    4134:	6729                	lui	a4,0xa
    4136:	f3070713          	addi	a4,a4,-208 # 9f30 <MyManuInfoHD>
    413a:	86e1ac23          	sw	a4,-1928(gp) # 20000298 <pDescr>
D:/projects/mechanical_arm/Firmware/CarMainControl/libraries/sdk/Peripheral/ch32v30x_usbotg_device.c:506
                                            len = MyManuInfoHD[0];
    413e:	47b9                	li	a5,14
    4140:	fef407a3          	sb	a5,-17(s0)
D:/projects/mechanical_arm/Firmware/CarMainControl/libraries/sdk/Peripheral/ch32v30x_usbotg_device.c:507
                                            break;
    4144:	a03d                	j	4172 <OTG_FS_IRQHandler+0x2de>
D:/projects/mechanical_arm/Firmware/CarMainControl/libraries/sdk/Peripheral/ch32v30x_usbotg_device.c:511
                                            pDescr = MyProdInfoHD;
    4146:	6729                	lui	a4,0xa
    4148:	f4070713          	addi	a4,a4,-192 # 9f40 <MyProdInfoHD>
    414c:	86e1ac23          	sw	a4,-1928(gp) # 20000298 <pDescr>
D:/projects/mechanical_arm/Firmware/CarMainControl/libraries/sdk/Peripheral/ch32v30x_usbotg_device.c:512
                                            len = MyProdInfoHD[0];
    4150:	47b1                	li	a5,12
    4152:	fef407a3          	sb	a5,-17(s0)
D:/projects/mechanical_arm/Firmware/CarMainControl/libraries/sdk/Peripheral/ch32v30x_usbotg_device.c:513
                                            break;
    4156:	a831                	j	4172 <OTG_FS_IRQHandler+0x2de>
D:/projects/mechanical_arm/Firmware/CarMainControl/libraries/sdk/Peripheral/ch32v30x_usbotg_device.c:517
                                            pDescr = MySerNumInfoHD;
    4158:	6729                	lui	a4,0xa
    415a:	f4c70713          	addi	a4,a4,-180 # 9f4c <MySerNumInfoHD>
    415e:	86e1ac23          	sw	a4,-1928(gp) # 20000298 <pDescr>
D:/projects/mechanical_arm/Firmware/CarMainControl/libraries/sdk/Peripheral/ch32v30x_usbotg_device.c:518
                                            len = sizeof( MySerNumInfoHD );
    4162:	47d9                	li	a5,22
    4164:	fef407a3          	sb	a5,-17(s0)
D:/projects/mechanical_arm/Firmware/CarMainControl/libraries/sdk/Peripheral/ch32v30x_usbotg_device.c:519
                                            break;
    4168:	a029                	j	4172 <OTG_FS_IRQHandler+0x2de>
D:/projects/mechanical_arm/Firmware/CarMainControl/libraries/sdk/Peripheral/ch32v30x_usbotg_device.c:522
                                            errflag = 0xFF;
    416a:	57fd                	li	a5,-1
    416c:	fef40723          	sb	a5,-18(s0)
D:/projects/mechanical_arm/Firmware/CarMainControl/libraries/sdk/Peripheral/ch32v30x_usbotg_device.c:523
                                            break;
    4170:	0001                	nop
D:/projects/mechanical_arm/Firmware/CarMainControl/libraries/sdk/Peripheral/ch32v30x_usbotg_device.c:525
                                    break;
    4172:	a895                	j	41e6 <OTG_FS_IRQHandler+0x352>
D:/projects/mechanical_arm/Firmware/CarMainControl/libraries/sdk/Peripheral/ch32v30x_usbotg_device.c:529
                                    pDescr = MyReportDescHD;
    4174:	6729                	lui	a4,0xa
    4176:	f1c70713          	addi	a4,a4,-228 # 9f1c <MyReportDescHD>
    417a:	86e1ac23          	sw	a4,-1928(gp) # 20000298 <pDescr>
D:/projects/mechanical_arm/Firmware/CarMainControl/libraries/sdk/Peripheral/ch32v30x_usbotg_device.c:530
                                    len = sizeof( MyReportDescHD );
    417e:	47d1                	li	a5,20
    4180:	fef407a3          	sb	a5,-17(s0)
D:/projects/mechanical_arm/Firmware/CarMainControl/libraries/sdk/Peripheral/ch32v30x_usbotg_device.c:531
                                    break;
    4184:	a08d                	j	41e6 <OTG_FS_IRQHandler+0x352>
D:/projects/mechanical_arm/Firmware/CarMainControl/libraries/sdk/Peripheral/ch32v30x_usbotg_device.c:535
                                    pDescr = ( PUINT8 )&MyUSBQUADescHD[ 0 ];
    4186:	6729                	lui	a4,0xa
    4188:	f6470713          	addi	a4,a4,-156 # 9f64 <MyUSBQUADescHD>
    418c:	86e1ac23          	sw	a4,-1928(gp) # 20000298 <pDescr>
D:/projects/mechanical_arm/Firmware/CarMainControl/libraries/sdk/Peripheral/ch32v30x_usbotg_device.c:536
                                    len = sizeof( MyUSBQUADescHD );
    4190:	47a9                	li	a5,10
    4192:	fef407a3          	sb	a5,-17(s0)
D:/projects/mechanical_arm/Firmware/CarMainControl/libraries/sdk/Peripheral/ch32v30x_usbotg_device.c:537
                                    break;
    4196:	a881                	j	41e6 <OTG_FS_IRQHandler+0x352>
D:/projects/mechanical_arm/Firmware/CarMainControl/libraries/sdk/Peripheral/ch32v30x_usbotg_device.c:542
                                    if( USBHD_Dev_Speed == 0x00 )
    4198:	80c1c783          	lbu	a5,-2036(gp) # 2000022c <USBHD_Dev_Speed>
    419c:	0ff7f793          	andi	a5,a5,255
    41a0:	e79d                	bnez	a5,41ce <OTG_FS_IRQHandler+0x33a>
D:/projects/mechanical_arm/Firmware/CarMainControl/libraries/sdk/Peripheral/ch32v30x_usbotg_device.c:545
                                      memcpy( &TAB_USB_FS_OSC_DESC[ 2 ], &MyCfgDescrHD[ 2 ], sizeof( MyCfgDescrHD ) - 2 );
    41a2:	04100613          	li	a2,65
    41a6:	67a9                	lui	a5,0xa
    41a8:	eda78593          	addi	a1,a5,-294 # 9eda <MyCfgDescrHD+0x2>
    41ac:	200007b7          	lui	a5,0x20000
    41b0:	01278513          	addi	a0,a5,18 # 20000012 <TAB_USB_FS_OSC_DESC+0x2>
    41b4:	498020ef          	jal	ra,664c <memcpy>
D:/projects/mechanical_arm/Firmware/CarMainControl/libraries/sdk/Peripheral/ch32v30x_usbotg_device.c:546
                                      pDescr = ( PUINT8 )&TAB_USB_FS_OSC_DESC[ 0 ];
    41b8:	20000737          	lui	a4,0x20000
    41bc:	01070713          	addi	a4,a4,16 # 20000010 <TAB_USB_FS_OSC_DESC>
    41c0:	86e1ac23          	sw	a4,-1928(gp) # 20000298 <pDescr>
D:/projects/mechanical_arm/Firmware/CarMainControl/libraries/sdk/Peripheral/ch32v30x_usbotg_device.c:547
                                      len = sizeof( TAB_USB_FS_OSC_DESC );
    41c4:	04300793          	li	a5,67
    41c8:	fef407a3          	sb	a5,-17(s0)
D:/projects/mechanical_arm/Firmware/CarMainControl/libraries/sdk/Peripheral/ch32v30x_usbotg_device.c:553
                                    break;
    41cc:	a829                	j	41e6 <OTG_FS_IRQHandler+0x352>
D:/projects/mechanical_arm/Firmware/CarMainControl/libraries/sdk/Peripheral/ch32v30x_usbotg_device.c:551
                                      errflag = 0xFF;
    41ce:	57fd                	li	a5,-1
    41d0:	fef40723          	sb	a5,-18(s0)
D:/projects/mechanical_arm/Firmware/CarMainControl/libraries/sdk/Peripheral/ch32v30x_usbotg_device.c:553
                                    break;
    41d4:	a809                	j	41e6 <OTG_FS_IRQHandler+0x352>
D:/projects/mechanical_arm/Firmware/CarMainControl/libraries/sdk/Peripheral/ch32v30x_usbotg_device.c:558
                                    errflag = 0xFF;
    41d6:	57fd                	li	a5,-1
    41d8:	fef40723          	sb	a5,-18(s0)
D:/projects/mechanical_arm/Firmware/CarMainControl/libraries/sdk/Peripheral/ch32v30x_usbotg_device.c:559
                                    break;
    41dc:	a029                	j	41e6 <OTG_FS_IRQHandler+0x352>
D:/projects/mechanical_arm/Firmware/CarMainControl/libraries/sdk/Peripheral/ch32v30x_usbotg_device.c:562
                                    errflag = 0xff;
    41de:	57fd                	li	a5,-1
    41e0:	fef40723          	sb	a5,-18(s0)
D:/projects/mechanical_arm/Firmware/CarMainControl/libraries/sdk/Peripheral/ch32v30x_usbotg_device.c:563
                                    break;
    41e4:	0001                	nop
D:/projects/mechanical_arm/Firmware/CarMainControl/libraries/sdk/Peripheral/ch32v30x_usbotg_device.c:567
                            if( SetupReqLen>len )   SetupReqLen = len;
    41e6:	fef44783          	lbu	a5,-17(s0)
    41ea:	01079713          	slli	a4,a5,0x10
    41ee:	8341                	srli	a4,a4,0x10
    41f0:	8821d783          	lhu	a5,-1918(gp) # 200002a2 <SetupReqLen>
    41f4:	07c2                	slli	a5,a5,0x10
    41f6:	83c1                	srli	a5,a5,0x10
    41f8:	00f77963          	bgeu	a4,a5,420a <OTG_FS_IRQHandler+0x376>
D:/projects/mechanical_arm/Firmware/CarMainControl/libraries/sdk/Peripheral/ch32v30x_usbotg_device.c:567 (discriminator 1)
    41fc:	fef44783          	lbu	a5,-17(s0)
    4200:	01079713          	slli	a4,a5,0x10
    4204:	8341                	srli	a4,a4,0x10
    4206:	88e19123          	sh	a4,-1918(gp) # 200002a2 <SetupReqLen>
D:/projects/mechanical_arm/Firmware/CarMainControl/libraries/sdk/Peripheral/ch32v30x_usbotg_device.c:568
                            len = (SetupReqLen >= DevEP0SIZE) ? DevEP0SIZE : SetupReqLen;
    420a:	8821d783          	lhu	a5,-1918(gp) # 200002a2 <SetupReqLen>
    420e:	01079713          	slli	a4,a5,0x10
    4212:	8341                	srli	a4,a4,0x10
    4214:	479d                	li	a5,7
    4216:	00e7e963          	bltu	a5,a4,4228 <OTG_FS_IRQHandler+0x394>
D:/projects/mechanical_arm/Firmware/CarMainControl/libraries/sdk/Peripheral/ch32v30x_usbotg_device.c:568 (discriminator 1)
    421a:	8821d783          	lhu	a5,-1918(gp) # 200002a2 <SetupReqLen>
    421e:	07c2                	slli	a5,a5,0x10
    4220:	83c1                	srli	a5,a5,0x10
    4222:	0ff7f793          	andi	a5,a5,255
    4226:	a011                	j	422a <OTG_FS_IRQHandler+0x396>
D:/projects/mechanical_arm/Firmware/CarMainControl/libraries/sdk/Peripheral/ch32v30x_usbotg_device.c:568 (discriminator 2)
    4228:	47a1                	li	a5,8
D:/projects/mechanical_arm/Firmware/CarMainControl/libraries/sdk/Peripheral/ch32v30x_usbotg_device.c:568 (discriminator 4)
    422a:	fef407a3          	sb	a5,-17(s0)
D:/projects/mechanical_arm/Firmware/CarMainControl/libraries/sdk/Peripheral/ch32v30x_usbotg_device.c:569 (discriminator 4)
                            memcpy( pEP0_DataBuf, pDescr, len );
    422e:	86c1a703          	lw	a4,-1940(gp) # 2000028c <pEP0_RAM_Addr>
    4232:	8781a783          	lw	a5,-1928(gp) # 20000298 <pDescr>
    4236:	fef44683          	lbu	a3,-17(s0)
    423a:	8636                	mv	a2,a3
    423c:	85be                	mv	a1,a5
    423e:	853a                	mv	a0,a4
    4240:	40c020ef          	jal	ra,664c <memcpy>
D:/projects/mechanical_arm/Firmware/CarMainControl/libraries/sdk/Peripheral/ch32v30x_usbotg_device.c:570 (discriminator 4)
                            pDescr += len;
    4244:	8781a703          	lw	a4,-1928(gp) # 20000298 <pDescr>
    4248:	fef44783          	lbu	a5,-17(s0)
    424c:	973e                	add	a4,a4,a5
    424e:	86e1ac23          	sw	a4,-1928(gp) # 20000298 <pDescr>
D:/projects/mechanical_arm/Firmware/CarMainControl/libraries/sdk/Peripheral/ch32v30x_usbotg_device.c:572 (discriminator 4)
                            break;
    4252:	a935                	j	468e <OTG_FS_IRQHandler+0x7fa>
D:/projects/mechanical_arm/Firmware/CarMainControl/libraries/sdk/Peripheral/ch32v30x_usbotg_device.c:576
                            SetupReqLen = (pSetupReqPakHD->wValue)&0xff;
    4254:	86c1a783          	lw	a5,-1940(gp) # 2000028c <pEP0_RAM_Addr>
    4258:	0027c703          	lbu	a4,2(a5)
    425c:	0037c783          	lbu	a5,3(a5)
    4260:	07a2                	slli	a5,a5,0x8
    4262:	8fd9                	or	a5,a5,a4
    4264:	07c2                	slli	a5,a5,0x10
    4266:	83c1                	srli	a5,a5,0x10
    4268:	0ff7f793          	andi	a5,a5,255
    426c:	01079713          	slli	a4,a5,0x10
    4270:	8341                	srli	a4,a4,0x10
    4272:	88e19123          	sh	a4,-1918(gp) # 200002a2 <SetupReqLen>
D:/projects/mechanical_arm/Firmware/CarMainControl/libraries/sdk/Peripheral/ch32v30x_usbotg_device.c:577
                            break;
    4276:	a921                	j	468e <OTG_FS_IRQHandler+0x7fa>
D:/projects/mechanical_arm/Firmware/CarMainControl/libraries/sdk/Peripheral/ch32v30x_usbotg_device.c:581
                            pEP0_DataBuf[0] = DevConfig;
    4278:	86c1a783          	lw	a5,-1940(gp) # 2000028c <pEP0_RAM_Addr>
    427c:	87f1c703          	lbu	a4,-1921(gp) # 2000029f <DevConfig>
    4280:	0ff77713          	andi	a4,a4,255
    4284:	00e78023          	sb	a4,0(a5)
D:/projects/mechanical_arm/Firmware/CarMainControl/libraries/sdk/Peripheral/ch32v30x_usbotg_device.c:582
                            if ( SetupReqLen > 1 ) SetupReqLen = 1;
    4288:	8821d783          	lhu	a5,-1918(gp) # 200002a2 <SetupReqLen>
    428c:	01079713          	slli	a4,a5,0x10
    4290:	8341                	srli	a4,a4,0x10
    4292:	4785                	li	a5,1
    4294:	3ee7f663          	bgeu	a5,a4,4680 <OTG_FS_IRQHandler+0x7ec>
D:/projects/mechanical_arm/Firmware/CarMainControl/libraries/sdk/Peripheral/ch32v30x_usbotg_device.c:582 (discriminator 1)
    4298:	4705                	li	a4,1
    429a:	88e19123          	sh	a4,-1918(gp) # 200002a2 <SetupReqLen>
D:/projects/mechanical_arm/Firmware/CarMainControl/libraries/sdk/Peripheral/ch32v30x_usbotg_device.c:583 (discriminator 1)
                            break;
    429e:	a6cd                	j	4680 <OTG_FS_IRQHandler+0x7ec>
D:/projects/mechanical_arm/Firmware/CarMainControl/libraries/sdk/Peripheral/ch32v30x_usbotg_device.c:587
                            DevConfig = (pSetupReqPakHD->wValue)&0xff;
    42a0:	86c1a783          	lw	a5,-1940(gp) # 2000028c <pEP0_RAM_Addr>
    42a4:	0027c703          	lbu	a4,2(a5)
    42a8:	0037c783          	lbu	a5,3(a5)
    42ac:	07a2                	slli	a5,a5,0x8
    42ae:	8fd9                	or	a5,a5,a4
    42b0:	07c2                	slli	a5,a5,0x10
    42b2:	83c1                	srli	a5,a5,0x10
    42b4:	0ff7f713          	andi	a4,a5,255
    42b8:	86e18fa3          	sb	a4,-1921(gp) # 2000029f <DevConfig>
D:/projects/mechanical_arm/Firmware/CarMainControl/libraries/sdk/Peripheral/ch32v30x_usbotg_device.c:588
                            break;
    42bc:	aec9                	j	468e <OTG_FS_IRQHandler+0x7fa>
D:/projects/mechanical_arm/Firmware/CarMainControl/libraries/sdk/Peripheral/ch32v30x_usbotg_device.c:592
                            if ( ( pSetupReqPakHD->bRequestType & USB_REQ_RECIP_MASK ) == USB_REQ_RECIP_ENDP )
    42be:	86c1a783          	lw	a5,-1940(gp) # 2000028c <pEP0_RAM_Addr>
    42c2:	0007c783          	lbu	a5,0(a5)
    42c6:	01f7f713          	andi	a4,a5,31
    42ca:	4789                	li	a5,2
    42cc:	0cf71f63          	bne	a4,a5,43aa <OTG_FS_IRQHandler+0x516>
D:/projects/mechanical_arm/Firmware/CarMainControl/libraries/sdk/Peripheral/ch32v30x_usbotg_device.c:595
                                switch( (pSetupReqPakHD->wIndex)&0xff )
    42d0:	86c1a783          	lw	a5,-1940(gp) # 2000028c <pEP0_RAM_Addr>
    42d4:	0047c703          	lbu	a4,4(a5)
    42d8:	0057c783          	lbu	a5,5(a5)
    42dc:	07a2                	slli	a5,a5,0x8
    42de:	8fd9                	or	a5,a5,a4
    42e0:	07c2                	slli	a5,a5,0x10
    42e2:	83c1                	srli	a5,a5,0x10
    42e4:	0ff7f793          	andi	a5,a5,255
    42e8:	4709                	li	a4,2
    42ea:	04e78863          	beq	a5,a4,433a <OTG_FS_IRQHandler+0x4a6>
    42ee:	4709                	li	a4,2
    42f0:	00f74663          	blt	a4,a5,42fc <OTG_FS_IRQHandler+0x468>
    42f4:	4705                	li	a4,1
    42f6:	08e78763          	beq	a5,a4,4384 <OTG_FS_IRQHandler+0x4f0>
    42fa:	a05d                	j	43a0 <OTG_FS_IRQHandler+0x50c>
    42fc:	08100713          	li	a4,129
    4300:	04e78b63          	beq	a5,a4,4356 <OTG_FS_IRQHandler+0x4c2>
    4304:	08200713          	li	a4,130
    4308:	08e79c63          	bne	a5,a4,43a0 <OTG_FS_IRQHandler+0x50c>
D:/projects/mechanical_arm/Firmware/CarMainControl/libraries/sdk/Peripheral/ch32v30x_usbotg_device.c:598
                                    USBOTG_FS->UEP2_TX_CTRL = (USBOTG_FS->UEP2_TX_CTRL & ~( USBHD_UEP_T_TOG|USBHD_UEP_T_RES_MASK )) | USBHD_UEP_T_RES_NAK;
    430c:	500007b7          	lui	a5,0x50000
    4310:	03a7c783          	lbu	a5,58(a5) # 5000003a <_eusrstack+0x2fff003a>
    4314:	0ff7f793          	andi	a5,a5,255
    4318:	07e2                	slli	a5,a5,0x18
    431a:	87e1                	srai	a5,a5,0x18
    431c:	9be1                	andi	a5,a5,-8
    431e:	07e2                	slli	a5,a5,0x18
    4320:	87e1                	srai	a5,a5,0x18
    4322:	0027e793          	ori	a5,a5,2
    4326:	01879713          	slli	a4,a5,0x18
    432a:	8761                	srai	a4,a4,0x18
    432c:	500007b7          	lui	a5,0x50000
    4330:	0ff77713          	andi	a4,a4,255
    4334:	02e78d23          	sb	a4,58(a5) # 5000003a <_eusrstack+0x2fff003a>
D:/projects/mechanical_arm/Firmware/CarMainControl/libraries/sdk/Peripheral/ch32v30x_usbotg_device.c:599
                                    break;
    4338:	a8ad                	j	43b2 <OTG_FS_IRQHandler+0x51e>
D:/projects/mechanical_arm/Firmware/CarMainControl/libraries/sdk/Peripheral/ch32v30x_usbotg_device.c:602
                                    USBOTG_FS->UEP2_RX_CTRL = (USBOTG_FS->UEP2_RX_CTRL & ~( USBHD_UEP_R_TOG|USBHD_UEP_R_RES_MASK )) | USBHD_UEP_R_RES_ACK;
    433a:	500007b7          	lui	a5,0x50000
    433e:	03b7c783          	lbu	a5,59(a5) # 5000003b <_eusrstack+0x2fff003b>
    4342:	0ff7f713          	andi	a4,a5,255
    4346:	500007b7          	lui	a5,0x50000
    434a:	9b61                	andi	a4,a4,-8
    434c:	0ff77713          	andi	a4,a4,255
    4350:	02e78da3          	sb	a4,59(a5) # 5000003b <_eusrstack+0x2fff003b>
D:/projects/mechanical_arm/Firmware/CarMainControl/libraries/sdk/Peripheral/ch32v30x_usbotg_device.c:603
                                    break;
    4354:	a8b9                	j	43b2 <OTG_FS_IRQHandler+0x51e>
D:/projects/mechanical_arm/Firmware/CarMainControl/libraries/sdk/Peripheral/ch32v30x_usbotg_device.c:606
                                    USBOTG_FS->UEP1_TX_CTRL = (USBOTG_FS->UEP1_TX_CTRL & ~( USBHD_UEP_T_TOG|USBHD_UEP_T_RES_MASK )) | USBHD_UEP_T_RES_NAK;
    4356:	500007b7          	lui	a5,0x50000
    435a:	0367c783          	lbu	a5,54(a5) # 50000036 <_eusrstack+0x2fff0036>
    435e:	0ff7f793          	andi	a5,a5,255
    4362:	07e2                	slli	a5,a5,0x18
    4364:	87e1                	srai	a5,a5,0x18
    4366:	9be1                	andi	a5,a5,-8
    4368:	07e2                	slli	a5,a5,0x18
    436a:	87e1                	srai	a5,a5,0x18
    436c:	0027e793          	ori	a5,a5,2
    4370:	01879713          	slli	a4,a5,0x18
    4374:	8761                	srai	a4,a4,0x18
    4376:	500007b7          	lui	a5,0x50000
    437a:	0ff77713          	andi	a4,a4,255
    437e:	02e78b23          	sb	a4,54(a5) # 50000036 <_eusrstack+0x2fff0036>
D:/projects/mechanical_arm/Firmware/CarMainControl/libraries/sdk/Peripheral/ch32v30x_usbotg_device.c:607
                                    break;
    4382:	a805                	j	43b2 <OTG_FS_IRQHandler+0x51e>
D:/projects/mechanical_arm/Firmware/CarMainControl/libraries/sdk/Peripheral/ch32v30x_usbotg_device.c:610
                                    USBOTG_FS->UEP1_RX_CTRL = (USBOTG_FS->UEP1_RX_CTRL & ~( USBHD_UEP_R_TOG|USBHD_UEP_R_RES_MASK )) | USBHD_UEP_R_RES_ACK;
    4384:	500007b7          	lui	a5,0x50000
    4388:	0377c783          	lbu	a5,55(a5) # 50000037 <_eusrstack+0x2fff0037>
    438c:	0ff7f713          	andi	a4,a5,255
    4390:	500007b7          	lui	a5,0x50000
    4394:	9b61                	andi	a4,a4,-8
    4396:	0ff77713          	andi	a4,a4,255
    439a:	02e78ba3          	sb	a4,55(a5) # 50000037 <_eusrstack+0x2fff0037>
D:/projects/mechanical_arm/Firmware/CarMainControl/libraries/sdk/Peripheral/ch32v30x_usbotg_device.c:611
                                    break;
    439e:	a811                	j	43b2 <OTG_FS_IRQHandler+0x51e>
D:/projects/mechanical_arm/Firmware/CarMainControl/libraries/sdk/Peripheral/ch32v30x_usbotg_device.c:614
                                    errflag = 0xFF;
    43a0:	57fd                	li	a5,-1
    43a2:	fef40723          	sb	a5,-18(s0)
D:/projects/mechanical_arm/Firmware/CarMainControl/libraries/sdk/Peripheral/ch32v30x_usbotg_device.c:615
                                    break;
    43a6:	0001                	nop
    43a8:	a029                	j	43b2 <OTG_FS_IRQHandler+0x51e>
D:/projects/mechanical_arm/Firmware/CarMainControl/libraries/sdk/Peripheral/ch32v30x_usbotg_device.c:619
                            else    errflag = 0xFF;
    43aa:	57fd                	li	a5,-1
    43ac:	fef40723          	sb	a5,-18(s0)
D:/projects/mechanical_arm/Firmware/CarMainControl/libraries/sdk/Peripheral/ch32v30x_usbotg_device.c:620
                            break;
    43b0:	acf9                	j	468e <OTG_FS_IRQHandler+0x7fa>
    43b2:	acf1                	j	468e <OTG_FS_IRQHandler+0x7fa>
D:/projects/mechanical_arm/Firmware/CarMainControl/libraries/sdk/Peripheral/ch32v30x_usbotg_device.c:624
                            if( ( pMySetupReqPakHD->bRequestType & 0x1F ) == 0x00 )
    43b4:	86418793          	addi	a5,gp,-1948 # 20000284 <EP0_DatabufHD>
    43b8:	0007c783          	lbu	a5,0(a5)
    43bc:	8bfd                	andi	a5,a5,31
    43be:	e3a1                	bnez	a5,43fe <OTG_FS_IRQHandler+0x56a>
D:/projects/mechanical_arm/Firmware/CarMainControl/libraries/sdk/Peripheral/ch32v30x_usbotg_device.c:627
                                if( pMySetupReqPakHD->wValue == 0x01 )
    43c0:	86418793          	addi	a5,gp,-1948 # 20000284 <EP0_DatabufHD>
    43c4:	0027c703          	lbu	a4,2(a5)
    43c8:	0037c783          	lbu	a5,3(a5)
    43cc:	07a2                	slli	a5,a5,0x8
    43ce:	8fd9                	or	a5,a5,a4
    43d0:	01079713          	slli	a4,a5,0x10
    43d4:	8341                	srli	a4,a4,0x10
    43d6:	4785                	li	a5,1
    43d8:	00f71f63          	bne	a4,a5,43f6 <OTG_FS_IRQHandler+0x562>
D:/projects/mechanical_arm/Firmware/CarMainControl/libraries/sdk/Peripheral/ch32v30x_usbotg_device.c:629
                                    if( MyCfgDescrHD[ 7 ] & 0x20 )
    43dc:	0a000793          	li	a5,160
    43e0:	0207f793          	andi	a5,a5,32
    43e4:	c789                	beqz	a5,43ee <OTG_FS_IRQHandler+0x55a>
D:/projects/mechanical_arm/Firmware/CarMainControl/libraries/sdk/Peripheral/ch32v30x_usbotg_device.c:632
                                        USBHD_Dev_SleepStatus = 0x01;
    43e6:	4705                	li	a4,1
    43e8:	86e18f23          	sb	a4,-1922(gp) # 2000029e <USBHD_Dev_SleepStatus>
D:/projects/mechanical_arm/Firmware/CarMainControl/libraries/sdk/Peripheral/ch32v30x_usbotg_device.c:690
                            break;
    43ec:	a44d                	j	468e <OTG_FS_IRQHandler+0x7fa>
D:/projects/mechanical_arm/Firmware/CarMainControl/libraries/sdk/Peripheral/ch32v30x_usbotg_device.c:636
                                        errflag = 0xFF;
    43ee:	57fd                	li	a5,-1
    43f0:	fef40723          	sb	a5,-18(s0)
D:/projects/mechanical_arm/Firmware/CarMainControl/libraries/sdk/Peripheral/ch32v30x_usbotg_device.c:690
                            break;
    43f4:	ac69                	j	468e <OTG_FS_IRQHandler+0x7fa>
D:/projects/mechanical_arm/Firmware/CarMainControl/libraries/sdk/Peripheral/ch32v30x_usbotg_device.c:641
                                    errflag = 0xFF;
    43f6:	57fd                	li	a5,-1
    43f8:	fef40723          	sb	a5,-18(s0)
D:/projects/mechanical_arm/Firmware/CarMainControl/libraries/sdk/Peripheral/ch32v30x_usbotg_device.c:690
                            break;
    43fc:	ac49                	j	468e <OTG_FS_IRQHandler+0x7fa>
D:/projects/mechanical_arm/Firmware/CarMainControl/libraries/sdk/Peripheral/ch32v30x_usbotg_device.c:644
                            else if( ( pMySetupReqPakHD->bRequestType & 0x1F ) == 0x02 )
    43fe:	86418793          	addi	a5,gp,-1948 # 20000284 <EP0_DatabufHD>
    4402:	0007c783          	lbu	a5,0(a5)
    4406:	01f7f713          	andi	a4,a5,31
    440a:	4789                	li	a5,2
    440c:	10f71c63          	bne	a4,a5,4524 <OTG_FS_IRQHandler+0x690>
D:/projects/mechanical_arm/Firmware/CarMainControl/libraries/sdk/Peripheral/ch32v30x_usbotg_device.c:647
                                if( pMySetupReqPakHD->wValue == 0x00 )
    4410:	86418793          	addi	a5,gp,-1948 # 20000284 <EP0_DatabufHD>
    4414:	0027c703          	lbu	a4,2(a5)
    4418:	0037c783          	lbu	a5,3(a5)
    441c:	07a2                	slli	a5,a5,0x8
    441e:	8fd9                	or	a5,a5,a4
    4420:	07c2                	slli	a5,a5,0x10
    4422:	83c1                	srli	a5,a5,0x10
    4424:	efe5                	bnez	a5,451c <OTG_FS_IRQHandler+0x688>
D:/projects/mechanical_arm/Firmware/CarMainControl/libraries/sdk/Peripheral/ch32v30x_usbotg_device.c:650
                                    switch( ( pMySetupReqPakHD->wIndex ) & 0xff )
    4426:	86418793          	addi	a5,gp,-1948 # 20000284 <EP0_DatabufHD>
    442a:	0047c703          	lbu	a4,4(a5)
    442e:	0057c783          	lbu	a5,5(a5)
    4432:	07a2                	slli	a5,a5,0x8
    4434:	8fd9                	or	a5,a5,a4
    4436:	07c2                	slli	a5,a5,0x10
    4438:	83c1                	srli	a5,a5,0x10
    443a:	0ff7f793          	andi	a5,a5,255
    443e:	4709                	li	a4,2
    4440:	04e78763          	beq	a5,a4,448e <OTG_FS_IRQHandler+0x5fa>
    4444:	4709                	li	a4,2
    4446:	00f74663          	blt	a4,a5,4452 <OTG_FS_IRQHandler+0x5be>
    444a:	4705                	li	a4,1
    444c:	08e78d63          	beq	a5,a4,44e6 <OTG_FS_IRQHandler+0x652>
    4450:	a0c9                	j	4512 <OTG_FS_IRQHandler+0x67e>
    4452:	08100713          	li	a4,129
    4456:	06e78263          	beq	a5,a4,44ba <OTG_FS_IRQHandler+0x626>
    445a:	08200713          	li	a4,130
    445e:	0ae79a63          	bne	a5,a4,4512 <OTG_FS_IRQHandler+0x67e>
D:/projects/mechanical_arm/Firmware/CarMainControl/libraries/sdk/Peripheral/ch32v30x_usbotg_device.c:654
                                            USBOTG_FS->UEP2_TX_CTRL = ( USBOTG_FS->UEP2_TX_CTRL &= ~USBHD_UEP_T_RES_MASK ) | USBHD_UEP_T_RES_STALL;
    4462:	500007b7          	lui	a5,0x50000
    4466:	03a7c783          	lbu	a5,58(a5) # 5000003a <_eusrstack+0x2fff003a>
    446a:	0ff7f793          	andi	a5,a5,255
    446e:	50000737          	lui	a4,0x50000
    4472:	9bf1                	andi	a5,a5,-4
    4474:	0ff7f793          	andi	a5,a5,255
    4478:	02f70d23          	sb	a5,58(a4) # 5000003a <_eusrstack+0x2fff003a>
    447c:	50000737          	lui	a4,0x50000
    4480:	0037e793          	ori	a5,a5,3
    4484:	0ff7f793          	andi	a5,a5,255
    4488:	02f70d23          	sb	a5,58(a4) # 5000003a <_eusrstack+0x2fff003a>
D:/projects/mechanical_arm/Firmware/CarMainControl/libraries/sdk/Peripheral/ch32v30x_usbotg_device.c:656
                                            break;
    448c:	a045                	j	452c <OTG_FS_IRQHandler+0x698>
D:/projects/mechanical_arm/Firmware/CarMainControl/libraries/sdk/Peripheral/ch32v30x_usbotg_device.c:660
                                            USBOTG_FS->UEP2_RX_CTRL = ( USBOTG_FS->UEP2_RX_CTRL &= ~USBHD_UEP_R_RES_MASK ) | USBHD_UEP_R_RES_STALL;
    448e:	500007b7          	lui	a5,0x50000
    4492:	03b7c783          	lbu	a5,59(a5) # 5000003b <_eusrstack+0x2fff003b>
    4496:	0ff7f793          	andi	a5,a5,255
    449a:	50000737          	lui	a4,0x50000
    449e:	9bf1                	andi	a5,a5,-4
    44a0:	0ff7f793          	andi	a5,a5,255
    44a4:	02f70da3          	sb	a5,59(a4) # 5000003b <_eusrstack+0x2fff003b>
    44a8:	50000737          	lui	a4,0x50000
    44ac:	0037e793          	ori	a5,a5,3
    44b0:	0ff7f793          	andi	a5,a5,255
    44b4:	02f70da3          	sb	a5,59(a4) # 5000003b <_eusrstack+0x2fff003b>
D:/projects/mechanical_arm/Firmware/CarMainControl/libraries/sdk/Peripheral/ch32v30x_usbotg_device.c:662
                                            break;
    44b8:	a895                	j	452c <OTG_FS_IRQHandler+0x698>
D:/projects/mechanical_arm/Firmware/CarMainControl/libraries/sdk/Peripheral/ch32v30x_usbotg_device.c:666
                                            USBOTG_FS->UEP1_TX_CTRL = ( USBOTG_FS->UEP1_TX_CTRL &= ~USBHD_UEP_T_RES_MASK ) | USBHD_UEP_T_RES_STALL;
    44ba:	500007b7          	lui	a5,0x50000
    44be:	0367c783          	lbu	a5,54(a5) # 50000036 <_eusrstack+0x2fff0036>
    44c2:	0ff7f793          	andi	a5,a5,255
    44c6:	50000737          	lui	a4,0x50000
    44ca:	9bf1                	andi	a5,a5,-4
    44cc:	0ff7f793          	andi	a5,a5,255
    44d0:	02f70b23          	sb	a5,54(a4) # 50000036 <_eusrstack+0x2fff0036>
    44d4:	50000737          	lui	a4,0x50000
    44d8:	0037e793          	ori	a5,a5,3
    44dc:	0ff7f793          	andi	a5,a5,255
    44e0:	02f70b23          	sb	a5,54(a4) # 50000036 <_eusrstack+0x2fff0036>
D:/projects/mechanical_arm/Firmware/CarMainControl/libraries/sdk/Peripheral/ch32v30x_usbotg_device.c:668
                                            break;
    44e4:	a0a1                	j	452c <OTG_FS_IRQHandler+0x698>
D:/projects/mechanical_arm/Firmware/CarMainControl/libraries/sdk/Peripheral/ch32v30x_usbotg_device.c:672
                                            USBOTG_FS->UEP1_RX_CTRL = ( USBOTG_FS->UEP1_RX_CTRL &= ~USBHD_UEP_R_RES_MASK ) | USBHD_UEP_R_RES_STALL;
    44e6:	500007b7          	lui	a5,0x50000
    44ea:	0377c783          	lbu	a5,55(a5) # 50000037 <_eusrstack+0x2fff0037>
    44ee:	0ff7f793          	andi	a5,a5,255
    44f2:	50000737          	lui	a4,0x50000
    44f6:	9bf1                	andi	a5,a5,-4
    44f8:	0ff7f793          	andi	a5,a5,255
    44fc:	02f70ba3          	sb	a5,55(a4) # 50000037 <_eusrstack+0x2fff0037>
    4500:	50000737          	lui	a4,0x50000
    4504:	0037e793          	ori	a5,a5,3
    4508:	0ff7f793          	andi	a5,a5,255
    450c:	02f70ba3          	sb	a5,55(a4) # 50000037 <_eusrstack+0x2fff0037>
D:/projects/mechanical_arm/Firmware/CarMainControl/libraries/sdk/Peripheral/ch32v30x_usbotg_device.c:674
                                            break;
    4510:	a831                	j	452c <OTG_FS_IRQHandler+0x698>
D:/projects/mechanical_arm/Firmware/CarMainControl/libraries/sdk/Peripheral/ch32v30x_usbotg_device.c:677
                                            errflag = 0xFF;
    4512:	57fd                	li	a5,-1
    4514:	fef40723          	sb	a5,-18(s0)
D:/projects/mechanical_arm/Firmware/CarMainControl/libraries/sdk/Peripheral/ch32v30x_usbotg_device.c:678
                                            break;
    4518:	0001                	nop
    451a:	a809                	j	452c <OTG_FS_IRQHandler+0x698>
D:/projects/mechanical_arm/Firmware/CarMainControl/libraries/sdk/Peripheral/ch32v30x_usbotg_device.c:683
                                    errflag = 0xFF;
    451c:	57fd                	li	a5,-1
    451e:	fef40723          	sb	a5,-18(s0)
D:/projects/mechanical_arm/Firmware/CarMainControl/libraries/sdk/Peripheral/ch32v30x_usbotg_device.c:690
                            break;
    4522:	a2b5                	j	468e <OTG_FS_IRQHandler+0x7fa>
D:/projects/mechanical_arm/Firmware/CarMainControl/libraries/sdk/Peripheral/ch32v30x_usbotg_device.c:688
                                errflag = 0xFF;
    4524:	57fd                	li	a5,-1
    4526:	fef40723          	sb	a5,-18(s0)
D:/projects/mechanical_arm/Firmware/CarMainControl/libraries/sdk/Peripheral/ch32v30x_usbotg_device.c:690
                            break;
    452a:	a295                	j	468e <OTG_FS_IRQHandler+0x7fa>
D:/projects/mechanical_arm/Firmware/CarMainControl/libraries/sdk/Peripheral/ch32v30x_usbotg_device.c:690 (discriminator 4)
    452c:	a28d                	j	468e <OTG_FS_IRQHandler+0x7fa>
D:/projects/mechanical_arm/Firmware/CarMainControl/libraries/sdk/Peripheral/ch32v30x_usbotg_device.c:694
                            pEP0_DataBuf[0] = 0x00;
    452e:	86c1a783          	lw	a5,-1940(gp) # 2000028c <pEP0_RAM_Addr>
    4532:	00078023          	sb	zero,0(a5)
D:/projects/mechanical_arm/Firmware/CarMainControl/libraries/sdk/Peripheral/ch32v30x_usbotg_device.c:695
                            if ( SetupReqLen > 1 ) SetupReqLen = 1;
    4536:	8821d783          	lhu	a5,-1918(gp) # 200002a2 <SetupReqLen>
    453a:	01079713          	slli	a4,a5,0x10
    453e:	8341                	srli	a4,a4,0x10
    4540:	4785                	li	a5,1
    4542:	14e7f163          	bgeu	a5,a4,4684 <OTG_FS_IRQHandler+0x7f0>
D:/projects/mechanical_arm/Firmware/CarMainControl/libraries/sdk/Peripheral/ch32v30x_usbotg_device.c:695 (discriminator 1)
    4546:	4705                	li	a4,1
    4548:	88e19123          	sh	a4,-1918(gp) # 200002a2 <SetupReqLen>
D:/projects/mechanical_arm/Firmware/CarMainControl/libraries/sdk/Peripheral/ch32v30x_usbotg_device.c:696 (discriminator 1)
                            break;
    454c:	aa25                	j	4684 <OTG_FS_IRQHandler+0x7f0>
D:/projects/mechanical_arm/Firmware/CarMainControl/libraries/sdk/Peripheral/ch32v30x_usbotg_device.c:700
                            EP0_DatabufHD[ 0 ] = 0x00;
    454e:	86018223          	sb	zero,-1948(gp) # 20000284 <EP0_DatabufHD>
D:/projects/mechanical_arm/Firmware/CarMainControl/libraries/sdk/Peripheral/ch32v30x_usbotg_device.c:701
                            if( USBHD_Dev_SetupReqLen > 1 )
    4552:	87c1d783          	lhu	a5,-1924(gp) # 2000029c <USBHD_Dev_SetupReqLen>
    4556:	01079713          	slli	a4,a5,0x10
    455a:	8341                	srli	a4,a4,0x10
    455c:	4785                	li	a5,1
    455e:	12e7f563          	bgeu	a5,a4,4688 <OTG_FS_IRQHandler+0x7f4>
D:/projects/mechanical_arm/Firmware/CarMainControl/libraries/sdk/Peripheral/ch32v30x_usbotg_device.c:703
                                USBHD_Dev_SetupReqLen = 1;
    4562:	4705                	li	a4,1
    4564:	86e19e23          	sh	a4,-1924(gp) # 2000029c <USBHD_Dev_SetupReqLen>
D:/projects/mechanical_arm/Firmware/CarMainControl/libraries/sdk/Peripheral/ch32v30x_usbotg_device.c:705
                            break;
    4568:	a205                	j	4688 <OTG_FS_IRQHandler+0x7f4>
D:/projects/mechanical_arm/Firmware/CarMainControl/libraries/sdk/Peripheral/ch32v30x_usbotg_device.c:709
                            EP0_DatabufHD[ 0 ] = 0x00;
    456a:	86018223          	sb	zero,-1948(gp) # 20000284 <EP0_DatabufHD>
D:/projects/mechanical_arm/Firmware/CarMainControl/libraries/sdk/Peripheral/ch32v30x_usbotg_device.c:710
                            EP0_DatabufHD[ 1 ] = 0x00;
    456e:	86418793          	addi	a5,gp,-1948 # 20000284 <EP0_DatabufHD>
    4572:	000780a3          	sb	zero,1(a5)
D:/projects/mechanical_arm/Firmware/CarMainControl/libraries/sdk/Peripheral/ch32v30x_usbotg_device.c:711
                            if( pMySetupReqPakHD->wIndex == 0x81 )
    4576:	86418793          	addi	a5,gp,-1948 # 20000284 <EP0_DatabufHD>
    457a:	0047c703          	lbu	a4,4(a5)
    457e:	0057c783          	lbu	a5,5(a5)
    4582:	07a2                	slli	a5,a5,0x8
    4584:	8fd9                	or	a5,a5,a4
    4586:	01079713          	slli	a4,a5,0x10
    458a:	8341                	srli	a4,a4,0x10
    458c:	08100793          	li	a5,129
    4590:	02f71163          	bne	a4,a5,45b2 <OTG_FS_IRQHandler+0x71e>
D:/projects/mechanical_arm/Firmware/CarMainControl/libraries/sdk/Peripheral/ch32v30x_usbotg_device.c:713
                                if( ( USBOTG_FS->UEP1_TX_CTRL & USBHD_UEP_T_RES_MASK ) == USBHD_UEP_T_RES_STALL )
    4594:	500007b7          	lui	a5,0x50000
    4598:	0367c783          	lbu	a5,54(a5) # 50000036 <_eusrstack+0x2fff0036>
    459c:	0ff7f793          	andi	a5,a5,255
    45a0:	0037f713          	andi	a4,a5,3
    45a4:	478d                	li	a5,3
    45a6:	0af71d63          	bne	a4,a5,4660 <OTG_FS_IRQHandler+0x7cc>
D:/projects/mechanical_arm/Firmware/CarMainControl/libraries/sdk/Peripheral/ch32v30x_usbotg_device.c:715
                                    EP0_DatabufHD[ 0 ] = 0x01;
    45aa:	4705                	li	a4,1
    45ac:	86e18223          	sb	a4,-1948(gp) # 20000284 <EP0_DatabufHD>
    45b0:	a845                	j	4660 <OTG_FS_IRQHandler+0x7cc>
D:/projects/mechanical_arm/Firmware/CarMainControl/libraries/sdk/Peripheral/ch32v30x_usbotg_device.c:718
                            else if( pMySetupReqPakHD->wIndex == 0x01 )
    45b2:	86418793          	addi	a5,gp,-1948 # 20000284 <EP0_DatabufHD>
    45b6:	0047c703          	lbu	a4,4(a5)
    45ba:	0057c783          	lbu	a5,5(a5)
    45be:	07a2                	slli	a5,a5,0x8
    45c0:	8fd9                	or	a5,a5,a4
    45c2:	01079713          	slli	a4,a5,0x10
    45c6:	8341                	srli	a4,a4,0x10
    45c8:	4785                	li	a5,1
    45ca:	02f71163          	bne	a4,a5,45ec <OTG_FS_IRQHandler+0x758>
D:/projects/mechanical_arm/Firmware/CarMainControl/libraries/sdk/Peripheral/ch32v30x_usbotg_device.c:720
                                if( ( USBOTG_FS->UEP1_RX_CTRL & USBHD_UEP_R_RES_MASK ) == USBHD_UEP_R_RES_STALL )
    45ce:	500007b7          	lui	a5,0x50000
    45d2:	0377c783          	lbu	a5,55(a5) # 50000037 <_eusrstack+0x2fff0037>
    45d6:	0ff7f793          	andi	a5,a5,255
    45da:	0037f713          	andi	a4,a5,3
    45de:	478d                	li	a5,3
    45e0:	08f71063          	bne	a4,a5,4660 <OTG_FS_IRQHandler+0x7cc>
D:/projects/mechanical_arm/Firmware/CarMainControl/libraries/sdk/Peripheral/ch32v30x_usbotg_device.c:722
                                    EP0_DatabufHD[ 0 ] = 0x01;
    45e4:	4705                	li	a4,1
    45e6:	86e18223          	sb	a4,-1948(gp) # 20000284 <EP0_DatabufHD>
    45ea:	a89d                	j	4660 <OTG_FS_IRQHandler+0x7cc>
D:/projects/mechanical_arm/Firmware/CarMainControl/libraries/sdk/Peripheral/ch32v30x_usbotg_device.c:725
                            else if( pMySetupReqPakHD->wIndex == 0x82 )
    45ec:	86418793          	addi	a5,gp,-1948 # 20000284 <EP0_DatabufHD>
    45f0:	0047c703          	lbu	a4,4(a5)
    45f4:	0057c783          	lbu	a5,5(a5)
    45f8:	07a2                	slli	a5,a5,0x8
    45fa:	8fd9                	or	a5,a5,a4
    45fc:	01079713          	slli	a4,a5,0x10
    4600:	8341                	srli	a4,a4,0x10
    4602:	08200793          	li	a5,130
    4606:	02f71163          	bne	a4,a5,4628 <OTG_FS_IRQHandler+0x794>
D:/projects/mechanical_arm/Firmware/CarMainControl/libraries/sdk/Peripheral/ch32v30x_usbotg_device.c:727
                                if( ( USBOTG_FS->UEP2_TX_CTRL & USBHD_UEP_T_RES_MASK ) == USBHD_UEP_T_RES_STALL )
    460a:	500007b7          	lui	a5,0x50000
    460e:	03a7c783          	lbu	a5,58(a5) # 5000003a <_eusrstack+0x2fff003a>
    4612:	0ff7f793          	andi	a5,a5,255
    4616:	0037f713          	andi	a4,a5,3
    461a:	478d                	li	a5,3
    461c:	04f71263          	bne	a4,a5,4660 <OTG_FS_IRQHandler+0x7cc>
D:/projects/mechanical_arm/Firmware/CarMainControl/libraries/sdk/Peripheral/ch32v30x_usbotg_device.c:729
                                    EP0_DatabufHD[ 0 ] = 0x01;
    4620:	4705                	li	a4,1
    4622:	86e18223          	sb	a4,-1948(gp) # 20000284 <EP0_DatabufHD>
    4626:	a82d                	j	4660 <OTG_FS_IRQHandler+0x7cc>
D:/projects/mechanical_arm/Firmware/CarMainControl/libraries/sdk/Peripheral/ch32v30x_usbotg_device.c:732
                            else if( pMySetupReqPakHD->wIndex == 0x02 )
    4628:	86418793          	addi	a5,gp,-1948 # 20000284 <EP0_DatabufHD>
    462c:	0047c703          	lbu	a4,4(a5)
    4630:	0057c783          	lbu	a5,5(a5)
    4634:	07a2                	slli	a5,a5,0x8
    4636:	8fd9                	or	a5,a5,a4
    4638:	01079713          	slli	a4,a5,0x10
    463c:	8341                	srli	a4,a4,0x10
    463e:	4789                	li	a5,2
    4640:	02f71063          	bne	a4,a5,4660 <OTG_FS_IRQHandler+0x7cc>
D:/projects/mechanical_arm/Firmware/CarMainControl/libraries/sdk/Peripheral/ch32v30x_usbotg_device.c:734
                                if( ( USBOTG_FS->UEP2_RX_CTRL & USBHD_UEP_R_RES_MASK ) == USBHD_UEP_R_RES_STALL )
    4644:	500007b7          	lui	a5,0x50000
    4648:	03b7c783          	lbu	a5,59(a5) # 5000003b <_eusrstack+0x2fff003b>
    464c:	0ff7f793          	andi	a5,a5,255
    4650:	0037f713          	andi	a4,a5,3
    4654:	478d                	li	a5,3
    4656:	00f71563          	bne	a4,a5,4660 <OTG_FS_IRQHandler+0x7cc>
D:/projects/mechanical_arm/Firmware/CarMainControl/libraries/sdk/Peripheral/ch32v30x_usbotg_device.c:736
                                    EP0_DatabufHD[ 0 ] = 0x01;
    465a:	4705                	li	a4,1
    465c:	86e18223          	sb	a4,-1948(gp) # 20000284 <EP0_DatabufHD>
D:/projects/mechanical_arm/Firmware/CarMainControl/libraries/sdk/Peripheral/ch32v30x_usbotg_device.c:739
                            if( USBHD_Dev_SetupReqLen > 2 )
    4660:	87c1d783          	lhu	a5,-1924(gp) # 2000029c <USBHD_Dev_SetupReqLen>
    4664:	01079713          	slli	a4,a5,0x10
    4668:	8341                	srli	a4,a4,0x10
    466a:	4789                	li	a5,2
    466c:	02e7f063          	bgeu	a5,a4,468c <OTG_FS_IRQHandler+0x7f8>
D:/projects/mechanical_arm/Firmware/CarMainControl/libraries/sdk/Peripheral/ch32v30x_usbotg_device.c:741
                                USBHD_Dev_SetupReqLen = 2;
    4670:	4709                	li	a4,2
    4672:	86e19e23          	sh	a4,-1924(gp) # 2000029c <USBHD_Dev_SetupReqLen>
D:/projects/mechanical_arm/Firmware/CarMainControl/libraries/sdk/Peripheral/ch32v30x_usbotg_device.c:743
                            break;
    4676:	a819                	j	468c <OTG_FS_IRQHandler+0x7f8>
D:/projects/mechanical_arm/Firmware/CarMainControl/libraries/sdk/Peripheral/ch32v30x_usbotg_device.c:746
                            errflag = 0xFF;
    4678:	57fd                	li	a5,-1
    467a:	fef40723          	sb	a5,-18(s0)
D:/projects/mechanical_arm/Firmware/CarMainControl/libraries/sdk/Peripheral/ch32v30x_usbotg_device.c:747
                            break;
    467e:	a801                	j	468e <OTG_FS_IRQHandler+0x7fa>
D:/projects/mechanical_arm/Firmware/CarMainControl/libraries/sdk/Peripheral/ch32v30x_usbotg_device.c:583
                            break;
    4680:	0001                	nop
    4682:	a031                	j	468e <OTG_FS_IRQHandler+0x7fa>
D:/projects/mechanical_arm/Firmware/CarMainControl/libraries/sdk/Peripheral/ch32v30x_usbotg_device.c:696
                            break;
    4684:	0001                	nop
    4686:	a021                	j	468e <OTG_FS_IRQHandler+0x7fa>
D:/projects/mechanical_arm/Firmware/CarMainControl/libraries/sdk/Peripheral/ch32v30x_usbotg_device.c:705
                            break;
    4688:	0001                	nop
    468a:	a011                	j	468e <OTG_FS_IRQHandler+0x7fa>
D:/projects/mechanical_arm/Firmware/CarMainControl/libraries/sdk/Peripheral/ch32v30x_usbotg_device.c:743
                            break;
    468c:	0001                	nop
D:/projects/mechanical_arm/Firmware/CarMainControl/libraries/sdk/Peripheral/ch32v30x_usbotg_device.c:750
                if( errflag == 0xff)
    468e:	fee44703          	lbu	a4,-18(s0)
    4692:	0ff00793          	li	a5,255
    4696:	00f71d63          	bne	a4,a5,46b0 <OTG_FS_IRQHandler+0x81c>
D:/projects/mechanical_arm/Firmware/CarMainControl/libraries/sdk/Peripheral/ch32v30x_usbotg_device.c:753
                    USBOTG_FS->UEP0_TX_CTRL = USBHD_UEP_T_TOG|USBHD_UEP_T_RES_STALL;
    469a:	500007b7          	lui	a5,0x50000
    469e:	471d                	li	a4,7
    46a0:	02e78923          	sb	a4,50(a5) # 50000032 <_eusrstack+0x2fff0032>
D:/projects/mechanical_arm/Firmware/CarMainControl/libraries/sdk/Peripheral/ch32v30x_usbotg_device.c:754
                    USBOTG_FS->UEP0_RX_CTRL = USBHD_UEP_R_TOG|USBHD_UEP_R_RES_STALL;
    46a4:	500007b7          	lui	a5,0x50000
    46a8:	471d                	li	a4,7
    46aa:	02e789a3          	sb	a4,51(a5) # 50000033 <_eusrstack+0x2fff0033>
D:/projects/mechanical_arm/Firmware/CarMainControl/libraries/sdk/Peripheral/ch32v30x_usbotg_device.c:769
                break;
    46ae:	ae65                	j	4a66 <OTG_FS_IRQHandler+0xbd2>
D:/projects/mechanical_arm/Firmware/CarMainControl/libraries/sdk/Peripheral/ch32v30x_usbotg_device.c:758
                    if( chtype & 0x80 )
    46b0:	fec40783          	lb	a5,-20(s0)
    46b4:	0407d563          	bgez	a5,46fe <OTG_FS_IRQHandler+0x86a>
D:/projects/mechanical_arm/Firmware/CarMainControl/libraries/sdk/Peripheral/ch32v30x_usbotg_device.c:760
                        len = (SetupReqLen>DevEP0SIZE) ? DevEP0SIZE : SetupReqLen;
    46b8:	8821d783          	lhu	a5,-1918(gp) # 200002a2 <SetupReqLen>
    46bc:	01079713          	slli	a4,a5,0x10
    46c0:	8341                	srli	a4,a4,0x10
    46c2:	47a1                	li	a5,8
    46c4:	00e7e963          	bltu	a5,a4,46d6 <OTG_FS_IRQHandler+0x842>
D:/projects/mechanical_arm/Firmware/CarMainControl/libraries/sdk/Peripheral/ch32v30x_usbotg_device.c:760 (discriminator 1)
    46c8:	8821d783          	lhu	a5,-1918(gp) # 200002a2 <SetupReqLen>
    46cc:	07c2                	slli	a5,a5,0x10
    46ce:	83c1                	srli	a5,a5,0x10
    46d0:	0ff7f793          	andi	a5,a5,255
    46d4:	a011                	j	46d8 <OTG_FS_IRQHandler+0x844>
D:/projects/mechanical_arm/Firmware/CarMainControl/libraries/sdk/Peripheral/ch32v30x_usbotg_device.c:760 (discriminator 2)
    46d6:	47a1                	li	a5,8
D:/projects/mechanical_arm/Firmware/CarMainControl/libraries/sdk/Peripheral/ch32v30x_usbotg_device.c:760 (discriminator 4)
    46d8:	fef407a3          	sb	a5,-17(s0)
D:/projects/mechanical_arm/Firmware/CarMainControl/libraries/sdk/Peripheral/ch32v30x_usbotg_device.c:761 (discriminator 4)
                        SetupReqLen -= len;
    46dc:	8821d783          	lhu	a5,-1918(gp) # 200002a2 <SetupReqLen>
    46e0:	01079713          	slli	a4,a5,0x10
    46e4:	8341                	srli	a4,a4,0x10
    46e6:	fef44783          	lbu	a5,-17(s0)
    46ea:	07c2                	slli	a5,a5,0x10
    46ec:	83c1                	srli	a5,a5,0x10
    46ee:	40f707b3          	sub	a5,a4,a5
    46f2:	01079713          	slli	a4,a5,0x10
    46f6:	8341                	srli	a4,a4,0x10
    46f8:	88e19123          	sh	a4,-1918(gp) # 200002a2 <SetupReqLen>
    46fc:	a019                	j	4702 <OTG_FS_IRQHandler+0x86e>
D:/projects/mechanical_arm/Firmware/CarMainControl/libraries/sdk/Peripheral/ch32v30x_usbotg_device.c:763
                    else  len = 0;
    46fe:	fe0407a3          	sb	zero,-17(s0)
D:/projects/mechanical_arm/Firmware/CarMainControl/libraries/sdk/Peripheral/ch32v30x_usbotg_device.c:765
                    USBOTG_FS->UEP0_TX_LEN  = len;
    4702:	500007b7          	lui	a5,0x50000
    4706:	fef44703          	lbu	a4,-17(s0)
    470a:	0742                	slli	a4,a4,0x10
    470c:	8341                	srli	a4,a4,0x10
    470e:	02e79823          	sh	a4,48(a5) # 50000030 <_eusrstack+0x2fff0030>
D:/projects/mechanical_arm/Firmware/CarMainControl/libraries/sdk/Peripheral/ch32v30x_usbotg_device.c:766
                    USBOTG_FS->UEP0_TX_CTRL = USBHD_UEP_T_TOG|USBHD_UEP_T_RES_ACK;
    4712:	500007b7          	lui	a5,0x50000
    4716:	4711                	li	a4,4
    4718:	02e78923          	sb	a4,50(a5) # 50000032 <_eusrstack+0x2fff0032>
D:/projects/mechanical_arm/Firmware/CarMainControl/libraries/sdk/Peripheral/ch32v30x_usbotg_device.c:767
                    USBOTG_FS->UEP0_RX_CTRL = USBHD_UEP_R_TOG|USBHD_UEP_R_RES_ACK;
    471c:	500007b7          	lui	a5,0x50000
    4720:	4711                	li	a4,4
    4722:	02e789a3          	sb	a4,51(a5) # 50000033 <_eusrstack+0x2fff0033>
D:/projects/mechanical_arm/Firmware/CarMainControl/libraries/sdk/Peripheral/ch32v30x_usbotg_device.c:769
                break;
    4726:	a681                	j	4a66 <OTG_FS_IRQHandler+0xbd2>
D:/projects/mechanical_arm/Firmware/CarMainControl/libraries/sdk/Peripheral/ch32v30x_usbotg_device.c:772
                switch ( USBOTG_FS->INT_ST & ( USBHD_UIS_TOKEN_MASK | USBHD_UIS_ENDP_MASK ) )
    4728:	500007b7          	lui	a5,0x50000
    472c:	0077c783          	lbu	a5,7(a5) # 50000007 <_eusrstack+0x2fff0007>
    4730:	0ff7f793          	andi	a5,a5,255
    4734:	03f7f793          	andi	a5,a5,63
    4738:	02100713          	li	a4,33
    473c:	12e78563          	beq	a5,a4,4866 <OTG_FS_IRQHandler+0x9d2>
    4740:	02200713          	li	a4,34
    4744:	14e78d63          	beq	a5,a4,489e <OTG_FS_IRQHandler+0xa0a>
    4748:	02000713          	li	a4,32
    474c:	18e79e63          	bne	a5,a4,48e8 <OTG_FS_IRQHandler+0xa54>
D:/projects/mechanical_arm/Firmware/CarMainControl/libraries/sdk/Peripheral/ch32v30x_usbotg_device.c:775 (discriminator 6)
                        switch( SetupReqCode )
    4750:	8801c783          	lbu	a5,-1920(gp) # 200002a0 <SetupReqCode>
    4754:	0ff7f793          	andi	a5,a5,255
    4758:	4715                	li	a4,5
    475a:	0ae78063          	beq	a5,a4,47fa <OTG_FS_IRQHandler+0x966>
    475e:	4719                	li	a4,6
    4760:	0ee79463          	bne	a5,a4,4848 <OTG_FS_IRQHandler+0x9b4>
D:/projects/mechanical_arm/Firmware/CarMainControl/libraries/sdk/Peripheral/ch32v30x_usbotg_device.c:778
                                    len = SetupReqLen >= DevEP0SIZE ? DevEP0SIZE : SetupReqLen;
    4764:	8821d783          	lhu	a5,-1918(gp) # 200002a2 <SetupReqLen>
    4768:	01079713          	slli	a4,a5,0x10
    476c:	8341                	srli	a4,a4,0x10
    476e:	479d                	li	a5,7
    4770:	00e7e963          	bltu	a5,a4,4782 <OTG_FS_IRQHandler+0x8ee>
D:/projects/mechanical_arm/Firmware/CarMainControl/libraries/sdk/Peripheral/ch32v30x_usbotg_device.c:778 (discriminator 1)
    4774:	8821d783          	lhu	a5,-1918(gp) # 200002a2 <SetupReqLen>
    4778:	07c2                	slli	a5,a5,0x10
    477a:	83c1                	srli	a5,a5,0x10
    477c:	0ff7f793          	andi	a5,a5,255
    4780:	a011                	j	4784 <OTG_FS_IRQHandler+0x8f0>
D:/projects/mechanical_arm/Firmware/CarMainControl/libraries/sdk/Peripheral/ch32v30x_usbotg_device.c:778 (discriminator 2)
    4782:	47a1                	li	a5,8
D:/projects/mechanical_arm/Firmware/CarMainControl/libraries/sdk/Peripheral/ch32v30x_usbotg_device.c:778 (discriminator 4)
    4784:	fef407a3          	sb	a5,-17(s0)
D:/projects/mechanical_arm/Firmware/CarMainControl/libraries/sdk/Peripheral/ch32v30x_usbotg_device.c:779 (discriminator 4)
                                    memcpy( pEP0_DataBuf, pDescr, len );
    4788:	86c1a703          	lw	a4,-1940(gp) # 2000028c <pEP0_RAM_Addr>
    478c:	8781a783          	lw	a5,-1928(gp) # 20000298 <pDescr>
    4790:	fef44683          	lbu	a3,-17(s0)
    4794:	8636                	mv	a2,a3
    4796:	85be                	mv	a1,a5
    4798:	853a                	mv	a0,a4
    479a:	6b3010ef          	jal	ra,664c <memcpy>
D:/projects/mechanical_arm/Firmware/CarMainControl/libraries/sdk/Peripheral/ch32v30x_usbotg_device.c:780 (discriminator 4)
                                    SetupReqLen -= len;
    479e:	8821d783          	lhu	a5,-1918(gp) # 200002a2 <SetupReqLen>
    47a2:	01079713          	slli	a4,a5,0x10
    47a6:	8341                	srli	a4,a4,0x10
    47a8:	fef44783          	lbu	a5,-17(s0)
    47ac:	07c2                	slli	a5,a5,0x10
    47ae:	83c1                	srli	a5,a5,0x10
    47b0:	40f707b3          	sub	a5,a4,a5
    47b4:	01079713          	slli	a4,a5,0x10
    47b8:	8341                	srli	a4,a4,0x10
    47ba:	88e19123          	sh	a4,-1918(gp) # 200002a2 <SetupReqLen>
D:/projects/mechanical_arm/Firmware/CarMainControl/libraries/sdk/Peripheral/ch32v30x_usbotg_device.c:781 (discriminator 4)
                                    pDescr += len;
    47be:	8781a703          	lw	a4,-1928(gp) # 20000298 <pDescr>
    47c2:	fef44783          	lbu	a5,-17(s0)
    47c6:	973e                	add	a4,a4,a5
    47c8:	86e1ac23          	sw	a4,-1928(gp) # 20000298 <pDescr>
D:/projects/mechanical_arm/Firmware/CarMainControl/libraries/sdk/Peripheral/ch32v30x_usbotg_device.c:782 (discriminator 4)
                                    USBOTG_FS->UEP0_TX_LEN   = len;
    47cc:	500007b7          	lui	a5,0x50000
    47d0:	fef44703          	lbu	a4,-17(s0)
    47d4:	0742                	slli	a4,a4,0x10
    47d6:	8341                	srli	a4,a4,0x10
    47d8:	02e79823          	sh	a4,48(a5) # 50000030 <_eusrstack+0x2fff0030>
D:/projects/mechanical_arm/Firmware/CarMainControl/libraries/sdk/Peripheral/ch32v30x_usbotg_device.c:783 (discriminator 4)
                                    USBOTG_FS->UEP0_TX_CTRL ^= USBHD_UEP_T_TOG;
    47dc:	500007b7          	lui	a5,0x50000
    47e0:	0327c783          	lbu	a5,50(a5) # 50000032 <_eusrstack+0x2fff0032>
    47e4:	0ff7f713          	andi	a4,a5,255
    47e8:	500007b7          	lui	a5,0x50000
    47ec:	00474713          	xori	a4,a4,4
    47f0:	0ff77713          	andi	a4,a4,255
    47f4:	02e78923          	sb	a4,50(a5) # 50000032 <_eusrstack+0x2fff0032>
D:/projects/mechanical_arm/Firmware/CarMainControl/libraries/sdk/Peripheral/ch32v30x_usbotg_device.c:784 (discriminator 4)
                                    break;
    47f8:	a0b5                	j	4864 <OTG_FS_IRQHandler+0x9d0>
D:/projects/mechanical_arm/Firmware/CarMainControl/libraries/sdk/Peripheral/ch32v30x_usbotg_device.c:787
                                    USBOTG_FS->DEV_ADDR = (USBOTG_FS->DEV_ADDR&USBHD_UDA_GP_BIT) | SetupReqLen;
    47fa:	500007b7          	lui	a5,0x50000
    47fe:	0037c783          	lbu	a5,3(a5) # 50000003 <_eusrstack+0x2fff0003>
    4802:	0ff7f793          	andi	a5,a5,255
    4806:	07e2                	slli	a5,a5,0x18
    4808:	87e1                	srai	a5,a5,0x18
    480a:	f807f793          	andi	a5,a5,-128
    480e:	01879713          	slli	a4,a5,0x18
    4812:	8761                	srai	a4,a4,0x18
    4814:	8821d783          	lhu	a5,-1918(gp) # 200002a2 <SetupReqLen>
    4818:	07c2                	slli	a5,a5,0x10
    481a:	83c1                	srli	a5,a5,0x10
    481c:	07e2                	slli	a5,a5,0x18
    481e:	87e1                	srai	a5,a5,0x18
    4820:	8fd9                	or	a5,a5,a4
    4822:	01879713          	slli	a4,a5,0x18
    4826:	8761                	srai	a4,a4,0x18
    4828:	500007b7          	lui	a5,0x50000
    482c:	0ff77713          	andi	a4,a4,255
    4830:	00e781a3          	sb	a4,3(a5) # 50000003 <_eusrstack+0x2fff0003>
D:/projects/mechanical_arm/Firmware/CarMainControl/libraries/sdk/Peripheral/ch32v30x_usbotg_device.c:788
                                    USBOTG_FS->UEP0_TX_CTRL = USBHD_UEP_T_RES_NAK;
    4834:	500007b7          	lui	a5,0x50000
    4838:	4709                	li	a4,2
    483a:	02e78923          	sb	a4,50(a5) # 50000032 <_eusrstack+0x2fff0032>
D:/projects/mechanical_arm/Firmware/CarMainControl/libraries/sdk/Peripheral/ch32v30x_usbotg_device.c:789
                                    USBOTG_FS->UEP0_RX_CTRL = USBHD_UEP_R_RES_ACK;
    483e:	500007b7          	lui	a5,0x50000
    4842:	020789a3          	sb	zero,51(a5) # 50000033 <_eusrstack+0x2fff0033>
D:/projects/mechanical_arm/Firmware/CarMainControl/libraries/sdk/Peripheral/ch32v30x_usbotg_device.c:790
                                    break;
    4846:	a839                	j	4864 <OTG_FS_IRQHandler+0x9d0>
D:/projects/mechanical_arm/Firmware/CarMainControl/libraries/sdk/Peripheral/ch32v30x_usbotg_device.c:793
                                    USBOTG_FS->UEP0_TX_LEN = 0;
    4848:	500007b7          	lui	a5,0x50000
    484c:	02079823          	sh	zero,48(a5) # 50000030 <_eusrstack+0x2fff0030>
D:/projects/mechanical_arm/Firmware/CarMainControl/libraries/sdk/Peripheral/ch32v30x_usbotg_device.c:794
                                    USBOTG_FS->UEP0_TX_CTRL = USBHD_UEP_T_RES_NAK;
    4850:	500007b7          	lui	a5,0x50000
    4854:	4709                	li	a4,2
    4856:	02e78923          	sb	a4,50(a5) # 50000032 <_eusrstack+0x2fff0032>
D:/projects/mechanical_arm/Firmware/CarMainControl/libraries/sdk/Peripheral/ch32v30x_usbotg_device.c:795
                                    USBOTG_FS->UEP0_RX_CTRL = USBHD_UEP_R_RES_ACK;
    485a:	500007b7          	lui	a5,0x50000
    485e:	020789a3          	sb	zero,51(a5) # 50000033 <_eusrstack+0x2fff0033>
D:/projects/mechanical_arm/Firmware/CarMainControl/libraries/sdk/Peripheral/ch32v30x_usbotg_device.c:796
                                    break;
    4862:	0001                	nop
D:/projects/mechanical_arm/Firmware/CarMainControl/libraries/sdk/Peripheral/ch32v30x_usbotg_device.c:799
                        break;
    4864:	a059                	j	48ea <OTG_FS_IRQHandler+0xa56>
D:/projects/mechanical_arm/Firmware/CarMainControl/libraries/sdk/Peripheral/ch32v30x_usbotg_device.c:802
                    USBOTG_FS->UEP1_TX_CTRL  = (USBHD_UEP1_TX_CTRL & ~USBHD_UEP_T_RES_MASK) | USBHD_UEP_T_RES_ACK;
    4866:	500007b7          	lui	a5,0x50000
    486a:	0367c783          	lbu	a5,54(a5) # 50000036 <_eusrstack+0x2fff0036>
    486e:	0ff7f713          	andi	a4,a5,255
    4872:	500007b7          	lui	a5,0x50000
    4876:	9b71                	andi	a4,a4,-4
    4878:	0ff77713          	andi	a4,a4,255
    487c:	02e78b23          	sb	a4,54(a5) # 50000036 <_eusrstack+0x2fff0036>
D:/projects/mechanical_arm/Firmware/CarMainControl/libraries/sdk/Peripheral/ch32v30x_usbotg_device.c:803
                    USBOTG_FS->UEP1_TX_CTRL ^= USBHD_UEP_T_TOG;
    4880:	500007b7          	lui	a5,0x50000
    4884:	0367c783          	lbu	a5,54(a5) # 50000036 <_eusrstack+0x2fff0036>
    4888:	0ff7f713          	andi	a4,a5,255
    488c:	500007b7          	lui	a5,0x50000
    4890:	00474713          	xori	a4,a4,4
    4894:	0ff77713          	andi	a4,a4,255
    4898:	02e78b23          	sb	a4,54(a5) # 50000036 <_eusrstack+0x2fff0036>
D:/projects/mechanical_arm/Firmware/CarMainControl/libraries/sdk/Peripheral/ch32v30x_usbotg_device.c:804
                    break;
    489c:	a0b9                	j	48ea <OTG_FS_IRQHandler+0xa56>
D:/projects/mechanical_arm/Firmware/CarMainControl/libraries/sdk/Peripheral/ch32v30x_usbotg_device.c:807
                    USBOTG_FS->UEP2_TX_CTRL ^= USBHD_UEP_T_TOG;
    489e:	500007b7          	lui	a5,0x50000
    48a2:	03a7c783          	lbu	a5,58(a5) # 5000003a <_eusrstack+0x2fff003a>
    48a6:	0ff7f713          	andi	a4,a5,255
    48aa:	500007b7          	lui	a5,0x50000
    48ae:	00474713          	xori	a4,a4,4
    48b2:	0ff77713          	andi	a4,a4,255
    48b6:	02e78d23          	sb	a4,58(a5) # 5000003a <_eusrstack+0x2fff003a>
D:/projects/mechanical_arm/Firmware/CarMainControl/libraries/sdk/Peripheral/ch32v30x_usbotg_device.c:808
                    USBOTG_FS->UEP2_TX_CTRL = (USBOTG_FS->UEP2_TX_CTRL & ~USBHD_UEP_T_RES_MASK) | USBHD_UEP_T_RES_NAK;
    48ba:	500007b7          	lui	a5,0x50000
    48be:	03a7c783          	lbu	a5,58(a5) # 5000003a <_eusrstack+0x2fff003a>
    48c2:	0ff7f793          	andi	a5,a5,255
    48c6:	07e2                	slli	a5,a5,0x18
    48c8:	87e1                	srai	a5,a5,0x18
    48ca:	9bf1                	andi	a5,a5,-4
    48cc:	07e2                	slli	a5,a5,0x18
    48ce:	87e1                	srai	a5,a5,0x18
    48d0:	0027e793          	ori	a5,a5,2
    48d4:	01879713          	slli	a4,a5,0x18
    48d8:	8761                	srai	a4,a4,0x18
    48da:	500007b7          	lui	a5,0x50000
    48de:	0ff77713          	andi	a4,a4,255
    48e2:	02e78d23          	sb	a4,58(a5) # 5000003a <_eusrstack+0x2fff003a>
D:/projects/mechanical_arm/Firmware/CarMainControl/libraries/sdk/Peripheral/ch32v30x_usbotg_device.c:809
                    break;
    48e6:	a011                	j	48ea <OTG_FS_IRQHandler+0xa56>
D:/projects/mechanical_arm/Firmware/CarMainControl/libraries/sdk/Peripheral/ch32v30x_usbotg_device.c:813
                    break;
    48e8:	0001                	nop
D:/projects/mechanical_arm/Firmware/CarMainControl/libraries/sdk/Peripheral/ch32v30x_usbotg_device.c:816
                break;
    48ea:	aab5                	j	4a66 <OTG_FS_IRQHandler+0xbd2>
D:/projects/mechanical_arm/Firmware/CarMainControl/libraries/sdk/Peripheral/ch32v30x_usbotg_device.c:820
                switch ( USBOTG_FS->INT_ST & ( USBHD_UIS_TOKEN_MASK | USBHD_UIS_ENDP_MASK ) )
    48ec:	500007b7          	lui	a5,0x50000
    48f0:	0077c783          	lbu	a5,7(a5) # 50000007 <_eusrstack+0x2fff0007>
    48f4:	0ff7f793          	andi	a5,a5,255
    48f8:	03f7f793          	andi	a5,a5,63
    48fc:	4705                	li	a4,1
    48fe:	0ce78763          	beq	a5,a4,49cc <OTG_FS_IRQHandler+0xb38>
    4902:	4709                	li	a4,2
    4904:	10e78663          	beq	a5,a4,4a10 <OTG_FS_IRQHandler+0xb7c>
    4908:	14079e63          	bnez	a5,4a64 <OTG_FS_IRQHandler+0xbd0>
D:/projects/mechanical_arm/Firmware/CarMainControl/libraries/sdk/Peripheral/ch32v30x_usbotg_device.c:823 (discriminator 7)
                        switch( SetupReqCode )
    490c:	8801c783          	lbu	a5,-1920(gp) # 200002a0 <SetupReqCode>
    4910:	0ff7f793          	andi	a5,a5,255
    4914:	873e                	mv	a4,a5
    4916:	02000793          	li	a5,32
    491a:	0af71363          	bne	a4,a5,49c0 <OTG_FS_IRQHandler+0xb2c>
D:/projects/mechanical_arm/Firmware/CarMainControl/libraries/sdk/Peripheral/ch32v30x_usbotg_device.c:826
                                if((((LINECODINGST *)pEP0_DataBuf)->dataRat[0] || ((LINECODINGST *)pEP0_DataBuf)->dataRat[1] ||
    491e:	86c1a783          	lw	a5,-1940(gp) # 2000028c <pEP0_RAM_Addr>
    4922:	0007c783          	lbu	a5,0(a5)
    4926:	e385                	bnez	a5,4946 <OTG_FS_IRQHandler+0xab2>
D:/projects/mechanical_arm/Firmware/CarMainControl/libraries/sdk/Peripheral/ch32v30x_usbotg_device.c:826 (discriminator 1)
    4928:	86c1a783          	lw	a5,-1940(gp) # 2000028c <pEP0_RAM_Addr>
    492c:	0017c783          	lbu	a5,1(a5)
    4930:	eb99                	bnez	a5,4946 <OTG_FS_IRQHandler+0xab2>
D:/projects/mechanical_arm/Firmware/CarMainControl/libraries/sdk/Peripheral/ch32v30x_usbotg_device.c:827 (discriminator 2)
                                  ((LINECODINGST *)pEP0_DataBuf)->dataRat[2] || ((LINECODINGST *)pEP0_DataBuf)->dataRat[3]))
    4932:	86c1a783          	lw	a5,-1940(gp) # 2000028c <pEP0_RAM_Addr>
    4936:	0027c783          	lbu	a5,2(a5)
D:/projects/mechanical_arm/Firmware/CarMainControl/libraries/sdk/Peripheral/ch32v30x_usbotg_device.c:826 (discriminator 2)
                                if((((LINECODINGST *)pEP0_DataBuf)->dataRat[0] || ((LINECODINGST *)pEP0_DataBuf)->dataRat[1] ||
    493a:	e791                	bnez	a5,4946 <OTG_FS_IRQHandler+0xab2>
D:/projects/mechanical_arm/Firmware/CarMainControl/libraries/sdk/Peripheral/ch32v30x_usbotg_device.c:827
                                  ((LINECODINGST *)pEP0_DataBuf)->dataRat[2] || ((LINECODINGST *)pEP0_DataBuf)->dataRat[3]))
    493c:	86c1a783          	lw	a5,-1940(gp) # 2000028c <pEP0_RAM_Addr>
    4940:	0037c783          	lbu	a5,3(a5)
    4944:	cf9d                	beqz	a5,4982 <OTG_FS_IRQHandler+0xaee>
D:/projects/mechanical_arm/Firmware/CarMainControl/libraries/sdk/Peripheral/ch32v30x_usbotg_device.c:831
                                            (((LINECODINGST *)pEP0_DataBuf)->dataRat[3] <<24) |
    4946:	86c1a783          	lw	a5,-1940(gp) # 2000028c <pEP0_RAM_Addr>
    494a:	0037c783          	lbu	a5,3(a5)
    494e:	01879713          	slli	a4,a5,0x18
D:/projects/mechanical_arm/Firmware/CarMainControl/libraries/sdk/Peripheral/ch32v30x_usbotg_device.c:832
                                            (((LINECODINGST *)pEP0_DataBuf)->dataRat[2] <<16) |
    4952:	86c1a783          	lw	a5,-1940(gp) # 2000028c <pEP0_RAM_Addr>
    4956:	0027c783          	lbu	a5,2(a5)
    495a:	07c2                	slli	a5,a5,0x10
D:/projects/mechanical_arm/Firmware/CarMainControl/libraries/sdk/Peripheral/ch32v30x_usbotg_device.c:831
                                            (((LINECODINGST *)pEP0_DataBuf)->dataRat[3] <<24) |
    495c:	8f5d                	or	a4,a4,a5
D:/projects/mechanical_arm/Firmware/CarMainControl/libraries/sdk/Peripheral/ch32v30x_usbotg_device.c:833
                                            (((LINECODINGST *)pEP0_DataBuf)->dataRat[1] <<8) |
    495e:	86c1a783          	lw	a5,-1940(gp) # 2000028c <pEP0_RAM_Addr>
    4962:	0017c783          	lbu	a5,1(a5)
    4966:	07a2                	slli	a5,a5,0x8
D:/projects/mechanical_arm/Firmware/CarMainControl/libraries/sdk/Peripheral/ch32v30x_usbotg_device.c:832
                                            (((LINECODINGST *)pEP0_DataBuf)->dataRat[2] <<16) |
    4968:	8fd9                	or	a5,a5,a4
D:/projects/mechanical_arm/Firmware/CarMainControl/libraries/sdk/Peripheral/ch32v30x_usbotg_device.c:834
                                            (((LINECODINGST *)pEP0_DataBuf)->dataRat[0]));
    496a:	86c1a703          	lw	a4,-1940(gp) # 2000028c <pEP0_RAM_Addr>
    496e:	00074703          	lbu	a4,0(a4)
D:/projects/mechanical_arm/Firmware/CarMainControl/libraries/sdk/Peripheral/ch32v30x_usbotg_device.c:830
                                    printf( "\nBaud Rate = %d",
    4972:	8fd9                	or	a5,a5,a4
    4974:	85be                	mv	a1,a5
    4976:	67a9                	lui	a5,0xa
    4978:	85078513          	addi	a0,a5,-1968 # 9850 <_sbrk+0x138>
    497c:	77c020ef          	jal	ra,70f8 <iprintf>
D:/projects/mechanical_arm/Firmware/CarMainControl/libraries/sdk/Peripheral/ch32v30x_usbotg_device.c:843
                               break;
    4980:	a83d                	j	49be <OTG_FS_IRQHandler+0xb2a>
D:/projects/mechanical_arm/Firmware/CarMainControl/libraries/sdk/Peripheral/ch32v30x_usbotg_device.c:838
                                    printf( "\ndataBit = %d",  ((LINECODINGST *)pEP0_DataBuf)->dataBit);
    4982:	86c1a783          	lw	a5,-1940(gp) # 2000028c <pEP0_RAM_Addr>
    4986:	0067c783          	lbu	a5,6(a5)
    498a:	85be                	mv	a1,a5
    498c:	67a9                	lui	a5,0xa
    498e:	86078513          	addi	a0,a5,-1952 # 9860 <_sbrk+0x148>
    4992:	766020ef          	jal	ra,70f8 <iprintf>
D:/projects/mechanical_arm/Firmware/CarMainControl/libraries/sdk/Peripheral/ch32v30x_usbotg_device.c:839
                                    printf( "\nstopBit = %d",  ((LINECODINGST *)pEP0_DataBuf)->stopBit);
    4996:	86c1a783          	lw	a5,-1940(gp) # 2000028c <pEP0_RAM_Addr>
    499a:	0047c783          	lbu	a5,4(a5)
    499e:	85be                	mv	a1,a5
    49a0:	67a9                	lui	a5,0xa
    49a2:	87078513          	addi	a0,a5,-1936 # 9870 <_sbrk+0x158>
    49a6:	752020ef          	jal	ra,70f8 <iprintf>
D:/projects/mechanical_arm/Firmware/CarMainControl/libraries/sdk/Peripheral/ch32v30x_usbotg_device.c:840
                                    printf( "\nparityType = %d",  ((LINECODINGST *)pEP0_DataBuf)->parityType);
    49aa:	86c1a783          	lw	a5,-1940(gp) # 2000028c <pEP0_RAM_Addr>
    49ae:	0057c783          	lbu	a5,5(a5)
    49b2:	85be                	mv	a1,a5
    49b4:	67a9                	lui	a5,0xa
    49b6:	88078513          	addi	a0,a5,-1920 # 9880 <_sbrk+0x168>
    49ba:	73e020ef          	jal	ra,70f8 <iprintf>
D:/projects/mechanical_arm/Firmware/CarMainControl/libraries/sdk/Peripheral/ch32v30x_usbotg_device.c:843
                               break;
    49be:	0001                	nop
D:/projects/mechanical_arm/Firmware/CarMainControl/libraries/sdk/Peripheral/ch32v30x_usbotg_device.c:847
                    len = USBOTG_FS->RX_LEN;
    49c0:	500007b7          	lui	a5,0x50000
    49c4:	479c                	lw	a5,8(a5)
    49c6:	fef407a3          	sb	a5,-17(s0)
D:/projects/mechanical_arm/Firmware/CarMainControl/libraries/sdk/Peripheral/ch32v30x_usbotg_device.c:848
                    break;
    49ca:	a841                	j	4a5a <OTG_FS_IRQHandler+0xbc6>
D:/projects/mechanical_arm/Firmware/CarMainControl/libraries/sdk/Peripheral/ch32v30x_usbotg_device.c:851
                        if ( USBOTG_FS->INT_ST & USBHD_UIS_TOG_OK )
    49cc:	500007b7          	lui	a5,0x50000
    49d0:	0077c783          	lbu	a5,7(a5) # 50000007 <_eusrstack+0x2fff0007>
    49d4:	0ff7f793          	andi	a5,a5,255
    49d8:	0407f793          	andi	a5,a5,64
    49dc:	cfa5                	beqz	a5,4a54 <OTG_FS_IRQHandler+0xbc0>
D:/projects/mechanical_arm/Firmware/CarMainControl/libraries/sdk/Peripheral/ch32v30x_usbotg_device.c:853
                            USBOTG_FS->UEP1_RX_CTRL ^= USBHD_UEP_R_TOG;
    49de:	500007b7          	lui	a5,0x50000
    49e2:	0377c783          	lbu	a5,55(a5) # 50000037 <_eusrstack+0x2fff0037>
    49e6:	0ff7f713          	andi	a4,a5,255
    49ea:	500007b7          	lui	a5,0x50000
    49ee:	00474713          	xori	a4,a4,4
    49f2:	0ff77713          	andi	a4,a4,255
    49f6:	02e78ba3          	sb	a4,55(a5) # 50000037 <_eusrstack+0x2fff0037>
D:/projects/mechanical_arm/Firmware/CarMainControl/libraries/sdk/Peripheral/ch32v30x_usbotg_device.c:854
                            len = USBOTG_FS->RX_LEN;
    49fa:	500007b7          	lui	a5,0x50000
    49fe:	479c                	lw	a5,8(a5)
    4a00:	fef407a3          	sb	a5,-17(s0)
D:/projects/mechanical_arm/Firmware/CarMainControl/libraries/sdk/Peripheral/ch32v30x_usbotg_device.c:856
                            DevEP1_OUT_Deal( len );
    4a04:	fef44783          	lbu	a5,-17(s0)
    4a08:	853e                	mv	a0,a5
    4a0a:	bbeff0ef          	jal	ra,3dc8 <DevEP1_OUT_Deal>
D:/projects/mechanical_arm/Firmware/CarMainControl/libraries/sdk/Peripheral/ch32v30x_usbotg_device.c:858
                        break;
    4a0e:	a099                	j	4a54 <OTG_FS_IRQHandler+0xbc0>
D:/projects/mechanical_arm/Firmware/CarMainControl/libraries/sdk/Peripheral/ch32v30x_usbotg_device.c:861
                        if ( USBOTG_FS->INT_ST & USBHD_UIS_TOG_OK )
    4a10:	500007b7          	lui	a5,0x50000
    4a14:	0077c783          	lbu	a5,7(a5) # 50000007 <_eusrstack+0x2fff0007>
    4a18:	0ff7f793          	andi	a5,a5,255
    4a1c:	0407f793          	andi	a5,a5,64
    4a20:	cf85                	beqz	a5,4a58 <OTG_FS_IRQHandler+0xbc4>
D:/projects/mechanical_arm/Firmware/CarMainControl/libraries/sdk/Peripheral/ch32v30x_usbotg_device.c:863
                            USBOTG_FS->UEP2_RX_CTRL ^= USBHD_UEP_R_TOG;
    4a22:	500007b7          	lui	a5,0x50000
    4a26:	03b7c783          	lbu	a5,59(a5) # 5000003b <_eusrstack+0x2fff003b>
    4a2a:	0ff7f713          	andi	a4,a5,255
    4a2e:	500007b7          	lui	a5,0x50000
    4a32:	00474713          	xori	a4,a4,4
    4a36:	0ff77713          	andi	a4,a4,255
    4a3a:	02e78da3          	sb	a4,59(a5) # 5000003b <_eusrstack+0x2fff003b>
D:/projects/mechanical_arm/Firmware/CarMainControl/libraries/sdk/Peripheral/ch32v30x_usbotg_device.c:864
                            len = USBOTG_FS->RX_LEN;
    4a3e:	500007b7          	lui	a5,0x50000
    4a42:	479c                	lw	a5,8(a5)
    4a44:	fef407a3          	sb	a5,-17(s0)
D:/projects/mechanical_arm/Firmware/CarMainControl/libraries/sdk/Peripheral/ch32v30x_usbotg_device.c:866
                            DevEP2_OUT_Deal( len );
    4a48:	fef44783          	lbu	a5,-17(s0)
    4a4c:	853e                	mv	a0,a5
    4a4e:	be0ff0ef          	jal	ra,3e2e <DevEP2_OUT_Deal>
D:/projects/mechanical_arm/Firmware/CarMainControl/libraries/sdk/Peripheral/ch32v30x_usbotg_device.c:868
                        break;
    4a52:	a019                	j	4a58 <OTG_FS_IRQHandler+0xbc4>
D:/projects/mechanical_arm/Firmware/CarMainControl/libraries/sdk/Peripheral/ch32v30x_usbotg_device.c:858
                        break;
    4a54:	0001                	nop
    4a56:	a039                	j	4a64 <OTG_FS_IRQHandler+0xbd0>
D:/projects/mechanical_arm/Firmware/CarMainControl/libraries/sdk/Peripheral/ch32v30x_usbotg_device.c:868
                        break;
    4a58:	0001                	nop
D:/projects/mechanical_arm/Firmware/CarMainControl/libraries/sdk/Peripheral/ch32v30x_usbotg_device.c:871
                break;
    4a5a:	a029                	j	4a64 <OTG_FS_IRQHandler+0xbd0>
D:/projects/mechanical_arm/Firmware/CarMainControl/libraries/sdk/Peripheral/ch32v30x_usbotg_device.c:875
                break;
    4a5c:	0001                	nop
    4a5e:	a021                	j	4a66 <OTG_FS_IRQHandler+0xbd2>
D:/projects/mechanical_arm/Firmware/CarMainControl/libraries/sdk/Peripheral/ch32v30x_usbotg_device.c:878
                break;
    4a60:	0001                	nop
    4a62:	a011                	j	4a66 <OTG_FS_IRQHandler+0xbd2>
D:/projects/mechanical_arm/Firmware/CarMainControl/libraries/sdk/Peripheral/ch32v30x_usbotg_device.c:871
                break;
    4a64:	0001                	nop
D:/projects/mechanical_arm/Firmware/CarMainControl/libraries/sdk/Peripheral/ch32v30x_usbotg_device.c:882

        }

        USBOTG_FS->INT_FG = USBHD_UIF_TRANSFER;
    4a66:	500007b7          	lui	a5,0x50000
    4a6a:	4709                	li	a4,2
    4a6c:	00e78323          	sb	a4,6(a5) # 50000006 <_eusrstack+0x2fff0006>
D:/projects/mechanical_arm/Firmware/CarMainControl/libraries/sdk/Peripheral/ch32v30x_usbotg_device.c:908
    }
    else
    {
        USBOTG_FS->INT_FG = intflag;
    }
}
    4a70:	a079                	j	4afe <OTG_FS_IRQHandler+0xc6a>
D:/projects/mechanical_arm/Firmware/CarMainControl/libraries/sdk/Peripheral/ch32v30x_usbotg_device.c:884
    else if( intflag & USBHD_UIF_BUS_RST )
    4a72:	fed44783          	lbu	a5,-19(s0)
    4a76:	8b85                	andi	a5,a5,1
    4a78:	cfb9                	beqz	a5,4ad6 <OTG_FS_IRQHandler+0xc42>
D:/projects/mechanical_arm/Firmware/CarMainControl/libraries/sdk/Peripheral/ch32v30x_usbotg_device.c:886
        USBOTG_FS->DEV_ADDR = 0;
    4a7a:	500007b7          	lui	a5,0x50000
    4a7e:	000781a3          	sb	zero,3(a5) # 50000003 <_eusrstack+0x2fff0003>
D:/projects/mechanical_arm/Firmware/CarMainControl/libraries/sdk/Peripheral/ch32v30x_usbotg_device.c:888
        USBOTG_FS->UEP0_RX_CTRL = USBHD_UEP_R_RES_ACK;
    4a82:	500007b7          	lui	a5,0x50000
    4a86:	020789a3          	sb	zero,51(a5) # 50000033 <_eusrstack+0x2fff0033>
D:/projects/mechanical_arm/Firmware/CarMainControl/libraries/sdk/Peripheral/ch32v30x_usbotg_device.c:889
        USBOTG_FS->UEP1_RX_CTRL = USBHD_UEP_R_RES_ACK;
    4a8a:	500007b7          	lui	a5,0x50000
    4a8e:	02078ba3          	sb	zero,55(a5) # 50000037 <_eusrstack+0x2fff0037>
D:/projects/mechanical_arm/Firmware/CarMainControl/libraries/sdk/Peripheral/ch32v30x_usbotg_device.c:890
        USBOTG_FS->UEP2_RX_CTRL = USBHD_UEP_R_RES_ACK;
    4a92:	500007b7          	lui	a5,0x50000
    4a96:	02078da3          	sb	zero,59(a5) # 5000003b <_eusrstack+0x2fff003b>
D:/projects/mechanical_arm/Firmware/CarMainControl/libraries/sdk/Peripheral/ch32v30x_usbotg_device.c:892
        USBOTG_FS->UEP0_TX_CTRL = USBHD_UEP_T_RES_NAK;
    4a9a:	500007b7          	lui	a5,0x50000
    4a9e:	4709                	li	a4,2
    4aa0:	02e78923          	sb	a4,50(a5) # 50000032 <_eusrstack+0x2fff0032>
D:/projects/mechanical_arm/Firmware/CarMainControl/libraries/sdk/Peripheral/ch32v30x_usbotg_device.c:893
        USBOTG_FS->UEP1_TX_CTRL = USBHD_UEP_T_RES_NAK;
    4aa4:	500007b7          	lui	a5,0x50000
    4aa8:	4709                	li	a4,2
    4aaa:	02e78b23          	sb	a4,54(a5) # 50000036 <_eusrstack+0x2fff0036>
D:/projects/mechanical_arm/Firmware/CarMainControl/libraries/sdk/Peripheral/ch32v30x_usbotg_device.c:894
        USBOTG_FS->UEP2_TX_CTRL = USBHD_UEP_T_RES_NAK;
    4aae:	500007b7          	lui	a5,0x50000
    4ab2:	4709                	li	a4,2
    4ab4:	02e78d23          	sb	a4,58(a5) # 5000003a <_eusrstack+0x2fff003a>
D:/projects/mechanical_arm/Firmware/CarMainControl/libraries/sdk/Peripheral/ch32v30x_usbotg_device.c:896
        USBOTG_FS->INT_FG |= USBHD_UIF_BUS_RST;
    4ab8:	500007b7          	lui	a5,0x50000
    4abc:	0067c783          	lbu	a5,6(a5) # 50000006 <_eusrstack+0x2fff0006>
    4ac0:	0ff7f713          	andi	a4,a5,255
    4ac4:	500007b7          	lui	a5,0x50000
    4ac8:	00176713          	ori	a4,a4,1
    4acc:	0ff77713          	andi	a4,a4,255
    4ad0:	00e78323          	sb	a4,6(a5) # 50000006 <_eusrstack+0x2fff0006>
D:/projects/mechanical_arm/Firmware/CarMainControl/libraries/sdk/Peripheral/ch32v30x_usbotg_device.c:908
}
    4ad4:	a02d                	j	4afe <OTG_FS_IRQHandler+0xc6a>
D:/projects/mechanical_arm/Firmware/CarMainControl/libraries/sdk/Peripheral/ch32v30x_usbotg_device.c:898
    else if( intflag & USBHD_UIF_SUSPEND )
    4ad6:	fed44783          	lbu	a5,-19(s0)
    4ada:	8b91                	andi	a5,a5,4
    4adc:	cb99                	beqz	a5,4af2 <OTG_FS_IRQHandler+0xc5e>
D:/projects/mechanical_arm/Firmware/CarMainControl/libraries/sdk/Peripheral/ch32v30x_usbotg_device.c:900
        if ( USBOTG_FS->MIS_ST & USBHD_UMS_SUSPEND ) {;}
    4ade:	500007b7          	lui	a5,0x50000
    4ae2:	0057c783          	lbu	a5,5(a5) # 50000005 <_eusrstack+0x2fff0005>
D:/projects/mechanical_arm/Firmware/CarMainControl/libraries/sdk/Peripheral/ch32v30x_usbotg_device.c:902
        USBOTG_FS->INT_FG = USBHD_UIF_SUSPEND;
    4ae6:	500007b7          	lui	a5,0x50000
    4aea:	4711                	li	a4,4
    4aec:	00e78323          	sb	a4,6(a5) # 50000006 <_eusrstack+0x2fff0006>
D:/projects/mechanical_arm/Firmware/CarMainControl/libraries/sdk/Peripheral/ch32v30x_usbotg_device.c:908
}
    4af0:	a039                	j	4afe <OTG_FS_IRQHandler+0xc6a>
D:/projects/mechanical_arm/Firmware/CarMainControl/libraries/sdk/Peripheral/ch32v30x_usbotg_device.c:906
        USBOTG_FS->INT_FG = intflag;
    4af2:	500007b7          	lui	a5,0x50000
    4af6:	fed44703          	lbu	a4,-19(s0)
    4afa:	00e78323          	sb	a4,6(a5) # 50000006 <_eusrstack+0x2fff0006>
D:/projects/mechanical_arm/Firmware/CarMainControl/libraries/sdk/Peripheral/ch32v30x_usbotg_device.c:908
}
    4afe:	0001                	nop
    4b00:	4472                	lw	s0,28(sp)
    4b02:	6105                	addi	sp,sp,32
    4b04:	30200073          	mret

00004b08 <__adddf3>:
__adddf3():
    4b08:	00100837          	lui	a6,0x100
    4b0c:	1101                	addi	sp,sp,-32
    4b0e:	187d                	addi	a6,a6,-1
    4b10:	00b87733          	and	a4,a6,a1
    4b14:	ca26                	sw	s1,20(sp)
    4b16:	00d87833          	and	a6,a6,a3
    4b1a:	0145d493          	srli	s1,a1,0x14
    4b1e:	0146d313          	srli	t1,a3,0x14
    4b22:	00371e13          	slli	t3,a4,0x3
    4b26:	c64e                	sw	s3,12(sp)
    4b28:	01d55713          	srli	a4,a0,0x1d
    4b2c:	080e                	slli	a6,a6,0x3
    4b2e:	01d65793          	srli	a5,a2,0x1d
    4b32:	7ff4f493          	andi	s1,s1,2047
    4b36:	7ff37313          	andi	t1,t1,2047
    4b3a:	ce06                	sw	ra,28(sp)
    4b3c:	cc22                	sw	s0,24(sp)
    4b3e:	c84a                	sw	s2,16(sp)
    4b40:	01f5d993          	srli	s3,a1,0x1f
    4b44:	01f6de93          	srli	t4,a3,0x1f
    4b48:	01c76733          	or	a4,a4,t3
    4b4c:	00351f13          	slli	t5,a0,0x3
    4b50:	0107e833          	or	a6,a5,a6
    4b54:	00361f93          	slli	t6,a2,0x3
    4b58:	40648e33          	sub	t3,s1,t1
    4b5c:	19d98063          	beq	s3,t4,4cdc <__adddf3+0x1d4>
    4b60:	13c05663          	blez	t3,4c8c <__adddf3+0x184>
    4b64:	1c030463          	beqz	t1,4d2c <__adddf3+0x224>
    4b68:	008006b7          	lui	a3,0x800
    4b6c:	7ff00793          	li	a5,2047
    4b70:	00d86833          	or	a6,a6,a3
    4b74:	36f48f63          	beq	s1,a5,4ef2 <__adddf3+0x3ea>
    4b78:	03800793          	li	a5,56
    4b7c:	35c7c063          	blt	a5,t3,4ebc <__adddf3+0x3b4>
    4b80:	47fd                	li	a5,31
    4b82:	47c7cd63          	blt	a5,t3,4ffc <__adddf3+0x4f4>
    4b86:	02000513          	li	a0,32
    4b8a:	41c50533          	sub	a0,a0,t3
    4b8e:	01cfd7b3          	srl	a5,t6,t3
    4b92:	00a816b3          	sll	a3,a6,a0
    4b96:	00af9933          	sll	s2,t6,a0
    4b9a:	8edd                	or	a3,a3,a5
    4b9c:	01203933          	snez	s2,s2
    4ba0:	01c857b3          	srl	a5,a6,t3
    4ba4:	0126e933          	or	s2,a3,s2
    4ba8:	8f1d                	sub	a4,a4,a5
    4baa:	412f0933          	sub	s2,t5,s2
    4bae:	012f37b3          	sltu	a5,t5,s2
    4bb2:	40f70633          	sub	a2,a4,a5
    4bb6:	00861793          	slli	a5,a2,0x8
    4bba:	2407d463          	bgez	a5,4e02 <__adddf3+0x2fa>
    4bbe:	00800737          	lui	a4,0x800
    4bc2:	177d                	addi	a4,a4,-1
    4bc4:	00e67433          	and	s0,a2,a4
    4bc8:	2c040c63          	beqz	s0,4ea0 <__adddf3+0x398>
    4bcc:	8522                	mv	a0,s0
    4bce:	209010ef          	jal	ra,65d6 <__clzsi2>
    4bd2:	ff850713          	addi	a4,a0,-8 # 7ff8 <_dtoa_r+0xb9a>
    4bd6:	02000793          	li	a5,32
    4bda:	8f99                	sub	a5,a5,a4
    4bdc:	00f957b3          	srl	a5,s2,a5
    4be0:	00e41633          	sll	a2,s0,a4
    4be4:	8fd1                	or	a5,a5,a2
    4be6:	00e91933          	sll	s2,s2,a4
    4bea:	2a974163          	blt	a4,s1,4e8c <__adddf3+0x384>
    4bee:	40970533          	sub	a0,a4,s1
    4bf2:	00150613          	addi	a2,a0,1
    4bf6:	477d                	li	a4,31
    4bf8:	38c74d63          	blt	a4,a2,4f92 <__adddf3+0x48a>
    4bfc:	02000713          	li	a4,32
    4c00:	8f11                	sub	a4,a4,a2
    4c02:	00c956b3          	srl	a3,s2,a2
    4c06:	00e91933          	sll	s2,s2,a4
    4c0a:	00e79733          	sll	a4,a5,a4
    4c0e:	8f55                	or	a4,a4,a3
    4c10:	01203933          	snez	s2,s2
    4c14:	01276933          	or	s2,a4,s2
    4c18:	00c7d633          	srl	a2,a5,a2
    4c1c:	4481                	li	s1,0
    4c1e:	00797793          	andi	a5,s2,7
    4c22:	cf81                	beqz	a5,4c3a <__adddf3+0x132>
    4c24:	00f97713          	andi	a4,s2,15
    4c28:	4791                	li	a5,4
    4c2a:	00f70863          	beq	a4,a5,4c3a <__adddf3+0x132>
    4c2e:	00490713          	addi	a4,s2,4
    4c32:	01273933          	sltu	s2,a4,s2
    4c36:	964a                	add	a2,a2,s2
    4c38:	893a                	mv	s2,a4
    4c3a:	00861793          	slli	a5,a2,0x8
    4c3e:	1c07d663          	bgez	a5,4e0a <__adddf3+0x302>
    4c42:	00148513          	addi	a0,s1,1
    4c46:	7ff00793          	li	a5,2047
    4c4a:	85ce                	mv	a1,s3
    4c4c:	20f50463          	beq	a0,a5,4e54 <__adddf3+0x34c>
    4c50:	ff8007b7          	lui	a5,0xff800
    4c54:	17fd                	addi	a5,a5,-1
    4c56:	8ff1                	and	a5,a5,a2
    4c58:	01d79893          	slli	a7,a5,0x1d
    4c5c:	00395913          	srli	s2,s2,0x3
    4c60:	07a6                	slli	a5,a5,0x9
    4c62:	0128e8b3          	or	a7,a7,s2
    4c66:	83b1                	srli	a5,a5,0xc
    4c68:	7ff57513          	andi	a0,a0,2047
    4c6c:	00c79693          	slli	a3,a5,0xc
    4c70:	0552                	slli	a0,a0,0x14
    4c72:	40f2                	lw	ra,28(sp)
    4c74:	4462                	lw	s0,24(sp)
    4c76:	82b1                	srli	a3,a3,0xc
    4c78:	05fe                	slli	a1,a1,0x1f
    4c7a:	8ec9                	or	a3,a3,a0
    4c7c:	8ecd                	or	a3,a3,a1
    4c7e:	44d2                	lw	s1,20(sp)
    4c80:	4942                	lw	s2,16(sp)
    4c82:	49b2                	lw	s3,12(sp)
    4c84:	8546                	mv	a0,a7
    4c86:	85b6                	mv	a1,a3
    4c88:	6105                	addi	sp,sp,32
    4c8a:	8082                	ret
    4c8c:	0a0e1e63          	bnez	t3,4d48 <__adddf3+0x240>
    4c90:	00148313          	addi	t1,s1,1
    4c94:	7fe37313          	andi	t1,t1,2046
    4c98:	22031763          	bnez	t1,4ec6 <__adddf3+0x3be>
    4c9c:	01e767b3          	or	a5,a4,t5
    4ca0:	01f868b3          	or	a7,a6,t6
    4ca4:	1a049d63          	bnez	s1,4e5e <__adddf3+0x356>
    4ca8:	40078763          	beqz	a5,50b6 <__adddf3+0x5ae>
    4cac:	44088663          	beqz	a7,50f8 <__adddf3+0x5f0>
    4cb0:	41ff0933          	sub	s2,t5,t6
    4cb4:	410707b3          	sub	a5,a4,a6
    4cb8:	012f3633          	sltu	a2,t5,s2
    4cbc:	40c78633          	sub	a2,a5,a2
    4cc0:	00861793          	slli	a5,a2,0x8
    4cc4:	4c07d663          	bgez	a5,5190 <__adddf3+0x688>
    4cc8:	41ef8933          	sub	s2,t6,t5
    4ccc:	40e807b3          	sub	a5,a6,a4
    4cd0:	012fb633          	sltu	a2,t6,s2
    4cd4:	40c78633          	sub	a2,a5,a2
    4cd8:	89f6                	mv	s3,t4
    4cda:	b791                	j	4c1e <__adddf3+0x116>
    4cdc:	0fc05063          	blez	t3,4dbc <__adddf3+0x2b4>
    4ce0:	0c030063          	beqz	t1,4da0 <__adddf3+0x298>
    4ce4:	008006b7          	lui	a3,0x800
    4ce8:	7ff00793          	li	a5,2047
    4cec:	00d86833          	or	a6,a6,a3
    4cf0:	3af48a63          	beq	s1,a5,50a4 <__adddf3+0x59c>
    4cf4:	03800793          	li	a5,56
    4cf8:	13c7cb63          	blt	a5,t3,4e2e <__adddf3+0x326>
    4cfc:	47fd                	li	a5,31
    4cfe:	35c7df63          	bge	a5,t3,505c <__adddf3+0x554>
    4d02:	fe0e0913          	addi	s2,t3,-32
    4d06:	02000793          	li	a5,32
    4d0a:	012856b3          	srl	a3,a6,s2
    4d0e:	00fe0a63          	beq	t3,a5,4d22 <__adddf3+0x21a>
    4d12:	04000913          	li	s2,64
    4d16:	41c90933          	sub	s2,s2,t3
    4d1a:	01281933          	sll	s2,a6,s2
    4d1e:	012fefb3          	or	t6,t6,s2
    4d22:	01f03933          	snez	s2,t6
    4d26:	00d96933          	or	s2,s2,a3
    4d2a:	a231                	j	4e36 <__adddf3+0x32e>
    4d2c:	01f867b3          	or	a5,a6,t6
    4d30:	1c078a63          	beqz	a5,4f04 <__adddf3+0x3fc>
    4d34:	fffe0793          	addi	a5,t3,-1
    4d38:	38078c63          	beqz	a5,50d0 <__adddf3+0x5c8>
    4d3c:	7ff00693          	li	a3,2047
    4d40:	1ade0963          	beq	t3,a3,4ef2 <__adddf3+0x3ea>
    4d44:	8e3e                	mv	t3,a5
    4d46:	bd0d                	j	4b78 <__adddf3+0x70>
    4d48:	409305b3          	sub	a1,t1,s1
    4d4c:	22049163          	bnez	s1,4f6e <__adddf3+0x466>
    4d50:	01e767b3          	or	a5,a4,t5
    4d54:	32078763          	beqz	a5,5082 <__adddf3+0x57a>
    4d58:	fff58793          	addi	a5,a1,-1
    4d5c:	44078163          	beqz	a5,519e <__adddf3+0x696>
    4d60:	7ff00693          	li	a3,2047
    4d64:	20d58c63          	beq	a1,a3,4f7c <__adddf3+0x474>
    4d68:	85be                	mv	a1,a5
    4d6a:	03800793          	li	a5,56
    4d6e:	2ab7cc63          	blt	a5,a1,5026 <__adddf3+0x51e>
    4d72:	47fd                	li	a5,31
    4d74:	3cb7cf63          	blt	a5,a1,5152 <__adddf3+0x64a>
    4d78:	02000793          	li	a5,32
    4d7c:	8f8d                	sub	a5,a5,a1
    4d7e:	00f71933          	sll	s2,a4,a5
    4d82:	00bf56b3          	srl	a3,t5,a1
    4d86:	00ff17b3          	sll	a5,t5,a5
    4d8a:	00d96933          	or	s2,s2,a3
    4d8e:	00f037b3          	snez	a5,a5
    4d92:	00b75733          	srl	a4,a4,a1
    4d96:	00f96933          	or	s2,s2,a5
    4d9a:	40e80833          	sub	a6,a6,a4
    4d9e:	ac41                	j	502e <__adddf3+0x526>
    4da0:	01f867b3          	or	a5,a6,t6
    4da4:	34078063          	beqz	a5,50e4 <__adddf3+0x5dc>
    4da8:	fffe0793          	addi	a5,t3,-1
    4dac:	20078a63          	beqz	a5,4fc0 <__adddf3+0x4b8>
    4db0:	7ff00693          	li	a3,2047
    4db4:	2ede0863          	beq	t3,a3,50a4 <__adddf3+0x59c>
    4db8:	8e3e                	mv	t3,a5
    4dba:	bf2d                	j	4cf4 <__adddf3+0x1ec>
    4dbc:	140e1e63          	bnez	t3,4f18 <__adddf3+0x410>
    4dc0:	00148693          	addi	a3,s1,1
    4dc4:	7fe6f793          	andi	a5,a3,2046
    4dc8:	34079163          	bnez	a5,510a <__adddf3+0x602>
    4dcc:	01e767b3          	or	a5,a4,t5
    4dd0:	2c049563          	bnez	s1,509a <__adddf3+0x592>
    4dd4:	3e078063          	beqz	a5,51b4 <__adddf3+0x6ac>
    4dd8:	01f867b3          	or	a5,a6,t6
    4ddc:	30078e63          	beqz	a5,50f8 <__adddf3+0x5f0>
    4de0:	01ff0933          	add	s2,t5,t6
    4de4:	010707b3          	add	a5,a4,a6
    4de8:	01e93f33          	sltu	t5,s2,t5
    4dec:	01e78633          	add	a2,a5,t5
    4df0:	00861793          	slli	a5,a2,0x8
    4df4:	0007d763          	bgez	a5,4e02 <__adddf3+0x2fa>
    4df8:	ff8007b7          	lui	a5,0xff800
    4dfc:	17fd                	addi	a5,a5,-1
    4dfe:	8e7d                	and	a2,a2,a5
    4e00:	4485                	li	s1,1
    4e02:	00797793          	andi	a5,s2,7
    4e06:	e0079fe3          	bnez	a5,4c24 <__adddf3+0x11c>
    4e0a:	01d61793          	slli	a5,a2,0x1d
    4e0e:	00395893          	srli	a7,s2,0x3
    4e12:	00f8e8b3          	or	a7,a7,a5
    4e16:	00365793          	srli	a5,a2,0x3
    4e1a:	7ff00713          	li	a4,2047
    4e1e:	04e48d63          	beq	s1,a4,4e78 <__adddf3+0x370>
    4e22:	07b2                	slli	a5,a5,0xc
    4e24:	83b1                	srli	a5,a5,0xc
    4e26:	7ff4f513          	andi	a0,s1,2047
    4e2a:	85ce                	mv	a1,s3
    4e2c:	b581                	j	4c6c <__adddf3+0x164>
    4e2e:	01f86933          	or	s2,a6,t6
    4e32:	01203933          	snez	s2,s2
    4e36:	997a                	add	s2,s2,t5
    4e38:	01e937b3          	sltu	a5,s2,t5
    4e3c:	00e78633          	add	a2,a5,a4
    4e40:	00861793          	slli	a5,a2,0x8
    4e44:	fa07dfe3          	bgez	a5,4e02 <__adddf3+0x2fa>
    4e48:	0485                	addi	s1,s1,1
    4e4a:	7ff00793          	li	a5,2047
    4e4e:	18f49663          	bne	s1,a5,4fda <__adddf3+0x4d2>
    4e52:	85ce                	mv	a1,s3
    4e54:	7ff00513          	li	a0,2047
    4e58:	4781                	li	a5,0
    4e5a:	4881                	li	a7,0
    4e5c:	bd01                	j	4c6c <__adddf3+0x164>
    4e5e:	ebc1                	bnez	a5,4eee <__adddf3+0x3e6>
    4e60:	3a088463          	beqz	a7,5208 <__adddf3+0x700>
    4e64:	00361693          	slli	a3,a2,0x3
    4e68:	01d81793          	slli	a5,a6,0x1d
    4e6c:	828d                	srli	a3,a3,0x3
    4e6e:	00d7e8b3          	or	a7,a5,a3
    4e72:	89f6                	mv	s3,t4
    4e74:	00385793          	srli	a5,a6,0x3
    4e78:	00f8e7b3          	or	a5,a7,a5
    4e7c:	dbf9                	beqz	a5,4e52 <__adddf3+0x34a>
    4e7e:	4581                	li	a1,0
    4e80:	7ff00513          	li	a0,2047
    4e84:	000807b7          	lui	a5,0x80
    4e88:	4881                	li	a7,0
    4e8a:	b3cd                	j	4c6c <__adddf3+0x164>
    4e8c:	ff800637          	lui	a2,0xff800
    4e90:	167d                	addi	a2,a2,-1
    4e92:	8e7d                	and	a2,a2,a5
    4e94:	00797793          	andi	a5,s2,7
    4e98:	8c99                	sub	s1,s1,a4
    4e9a:	d80795e3          	bnez	a5,4c24 <__adddf3+0x11c>
    4e9e:	b7b5                	j	4e0a <__adddf3+0x302>
    4ea0:	854a                	mv	a0,s2
    4ea2:	734010ef          	jal	ra,65d6 <__clzsi2>
    4ea6:	01850713          	addi	a4,a0,24
    4eaa:	47fd                	li	a5,31
    4eac:	d2e7d5e3          	bge	a5,a4,4bd6 <__adddf3+0xce>
    4eb0:	ff850613          	addi	a2,a0,-8
    4eb4:	00c917b3          	sll	a5,s2,a2
    4eb8:	4901                	li	s2,0
    4eba:	bb05                	j	4bea <__adddf3+0xe2>
    4ebc:	01f86933          	or	s2,a6,t6
    4ec0:	01203933          	snez	s2,s2
    4ec4:	b1dd                	j	4baa <__adddf3+0xa2>
    4ec6:	41ff0933          	sub	s2,t5,t6
    4eca:	41070633          	sub	a2,a4,a6
    4ece:	012f3433          	sltu	s0,t5,s2
    4ed2:	40860433          	sub	s0,a2,s0
    4ed6:	00841793          	slli	a5,s0,0x8
    4eda:	2407cd63          	bltz	a5,5134 <__adddf3+0x62c>
    4ede:	008968b3          	or	a7,s2,s0
    4ee2:	ce0893e3          	bnez	a7,4bc8 <__adddf3+0xc0>
    4ee6:	4781                	li	a5,0
    4ee8:	4981                	li	s3,0
    4eea:	4481                	li	s1,0
    4eec:	bf1d                	j	4e22 <__adddf3+0x31a>
    4eee:	f80898e3          	bnez	a7,4e7e <__adddf3+0x376>
    4ef2:	050e                	slli	a0,a0,0x3
    4ef4:	01d71793          	slli	a5,a4,0x1d
    4ef8:	810d                	srli	a0,a0,0x3
    4efa:	00a7e8b3          	or	a7,a5,a0
    4efe:	00375793          	srli	a5,a4,0x3
    4f02:	bf9d                	j	4e78 <__adddf3+0x370>
    4f04:	050e                	slli	a0,a0,0x3
    4f06:	01d71793          	slli	a5,a4,0x1d
    4f0a:	810d                	srli	a0,a0,0x3
    4f0c:	00a7e8b3          	or	a7,a5,a0
    4f10:	84f2                	mv	s1,t3
    4f12:	00375793          	srli	a5,a4,0x3
    4f16:	b711                	j	4e1a <__adddf3+0x312>
    4f18:	40930533          	sub	a0,t1,s1
    4f1c:	12048263          	beqz	s1,5040 <__adddf3+0x538>
    4f20:	008006b7          	lui	a3,0x800
    4f24:	7ff00793          	li	a5,2047
    4f28:	8f55                	or	a4,a4,a3
    4f2a:	2ef30d63          	beq	t1,a5,5224 <__adddf3+0x71c>
    4f2e:	03800793          	li	a5,56
    4f32:	20a7cb63          	blt	a5,a0,5148 <__adddf3+0x640>
    4f36:	47fd                	li	a5,31
    4f38:	2aa7c363          	blt	a5,a0,51de <__adddf3+0x6d6>
    4f3c:	02000793          	li	a5,32
    4f40:	8f89                	sub	a5,a5,a0
    4f42:	00f71933          	sll	s2,a4,a5
    4f46:	00af56b3          	srl	a3,t5,a0
    4f4a:	00ff17b3          	sll	a5,t5,a5
    4f4e:	00d96933          	or	s2,s2,a3
    4f52:	00f037b3          	snez	a5,a5
    4f56:	00a75733          	srl	a4,a4,a0
    4f5a:	00f96933          	or	s2,s2,a5
    4f5e:	983a                	add	a6,a6,a4
    4f60:	997e                	add	s2,s2,t6
    4f62:	01f937b3          	sltu	a5,s2,t6
    4f66:	01078633          	add	a2,a5,a6
    4f6a:	849a                	mv	s1,t1
    4f6c:	bdd1                	j	4e40 <__adddf3+0x338>
    4f6e:	008006b7          	lui	a3,0x800
    4f72:	7ff00793          	li	a5,2047
    4f76:	8f55                	or	a4,a4,a3
    4f78:	def319e3          	bne	t1,a5,4d6a <__adddf3+0x262>
    4f7c:	00361793          	slli	a5,a2,0x3
    4f80:	838d                	srli	a5,a5,0x3
    4f82:	01d81893          	slli	a7,a6,0x1d
    4f86:	0117e8b3          	or	a7,a5,a7
    4f8a:	89f6                	mv	s3,t4
    4f8c:	00385793          	srli	a5,a6,0x3
    4f90:	b5e5                	j	4e78 <__adddf3+0x370>
    4f92:	fe150713          	addi	a4,a0,-31
    4f96:	02000693          	li	a3,32
    4f9a:	00e7d733          	srl	a4,a5,a4
    4f9e:	00d60a63          	beq	a2,a3,4fb2 <__adddf3+0x4aa>
    4fa2:	04000693          	li	a3,64
    4fa6:	40c68633          	sub	a2,a3,a2
    4faa:	00c79633          	sll	a2,a5,a2
    4fae:	00c96933          	or	s2,s2,a2
    4fb2:	01203933          	snez	s2,s2
    4fb6:	00e96933          	or	s2,s2,a4
    4fba:	4601                	li	a2,0
    4fbc:	4481                	li	s1,0
    4fbe:	b591                	j	4e02 <__adddf3+0x2fa>
    4fc0:	01ff0933          	add	s2,t5,t6
    4fc4:	010707b3          	add	a5,a4,a6
    4fc8:	01e93633          	sltu	a2,s2,t5
    4fcc:	963e                	add	a2,a2,a5
    4fce:	00861793          	slli	a5,a2,0x8
    4fd2:	4485                	li	s1,1
    4fd4:	e207d7e3          	bgez	a5,4e02 <__adddf3+0x2fa>
    4fd8:	4489                	li	s1,2
    4fda:	ff8007b7          	lui	a5,0xff800
    4fde:	17fd                	addi	a5,a5,-1
    4fe0:	8ff1                	and	a5,a5,a2
    4fe2:	00195713          	srli	a4,s2,0x1
    4fe6:	00197913          	andi	s2,s2,1
    4fea:	01276933          	or	s2,a4,s2
    4fee:	01f79893          	slli	a7,a5,0x1f
    4ff2:	0128e933          	or	s2,a7,s2
    4ff6:	0017d613          	srli	a2,a5,0x1
    4ffa:	b115                	j	4c1e <__adddf3+0x116>
    4ffc:	fe0e0913          	addi	s2,t3,-32
    5000:	02000793          	li	a5,32
    5004:	012856b3          	srl	a3,a6,s2
    5008:	00fe0a63          	beq	t3,a5,501c <__adddf3+0x514>
    500c:	04000913          	li	s2,64
    5010:	41c90933          	sub	s2,s2,t3
    5014:	01281933          	sll	s2,a6,s2
    5018:	012fefb3          	or	t6,t6,s2
    501c:	01f03933          	snez	s2,t6
    5020:	00d96933          	or	s2,s2,a3
    5024:	b659                	j	4baa <__adddf3+0xa2>
    5026:	01e76933          	or	s2,a4,t5
    502a:	01203933          	snez	s2,s2
    502e:	412f8933          	sub	s2,t6,s2
    5032:	012fb7b3          	sltu	a5,t6,s2
    5036:	40f80633          	sub	a2,a6,a5
    503a:	849a                	mv	s1,t1
    503c:	89f6                	mv	s3,t4
    503e:	bea5                	j	4bb6 <__adddf3+0xae>
    5040:	01e767b3          	or	a5,a4,t5
    5044:	18078263          	beqz	a5,51c8 <__adddf3+0x6c0>
    5048:	fff50793          	addi	a5,a0,-1
    504c:	1c078463          	beqz	a5,5214 <__adddf3+0x70c>
    5050:	7ff00693          	li	a3,2047
    5054:	12d50463          	beq	a0,a3,517c <__adddf3+0x674>
    5058:	853e                	mv	a0,a5
    505a:	bdd1                	j	4f2e <__adddf3+0x426>
    505c:	02000793          	li	a5,32
    5060:	41c787b3          	sub	a5,a5,t3
    5064:	00f816b3          	sll	a3,a6,a5
    5068:	00ff9933          	sll	s2,t6,a5
    506c:	01cfd633          	srl	a2,t6,t3
    5070:	8ed1                	or	a3,a3,a2
    5072:	01203933          	snez	s2,s2
    5076:	01c857b3          	srl	a5,a6,t3
    507a:	0126e933          	or	s2,a3,s2
    507e:	973e                	add	a4,a4,a5
    5080:	bb5d                	j	4e36 <__adddf3+0x32e>
    5082:	00361793          	slli	a5,a2,0x3
    5086:	838d                	srli	a5,a5,0x3
    5088:	01d81893          	slli	a7,a6,0x1d
    508c:	0117e8b3          	or	a7,a5,a7
    5090:	84ae                	mv	s1,a1
    5092:	00385793          	srli	a5,a6,0x3
    5096:	89f6                	mv	s3,t4
    5098:	b349                	j	4e1a <__adddf3+0x312>
    509a:	c3ed                	beqz	a5,517c <__adddf3+0x674>
    509c:	01f86933          	or	s2,a6,t6
    50a0:	dc091fe3          	bnez	s2,4e7e <__adddf3+0x376>
    50a4:	050e                	slli	a0,a0,0x3
    50a6:	01d71793          	slli	a5,a4,0x1d
    50aa:	810d                	srli	a0,a0,0x3
    50ac:	00f568b3          	or	a7,a0,a5
    50b0:	00375793          	srli	a5,a4,0x3
    50b4:	b3d1                	j	4e78 <__adddf3+0x370>
    50b6:	0e088163          	beqz	a7,5198 <__adddf3+0x690>
    50ba:	00361693          	slli	a3,a2,0x3
    50be:	01d81793          	slli	a5,a6,0x1d
    50c2:	828d                	srli	a3,a3,0x3
    50c4:	00d7e8b3          	or	a7,a5,a3
    50c8:	89f6                	mv	s3,t4
    50ca:	00385793          	srli	a5,a6,0x3
    50ce:	bb91                	j	4e22 <__adddf3+0x31a>
    50d0:	41ff0933          	sub	s2,t5,t6
    50d4:	410707b3          	sub	a5,a4,a6
    50d8:	012f3f33          	sltu	t5,t5,s2
    50dc:	41e78633          	sub	a2,a5,t5
    50e0:	4485                	li	s1,1
    50e2:	bcd1                	j	4bb6 <__adddf3+0xae>
    50e4:	050e                	slli	a0,a0,0x3
    50e6:	01d71793          	slli	a5,a4,0x1d
    50ea:	810d                	srli	a0,a0,0x3
    50ec:	00f568b3          	or	a7,a0,a5
    50f0:	84f2                	mv	s1,t3
    50f2:	00375793          	srli	a5,a4,0x3
    50f6:	b315                	j	4e1a <__adddf3+0x312>
    50f8:	050e                	slli	a0,a0,0x3
    50fa:	01d71793          	slli	a5,a4,0x1d
    50fe:	810d                	srli	a0,a0,0x3
    5100:	00a7e8b3          	or	a7,a5,a0
    5104:	00375793          	srli	a5,a4,0x3
    5108:	bb29                	j	4e22 <__adddf3+0x31a>
    510a:	7ff00793          	li	a5,2047
    510e:	d4f682e3          	beq	a3,a5,4e52 <__adddf3+0x34a>
    5112:	01ff0933          	add	s2,t5,t6
    5116:	01e93633          	sltu	a2,s2,t5
    511a:	010707b3          	add	a5,a4,a6
    511e:	97b2                	add	a5,a5,a2
    5120:	01f79893          	slli	a7,a5,0x1f
    5124:	00195913          	srli	s2,s2,0x1
    5128:	0128e933          	or	s2,a7,s2
    512c:	0017d613          	srli	a2,a5,0x1
    5130:	84b6                	mv	s1,a3
    5132:	b9c1                	j	4e02 <__adddf3+0x2fa>
    5134:	41ef8933          	sub	s2,t6,t5
    5138:	40e80733          	sub	a4,a6,a4
    513c:	012fb633          	sltu	a2,t6,s2
    5140:	40c70433          	sub	s0,a4,a2
    5144:	89f6                	mv	s3,t4
    5146:	b449                	j	4bc8 <__adddf3+0xc0>
    5148:	01e76933          	or	s2,a4,t5
    514c:	01203933          	snez	s2,s2
    5150:	bd01                	j	4f60 <__adddf3+0x458>
    5152:	fe058793          	addi	a5,a1,-32
    5156:	02000693          	li	a3,32
    515a:	00f757b3          	srl	a5,a4,a5
    515e:	00d58a63          	beq	a1,a3,5172 <__adddf3+0x66a>
    5162:	04000693          	li	a3,64
    5166:	40b685b3          	sub	a1,a3,a1
    516a:	00b71733          	sll	a4,a4,a1
    516e:	00ef6f33          	or	t5,t5,a4
    5172:	01e03933          	snez	s2,t5
    5176:	00f96933          	or	s2,s2,a5
    517a:	bd55                	j	502e <__adddf3+0x526>
    517c:	00361793          	slli	a5,a2,0x3
    5180:	838d                	srli	a5,a5,0x3
    5182:	01d81893          	slli	a7,a6,0x1d
    5186:	0117e8b3          	or	a7,a5,a7
    518a:	00385793          	srli	a5,a6,0x3
    518e:	b1ed                	j	4e78 <__adddf3+0x370>
    5190:	00c968b3          	or	a7,s2,a2
    5194:	c60897e3          	bnez	a7,4e02 <__adddf3+0x2fa>
    5198:	4781                	li	a5,0
    519a:	4981                	li	s3,0
    519c:	b159                	j	4e22 <__adddf3+0x31a>
    519e:	41ef8933          	sub	s2,t6,t5
    51a2:	40e807b3          	sub	a5,a6,a4
    51a6:	012fb633          	sltu	a2,t6,s2
    51aa:	40c78633          	sub	a2,a5,a2
    51ae:	89f6                	mv	s3,t4
    51b0:	4485                	li	s1,1
    51b2:	b411                	j	4bb6 <__adddf3+0xae>
    51b4:	00361693          	slli	a3,a2,0x3
    51b8:	01d81793          	slli	a5,a6,0x1d
    51bc:	828d                	srli	a3,a3,0x3
    51be:	00d7e8b3          	or	a7,a5,a3
    51c2:	00385793          	srli	a5,a6,0x3
    51c6:	b9b1                	j	4e22 <__adddf3+0x31a>
    51c8:	00361693          	slli	a3,a2,0x3
    51cc:	01d81793          	slli	a5,a6,0x1d
    51d0:	828d                	srli	a3,a3,0x3
    51d2:	00d7e8b3          	or	a7,a5,a3
    51d6:	84aa                	mv	s1,a0
    51d8:	00385793          	srli	a5,a6,0x3
    51dc:	b93d                	j	4e1a <__adddf3+0x312>
    51de:	fe050793          	addi	a5,a0,-32
    51e2:	02000693          	li	a3,32
    51e6:	00f757b3          	srl	a5,a4,a5
    51ea:	00d50a63          	beq	a0,a3,51fe <__adddf3+0x6f6>
    51ee:	04000693          	li	a3,64
    51f2:	40a68533          	sub	a0,a3,a0
    51f6:	00a71733          	sll	a4,a4,a0
    51fa:	00ef6f33          	or	t5,t5,a4
    51fe:	01e03933          	snez	s2,t5
    5202:	00f96933          	or	s2,s2,a5
    5206:	bba9                	j	4f60 <__adddf3+0x458>
    5208:	4581                	li	a1,0
    520a:	7ff00513          	li	a0,2047
    520e:	000807b7          	lui	a5,0x80
    5212:	bca9                	j	4c6c <__adddf3+0x164>
    5214:	01ff0933          	add	s2,t5,t6
    5218:	010707b3          	add	a5,a4,a6
    521c:	01f93633          	sltu	a2,s2,t6
    5220:	963e                	add	a2,a2,a5
    5222:	b375                	j	4fce <__adddf3+0x4c6>
    5224:	00361693          	slli	a3,a2,0x3
    5228:	01d81793          	slli	a5,a6,0x1d
    522c:	828d                	srli	a3,a3,0x3
    522e:	00d7e8b3          	or	a7,a5,a3
    5232:	00385793          	srli	a5,a6,0x3
    5236:	b189                	j	4e78 <__adddf3+0x370>

00005238 <__divdf3>:
__divdf3():
    5238:	7139                	addi	sp,sp,-64
    523a:	0145d793          	srli	a5,a1,0x14
    523e:	dc22                	sw	s0,56(sp)
    5240:	d84a                	sw	s2,48(sp)
    5242:	d256                	sw	s5,36(sp)
    5244:	892a                	mv	s2,a0
    5246:	00c59413          	slli	s0,a1,0xc
    524a:	de06                	sw	ra,60(sp)
    524c:	da26                	sw	s1,52(sp)
    524e:	d64e                	sw	s3,44(sp)
    5250:	d452                	sw	s4,40(sp)
    5252:	d05a                	sw	s6,32(sp)
    5254:	ce5e                	sw	s7,28(sp)
    5256:	7ff7f513          	andi	a0,a5,2047
    525a:	8031                	srli	s0,s0,0xc
    525c:	01f5da93          	srli	s5,a1,0x1f
    5260:	10050b63          	beqz	a0,5376 <__divdf3+0x13e>
    5264:	7ff00793          	li	a5,2047
    5268:	14f50b63          	beq	a0,a5,53be <__divdf3+0x186>
    526c:	01d95a13          	srli	s4,s2,0x1d
    5270:	040e                	slli	s0,s0,0x3
    5272:	008a6433          	or	s0,s4,s0
    5276:	00800a37          	lui	s4,0x800
    527a:	01446a33          	or	s4,s0,s4
    527e:	00391b13          	slli	s6,s2,0x3
    5282:	c0150493          	addi	s1,a0,-1023
    5286:	4401                	li	s0,0
    5288:	4b81                	li	s7,0
    528a:	0146d813          	srli	a6,a3,0x14
    528e:	00c69913          	slli	s2,a3,0xc
    5292:	7ff87813          	andi	a6,a6,2047
    5296:	88b2                	mv	a7,a2
    5298:	00c95913          	srli	s2,s2,0xc
    529c:	01f6d993          	srli	s3,a3,0x1f
    52a0:	08080e63          	beqz	a6,533c <__divdf3+0x104>
    52a4:	7ff00793          	li	a5,2047
    52a8:	04f80063          	beq	a6,a5,52e8 <__divdf3+0xb0>
    52ac:	01d65713          	srli	a4,a2,0x1d
    52b0:	090e                	slli	s2,s2,0x3
    52b2:	01276933          	or	s2,a4,s2
    52b6:	c0180813          	addi	a6,a6,-1023 # ffc01 <_data_lma+0xf572d>
    52ba:	008007b7          	lui	a5,0x800
    52be:	00f96733          	or	a4,s2,a5
    52c2:	00361893          	slli	a7,a2,0x3
    52c6:	410484b3          	sub	s1,s1,a6
    52ca:	4581                	li	a1,0
    52cc:	47bd                	li	a5,15
    52ce:	013ac833          	xor	a6,s5,s3
    52d2:	1a87e463          	bltu	a5,s0,547a <__divdf3+0x242>
    52d6:	00005797          	auipc	a5,0x5
    52da:	d5678793          	addi	a5,a5,-682 # a02c <MyUSBQUADescHD+0xc8>
    52de:	040a                	slli	s0,s0,0x2
    52e0:	943e                	add	s0,s0,a5
    52e2:	4010                	lw	a2,0(s0)
    52e4:	963e                	add	a2,a2,a5
    52e6:	8602                	jr	a2
    52e8:	00c96733          	or	a4,s2,a2
    52ec:	80148493          	addi	s1,s1,-2047
    52f0:	10071263          	bnez	a4,53f4 <__divdf3+0x1bc>
    52f4:	00246413          	ori	s0,s0,2
    52f8:	4881                	li	a7,0
    52fa:	4589                	li	a1,2
    52fc:	bfc1                	j	52cc <__divdf3+0x94>
    52fe:	7ff00613          	li	a2,2047
    5302:	4781                	li	a5,0
    5304:	4701                	li	a4,0
    5306:	07b2                	slli	a5,a5,0xc
    5308:	50f2                	lw	ra,60(sp)
    530a:	5462                	lw	s0,56(sp)
    530c:	0652                	slli	a2,a2,0x14
    530e:	83b1                	srli	a5,a5,0xc
    5310:	087e                	slli	a6,a6,0x1f
    5312:	8fd1                	or	a5,a5,a2
    5314:	0107e7b3          	or	a5,a5,a6
    5318:	54d2                	lw	s1,52(sp)
    531a:	5942                	lw	s2,48(sp)
    531c:	59b2                	lw	s3,44(sp)
    531e:	5a22                	lw	s4,40(sp)
    5320:	5a92                	lw	s5,36(sp)
    5322:	5b02                	lw	s6,32(sp)
    5324:	4bf2                	lw	s7,28(sp)
    5326:	853a                	mv	a0,a4
    5328:	85be                	mv	a1,a5
    532a:	6121                	addi	sp,sp,64
    532c:	8082                	ret
    532e:	4801                	li	a6,0
    5330:	7ff00613          	li	a2,2047
    5334:	000807b7          	lui	a5,0x80
    5338:	4701                	li	a4,0
    533a:	b7f1                	j	5306 <__divdf3+0xce>
    533c:	00c96733          	or	a4,s2,a2
    5340:	c74d                	beqz	a4,53ea <__divdf3+0x1b2>
    5342:	30090863          	beqz	s2,5652 <__divdf3+0x41a>
    5346:	854a                	mv	a0,s2
    5348:	c432                	sw	a2,8(sp)
    534a:	28c010ef          	jal	ra,65d6 <__clzsi2>
    534e:	4622                	lw	a2,8(sp)
    5350:	ff550713          	addi	a4,a0,-11
    5354:	47f5                	li	a5,29
    5356:	ff850693          	addi	a3,a0,-8
    535a:	8f99                	sub	a5,a5,a4
    535c:	00d91933          	sll	s2,s2,a3
    5360:	00f657b3          	srl	a5,a2,a5
    5364:	0127e733          	or	a4,a5,s2
    5368:	00d618b3          	sll	a7,a2,a3
    536c:	9526                	add	a0,a0,s1
    536e:	3f350493          	addi	s1,a0,1011
    5372:	4581                	li	a1,0
    5374:	bfa1                	j	52cc <__divdf3+0x94>
    5376:	01246a33          	or	s4,s0,s2
    537a:	060a0363          	beqz	s4,53e0 <__divdf3+0x1a8>
    537e:	c636                	sw	a3,12(sp)
    5380:	c432                	sw	a2,8(sp)
    5382:	2a040663          	beqz	s0,562e <__divdf3+0x3f6>
    5386:	8522                	mv	a0,s0
    5388:	24e010ef          	jal	ra,65d6 <__clzsi2>
    538c:	4622                	lw	a2,8(sp)
    538e:	46b2                	lw	a3,12(sp)
    5390:	84aa                	mv	s1,a0
    5392:	ff550713          	addi	a4,a0,-11
    5396:	4a75                	li	s4,29
    5398:	ff848b13          	addi	s6,s1,-8
    539c:	40ea0a33          	sub	s4,s4,a4
    53a0:	01641433          	sll	s0,s0,s6
    53a4:	01495a33          	srl	s4,s2,s4
    53a8:	008a6a33          	or	s4,s4,s0
    53ac:	01691b33          	sll	s6,s2,s6
    53b0:	c0d00513          	li	a0,-1011
    53b4:	409504b3          	sub	s1,a0,s1
    53b8:	4401                	li	s0,0
    53ba:	4b81                	li	s7,0
    53bc:	b5f9                	j	528a <__divdf3+0x52>
    53be:	01246a33          	or	s4,s0,s2
    53c2:	000a1863          	bnez	s4,53d2 <__divdf3+0x19a>
    53c6:	4421                	li	s0,8
    53c8:	4b01                	li	s6,0
    53ca:	7ff00493          	li	s1,2047
    53ce:	4b89                	li	s7,2
    53d0:	bd6d                	j	528a <__divdf3+0x52>
    53d2:	8a22                	mv	s4,s0
    53d4:	8b4a                	mv	s6,s2
    53d6:	4431                	li	s0,12
    53d8:	7ff00493          	li	s1,2047
    53dc:	4b8d                	li	s7,3
    53de:	b575                	j	528a <__divdf3+0x52>
    53e0:	4411                	li	s0,4
    53e2:	4b01                	li	s6,0
    53e4:	4481                	li	s1,0
    53e6:	4b85                	li	s7,1
    53e8:	b54d                	j	528a <__divdf3+0x52>
    53ea:	00146413          	ori	s0,s0,1
    53ee:	4881                	li	a7,0
    53f0:	4585                	li	a1,1
    53f2:	bde9                	j	52cc <__divdf3+0x94>
    53f4:	00346413          	ori	s0,s0,3
    53f8:	874a                	mv	a4,s2
    53fa:	458d                	li	a1,3
    53fc:	bdc1                	j	52cc <__divdf3+0x94>
    53fe:	2e050a63          	beqz	a0,56f2 <__divdf3+0x4ba>
    5402:	4785                	li	a5,1
    5404:	8f89                	sub	a5,a5,a0
    5406:	03800693          	li	a3,56
    540a:	32f6dd63          	bge	a3,a5,5744 <__divdf3+0x50c>
    540e:	4601                	li	a2,0
    5410:	4781                	li	a5,0
    5412:	4701                	li	a4,0
    5414:	bdcd                	j	5306 <__divdf3+0xce>
    5416:	86ce                	mv	a3,s3
    5418:	4789                	li	a5,2
    541a:	3af58d63          	beq	a1,a5,57d4 <__divdf3+0x59c>
    541e:	478d                	li	a5,3
    5420:	f0f587e3          	beq	a1,a5,532e <__divdf3+0xf6>
    5424:	4785                	li	a5,1
    5426:	8836                	mv	a6,a3
    5428:	fef583e3          	beq	a1,a5,540e <__divdf3+0x1d6>
    542c:	3ff48513          	addi	a0,s1,1023
    5430:	fca057e3          	blez	a0,53fe <__divdf3+0x1c6>
    5434:	0078f793          	andi	a5,a7,7
    5438:	28079663          	bnez	a5,56c4 <__divdf3+0x48c>
    543c:	0038d693          	srli	a3,a7,0x3
    5440:	00771793          	slli	a5,a4,0x7
    5444:	0007d863          	bgez	a5,5454 <__divdf3+0x21c>
    5448:	ff0007b7          	lui	a5,0xff000
    544c:	17fd                	addi	a5,a5,-1
    544e:	8f7d                	and	a4,a4,a5
    5450:	40048513          	addi	a0,s1,1024
    5454:	7fe00793          	li	a5,2046
    5458:	eaa7c3e3          	blt	a5,a0,52fe <__divdf3+0xc6>
    545c:	01d71613          	slli	a2,a4,0x1d
    5460:	00971793          	slli	a5,a4,0x9
    5464:	83b1                	srli	a5,a5,0xc
    5466:	00d66733          	or	a4,a2,a3
    546a:	7ff57613          	andi	a2,a0,2047
    546e:	bd61                	j	5306 <__divdf3+0xce>
    5470:	86d6                	mv	a3,s5
    5472:	8752                	mv	a4,s4
    5474:	88da                	mv	a7,s6
    5476:	85de                	mv	a1,s7
    5478:	b745                	j	5418 <__divdf3+0x1e0>
    547a:	23476163          	bltu	a4,s4,569c <__divdf3+0x464>
    547e:	20ea0d63          	beq	s4,a4,5698 <__divdf3+0x460>
    5482:	86da                	mv	a3,s6
    5484:	14fd                	addi	s1,s1,-1
    5486:	8452                	mv	s0,s4
    5488:	4b01                	li	s6,0
    548a:	00871793          	slli	a5,a4,0x8
    548e:	0188d313          	srli	t1,a7,0x18
    5492:	00f36333          	or	t1,t1,a5
    5496:	01035e93          	srli	t4,t1,0x10
    549a:	03d457b3          	divu	a5,s0,t4
    549e:	01031f13          	slli	t5,t1,0x10
    54a2:	010f5f13          	srli	t5,t5,0x10
    54a6:	0106d593          	srli	a1,a3,0x10
    54aa:	00889e13          	slli	t3,a7,0x8
    54ae:	03d47433          	remu	s0,s0,t4
    54b2:	02ff0733          	mul	a4,t5,a5
    54b6:	0442                	slli	s0,s0,0x10
    54b8:	8dc1                	or	a1,a1,s0
    54ba:	00e5fb63          	bgeu	a1,a4,54d0 <__divdf3+0x298>
    54be:	959a                	add	a1,a1,t1
    54c0:	fff78613          	addi	a2,a5,-1 # feffffff <_eusrstack+0xdefeffff>
    54c4:	2665ee63          	bltu	a1,t1,5740 <__divdf3+0x508>
    54c8:	26e5fc63          	bgeu	a1,a4,5740 <__divdf3+0x508>
    54cc:	17f9                	addi	a5,a5,-2
    54ce:	959a                	add	a1,a1,t1
    54d0:	8d99                	sub	a1,a1,a4
    54d2:	03d5d733          	divu	a4,a1,t4
    54d6:	06c2                	slli	a3,a3,0x10
    54d8:	82c1                	srli	a3,a3,0x10
    54da:	03d5f5b3          	remu	a1,a1,t4
    54de:	02ef0633          	mul	a2,t5,a4
    54e2:	05c2                	slli	a1,a1,0x10
    54e4:	8dd5                	or	a1,a1,a3
    54e6:	00c5fb63          	bgeu	a1,a2,54fc <__divdf3+0x2c4>
    54ea:	959a                	add	a1,a1,t1
    54ec:	fff70693          	addi	a3,a4,-1 # 7fffff <_data_lma+0x7f5b2b>
    54f0:	2465e663          	bltu	a1,t1,573c <__divdf3+0x504>
    54f4:	24c5f463          	bgeu	a1,a2,573c <__divdf3+0x504>
    54f8:	1779                	addi	a4,a4,-2
    54fa:	959a                	add	a1,a1,t1
    54fc:	07c2                	slli	a5,a5,0x10
    54fe:	6441                	lui	s0,0x10
    5500:	8f5d                	or	a4,a4,a5
    5502:	fff40793          	addi	a5,s0,-1 # ffff <_data_lma+0x5b2b>
    5506:	00f77533          	and	a0,a4,a5
    550a:	01075893          	srli	a7,a4,0x10
    550e:	010e5f93          	srli	t6,t3,0x10
    5512:	00fe77b3          	and	a5,t3,a5
    5516:	02f502b3          	mul	t0,a0,a5
    551a:	40c586b3          	sub	a3,a1,a2
    551e:	02f883b3          	mul	t2,a7,a5
    5522:	0102d593          	srli	a1,t0,0x10
    5526:	02af8633          	mul	a2,t6,a0
    552a:	961e                	add	a2,a2,t2
    552c:	962e                	add	a2,a2,a1
    552e:	03f88533          	mul	a0,a7,t6
    5532:	00767363          	bgeu	a2,t2,5538 <__divdf3+0x300>
    5536:	9522                	add	a0,a0,s0
    5538:	68c1                	lui	a7,0x10
    553a:	18fd                	addi	a7,a7,-1
    553c:	01065593          	srli	a1,a2,0x10
    5540:	01167633          	and	a2,a2,a7
    5544:	0642                	slli	a2,a2,0x10
    5546:	0112f8b3          	and	a7,t0,a7
    554a:	95aa                	add	a1,a1,a0
    554c:	9646                	add	a2,a2,a7
    554e:	12b6e663          	bltu	a3,a1,567a <__divdf3+0x442>
    5552:	12b68263          	beq	a3,a1,5676 <__divdf3+0x43e>
    5556:	40cb0633          	sub	a2,s6,a2
    555a:	8e8d                	sub	a3,a3,a1
    555c:	00cb3b33          	sltu	s6,s6,a2
    5560:	41668b33          	sub	s6,a3,s6
    5564:	3ff48513          	addi	a0,s1,1023
    5568:	17630c63          	beq	t1,s6,56e0 <__divdf3+0x4a8>
    556c:	03db58b3          	divu	a7,s6,t4
    5570:	01065593          	srli	a1,a2,0x10
    5574:	03db7b33          	remu	s6,s6,t4
    5578:	031f06b3          	mul	a3,t5,a7
    557c:	0b42                	slli	s6,s6,0x10
    557e:	0165eb33          	or	s6,a1,s6
    5582:	00db7b63          	bgeu	s6,a3,5598 <__divdf3+0x360>
    5586:	9b1a                	add	s6,s6,t1
    5588:	fff88593          	addi	a1,a7,-1 # ffff <_data_lma+0x5b2b>
    558c:	206b6d63          	bltu	s6,t1,57a6 <__divdf3+0x56e>
    5590:	20db7b63          	bgeu	s6,a3,57a6 <__divdf3+0x56e>
    5594:	18f9                	addi	a7,a7,-2
    5596:	9b1a                	add	s6,s6,t1
    5598:	40db0b33          	sub	s6,s6,a3
    559c:	03db56b3          	divu	a3,s6,t4
    55a0:	0642                	slli	a2,a2,0x10
    55a2:	8241                	srli	a2,a2,0x10
    55a4:	03db7b33          	remu	s6,s6,t4
    55a8:	02df0f33          	mul	t5,t5,a3
    55ac:	0b42                	slli	s6,s6,0x10
    55ae:	01666633          	or	a2,a2,s6
    55b2:	01e67b63          	bgeu	a2,t5,55c8 <__divdf3+0x390>
    55b6:	961a                	add	a2,a2,t1
    55b8:	fff68593          	addi	a1,a3,-1 # 7fffff <_data_lma+0x7f5b2b>
    55bc:	1e666763          	bltu	a2,t1,57aa <__divdf3+0x572>
    55c0:	1fe67563          	bgeu	a2,t5,57aa <__divdf3+0x572>
    55c4:	16f9                	addi	a3,a3,-2
    55c6:	961a                	add	a2,a2,t1
    55c8:	08c2                	slli	a7,a7,0x10
    55ca:	00d8e8b3          	or	a7,a7,a3
    55ce:	01089593          	slli	a1,a7,0x10
    55d2:	0108d293          	srli	t0,a7,0x10
    55d6:	81c1                	srli	a1,a1,0x10
    55d8:	02f58eb3          	mul	t4,a1,a5
    55dc:	41e60633          	sub	a2,a2,t5
    55e0:	02bf85b3          	mul	a1,t6,a1
    55e4:	010ed693          	srli	a3,t4,0x10
    55e8:	02f287b3          	mul	a5,t0,a5
    55ec:	95be                	add	a1,a1,a5
    55ee:	96ae                	add	a3,a3,a1
    55f0:	025f8fb3          	mul	t6,t6,t0
    55f4:	00f6f463          	bgeu	a3,a5,55fc <__divdf3+0x3c4>
    55f8:	67c1                	lui	a5,0x10
    55fa:	9fbe                	add	t6,t6,a5
    55fc:	65c1                	lui	a1,0x10
    55fe:	15fd                	addi	a1,a1,-1
    5600:	0106d793          	srli	a5,a3,0x10
    5604:	8eed                	and	a3,a3,a1
    5606:	06c2                	slli	a3,a3,0x10
    5608:	00befeb3          	and	t4,t4,a1
    560c:	9fbe                	add	t6,t6,a5
    560e:	96f6                	add	a3,a3,t4
    5610:	09f67f63          	bgeu	a2,t6,56ae <__divdf3+0x476>
    5614:	961a                	add	a2,a2,t1
    5616:	fff88793          	addi	a5,a7,-1
    561a:	1a666963          	bltu	a2,t1,57cc <__divdf3+0x594>
    561e:	19f66863          	bltu	a2,t6,57ae <__divdf3+0x576>
    5622:	1bf60f63          	beq	a2,t6,57e0 <__divdf3+0x5a8>
    5626:	88be                	mv	a7,a5
    5628:	0018e893          	ori	a7,a7,1
    562c:	b511                	j	5430 <__divdf3+0x1f8>
    562e:	854a                	mv	a0,s2
    5630:	7a7000ef          	jal	ra,65d6 <__clzsi2>
    5634:	01550713          	addi	a4,a0,21
    5638:	45f1                	li	a1,28
    563a:	02050493          	addi	s1,a0,32
    563e:	4622                	lw	a2,8(sp)
    5640:	46b2                	lw	a3,12(sp)
    5642:	d4e5dae3          	bge	a1,a4,5396 <__divdf3+0x15e>
    5646:	ff850413          	addi	s0,a0,-8
    564a:	00891a33          	sll	s4,s2,s0
    564e:	4b01                	li	s6,0
    5650:	b385                	j	53b0 <__divdf3+0x178>
    5652:	8532                	mv	a0,a2
    5654:	c432                	sw	a2,8(sp)
    5656:	781000ef          	jal	ra,65d6 <__clzsi2>
    565a:	01550713          	addi	a4,a0,21
    565e:	46f1                	li	a3,28
    5660:	87aa                	mv	a5,a0
    5662:	4622                	lw	a2,8(sp)
    5664:	02050513          	addi	a0,a0,32
    5668:	cee6d6e3          	bge	a3,a4,5354 <__divdf3+0x11c>
    566c:	17e1                	addi	a5,a5,-8
    566e:	00f61733          	sll	a4,a2,a5
    5672:	4881                	li	a7,0
    5674:	b9e5                	j	536c <__divdf3+0x134>
    5676:	eecb70e3          	bgeu	s6,a2,5556 <__divdf3+0x31e>
    567a:	9b72                	add	s6,s6,t3
    567c:	01cb3533          	sltu	a0,s6,t3
    5680:	951a                	add	a0,a0,t1
    5682:	96aa                	add	a3,a3,a0
    5684:	fff70513          	addi	a0,a4,-1
    5688:	02d37863          	bgeu	t1,a3,56b8 <__divdf3+0x480>
    568c:	10b6e663          	bltu	a3,a1,5798 <__divdf3+0x560>
    5690:	10d58263          	beq	a1,a3,5794 <__divdf3+0x55c>
    5694:	872a                	mv	a4,a0
    5696:	b5c1                	j	5556 <__divdf3+0x31e>
    5698:	df1b65e3          	bltu	s6,a7,5482 <__divdf3+0x24a>
    569c:	001b5593          	srli	a1,s6,0x1
    56a0:	01fa1693          	slli	a3,s4,0x1f
    56a4:	001a5413          	srli	s0,s4,0x1
    56a8:	8ecd                	or	a3,a3,a1
    56aa:	0b7e                	slli	s6,s6,0x1f
    56ac:	bbf9                	j	548a <__divdf3+0x252>
    56ae:	f7f61de3          	bne	a2,t6,5628 <__divdf3+0x3f0>
    56b2:	d6068fe3          	beqz	a3,5430 <__divdf3+0x1f8>
    56b6:	bfb9                	j	5614 <__divdf3+0x3dc>
    56b8:	fcd31ee3          	bne	t1,a3,5694 <__divdf3+0x45c>
    56bc:	fdcb78e3          	bgeu	s6,t3,568c <__divdf3+0x454>
    56c0:	872a                	mv	a4,a0
    56c2:	bd51                	j	5556 <__divdf3+0x31e>
    56c4:	00f8f793          	andi	a5,a7,15
    56c8:	4691                	li	a3,4
    56ca:	d6d789e3          	beq	a5,a3,543c <__divdf3+0x204>
    56ce:	ffc8b793          	sltiu	a5,a7,-4
    56d2:	00488693          	addi	a3,a7,4
    56d6:	0017c793          	xori	a5,a5,1
    56da:	828d                	srli	a3,a3,0x3
    56dc:	973e                	add	a4,a4,a5
    56de:	b38d                	j	5440 <__divdf3+0x208>
    56e0:	4681                	li	a3,0
    56e2:	4785                	li	a5,1
    56e4:	fea04ce3          	bgtz	a0,56dc <__divdf3+0x4a4>
    56e8:	58fd                	li	a7,-1
    56ea:	d0051ce3          	bnez	a0,5402 <__divdf3+0x1ca>
    56ee:	c0100493          	li	s1,-1023
    56f2:	4785                	li	a5,1
    56f4:	41e48513          	addi	a0,s1,1054
    56f8:	00a716b3          	sll	a3,a4,a0
    56fc:	00f8d633          	srl	a2,a7,a5
    5700:	00a89533          	sll	a0,a7,a0
    5704:	8ed1                	or	a3,a3,a2
    5706:	00a03533          	snez	a0,a0
    570a:	8ec9                	or	a3,a3,a0
    570c:	0076f613          	andi	a2,a3,7
    5710:	00f75733          	srl	a4,a4,a5
    5714:	ce01                	beqz	a2,572c <__divdf3+0x4f4>
    5716:	00f6f793          	andi	a5,a3,15
    571a:	4611                	li	a2,4
    571c:	00c78863          	beq	a5,a2,572c <__divdf3+0x4f4>
    5720:	00468793          	addi	a5,a3,4
    5724:	00d7b6b3          	sltu	a3,a5,a3
    5728:	9736                	add	a4,a4,a3
    572a:	86be                	mv	a3,a5
    572c:	00871793          	slli	a5,a4,0x8
    5730:	0407d863          	bgez	a5,5780 <__divdf3+0x548>
    5734:	4605                	li	a2,1
    5736:	4781                	li	a5,0
    5738:	4701                	li	a4,0
    573a:	b6f1                	j	5306 <__divdf3+0xce>
    573c:	8736                	mv	a4,a3
    573e:	bb7d                	j	54fc <__divdf3+0x2c4>
    5740:	87b2                	mv	a5,a2
    5742:	b379                	j	54d0 <__divdf3+0x298>
    5744:	46fd                	li	a3,31
    5746:	faf6d7e3          	bge	a3,a5,56f4 <__divdf3+0x4bc>
    574a:	5605                	li	a2,-31
    574c:	8e09                	sub	a2,a2,a0
    574e:	02000693          	li	a3,32
    5752:	00c75633          	srl	a2,a4,a2
    5756:	00d78863          	beq	a5,a3,5766 <__divdf3+0x52e>
    575a:	43e48793          	addi	a5,s1,1086
    575e:	00f717b3          	sll	a5,a4,a5
    5762:	00f8e8b3          	or	a7,a7,a5
    5766:	011036b3          	snez	a3,a7
    576a:	8ed1                	or	a3,a3,a2
    576c:	0076f613          	andi	a2,a3,7
    5770:	4781                	li	a5,0
    5772:	ce01                	beqz	a2,578a <__divdf3+0x552>
    5774:	00f6f793          	andi	a5,a3,15
    5778:	4611                	li	a2,4
    577a:	4701                	li	a4,0
    577c:	fac792e3          	bne	a5,a2,5720 <__divdf3+0x4e8>
    5780:	00971793          	slli	a5,a4,0x9
    5784:	01d71613          	slli	a2,a4,0x1d
    5788:	83b1                	srli	a5,a5,0xc
    578a:	0036d713          	srli	a4,a3,0x3
    578e:	8f51                	or	a4,a4,a2
    5790:	4601                	li	a2,0
    5792:	be95                	j	5306 <__divdf3+0xce>
    5794:	f0cb70e3          	bgeu	s6,a2,5694 <__divdf3+0x45c>
    5798:	9b72                	add	s6,s6,t3
    579a:	01cb3533          	sltu	a0,s6,t3
    579e:	951a                	add	a0,a0,t1
    57a0:	1779                	addi	a4,a4,-2
    57a2:	96aa                	add	a3,a3,a0
    57a4:	bb4d                	j	5556 <__divdf3+0x31e>
    57a6:	88ae                	mv	a7,a1
    57a8:	bbc5                	j	5598 <__divdf3+0x360>
    57aa:	86ae                	mv	a3,a1
    57ac:	bd31                	j	55c8 <__divdf3+0x390>
    57ae:	001e1793          	slli	a5,t3,0x1
    57b2:	01c7be33          	sltu	t3,a5,t3
    57b6:	9372                	add	t1,t1,t3
    57b8:	961a                	add	a2,a2,t1
    57ba:	18f9                	addi	a7,a7,-2
    57bc:	8e3e                	mv	t3,a5
    57be:	e7f615e3          	bne	a2,t6,5628 <__divdf3+0x3f0>
    57c2:	c6de07e3          	beq	t3,a3,5430 <__divdf3+0x1f8>
    57c6:	0018e893          	ori	a7,a7,1
    57ca:	b19d                	j	5430 <__divdf3+0x1f8>
    57cc:	88be                	mv	a7,a5
    57ce:	fff60ae3          	beq	a2,t6,57c2 <__divdf3+0x58a>
    57d2:	bd99                	j	5628 <__divdf3+0x3f0>
    57d4:	8836                	mv	a6,a3
    57d6:	7ff00613          	li	a2,2047
    57da:	4781                	li	a5,0
    57dc:	4701                	li	a4,0
    57de:	b625                	j	5306 <__divdf3+0xce>
    57e0:	fcde67e3          	bltu	t3,a3,57ae <__divdf3+0x576>
    57e4:	88be                	mv	a7,a5
    57e6:	fede10e3          	bne	t3,a3,57c6 <__divdf3+0x58e>
    57ea:	b199                	j	5430 <__divdf3+0x1f8>

000057ec <__eqdf2>:
__eqdf2():
    57ec:	0145d713          	srli	a4,a1,0x14
    57f0:	001007b7          	lui	a5,0x100
    57f4:	17fd                	addi	a5,a5,-1
    57f6:	0146d813          	srli	a6,a3,0x14
    57fa:	7ff77713          	andi	a4,a4,2047
    57fe:	7ff00893          	li	a7,2047
    5802:	00b7fe33          	and	t3,a5,a1
    5806:	8eaa                	mv	t4,a0
    5808:	8ff5                	and	a5,a5,a3
    580a:	81fd                	srli	a1,a1,0x1f
    580c:	8f32                	mv	t5,a2
    580e:	7ff87813          	andi	a6,a6,2047
    5812:	82fd                	srli	a3,a3,0x1f
    5814:	01170b63          	beq	a4,a7,582a <__eqdf2+0x3e>
    5818:	4305                	li	t1,1
    581a:	01180663          	beq	a6,a7,5826 <__eqdf2+0x3a>
    581e:	01071463          	bne	a4,a6,5826 <__eqdf2+0x3a>
    5822:	00fe0d63          	beq	t3,a5,583c <__eqdf2+0x50>
    5826:	851a                	mv	a0,t1
    5828:	8082                	ret
    582a:	00ae68b3          	or	a7,t3,a0
    582e:	4305                	li	t1,1
    5830:	fe089be3          	bnez	a7,5826 <__eqdf2+0x3a>
    5834:	fee819e3          	bne	a6,a4,5826 <__eqdf2+0x3a>
    5838:	8fd1                	or	a5,a5,a2
    583a:	f7f5                	bnez	a5,5826 <__eqdf2+0x3a>
    583c:	4305                	li	t1,1
    583e:	ffee94e3          	bne	t4,t5,5826 <__eqdf2+0x3a>
    5842:	4301                	li	t1,0
    5844:	fed581e3          	beq	a1,a3,5826 <__eqdf2+0x3a>
    5848:	4305                	li	t1,1
    584a:	ff71                	bnez	a4,5826 <__eqdf2+0x3a>
    584c:	00ae6533          	or	a0,t3,a0
    5850:	00a03333          	snez	t1,a0
    5854:	bfc9                	j	5826 <__eqdf2+0x3a>

00005856 <__ledf2>:
__ltdf2():
    5856:	0145d713          	srli	a4,a1,0x14
    585a:	001007b7          	lui	a5,0x100
    585e:	17fd                	addi	a5,a5,-1
    5860:	0146d813          	srli	a6,a3,0x14
    5864:	7ff77713          	andi	a4,a4,2047
    5868:	7ff00893          	li	a7,2047
    586c:	00b7fe33          	and	t3,a5,a1
    5870:	8eaa                	mv	t4,a0
    5872:	8ff5                	and	a5,a5,a3
    5874:	81fd                	srli	a1,a1,0x1f
    5876:	8f32                	mv	t5,a2
    5878:	7ff87813          	andi	a6,a6,2047
    587c:	82fd                	srli	a3,a3,0x1f
    587e:	03170e63          	beq	a4,a7,58ba <__ledf2+0x64>
    5882:	01180d63          	beq	a6,a7,589c <__ledf2+0x46>
    5886:	e329                	bnez	a4,58c8 <__ledf2+0x72>
    5888:	00ae68b3          	or	a7,t3,a0
    588c:	00081f63          	bnez	a6,58aa <__ledf2+0x54>
    5890:	8e5d                	or	a2,a2,a5
    5892:	ee01                	bnez	a2,58aa <__ledf2+0x54>
    5894:	4301                	li	t1,0
    5896:	04088c63          	beqz	a7,58ee <__ledf2+0x98>
    589a:	a821                	j	58b2 <__ledf2+0x5c>
    589c:	00c7e8b3          	or	a7,a5,a2
    58a0:	4309                	li	t1,2
    58a2:	04089663          	bnez	a7,58ee <__ledf2+0x98>
    58a6:	d36d                	beqz	a4,5888 <__ledf2+0x32>
    58a8:	a005                	j	58c8 <__ledf2+0x72>
    58aa:	04088463          	beqz	a7,58f2 <__ledf2+0x9c>
    58ae:	02d58563          	beq	a1,a3,58d8 <__ledf2+0x82>
    58b2:	4305                	li	t1,1
    58b4:	cd8d                	beqz	a1,58ee <__ledf2+0x98>
    58b6:	537d                	li	t1,-1
    58b8:	a81d                	j	58ee <__ledf2+0x98>
    58ba:	00ae68b3          	or	a7,t3,a0
    58be:	4309                	li	t1,2
    58c0:	02089763          	bnez	a7,58ee <__ledf2+0x98>
    58c4:	02e80a63          	beq	a6,a4,58f8 <__ledf2+0xa2>
    58c8:	00081463          	bnez	a6,58d0 <__ledf2+0x7a>
    58cc:	8e5d                	or	a2,a2,a5
    58ce:	d275                	beqz	a2,58b2 <__ledf2+0x5c>
    58d0:	fed591e3          	bne	a1,a3,58b2 <__ledf2+0x5c>
    58d4:	fce84fe3          	blt	a6,a4,58b2 <__ledf2+0x5c>
    58d8:	01074963          	blt	a4,a6,58ea <__ledf2+0x94>
    58dc:	fdc7ebe3          	bltu	a5,t3,58b2 <__ledf2+0x5c>
    58e0:	00fe0f63          	beq	t3,a5,58fe <__ledf2+0xa8>
    58e4:	4301                	li	t1,0
    58e6:	00fe7463          	bgeu	t3,a5,58ee <__ledf2+0x98>
    58ea:	d5f1                	beqz	a1,58b6 <__ledf2+0x60>
    58ec:	4305                	li	t1,1
    58ee:	851a                	mv	a0,t1
    58f0:	8082                	ret
    58f2:	feed                	bnez	a3,58ec <__ledf2+0x96>
    58f4:	537d                	li	t1,-1
    58f6:	bfe5                	j	58ee <__ledf2+0x98>
    58f8:	8e5d                	or	a2,a2,a5
    58fa:	da79                	beqz	a2,58d0 <__ledf2+0x7a>
    58fc:	bfcd                	j	58ee <__ledf2+0x98>
    58fe:	fbdf6ae3          	bltu	t5,t4,58b2 <__ledf2+0x5c>
    5902:	4301                	li	t1,0
    5904:	ffeef5e3          	bgeu	t4,t5,58ee <__ledf2+0x98>
    5908:	f1f5                	bnez	a1,58ec <__ledf2+0x96>
    590a:	b775                	j	58b6 <__ledf2+0x60>

0000590c <__muldf3>:
__muldf3():
    590c:	7139                	addi	sp,sp,-64
    590e:	d84a                	sw	s2,48(sp)
    5910:	0145d913          	srli	s2,a1,0x14
    5914:	d64e                	sw	s3,44(sp)
    5916:	d452                	sw	s4,40(sp)
    5918:	d256                	sw	s5,36(sp)
    591a:	00c59993          	slli	s3,a1,0xc
    591e:	de06                	sw	ra,60(sp)
    5920:	dc22                	sw	s0,56(sp)
    5922:	da26                	sw	s1,52(sp)
    5924:	d05a                	sw	s6,32(sp)
    5926:	ce5e                	sw	s7,28(sp)
    5928:	7ff97913          	andi	s2,s2,2047
    592c:	8a2a                	mv	s4,a0
    592e:	00c9d993          	srli	s3,s3,0xc
    5932:	01f5da93          	srli	s5,a1,0x1f
    5936:	0e090d63          	beqz	s2,5a30 <__muldf3+0x124>
    593a:	7ff00793          	li	a5,2047
    593e:	18f90663          	beq	s2,a5,5aca <__muldf3+0x1be>
    5942:	01d55413          	srli	s0,a0,0x1d
    5946:	098e                	slli	s3,s3,0x3
    5948:	013469b3          	or	s3,s0,s3
    594c:	00800437          	lui	s0,0x800
    5950:	0089e433          	or	s0,s3,s0
    5954:	00351493          	slli	s1,a0,0x3
    5958:	c0190913          	addi	s2,s2,-1023
    595c:	4981                	li	s3,0
    595e:	4b81                	li	s7,0
    5960:	0146d713          	srli	a4,a3,0x14
    5964:	00c69a13          	slli	s4,a3,0xc
    5968:	7ff77713          	andi	a4,a4,2047
    596c:	85b2                	mv	a1,a2
    596e:	00ca5a13          	srli	s4,s4,0xc
    5972:	01f6db13          	srli	s6,a3,0x1f
    5976:	10070b63          	beqz	a4,5a8c <__muldf3+0x180>
    597a:	7ff00793          	li	a5,2047
    597e:	04f70363          	beq	a4,a5,59c4 <__muldf3+0xb8>
    5982:	01d65793          	srli	a5,a2,0x1d
    5986:	0a0e                	slli	s4,s4,0x3
    5988:	0147ea33          	or	s4,a5,s4
    598c:	c0170713          	addi	a4,a4,-1023
    5990:	008007b7          	lui	a5,0x800
    5994:	00fa67b3          	or	a5,s4,a5
    5998:	00361593          	slli	a1,a2,0x3
    599c:	993a                	add	s2,s2,a4
    599e:	4881                	li	a7,0
    59a0:	016ac733          	xor	a4,s5,s6
    59a4:	46bd                	li	a3,15
    59a6:	853a                	mv	a0,a4
    59a8:	00190813          	addi	a6,s2,1
    59ac:	1736e863          	bltu	a3,s3,5b1c <__muldf3+0x210>
    59b0:	00004617          	auipc	a2,0x4
    59b4:	6bc60613          	addi	a2,a2,1724 # a06c <MyUSBQUADescHD+0x108>
    59b8:	098a                	slli	s3,s3,0x2
    59ba:	99b2                	add	s3,s3,a2
    59bc:	0009a683          	lw	a3,0(s3)
    59c0:	96b2                	add	a3,a3,a2
    59c2:	8682                	jr	a3
    59c4:	00ca67b3          	or	a5,s4,a2
    59c8:	7ff90913          	addi	s2,s2,2047
    59cc:	12079963          	bnez	a5,5afe <__muldf3+0x1f2>
    59d0:	0029e993          	ori	s3,s3,2
    59d4:	4581                	li	a1,0
    59d6:	4889                	li	a7,2
    59d8:	b7e1                	j	59a0 <__muldf3+0x94>
    59da:	4701                	li	a4,0
    59dc:	7ff00793          	li	a5,2047
    59e0:	00080437          	lui	s0,0x80
    59e4:	4481                	li	s1,0
    59e6:	0432                	slli	s0,s0,0xc
    59e8:	07d2                	slli	a5,a5,0x14
    59ea:	8031                	srli	s0,s0,0xc
    59ec:	077e                	slli	a4,a4,0x1f
    59ee:	8c5d                	or	s0,s0,a5
    59f0:	8c59                	or	s0,s0,a4
    59f2:	85a2                	mv	a1,s0
    59f4:	50f2                	lw	ra,60(sp)
    59f6:	5462                	lw	s0,56(sp)
    59f8:	8526                	mv	a0,s1
    59fa:	5942                	lw	s2,48(sp)
    59fc:	54d2                	lw	s1,52(sp)
    59fe:	59b2                	lw	s3,44(sp)
    5a00:	5a22                	lw	s4,40(sp)
    5a02:	5a92                	lw	s5,36(sp)
    5a04:	5b02                	lw	s6,32(sp)
    5a06:	4bf2                	lw	s7,28(sp)
    5a08:	6121                	addi	sp,sp,64
    5a0a:	8082                	ret
    5a0c:	855a                	mv	a0,s6
    5a0e:	843e                	mv	s0,a5
    5a10:	84ae                	mv	s1,a1
    5a12:	8bc6                	mv	s7,a7
    5a14:	4789                	li	a5,2
    5a16:	0efb8d63          	beq	s7,a5,5b10 <__muldf3+0x204>
    5a1a:	478d                	li	a5,3
    5a1c:	fafb8fe3          	beq	s7,a5,59da <__muldf3+0xce>
    5a20:	4785                	li	a5,1
    5a22:	872a                	mv	a4,a0
    5a24:	38fb9e63          	bne	s7,a5,5dc0 <__muldf3+0x4b4>
    5a28:	4781                	li	a5,0
    5a2a:	4401                	li	s0,0
    5a2c:	4481                	li	s1,0
    5a2e:	bf65                	j	59e6 <__muldf3+0xda>
    5a30:	00a9e433          	or	s0,s3,a0
    5a34:	c061                	beqz	s0,5af4 <__muldf3+0x1e8>
    5a36:	c636                	sw	a3,12(sp)
    5a38:	c432                	sw	a2,8(sp)
    5a3a:	2a098c63          	beqz	s3,5cf2 <__muldf3+0x3e6>
    5a3e:	854e                	mv	a0,s3
    5a40:	397000ef          	jal	ra,65d6 <__clzsi2>
    5a44:	4622                	lw	a2,8(sp)
    5a46:	46b2                	lw	a3,12(sp)
    5a48:	87aa                	mv	a5,a0
    5a4a:	ff550713          	addi	a4,a0,-11
    5a4e:	4475                	li	s0,29
    5a50:	ff878493          	addi	s1,a5,-8 # 7ffff8 <_data_lma+0x7f5b24>
    5a54:	8c19                	sub	s0,s0,a4
    5a56:	009999b3          	sll	s3,s3,s1
    5a5a:	008a5433          	srl	s0,s4,s0
    5a5e:	01346433          	or	s0,s0,s3
    5a62:	009a14b3          	sll	s1,s4,s1
    5a66:	0146d713          	srli	a4,a3,0x14
    5a6a:	c0d00913          	li	s2,-1011
    5a6e:	00c69a13          	slli	s4,a3,0xc
    5a72:	7ff77713          	andi	a4,a4,2047
    5a76:	40f90933          	sub	s2,s2,a5
    5a7a:	4981                	li	s3,0
    5a7c:	4b81                	li	s7,0
    5a7e:	85b2                	mv	a1,a2
    5a80:	00ca5a13          	srli	s4,s4,0xc
    5a84:	01f6db13          	srli	s6,a3,0x1f
    5a88:	ee0719e3          	bnez	a4,597a <__muldf3+0x6e>
    5a8c:	00ca67b3          	or	a5,s4,a2
    5a90:	c7b1                	beqz	a5,5adc <__muldf3+0x1d0>
    5a92:	220a0f63          	beqz	s4,5cd0 <__muldf3+0x3c4>
    5a96:	8552                	mv	a0,s4
    5a98:	c432                	sw	a2,8(sp)
    5a9a:	33d000ef          	jal	ra,65d6 <__clzsi2>
    5a9e:	4622                	lw	a2,8(sp)
    5aa0:	872a                	mv	a4,a0
    5aa2:	ff550693          	addi	a3,a0,-11
    5aa6:	47f5                	li	a5,29
    5aa8:	ff870593          	addi	a1,a4,-8
    5aac:	8f95                	sub	a5,a5,a3
    5aae:	00ba1a33          	sll	s4,s4,a1
    5ab2:	00f657b3          	srl	a5,a2,a5
    5ab6:	0147e7b3          	or	a5,a5,s4
    5aba:	00b615b3          	sll	a1,a2,a1
    5abe:	40e90933          	sub	s2,s2,a4
    5ac2:	c0d90913          	addi	s2,s2,-1011
    5ac6:	4881                	li	a7,0
    5ac8:	bde1                	j	59a0 <__muldf3+0x94>
    5aca:	00a9e433          	or	s0,s3,a0
    5ace:	ec01                	bnez	s0,5ae6 <__muldf3+0x1da>
    5ad0:	49a1                	li	s3,8
    5ad2:	4481                	li	s1,0
    5ad4:	7ff00913          	li	s2,2047
    5ad8:	4b89                	li	s7,2
    5ada:	b559                	j	5960 <__muldf3+0x54>
    5adc:	0019e993          	ori	s3,s3,1
    5ae0:	4581                	li	a1,0
    5ae2:	4885                	li	a7,1
    5ae4:	bd75                	j	59a0 <__muldf3+0x94>
    5ae6:	844e                	mv	s0,s3
    5ae8:	84aa                	mv	s1,a0
    5aea:	49b1                	li	s3,12
    5aec:	7ff00913          	li	s2,2047
    5af0:	4b8d                	li	s7,3
    5af2:	b5bd                	j	5960 <__muldf3+0x54>
    5af4:	4991                	li	s3,4
    5af6:	4481                	li	s1,0
    5af8:	4901                	li	s2,0
    5afa:	4b85                	li	s7,1
    5afc:	b595                	j	5960 <__muldf3+0x54>
    5afe:	0039e993          	ori	s3,s3,3
    5b02:	87d2                	mv	a5,s4
    5b04:	488d                	li	a7,3
    5b06:	bd69                	j	59a0 <__muldf3+0x94>
    5b08:	4789                	li	a5,2
    5b0a:	8556                	mv	a0,s5
    5b0c:	f0fb97e3          	bne	s7,a5,5a1a <__muldf3+0x10e>
    5b10:	872a                	mv	a4,a0
    5b12:	7ff00793          	li	a5,2047
    5b16:	4401                	li	s0,0
    5b18:	4481                	li	s1,0
    5b1a:	b5f1                	j	59e6 <__muldf3+0xda>
    5b1c:	6ec1                	lui	t4,0x10
    5b1e:	fffe8613          	addi	a2,t4,-1 # ffff <_data_lma+0x5b2b>
    5b22:	0104d693          	srli	a3,s1,0x10
    5b26:	0105de13          	srli	t3,a1,0x10
    5b2a:	8cf1                	and	s1,s1,a2
    5b2c:	8df1                	and	a1,a1,a2
    5b2e:	02958633          	mul	a2,a1,s1
    5b32:	02b68333          	mul	t1,a3,a1
    5b36:	01065893          	srli	a7,a2,0x10
    5b3a:	029e0533          	mul	a0,t3,s1
    5b3e:	951a                	add	a0,a0,t1
    5b40:	98aa                	add	a7,a7,a0
    5b42:	03c682b3          	mul	t0,a3,t3
    5b46:	0068f363          	bgeu	a7,t1,5b4c <__muldf3+0x240>
    5b4a:	92f6                	add	t0,t0,t4
    5b4c:	6fc1                	lui	t6,0x10
    5b4e:	ffff8313          	addi	t1,t6,-1 # ffff <_data_lma+0x5b2b>
    5b52:	0067f533          	and	a0,a5,t1
    5b56:	0107d393          	srli	t2,a5,0x10
    5b5a:	0068f7b3          	and	a5,a7,t1
    5b5e:	07c2                	slli	a5,a5,0x10
    5b60:	00667333          	and	t1,a2,t1
    5b64:	933e                	add	t1,t1,a5
    5b66:	02950633          	mul	a2,a0,s1
    5b6a:	0108d893          	srli	a7,a7,0x10
    5b6e:	02a687b3          	mul	a5,a3,a0
    5b72:	01065f13          	srli	t5,a2,0x10
    5b76:	029384b3          	mul	s1,t2,s1
    5b7a:	94be                	add	s1,s1,a5
    5b7c:	94fa                	add	s1,s1,t5
    5b7e:	02768eb3          	mul	t4,a3,t2
    5b82:	00f4f363          	bgeu	s1,a5,5b88 <__muldf3+0x27c>
    5b86:	9efe                	add	t4,t4,t6
    5b88:	6a41                	lui	s4,0x10
    5b8a:	fffa0793          	addi	a5,s4,-1 # ffff <_data_lma+0x5b2b>
    5b8e:	01045f93          	srli	t6,s0,0x10
    5b92:	00f476b3          	and	a3,s0,a5
    5b96:	00f4f9b3          	and	s3,s1,a5
    5b9a:	8e7d                	and	a2,a2,a5
    5b9c:	80c1                	srli	s1,s1,0x10
    5b9e:	02d58433          	mul	s0,a1,a3
    5ba2:	09c2                	slli	s3,s3,0x10
    5ba4:	01d48f33          	add	t5,s1,t4
    5ba8:	99b2                	add	s3,s3,a2
    5baa:	98ce                	add	a7,a7,s3
    5bac:	02de07b3          	mul	a5,t3,a3
    5bb0:	01045e93          	srli	t4,s0,0x10
    5bb4:	02bf85b3          	mul	a1,t6,a1
    5bb8:	97ae                	add	a5,a5,a1
    5bba:	9ebe                	add	t4,t4,a5
    5bbc:	03fe0e33          	mul	t3,t3,t6
    5bc0:	00bef363          	bgeu	t4,a1,5bc6 <__muldf3+0x2ba>
    5bc4:	9e52                	add	t3,t3,s4
    5bc6:	67c1                	lui	a5,0x10
    5bc8:	fff78593          	addi	a1,a5,-1 # ffff <_data_lma+0x5b2b>
    5bcc:	00bef633          	and	a2,t4,a1
    5bd0:	8c6d                	and	s0,s0,a1
    5bd2:	0642                	slli	a2,a2,0x10
    5bd4:	9622                	add	a2,a2,s0
    5bd6:	010ede93          	srli	t4,t4,0x10
    5bda:	02d505b3          	mul	a1,a0,a3
    5bde:	9e76                	add	t3,t3,t4
    5be0:	02af8533          	mul	a0,t6,a0
    5be4:	0105d413          	srli	s0,a1,0x10
    5be8:	02d386b3          	mul	a3,t2,a3
    5bec:	96aa                	add	a3,a3,a0
    5bee:	96a2                	add	a3,a3,s0
    5bf0:	03f38fb3          	mul	t6,t2,t6
    5bf4:	00a6f363          	bgeu	a3,a0,5bfa <__muldf3+0x2ee>
    5bf8:	9fbe                	add	t6,t6,a5
    5bfa:	6541                	lui	a0,0x10
    5bfc:	157d                	addi	a0,a0,-1
    5bfe:	00a6f7b3          	and	a5,a3,a0
    5c02:	07c2                	slli	a5,a5,0x10
    5c04:	8d6d                	and	a0,a0,a1
    5c06:	97aa                	add	a5,a5,a0
    5c08:	005885b3          	add	a1,a7,t0
    5c0c:	0135b9b3          	sltu	s3,a1,s3
    5c10:	97fa                	add	a5,a5,t5
    5c12:	95b2                	add	a1,a1,a2
    5c14:	01378433          	add	s0,a5,s3
    5c18:	00c5b633          	sltu	a2,a1,a2
    5c1c:	01c40eb3          	add	t4,s0,t3
    5c20:	00ce8533          	add	a0,t4,a2
    5c24:	01343433          	sltu	s0,s0,s3
    5c28:	01e7b7b3          	sltu	a5,a5,t5
    5c2c:	8fc1                	or	a5,a5,s0
    5c2e:	01cebe33          	sltu	t3,t4,t3
    5c32:	0106d413          	srli	s0,a3,0x10
    5c36:	00c53633          	sltu	a2,a0,a2
    5c3a:	943e                	add	s0,s0,a5
    5c3c:	00ce6633          	or	a2,t3,a2
    5c40:	00959493          	slli	s1,a1,0x9
    5c44:	9432                	add	s0,s0,a2
    5c46:	947e                	add	s0,s0,t6
    5c48:	0064e4b3          	or	s1,s1,t1
    5c4c:	0426                	slli	s0,s0,0x9
    5c4e:	01755693          	srli	a3,a0,0x17
    5c52:	009034b3          	snez	s1,s1
    5c56:	81dd                	srli	a1,a1,0x17
    5c58:	00951793          	slli	a5,a0,0x9
    5c5c:	8ccd                	or	s1,s1,a1
    5c5e:	8c55                	or	s0,s0,a3
    5c60:	8cdd                	or	s1,s1,a5
    5c62:	00741793          	slli	a5,s0,0x7
    5c66:	0007db63          	bgez	a5,5c7c <__muldf3+0x370>
    5c6a:	0014d793          	srli	a5,s1,0x1
    5c6e:	8885                	andi	s1,s1,1
    5c70:	01f41693          	slli	a3,s0,0x1f
    5c74:	8cdd                	or	s1,s1,a5
    5c76:	8cd5                	or	s1,s1,a3
    5c78:	8005                	srli	s0,s0,0x1
    5c7a:	8942                	mv	s2,a6
    5c7c:	3ff90793          	addi	a5,s2,1023
    5c80:	08f05963          	blez	a5,5d12 <__muldf3+0x406>
    5c84:	0074f693          	andi	a3,s1,7
    5c88:	ce81                	beqz	a3,5ca0 <__muldf3+0x394>
    5c8a:	00f4f693          	andi	a3,s1,15
    5c8e:	4611                	li	a2,4
    5c90:	00c68863          	beq	a3,a2,5ca0 <__muldf3+0x394>
    5c94:	00448693          	addi	a3,s1,4
    5c98:	0096b4b3          	sltu	s1,a3,s1
    5c9c:	9426                	add	s0,s0,s1
    5c9e:	84b6                	mv	s1,a3
    5ca0:	00741693          	slli	a3,s0,0x7
    5ca4:	0006d863          	bgez	a3,5cb4 <__muldf3+0x3a8>
    5ca8:	ff0007b7          	lui	a5,0xff000
    5cac:	17fd                	addi	a5,a5,-1
    5cae:	8c7d                	and	s0,s0,a5
    5cb0:	40090793          	addi	a5,s2,1024
    5cb4:	7fe00693          	li	a3,2046
    5cb8:	0ef6cf63          	blt	a3,a5,5db6 <__muldf3+0x4aa>
    5cbc:	0034d693          	srli	a3,s1,0x3
    5cc0:	01d41493          	slli	s1,s0,0x1d
    5cc4:	0426                	slli	s0,s0,0x9
    5cc6:	8cd5                	or	s1,s1,a3
    5cc8:	8031                	srli	s0,s0,0xc
    5cca:	7ff7f793          	andi	a5,a5,2047
    5cce:	bb21                	j	59e6 <__muldf3+0xda>
    5cd0:	8532                	mv	a0,a2
    5cd2:	c432                	sw	a2,8(sp)
    5cd4:	103000ef          	jal	ra,65d6 <__clzsi2>
    5cd8:	01550693          	addi	a3,a0,21 # 10015 <_data_lma+0x5b41>
    5cdc:	47f1                	li	a5,28
    5cde:	02050713          	addi	a4,a0,32
    5ce2:	4622                	lw	a2,8(sp)
    5ce4:	dcd7d1e3          	bge	a5,a3,5aa6 <__muldf3+0x19a>
    5ce8:	1561                	addi	a0,a0,-8
    5cea:	00a617b3          	sll	a5,a2,a0
    5cee:	4581                	li	a1,0
    5cf0:	b3f9                	j	5abe <__muldf3+0x1b2>
    5cf2:	0e5000ef          	jal	ra,65d6 <__clzsi2>
    5cf6:	01550713          	addi	a4,a0,21
    5cfa:	45f1                	li	a1,28
    5cfc:	02050793          	addi	a5,a0,32
    5d00:	4622                	lw	a2,8(sp)
    5d02:	46b2                	lw	a3,12(sp)
    5d04:	d4e5d5e3          	bge	a1,a4,5a4e <__muldf3+0x142>
    5d08:	1561                	addi	a0,a0,-8
    5d0a:	00aa1433          	sll	s0,s4,a0
    5d0e:	4481                	li	s1,0
    5d10:	bb99                	j	5a66 <__muldf3+0x15a>
    5d12:	4685                	li	a3,1
    5d14:	8e9d                	sub	a3,a3,a5
    5d16:	e7b1                	bnez	a5,5d62 <__muldf3+0x456>
    5d18:	41e90913          	addi	s2,s2,1054
    5d1c:	012497b3          	sll	a5,s1,s2
    5d20:	00d4d4b3          	srl	s1,s1,a3
    5d24:	01241933          	sll	s2,s0,s2
    5d28:	00f037b3          	snez	a5,a5
    5d2c:	009964b3          	or	s1,s2,s1
    5d30:	8cdd                	or	s1,s1,a5
    5d32:	0074f793          	andi	a5,s1,7
    5d36:	00d456b3          	srl	a3,s0,a3
    5d3a:	cf81                	beqz	a5,5d52 <__muldf3+0x446>
    5d3c:	00f4f793          	andi	a5,s1,15
    5d40:	4611                	li	a2,4
    5d42:	00c78863          	beq	a5,a2,5d52 <__muldf3+0x446>
    5d46:	00448793          	addi	a5,s1,4
    5d4a:	0097b4b3          	sltu	s1,a5,s1
    5d4e:	96a6                	add	a3,a3,s1
    5d50:	84be                	mv	s1,a5
    5d52:	00869793          	slli	a5,a3,0x8
    5d56:	0407d863          	bgez	a5,5da6 <__muldf3+0x49a>
    5d5a:	4785                	li	a5,1
    5d5c:	4401                	li	s0,0
    5d5e:	4481                	li	s1,0
    5d60:	b159                	j	59e6 <__muldf3+0xda>
    5d62:	03800613          	li	a2,56
    5d66:	ccd641e3          	blt	a2,a3,5a28 <__muldf3+0x11c>
    5d6a:	467d                	li	a2,31
    5d6c:	fad656e3          	bge	a2,a3,5d18 <__muldf3+0x40c>
    5d70:	5605                	li	a2,-31
    5d72:	40f607b3          	sub	a5,a2,a5
    5d76:	02000593          	li	a1,32
    5d7a:	00f45633          	srl	a2,s0,a5
    5d7e:	00b68763          	beq	a3,a1,5d8c <__muldf3+0x480>
    5d82:	43e90913          	addi	s2,s2,1086
    5d86:	012417b3          	sll	a5,s0,s2
    5d8a:	8cdd                	or	s1,s1,a5
    5d8c:	009034b3          	snez	s1,s1
    5d90:	8cd1                	or	s1,s1,a2
    5d92:	0074f693          	andi	a3,s1,7
    5d96:	4401                	li	s0,0
    5d98:	ca99                	beqz	a3,5dae <__muldf3+0x4a2>
    5d9a:	00f4f793          	andi	a5,s1,15
    5d9e:	4611                	li	a2,4
    5da0:	4681                	li	a3,0
    5da2:	fac792e3          	bne	a5,a2,5d46 <__muldf3+0x43a>
    5da6:	00969413          	slli	s0,a3,0x9
    5daa:	8031                	srli	s0,s0,0xc
    5dac:	06f6                	slli	a3,a3,0x1d
    5dae:	808d                	srli	s1,s1,0x3
    5db0:	8cd5                	or	s1,s1,a3
    5db2:	4781                	li	a5,0
    5db4:	b90d                	j	59e6 <__muldf3+0xda>
    5db6:	7ff00793          	li	a5,2047
    5dba:	4401                	li	s0,0
    5dbc:	4481                	li	s1,0
    5dbe:	b125                	j	59e6 <__muldf3+0xda>
    5dc0:	8942                	mv	s2,a6
    5dc2:	bd6d                	j	5c7c <__muldf3+0x370>

00005dc4 <__subdf3>:
__subdf3():
    5dc4:	00100737          	lui	a4,0x100
    5dc8:	177d                	addi	a4,a4,-1
    5dca:	1101                	addi	sp,sp,-32
    5dcc:	00b77333          	and	t1,a4,a1
    5dd0:	0146d893          	srli	a7,a3,0x14
    5dd4:	8f75                	and	a4,a4,a3
    5dd6:	01d65e93          	srli	t4,a2,0x1d
    5dda:	cc22                	sw	s0,24(sp)
    5ddc:	ca26                	sw	s1,20(sp)
    5dde:	030e                	slli	t1,t1,0x3
    5de0:	0145d493          	srli	s1,a1,0x14
    5de4:	01d55793          	srli	a5,a0,0x1d
    5de8:	070e                	slli	a4,a4,0x3
    5dea:	ce06                	sw	ra,28(sp)
    5dec:	c84a                	sw	s2,16(sp)
    5dee:	c64e                	sw	s3,12(sp)
    5df0:	7ff8f893          	andi	a7,a7,2047
    5df4:	7ff00e13          	li	t3,2047
    5df8:	00eee733          	or	a4,t4,a4
    5dfc:	7ff4f493          	andi	s1,s1,2047
    5e00:	01f5d413          	srli	s0,a1,0x1f
    5e04:	0067e333          	or	t1,a5,t1
    5e08:	00351f13          	slli	t5,a0,0x3
    5e0c:	82fd                	srli	a3,a3,0x1f
    5e0e:	00361e93          	slli	t4,a2,0x3
    5e12:	17c88f63          	beq	a7,t3,5f90 <__subdf3+0x1cc>
    5e16:	0016c693          	xori	a3,a3,1
    5e1a:	411485b3          	sub	a1,s1,a7
    5e1e:	12d40463          	beq	s0,a3,5f46 <__subdf3+0x182>
    5e22:	18b05063          	blez	a1,5fa2 <__subdf3+0x1de>
    5e26:	1a088a63          	beqz	a7,5fda <__subdf3+0x216>
    5e2a:	008007b7          	lui	a5,0x800
    5e2e:	8f5d                	or	a4,a4,a5
    5e30:	57c48f63          	beq	s1,t3,63ae <__subdf3+0x5ea>
    5e34:	03800793          	li	a5,56
    5e38:	34b7c263          	blt	a5,a1,617c <__subdf3+0x3b8>
    5e3c:	47fd                	li	a5,31
    5e3e:	48b7c363          	blt	a5,a1,62c4 <__subdf3+0x500>
    5e42:	02000793          	li	a5,32
    5e46:	8f8d                	sub	a5,a5,a1
    5e48:	00bed9b3          	srl	s3,t4,a1
    5e4c:	00f71833          	sll	a6,a4,a5
    5e50:	00fe9eb3          	sll	t4,t4,a5
    5e54:	01386833          	or	a6,a6,s3
    5e58:	00b75733          	srl	a4,a4,a1
    5e5c:	01d039b3          	snez	s3,t4
    5e60:	01386833          	or	a6,a6,s3
    5e64:	40e30333          	sub	t1,t1,a4
    5e68:	410f09b3          	sub	s3,t5,a6
    5e6c:	013f37b3          	sltu	a5,t5,s3
    5e70:	40f30633          	sub	a2,t1,a5
    5e74:	00861793          	slli	a5,a2,0x8
    5e78:	2407d263          	bgez	a5,60bc <__subdf3+0x2f8>
    5e7c:	00800937          	lui	s2,0x800
    5e80:	197d                	addi	s2,s2,-1
    5e82:	01267933          	and	s2,a2,s2
    5e86:	2c090e63          	beqz	s2,6162 <__subdf3+0x39e>
    5e8a:	854a                	mv	a0,s2
    5e8c:	27a9                	jal	65d6 <__clzsi2>
    5e8e:	ff850713          	addi	a4,a0,-8
    5e92:	02000793          	li	a5,32
    5e96:	8f99                	sub	a5,a5,a4
    5e98:	00f9d7b3          	srl	a5,s3,a5
    5e9c:	00e91633          	sll	a2,s2,a4
    5ea0:	8fd1                	or	a5,a5,a2
    5ea2:	00e999b3          	sll	s3,s3,a4
    5ea6:	2a974463          	blt	a4,s1,614e <__subdf3+0x38a>
    5eaa:	8f05                	sub	a4,a4,s1
    5eac:	00170613          	addi	a2,a4,1 # 100001 <_data_lma+0xf5b2d>
    5eb0:	46fd                	li	a3,31
    5eb2:	3ac6c463          	blt	a3,a2,625a <__subdf3+0x496>
    5eb6:	02000713          	li	a4,32
    5eba:	8f11                	sub	a4,a4,a2
    5ebc:	00c9d6b3          	srl	a3,s3,a2
    5ec0:	00e99833          	sll	a6,s3,a4
    5ec4:	00e79733          	sll	a4,a5,a4
    5ec8:	8f55                	or	a4,a4,a3
    5eca:	01003833          	snez	a6,a6
    5ece:	010769b3          	or	s3,a4,a6
    5ed2:	00c7d633          	srl	a2,a5,a2
    5ed6:	4481                	li	s1,0
    5ed8:	0079f793          	andi	a5,s3,7
    5edc:	cf81                	beqz	a5,5ef4 <__subdf3+0x130>
    5ede:	00f9f693          	andi	a3,s3,15
    5ee2:	4791                	li	a5,4
    5ee4:	00f68863          	beq	a3,a5,5ef4 <__subdf3+0x130>
    5ee8:	00498693          	addi	a3,s3,4
    5eec:	0136b833          	sltu	a6,a3,s3
    5ef0:	9642                	add	a2,a2,a6
    5ef2:	89b6                	mv	s3,a3
    5ef4:	00861793          	slli	a5,a2,0x8
    5ef8:	1c07d663          	bgez	a5,60c4 <__subdf3+0x300>
    5efc:	00148713          	addi	a4,s1,1
    5f00:	7ff00793          	li	a5,2047
    5f04:	8805                	andi	s0,s0,1
    5f06:	20f70663          	beq	a4,a5,6112 <__subdf3+0x34e>
    5f0a:	ff8007b7          	lui	a5,0xff800
    5f0e:	17fd                	addi	a5,a5,-1
    5f10:	8ff1                	and	a5,a5,a2
    5f12:	01d79813          	slli	a6,a5,0x1d
    5f16:	0039d993          	srli	s3,s3,0x3
    5f1a:	07a6                	slli	a5,a5,0x9
    5f1c:	01386833          	or	a6,a6,s3
    5f20:	83b1                	srli	a5,a5,0xc
    5f22:	7ff77713          	andi	a4,a4,2047
    5f26:	00c79693          	slli	a3,a5,0xc
    5f2a:	0752                	slli	a4,a4,0x14
    5f2c:	82b1                	srli	a3,a3,0xc
    5f2e:	047e                	slli	s0,s0,0x1f
    5f30:	8ed9                	or	a3,a3,a4
    5f32:	8ec1                	or	a3,a3,s0
    5f34:	40f2                	lw	ra,28(sp)
    5f36:	4462                	lw	s0,24(sp)
    5f38:	44d2                	lw	s1,20(sp)
    5f3a:	4942                	lw	s2,16(sp)
    5f3c:	49b2                	lw	s3,12(sp)
    5f3e:	8542                	mv	a0,a6
    5f40:	85b6                	mv	a1,a3
    5f42:	6105                	addi	sp,sp,32
    5f44:	8082                	ret
    5f46:	0ab05663          	blez	a1,5ff2 <__subdf3+0x22e>
    5f4a:	12088a63          	beqz	a7,607e <__subdf3+0x2ba>
    5f4e:	008007b7          	lui	a5,0x800
    5f52:	8f5d                	or	a4,a4,a5
    5f54:	2dc48663          	beq	s1,t3,6220 <__subdf3+0x45c>
    5f58:	03800793          	li	a5,56
    5f5c:	18b7c763          	blt	a5,a1,60ea <__subdf3+0x326>
    5f60:	47fd                	li	a5,31
    5f62:	3cb7d163          	bge	a5,a1,6324 <__subdf3+0x560>
    5f66:	fe058813          	addi	a6,a1,-32 # ffe0 <_data_lma+0x5b0c>
    5f6a:	02000793          	li	a5,32
    5f6e:	010759b3          	srl	s3,a4,a6
    5f72:	00f58a63          	beq	a1,a5,5f86 <__subdf3+0x1c2>
    5f76:	04000793          	li	a5,64
    5f7a:	40b785b3          	sub	a1,a5,a1
    5f7e:	00b71733          	sll	a4,a4,a1
    5f82:	00eeeeb3          	or	t4,t4,a4
    5f86:	01d03833          	snez	a6,t4
    5f8a:	01386833          	or	a6,a6,s3
    5f8e:	a295                	j	60f2 <__subdf3+0x32e>
    5f90:	01d767b3          	or	a5,a4,t4
    5f94:	80148593          	addi	a1,s1,-2047
    5f98:	e399                	bnez	a5,5f9e <__subdf3+0x1da>
    5f9a:	0016c693          	xori	a3,a3,1
    5f9e:	04d40a63          	beq	s0,a3,5ff2 <__subdf3+0x22e>
    5fa2:	e1d1                	bnez	a1,6026 <__subdf3+0x262>
    5fa4:	00148793          	addi	a5,s1,1
    5fa8:	7fe7f793          	andi	a5,a5,2046
    5fac:	1e079863          	bnez	a5,619c <__subdf3+0x3d8>
    5fb0:	01e367b3          	or	a5,t1,t5
    5fb4:	01d76833          	or	a6,a4,t4
    5fb8:	16049263          	bnez	s1,611c <__subdf3+0x358>
    5fbc:	3c078163          	beqz	a5,637e <__subdf3+0x5ba>
    5fc0:	42081563          	bnez	a6,63ea <__subdf3+0x626>
    5fc4:	00351813          	slli	a6,a0,0x3
    5fc8:	01d31693          	slli	a3,t1,0x1d
    5fcc:	00385813          	srli	a6,a6,0x3
    5fd0:	0106e833          	or	a6,a3,a6
    5fd4:	00335793          	srli	a5,t1,0x3
    5fd8:	a219                	j	60de <__subdf3+0x31a>
    5fda:	01d767b3          	or	a5,a4,t4
    5fde:	1a078463          	beqz	a5,6186 <__subdf3+0x3c2>
    5fe2:	fff58793          	addi	a5,a1,-1
    5fe6:	3a078a63          	beqz	a5,639a <__subdf3+0x5d6>
    5fea:	23c58b63          	beq	a1,t3,6220 <__subdf3+0x45c>
    5fee:	85be                	mv	a1,a5
    5ff0:	b591                	j	5e34 <__subdf3+0x70>
    5ff2:	1c059863          	bnez	a1,61c2 <__subdf3+0x3fe>
    5ff6:	00148693          	addi	a3,s1,1
    5ffa:	7fe6f793          	andi	a5,a3,2046
    5ffe:	efc1                	bnez	a5,6096 <__subdf3+0x2d2>
    6000:	01e367b3          	or	a5,t1,t5
    6004:	34049f63          	bnez	s1,6362 <__subdf3+0x59e>
    6008:	44078c63          	beqz	a5,6460 <__subdf3+0x69c>
    600c:	01d767b3          	or	a5,a4,t4
    6010:	46079363          	bnez	a5,6476 <__subdf3+0x6b2>
    6014:	050e                	slli	a0,a0,0x3
    6016:	01d31813          	slli	a6,t1,0x1d
    601a:	810d                	srli	a0,a0,0x3
    601c:	00a86833          	or	a6,a6,a0
    6020:	00335793          	srli	a5,t1,0x3
    6024:	a86d                	j	60de <__subdf3+0x31a>
    6026:	409885b3          	sub	a1,a7,s1
    602a:	20049663          	bnez	s1,6236 <__subdf3+0x472>
    602e:	01e367b3          	or	a5,t1,t5
    6032:	30078c63          	beqz	a5,634a <__subdf3+0x586>
    6036:	fff58793          	addi	a5,a1,-1
    603a:	40078863          	beqz	a5,644a <__subdf3+0x686>
    603e:	7ff00513          	li	a0,2047
    6042:	20a58263          	beq	a1,a0,6246 <__subdf3+0x482>
    6046:	85be                	mv	a1,a5
    6048:	03800793          	li	a5,56
    604c:	2ab7c163          	blt	a5,a1,62ee <__subdf3+0x52a>
    6050:	47fd                	li	a5,31
    6052:	3cb7c763          	blt	a5,a1,6420 <__subdf3+0x65c>
    6056:	02000793          	li	a5,32
    605a:	8f8d                	sub	a5,a5,a1
    605c:	00f31833          	sll	a6,t1,a5
    6060:	00bf5633          	srl	a2,t5,a1
    6064:	00ff17b3          	sll	a5,t5,a5
    6068:	00c86833          	or	a6,a6,a2
    606c:	00f039b3          	snez	s3,a5
    6070:	00b35333          	srl	t1,t1,a1
    6074:	01386833          	or	a6,a6,s3
    6078:	40670733          	sub	a4,a4,t1
    607c:	acad                	j	62f6 <__subdf3+0x532>
    607e:	01d767b3          	or	a5,a4,t4
    6082:	10078263          	beqz	a5,6186 <__subdf3+0x3c2>
    6086:	fff58793          	addi	a5,a1,-1
    608a:	1e078e63          	beqz	a5,6286 <__subdf3+0x4c2>
    608e:	2dc58f63          	beq	a1,t3,636c <__subdf3+0x5a8>
    6092:	85be                	mv	a1,a5
    6094:	b5d1                	j	5f58 <__subdf3+0x194>
    6096:	7ff00793          	li	a5,2047
    609a:	06f68b63          	beq	a3,a5,6110 <__subdf3+0x34c>
    609e:	9efa                	add	t4,t4,t5
    60a0:	01eeb633          	sltu	a2,t4,t5
    60a4:	00e307b3          	add	a5,t1,a4
    60a8:	97b2                	add	a5,a5,a2
    60aa:	01f79813          	slli	a6,a5,0x1f
    60ae:	001ede93          	srli	t4,t4,0x1
    60b2:	01d869b3          	or	s3,a6,t4
    60b6:	0017d613          	srli	a2,a5,0x1
    60ba:	84b6                	mv	s1,a3
    60bc:	0079f793          	andi	a5,s3,7
    60c0:	e0079fe3          	bnez	a5,5ede <__subdf3+0x11a>
    60c4:	01d61793          	slli	a5,a2,0x1d
    60c8:	0039d813          	srli	a6,s3,0x3
    60cc:	00f86833          	or	a6,a6,a5
    60d0:	85a6                	mv	a1,s1
    60d2:	00365793          	srli	a5,a2,0x3
    60d6:	7ff00713          	li	a4,2047
    60da:	06e58063          	beq	a1,a4,613a <__subdf3+0x376>
    60de:	07b2                	slli	a5,a5,0xc
    60e0:	83b1                	srli	a5,a5,0xc
    60e2:	7ff5f713          	andi	a4,a1,2047
    60e6:	8805                	andi	s0,s0,1
    60e8:	bd3d                	j	5f26 <__subdf3+0x162>
    60ea:	01d76733          	or	a4,a4,t4
    60ee:	00e03833          	snez	a6,a4
    60f2:	01e809b3          	add	s3,a6,t5
    60f6:	01e9b7b3          	sltu	a5,s3,t5
    60fa:	00678633          	add	a2,a5,t1
    60fe:	00861793          	slli	a5,a2,0x8
    6102:	fa07dde3          	bgez	a5,60bc <__subdf3+0x2f8>
    6106:	0485                	addi	s1,s1,1
    6108:	7ff00793          	li	a5,2047
    610c:	18f49b63          	bne	s1,a5,62a2 <__subdf3+0x4de>
    6110:	8805                	andi	s0,s0,1
    6112:	7ff00713          	li	a4,2047
    6116:	4781                	li	a5,0
    6118:	4801                	li	a6,0
    611a:	b531                	j	5f26 <__subdf3+0x162>
    611c:	10079063          	bnez	a5,621c <__subdf3+0x458>
    6120:	3c080063          	beqz	a6,64e0 <__subdf3+0x71c>
    6124:	00361813          	slli	a6,a2,0x3
    6128:	01d71793          	slli	a5,a4,0x1d
    612c:	00385813          	srli	a6,a6,0x3
    6130:	00f86833          	or	a6,a6,a5
    6134:	8436                	mv	s0,a3
    6136:	00375793          	srli	a5,a4,0x3
    613a:	00f867b3          	or	a5,a6,a5
    613e:	dbe9                	beqz	a5,6110 <__subdf3+0x34c>
    6140:	4401                	li	s0,0
    6142:	7ff00713          	li	a4,2047
    6146:	000807b7          	lui	a5,0x80
    614a:	4801                	li	a6,0
    614c:	bbe9                	j	5f26 <__subdf3+0x162>
    614e:	ff800637          	lui	a2,0xff800
    6152:	167d                	addi	a2,a2,-1
    6154:	8e7d                	and	a2,a2,a5
    6156:	0079f793          	andi	a5,s3,7
    615a:	8c99                	sub	s1,s1,a4
    615c:	d80791e3          	bnez	a5,5ede <__subdf3+0x11a>
    6160:	b795                	j	60c4 <__subdf3+0x300>
    6162:	854e                	mv	a0,s3
    6164:	298d                	jal	65d6 <__clzsi2>
    6166:	01850713          	addi	a4,a0,24
    616a:	47fd                	li	a5,31
    616c:	d2e7d3e3          	bge	a5,a4,5e92 <__subdf3+0xce>
    6170:	ff850613          	addi	a2,a0,-8
    6174:	00c997b3          	sll	a5,s3,a2
    6178:	4981                	li	s3,0
    617a:	b335                	j	5ea6 <__subdf3+0xe2>
    617c:	01d76833          	or	a6,a4,t4
    6180:	01003833          	snez	a6,a6
    6184:	b1d5                	j	5e68 <__subdf3+0xa4>
    6186:	00351813          	slli	a6,a0,0x3
    618a:	01d31793          	slli	a5,t1,0x1d
    618e:	00385813          	srli	a6,a6,0x3
    6192:	00f86833          	or	a6,a6,a5
    6196:	00335793          	srli	a5,t1,0x3
    619a:	bf35                	j	60d6 <__subdf3+0x312>
    619c:	41df09b3          	sub	s3,t5,t4
    61a0:	40e30933          	sub	s2,t1,a4
    61a4:	013f3633          	sltu	a2,t5,s3
    61a8:	40c90933          	sub	s2,s2,a2
    61ac:	00891793          	slli	a5,s2,0x8
    61b0:	2007ca63          	bltz	a5,63c4 <__subdf3+0x600>
    61b4:	0129e833          	or	a6,s3,s2
    61b8:	cc0817e3          	bnez	a6,5e86 <__subdf3+0xc2>
    61bc:	4781                	li	a5,0
    61be:	4401                	li	s0,0
    61c0:	bf39                	j	60de <__subdf3+0x31a>
    61c2:	409885b3          	sub	a1,a7,s1
    61c6:	14048163          	beqz	s1,6308 <__subdf3+0x544>
    61ca:	008006b7          	lui	a3,0x800
    61ce:	7ff00793          	li	a5,2047
    61d2:	00d36333          	or	t1,t1,a3
    61d6:	20f88163          	beq	a7,a5,63d8 <__subdf3+0x614>
    61da:	03800793          	li	a5,56
    61de:	22b7cc63          	blt	a5,a1,6416 <__subdf3+0x652>
    61e2:	47fd                	li	a5,31
    61e4:	2cb7c963          	blt	a5,a1,64b6 <__subdf3+0x6f2>
    61e8:	02000793          	li	a5,32
    61ec:	8f8d                	sub	a5,a5,a1
    61ee:	00f31833          	sll	a6,t1,a5
    61f2:	00bf56b3          	srl	a3,t5,a1
    61f6:	00ff17b3          	sll	a5,t5,a5
    61fa:	00d86833          	or	a6,a6,a3
    61fe:	00f039b3          	snez	s3,a5
    6202:	00b35333          	srl	t1,t1,a1
    6206:	01386833          	or	a6,a6,s3
    620a:	971a                	add	a4,a4,t1
    620c:	01d809b3          	add	s3,a6,t4
    6210:	01d9b7b3          	sltu	a5,s3,t4
    6214:	00e78633          	add	a2,a5,a4
    6218:	84c6                	mv	s1,a7
    621a:	b5d5                	j	60fe <__subdf3+0x33a>
    621c:	f20812e3          	bnez	a6,6140 <__subdf3+0x37c>
    6220:	00351813          	slli	a6,a0,0x3
    6224:	01d31793          	slli	a5,t1,0x1d
    6228:	00385813          	srli	a6,a6,0x3
    622c:	00f86833          	or	a6,a6,a5
    6230:	00335793          	srli	a5,t1,0x3
    6234:	b719                	j	613a <__subdf3+0x376>
    6236:	00800537          	lui	a0,0x800
    623a:	7ff00793          	li	a5,2047
    623e:	00a36333          	or	t1,t1,a0
    6242:	e0f893e3          	bne	a7,a5,6048 <__subdf3+0x284>
    6246:	060e                	slli	a2,a2,0x3
    6248:	01d71813          	slli	a6,a4,0x1d
    624c:	820d                	srli	a2,a2,0x3
    624e:	00c86833          	or	a6,a6,a2
    6252:	00375793          	srli	a5,a4,0x3
    6256:	8436                	mv	s0,a3
    6258:	b5cd                	j	613a <__subdf3+0x376>
    625a:	1705                	addi	a4,a4,-31
    625c:	02000693          	li	a3,32
    6260:	00e7d733          	srl	a4,a5,a4
    6264:	00d60a63          	beq	a2,a3,6278 <__subdf3+0x4b4>
    6268:	04000693          	li	a3,64
    626c:	40c68633          	sub	a2,a3,a2
    6270:	00c79633          	sll	a2,a5,a2
    6274:	00c9e9b3          	or	s3,s3,a2
    6278:	01303833          	snez	a6,s3
    627c:	00e869b3          	or	s3,a6,a4
    6280:	4601                	li	a2,0
    6282:	4481                	li	s1,0
    6284:	bd25                	j	60bc <__subdf3+0x2f8>
    6286:	01df09b3          	add	s3,t5,t4
    628a:	00e307b3          	add	a5,t1,a4
    628e:	01e9bf33          	sltu	t5,s3,t5
    6292:	01e78633          	add	a2,a5,t5
    6296:	00861793          	slli	a5,a2,0x8
    629a:	4485                	li	s1,1
    629c:	e207d0e3          	bgez	a5,60bc <__subdf3+0x2f8>
    62a0:	4489                	li	s1,2
    62a2:	ff8007b7          	lui	a5,0xff800
    62a6:	17fd                	addi	a5,a5,-1
    62a8:	8ff1                	and	a5,a5,a2
    62aa:	0019d713          	srli	a4,s3,0x1
    62ae:	0019f813          	andi	a6,s3,1
    62b2:	01076833          	or	a6,a4,a6
    62b6:	01f79993          	slli	s3,a5,0x1f
    62ba:	0109e9b3          	or	s3,s3,a6
    62be:	0017d613          	srli	a2,a5,0x1
    62c2:	b919                	j	5ed8 <__subdf3+0x114>
    62c4:	fe058813          	addi	a6,a1,-32
    62c8:	02000793          	li	a5,32
    62cc:	010759b3          	srl	s3,a4,a6
    62d0:	00f58a63          	beq	a1,a5,62e4 <__subdf3+0x520>
    62d4:	04000793          	li	a5,64
    62d8:	40b785b3          	sub	a1,a5,a1
    62dc:	00b71733          	sll	a4,a4,a1
    62e0:	00eeeeb3          	or	t4,t4,a4
    62e4:	01d03833          	snez	a6,t4
    62e8:	01386833          	or	a6,a6,s3
    62ec:	beb5                	j	5e68 <__subdf3+0xa4>
    62ee:	01e36333          	or	t1,t1,t5
    62f2:	00603833          	snez	a6,t1
    62f6:	410e89b3          	sub	s3,t4,a6
    62fa:	013eb7b3          	sltu	a5,t4,s3
    62fe:	40f70633          	sub	a2,a4,a5
    6302:	84c6                	mv	s1,a7
    6304:	8436                	mv	s0,a3
    6306:	b6bd                	j	5e74 <__subdf3+0xb0>
    6308:	01e367b3          	or	a5,t1,t5
    630c:	18078763          	beqz	a5,649a <__subdf3+0x6d6>
    6310:	fff58793          	addi	a5,a1,-1
    6314:	1c078c63          	beqz	a5,64ec <__subdf3+0x728>
    6318:	7ff00693          	li	a3,2047
    631c:	0ad58e63          	beq	a1,a3,63d8 <__subdf3+0x614>
    6320:	85be                	mv	a1,a5
    6322:	bd65                	j	61da <__subdf3+0x416>
    6324:	02000793          	li	a5,32
    6328:	8f8d                	sub	a5,a5,a1
    632a:	00bed9b3          	srl	s3,t4,a1
    632e:	00f71833          	sll	a6,a4,a5
    6332:	00fe9eb3          	sll	t4,t4,a5
    6336:	01386833          	or	a6,a6,s3
    633a:	00b75733          	srl	a4,a4,a1
    633e:	01d039b3          	snez	s3,t4
    6342:	01386833          	or	a6,a6,s3
    6346:	933a                	add	t1,t1,a4
    6348:	b36d                	j	60f2 <__subdf3+0x32e>
    634a:	00361813          	slli	a6,a2,0x3
    634e:	01d71793          	slli	a5,a4,0x1d
    6352:	00385813          	srli	a6,a6,0x3
    6356:	0107e833          	or	a6,a5,a6
    635a:	8436                	mv	s0,a3
    635c:	00375793          	srli	a5,a4,0x3
    6360:	bb9d                	j	60d6 <__subdf3+0x312>
    6362:	cbbd                	beqz	a5,63d8 <__subdf3+0x614>
    6364:	01d76733          	or	a4,a4,t4
    6368:	dc071ce3          	bnez	a4,6140 <__subdf3+0x37c>
    636c:	050e                	slli	a0,a0,0x3
    636e:	01d31813          	slli	a6,t1,0x1d
    6372:	810d                	srli	a0,a0,0x3
    6374:	00a86833          	or	a6,a6,a0
    6378:	00335793          	srli	a5,t1,0x3
    637c:	bb7d                	j	613a <__subdf3+0x376>
    637e:	e2080fe3          	beqz	a6,61bc <__subdf3+0x3f8>
    6382:	00361813          	slli	a6,a2,0x3
    6386:	01d71793          	slli	a5,a4,0x1d
    638a:	00385813          	srli	a6,a6,0x3
    638e:	00f86833          	or	a6,a6,a5
    6392:	8436                	mv	s0,a3
    6394:	00375793          	srli	a5,a4,0x3
    6398:	b399                	j	60de <__subdf3+0x31a>
    639a:	41df09b3          	sub	s3,t5,t4
    639e:	40e307b3          	sub	a5,t1,a4
    63a2:	013f3f33          	sltu	t5,t5,s3
    63a6:	41e78633          	sub	a2,a5,t5
    63aa:	4485                	li	s1,1
    63ac:	b4e1                	j	5e74 <__subdf3+0xb0>
    63ae:	00351813          	slli	a6,a0,0x3
    63b2:	01d31693          	slli	a3,t1,0x1d
    63b6:	00385813          	srli	a6,a6,0x3
    63ba:	0106e833          	or	a6,a3,a6
    63be:	00335793          	srli	a5,t1,0x3
    63c2:	bba5                	j	613a <__subdf3+0x376>
    63c4:	41ee89b3          	sub	s3,t4,t5
    63c8:	40670633          	sub	a2,a4,t1
    63cc:	013eb933          	sltu	s2,t4,s3
    63d0:	41260933          	sub	s2,a2,s2
    63d4:	8436                	mv	s0,a3
    63d6:	bc45                	j	5e86 <__subdf3+0xc2>
    63d8:	060e                	slli	a2,a2,0x3
    63da:	01d71813          	slli	a6,a4,0x1d
    63de:	820d                	srli	a2,a2,0x3
    63e0:	00c86833          	or	a6,a6,a2
    63e4:	00375793          	srli	a5,a4,0x3
    63e8:	bb89                	j	613a <__subdf3+0x376>
    63ea:	41df09b3          	sub	s3,t5,t4
    63ee:	40e307b3          	sub	a5,t1,a4
    63f2:	013f3633          	sltu	a2,t5,s3
    63f6:	40c78633          	sub	a2,a5,a2
    63fa:	00861793          	slli	a5,a2,0x8
    63fe:	0a07d763          	bgez	a5,64ac <__subdf3+0x6e8>
    6402:	41ee89b3          	sub	s3,t4,t5
    6406:	406707b3          	sub	a5,a4,t1
    640a:	013ebeb3          	sltu	t4,t4,s3
    640e:	41d78633          	sub	a2,a5,t4
    6412:	8436                	mv	s0,a3
    6414:	b4d1                	j	5ed8 <__subdf3+0x114>
    6416:	01e36333          	or	t1,t1,t5
    641a:	00603833          	snez	a6,t1
    641e:	b3fd                	j	620c <__subdf3+0x448>
    6420:	fe058813          	addi	a6,a1,-32
    6424:	02000793          	li	a5,32
    6428:	010359b3          	srl	s3,t1,a6
    642c:	00f58a63          	beq	a1,a5,6440 <__subdf3+0x67c>
    6430:	04000793          	li	a5,64
    6434:	40b785b3          	sub	a1,a5,a1
    6438:	00b31333          	sll	t1,t1,a1
    643c:	006f6f33          	or	t5,t5,t1
    6440:	01e03833          	snez	a6,t5
    6444:	01386833          	or	a6,a6,s3
    6448:	b57d                	j	62f6 <__subdf3+0x532>
    644a:	41ee89b3          	sub	s3,t4,t5
    644e:	406707b3          	sub	a5,a4,t1
    6452:	013ebeb3          	sltu	t4,t4,s3
    6456:	41d78633          	sub	a2,a5,t4
    645a:	8436                	mv	s0,a3
    645c:	4485                	li	s1,1
    645e:	bc19                	j	5e74 <__subdf3+0xb0>
    6460:	00361813          	slli	a6,a2,0x3
    6464:	01d71793          	slli	a5,a4,0x1d
    6468:	00385813          	srli	a6,a6,0x3
    646c:	00f86833          	or	a6,a6,a5
    6470:	00375793          	srli	a5,a4,0x3
    6474:	b1ad                	j	60de <__subdf3+0x31a>
    6476:	01df09b3          	add	s3,t5,t4
    647a:	00e307b3          	add	a5,t1,a4
    647e:	01e9bf33          	sltu	t5,s3,t5
    6482:	01e78633          	add	a2,a5,t5
    6486:	00861793          	slli	a5,a2,0x8
    648a:	c207d9e3          	bgez	a5,60bc <__subdf3+0x2f8>
    648e:	ff8007b7          	lui	a5,0xff800
    6492:	17fd                	addi	a5,a5,-1
    6494:	8e7d                	and	a2,a2,a5
    6496:	4485                	li	s1,1
    6498:	b115                	j	60bc <__subdf3+0x2f8>
    649a:	060e                	slli	a2,a2,0x3
    649c:	01d71813          	slli	a6,a4,0x1d
    64a0:	820d                	srli	a2,a2,0x3
    64a2:	00c86833          	or	a6,a6,a2
    64a6:	00375793          	srli	a5,a4,0x3
    64aa:	b135                	j	60d6 <__subdf3+0x312>
    64ac:	00c9e833          	or	a6,s3,a2
    64b0:	d00806e3          	beqz	a6,61bc <__subdf3+0x3f8>
    64b4:	b121                	j	60bc <__subdf3+0x2f8>
    64b6:	fe058813          	addi	a6,a1,-32
    64ba:	02000793          	li	a5,32
    64be:	010359b3          	srl	s3,t1,a6
    64c2:	00f58a63          	beq	a1,a5,64d6 <__subdf3+0x712>
    64c6:	04000793          	li	a5,64
    64ca:	40b785b3          	sub	a1,a5,a1
    64ce:	00b31333          	sll	t1,t1,a1
    64d2:	006f6f33          	or	t5,t5,t1
    64d6:	01e03833          	snez	a6,t5
    64da:	01386833          	or	a6,a6,s3
    64de:	b33d                	j	620c <__subdf3+0x448>
    64e0:	4401                	li	s0,0
    64e2:	7ff00713          	li	a4,2047
    64e6:	000807b7          	lui	a5,0x80
    64ea:	bc35                	j	5f26 <__subdf3+0x162>
    64ec:	01df09b3          	add	s3,t5,t4
    64f0:	00e307b3          	add	a5,t1,a4
    64f4:	01d9beb3          	sltu	t4,s3,t4
    64f8:	01d78633          	add	a2,a5,t4
    64fc:	bb69                	j	6296 <__subdf3+0x4d2>

000064fe <__fixdfsi>:
__fixdfsi():
    64fe:	0145d793          	srli	a5,a1,0x14
    6502:	001006b7          	lui	a3,0x100
    6506:	fff68713          	addi	a4,a3,-1 # fffff <_data_lma+0xf5b2b>
    650a:	7ff7f793          	andi	a5,a5,2047
    650e:	3fe00613          	li	a2,1022
    6512:	8f6d                	and	a4,a4,a1
    6514:	81fd                	srli	a1,a1,0x1f
    6516:	00f65c63          	bge	a2,a5,652e <__fixdfsi+0x30>
    651a:	41d00613          	li	a2,1053
    651e:	00f65a63          	bge	a2,a5,6532 <__fixdfsi+0x34>
    6522:	80000537          	lui	a0,0x80000
    6526:	fff54513          	not	a0,a0
    652a:	952e                	add	a0,a0,a1
    652c:	8082                	ret
    652e:	4501                	li	a0,0
    6530:	8082                	ret
    6532:	43300613          	li	a2,1075
    6536:	8e1d                	sub	a2,a2,a5
    6538:	487d                	li	a6,31
    653a:	8f55                	or	a4,a4,a3
    653c:	00c85d63          	bge	a6,a2,6556 <__fixdfsi+0x58>
    6540:	41300693          	li	a3,1043
    6544:	40f687b3          	sub	a5,a3,a5
    6548:	00f757b3          	srl	a5,a4,a5
    654c:	40f00533          	neg	a0,a5
    6550:	f1e5                	bnez	a1,6530 <__fixdfsi+0x32>
    6552:	853e                	mv	a0,a5
    6554:	8082                	ret
    6556:	bed78793          	addi	a5,a5,-1043 # 7fbed <_data_lma+0x75719>
    655a:	00f717b3          	sll	a5,a4,a5
    655e:	00c55533          	srl	a0,a0,a2
    6562:	8fc9                	or	a5,a5,a0
    6564:	b7e5                	j	654c <__fixdfsi+0x4e>

00006566 <__floatsidf>:
__floatsidf():
    6566:	1141                	addi	sp,sp,-16
    6568:	c606                	sw	ra,12(sp)
    656a:	c422                	sw	s0,8(sp)
    656c:	c226                	sw	s1,4(sp)
    656e:	cd05                	beqz	a0,65a6 <__floatsidf+0x40>
    6570:	41f55793          	srai	a5,a0,0x1f
    6574:	00a7c4b3          	xor	s1,a5,a0
    6578:	8c9d                	sub	s1,s1,a5
    657a:	842a                	mv	s0,a0
    657c:	8526                	mv	a0,s1
    657e:	28a1                	jal	65d6 <__clzsi2>
    6580:	41e00693          	li	a3,1054
    6584:	8e89                	sub	a3,a3,a0
    6586:	47a9                	li	a5,10
    6588:	807d                	srli	s0,s0,0x1f
    658a:	7ff6f693          	andi	a3,a3,2047
    658e:	02a7cd63          	blt	a5,a0,65c8 <__floatsidf+0x62>
    6592:	472d                	li	a4,11
    6594:	8f09                	sub	a4,a4,a0
    6596:	00e4d7b3          	srl	a5,s1,a4
    659a:	0555                	addi	a0,a0,21
    659c:	07b2                	slli	a5,a5,0xc
    659e:	00a494b3          	sll	s1,s1,a0
    65a2:	83b1                	srli	a5,a5,0xc
    65a4:	a029                	j	65ae <__floatsidf+0x48>
    65a6:	4401                	li	s0,0
    65a8:	4681                	li	a3,0
    65aa:	4781                	li	a5,0
    65ac:	4481                	li	s1,0
    65ae:	07b2                	slli	a5,a5,0xc
    65b0:	06d2                	slli	a3,a3,0x14
    65b2:	83b1                	srli	a5,a5,0xc
    65b4:	047e                	slli	s0,s0,0x1f
    65b6:	8fd5                	or	a5,a5,a3
    65b8:	8fc1                	or	a5,a5,s0
    65ba:	40b2                	lw	ra,12(sp)
    65bc:	4422                	lw	s0,8(sp)
    65be:	8526                	mv	a0,s1
    65c0:	85be                	mv	a1,a5
    65c2:	4492                	lw	s1,4(sp)
    65c4:	0141                	addi	sp,sp,16
    65c6:	8082                	ret
    65c8:	1555                	addi	a0,a0,-11
    65ca:	00a497b3          	sll	a5,s1,a0
    65ce:	07b2                	slli	a5,a5,0xc
    65d0:	83b1                	srli	a5,a5,0xc
    65d2:	4481                	li	s1,0
    65d4:	bfe9                	j	65ae <__floatsidf+0x48>

000065d6 <__clzsi2>:
__clzsi2():
    65d6:	67c1                	lui	a5,0x10
    65d8:	02f57e63          	bgeu	a0,a5,6614 <__clzsi2+0x3e>
    65dc:	0ff00793          	li	a5,255
    65e0:	02000713          	li	a4,32
    65e4:	00a7ec63          	bltu	a5,a0,65fc <__clzsi2+0x26>
    65e8:	00004797          	auipc	a5,0x4
    65ec:	ac478793          	addi	a5,a5,-1340 # a0ac <__clz_tab>
    65f0:	97aa                	add	a5,a5,a0
    65f2:	0007c503          	lbu	a0,0(a5)
    65f6:	40a70533          	sub	a0,a4,a0
    65fa:	8082                	ret
    65fc:	8121                	srli	a0,a0,0x8
    65fe:	00004797          	auipc	a5,0x4
    6602:	aae78793          	addi	a5,a5,-1362 # a0ac <__clz_tab>
    6606:	97aa                	add	a5,a5,a0
    6608:	0007c503          	lbu	a0,0(a5)
    660c:	4761                	li	a4,24
    660e:	40a70533          	sub	a0,a4,a0
    6612:	8082                	ret
    6614:	010007b7          	lui	a5,0x1000
    6618:	00f56e63          	bltu	a0,a5,6634 <__clzsi2+0x5e>
    661c:	8161                	srli	a0,a0,0x18
    661e:	00004797          	auipc	a5,0x4
    6622:	a8e78793          	addi	a5,a5,-1394 # a0ac <__clz_tab>
    6626:	97aa                	add	a5,a5,a0
    6628:	0007c503          	lbu	a0,0(a5)
    662c:	4721                	li	a4,8
    662e:	40a70533          	sub	a0,a4,a0
    6632:	8082                	ret
    6634:	8141                	srli	a0,a0,0x10
    6636:	00004797          	auipc	a5,0x4
    663a:	a7678793          	addi	a5,a5,-1418 # a0ac <__clz_tab>
    663e:	97aa                	add	a5,a5,a0
    6640:	0007c503          	lbu	a0,0(a5)
    6644:	4741                	li	a4,16
    6646:	40a70533          	sub	a0,a4,a0
    664a:	8082                	ret

0000664c <memcpy>:
memcpy():
    664c:	00a5c7b3          	xor	a5,a1,a0
    6650:	8b8d                	andi	a5,a5,3
    6652:	00c50733          	add	a4,a0,a2
    6656:	e781                	bnez	a5,665e <memcpy+0x12>
    6658:	478d                	li	a5,3
    665a:	00c7ee63          	bltu	a5,a2,6676 <memcpy+0x2a>
    665e:	87aa                	mv	a5,a0
    6660:	0ae57063          	bgeu	a0,a4,6700 <memcpy+0xb4>
    6664:	0005c683          	lbu	a3,0(a1)
    6668:	0785                	addi	a5,a5,1
    666a:	0585                	addi	a1,a1,1
    666c:	fed78fa3          	sb	a3,-1(a5)
    6670:	fee7eae3          	bltu	a5,a4,6664 <memcpy+0x18>
    6674:	8082                	ret
    6676:	00357693          	andi	a3,a0,3
    667a:	87aa                	mv	a5,a0
    667c:	ca91                	beqz	a3,6690 <memcpy+0x44>
    667e:	0005c683          	lbu	a3,0(a1)
    6682:	0785                	addi	a5,a5,1
    6684:	0585                	addi	a1,a1,1
    6686:	fed78fa3          	sb	a3,-1(a5)
    668a:	0037f693          	andi	a3,a5,3
    668e:	b7fd                	j	667c <memcpy+0x30>
    6690:	ffc77693          	andi	a3,a4,-4
    6694:	fe068613          	addi	a2,a3,-32
    6698:	06c7f063          	bgeu	a5,a2,66f8 <memcpy+0xac>
    669c:	0005a383          	lw	t2,0(a1)
    66a0:	0045a283          	lw	t0,4(a1)
    66a4:	0085af83          	lw	t6,8(a1)
    66a8:	00c5af03          	lw	t5,12(a1)
    66ac:	0105ae83          	lw	t4,16(a1)
    66b0:	0145ae03          	lw	t3,20(a1)
    66b4:	0185a303          	lw	t1,24(a1)
    66b8:	01c5a883          	lw	a7,28(a1)
    66bc:	02458593          	addi	a1,a1,36
    66c0:	0077a023          	sw	t2,0(a5)
    66c4:	ffc5a803          	lw	a6,-4(a1)
    66c8:	0057a223          	sw	t0,4(a5)
    66cc:	01f7a423          	sw	t6,8(a5)
    66d0:	01e7a623          	sw	t5,12(a5)
    66d4:	01d7a823          	sw	t4,16(a5)
    66d8:	01c7aa23          	sw	t3,20(a5)
    66dc:	0067ac23          	sw	t1,24(a5)
    66e0:	0117ae23          	sw	a7,28(a5)
    66e4:	02478793          	addi	a5,a5,36
    66e8:	ff07ae23          	sw	a6,-4(a5)
    66ec:	b775                	j	6698 <memcpy+0x4c>
    66ee:	4190                	lw	a2,0(a1)
    66f0:	0791                	addi	a5,a5,4
    66f2:	0591                	addi	a1,a1,4
    66f4:	fec7ae23          	sw	a2,-4(a5)
    66f8:	fed7ebe3          	bltu	a5,a3,66ee <memcpy+0xa2>
    66fc:	f6e7e4e3          	bltu	a5,a4,6664 <memcpy+0x18>
    6700:	8082                	ret

00006702 <__cvt>:
__cvt():
    6702:	7179                	addi	sp,sp,-48
    6704:	d422                	sw	s0,40(sp)
    6706:	d04a                	sw	s2,32(sp)
    6708:	cc52                	sw	s4,24(sp)
    670a:	ca56                	sw	s5,20(sp)
    670c:	c85a                	sw	s6,16(sp)
    670e:	d606                	sw	ra,44(sp)
    6710:	d226                	sw	s1,36(sp)
    6712:	ce4e                	sw	s3,28(sp)
    6714:	8a3a                	mv	s4,a4
    6716:	8aae                	mv	s5,a1
    6718:	8432                	mv	s0,a2
    671a:	8936                	mv	s2,a3
    671c:	8b42                	mv	s6,a6
    671e:	4701                	li	a4,0
    6720:	00065863          	bgez	a2,6730 <__cvt+0x2e>
    6724:	80000737          	lui	a4,0x80000
    6728:	00c74433          	xor	s0,a4,a2
    672c:	02d00713          	li	a4,45
    6730:	00e78023          	sb	a4,0(a5)
    6734:	fdf8f493          	andi	s1,a7,-33
    6738:	04600793          	li	a5,70
    673c:	468d                	li	a3,3
    673e:	00f48863          	beq	s1,a5,674e <__cvt+0x4c>
    6742:	04500793          	li	a5,69
    6746:	4689                	li	a3,2
    6748:	00f49363          	bne	s1,a5,674e <__cvt+0x4c>
    674c:	0905                	addi	s2,s2,1
    674e:	87da                	mv	a5,s6
    6750:	00c10893          	addi	a7,sp,12
    6754:	00810813          	addi	a6,sp,8
    6758:	874a                	mv	a4,s2
    675a:	85d6                	mv	a1,s5
    675c:	8622                	mv	a2,s0
    675e:	501000ef          	jal	ra,745e <_dtoa_r>
    6762:	04700793          	li	a5,71
    6766:	89aa                	mv	s3,a0
    6768:	00f49663          	bne	s1,a5,6774 <__cvt+0x72>
    676c:	001a7a13          	andi	s4,s4,1
    6770:	040a0a63          	beqz	s4,67c4 <__cvt+0xc2>
    6774:	04600793          	li	a5,70
    6778:	01298a33          	add	s4,s3,s2
    677c:	02f49763          	bne	s1,a5,67aa <__cvt+0xa8>
    6780:	0009c703          	lbu	a4,0(s3)
    6784:	03000793          	li	a5,48
    6788:	00f71e63          	bne	a4,a5,67a4 <__cvt+0xa2>
    678c:	4601                	li	a2,0
    678e:	4681                	li	a3,0
    6790:	8556                	mv	a0,s5
    6792:	85a2                	mv	a1,s0
    6794:	858ff0ef          	jal	ra,57ec <__eqdf2>
    6798:	c511                	beqz	a0,67a4 <__cvt+0xa2>
    679a:	4785                	li	a5,1
    679c:	41278933          	sub	s2,a5,s2
    67a0:	012b2023          	sw	s2,0(s6)
    67a4:	000b2783          	lw	a5,0(s6)
    67a8:	9a3e                	add	s4,s4,a5
    67aa:	4601                	li	a2,0
    67ac:	4681                	li	a3,0
    67ae:	8556                	mv	a0,s5
    67b0:	85a2                	mv	a1,s0
    67b2:	83aff0ef          	jal	ra,57ec <__eqdf2>
    67b6:	e111                	bnez	a0,67ba <__cvt+0xb8>
    67b8:	c652                	sw	s4,12(sp)
    67ba:	03000713          	li	a4,48
    67be:	47b2                	lw	a5,12(sp)
    67c0:	0347e263          	bltu	a5,s4,67e4 <__cvt+0xe2>
    67c4:	47b2                	lw	a5,12(sp)
    67c6:	5742                	lw	a4,48(sp)
    67c8:	50b2                	lw	ra,44(sp)
    67ca:	5422                	lw	s0,40(sp)
    67cc:	413787b3          	sub	a5,a5,s3
    67d0:	c31c                	sw	a5,0(a4)
    67d2:	854e                	mv	a0,s3
    67d4:	5492                	lw	s1,36(sp)
    67d6:	5902                	lw	s2,32(sp)
    67d8:	49f2                	lw	s3,28(sp)
    67da:	4a62                	lw	s4,24(sp)
    67dc:	4ad2                	lw	s5,20(sp)
    67de:	4b42                	lw	s6,16(sp)
    67e0:	6145                	addi	sp,sp,48
    67e2:	8082                	ret
    67e4:	00178693          	addi	a3,a5,1
    67e8:	c636                	sw	a3,12(sp)
    67ea:	00e78023          	sb	a4,0(a5)
    67ee:	bfc1                	j	67be <__cvt+0xbc>

000067f0 <__exponent>:
__exponent():
    67f0:	00c50023          	sb	a2,0(a0) # 80000000 <_eusrstack+0x5fff0000>
    67f4:	00250713          	addi	a4,a0,2
    67f8:	02b00793          	li	a5,43
    67fc:	0005d663          	bgez	a1,6808 <__exponent+0x18>
    6800:	40b005b3          	neg	a1,a1
    6804:	02d00793          	li	a5,45
    6808:	00f500a3          	sb	a5,1(a0)
    680c:	47a5                	li	a5,9
    680e:	04b7da63          	bge	a5,a1,6862 <__exponent+0x72>
    6812:	1141                	addi	sp,sp,-16
    6814:	00f10793          	addi	a5,sp,15
    6818:	88be                	mv	a7,a5
    681a:	4829                	li	a6,10
    681c:	06300313          	li	t1,99
    6820:	0305e6b3          	rem	a3,a1,a6
    6824:	fff78613          	addi	a2,a5,-1
    6828:	03068693          	addi	a3,a3,48
    682c:	fed78fa3          	sb	a3,-1(a5)
    6830:	0305c6b3          	div	a3,a1,a6
    6834:	00b34d63          	blt	t1,a1,684e <__exponent+0x5e>
    6838:	03068693          	addi	a3,a3,48
    683c:	17f9                	addi	a5,a5,-2
    683e:	fed60fa3          	sb	a3,-1(a2) # ff7fffff <_eusrstack+0xdf7effff>
    6842:	0117e963          	bltu	a5,a7,6854 <__exponent+0x64>
    6846:	40a70533          	sub	a0,a4,a0
    684a:	0141                	addi	sp,sp,16
    684c:	8082                	ret
    684e:	87b2                	mv	a5,a2
    6850:	85b6                	mv	a1,a3
    6852:	b7f9                	j	6820 <__exponent+0x30>
    6854:	0785                	addi	a5,a5,1
    6856:	fff7c683          	lbu	a3,-1(a5)
    685a:	0705                	addi	a4,a4,1
    685c:	fed70fa3          	sb	a3,-1(a4) # 7fffffff <_eusrstack+0x5ffeffff>
    6860:	b7cd                	j	6842 <__exponent+0x52>
    6862:	03000793          	li	a5,48
    6866:	00450713          	addi	a4,a0,4
    686a:	03058593          	addi	a1,a1,48
    686e:	00f50123          	sb	a5,2(a0)
    6872:	00b501a3          	sb	a1,3(a0)
    6876:	40a70533          	sub	a0,a4,a0
    687a:	8082                	ret

0000687c <_printf_float>:
_printf_float():
    687c:	7119                	addi	sp,sp,-128
    687e:	ce3a                	sw	a4,28(sp)
    6880:	de86                	sw	ra,124(sp)
    6882:	dca2                	sw	s0,120(sp)
    6884:	daa6                	sw	s1,116(sp)
    6886:	842e                	mv	s0,a1
    6888:	d8ca                	sw	s2,112(sp)
    688a:	d6ce                	sw	s3,108(sp)
    688c:	d4d2                	sw	s4,104(sp)
    688e:	89b6                	mv	s3,a3
    6890:	d0da                	sw	s6,96(sp)
    6892:	cede                	sw	s7,92(sp)
    6894:	cce2                	sw	s8,88(sp)
    6896:	8932                	mv	s2,a2
    6898:	d2d6                	sw	s5,100(sp)
    689a:	cae6                	sw	s9,84(sp)
    689c:	c8ea                	sw	s10,80(sp)
    689e:	c6ee                	sw	s11,76(sp)
    68a0:	84aa                	mv	s1,a0
    68a2:	3b3010ef          	jal	ra,8454 <_localeconv_r>
    68a6:	00052b83          	lw	s7,0(a0)
    68aa:	855e                	mv	a0,s7
    68ac:	08f000ef          	jal	ra,713a <strlen>
    68b0:	00042b03          	lw	s6,0(s0) # 80000 <_data_lma+0x75b2c>
    68b4:	4772                	lw	a4,28(sp)
    68b6:	dc02                	sw	zero,56(sp)
    68b8:	100b7693          	andi	a3,s6,256
    68bc:	8c2a                	mv	s8,a0
    68be:	01844a03          	lbu	s4,24(s0)
    68c2:	431c                	lw	a5,0(a4)
    68c4:	caf1                	beqz	a3,6998 <_printf_float+0x11c>
    68c6:	00478693          	addi	a3,a5,4
    68ca:	c314                	sw	a3,0(a4)
    68cc:	439c                	lw	a5,0(a5)
    68ce:	1008                	addi	a0,sp,32
    68d0:	4398                	lw	a4,0(a5)
    68d2:	d03a                	sw	a4,32(sp)
    68d4:	43d8                	lw	a4,4(a5)
    68d6:	d23a                	sw	a4,36(sp)
    68d8:	4798                	lw	a4,8(a5)
    68da:	d43a                	sw	a4,40(sp)
    68dc:	47dc                	lw	a5,12(a5)
    68de:	d63e                	sw	a5,44(sp)
    68e0:	3df020ef          	jal	ra,94be <__trunctfdf2>
    68e4:	c428                	sw	a0,72(s0)
    68e6:	c46c                	sw	a1,76(s0)
    68e8:	04c42c83          	lw	s9,76(s0)
    68ec:	00004717          	auipc	a4,0x4
    68f0:	8c470713          	addi	a4,a4,-1852 # a1b0 <__clz_tab+0x104>
    68f4:	04842a83          	lw	s5,72(s0)
    68f8:	00072d03          	lw	s10,0(a4)
    68fc:	00472d83          	lw	s11,4(a4)
    6900:	001c9793          	slli	a5,s9,0x1
    6904:	8385                	srli	a5,a5,0x1
    6906:	866a                	mv	a2,s10
    6908:	86ee                	mv	a3,s11
    690a:	8556                	mv	a0,s5
    690c:	85be                	mv	a1,a5
    690e:	ce3e                	sw	a5,28(sp)
    6910:	30b020ef          	jal	ra,941a <__unorddf2>
    6914:	ed41                	bnez	a0,69ac <_printf_float+0x130>
    6916:	47f2                	lw	a5,28(sp)
    6918:	866a                	mv	a2,s10
    691a:	86ee                	mv	a3,s11
    691c:	8556                	mv	a0,s5
    691e:	85be                	mv	a1,a5
    6920:	f37fe0ef          	jal	ra,5856 <__ledf2>
    6924:	08a05463          	blez	a0,69ac <_printf_float+0x130>
    6928:	4601                	li	a2,0
    692a:	4681                	li	a3,0
    692c:	8556                	mv	a0,s5
    692e:	85e6                	mv	a1,s9
    6930:	f27fe0ef          	jal	ra,5856 <__ledf2>
    6934:	00055663          	bgez	a0,6940 <_printf_float+0xc4>
    6938:	02d00793          	li	a5,45
    693c:	04f401a3          	sb	a5,67(s0)
    6940:	04700793          	li	a5,71
    6944:	00004a97          	auipc	s5,0x4
    6948:	874a8a93          	addi	s5,s5,-1932 # a1b8 <__clz_tab+0x10c>
    694c:	0147f663          	bgeu	a5,s4,6958 <_printf_float+0xdc>
    6950:	00004a97          	auipc	s5,0x4
    6954:	86ca8a93          	addi	s5,s5,-1940 # a1bc <__clz_tab+0x110>
    6958:	ffbb7b13          	andi	s6,s6,-5
    695c:	478d                	li	a5,3
    695e:	01642023          	sw	s6,0(s0)
    6962:	c81c                	sw	a5,16(s0)
    6964:	4b01                	li	s6,0
    6966:	874e                	mv	a4,s3
    6968:	86ca                	mv	a3,s2
    696a:	1870                	addi	a2,sp,60
    696c:	85a2                	mv	a1,s0
    696e:	8526                	mv	a0,s1
    6970:	2ec1                	jal	6d40 <_printf_common>
    6972:	5cfd                	li	s9,-1
    6974:	15951e63          	bne	a0,s9,6ad0 <_printf_float+0x254>
    6978:	557d                	li	a0,-1
    697a:	50f6                	lw	ra,124(sp)
    697c:	5466                	lw	s0,120(sp)
    697e:	54d6                	lw	s1,116(sp)
    6980:	5946                	lw	s2,112(sp)
    6982:	59b6                	lw	s3,108(sp)
    6984:	5a26                	lw	s4,104(sp)
    6986:	5a96                	lw	s5,100(sp)
    6988:	5b06                	lw	s6,96(sp)
    698a:	4bf6                	lw	s7,92(sp)
    698c:	4c66                	lw	s8,88(sp)
    698e:	4cd6                	lw	s9,84(sp)
    6990:	4d46                	lw	s10,80(sp)
    6992:	4db6                	lw	s11,76(sp)
    6994:	6109                	addi	sp,sp,128
    6996:	8082                	ret
    6998:	079d                	addi	a5,a5,7
    699a:	9be1                	andi	a5,a5,-8
    699c:	00878693          	addi	a3,a5,8
    69a0:	c314                	sw	a3,0(a4)
    69a2:	4398                	lw	a4,0(a5)
    69a4:	43dc                	lw	a5,4(a5)
    69a6:	c438                	sw	a4,72(s0)
    69a8:	c47c                	sw	a5,76(s0)
    69aa:	bf3d                	j	68e8 <_printf_float+0x6c>
    69ac:	8656                	mv	a2,s5
    69ae:	86e6                	mv	a3,s9
    69b0:	8556                	mv	a0,s5
    69b2:	85e6                	mv	a1,s9
    69b4:	267020ef          	jal	ra,941a <__unorddf2>
    69b8:	cd11                	beqz	a0,69d4 <_printf_float+0x158>
    69ba:	04700793          	li	a5,71
    69be:	00004a97          	auipc	s5,0x4
    69c2:	802a8a93          	addi	s5,s5,-2046 # a1c0 <__clz_tab+0x114>
    69c6:	f947f9e3          	bgeu	a5,s4,6958 <_printf_float+0xdc>
    69ca:	00003a97          	auipc	s5,0x3
    69ce:	7faa8a93          	addi	s5,s5,2042 # a1c4 <__clz_tab+0x118>
    69d2:	b759                	j	6958 <_printf_float+0xdc>
    69d4:	405c                	lw	a5,4(s0)
    69d6:	577d                	li	a4,-1
    69d8:	0dfa7d13          	andi	s10,s4,223
    69dc:	08e79563          	bne	a5,a4,6a66 <_printf_float+0x1ea>
    69e0:	4799                	li	a5,6
    69e2:	c05c                	sw	a5,4(s0)
    69e4:	4054                	lw	a3,4(s0)
    69e6:	400b6713          	ori	a4,s6,1024
    69ea:	183c                	addi	a5,sp,56
    69ec:	85d6                	mv	a1,s5
    69ee:	c03e                	sw	a5,0(sp)
    69f0:	c018                	sw	a4,0(s0)
    69f2:	03310793          	addi	a5,sp,51
    69f6:	c202                	sw	zero,4(sp)
    69f8:	88d2                	mv	a7,s4
    69fa:	03410813          	addi	a6,sp,52
    69fe:	8666                	mv	a2,s9
    6a00:	8526                	mv	a0,s1
    6a02:	d01ff0ef          	jal	ra,6702 <__cvt>
    6a06:	04700793          	li	a5,71
    6a0a:	8aaa                	mv	s5,a0
    6a0c:	55d2                	lw	a1,52(sp)
    6a0e:	00fd1b63          	bne	s10,a5,6a24 <_printf_float+0x1a8>
    6a12:	57f5                	li	a5,-3
    6a14:	00f5c563          	blt	a1,a5,6a1e <_printf_float+0x1a2>
    6a18:	405c                	lw	a5,4(s0)
    6a1a:	08b7d863          	bge	a5,a1,6aaa <_printf_float+0x22e>
    6a1e:	1a79                	addi	s4,s4,-2
    6a20:	0ffa7a13          	andi	s4,s4,255
    6a24:	06500793          	li	a5,101
    6a28:	0547e663          	bltu	a5,s4,6a74 <_printf_float+0x1f8>
    6a2c:	15fd                	addi	a1,a1,-1
    6a2e:	8652                	mv	a2,s4
    6a30:	05040513          	addi	a0,s0,80
    6a34:	da2e                	sw	a1,52(sp)
    6a36:	dbbff0ef          	jal	ra,67f0 <__exponent>
    6a3a:	5762                	lw	a4,56(sp)
    6a3c:	4685                	li	a3,1
    6a3e:	8b2a                	mv	s6,a0
    6a40:	00a707b3          	add	a5,a4,a0
    6a44:	c81c                	sw	a5,16(s0)
    6a46:	00e6c563          	blt	a3,a4,6a50 <_printf_float+0x1d4>
    6a4a:	4018                	lw	a4,0(s0)
    6a4c:	8b05                	andi	a4,a4,1
    6a4e:	c319                	beqz	a4,6a54 <_printf_float+0x1d8>
    6a50:	0785                	addi	a5,a5,1
    6a52:	c81c                	sw	a5,16(s0)
    6a54:	03314783          	lbu	a5,51(sp)
    6a58:	f00787e3          	beqz	a5,6966 <_printf_float+0xea>
    6a5c:	02d00793          	li	a5,45
    6a60:	04f401a3          	sb	a5,67(s0)
    6a64:	b709                	j	6966 <_printf_float+0xea>
    6a66:	04700713          	li	a4,71
    6a6a:	f6ed1de3          	bne	s10,a4,69e4 <_printf_float+0x168>
    6a6e:	fbbd                	bnez	a5,69e4 <_printf_float+0x168>
    6a70:	4785                	li	a5,1
    6a72:	bf85                	j	69e2 <_printf_float+0x166>
    6a74:	06600793          	li	a5,102
    6a78:	02fa1b63          	bne	s4,a5,6aae <_printf_float+0x232>
    6a7c:	405c                	lw	a5,4(s0)
    6a7e:	00b05b63          	blez	a1,6a94 <_printf_float+0x218>
    6a82:	c80c                	sw	a1,16(s0)
    6a84:	e781                	bnez	a5,6a8c <_printf_float+0x210>
    6a86:	4018                	lw	a4,0(s0)
    6a88:	8b05                	andi	a4,a4,1
    6a8a:	cf09                	beqz	a4,6aa4 <_printf_float+0x228>
    6a8c:	0785                	addi	a5,a5,1
    6a8e:	97ae                	add	a5,a5,a1
    6a90:	c81c                	sw	a5,16(s0)
    6a92:	a809                	j	6aa4 <_printf_float+0x228>
    6a94:	e789                	bnez	a5,6a9e <_printf_float+0x222>
    6a96:	4018                	lw	a4,0(s0)
    6a98:	4685                	li	a3,1
    6a9a:	8b05                	andi	a4,a4,1
    6a9c:	c319                	beqz	a4,6aa2 <_printf_float+0x226>
    6a9e:	00278693          	addi	a3,a5,2
    6aa2:	c814                	sw	a3,16(s0)
    6aa4:	cc2c                	sw	a1,88(s0)
    6aa6:	4b01                	li	s6,0
    6aa8:	b775                	j	6a54 <_printf_float+0x1d8>
    6aaa:	06700a13          	li	s4,103
    6aae:	57e2                	lw	a5,56(sp)
    6ab0:	00f5c963          	blt	a1,a5,6ac2 <_printf_float+0x246>
    6ab4:	401c                	lw	a5,0(s0)
    6ab6:	c80c                	sw	a1,16(s0)
    6ab8:	8b85                	andi	a5,a5,1
    6aba:	d7ed                	beqz	a5,6aa4 <_printf_float+0x228>
    6abc:	00158793          	addi	a5,a1,1
    6ac0:	bfc1                	j	6a90 <_printf_float+0x214>
    6ac2:	4705                	li	a4,1
    6ac4:	00b04463          	bgtz	a1,6acc <_printf_float+0x250>
    6ac8:	4709                	li	a4,2
    6aca:	8f0d                	sub	a4,a4,a1
    6acc:	97ba                	add	a5,a5,a4
    6ace:	b7c9                	j	6a90 <_printf_float+0x214>
    6ad0:	401c                	lw	a5,0(s0)
    6ad2:	4007f713          	andi	a4,a5,1024
    6ad6:	e315                	bnez	a4,6afa <_printf_float+0x27e>
    6ad8:	4814                	lw	a3,16(s0)
    6ada:	8656                	mv	a2,s5
    6adc:	85ca                	mv	a1,s2
    6ade:	8526                	mv	a0,s1
    6ae0:	9982                	jalr	s3
    6ae2:	e9950be3          	beq	a0,s9,6978 <_printf_float+0xfc>
    6ae6:	401c                	lw	a5,0(s0)
    6ae8:	8b89                	andi	a5,a5,2
    6aea:	24079663          	bnez	a5,6d36 <_printf_float+0x4ba>
    6aee:	57f2                	lw	a5,60(sp)
    6af0:	4448                	lw	a0,12(s0)
    6af2:	e8f554e3          	bge	a0,a5,697a <_printf_float+0xfe>
    6af6:	853e                	mv	a0,a5
    6af8:	b549                	j	697a <_printf_float+0xfe>
    6afa:	06500713          	li	a4,101
    6afe:	19477b63          	bgeu	a4,s4,6c94 <_printf_float+0x418>
    6b02:	4428                	lw	a0,72(s0)
    6b04:	446c                	lw	a1,76(s0)
    6b06:	4601                	li	a2,0
    6b08:	4681                	li	a3,0
    6b0a:	ce3fe0ef          	jal	ra,57ec <__eqdf2>
    6b0e:	e939                	bnez	a0,6b64 <_printf_float+0x2e8>
    6b10:	4685                	li	a3,1
    6b12:	00003617          	auipc	a2,0x3
    6b16:	6b660613          	addi	a2,a2,1718 # a1c8 <__clz_tab+0x11c>
    6b1a:	85ca                	mv	a1,s2
    6b1c:	8526                	mv	a0,s1
    6b1e:	9982                	jalr	s3
    6b20:	e5950ce3          	beq	a0,s9,6978 <_printf_float+0xfc>
    6b24:	5752                	lw	a4,52(sp)
    6b26:	57e2                	lw	a5,56(sp)
    6b28:	00f74563          	blt	a4,a5,6b32 <_printf_float+0x2b6>
    6b2c:	401c                	lw	a5,0(s0)
    6b2e:	8b85                	andi	a5,a5,1
    6b30:	dbdd                	beqz	a5,6ae6 <_printf_float+0x26a>
    6b32:	86e2                	mv	a3,s8
    6b34:	865e                	mv	a2,s7
    6b36:	85ca                	mv	a1,s2
    6b38:	8526                	mv	a0,s1
    6b3a:	9982                	jalr	s3
    6b3c:	57fd                	li	a5,-1
    6b3e:	e2f50de3          	beq	a0,a5,6978 <_printf_float+0xfc>
    6b42:	4a01                	li	s4,0
    6b44:	01a40a93          	addi	s5,s0,26
    6b48:	5b7d                	li	s6,-1
    6b4a:	57e2                	lw	a5,56(sp)
    6b4c:	17fd                	addi	a5,a5,-1
    6b4e:	f8fa5ce3          	bge	s4,a5,6ae6 <_printf_float+0x26a>
    6b52:	4685                	li	a3,1
    6b54:	8656                	mv	a2,s5
    6b56:	85ca                	mv	a1,s2
    6b58:	8526                	mv	a0,s1
    6b5a:	9982                	jalr	s3
    6b5c:	e1650ee3          	beq	a0,s6,6978 <_printf_float+0xfc>
    6b60:	0a05                	addi	s4,s4,1
    6b62:	b7e5                	j	6b4a <_printf_float+0x2ce>
    6b64:	57d2                	lw	a5,52(sp)
    6b66:	06f04663          	bgtz	a5,6bd2 <_printf_float+0x356>
    6b6a:	4685                	li	a3,1
    6b6c:	00003617          	auipc	a2,0x3
    6b70:	65c60613          	addi	a2,a2,1628 # a1c8 <__clz_tab+0x11c>
    6b74:	85ca                	mv	a1,s2
    6b76:	8526                	mv	a0,s1
    6b78:	9982                	jalr	s3
    6b7a:	df950fe3          	beq	a0,s9,6978 <_printf_float+0xfc>
    6b7e:	57d2                	lw	a5,52(sp)
    6b80:	5762                	lw	a4,56(sp)
    6b82:	8fd9                	or	a5,a5,a4
    6b84:	e781                	bnez	a5,6b8c <_printf_float+0x310>
    6b86:	401c                	lw	a5,0(s0)
    6b88:	8b85                	andi	a5,a5,1
    6b8a:	dfb1                	beqz	a5,6ae6 <_printf_float+0x26a>
    6b8c:	86e2                	mv	a3,s8
    6b8e:	865e                	mv	a2,s7
    6b90:	85ca                	mv	a1,s2
    6b92:	8526                	mv	a0,s1
    6b94:	9982                	jalr	s3
    6b96:	57fd                	li	a5,-1
    6b98:	def500e3          	beq	a0,a5,6978 <_printf_float+0xfc>
    6b9c:	4a01                	li	s4,0
    6b9e:	01a40b13          	addi	s6,s0,26
    6ba2:	5bfd                	li	s7,-1
    6ba4:	57d2                	lw	a5,52(sp)
    6ba6:	40f007b3          	neg	a5,a5
    6baa:	00fa4b63          	blt	s4,a5,6bc0 <_printf_float+0x344>
    6bae:	56e2                	lw	a3,56(sp)
    6bb0:	8656                	mv	a2,s5
    6bb2:	85ca                	mv	a1,s2
    6bb4:	8526                	mv	a0,s1
    6bb6:	9982                	jalr	s3
    6bb8:	57fd                	li	a5,-1
    6bba:	f2f516e3          	bne	a0,a5,6ae6 <_printf_float+0x26a>
    6bbe:	bb6d                	j	6978 <_printf_float+0xfc>
    6bc0:	4685                	li	a3,1
    6bc2:	865a                	mv	a2,s6
    6bc4:	85ca                	mv	a1,s2
    6bc6:	8526                	mv	a0,s1
    6bc8:	9982                	jalr	s3
    6bca:	db7507e3          	beq	a0,s7,6978 <_printf_float+0xfc>
    6bce:	0a05                	addi	s4,s4,1
    6bd0:	bfd1                	j	6ba4 <_printf_float+0x328>
    6bd2:	4c3c                	lw	a5,88(s0)
    6bd4:	5a62                	lw	s4,56(sp)
    6bd6:	0147d363          	bge	a5,s4,6bdc <_printf_float+0x360>
    6bda:	8a3e                	mv	s4,a5
    6bdc:	01405a63          	blez	s4,6bf0 <_printf_float+0x374>
    6be0:	86d2                	mv	a3,s4
    6be2:	8656                	mv	a2,s5
    6be4:	85ca                	mv	a1,s2
    6be6:	8526                	mv	a0,s1
    6be8:	9982                	jalr	s3
    6bea:	57fd                	li	a5,-1
    6bec:	d8f506e3          	beq	a0,a5,6978 <_printf_float+0xfc>
    6bf0:	4c81                	li	s9,0
    6bf2:	01a40d13          	addi	s10,s0,26
    6bf6:	5dfd                	li	s11,-1
    6bf8:	a809                	j	6c0a <_printf_float+0x38e>
    6bfa:	4685                	li	a3,1
    6bfc:	866a                	mv	a2,s10
    6bfe:	85ca                	mv	a1,s2
    6c00:	8526                	mv	a0,s1
    6c02:	9982                	jalr	s3
    6c04:	d7b50ae3          	beq	a0,s11,6978 <_printf_float+0xfc>
    6c08:	0c85                	addi	s9,s9,1
    6c0a:	05842b03          	lw	s6,88(s0)
    6c0e:	87d2                	mv	a5,s4
    6c10:	000a5363          	bgez	s4,6c16 <_printf_float+0x39a>
    6c14:	4781                	li	a5,0
    6c16:	40fb07b3          	sub	a5,s6,a5
    6c1a:	fefcc0e3          	blt	s9,a5,6bfa <_printf_float+0x37e>
    6c1e:	5752                	lw	a4,52(sp)
    6c20:	57e2                	lw	a5,56(sp)
    6c22:	02f74d63          	blt	a4,a5,6c5c <_printf_float+0x3e0>
    6c26:	401c                	lw	a5,0(s0)
    6c28:	8b85                	andi	a5,a5,1
    6c2a:	eb8d                	bnez	a5,6c5c <_printf_float+0x3e0>
    6c2c:	57e2                	lw	a5,56(sp)
    6c2e:	5752                	lw	a4,52(sp)
    6c30:	40e78a33          	sub	s4,a5,a4
    6c34:	00eb4463          	blt	s6,a4,6c3c <_printf_float+0x3c0>
    6c38:	41678a33          	sub	s4,a5,s6
    6c3c:	01405b63          	blez	s4,6c52 <_printf_float+0x3d6>
    6c40:	86d2                	mv	a3,s4
    6c42:	016a8633          	add	a2,s5,s6
    6c46:	85ca                	mv	a1,s2
    6c48:	8526                	mv	a0,s1
    6c4a:	9982                	jalr	s3
    6c4c:	57fd                	li	a5,-1
    6c4e:	d2f505e3          	beq	a0,a5,6978 <_printf_float+0xfc>
    6c52:	4a81                	li	s5,0
    6c54:	01a40b13          	addi	s6,s0,26
    6c58:	5bfd                	li	s7,-1
    6c5a:	a015                	j	6c7e <_printf_float+0x402>
    6c5c:	86e2                	mv	a3,s8
    6c5e:	865e                	mv	a2,s7
    6c60:	85ca                	mv	a1,s2
    6c62:	8526                	mv	a0,s1
    6c64:	9982                	jalr	s3
    6c66:	57fd                	li	a5,-1
    6c68:	fcf512e3          	bne	a0,a5,6c2c <_printf_float+0x3b0>
    6c6c:	b331                	j	6978 <_printf_float+0xfc>
    6c6e:	4685                	li	a3,1
    6c70:	865a                	mv	a2,s6
    6c72:	85ca                	mv	a1,s2
    6c74:	8526                	mv	a0,s1
    6c76:	9982                	jalr	s3
    6c78:	d17500e3          	beq	a0,s7,6978 <_printf_float+0xfc>
    6c7c:	0a85                	addi	s5,s5,1
    6c7e:	5752                	lw	a4,52(sp)
    6c80:	57e2                	lw	a5,56(sp)
    6c82:	8f99                	sub	a5,a5,a4
    6c84:	8752                	mv	a4,s4
    6c86:	000a5363          	bgez	s4,6c8c <_printf_float+0x410>
    6c8a:	4701                	li	a4,0
    6c8c:	8f99                	sub	a5,a5,a4
    6c8e:	fefac0e3          	blt	s5,a5,6c6e <_printf_float+0x3f2>
    6c92:	bd91                	j	6ae6 <_printf_float+0x26a>
    6c94:	56e2                	lw	a3,56(sp)
    6c96:	4705                	li	a4,1
    6c98:	00d74463          	blt	a4,a3,6ca0 <_printf_float+0x424>
    6c9c:	8b85                	andi	a5,a5,1
    6c9e:	c7b5                	beqz	a5,6d0a <_printf_float+0x48e>
    6ca0:	4685                	li	a3,1
    6ca2:	8656                	mv	a2,s5
    6ca4:	85ca                	mv	a1,s2
    6ca6:	8526                	mv	a0,s1
    6ca8:	9982                	jalr	s3
    6caa:	5a7d                	li	s4,-1
    6cac:	cd4506e3          	beq	a0,s4,6978 <_printf_float+0xfc>
    6cb0:	86e2                	mv	a3,s8
    6cb2:	865e                	mv	a2,s7
    6cb4:	85ca                	mv	a1,s2
    6cb6:	8526                	mv	a0,s1
    6cb8:	9982                	jalr	s3
    6cba:	cb450fe3          	beq	a0,s4,6978 <_printf_float+0xfc>
    6cbe:	4428                	lw	a0,72(s0)
    6cc0:	446c                	lw	a1,76(s0)
    6cc2:	4601                	li	a2,0
    6cc4:	4681                	li	a3,0
    6cc6:	b27fe0ef          	jal	ra,57ec <__eqdf2>
    6cca:	c91d                	beqz	a0,6d00 <_printf_float+0x484>
    6ccc:	56e2                	lw	a3,56(sp)
    6cce:	001a8613          	addi	a2,s5,1
    6cd2:	85ca                	mv	a1,s2
    6cd4:	16fd                	addi	a3,a3,-1
    6cd6:	8526                	mv	a0,s1
    6cd8:	9982                	jalr	s3
    6cda:	c9450fe3          	beq	a0,s4,6978 <_printf_float+0xfc>
    6cde:	86da                	mv	a3,s6
    6ce0:	05040613          	addi	a2,s0,80
    6ce4:	b5f9                	j	6bb2 <_printf_float+0x336>
    6ce6:	4685                	li	a3,1
    6ce8:	8656                	mv	a2,s5
    6cea:	85ca                	mv	a1,s2
    6cec:	8526                	mv	a0,s1
    6cee:	9982                	jalr	s3
    6cf0:	c97504e3          	beq	a0,s7,6978 <_printf_float+0xfc>
    6cf4:	0a05                	addi	s4,s4,1
    6cf6:	57e2                	lw	a5,56(sp)
    6cf8:	17fd                	addi	a5,a5,-1
    6cfa:	fefa46e3          	blt	s4,a5,6ce6 <_printf_float+0x46a>
    6cfe:	b7c5                	j	6cde <_printf_float+0x462>
    6d00:	4a01                	li	s4,0
    6d02:	01a40a93          	addi	s5,s0,26
    6d06:	5bfd                	li	s7,-1
    6d08:	b7fd                	j	6cf6 <_printf_float+0x47a>
    6d0a:	4685                	li	a3,1
    6d0c:	8656                	mv	a2,s5
    6d0e:	85ca                	mv	a1,s2
    6d10:	8526                	mv	a0,s1
    6d12:	9982                	jalr	s3
    6d14:	fd9515e3          	bne	a0,s9,6cde <_printf_float+0x462>
    6d18:	b185                	j	6978 <_printf_float+0xfc>
    6d1a:	4685                	li	a3,1
    6d1c:	8656                	mv	a2,s5
    6d1e:	85ca                	mv	a1,s2
    6d20:	8526                	mv	a0,s1
    6d22:	9982                	jalr	s3
    6d24:	c5650ae3          	beq	a0,s6,6978 <_printf_float+0xfc>
    6d28:	0a05                	addi	s4,s4,1
    6d2a:	445c                	lw	a5,12(s0)
    6d2c:	5772                	lw	a4,60(sp)
    6d2e:	8f99                	sub	a5,a5,a4
    6d30:	fefa45e3          	blt	s4,a5,6d1a <_printf_float+0x49e>
    6d34:	bb6d                	j	6aee <_printf_float+0x272>
    6d36:	4a01                	li	s4,0
    6d38:	01940a93          	addi	s5,s0,25
    6d3c:	5b7d                	li	s6,-1
    6d3e:	b7f5                	j	6d2a <_printf_float+0x4ae>

00006d40 <_printf_common>:
_printf_common():
    6d40:	7179                	addi	sp,sp,-48
    6d42:	ca56                	sw	s5,20(sp)
    6d44:	499c                	lw	a5,16(a1)
    6d46:	8aba                	mv	s5,a4
    6d48:	4598                	lw	a4,8(a1)
    6d4a:	d422                	sw	s0,40(sp)
    6d4c:	d226                	sw	s1,36(sp)
    6d4e:	ce4e                	sw	s3,28(sp)
    6d50:	cc52                	sw	s4,24(sp)
    6d52:	d606                	sw	ra,44(sp)
    6d54:	d04a                	sw	s2,32(sp)
    6d56:	c85a                	sw	s6,16(sp)
    6d58:	c65e                	sw	s7,12(sp)
    6d5a:	89aa                	mv	s3,a0
    6d5c:	842e                	mv	s0,a1
    6d5e:	84b2                	mv	s1,a2
    6d60:	8a36                	mv	s4,a3
    6d62:	00e7d363          	bge	a5,a4,6d68 <_printf_common+0x28>
    6d66:	87ba                	mv	a5,a4
    6d68:	c09c                	sw	a5,0(s1)
    6d6a:	04344703          	lbu	a4,67(s0)
    6d6e:	c319                	beqz	a4,6d74 <_printf_common+0x34>
    6d70:	0785                	addi	a5,a5,1
    6d72:	c09c                	sw	a5,0(s1)
    6d74:	401c                	lw	a5,0(s0)
    6d76:	0207f793          	andi	a5,a5,32
    6d7a:	c781                	beqz	a5,6d82 <_printf_common+0x42>
    6d7c:	409c                	lw	a5,0(s1)
    6d7e:	0789                	addi	a5,a5,2
    6d80:	c09c                	sw	a5,0(s1)
    6d82:	00042903          	lw	s2,0(s0)
    6d86:	00697913          	andi	s2,s2,6
    6d8a:	00091a63          	bnez	s2,6d9e <_printf_common+0x5e>
    6d8e:	01940b13          	addi	s6,s0,25
    6d92:	5bfd                	li	s7,-1
    6d94:	445c                	lw	a5,12(s0)
    6d96:	4098                	lw	a4,0(s1)
    6d98:	8f99                	sub	a5,a5,a4
    6d9a:	04f94c63          	blt	s2,a5,6df2 <_printf_common+0xb2>
    6d9e:	401c                	lw	a5,0(s0)
    6da0:	04344683          	lbu	a3,67(s0)
    6da4:	0207f793          	andi	a5,a5,32
    6da8:	00d036b3          	snez	a3,a3
    6dac:	eba5                	bnez	a5,6e1c <_printf_common+0xdc>
    6dae:	04340613          	addi	a2,s0,67
    6db2:	85d2                	mv	a1,s4
    6db4:	854e                	mv	a0,s3
    6db6:	9a82                	jalr	s5
    6db8:	57fd                	li	a5,-1
    6dba:	04f50363          	beq	a0,a5,6e00 <_printf_common+0xc0>
    6dbe:	401c                	lw	a5,0(s0)
    6dc0:	4611                	li	a2,4
    6dc2:	4098                	lw	a4,0(s1)
    6dc4:	8b99                	andi	a5,a5,6
    6dc6:	4454                	lw	a3,12(s0)
    6dc8:	4481                	li	s1,0
    6dca:	00c79763          	bne	a5,a2,6dd8 <_printf_common+0x98>
    6dce:	40e684b3          	sub	s1,a3,a4
    6dd2:	0004d363          	bgez	s1,6dd8 <_printf_common+0x98>
    6dd6:	4481                	li	s1,0
    6dd8:	441c                	lw	a5,8(s0)
    6dda:	4818                	lw	a4,16(s0)
    6ddc:	00f75463          	bge	a4,a5,6de4 <_printf_common+0xa4>
    6de0:	8f99                	sub	a5,a5,a4
    6de2:	94be                	add	s1,s1,a5
    6de4:	4901                	li	s2,0
    6de6:	0469                	addi	s0,s0,26
    6de8:	5b7d                	li	s6,-1
    6dea:	05249863          	bne	s1,s2,6e3a <_printf_common+0xfa>
    6dee:	4501                	li	a0,0
    6df0:	a809                	j	6e02 <_printf_common+0xc2>
    6df2:	4685                	li	a3,1
    6df4:	865a                	mv	a2,s6
    6df6:	85d2                	mv	a1,s4
    6df8:	854e                	mv	a0,s3
    6dfa:	9a82                	jalr	s5
    6dfc:	01751e63          	bne	a0,s7,6e18 <_printf_common+0xd8>
    6e00:	557d                	li	a0,-1
    6e02:	50b2                	lw	ra,44(sp)
    6e04:	5422                	lw	s0,40(sp)
    6e06:	5492                	lw	s1,36(sp)
    6e08:	5902                	lw	s2,32(sp)
    6e0a:	49f2                	lw	s3,28(sp)
    6e0c:	4a62                	lw	s4,24(sp)
    6e0e:	4ad2                	lw	s5,20(sp)
    6e10:	4b42                	lw	s6,16(sp)
    6e12:	4bb2                	lw	s7,12(sp)
    6e14:	6145                	addi	sp,sp,48
    6e16:	8082                	ret
    6e18:	0905                	addi	s2,s2,1
    6e1a:	bfad                	j	6d94 <_printf_common+0x54>
    6e1c:	00d40733          	add	a4,s0,a3
    6e20:	03000613          	li	a2,48
    6e24:	04c701a3          	sb	a2,67(a4)
    6e28:	04544703          	lbu	a4,69(s0)
    6e2c:	00168793          	addi	a5,a3,1
    6e30:	97a2                	add	a5,a5,s0
    6e32:	0689                	addi	a3,a3,2
    6e34:	04e781a3          	sb	a4,67(a5)
    6e38:	bf9d                	j	6dae <_printf_common+0x6e>
    6e3a:	4685                	li	a3,1
    6e3c:	8622                	mv	a2,s0
    6e3e:	85d2                	mv	a1,s4
    6e40:	854e                	mv	a0,s3
    6e42:	9a82                	jalr	s5
    6e44:	fb650ee3          	beq	a0,s6,6e00 <_printf_common+0xc0>
    6e48:	0905                	addi	s2,s2,1
    6e4a:	b745                	j	6dea <_printf_common+0xaa>

00006e4c <_printf_i>:
_printf_i():
    6e4c:	7179                	addi	sp,sp,-48
    6e4e:	d422                	sw	s0,40(sp)
    6e50:	d226                	sw	s1,36(sp)
    6e52:	d04a                	sw	s2,32(sp)
    6e54:	ce4e                	sw	s3,28(sp)
    6e56:	d606                	sw	ra,44(sp)
    6e58:	cc52                	sw	s4,24(sp)
    6e5a:	ca56                	sw	s5,20(sp)
    6e5c:	c85a                	sw	s6,16(sp)
    6e5e:	89b6                	mv	s3,a3
    6e60:	0185c683          	lbu	a3,24(a1)
    6e64:	06900793          	li	a5,105
    6e68:	8932                	mv	s2,a2
    6e6a:	84aa                	mv	s1,a0
    6e6c:	842e                	mv	s0,a1
    6e6e:	04358613          	addi	a2,a1,67
    6e72:	02f68d63          	beq	a3,a5,6eac <_printf_i+0x60>
    6e76:	06d7e263          	bltu	a5,a3,6eda <_printf_i+0x8e>
    6e7a:	05800793          	li	a5,88
    6e7e:	18f68963          	beq	a3,a5,7010 <_printf_i+0x1c4>
    6e82:	00d7ed63          	bltu	a5,a3,6e9c <_printf_i+0x50>
    6e86:	22068263          	beqz	a3,70aa <_printf_i+0x25e>
    6e8a:	04300793          	li	a5,67
    6e8e:	0af68f63          	beq	a3,a5,6f4c <_printf_i+0x100>
    6e92:	04240a93          	addi	s5,s0,66
    6e96:	04d40123          	sb	a3,66(s0)
    6e9a:	a0d1                	j	6f5e <_printf_i+0x112>
    6e9c:	06300793          	li	a5,99
    6ea0:	0af68663          	beq	a3,a5,6f4c <_printf_i+0x100>
    6ea4:	06400793          	li	a5,100
    6ea8:	fef695e3          	bne	a3,a5,6e92 <_printf_i+0x46>
    6eac:	401c                	lw	a5,0(s0)
    6eae:	4308                	lw	a0,0(a4)
    6eb0:	0807f693          	andi	a3,a5,128
    6eb4:	00450593          	addi	a1,a0,4
    6eb8:	c6cd                	beqz	a3,6f62 <_printf_i+0x116>
    6eba:	411c                	lw	a5,0(a0)
    6ebc:	c30c                	sw	a1,0(a4)
    6ebe:	0007d863          	bgez	a5,6ece <_printf_i+0x82>
    6ec2:	02d00713          	li	a4,45
    6ec6:	40f007b3          	neg	a5,a5
    6eca:	04e401a3          	sb	a4,67(s0)
    6ece:	00003697          	auipc	a3,0x3
    6ed2:	2fe68693          	addi	a3,a3,766 # a1cc <__clz_tab+0x120>
    6ed6:	4729                	li	a4,10
    6ed8:	a875                	j	6f94 <_printf_i+0x148>
    6eda:	07000793          	li	a5,112
    6ede:	16f68563          	beq	a3,a5,7048 <_printf_i+0x1fc>
    6ee2:	02d7e563          	bltu	a5,a3,6f0c <_printf_i+0xc0>
    6ee6:	06e00793          	li	a5,110
    6eea:	18f68c63          	beq	a3,a5,7082 <_printf_i+0x236>
    6eee:	06f00793          	li	a5,111
    6ef2:	faf690e3          	bne	a3,a5,6e92 <_printf_i+0x46>
    6ef6:	400c                	lw	a1,0(s0)
    6ef8:	431c                	lw	a5,0(a4)
    6efa:	0805f813          	andi	a6,a1,128
    6efe:	00478513          	addi	a0,a5,4
    6f02:	06080863          	beqz	a6,6f72 <_printf_i+0x126>
    6f06:	c308                	sw	a0,0(a4)
    6f08:	439c                	lw	a5,0(a5)
    6f0a:	a895                	j	6f7e <_printf_i+0x132>
    6f0c:	07500793          	li	a5,117
    6f10:	fef683e3          	beq	a3,a5,6ef6 <_printf_i+0xaa>
    6f14:	07800793          	li	a5,120
    6f18:	12f68c63          	beq	a3,a5,7050 <_printf_i+0x204>
    6f1c:	07300793          	li	a5,115
    6f20:	f6f699e3          	bne	a3,a5,6e92 <_printf_i+0x46>
    6f24:	431c                	lw	a5,0(a4)
    6f26:	41d0                	lw	a2,4(a1)
    6f28:	4581                	li	a1,0
    6f2a:	00478693          	addi	a3,a5,4
    6f2e:	c314                	sw	a3,0(a4)
    6f30:	0007aa83          	lw	s5,0(a5)
    6f34:	8556                	mv	a0,s5
    6f36:	63e010ef          	jal	ra,8574 <memchr>
    6f3a:	c501                	beqz	a0,6f42 <_printf_i+0xf6>
    6f3c:	41550533          	sub	a0,a0,s5
    6f40:	c048                	sw	a0,4(s0)
    6f42:	405c                	lw	a5,4(s0)
    6f44:	c81c                	sw	a5,16(s0)
    6f46:	040401a3          	sb	zero,67(s0)
    6f4a:	a871                	j	6fe6 <_printf_i+0x19a>
    6f4c:	431c                	lw	a5,0(a4)
    6f4e:	04240a93          	addi	s5,s0,66
    6f52:	00478693          	addi	a3,a5,4
    6f56:	439c                	lw	a5,0(a5)
    6f58:	c314                	sw	a3,0(a4)
    6f5a:	04f40123          	sb	a5,66(s0)
    6f5e:	4785                	li	a5,1
    6f60:	b7d5                	j	6f44 <_printf_i+0xf8>
    6f62:	0407f693          	andi	a3,a5,64
    6f66:	411c                	lw	a5,0(a0)
    6f68:	c30c                	sw	a1,0(a4)
    6f6a:	dab1                	beqz	a3,6ebe <_printf_i+0x72>
    6f6c:	07c2                	slli	a5,a5,0x10
    6f6e:	87c1                	srai	a5,a5,0x10
    6f70:	b7b9                	j	6ebe <_printf_i+0x72>
    6f72:	0405f593          	andi	a1,a1,64
    6f76:	c308                	sw	a0,0(a4)
    6f78:	d9c1                	beqz	a1,6f08 <_printf_i+0xbc>
    6f7a:	0007d783          	lhu	a5,0(a5)
    6f7e:	06f00713          	li	a4,111
    6f82:	0ee68863          	beq	a3,a4,7072 <_printf_i+0x226>
    6f86:	00003697          	auipc	a3,0x3
    6f8a:	24668693          	addi	a3,a3,582 # a1cc <__clz_tab+0x120>
    6f8e:	4729                	li	a4,10
    6f90:	040401a3          	sb	zero,67(s0)
    6f94:	404c                	lw	a1,4(s0)
    6f96:	c40c                	sw	a1,8(s0)
    6f98:	0005c563          	bltz	a1,6fa2 <_printf_i+0x156>
    6f9c:	4008                	lw	a0,0(s0)
    6f9e:	996d                	andi	a0,a0,-5
    6fa0:	c008                	sw	a0,0(s0)
    6fa2:	e399                	bnez	a5,6fa8 <_printf_i+0x15c>
    6fa4:	8ab2                	mv	s5,a2
    6fa6:	cd91                	beqz	a1,6fc2 <_printf_i+0x176>
    6fa8:	8ab2                	mv	s5,a2
    6faa:	02e7f5b3          	remu	a1,a5,a4
    6fae:	1afd                	addi	s5,s5,-1
    6fb0:	95b6                	add	a1,a1,a3
    6fb2:	0005c583          	lbu	a1,0(a1)
    6fb6:	00ba8023          	sb	a1,0(s5)
    6fba:	02e7d5b3          	divu	a1,a5,a4
    6fbe:	0ce7f063          	bgeu	a5,a4,707e <_printf_i+0x232>
    6fc2:	47a1                	li	a5,8
    6fc4:	00f71e63          	bne	a4,a5,6fe0 <_printf_i+0x194>
    6fc8:	401c                	lw	a5,0(s0)
    6fca:	8b85                	andi	a5,a5,1
    6fcc:	cb91                	beqz	a5,6fe0 <_printf_i+0x194>
    6fce:	4058                	lw	a4,4(s0)
    6fd0:	481c                	lw	a5,16(s0)
    6fd2:	00e7c763          	blt	a5,a4,6fe0 <_printf_i+0x194>
    6fd6:	03000793          	li	a5,48
    6fda:	fefa8fa3          	sb	a5,-1(s5)
    6fde:	1afd                	addi	s5,s5,-1
    6fe0:	41560633          	sub	a2,a2,s5
    6fe4:	c810                	sw	a2,16(s0)
    6fe6:	874e                	mv	a4,s3
    6fe8:	86ca                	mv	a3,s2
    6fea:	0070                	addi	a2,sp,12
    6fec:	85a2                	mv	a1,s0
    6fee:	8526                	mv	a0,s1
    6ff0:	d51ff0ef          	jal	ra,6d40 <_printf_common>
    6ff4:	5a7d                	li	s4,-1
    6ff6:	0b451e63          	bne	a0,s4,70b2 <_printf_i+0x266>
    6ffa:	557d                	li	a0,-1
    6ffc:	50b2                	lw	ra,44(sp)
    6ffe:	5422                	lw	s0,40(sp)
    7000:	5492                	lw	s1,36(sp)
    7002:	5902                	lw	s2,32(sp)
    7004:	49f2                	lw	s3,28(sp)
    7006:	4a62                	lw	s4,24(sp)
    7008:	4ad2                	lw	s5,20(sp)
    700a:	4b42                	lw	s6,16(sp)
    700c:	6145                	addi	sp,sp,48
    700e:	8082                	ret
    7010:	04d582a3          	sb	a3,69(a1)
    7014:	00003697          	auipc	a3,0x3
    7018:	1b868693          	addi	a3,a3,440 # a1cc <__clz_tab+0x120>
    701c:	400c                	lw	a1,0(s0)
    701e:	4308                	lw	a0,0(a4)
    7020:	0805f813          	andi	a6,a1,128
    7024:	411c                	lw	a5,0(a0)
    7026:	0511                	addi	a0,a0,4
    7028:	02080d63          	beqz	a6,7062 <_printf_i+0x216>
    702c:	c308                	sw	a0,0(a4)
    702e:	0015f713          	andi	a4,a1,1
    7032:	c701                	beqz	a4,703a <_printf_i+0x1ee>
    7034:	0205e593          	ori	a1,a1,32
    7038:	c00c                	sw	a1,0(s0)
    703a:	4741                	li	a4,16
    703c:	fbb1                	bnez	a5,6f90 <_printf_i+0x144>
    703e:	400c                	lw	a1,0(s0)
    7040:	fdf5f593          	andi	a1,a1,-33
    7044:	c00c                	sw	a1,0(s0)
    7046:	b7a9                	j	6f90 <_printf_i+0x144>
    7048:	419c                	lw	a5,0(a1)
    704a:	0207e793          	ori	a5,a5,32
    704e:	c19c                	sw	a5,0(a1)
    7050:	07800793          	li	a5,120
    7054:	04f402a3          	sb	a5,69(s0)
    7058:	00003697          	auipc	a3,0x3
    705c:	18868693          	addi	a3,a3,392 # a1e0 <__clz_tab+0x134>
    7060:	bf75                	j	701c <_printf_i+0x1d0>
    7062:	0405f813          	andi	a6,a1,64
    7066:	c308                	sw	a0,0(a4)
    7068:	fc0803e3          	beqz	a6,702e <_printf_i+0x1e2>
    706c:	07c2                	slli	a5,a5,0x10
    706e:	83c1                	srli	a5,a5,0x10
    7070:	bf7d                	j	702e <_printf_i+0x1e2>
    7072:	00003697          	auipc	a3,0x3
    7076:	15a68693          	addi	a3,a3,346 # a1cc <__clz_tab+0x120>
    707a:	4721                	li	a4,8
    707c:	bf11                	j	6f90 <_printf_i+0x144>
    707e:	87ae                	mv	a5,a1
    7080:	b72d                	j	6faa <_printf_i+0x15e>
    7082:	4194                	lw	a3,0(a1)
    7084:	431c                	lw	a5,0(a4)
    7086:	49cc                	lw	a1,20(a1)
    7088:	0806f813          	andi	a6,a3,128
    708c:	00478513          	addi	a0,a5,4
    7090:	00080663          	beqz	a6,709c <_printf_i+0x250>
    7094:	c308                	sw	a0,0(a4)
    7096:	439c                	lw	a5,0(a5)
    7098:	c38c                	sw	a1,0(a5)
    709a:	a801                	j	70aa <_printf_i+0x25e>
    709c:	c308                	sw	a0,0(a4)
    709e:	0406f693          	andi	a3,a3,64
    70a2:	439c                	lw	a5,0(a5)
    70a4:	daf5                	beqz	a3,7098 <_printf_i+0x24c>
    70a6:	00b79023          	sh	a1,0(a5)
    70aa:	00042823          	sw	zero,16(s0)
    70ae:	8ab2                	mv	s5,a2
    70b0:	bf1d                	j	6fe6 <_printf_i+0x19a>
    70b2:	4814                	lw	a3,16(s0)
    70b4:	8656                	mv	a2,s5
    70b6:	85ca                	mv	a1,s2
    70b8:	8526                	mv	a0,s1
    70ba:	9982                	jalr	s3
    70bc:	f3450fe3          	beq	a0,s4,6ffa <_printf_i+0x1ae>
    70c0:	401c                	lw	a5,0(s0)
    70c2:	8b89                	andi	a5,a5,2
    70c4:	e78d                	bnez	a5,70ee <_printf_i+0x2a2>
    70c6:	47b2                	lw	a5,12(sp)
    70c8:	4448                	lw	a0,12(s0)
    70ca:	f2f559e3          	bge	a0,a5,6ffc <_printf_i+0x1b0>
    70ce:	853e                	mv	a0,a5
    70d0:	b735                	j	6ffc <_printf_i+0x1b0>
    70d2:	4685                	li	a3,1
    70d4:	8656                	mv	a2,s5
    70d6:	85ca                	mv	a1,s2
    70d8:	8526                	mv	a0,s1
    70da:	9982                	jalr	s3
    70dc:	f1650fe3          	beq	a0,s6,6ffa <_printf_i+0x1ae>
    70e0:	0a05                	addi	s4,s4,1
    70e2:	445c                	lw	a5,12(s0)
    70e4:	4732                	lw	a4,12(sp)
    70e6:	8f99                	sub	a5,a5,a4
    70e8:	fefa45e3          	blt	s4,a5,70d2 <_printf_i+0x286>
    70ec:	bfe9                	j	70c6 <_printf_i+0x27a>
    70ee:	4a01                	li	s4,0
    70f0:	01940a93          	addi	s5,s0,25
    70f4:	5b7d                	li	s6,-1
    70f6:	b7f5                	j	70e2 <_printf_i+0x296>

000070f8 <iprintf>:
printf():
    70f8:	7139                	addi	sp,sp,-64
    70fa:	da3e                	sw	a5,52(sp)
    70fc:	d22e                	sw	a1,36(sp)
    70fe:	d432                	sw	a2,40(sp)
    7100:	d636                	sw	a3,44(sp)
    7102:	d83a                	sw	a4,48(sp)
    7104:	dc42                	sw	a6,56(sp)
    7106:	de46                	sw	a7,60(sp)
    7108:	81818793          	addi	a5,gp,-2024 # 20000238 <_impure_ptr>
    710c:	cc22                	sw	s0,24(sp)
    710e:	4380                	lw	s0,0(a5)
    7110:	ca26                	sw	s1,20(sp)
    7112:	ce06                	sw	ra,28(sp)
    7114:	84aa                	mv	s1,a0
    7116:	c411                	beqz	s0,7122 <iprintf+0x2a>
    7118:	4c1c                	lw	a5,24(s0)
    711a:	e781                	bnez	a5,7122 <iprintf+0x2a>
    711c:	8522                	mv	a0,s0
    711e:	1be010ef          	jal	ra,82dc <__sinit>
    7122:	440c                	lw	a1,8(s0)
    7124:	1054                	addi	a3,sp,36
    7126:	8626                	mv	a2,s1
    7128:	8522                	mv	a0,s0
    712a:	c636                	sw	a3,12(sp)
    712c:	561010ef          	jal	ra,8e8c <_vfiprintf_r>
    7130:	40f2                	lw	ra,28(sp)
    7132:	4462                	lw	s0,24(sp)
    7134:	44d2                	lw	s1,20(sp)
    7136:	6121                	addi	sp,sp,64
    7138:	8082                	ret

0000713a <strlen>:
strlen():
    713a:	87aa                	mv	a5,a0
    713c:	0785                	addi	a5,a5,1
    713e:	fff7c703          	lbu	a4,-1(a5)
    7142:	ff6d                	bnez	a4,713c <strlen+0x2>
    7144:	40a78533          	sub	a0,a5,a0
    7148:	157d                	addi	a0,a0,-1
    714a:	8082                	ret

0000714c <__swbuf_r>:
__swbuf_r():
    714c:	1101                	addi	sp,sp,-32
    714e:	cc22                	sw	s0,24(sp)
    7150:	ca26                	sw	s1,20(sp)
    7152:	c84a                	sw	s2,16(sp)
    7154:	ce06                	sw	ra,28(sp)
    7156:	c64e                	sw	s3,12(sp)
    7158:	84aa                	mv	s1,a0
    715a:	892e                	mv	s2,a1
    715c:	8432                	mv	s0,a2
    715e:	c509                	beqz	a0,7168 <__swbuf_r+0x1c>
    7160:	4d1c                	lw	a5,24(a0)
    7162:	e399                	bnez	a5,7168 <__swbuf_r+0x1c>
    7164:	178010ef          	jal	ra,82dc <__sinit>
    7168:	00003797          	auipc	a5,0x3
    716c:	10878793          	addi	a5,a5,264 # a270 <__sf_fake_stdin>
    7170:	06f41b63          	bne	s0,a5,71e6 <__swbuf_r+0x9a>
    7174:	40c0                	lw	s0,4(s1)
    7176:	4c1c                	lw	a5,24(s0)
    7178:	c41c                	sw	a5,8(s0)
    717a:	00c45783          	lhu	a5,12(s0)
    717e:	8ba1                	andi	a5,a5,8
    7180:	c3d9                	beqz	a5,7206 <__swbuf_r+0xba>
    7182:	481c                	lw	a5,16(s0)
    7184:	c3c9                	beqz	a5,7206 <__swbuf_r+0xba>
    7186:	481c                	lw	a5,16(s0)
    7188:	4008                	lw	a0,0(s0)
    718a:	0ff97993          	andi	s3,s2,255
    718e:	0ff97913          	andi	s2,s2,255
    7192:	8d1d                	sub	a0,a0,a5
    7194:	485c                	lw	a5,20(s0)
    7196:	00f54763          	blt	a0,a5,71a4 <__swbuf_r+0x58>
    719a:	85a2                	mv	a1,s0
    719c:	8526                	mv	a0,s1
    719e:	01c010ef          	jal	ra,81ba <_fflush_r>
    71a2:	e535                	bnez	a0,720e <__swbuf_r+0xc2>
    71a4:	441c                	lw	a5,8(s0)
    71a6:	0505                	addi	a0,a0,1
    71a8:	17fd                	addi	a5,a5,-1
    71aa:	c41c                	sw	a5,8(s0)
    71ac:	401c                	lw	a5,0(s0)
    71ae:	00178713          	addi	a4,a5,1
    71b2:	c018                	sw	a4,0(s0)
    71b4:	01378023          	sb	s3,0(a5)
    71b8:	485c                	lw	a5,20(s0)
    71ba:	00a78963          	beq	a5,a0,71cc <__swbuf_r+0x80>
    71be:	00c45783          	lhu	a5,12(s0)
    71c2:	8b85                	andi	a5,a5,1
    71c4:	cb89                	beqz	a5,71d6 <__swbuf_r+0x8a>
    71c6:	47a9                	li	a5,10
    71c8:	00f91763          	bne	s2,a5,71d6 <__swbuf_r+0x8a>
    71cc:	85a2                	mv	a1,s0
    71ce:	8526                	mv	a0,s1
    71d0:	7eb000ef          	jal	ra,81ba <_fflush_r>
    71d4:	ed0d                	bnez	a0,720e <__swbuf_r+0xc2>
    71d6:	40f2                	lw	ra,28(sp)
    71d8:	4462                	lw	s0,24(sp)
    71da:	854a                	mv	a0,s2
    71dc:	44d2                	lw	s1,20(sp)
    71de:	4942                	lw	s2,16(sp)
    71e0:	49b2                	lw	s3,12(sp)
    71e2:	6105                	addi	sp,sp,32
    71e4:	8082                	ret
    71e6:	00003797          	auipc	a5,0x3
    71ea:	0aa78793          	addi	a5,a5,170 # a290 <__sf_fake_stdout>
    71ee:	00f41463          	bne	s0,a5,71f6 <__swbuf_r+0xaa>
    71f2:	4480                	lw	s0,8(s1)
    71f4:	b749                	j	7176 <__swbuf_r+0x2a>
    71f6:	00003797          	auipc	a5,0x3
    71fa:	05a78793          	addi	a5,a5,90 # a250 <__sf_fake_stderr>
    71fe:	f6f41ce3          	bne	s0,a5,7176 <__swbuf_r+0x2a>
    7202:	44c0                	lw	s0,12(s1)
    7204:	bf8d                	j	7176 <__swbuf_r+0x2a>
    7206:	85a2                	mv	a1,s0
    7208:	8526                	mv	a0,s1
    720a:	2021                	jal	7212 <__swsetup_r>
    720c:	dd2d                	beqz	a0,7186 <__swbuf_r+0x3a>
    720e:	597d                	li	s2,-1
    7210:	b7d9                	j	71d6 <__swbuf_r+0x8a>

00007212 <__swsetup_r>:
__swsetup_r():
    7212:	1141                	addi	sp,sp,-16
    7214:	81818793          	addi	a5,gp,-2024 # 20000238 <_impure_ptr>
    7218:	c226                	sw	s1,4(sp)
    721a:	4384                	lw	s1,0(a5)
    721c:	c422                	sw	s0,8(sp)
    721e:	c04a                	sw	s2,0(sp)
    7220:	c606                	sw	ra,12(sp)
    7222:	892a                	mv	s2,a0
    7224:	842e                	mv	s0,a1
    7226:	c491                	beqz	s1,7232 <__swsetup_r+0x20>
    7228:	4c9c                	lw	a5,24(s1)
    722a:	e781                	bnez	a5,7232 <__swsetup_r+0x20>
    722c:	8526                	mv	a0,s1
    722e:	0ae010ef          	jal	ra,82dc <__sinit>
    7232:	00003797          	auipc	a5,0x3
    7236:	03e78793          	addi	a5,a5,62 # a270 <__sf_fake_stdin>
    723a:	02f41c63          	bne	s0,a5,7272 <__swsetup_r+0x60>
    723e:	40c0                	lw	s0,4(s1)
    7240:	00c41703          	lh	a4,12(s0)
    7244:	01071793          	slli	a5,a4,0x10
    7248:	83c1                	srli	a5,a5,0x10
    724a:	0087f693          	andi	a3,a5,8
    724e:	eebd                	bnez	a3,72cc <__swsetup_r+0xba>
    7250:	0107f693          	andi	a3,a5,16
    7254:	ee9d                	bnez	a3,7292 <__swsetup_r+0x80>
    7256:	47a5                	li	a5,9
    7258:	00f92023          	sw	a5,0(s2) # 800000 <_data_lma+0x7f5b2c>
    725c:	04076713          	ori	a4,a4,64
    7260:	00e41623          	sh	a4,12(s0)
    7264:	557d                	li	a0,-1
    7266:	40b2                	lw	ra,12(sp)
    7268:	4422                	lw	s0,8(sp)
    726a:	4492                	lw	s1,4(sp)
    726c:	4902                	lw	s2,0(sp)
    726e:	0141                	addi	sp,sp,16
    7270:	8082                	ret
    7272:	00003797          	auipc	a5,0x3
    7276:	01e78793          	addi	a5,a5,30 # a290 <__sf_fake_stdout>
    727a:	00f41463          	bne	s0,a5,7282 <__swsetup_r+0x70>
    727e:	4480                	lw	s0,8(s1)
    7280:	b7c1                	j	7240 <__swsetup_r+0x2e>
    7282:	00003797          	auipc	a5,0x3
    7286:	fce78793          	addi	a5,a5,-50 # a250 <__sf_fake_stderr>
    728a:	faf41be3          	bne	s0,a5,7240 <__swsetup_r+0x2e>
    728e:	44c0                	lw	s0,12(s1)
    7290:	bf45                	j	7240 <__swsetup_r+0x2e>
    7292:	8b91                	andi	a5,a5,4
    7294:	c795                	beqz	a5,72c0 <__swsetup_r+0xae>
    7296:	584c                	lw	a1,52(s0)
    7298:	c991                	beqz	a1,72ac <__swsetup_r+0x9a>
    729a:	04440793          	addi	a5,s0,68
    729e:	00f58563          	beq	a1,a5,72a8 <__swsetup_r+0x96>
    72a2:	854a                	mv	a0,s2
    72a4:	209010ef          	jal	ra,8cac <_free_r>
    72a8:	02042a23          	sw	zero,52(s0)
    72ac:	00c45783          	lhu	a5,12(s0)
    72b0:	00042223          	sw	zero,4(s0)
    72b4:	fdb7f793          	andi	a5,a5,-37
    72b8:	00f41623          	sh	a5,12(s0)
    72bc:	481c                	lw	a5,16(s0)
    72be:	c01c                	sw	a5,0(s0)
    72c0:	00c45783          	lhu	a5,12(s0)
    72c4:	0087e793          	ori	a5,a5,8
    72c8:	00f41623          	sh	a5,12(s0)
    72cc:	481c                	lw	a5,16(s0)
    72ce:	ef89                	bnez	a5,72e8 <__swsetup_r+0xd6>
    72d0:	00c45783          	lhu	a5,12(s0)
    72d4:	20000713          	li	a4,512
    72d8:	2807f793          	andi	a5,a5,640
    72dc:	00e78663          	beq	a5,a4,72e8 <__swsetup_r+0xd6>
    72e0:	85a2                	mv	a1,s0
    72e2:	854a                	mv	a0,s2
    72e4:	1e2010ef          	jal	ra,84c6 <__smakebuf_r>
    72e8:	00c45783          	lhu	a5,12(s0)
    72ec:	0017f713          	andi	a4,a5,1
    72f0:	c705                	beqz	a4,7318 <__swsetup_r+0x106>
    72f2:	485c                	lw	a5,20(s0)
    72f4:	00042423          	sw	zero,8(s0)
    72f8:	40f007b3          	neg	a5,a5
    72fc:	cc1c                	sw	a5,24(s0)
    72fe:	481c                	lw	a5,16(s0)
    7300:	4501                	li	a0,0
    7302:	f3b5                	bnez	a5,7266 <__swsetup_r+0x54>
    7304:	00c41783          	lh	a5,12(s0)
    7308:	0807f713          	andi	a4,a5,128
    730c:	df29                	beqz	a4,7266 <__swsetup_r+0x54>
    730e:	0407e793          	ori	a5,a5,64
    7312:	00f41623          	sh	a5,12(s0)
    7316:	b7b9                	j	7264 <__swsetup_r+0x52>
    7318:	8b89                	andi	a5,a5,2
    731a:	4701                	li	a4,0
    731c:	e391                	bnez	a5,7320 <__swsetup_r+0x10e>
    731e:	4858                	lw	a4,20(s0)
    7320:	c418                	sw	a4,8(s0)
    7322:	bff1                	j	72fe <__swsetup_r+0xec>

00007324 <quorem>:
quorem():
    7324:	1101                	addi	sp,sp,-32
    7326:	cc22                	sw	s0,24(sp)
    7328:	491c                	lw	a5,16(a0)
    732a:	4980                	lw	s0,16(a1)
    732c:	ce06                	sw	ra,28(sp)
    732e:	ca26                	sw	s1,20(sp)
    7330:	c84a                	sw	s2,16(sp)
    7332:	c64e                	sw	s3,12(sp)
    7334:	c452                	sw	s4,8(sp)
    7336:	c256                	sw	s5,4(sp)
    7338:	1287c163          	blt	a5,s0,745a <quorem+0x136>
    733c:	147d                	addi	s0,s0,-1
    733e:	00241813          	slli	a6,s0,0x2
    7342:	01458993          	addi	s3,a1,20
    7346:	01098a33          	add	s4,s3,a6
    734a:	01450913          	addi	s2,a0,20
    734e:	984a                	add	a6,a6,s2
    7350:	000a2783          	lw	a5,0(s4)
    7354:	00082703          	lw	a4,0(a6)
    7358:	0785                	addi	a5,a5,1
    735a:	02f754b3          	divu	s1,a4,a5
    735e:	06f76663          	bltu	a4,a5,73ca <quorem+0xa6>
    7362:	68c1                	lui	a7,0x10
    7364:	834e                	mv	t1,s3
    7366:	8e4a                	mv	t3,s2
    7368:	4e81                	li	t4,0
    736a:	4f01                	li	t5,0
    736c:	18fd                	addi	a7,a7,-1
    736e:	0311                	addi	t1,t1,4
    7370:	ffc32603          	lw	a2,-4(t1)
    7374:	0e11                	addi	t3,t3,4
    7376:	01167733          	and	a4,a2,a7
    737a:	8241                	srli	a2,a2,0x10
    737c:	02970733          	mul	a4,a4,s1
    7380:	02960633          	mul	a2,a2,s1
    7384:	9776                	add	a4,a4,t4
    7386:	01075693          	srli	a3,a4,0x10
    738a:	011777b3          	and	a5,a4,a7
    738e:	40ff07b3          	sub	a5,t5,a5
    7392:	9636                	add	a2,a2,a3
    7394:	ffce2683          	lw	a3,-4(t3)
    7398:	01065e93          	srli	t4,a2,0x10
    739c:	01167633          	and	a2,a2,a7
    73a0:	0116f733          	and	a4,a3,a7
    73a4:	97ba                	add	a5,a5,a4
    73a6:	82c1                	srli	a3,a3,0x10
    73a8:	4107d713          	srai	a4,a5,0x10
    73ac:	8e91                	sub	a3,a3,a2
    73ae:	96ba                	add	a3,a3,a4
    73b0:	4106df13          	srai	t5,a3,0x10
    73b4:	0117f7b3          	and	a5,a5,a7
    73b8:	06c2                	slli	a3,a3,0x10
    73ba:	8fd5                	or	a5,a5,a3
    73bc:	fefe2e23          	sw	a5,-4(t3)
    73c0:	fa6a77e3          	bgeu	s4,t1,736e <quorem+0x4a>
    73c4:	00082783          	lw	a5,0(a6)
    73c8:	cbbd                	beqz	a5,743e <quorem+0x11a>
    73ca:	8aaa                	mv	s5,a0
    73cc:	6c2010ef          	jal	ra,8a8e <__mcmp>
    73d0:	04054963          	bltz	a0,7422 <quorem+0xfe>
    73d4:	6641                	lui	a2,0x10
    73d6:	0485                	addi	s1,s1,1
    73d8:	85ca                	mv	a1,s2
    73da:	4501                	li	a0,0
    73dc:	167d                	addi	a2,a2,-1
    73de:	0991                	addi	s3,s3,4
    73e0:	ffc9a803          	lw	a6,-4(s3)
    73e4:	4198                	lw	a4,0(a1)
    73e6:	0591                	addi	a1,a1,4
    73e8:	00c876b3          	and	a3,a6,a2
    73ec:	8d15                	sub	a0,a0,a3
    73ee:	00c776b3          	and	a3,a4,a2
    73f2:	96aa                	add	a3,a3,a0
    73f4:	01075793          	srli	a5,a4,0x10
    73f8:	01085813          	srli	a6,a6,0x10
    73fc:	4106d713          	srai	a4,a3,0x10
    7400:	410787b3          	sub	a5,a5,a6
    7404:	97ba                	add	a5,a5,a4
    7406:	4107d513          	srai	a0,a5,0x10
    740a:	8ef1                	and	a3,a3,a2
    740c:	07c2                	slli	a5,a5,0x10
    740e:	8fd5                	or	a5,a5,a3
    7410:	fef5ae23          	sw	a5,-4(a1)
    7414:	fd3a75e3          	bgeu	s4,s3,73de <quorem+0xba>
    7418:	00241793          	slli	a5,s0,0x2
    741c:	97ca                	add	a5,a5,s2
    741e:	4398                	lw	a4,0(a5)
    7420:	c71d                	beqz	a4,744e <quorem+0x12a>
    7422:	8526                	mv	a0,s1
    7424:	40f2                	lw	ra,28(sp)
    7426:	4462                	lw	s0,24(sp)
    7428:	44d2                	lw	s1,20(sp)
    742a:	4942                	lw	s2,16(sp)
    742c:	49b2                	lw	s3,12(sp)
    742e:	4a22                	lw	s4,8(sp)
    7430:	4a92                	lw	s5,4(sp)
    7432:	6105                	addi	sp,sp,32
    7434:	8082                	ret
    7436:	00082783          	lw	a5,0(a6)
    743a:	e789                	bnez	a5,7444 <quorem+0x120>
    743c:	147d                	addi	s0,s0,-1
    743e:	1871                	addi	a6,a6,-4
    7440:	ff096be3          	bltu	s2,a6,7436 <quorem+0x112>
    7444:	c900                	sw	s0,16(a0)
    7446:	b751                	j	73ca <quorem+0xa6>
    7448:	4398                	lw	a4,0(a5)
    744a:	e709                	bnez	a4,7454 <quorem+0x130>
    744c:	147d                	addi	s0,s0,-1
    744e:	17f1                	addi	a5,a5,-4
    7450:	fef96ce3          	bltu	s2,a5,7448 <quorem+0x124>
    7454:	008aa823          	sw	s0,16(s5)
    7458:	b7e9                	j	7422 <quorem+0xfe>
    745a:	4501                	li	a0,0
    745c:	b7e1                	j	7424 <quorem+0x100>

0000745e <_dtoa_r>:
_dtoa_r():
    745e:	7175                	addi	sp,sp,-144
    7460:	d83e                	sw	a5,48(sp)
    7462:	515c                	lw	a5,36(a0)
    7464:	c522                	sw	s0,136(sp)
    7466:	c326                	sw	s1,132(sp)
    7468:	c14a                	sw	s2,128(sp)
    746a:	dece                	sw	s3,124(sp)
    746c:	dcd2                	sw	s4,120(sp)
    746e:	d4e2                	sw	s8,104(sp)
    7470:	c706                	sw	ra,140(sp)
    7472:	dad6                	sw	s5,116(sp)
    7474:	d8da                	sw	s6,112(sp)
    7476:	d6de                	sw	s7,108(sp)
    7478:	d2e6                	sw	s9,100(sp)
    747a:	d0ea                	sw	s10,96(sp)
    747c:	ceee                	sw	s11,92(sp)
    747e:	c236                	sw	a3,4(sp)
    7480:	c63a                	sw	a4,12(sp)
    7482:	ca46                	sw	a7,20(sp)
    7484:	84aa                	mv	s1,a0
    7486:	842e                	mv	s0,a1
    7488:	8932                	mv	s2,a2
    748a:	89c2                	mv	s3,a6
    748c:	8a2e                	mv	s4,a1
    748e:	8c32                	mv	s8,a2
    7490:	ef89                	bnez	a5,74aa <_dtoa_r+0x4c>
    7492:	4541                	li	a0,16
    7494:	0d4010ef          	jal	ra,8568 <malloc>
    7498:	d0c8                	sw	a0,36(s1)
    749a:	00052223          	sw	zero,4(a0)
    749e:	00052423          	sw	zero,8(a0)
    74a2:	00052023          	sw	zero,0(a0)
    74a6:	00052623          	sw	zero,12(a0)
    74aa:	50dc                	lw	a5,36(s1)
    74ac:	438c                	lw	a1,0(a5)
    74ae:	cd89                	beqz	a1,74c8 <_dtoa_r+0x6a>
    74b0:	43d8                	lw	a4,4(a5)
    74b2:	4785                	li	a5,1
    74b4:	8526                	mv	a0,s1
    74b6:	00e797b3          	sll	a5,a5,a4
    74ba:	c59c                	sw	a5,8(a1)
    74bc:	c1d8                	sw	a4,4(a1)
    74be:	158010ef          	jal	ra,8616 <_Bfree>
    74c2:	50dc                	lw	a5,36(s1)
    74c4:	0007a023          	sw	zero,0(a5)
    74c8:	04095363          	bgez	s2,750e <_dtoa_r+0xb0>
    74cc:	4785                	li	a5,1
    74ce:	00191c13          	slli	s8,s2,0x1
    74d2:	00f9a023          	sw	a5,0(s3)
    74d6:	001c5c13          	srli	s8,s8,0x1
    74da:	7ff007b7          	lui	a5,0x7ff00
    74de:	00fc7733          	and	a4,s8,a5
    74e2:	06f71463          	bne	a4,a5,754a <_dtoa_r+0xec>
    74e6:	5742                	lw	a4,48(sp)
    74e8:	6789                	lui	a5,0x2
    74ea:	0c32                	slli	s8,s8,0xc
    74ec:	70f78793          	addi	a5,a5,1807 # 270f <EXTI9_5_IRQHandler+0x13>
    74f0:	00cc5c13          	srli	s8,s8,0xc
    74f4:	c31c                	sw	a5,0(a4)
    74f6:	008c6c33          	or	s8,s8,s0
    74fa:	320c05e3          	beqz	s8,8024 <_dtoa_r+0xbc6>
    74fe:	47d2                	lw	a5,20(sp)
    7500:	eb91                	bnez	a5,7514 <_dtoa_r+0xb6>
    7502:	00003797          	auipc	a5,0x3
    7506:	d4a78793          	addi	a5,a5,-694 # a24c <__clz_tab+0x1a0>
    750a:	c03e                	sw	a5,0(sp)
    750c:	a839                	j	752a <_dtoa_r+0xcc>
    750e:	0009a023          	sw	zero,0(s3)
    7512:	b7e1                	j	74da <_dtoa_r+0x7c>
    7514:	00003797          	auipc	a5,0x3
    7518:	d3878793          	addi	a5,a5,-712 # a24c <__clz_tab+0x1a0>
    751c:	c03e                	sw	a5,0(sp)
    751e:	00003797          	auipc	a5,0x3
    7522:	d3178793          	addi	a5,a5,-719 # a24f <__clz_tab+0x1a3>
    7526:	4752                	lw	a4,20(sp)
    7528:	c31c                	sw	a5,0(a4)
    752a:	40ba                	lw	ra,140(sp)
    752c:	442a                	lw	s0,136(sp)
    752e:	4502                	lw	a0,0(sp)
    7530:	449a                	lw	s1,132(sp)
    7532:	490a                	lw	s2,128(sp)
    7534:	59f6                	lw	s3,124(sp)
    7536:	5a66                	lw	s4,120(sp)
    7538:	5ad6                	lw	s5,116(sp)
    753a:	5b46                	lw	s6,112(sp)
    753c:	5bb6                	lw	s7,108(sp)
    753e:	5c26                	lw	s8,104(sp)
    7540:	5c96                	lw	s9,100(sp)
    7542:	5d06                	lw	s10,96(sp)
    7544:	4df6                	lw	s11,92(sp)
    7546:	6149                	addi	sp,sp,144
    7548:	8082                	ret
    754a:	4601                	li	a2,0
    754c:	4681                	li	a3,0
    754e:	8522                	mv	a0,s0
    7550:	85e2                	mv	a1,s8
    7552:	ce22                	sw	s0,28(sp)
    7554:	d462                	sw	s8,40(sp)
    7556:	a96fe0ef          	jal	ra,57ec <__eqdf2>
    755a:	e105                	bnez	a0,757a <_dtoa_r+0x11c>
    755c:	5742                	lw	a4,48(sp)
    755e:	4785                	li	a5,1
    7560:	c31c                	sw	a5,0(a4)
    7562:	00003797          	auipc	a5,0x3
    7566:	c6678793          	addi	a5,a5,-922 # a1c8 <__clz_tab+0x11c>
    756a:	c03e                	sw	a5,0(sp)
    756c:	47d2                	lw	a5,20(sp)
    756e:	dfd5                	beqz	a5,752a <_dtoa_r+0xcc>
    7570:	00003797          	auipc	a5,0x3
    7574:	c5978793          	addi	a5,a5,-935 # a1c9 <__clz_tab+0x11d>
    7578:	b77d                	j	7526 <_dtoa_r+0xc8>
    757a:	00b8                	addi	a4,sp,72
    757c:	00f4                	addi	a3,sp,76
    757e:	8662                	mv	a2,s8
    7580:	85a2                	mv	a1,s0
    7582:	8526                	mv	a0,s1
    7584:	014c5913          	srli	s2,s8,0x14
    7588:	62a010ef          	jal	ra,8bb2 <__d2b>
    758c:	7ff97913          	andi	s2,s2,2047
    7590:	89aa                	mv	s3,a0
    7592:	4aa6                	lw	s5,72(sp)
    7594:	10090d63          	beqz	s2,76ae <_dtoa_r+0x250>
    7598:	57a2                	lw	a5,40(sp)
    759a:	4572                	lw	a0,28(sp)
    759c:	c0190913          	addi	s2,s2,-1023
    75a0:	00c79593          	slli	a1,a5,0xc
    75a4:	81b1                	srli	a1,a1,0xc
    75a6:	3ff007b7          	lui	a5,0x3ff00
    75aa:	8ddd                	or	a1,a1,a5
    75ac:	dc02                	sw	zero,56(sp)
    75ae:	00003797          	auipc	a5,0x3
    75b2:	c4a78793          	addi	a5,a5,-950 # a1f8 <__clz_tab+0x14c>
    75b6:	4390                	lw	a2,0(a5)
    75b8:	43d4                	lw	a3,4(a5)
    75ba:	80bfe0ef          	jal	ra,5dc4 <__subdf3>
    75be:	00003797          	auipc	a5,0x3
    75c2:	c4278793          	addi	a5,a5,-958 # a200 <__clz_tab+0x154>
    75c6:	4390                	lw	a2,0(a5)
    75c8:	43d4                	lw	a3,4(a5)
    75ca:	b42fe0ef          	jal	ra,590c <__muldf3>
    75ce:	00003797          	auipc	a5,0x3
    75d2:	c3a78793          	addi	a5,a5,-966 # a208 <__clz_tab+0x15c>
    75d6:	4390                	lw	a2,0(a5)
    75d8:	43d4                	lw	a3,4(a5)
    75da:	d2efd0ef          	jal	ra,4b08 <__adddf3>
    75de:	8b2a                	mv	s6,a0
    75e0:	854a                	mv	a0,s2
    75e2:	8bae                	mv	s7,a1
    75e4:	f83fe0ef          	jal	ra,6566 <__floatsidf>
    75e8:	00003797          	auipc	a5,0x3
    75ec:	c2878793          	addi	a5,a5,-984 # a210 <__clz_tab+0x164>
    75f0:	4390                	lw	a2,0(a5)
    75f2:	43d4                	lw	a3,4(a5)
    75f4:	b18fe0ef          	jal	ra,590c <__muldf3>
    75f8:	862a                	mv	a2,a0
    75fa:	86ae                	mv	a3,a1
    75fc:	855a                	mv	a0,s6
    75fe:	85de                	mv	a1,s7
    7600:	d08fd0ef          	jal	ra,4b08 <__adddf3>
    7604:	8b2a                	mv	s6,a0
    7606:	8bae                	mv	s7,a1
    7608:	ef7fe0ef          	jal	ra,64fe <__fixdfsi>
    760c:	842a                	mv	s0,a0
    760e:	4601                	li	a2,0
    7610:	4681                	li	a3,0
    7612:	855a                	mv	a0,s6
    7614:	85de                	mv	a1,s7
    7616:	a40fe0ef          	jal	ra,5856 <__ledf2>
    761a:	00055b63          	bgez	a0,7630 <_dtoa_r+0x1d2>
    761e:	8522                	mv	a0,s0
    7620:	f47fe0ef          	jal	ra,6566 <__floatsidf>
    7624:	865a                	mv	a2,s6
    7626:	86de                	mv	a3,s7
    7628:	9c4fe0ef          	jal	ra,57ec <__eqdf2>
    762c:	c111                	beqz	a0,7630 <_dtoa_r+0x1d2>
    762e:	147d                	addi	s0,s0,-1
    7630:	4705                	li	a4,1
    7632:	47d9                	li	a5,22
    7634:	d63a                	sw	a4,44(sp)
    7636:	0287e363          	bltu	a5,s0,765c <_dtoa_r+0x1fe>
    763a:	00341713          	slli	a4,s0,0x3
    763e:	00003797          	auipc	a5,0x3
    7642:	c9a78793          	addi	a5,a5,-870 # a2d8 <__mprec_tens>
    7646:	97ba                	add	a5,a5,a4
    7648:	4390                	lw	a2,0(a5)
    764a:	43d4                	lw	a3,4(a5)
    764c:	4572                	lw	a0,28(sp)
    764e:	55a2                	lw	a1,40(sp)
    7650:	a06fe0ef          	jal	ra,5856 <__ledf2>
    7654:	00055363          	bgez	a0,765a <_dtoa_r+0x1fc>
    7658:	147d                	addi	s0,s0,-1
    765a:	d602                	sw	zero,44(sp)
    765c:	412a8933          	sub	s2,s5,s2
    7660:	fff90b93          	addi	s7,s2,-1
    7664:	4b01                	li	s6,0
    7666:	000bd663          	bgez	s7,7672 <_dtoa_r+0x214>
    766a:	4b05                	li	s6,1
    766c:	412b0b33          	sub	s6,s6,s2
    7670:	4b81                	li	s7,0
    7672:	06044e63          	bltz	s0,76ee <_dtoa_r+0x290>
    7676:	9ba2                	add	s7,s7,s0
    7678:	cc22                	sw	s0,24(sp)
    767a:	4a81                	li	s5,0
    767c:	4712                	lw	a4,4(sp)
    767e:	47a5                	li	a5,9
    7680:	14e7e563          	bltu	a5,a4,77ca <_dtoa_r+0x36c>
    7684:	4795                	li	a5,5
    7686:	4c85                	li	s9,1
    7688:	00e7d663          	bge	a5,a4,7694 <_dtoa_r+0x236>
    768c:	ffc70793          	addi	a5,a4,-4
    7690:	c23e                	sw	a5,4(sp)
    7692:	4c81                	li	s9,0
    7694:	4712                	lw	a4,4(sp)
    7696:	478d                	li	a5,3
    7698:	10f70e63          	beq	a4,a5,77b4 <_dtoa_r+0x356>
    769c:	04e7cf63          	blt	a5,a4,76fa <_dtoa_r+0x29c>
    76a0:	4789                	li	a5,2
    76a2:	c802                	sw	zero,16(sp)
    76a4:	06f70d63          	beq	a4,a5,771e <_dtoa_r+0x2c0>
    76a8:	4785                	li	a5,1
    76aa:	c83e                	sw	a5,16(sp)
    76ac:	a08d                	j	770e <_dtoa_r+0x2b0>
    76ae:	4936                	lw	s2,76(sp)
    76b0:	02000793          	li	a5,32
    76b4:	9956                	add	s2,s2,s5
    76b6:	43290713          	addi	a4,s2,1074
    76ba:	02e7d563          	bge	a5,a4,76e4 <_dtoa_r+0x286>
    76be:	04000513          	li	a0,64
    76c2:	8d19                	sub	a0,a0,a4
    76c4:	41290793          	addi	a5,s2,1042
    76c8:	00ac1533          	sll	a0,s8,a0
    76cc:	00f45433          	srl	s0,s0,a5
    76d0:	8d41                	or	a0,a0,s0
    76d2:	585010ef          	jal	ra,9456 <__floatunsidf>
    76d6:	fe1007b7          	lui	a5,0xfe100
    76da:	95be                	add	a1,a1,a5
    76dc:	4785                	li	a5,1
    76de:	197d                	addi	s2,s2,-1
    76e0:	dc3e                	sw	a5,56(sp)
    76e2:	b5f1                	j	75ae <_dtoa_r+0x150>
    76e4:	40e78533          	sub	a0,a5,a4
    76e8:	00a41533          	sll	a0,s0,a0
    76ec:	b7dd                	j	76d2 <_dtoa_r+0x274>
    76ee:	408b0b33          	sub	s6,s6,s0
    76f2:	40800ab3          	neg	s5,s0
    76f6:	cc02                	sw	zero,24(sp)
    76f8:	b751                	j	767c <_dtoa_r+0x21e>
    76fa:	4712                	lw	a4,4(sp)
    76fc:	4791                	li	a5,4
    76fe:	00f70e63          	beq	a4,a5,771a <_dtoa_r+0x2bc>
    7702:	4705                	li	a4,1
    7704:	c83a                	sw	a4,16(sp)
    7706:	4712                	lw	a4,4(sp)
    7708:	4795                	li	a5,5
    770a:	0af70663          	beq	a4,a5,77b6 <_dtoa_r+0x358>
    770e:	57fd                	li	a5,-1
    7710:	c43e                	sw	a5,8(sp)
    7712:	5dfd                	li	s11,-1
    7714:	47c9                	li	a5,18
    7716:	c602                	sw	zero,12(sp)
    7718:	a819                	j	772e <_dtoa_r+0x2d0>
    771a:	4785                	li	a5,1
    771c:	c83e                	sw	a5,16(sp)
    771e:	47b2                	lw	a5,12(sp)
    7720:	0af04863          	bgtz	a5,77d0 <_dtoa_r+0x372>
    7724:	4785                	li	a5,1
    7726:	4705                	li	a4,1
    7728:	c43e                	sw	a5,8(sp)
    772a:	4d85                	li	s11,1
    772c:	c63a                	sw	a4,12(sp)
    772e:	0244a903          	lw	s2,36(s1)
    7732:	4711                	li	a4,4
    7734:	00092223          	sw	zero,4(s2)
    7738:	01470693          	addi	a3,a4,20
    773c:	00492583          	lw	a1,4(s2)
    7740:	08d7fc63          	bgeu	a5,a3,77d8 <_dtoa_r+0x37a>
    7744:	8526                	mv	a0,s1
    7746:	649000ef          	jal	ra,858e <_Balloc>
    774a:	50dc                	lw	a5,36(s1)
    774c:	00a92023          	sw	a0,0(s2)
    7750:	439c                	lw	a5,0(a5)
    7752:	c03e                	sw	a5,0(sp)
    7754:	47b9                	li	a5,14
    7756:	1db7e663          	bltu	a5,s11,7922 <_dtoa_r+0x4c4>
    775a:	1c0c8463          	beqz	s9,7922 <_dtoa_r+0x4c4>
    775e:	0a805e63          	blez	s0,781a <_dtoa_r+0x3bc>
    7762:	00f47793          	andi	a5,s0,15
    7766:	00379713          	slli	a4,a5,0x3
    776a:	40445c93          	srai	s9,s0,0x4
    776e:	00003797          	auipc	a5,0x3
    7772:	b6a78793          	addi	a5,a5,-1174 # a2d8 <__mprec_tens>
    7776:	97ba                	add	a5,a5,a4
    7778:	010cf693          	andi	a3,s9,16
    777c:	4398                	lw	a4,0(a5)
    777e:	4909                	li	s2,2
    7780:	43dc                	lw	a5,4(a5)
    7782:	c685                	beqz	a3,77aa <_dtoa_r+0x34c>
    7784:	00003697          	auipc	a3,0x3
    7788:	b2c68693          	addi	a3,a3,-1236 # a2b0 <__mprec_bigtens>
    778c:	5290                	lw	a2,32(a3)
    778e:	4572                	lw	a0,28(sp)
    7790:	52d4                	lw	a3,36(a3)
    7792:	55a2                	lw	a1,40(sp)
    7794:	d03a                	sw	a4,32(sp)
    7796:	d23e                	sw	a5,36(sp)
    7798:	aa1fd0ef          	jal	ra,5238 <__divdf3>
    779c:	5702                	lw	a4,32(sp)
    779e:	5792                	lw	a5,36(sp)
    77a0:	00fcfc93          	andi	s9,s9,15
    77a4:	8a2a                	mv	s4,a0
    77a6:	8c2e                	mv	s8,a1
    77a8:	490d                	li	s2,3
    77aa:	00003d17          	auipc	s10,0x3
    77ae:	b06d0d13          	addi	s10,s10,-1274 # a2b0 <__mprec_bigtens>
    77b2:	a889                	j	7804 <_dtoa_r+0x3a6>
    77b4:	c802                	sw	zero,16(sp)
    77b6:	47b2                	lw	a5,12(sp)
    77b8:	97a2                	add	a5,a5,s0
    77ba:	c43e                	sw	a5,8(sp)
    77bc:	00178d93          	addi	s11,a5,1
    77c0:	87ee                	mv	a5,s11
    77c2:	f7b046e3          	bgtz	s11,772e <_dtoa_r+0x2d0>
    77c6:	4785                	li	a5,1
    77c8:	b79d                	j	772e <_dtoa_r+0x2d0>
    77ca:	4c85                	li	s9,1
    77cc:	c202                	sw	zero,4(sp)
    77ce:	bde9                	j	76a8 <_dtoa_r+0x24a>
    77d0:	47b2                	lw	a5,12(sp)
    77d2:	c43e                	sw	a5,8(sp)
    77d4:	8dbe                	mv	s11,a5
    77d6:	bfa1                	j	772e <_dtoa_r+0x2d0>
    77d8:	0585                	addi	a1,a1,1
    77da:	00b92223          	sw	a1,4(s2)
    77de:	0706                	slli	a4,a4,0x1
    77e0:	bfa1                	j	7738 <_dtoa_r+0x2da>
    77e2:	001cf693          	andi	a3,s9,1
    77e6:	ce81                	beqz	a3,77fe <_dtoa_r+0x3a0>
    77e8:	000d2603          	lw	a2,0(s10)
    77ec:	004d2683          	lw	a3,4(s10)
    77f0:	853a                	mv	a0,a4
    77f2:	85be                	mv	a1,a5
    77f4:	918fe0ef          	jal	ra,590c <__muldf3>
    77f8:	0905                	addi	s2,s2,1
    77fa:	872a                	mv	a4,a0
    77fc:	87ae                	mv	a5,a1
    77fe:	401cdc93          	srai	s9,s9,0x1
    7802:	0d21                	addi	s10,s10,8
    7804:	fc0c9fe3          	bnez	s9,77e2 <_dtoa_r+0x384>
    7808:	863a                	mv	a2,a4
    780a:	86be                	mv	a3,a5
    780c:	8552                	mv	a0,s4
    780e:	85e2                	mv	a1,s8
    7810:	a29fd0ef          	jal	ra,5238 <__divdf3>
    7814:	8a2a                	mv	s4,a0
    7816:	8c2e                	mv	s8,a1
    7818:	a081                	j	7858 <_dtoa_r+0x3fa>
    781a:	4909                	li	s2,2
    781c:	cc15                	beqz	s0,7858 <_dtoa_r+0x3fa>
    781e:	40800cb3          	neg	s9,s0
    7822:	00fcf793          	andi	a5,s9,15
    7826:	00379713          	slli	a4,a5,0x3
    782a:	00003797          	auipc	a5,0x3
    782e:	aae78793          	addi	a5,a5,-1362 # a2d8 <__mprec_tens>
    7832:	97ba                	add	a5,a5,a4
    7834:	4390                	lw	a2,0(a5)
    7836:	43d4                	lw	a3,4(a5)
    7838:	4572                	lw	a0,28(sp)
    783a:	55a2                	lw	a1,40(sp)
    783c:	404cdc93          	srai	s9,s9,0x4
    7840:	00003d17          	auipc	s10,0x3
    7844:	a70d0d13          	addi	s10,s10,-1424 # a2b0 <__mprec_bigtens>
    7848:	8c4fe0ef          	jal	ra,590c <__muldf3>
    784c:	8a2a                	mv	s4,a0
    784e:	8c2e                	mv	s8,a1
    7850:	4781                	li	a5,0
    7852:	120c9c63          	bnez	s9,798a <_dtoa_r+0x52c>
    7856:	ffdd                	bnez	a5,7814 <_dtoa_r+0x3b6>
    7858:	57b2                	lw	a5,44(sp)
    785a:	14078763          	beqz	a5,79a8 <_dtoa_r+0x54a>
    785e:	00003717          	auipc	a4,0x3
    7862:	9ba70713          	addi	a4,a4,-1606 # a218 <__clz_tab+0x16c>
    7866:	4310                	lw	a2,0(a4)
    7868:	4354                	lw	a3,4(a4)
    786a:	8552                	mv	a0,s4
    786c:	85e2                	mv	a1,s8
    786e:	d052                	sw	s4,32(sp)
    7870:	fe7fd0ef          	jal	ra,5856 <__ledf2>
    7874:	12055a63          	bgez	a0,79a8 <_dtoa_r+0x54a>
    7878:	120d8b63          	beqz	s11,79ae <_dtoa_r+0x550>
    787c:	47a2                	lw	a5,8(sp)
    787e:	0af05063          	blez	a5,791e <_dtoa_r+0x4c0>
    7882:	00003717          	auipc	a4,0x3
    7886:	99e70713          	addi	a4,a4,-1634 # a220 <__clz_tab+0x174>
    788a:	5782                	lw	a5,32(sp)
    788c:	4310                	lw	a2,0(a4)
    788e:	4354                	lw	a3,4(a4)
    7890:	853e                	mv	a0,a5
    7892:	85e2                	mv	a1,s8
    7894:	878fe0ef          	jal	ra,590c <__muldf3>
    7898:	47a2                	lw	a5,8(sp)
    789a:	fff40d13          	addi	s10,s0,-1
    789e:	8a2a                	mv	s4,a0
    78a0:	8c2e                	mv	s8,a1
    78a2:	0905                	addi	s2,s2,1
    78a4:	8762                	mv	a4,s8
    78a6:	854a                	mv	a0,s2
    78a8:	de3e                	sw	a5,60(sp)
    78aa:	da52                	sw	s4,52(sp)
    78ac:	8cba                	mv	s9,a4
    78ae:	d03a                	sw	a4,32(sp)
    78b0:	cb7fe0ef          	jal	ra,6566 <__floatsidf>
    78b4:	5852                	lw	a6,52(sp)
    78b6:	5702                	lw	a4,32(sp)
    78b8:	fcc00937          	lui	s2,0xfcc00
    78bc:	8642                	mv	a2,a6
    78be:	86ba                	mv	a3,a4
    78c0:	84cfe0ef          	jal	ra,590c <__muldf3>
    78c4:	00003697          	auipc	a3,0x3
    78c8:	96468693          	addi	a3,a3,-1692 # a228 <__clz_tab+0x17c>
    78cc:	4290                	lw	a2,0(a3)
    78ce:	42d4                	lw	a3,4(a3)
    78d0:	8c52                	mv	s8,s4
    78d2:	a36fd0ef          	jal	ra,4b08 <__adddf3>
    78d6:	57f2                	lw	a5,60(sp)
    78d8:	8a2a                	mv	s4,a0
    78da:	992e                	add	s2,s2,a1
    78dc:	efe1                	bnez	a5,79b4 <_dtoa_r+0x556>
    78de:	00003797          	auipc	a5,0x3
    78e2:	95278793          	addi	a5,a5,-1710 # a230 <__clz_tab+0x184>
    78e6:	5852                	lw	a6,52(sp)
    78e8:	5702                	lw	a4,32(sp)
    78ea:	4390                	lw	a2,0(a5)
    78ec:	43d4                	lw	a3,4(a5)
    78ee:	8542                	mv	a0,a6
    78f0:	85ba                	mv	a1,a4
    78f2:	cd2fe0ef          	jal	ra,5dc4 <__subdf3>
    78f6:	8652                	mv	a2,s4
    78f8:	86ca                	mv	a3,s2
    78fa:	8c2a                	mv	s8,a0
    78fc:	8cae                	mv	s9,a1
    78fe:	26f010ef          	jal	ra,936c <__gedf2>
    7902:	54a04a63          	bgtz	a0,7e56 <_dtoa_r+0x9f8>
    7906:	800007b7          	lui	a5,0x80000
    790a:	0127c7b3          	xor	a5,a5,s2
    790e:	8652                	mv	a2,s4
    7910:	86be                	mv	a3,a5
    7912:	8562                	mv	a0,s8
    7914:	85e6                	mv	a1,s9
    7916:	f41fd0ef          	jal	ra,5856 <__ledf2>
    791a:	52054b63          	bltz	a0,7e50 <_dtoa_r+0x9f2>
    791e:	4a72                	lw	s4,28(sp)
    7920:	5c22                	lw	s8,40(sp)
    7922:	47b6                	lw	a5,76(sp)
    7924:	3007c763          	bltz	a5,7c32 <_dtoa_r+0x7d4>
    7928:	4739                	li	a4,14
    792a:	30874463          	blt	a4,s0,7c32 <_dtoa_r+0x7d4>
    792e:	00341713          	slli	a4,s0,0x3
    7932:	00003797          	auipc	a5,0x3
    7936:	9a678793          	addi	a5,a5,-1626 # a2d8 <__mprec_tens>
    793a:	97ba                	add	a5,a5,a4
    793c:	0007ab03          	lw	s6,0(a5)
    7940:	0047ab83          	lw	s7,4(a5)
    7944:	47b2                	lw	a5,12(sp)
    7946:	2007d263          	bgez	a5,7b4a <_dtoa_r+0x6ec>
    794a:	21b04063          	bgtz	s11,7b4a <_dtoa_r+0x6ec>
    794e:	500d9163          	bnez	s11,7e50 <_dtoa_r+0x9f2>
    7952:	00003797          	auipc	a5,0x3
    7956:	8de78793          	addi	a5,a5,-1826 # a230 <__clz_tab+0x184>
    795a:	4390                	lw	a2,0(a5)
    795c:	43d4                	lw	a3,4(a5)
    795e:	855a                	mv	a0,s6
    7960:	85de                	mv	a1,s7
    7962:	fabfd0ef          	jal	ra,590c <__muldf3>
    7966:	8652                	mv	a2,s4
    7968:	86e2                	mv	a3,s8
    796a:	203010ef          	jal	ra,936c <__gedf2>
    796e:	4a81                	li	s5,0
    7970:	4901                	li	s2,0
    7972:	4a055763          	bgez	a0,7e20 <_dtoa_r+0x9c2>
    7976:	4782                	lw	a5,0(sp)
    7978:	4702                	lw	a4,0(sp)
    797a:	0405                	addi	s0,s0,1
    797c:	00178a13          	addi	s4,a5,1
    7980:	03100793          	li	a5,49
    7984:	00f70023          	sb	a5,0(a4)
    7988:	a145                	j	7e28 <_dtoa_r+0x9ca>
    798a:	001cf713          	andi	a4,s9,1
    798e:	cb09                	beqz	a4,79a0 <_dtoa_r+0x542>
    7990:	000d2603          	lw	a2,0(s10)
    7994:	004d2683          	lw	a3,4(s10)
    7998:	0905                	addi	s2,s2,1
    799a:	f73fd0ef          	jal	ra,590c <__muldf3>
    799e:	4785                	li	a5,1
    79a0:	401cdc93          	srai	s9,s9,0x1
    79a4:	0d21                	addi	s10,s10,8
    79a6:	b575                	j	7852 <_dtoa_r+0x3f4>
    79a8:	8d22                	mv	s10,s0
    79aa:	87ee                	mv	a5,s11
    79ac:	bde5                	j	78a4 <_dtoa_r+0x446>
    79ae:	8d22                	mv	s10,s0
    79b0:	4781                	li	a5,0
    79b2:	bdcd                	j	78a4 <_dtoa_r+0x446>
    79b4:	fff78693          	addi	a3,a5,-1
    79b8:	00369613          	slli	a2,a3,0x3
    79bc:	00003697          	auipc	a3,0x3
    79c0:	91c68693          	addi	a3,a3,-1764 # a2d8 <__mprec_tens>
    79c4:	96b2                	add	a3,a3,a2
    79c6:	4288                	lw	a0,0(a3)
    79c8:	42cc                	lw	a1,4(a3)
    79ca:	4682                	lw	a3,0(sp)
    79cc:	97b6                	add	a5,a5,a3
    79ce:	da3e                	sw	a5,52(sp)
    79d0:	47c2                	lw	a5,16(sp)
    79d2:	c3e9                	beqz	a5,7a94 <_dtoa_r+0x636>
    79d4:	00003797          	auipc	a5,0x3
    79d8:	86478793          	addi	a5,a5,-1948 # a238 <__clz_tab+0x18c>
    79dc:	862a                	mv	a2,a0
    79de:	86ae                	mv	a3,a1
    79e0:	4388                	lw	a0,0(a5)
    79e2:	43cc                	lw	a1,4(a5)
    79e4:	de4a                	sw	s2,60(sp)
    79e6:	d052                	sw	s4,32(sp)
    79e8:	851fd0ef          	jal	ra,5238 <__divdf3>
    79ec:	5802                	lw	a6,32(sp)
    79ee:	5772                	lw	a4,60(sp)
    79f0:	00003917          	auipc	s2,0x3
    79f4:	83090913          	addi	s2,s2,-2000 # a220 <__clz_tab+0x174>
    79f8:	8642                	mv	a2,a6
    79fa:	86ba                	mv	a3,a4
    79fc:	bc8fe0ef          	jal	ra,5dc4 <__subdf3>
    7a00:	4a02                	lw	s4,0(sp)
    7a02:	d02a                	sw	a0,32(sp)
    7a04:	d22e                	sw	a1,36(sp)
    7a06:	85e6                	mv	a1,s9
    7a08:	8562                	mv	a0,s8
    7a0a:	af5fe0ef          	jal	ra,64fe <__fixdfsi>
    7a0e:	de2a                	sw	a0,60(sp)
    7a10:	b57fe0ef          	jal	ra,6566 <__floatsidf>
    7a14:	862a                	mv	a2,a0
    7a16:	86ae                	mv	a3,a1
    7a18:	8562                	mv	a0,s8
    7a1a:	85e6                	mv	a1,s9
    7a1c:	ba8fe0ef          	jal	ra,5dc4 <__subdf3>
    7a20:	57f2                	lw	a5,60(sp)
    7a22:	8c2a                	mv	s8,a0
    7a24:	8cae                	mv	s9,a1
    7a26:	862a                	mv	a2,a0
    7a28:	86ae                	mv	a3,a1
    7a2a:	5502                	lw	a0,32(sp)
    7a2c:	5592                	lw	a1,36(sp)
    7a2e:	0a05                	addi	s4,s4,1
    7a30:	03078793          	addi	a5,a5,48
    7a34:	fefa0fa3          	sb	a5,-1(s4)
    7a38:	135010ef          	jal	ra,936c <__gedf2>
    7a3c:	0ea04863          	bgtz	a0,7b2c <_dtoa_r+0x6ce>
    7a40:	00002797          	auipc	a5,0x2
    7a44:	7d878793          	addi	a5,a5,2008 # a218 <__clz_tab+0x16c>
    7a48:	4388                	lw	a0,0(a5)
    7a4a:	43cc                	lw	a1,4(a5)
    7a4c:	8662                	mv	a2,s8
    7a4e:	86e6                	mv	a3,s9
    7a50:	b74fe0ef          	jal	ra,5dc4 <__subdf3>
    7a54:	862a                	mv	a2,a0
    7a56:	86ae                	mv	a3,a1
    7a58:	5502                	lw	a0,32(sp)
    7a5a:	5592                	lw	a1,36(sp)
    7a5c:	111010ef          	jal	ra,936c <__gedf2>
    7a60:	18a04263          	bgtz	a0,7be4 <_dtoa_r+0x786>
    7a64:	57d2                	lw	a5,52(sp)
    7a66:	eafa0ce3          	beq	s4,a5,791e <_dtoa_r+0x4c0>
    7a6a:	00092603          	lw	a2,0(s2)
    7a6e:	00492683          	lw	a3,4(s2)
    7a72:	5502                	lw	a0,32(sp)
    7a74:	5592                	lw	a1,36(sp)
    7a76:	e97fd0ef          	jal	ra,590c <__muldf3>
    7a7a:	00092603          	lw	a2,0(s2)
    7a7e:	00492683          	lw	a3,4(s2)
    7a82:	d02a                	sw	a0,32(sp)
    7a84:	d22e                	sw	a1,36(sp)
    7a86:	8562                	mv	a0,s8
    7a88:	85e6                	mv	a1,s9
    7a8a:	e83fd0ef          	jal	ra,590c <__muldf3>
    7a8e:	8c2a                	mv	s8,a0
    7a90:	8cae                	mv	s9,a1
    7a92:	bf95                	j	7a06 <_dtoa_r+0x5a8>
    7a94:	8652                	mv	a2,s4
    7a96:	86ca                	mv	a3,s2
    7a98:	e75fd0ef          	jal	ra,590c <__muldf3>
    7a9c:	5a52                	lw	s4,52(sp)
    7a9e:	4902                	lw	s2,0(sp)
    7aa0:	d02a                	sw	a0,32(sp)
    7aa2:	d22e                	sw	a1,36(sp)
    7aa4:	85e6                	mv	a1,s9
    7aa6:	8562                	mv	a0,s8
    7aa8:	a57fe0ef          	jal	ra,64fe <__fixdfsi>
    7aac:	de2a                	sw	a0,60(sp)
    7aae:	ab9fe0ef          	jal	ra,6566 <__floatsidf>
    7ab2:	862a                	mv	a2,a0
    7ab4:	86ae                	mv	a3,a1
    7ab6:	8562                	mv	a0,s8
    7ab8:	85e6                	mv	a1,s9
    7aba:	b0afe0ef          	jal	ra,5dc4 <__subdf3>
    7abe:	5772                	lw	a4,60(sp)
    7ac0:	57d2                	lw	a5,52(sp)
    7ac2:	0905                	addi	s2,s2,1
    7ac4:	03070713          	addi	a4,a4,48
    7ac8:	fee90fa3          	sb	a4,-1(s2)
    7acc:	8c2a                	mv	s8,a0
    7ace:	8cae                	mv	s9,a1
    7ad0:	06f91263          	bne	s2,a5,7b34 <_dtoa_r+0x6d6>
    7ad4:	00002917          	auipc	s2,0x2
    7ad8:	76490913          	addi	s2,s2,1892 # a238 <__clz_tab+0x18c>
    7adc:	00092603          	lw	a2,0(s2)
    7ae0:	00492683          	lw	a3,4(s2)
    7ae4:	5502                	lw	a0,32(sp)
    7ae6:	5592                	lw	a1,36(sp)
    7ae8:	820fd0ef          	jal	ra,4b08 <__adddf3>
    7aec:	862a                	mv	a2,a0
    7aee:	86ae                	mv	a3,a1
    7af0:	8562                	mv	a0,s8
    7af2:	85e6                	mv	a1,s9
    7af4:	079010ef          	jal	ra,936c <__gedf2>
    7af8:	0ea04663          	bgtz	a0,7be4 <_dtoa_r+0x786>
    7afc:	5602                	lw	a2,32(sp)
    7afe:	5692                	lw	a3,36(sp)
    7b00:	00092503          	lw	a0,0(s2)
    7b04:	00492583          	lw	a1,4(s2)
    7b08:	abcfe0ef          	jal	ra,5dc4 <__subdf3>
    7b0c:	862a                	mv	a2,a0
    7b0e:	86ae                	mv	a3,a1
    7b10:	8562                	mv	a0,s8
    7b12:	85e6                	mv	a1,s9
    7b14:	d43fd0ef          	jal	ra,5856 <__ledf2>
    7b18:	03000793          	li	a5,48
    7b1c:	e00551e3          	bgez	a0,791e <_dtoa_r+0x4c0>
    7b20:	fffa4703          	lbu	a4,-1(s4)
    7b24:	fffa0693          	addi	a3,s4,-1
    7b28:	00f70463          	beq	a4,a5,7b30 <_dtoa_r+0x6d2>
    7b2c:	846a                	mv	s0,s10
    7b2e:	a859                	j	7bc4 <_dtoa_r+0x766>
    7b30:	8a36                	mv	s4,a3
    7b32:	b7fd                	j	7b20 <_dtoa_r+0x6c2>
    7b34:	00002797          	auipc	a5,0x2
    7b38:	6ec78793          	addi	a5,a5,1772 # a220 <__clz_tab+0x174>
    7b3c:	4390                	lw	a2,0(a5)
    7b3e:	43d4                	lw	a3,4(a5)
    7b40:	dcdfd0ef          	jal	ra,590c <__muldf3>
    7b44:	8c2a                	mv	s8,a0
    7b46:	8cae                	mv	s9,a1
    7b48:	bfb1                	j	7aa4 <_dtoa_r+0x646>
    7b4a:	87e2                	mv	a5,s8
    7b4c:	8cbe                	mv	s9,a5
    7b4e:	4782                	lw	a5,0(sp)
    7b50:	8c52                	mv	s8,s4
    7b52:	00002a97          	auipc	s5,0x2
    7b56:	6cea8a93          	addi	s5,s5,1742 # a220 <__clz_tab+0x174>
    7b5a:	00178913          	addi	s2,a5,1
    7b5e:	9dbe                	add	s11,s11,a5
    7b60:	865a                	mv	a2,s6
    7b62:	86de                	mv	a3,s7
    7b64:	8562                	mv	a0,s8
    7b66:	85e6                	mv	a1,s9
    7b68:	ed0fd0ef          	jal	ra,5238 <__divdf3>
    7b6c:	993fe0ef          	jal	ra,64fe <__fixdfsi>
    7b70:	8d2a                	mv	s10,a0
    7b72:	9f5fe0ef          	jal	ra,6566 <__floatsidf>
    7b76:	865a                	mv	a2,s6
    7b78:	86de                	mv	a3,s7
    7b7a:	d93fd0ef          	jal	ra,590c <__muldf3>
    7b7e:	862a                	mv	a2,a0
    7b80:	86ae                	mv	a3,a1
    7b82:	8562                	mv	a0,s8
    7b84:	85e6                	mv	a1,s9
    7b86:	a3efe0ef          	jal	ra,5dc4 <__subdf3>
    7b8a:	030d0793          	addi	a5,s10,48
    7b8e:	fef90fa3          	sb	a5,-1(s2)
    7b92:	862a                	mv	a2,a0
    7b94:	86ae                	mv	a3,a1
    7b96:	8a4a                	mv	s4,s2
    7b98:	072d9e63          	bne	s11,s2,7c14 <_dtoa_r+0x7b6>
    7b9c:	f6dfc0ef          	jal	ra,4b08 <__adddf3>
    7ba0:	865a                	mv	a2,s6
    7ba2:	86de                	mv	a3,s7
    7ba4:	8c2a                	mv	s8,a0
    7ba6:	8cae                	mv	s9,a1
    7ba8:	7c4010ef          	jal	ra,936c <__gedf2>
    7bac:	02a04b63          	bgtz	a0,7be2 <_dtoa_r+0x784>
    7bb0:	865a                	mv	a2,s6
    7bb2:	86de                	mv	a3,s7
    7bb4:	8562                	mv	a0,s8
    7bb6:	85e6                	mv	a1,s9
    7bb8:	c35fd0ef          	jal	ra,57ec <__eqdf2>
    7bbc:	e501                	bnez	a0,7bc4 <_dtoa_r+0x766>
    7bbe:	001d7793          	andi	a5,s10,1
    7bc2:	e385                	bnez	a5,7be2 <_dtoa_r+0x784>
    7bc4:	85ce                	mv	a1,s3
    7bc6:	8526                	mv	a0,s1
    7bc8:	24f000ef          	jal	ra,8616 <_Bfree>
    7bcc:	57c2                	lw	a5,48(sp)
    7bce:	000a0023          	sb	zero,0(s4)
    7bd2:	0405                	addi	s0,s0,1
    7bd4:	c380                	sw	s0,0(a5)
    7bd6:	47d2                	lw	a5,20(sp)
    7bd8:	940789e3          	beqz	a5,752a <_dtoa_r+0xcc>
    7bdc:	0147a023          	sw	s4,0(a5)
    7be0:	b2a9                	j	752a <_dtoa_r+0xcc>
    7be2:	8d22                	mv	s10,s0
    7be4:	03900713          	li	a4,57
    7be8:	fffa4683          	lbu	a3,-1(s4)
    7bec:	fffa0793          	addi	a5,s4,-1
    7bf0:	00e69a63          	bne	a3,a4,7c04 <_dtoa_r+0x7a6>
    7bf4:	4682                	lw	a3,0(sp)
    7bf6:	00f69d63          	bne	a3,a5,7c10 <_dtoa_r+0x7b2>
    7bfa:	03000713          	li	a4,48
    7bfe:	0d05                	addi	s10,s10,1
    7c00:	00e68023          	sb	a4,0(a3)
    7c04:	0007c703          	lbu	a4,0(a5)
    7c08:	0705                	addi	a4,a4,1
    7c0a:	00e78023          	sb	a4,0(a5)
    7c0e:	bf39                	j	7b2c <_dtoa_r+0x6ce>
    7c10:	8a3e                	mv	s4,a5
    7c12:	bfd9                	j	7be8 <_dtoa_r+0x78a>
    7c14:	000aa603          	lw	a2,0(s5)
    7c18:	004aa683          	lw	a3,4(s5)
    7c1c:	0905                	addi	s2,s2,1
    7c1e:	ceffd0ef          	jal	ra,590c <__muldf3>
    7c22:	4601                	li	a2,0
    7c24:	4681                	li	a3,0
    7c26:	8c2a                	mv	s8,a0
    7c28:	8cae                	mv	s9,a1
    7c2a:	bc3fd0ef          	jal	ra,57ec <__eqdf2>
    7c2e:	f90d                	bnez	a0,7b60 <_dtoa_r+0x702>
    7c30:	bf51                	j	7bc4 <_dtoa_r+0x766>
    7c32:	4742                	lw	a4,16(sp)
    7c34:	10070063          	beqz	a4,7d34 <_dtoa_r+0x8d6>
    7c38:	4692                	lw	a3,4(sp)
    7c3a:	4705                	li	a4,1
    7c3c:	0cd74563          	blt	a4,a3,7d06 <_dtoa_r+0x8a8>
    7c40:	5762                	lw	a4,56(sp)
    7c42:	43378793          	addi	a5,a5,1075
    7c46:	e709                	bnez	a4,7c50 <_dtoa_r+0x7f2>
    7c48:	4726                	lw	a4,72(sp)
    7c4a:	03600793          	li	a5,54
    7c4e:	8f99                	sub	a5,a5,a4
    7c50:	8d56                	mv	s10,s5
    7c52:	8cda                	mv	s9,s6
    7c54:	4585                	li	a1,1
    7c56:	8526                	mv	a0,s1
    7c58:	9b3e                	add	s6,s6,a5
    7c5a:	9bbe                	add	s7,s7,a5
    7c5c:	347000ef          	jal	ra,87a2 <__i2b>
    7c60:	892a                	mv	s2,a0
    7c62:	01905e63          	blez	s9,7c7e <_dtoa_r+0x820>
    7c66:	01705c63          	blez	s7,7c7e <_dtoa_r+0x820>
    7c6a:	87e6                	mv	a5,s9
    7c6c:	019bd363          	bge	s7,s9,7c72 <_dtoa_r+0x814>
    7c70:	87de                	mv	a5,s7
    7c72:	40fb0b33          	sub	s6,s6,a5
    7c76:	40fc8cb3          	sub	s9,s9,a5
    7c7a:	40fb8bb3          	sub	s7,s7,a5
    7c7e:	040a8063          	beqz	s5,7cbe <_dtoa_r+0x860>
    7c82:	47c2                	lw	a5,16(sp)
    7c84:	cfc5                	beqz	a5,7d3c <_dtoa_r+0x8de>
    7c86:	03a05463          	blez	s10,7cae <_dtoa_r+0x850>
    7c8a:	85ca                	mv	a1,s2
    7c8c:	866a                	mv	a2,s10
    7c8e:	8526                	mv	a0,s1
    7c90:	473000ef          	jal	ra,8902 <__pow5mult>
    7c94:	864e                	mv	a2,s3
    7c96:	85aa                	mv	a1,a0
    7c98:	892a                	mv	s2,a0
    7c9a:	8526                	mv	a0,s1
    7c9c:	323000ef          	jal	ra,87be <__multiply>
    7ca0:	ce2a                	sw	a0,28(sp)
    7ca2:	85ce                	mv	a1,s3
    7ca4:	8526                	mv	a0,s1
    7ca6:	171000ef          	jal	ra,8616 <_Bfree>
    7caa:	47f2                	lw	a5,28(sp)
    7cac:	89be                	mv	s3,a5
    7cae:	41aa8633          	sub	a2,s5,s10
    7cb2:	c611                	beqz	a2,7cbe <_dtoa_r+0x860>
    7cb4:	85ce                	mv	a1,s3
    7cb6:	8526                	mv	a0,s1
    7cb8:	44b000ef          	jal	ra,8902 <__pow5mult>
    7cbc:	89aa                	mv	s3,a0
    7cbe:	4585                	li	a1,1
    7cc0:	8526                	mv	a0,s1
    7cc2:	2e1000ef          	jal	ra,87a2 <__i2b>
    7cc6:	47e2                	lw	a5,24(sp)
    7cc8:	8aaa                	mv	s5,a0
    7cca:	06f05b63          	blez	a5,7d40 <_dtoa_r+0x8e2>
    7cce:	863e                	mv	a2,a5
    7cd0:	85aa                	mv	a1,a0
    7cd2:	8526                	mv	a0,s1
    7cd4:	42f000ef          	jal	ra,8902 <__pow5mult>
    7cd8:	4712                	lw	a4,4(sp)
    7cda:	4785                	li	a5,1
    7cdc:	8aaa                	mv	s5,a0
    7cde:	4d01                	li	s10,0
    7ce0:	06e7c863          	blt	a5,a4,7d50 <_dtoa_r+0x8f2>
    7ce4:	4d01                	li	s10,0
    7ce6:	060a1263          	bnez	s4,7d4a <_dtoa_r+0x8ec>
    7cea:	00cc1793          	slli	a5,s8,0xc
    7cee:	8d52                	mv	s10,s4
    7cf0:	efa9                	bnez	a5,7d4a <_dtoa_r+0x8ec>
    7cf2:	7ff005b7          	lui	a1,0x7ff00
    7cf6:	00bc7c33          	and	s8,s8,a1
    7cfa:	040c0863          	beqz	s8,7d4a <_dtoa_r+0x8ec>
    7cfe:	0b05                	addi	s6,s6,1
    7d00:	0b85                	addi	s7,s7,1
    7d02:	4d05                	li	s10,1
    7d04:	a099                	j	7d4a <_dtoa_r+0x8ec>
    7d06:	fffd8d13          	addi	s10,s11,-1
    7d0a:	01aaca63          	blt	s5,s10,7d1e <_dtoa_r+0x8c0>
    7d0e:	41aa8d33          	sub	s10,s5,s10
    7d12:	000dde63          	bgez	s11,7d2e <_dtoa_r+0x8d0>
    7d16:	41bb0cb3          	sub	s9,s6,s11
    7d1a:	4781                	li	a5,0
    7d1c:	bf25                	j	7c54 <_dtoa_r+0x7f6>
    7d1e:	47e2                	lw	a5,24(sp)
    7d20:	415d0ab3          	sub	s5,s10,s5
    7d24:	97d6                	add	a5,a5,s5
    7d26:	cc3e                	sw	a5,24(sp)
    7d28:	8aea                	mv	s5,s10
    7d2a:	4d01                	li	s10,0
    7d2c:	b7dd                	j	7d12 <_dtoa_r+0x8b4>
    7d2e:	8cda                	mv	s9,s6
    7d30:	87ee                	mv	a5,s11
    7d32:	b70d                	j	7c54 <_dtoa_r+0x7f6>
    7d34:	8d56                	mv	s10,s5
    7d36:	8cda                	mv	s9,s6
    7d38:	4901                	li	s2,0
    7d3a:	b725                	j	7c62 <_dtoa_r+0x804>
    7d3c:	8656                	mv	a2,s5
    7d3e:	bf9d                	j	7cb4 <_dtoa_r+0x856>
    7d40:	4712                	lw	a4,4(sp)
    7d42:	4785                	li	a5,1
    7d44:	4d01                	li	s10,0
    7d46:	f8e7dfe3          	bge	a5,a4,7ce4 <_dtoa_r+0x886>
    7d4a:	47e2                	lw	a5,24(sp)
    7d4c:	4505                	li	a0,1
    7d4e:	cf89                	beqz	a5,7d68 <_dtoa_r+0x90a>
    7d50:	010aa783          	lw	a5,16(s5)
    7d54:	078d                	addi	a5,a5,3
    7d56:	078a                	slli	a5,a5,0x2
    7d58:	97d6                	add	a5,a5,s5
    7d5a:	43c8                	lw	a0,4(a5)
    7d5c:	197000ef          	jal	ra,86f2 <__hi0bits>
    7d60:	02000793          	li	a5,32
    7d64:	40a78533          	sub	a0,a5,a0
    7d68:	955e                	add	a0,a0,s7
    7d6a:	897d                	andi	a0,a0,31
    7d6c:	c151                	beqz	a0,7df0 <_dtoa_r+0x992>
    7d6e:	02000793          	li	a5,32
    7d72:	8f89                	sub	a5,a5,a0
    7d74:	4711                	li	a4,4
    7d76:	06f75a63          	bge	a4,a5,7dea <_dtoa_r+0x98c>
    7d7a:	47f1                	li	a5,28
    7d7c:	40a78533          	sub	a0,a5,a0
    7d80:	9b2a                	add	s6,s6,a0
    7d82:	9caa                	add	s9,s9,a0
    7d84:	9baa                	add	s7,s7,a0
    7d86:	01605863          	blez	s6,7d96 <_dtoa_r+0x938>
    7d8a:	85ce                	mv	a1,s3
    7d8c:	865a                	mv	a2,s6
    7d8e:	8526                	mv	a0,s1
    7d90:	431000ef          	jal	ra,89c0 <__lshift>
    7d94:	89aa                	mv	s3,a0
    7d96:	01705863          	blez	s7,7da6 <_dtoa_r+0x948>
    7d9a:	85d6                	mv	a1,s5
    7d9c:	865e                	mv	a2,s7
    7d9e:	8526                	mv	a0,s1
    7da0:	421000ef          	jal	ra,89c0 <__lshift>
    7da4:	8aaa                	mv	s5,a0
    7da6:	57b2                	lw	a5,44(sp)
    7da8:	c7b1                	beqz	a5,7df4 <_dtoa_r+0x996>
    7daa:	85d6                	mv	a1,s5
    7dac:	854e                	mv	a0,s3
    7dae:	4e1000ef          	jal	ra,8a8e <__mcmp>
    7db2:	04055163          	bgez	a0,7df4 <_dtoa_r+0x996>
    7db6:	85ce                	mv	a1,s3
    7db8:	4681                	li	a3,0
    7dba:	4629                	li	a2,10
    7dbc:	8526                	mv	a0,s1
    7dbe:	09d000ef          	jal	ra,865a <__multadd>
    7dc2:	47c2                	lw	a5,16(sp)
    7dc4:	147d                	addi	s0,s0,-1
    7dc6:	89aa                	mv	s3,a0
    7dc8:	26078c63          	beqz	a5,8040 <_dtoa_r+0xbe2>
    7dcc:	85ca                	mv	a1,s2
    7dce:	4681                	li	a3,0
    7dd0:	4629                	li	a2,10
    7dd2:	8526                	mv	a0,s1
    7dd4:	087000ef          	jal	ra,865a <__multadd>
    7dd8:	47a2                	lw	a5,8(sp)
    7dda:	892a                	mv	s2,a0
    7ddc:	08f04563          	bgtz	a5,7e66 <_dtoa_r+0xa08>
    7de0:	4712                	lw	a4,4(sp)
    7de2:	4789                	li	a5,2
    7de4:	08e7d163          	bge	a5,a4,7e66 <_dtoa_r+0xa08>
    7de8:	a829                	j	7e02 <_dtoa_r+0x9a4>
    7dea:	f8e78ee3          	beq	a5,a4,7d86 <_dtoa_r+0x928>
    7dee:	853e                	mv	a0,a5
    7df0:	0571                	addi	a0,a0,28
    7df2:	b779                	j	7d80 <_dtoa_r+0x922>
    7df4:	07b04563          	bgtz	s11,7e5e <_dtoa_r+0xa00>
    7df8:	4712                	lw	a4,4(sp)
    7dfa:	4789                	li	a5,2
    7dfc:	06e7d163          	bge	a5,a4,7e5e <_dtoa_r+0xa00>
    7e00:	c46e                	sw	s11,8(sp)
    7e02:	47a2                	lw	a5,8(sp)
    7e04:	ef91                	bnez	a5,7e20 <_dtoa_r+0x9c2>
    7e06:	85d6                	mv	a1,s5
    7e08:	4681                	li	a3,0
    7e0a:	4615                	li	a2,5
    7e0c:	8526                	mv	a0,s1
    7e0e:	04d000ef          	jal	ra,865a <__multadd>
    7e12:	8aaa                	mv	s5,a0
    7e14:	85aa                	mv	a1,a0
    7e16:	854e                	mv	a0,s3
    7e18:	477000ef          	jal	ra,8a8e <__mcmp>
    7e1c:	b4a04de3          	bgtz	a0,7976 <_dtoa_r+0x518>
    7e20:	47b2                	lw	a5,12(sp)
    7e22:	4a02                	lw	s4,0(sp)
    7e24:	fff7c413          	not	s0,a5
    7e28:	4b01                	li	s6,0
    7e2a:	85d6                	mv	a1,s5
    7e2c:	8526                	mv	a0,s1
    7e2e:	7e8000ef          	jal	ra,8616 <_Bfree>
    7e32:	d80909e3          	beqz	s2,7bc4 <_dtoa_r+0x766>
    7e36:	000b0863          	beqz	s6,7e46 <_dtoa_r+0x9e8>
    7e3a:	012b0663          	beq	s6,s2,7e46 <_dtoa_r+0x9e8>
    7e3e:	85da                	mv	a1,s6
    7e40:	8526                	mv	a0,s1
    7e42:	7d4000ef          	jal	ra,8616 <_Bfree>
    7e46:	85ca                	mv	a1,s2
    7e48:	8526                	mv	a0,s1
    7e4a:	7cc000ef          	jal	ra,8616 <_Bfree>
    7e4e:	bb9d                	j	7bc4 <_dtoa_r+0x766>
    7e50:	4a81                	li	s5,0
    7e52:	4901                	li	s2,0
    7e54:	b7f1                	j	7e20 <_dtoa_r+0x9c2>
    7e56:	846a                	mv	s0,s10
    7e58:	4a81                	li	s5,0
    7e5a:	4901                	li	s2,0
    7e5c:	be29                	j	7976 <_dtoa_r+0x518>
    7e5e:	47c2                	lw	a5,16(sp)
    7e60:	c46e                	sw	s11,8(sp)
    7e62:	1e078663          	beqz	a5,804e <_dtoa_r+0xbf0>
    7e66:	01905863          	blez	s9,7e76 <_dtoa_r+0xa18>
    7e6a:	85ca                	mv	a1,s2
    7e6c:	8666                	mv	a2,s9
    7e6e:	8526                	mv	a0,s1
    7e70:	351000ef          	jal	ra,89c0 <__lshift>
    7e74:	892a                	mv	s2,a0
    7e76:	854a                	mv	a0,s2
    7e78:	020d0663          	beqz	s10,7ea4 <_dtoa_r+0xa46>
    7e7c:	00492583          	lw	a1,4(s2)
    7e80:	8526                	mv	a0,s1
    7e82:	70c000ef          	jal	ra,858e <_Balloc>
    7e86:	01092603          	lw	a2,16(s2)
    7e8a:	8b2a                	mv	s6,a0
    7e8c:	00c90593          	addi	a1,s2,12
    7e90:	0609                	addi	a2,a2,2
    7e92:	060a                	slli	a2,a2,0x2
    7e94:	0531                	addi	a0,a0,12
    7e96:	fb6fe0ef          	jal	ra,664c <memcpy>
    7e9a:	4605                	li	a2,1
    7e9c:	85da                	mv	a1,s6
    7e9e:	8526                	mv	a0,s1
    7ea0:	321000ef          	jal	ra,89c0 <__lshift>
    7ea4:	4782                	lw	a5,0(sp)
    7ea6:	4722                	lw	a4,8(sp)
    7ea8:	8b4a                	mv	s6,s2
    7eaa:	00178c13          	addi	s8,a5,1
    7eae:	97ba                	add	a5,a5,a4
    7eb0:	c63e                	sw	a5,12(sp)
    7eb2:	001a7793          	andi	a5,s4,1
    7eb6:	892a                	mv	s2,a0
    7eb8:	c43e                	sw	a5,8(sp)
    7eba:	85d6                	mv	a1,s5
    7ebc:	854e                	mv	a0,s3
    7ebe:	c66ff0ef          	jal	ra,7324 <quorem>
    7ec2:	85da                	mv	a1,s6
    7ec4:	8d2a                	mv	s10,a0
    7ec6:	03050d93          	addi	s11,a0,48
    7eca:	854e                	mv	a0,s3
    7ecc:	3c3000ef          	jal	ra,8a8e <__mcmp>
    7ed0:	864a                	mv	a2,s2
    7ed2:	8baa                	mv	s7,a0
    7ed4:	85d6                	mv	a1,s5
    7ed6:	8526                	mv	a0,s1
    7ed8:	3e9000ef          	jal	ra,8ac0 <__mdiff>
    7edc:	4550                	lw	a2,12(a0)
    7ede:	fffc0c93          	addi	s9,s8,-1
    7ee2:	8a2a                	mv	s4,a0
    7ee4:	4705                	li	a4,1
    7ee6:	e611                	bnez	a2,7ef2 <_dtoa_r+0xa94>
    7ee8:	85aa                	mv	a1,a0
    7eea:	854e                	mv	a0,s3
    7eec:	3a3000ef          	jal	ra,8a8e <__mcmp>
    7ef0:	872a                	mv	a4,a0
    7ef2:	85d2                	mv	a1,s4
    7ef4:	8526                	mv	a0,s1
    7ef6:	c83a                	sw	a4,16(sp)
    7ef8:	71e000ef          	jal	ra,8616 <_Bfree>
    7efc:	4792                	lw	a5,4(sp)
    7efe:	4742                	lw	a4,16(sp)
    7f00:	8a62                	mv	s4,s8
    7f02:	00e7e6b3          	or	a3,a5,a4
    7f06:	47a2                	lw	a5,8(sp)
    7f08:	8edd                	or	a3,a3,a5
    7f0a:	ee81                	bnez	a3,7f22 <_dtoa_r+0xac4>
    7f0c:	03900713          	li	a4,57
    7f10:	04ed8863          	beq	s11,a4,7f60 <_dtoa_r+0xb02>
    7f14:	01705463          	blez	s7,7f1c <_dtoa_r+0xabe>
    7f18:	031d0d93          	addi	s11,s10,49
    7f1c:	01bc8023          	sb	s11,0(s9)
    7f20:	b729                	j	7e2a <_dtoa_r+0x9cc>
    7f22:	000bca63          	bltz	s7,7f36 <_dtoa_r+0xad8>
    7f26:	4792                	lw	a5,4(sp)
    7f28:	0177ebb3          	or	s7,a5,s7
    7f2c:	47a2                	lw	a5,8(sp)
    7f2e:	00fbebb3          	or	s7,s7,a5
    7f32:	040b9563          	bnez	s7,7f7c <_dtoa_r+0xb1e>
    7f36:	fee053e3          	blez	a4,7f1c <_dtoa_r+0xabe>
    7f3a:	85ce                	mv	a1,s3
    7f3c:	4605                	li	a2,1
    7f3e:	8526                	mv	a0,s1
    7f40:	281000ef          	jal	ra,89c0 <__lshift>
    7f44:	85d6                	mv	a1,s5
    7f46:	89aa                	mv	s3,a0
    7f48:	347000ef          	jal	ra,8a8e <__mcmp>
    7f4c:	00a04663          	bgtz	a0,7f58 <_dtoa_r+0xafa>
    7f50:	f571                	bnez	a0,7f1c <_dtoa_r+0xabe>
    7f52:	001df713          	andi	a4,s11,1
    7f56:	d379                	beqz	a4,7f1c <_dtoa_r+0xabe>
    7f58:	03900713          	li	a4,57
    7f5c:	faed9ee3          	bne	s11,a4,7f18 <_dtoa_r+0xaba>
    7f60:	03900793          	li	a5,57
    7f64:	00fc8023          	sb	a5,0(s9)
    7f68:	03900693          	li	a3,57
    7f6c:	fffa4783          	lbu	a5,-1(s4)
    7f70:	fffa0713          	addi	a4,s4,-1
    7f74:	08d78c63          	beq	a5,a3,800c <_dtoa_r+0xbae>
    7f78:	0785                	addi	a5,a5,1
    7f7a:	a045                	j	801a <_dtoa_r+0xbbc>
    7f7c:	00e05b63          	blez	a4,7f92 <_dtoa_r+0xb34>
    7f80:	03900713          	li	a4,57
    7f84:	fced8ee3          	beq	s11,a4,7f60 <_dtoa_r+0xb02>
    7f88:	001d8793          	addi	a5,s11,1
    7f8c:	00fc8023          	sb	a5,0(s9)
    7f90:	bd69                	j	7e2a <_dtoa_r+0x9cc>
    7f92:	47b2                	lw	a5,12(sp)
    7f94:	ffbc0fa3          	sb	s11,-1(s8)
    7f98:	05878163          	beq	a5,s8,7fda <_dtoa_r+0xb7c>
    7f9c:	85ce                	mv	a1,s3
    7f9e:	4681                	li	a3,0
    7fa0:	4629                	li	a2,10
    7fa2:	8526                	mv	a0,s1
    7fa4:	6b6000ef          	jal	ra,865a <__multadd>
    7fa8:	89aa                	mv	s3,a0
    7faa:	4681                	li	a3,0
    7fac:	4629                	li	a2,10
    7fae:	85da                	mv	a1,s6
    7fb0:	8526                	mv	a0,s1
    7fb2:	012b1863          	bne	s6,s2,7fc2 <_dtoa_r+0xb64>
    7fb6:	6a4000ef          	jal	ra,865a <__multadd>
    7fba:	8b2a                	mv	s6,a0
    7fbc:	892a                	mv	s2,a0
    7fbe:	0c05                	addi	s8,s8,1
    7fc0:	bded                	j	7eba <_dtoa_r+0xa5c>
    7fc2:	698000ef          	jal	ra,865a <__multadd>
    7fc6:	85ca                	mv	a1,s2
    7fc8:	8b2a                	mv	s6,a0
    7fca:	4681                	li	a3,0
    7fcc:	4629                	li	a2,10
    7fce:	8526                	mv	a0,s1
    7fd0:	68a000ef          	jal	ra,865a <__multadd>
    7fd4:	892a                	mv	s2,a0
    7fd6:	b7e5                	j	7fbe <_dtoa_r+0xb60>
    7fd8:	4b01                	li	s6,0
    7fda:	85ce                	mv	a1,s3
    7fdc:	4605                	li	a2,1
    7fde:	8526                	mv	a0,s1
    7fe0:	1e1000ef          	jal	ra,89c0 <__lshift>
    7fe4:	85d6                	mv	a1,s5
    7fe6:	89aa                	mv	s3,a0
    7fe8:	2a7000ef          	jal	ra,8a8e <__mcmp>
    7fec:	f6a04ee3          	bgtz	a0,7f68 <_dtoa_r+0xb0a>
    7ff0:	e501                	bnez	a0,7ff8 <_dtoa_r+0xb9a>
    7ff2:	001df793          	andi	a5,s11,1
    7ff6:	fbad                	bnez	a5,7f68 <_dtoa_r+0xb0a>
    7ff8:	03000793          	li	a5,48
    7ffc:	fffa4703          	lbu	a4,-1(s4)
    8000:	fffa0693          	addi	a3,s4,-1
    8004:	e2f713e3          	bne	a4,a5,7e2a <_dtoa_r+0x9cc>
    8008:	8a36                	mv	s4,a3
    800a:	bfcd                	j	7ffc <_dtoa_r+0xb9e>
    800c:	4782                	lw	a5,0(sp)
    800e:	00e79963          	bne	a5,a4,8020 <_dtoa_r+0xbc2>
    8012:	4702                	lw	a4,0(sp)
    8014:	0405                	addi	s0,s0,1
    8016:	03100793          	li	a5,49
    801a:	00f70023          	sb	a5,0(a4)
    801e:	b531                	j	7e2a <_dtoa_r+0x9cc>
    8020:	8a3a                	mv	s4,a4
    8022:	b7a9                	j	7f6c <_dtoa_r+0xb0e>
    8024:	4752                	lw	a4,20(sp)
    8026:	00002797          	auipc	a5,0x2
    802a:	21a78793          	addi	a5,a5,538 # a240 <__clz_tab+0x194>
    802e:	c03e                	sw	a5,0(sp)
    8030:	00002797          	auipc	a5,0x2
    8034:	21878793          	addi	a5,a5,536 # a248 <__clz_tab+0x19c>
    8038:	ce071763          	bnez	a4,7526 <_dtoa_r+0xc8>
    803c:	ceeff06f          	j	752a <_dtoa_r+0xcc>
    8040:	47a2                	lw	a5,8(sp)
    8042:	00f04663          	bgtz	a5,804e <_dtoa_r+0xbf0>
    8046:	4712                	lw	a4,4(sp)
    8048:	4789                	li	a5,2
    804a:	dae7cce3          	blt	a5,a4,7e02 <_dtoa_r+0x9a4>
    804e:	4a02                	lw	s4,0(sp)
    8050:	85d6                	mv	a1,s5
    8052:	854e                	mv	a0,s3
    8054:	ad0ff0ef          	jal	ra,7324 <quorem>
    8058:	4782                	lw	a5,0(sp)
    805a:	0a05                	addi	s4,s4,1
    805c:	03050d93          	addi	s11,a0,48
    8060:	40fa0733          	sub	a4,s4,a5
    8064:	47a2                	lw	a5,8(sp)
    8066:	ffba0fa3          	sb	s11,-1(s4)
    806a:	f6f757e3          	bge	a4,a5,7fd8 <_dtoa_r+0xb7a>
    806e:	85ce                	mv	a1,s3
    8070:	4681                	li	a3,0
    8072:	4629                	li	a2,10
    8074:	8526                	mv	a0,s1
    8076:	23d5                	jal	865a <__multadd>
    8078:	89aa                	mv	s3,a0
    807a:	bfd9                	j	8050 <_dtoa_r+0xbf2>

0000807c <__sflush_r>:
__sflush_r():
    807c:	00c5d783          	lhu	a5,12(a1) # 7ff0000c <_eusrstack+0x5fef000c>
    8080:	1101                	addi	sp,sp,-32
    8082:	cc22                	sw	s0,24(sp)
    8084:	ca26                	sw	s1,20(sp)
    8086:	ce06                	sw	ra,28(sp)
    8088:	c84a                	sw	s2,16(sp)
    808a:	c64e                	sw	s3,12(sp)
    808c:	0087f713          	andi	a4,a5,8
    8090:	84aa                	mv	s1,a0
    8092:	842e                	mv	s0,a1
    8094:	ef79                	bnez	a4,8172 <__sflush_r+0xf6>
    8096:	41d8                	lw	a4,4(a1)
    8098:	00e04d63          	bgtz	a4,80b2 <__sflush_r+0x36>
    809c:	41b8                	lw	a4,64(a1)
    809e:	00e04a63          	bgtz	a4,80b2 <__sflush_r+0x36>
    80a2:	4501                	li	a0,0
    80a4:	40f2                	lw	ra,28(sp)
    80a6:	4462                	lw	s0,24(sp)
    80a8:	44d2                	lw	s1,20(sp)
    80aa:	4942                	lw	s2,16(sp)
    80ac:	49b2                	lw	s3,12(sp)
    80ae:	6105                	addi	sp,sp,32
    80b0:	8082                	ret
    80b2:	5458                	lw	a4,44(s0)
    80b4:	d77d                	beqz	a4,80a2 <__sflush_r+0x26>
    80b6:	0004a903          	lw	s2,0(s1)
    80ba:	01379693          	slli	a3,a5,0x13
    80be:	0004a023          	sw	zero,0(s1)
    80c2:	0606de63          	bgez	a3,813e <__sflush_r+0xc2>
    80c6:	4870                	lw	a2,84(s0)
    80c8:	00c45783          	lhu	a5,12(s0)
    80cc:	8b91                	andi	a5,a5,4
    80ce:	c799                	beqz	a5,80dc <__sflush_r+0x60>
    80d0:	405c                	lw	a5,4(s0)
    80d2:	8e1d                	sub	a2,a2,a5
    80d4:	585c                	lw	a5,52(s0)
    80d6:	c399                	beqz	a5,80dc <__sflush_r+0x60>
    80d8:	403c                	lw	a5,64(s0)
    80da:	8e1d                	sub	a2,a2,a5
    80dc:	545c                	lw	a5,44(s0)
    80de:	500c                	lw	a1,32(s0)
    80e0:	4681                	li	a3,0
    80e2:	8526                	mv	a0,s1
    80e4:	9782                	jalr	a5
    80e6:	57fd                	li	a5,-1
    80e8:	00c45703          	lhu	a4,12(s0)
    80ec:	00f51d63          	bne	a0,a5,8106 <__sflush_r+0x8a>
    80f0:	4094                	lw	a3,0(s1)
    80f2:	47f5                	li	a5,29
    80f4:	06d7e963          	bltu	a5,a3,8166 <__sflush_r+0xea>
    80f8:	204007b7          	lui	a5,0x20400
    80fc:	0785                	addi	a5,a5,1
    80fe:	00d7d7b3          	srl	a5,a5,a3
    8102:	8b85                	andi	a5,a5,1
    8104:	c3ad                	beqz	a5,8166 <__sflush_r+0xea>
    8106:	481c                	lw	a5,16(s0)
    8108:	00042223          	sw	zero,4(s0)
    810c:	c01c                	sw	a5,0(s0)
    810e:	01371793          	slli	a5,a4,0x13
    8112:	0007d863          	bgez	a5,8122 <__sflush_r+0xa6>
    8116:	57fd                	li	a5,-1
    8118:	00f51463          	bne	a0,a5,8120 <__sflush_r+0xa4>
    811c:	409c                	lw	a5,0(s1)
    811e:	e391                	bnez	a5,8122 <__sflush_r+0xa6>
    8120:	c868                	sw	a0,84(s0)
    8122:	584c                	lw	a1,52(s0)
    8124:	0124a023          	sw	s2,0(s1)
    8128:	ddad                	beqz	a1,80a2 <__sflush_r+0x26>
    812a:	04440793          	addi	a5,s0,68
    812e:	00f58563          	beq	a1,a5,8138 <__sflush_r+0xbc>
    8132:	8526                	mv	a0,s1
    8134:	379000ef          	jal	ra,8cac <_free_r>
    8138:	02042a23          	sw	zero,52(s0)
    813c:	b79d                	j	80a2 <__sflush_r+0x26>
    813e:	500c                	lw	a1,32(s0)
    8140:	4601                	li	a2,0
    8142:	4685                	li	a3,1
    8144:	8526                	mv	a0,s1
    8146:	9702                	jalr	a4
    8148:	57fd                	li	a5,-1
    814a:	862a                	mv	a2,a0
    814c:	f6f51ee3          	bne	a0,a5,80c8 <__sflush_r+0x4c>
    8150:	409c                	lw	a5,0(s1)
    8152:	dbbd                	beqz	a5,80c8 <__sflush_r+0x4c>
    8154:	4775                	li	a4,29
    8156:	00e78563          	beq	a5,a4,8160 <__sflush_r+0xe4>
    815a:	4759                	li	a4,22
    815c:	04e79463          	bne	a5,a4,81a4 <__sflush_r+0x128>
    8160:	0124a023          	sw	s2,0(s1)
    8164:	bf3d                	j	80a2 <__sflush_r+0x26>
    8166:	04076713          	ori	a4,a4,64
    816a:	00e41623          	sh	a4,12(s0)
    816e:	557d                	li	a0,-1
    8170:	bf15                	j	80a4 <__sflush_r+0x28>
    8172:	0105a983          	lw	s3,16(a1)
    8176:	f20986e3          	beqz	s3,80a2 <__sflush_r+0x26>
    817a:	0005a903          	lw	s2,0(a1)
    817e:	8b8d                	andi	a5,a5,3
    8180:	0135a023          	sw	s3,0(a1)
    8184:	41390933          	sub	s2,s2,s3
    8188:	4701                	li	a4,0
    818a:	e391                	bnez	a5,818e <__sflush_r+0x112>
    818c:	49d8                	lw	a4,20(a1)
    818e:	c418                	sw	a4,8(s0)
    8190:	f12059e3          	blez	s2,80a2 <__sflush_r+0x26>
    8194:	541c                	lw	a5,40(s0)
    8196:	500c                	lw	a1,32(s0)
    8198:	86ca                	mv	a3,s2
    819a:	864e                	mv	a2,s3
    819c:	8526                	mv	a0,s1
    819e:	9782                	jalr	a5
    81a0:	00a04963          	bgtz	a0,81b2 <__sflush_r+0x136>
    81a4:	00c45783          	lhu	a5,12(s0)
    81a8:	0407e793          	ori	a5,a5,64
    81ac:	00f41623          	sh	a5,12(s0)
    81b0:	bf7d                	j	816e <__sflush_r+0xf2>
    81b2:	99aa                	add	s3,s3,a0
    81b4:	40a90933          	sub	s2,s2,a0
    81b8:	bfe1                	j	8190 <__sflush_r+0x114>

000081ba <_fflush_r>:
_fflush_r():
    81ba:	499c                	lw	a5,16(a1)
    81bc:	c3a5                	beqz	a5,821c <_fflush_r+0x62>
    81be:	1101                	addi	sp,sp,-32
    81c0:	cc22                	sw	s0,24(sp)
    81c2:	ce06                	sw	ra,28(sp)
    81c4:	842a                	mv	s0,a0
    81c6:	c511                	beqz	a0,81d2 <_fflush_r+0x18>
    81c8:	4d1c                	lw	a5,24(a0)
    81ca:	e781                	bnez	a5,81d2 <_fflush_r+0x18>
    81cc:	c62e                	sw	a1,12(sp)
    81ce:	2239                	jal	82dc <__sinit>
    81d0:	45b2                	lw	a1,12(sp)
    81d2:	00002797          	auipc	a5,0x2
    81d6:	09e78793          	addi	a5,a5,158 # a270 <__sf_fake_stdin>
    81da:	00f59c63          	bne	a1,a5,81f2 <_fflush_r+0x38>
    81de:	404c                	lw	a1,4(s0)
    81e0:	00c59783          	lh	a5,12(a1)
    81e4:	c79d                	beqz	a5,8212 <_fflush_r+0x58>
    81e6:	8522                	mv	a0,s0
    81e8:	4462                	lw	s0,24(sp)
    81ea:	40f2                	lw	ra,28(sp)
    81ec:	6105                	addi	sp,sp,32
    81ee:	e8fff06f          	j	807c <__sflush_r>
    81f2:	00002797          	auipc	a5,0x2
    81f6:	09e78793          	addi	a5,a5,158 # a290 <__sf_fake_stdout>
    81fa:	00f59463          	bne	a1,a5,8202 <_fflush_r+0x48>
    81fe:	440c                	lw	a1,8(s0)
    8200:	b7c5                	j	81e0 <_fflush_r+0x26>
    8202:	00002797          	auipc	a5,0x2
    8206:	04e78793          	addi	a5,a5,78 # a250 <__sf_fake_stderr>
    820a:	fcf59be3          	bne	a1,a5,81e0 <_fflush_r+0x26>
    820e:	444c                	lw	a1,12(s0)
    8210:	bfc1                	j	81e0 <_fflush_r+0x26>
    8212:	40f2                	lw	ra,28(sp)
    8214:	4462                	lw	s0,24(sp)
    8216:	4501                	li	a0,0
    8218:	6105                	addi	sp,sp,32
    821a:	8082                	ret
    821c:	4501                	li	a0,0
    821e:	8082                	ret

00008220 <std>:
std():
    8220:	1141                	addi	sp,sp,-16
    8222:	c422                	sw	s0,8(sp)
    8224:	c606                	sw	ra,12(sp)
    8226:	842a                	mv	s0,a0
    8228:	00b51623          	sh	a1,12(a0)
    822c:	00c51723          	sh	a2,14(a0)
    8230:	00052023          	sw	zero,0(a0)
    8234:	00052223          	sw	zero,4(a0)
    8238:	00052423          	sw	zero,8(a0)
    823c:	06052223          	sw	zero,100(a0)
    8240:	00052823          	sw	zero,16(a0)
    8244:	00052a23          	sw	zero,20(a0)
    8248:	00052c23          	sw	zero,24(a0)
    824c:	4621                	li	a2,8
    824e:	4581                	li	a1,0
    8250:	05c50513          	addi	a0,a0,92
    8254:	fc1f70ef          	jal	ra,214 <memset>
    8258:	00001797          	auipc	a5,0x1
    825c:	efc78793          	addi	a5,a5,-260 # 9154 <__sread>
    8260:	d05c                	sw	a5,36(s0)
    8262:	00001797          	auipc	a5,0x1
    8266:	f2278793          	addi	a5,a5,-222 # 9184 <__swrite>
    826a:	d41c                	sw	a5,40(s0)
    826c:	00001797          	auipc	a5,0x1
    8270:	f6678793          	addi	a5,a5,-154 # 91d2 <__sseek>
    8274:	d45c                	sw	a5,44(s0)
    8276:	00001797          	auipc	a5,0x1
    827a:	f9278793          	addi	a5,a5,-110 # 9208 <__sclose>
    827e:	d000                	sw	s0,32(s0)
    8280:	d81c                	sw	a5,48(s0)
    8282:	40b2                	lw	ra,12(sp)
    8284:	4422                	lw	s0,8(sp)
    8286:	0141                	addi	sp,sp,16
    8288:	8082                	ret

0000828a <_cleanup_r>:
_cleanup_r():
    828a:	00000597          	auipc	a1,0x0
    828e:	f3058593          	addi	a1,a1,-208 # 81ba <_fflush_r>
    8292:	aa99                	j	83e8 <_fwalk_reent>

00008294 <__sfmoreglue>:
__sfmoreglue():
    8294:	1141                	addi	sp,sp,-16
    8296:	c226                	sw	s1,4(sp)
    8298:	06800613          	li	a2,104
    829c:	fff58493          	addi	s1,a1,-1
    82a0:	02c484b3          	mul	s1,s1,a2
    82a4:	c04a                	sw	s2,0(sp)
    82a6:	892e                	mv	s2,a1
    82a8:	c422                	sw	s0,8(sp)
    82aa:	c606                	sw	ra,12(sp)
    82ac:	07448593          	addi	a1,s1,116
    82b0:	2a1000ef          	jal	ra,8d50 <_malloc_r>
    82b4:	842a                	mv	s0,a0
    82b6:	cd01                	beqz	a0,82ce <__sfmoreglue+0x3a>
    82b8:	00052023          	sw	zero,0(a0)
    82bc:	01252223          	sw	s2,4(a0)
    82c0:	0531                	addi	a0,a0,12
    82c2:	c408                	sw	a0,8(s0)
    82c4:	06848613          	addi	a2,s1,104
    82c8:	4581                	li	a1,0
    82ca:	f4bf70ef          	jal	ra,214 <memset>
    82ce:	8522                	mv	a0,s0
    82d0:	40b2                	lw	ra,12(sp)
    82d2:	4422                	lw	s0,8(sp)
    82d4:	4492                	lw	s1,4(sp)
    82d6:	4902                	lw	s2,0(sp)
    82d8:	0141                	addi	sp,sp,16
    82da:	8082                	ret

000082dc <__sinit>:
__sinit():
    82dc:	4d1c                	lw	a5,24(a0)
    82de:	e7a5                	bnez	a5,8346 <__sinit+0x6a>
    82e0:	1141                	addi	sp,sp,-16
    82e2:	c606                	sw	ra,12(sp)
    82e4:	c422                	sw	s0,8(sp)
    82e6:	00000797          	auipc	a5,0x0
    82ea:	fa478793          	addi	a5,a5,-92 # 828a <_cleanup_r>
    82ee:	d51c                	sw	a5,40(a0)
    82f0:	82818793          	addi	a5,gp,-2008 # 20000248 <_global_impure_ptr>
    82f4:	439c                	lw	a5,0(a5)
    82f6:	04052423          	sw	zero,72(a0)
    82fa:	04052623          	sw	zero,76(a0)
    82fe:	04052823          	sw	zero,80(a0)
    8302:	00f51463          	bne	a0,a5,830a <__sinit+0x2e>
    8306:	4785                	li	a5,1
    8308:	cd1c                	sw	a5,24(a0)
    830a:	842a                	mv	s0,a0
    830c:	2835                	jal	8348 <__sfp>
    830e:	c048                	sw	a0,4(s0)
    8310:	8522                	mv	a0,s0
    8312:	281d                	jal	8348 <__sfp>
    8314:	c408                	sw	a0,8(s0)
    8316:	8522                	mv	a0,s0
    8318:	2805                	jal	8348 <__sfp>
    831a:	c448                	sw	a0,12(s0)
    831c:	4048                	lw	a0,4(s0)
    831e:	4601                	li	a2,0
    8320:	4591                	li	a1,4
    8322:	effff0ef          	jal	ra,8220 <std>
    8326:	4408                	lw	a0,8(s0)
    8328:	4605                	li	a2,1
    832a:	45a5                	li	a1,9
    832c:	ef5ff0ef          	jal	ra,8220 <std>
    8330:	4448                	lw	a0,12(s0)
    8332:	4609                	li	a2,2
    8334:	45c9                	li	a1,18
    8336:	eebff0ef          	jal	ra,8220 <std>
    833a:	4785                	li	a5,1
    833c:	cc1c                	sw	a5,24(s0)
    833e:	40b2                	lw	ra,12(sp)
    8340:	4422                	lw	s0,8(sp)
    8342:	0141                	addi	sp,sp,16
    8344:	8082                	ret
    8346:	8082                	ret

00008348 <__sfp>:
__sfp():
    8348:	1141                	addi	sp,sp,-16
    834a:	82818793          	addi	a5,gp,-2008 # 20000248 <_global_impure_ptr>
    834e:	c226                	sw	s1,4(sp)
    8350:	4384                	lw	s1,0(a5)
    8352:	c04a                	sw	s2,0(sp)
    8354:	c606                	sw	ra,12(sp)
    8356:	4c9c                	lw	a5,24(s1)
    8358:	c422                	sw	s0,8(sp)
    835a:	892a                	mv	s2,a0
    835c:	e781                	bnez	a5,8364 <__sfp+0x1c>
    835e:	8526                	mv	a0,s1
    8360:	f7dff0ef          	jal	ra,82dc <__sinit>
    8364:	04848493          	addi	s1,s1,72
    8368:	4480                	lw	s0,8(s1)
    836a:	40dc                	lw	a5,4(s1)
    836c:	17fd                	addi	a5,a5,-1
    836e:	0007d663          	bgez	a5,837a <__sfp+0x32>
    8372:	409c                	lw	a5,0(s1)
    8374:	cfb9                	beqz	a5,83d2 <__sfp+0x8a>
    8376:	4084                	lw	s1,0(s1)
    8378:	bfc5                	j	8368 <__sfp+0x20>
    837a:	00c41703          	lh	a4,12(s0)
    837e:	e739                	bnez	a4,83cc <__sfp+0x84>
    8380:	77c1                	lui	a5,0xffff0
    8382:	0785                	addi	a5,a5,1
    8384:	06042223          	sw	zero,100(s0)
    8388:	00042023          	sw	zero,0(s0)
    838c:	00042223          	sw	zero,4(s0)
    8390:	00042423          	sw	zero,8(s0)
    8394:	c45c                	sw	a5,12(s0)
    8396:	00042823          	sw	zero,16(s0)
    839a:	00042a23          	sw	zero,20(s0)
    839e:	00042c23          	sw	zero,24(s0)
    83a2:	4621                	li	a2,8
    83a4:	4581                	li	a1,0
    83a6:	05c40513          	addi	a0,s0,92
    83aa:	e6bf70ef          	jal	ra,214 <memset>
    83ae:	02042a23          	sw	zero,52(s0)
    83b2:	02042c23          	sw	zero,56(s0)
    83b6:	04042423          	sw	zero,72(s0)
    83ba:	04042623          	sw	zero,76(s0)
    83be:	8522                	mv	a0,s0
    83c0:	40b2                	lw	ra,12(sp)
    83c2:	4422                	lw	s0,8(sp)
    83c4:	4492                	lw	s1,4(sp)
    83c6:	4902                	lw	s2,0(sp)
    83c8:	0141                	addi	sp,sp,16
    83ca:	8082                	ret
    83cc:	06840413          	addi	s0,s0,104
    83d0:	bf71                	j	836c <__sfp+0x24>
    83d2:	4591                	li	a1,4
    83d4:	854a                	mv	a0,s2
    83d6:	ebfff0ef          	jal	ra,8294 <__sfmoreglue>
    83da:	c088                	sw	a0,0(s1)
    83dc:	fd49                	bnez	a0,8376 <__sfp+0x2e>
    83de:	47b1                	li	a5,12
    83e0:	00f92023          	sw	a5,0(s2)
    83e4:	4401                	li	s0,0
    83e6:	bfe1                	j	83be <__sfp+0x76>

000083e8 <_fwalk_reent>:
_fwalk_reent():
    83e8:	7179                	addi	sp,sp,-48
    83ea:	d422                	sw	s0,40(sp)
    83ec:	d04a                	sw	s2,32(sp)
    83ee:	cc52                	sw	s4,24(sp)
    83f0:	ca56                	sw	s5,20(sp)
    83f2:	c85a                	sw	s6,16(sp)
    83f4:	c65e                	sw	s7,12(sp)
    83f6:	d606                	sw	ra,44(sp)
    83f8:	d226                	sw	s1,36(sp)
    83fa:	ce4e                	sw	s3,28(sp)
    83fc:	8a2a                	mv	s4,a0
    83fe:	8aae                	mv	s5,a1
    8400:	04850413          	addi	s0,a0,72
    8404:	4901                	li	s2,0
    8406:	4b05                	li	s6,1
    8408:	5bfd                	li	s7,-1
    840a:	ec09                	bnez	s0,8424 <_fwalk_reent+0x3c>
    840c:	50b2                	lw	ra,44(sp)
    840e:	5422                	lw	s0,40(sp)
    8410:	854a                	mv	a0,s2
    8412:	5492                	lw	s1,36(sp)
    8414:	5902                	lw	s2,32(sp)
    8416:	49f2                	lw	s3,28(sp)
    8418:	4a62                	lw	s4,24(sp)
    841a:	4ad2                	lw	s5,20(sp)
    841c:	4b42                	lw	s6,16(sp)
    841e:	4bb2                	lw	s7,12(sp)
    8420:	6145                	addi	sp,sp,48
    8422:	8082                	ret
    8424:	4404                	lw	s1,8(s0)
    8426:	00442983          	lw	s3,4(s0)
    842a:	19fd                	addi	s3,s3,-1
    842c:	0009d463          	bgez	s3,8434 <_fwalk_reent+0x4c>
    8430:	4000                	lw	s0,0(s0)
    8432:	bfe1                	j	840a <_fwalk_reent+0x22>
    8434:	00c4d783          	lhu	a5,12(s1)
    8438:	00fb7b63          	bgeu	s6,a5,844e <_fwalk_reent+0x66>
    843c:	00e49783          	lh	a5,14(s1)
    8440:	01778763          	beq	a5,s7,844e <_fwalk_reent+0x66>
    8444:	85a6                	mv	a1,s1
    8446:	8552                	mv	a0,s4
    8448:	9a82                	jalr	s5
    844a:	00a96933          	or	s2,s2,a0
    844e:	06848493          	addi	s1,s1,104
    8452:	bfe1                	j	842a <_fwalk_reent+0x42>

00008454 <_localeconv_r>:
_localeconv_r():
    8454:	81818793          	addi	a5,gp,-2024 # 20000238 <_impure_ptr>
    8458:	439c                	lw	a5,0(a5)
    845a:	5388                	lw	a0,32(a5)
    845c:	e509                	bnez	a0,8466 <_localeconv_r+0x12>
    845e:	1fff8517          	auipc	a0,0x1fff8
    8462:	c5650513          	addi	a0,a0,-938 # 200000b4 <__global_locale>
    8466:	0f050513          	addi	a0,a0,240
    846a:	8082                	ret

0000846c <__swhatbuf_r>:
__swhatbuf_r():
    846c:	7119                	addi	sp,sp,-128
    846e:	daa6                	sw	s1,116(sp)
    8470:	84ae                	mv	s1,a1
    8472:	00e59583          	lh	a1,14(a1)
    8476:	dca2                	sw	s0,120(sp)
    8478:	de86                	sw	ra,124(sp)
    847a:	8432                	mv	s0,a2
    847c:	0005dc63          	bgez	a1,8494 <__swhatbuf_r+0x28>
    8480:	00c4d783          	lhu	a5,12(s1)
    8484:	0006a023          	sw	zero,0(a3)
    8488:	0807f793          	andi	a5,a5,128
    848c:	e785                	bnez	a5,84b4 <__swhatbuf_r+0x48>
    848e:	40000793          	li	a5,1024
    8492:	a01d                	j	84b8 <__swhatbuf_r+0x4c>
    8494:	0830                	addi	a2,sp,24
    8496:	c636                	sw	a3,12(sp)
    8498:	5cd000ef          	jal	ra,9264 <_fstat_r>
    849c:	46b2                	lw	a3,12(sp)
    849e:	fe0541e3          	bltz	a0,8480 <__swhatbuf_r+0x14>
    84a2:	4772                	lw	a4,28(sp)
    84a4:	67bd                	lui	a5,0xf
    84a6:	8ff9                	and	a5,a5,a4
    84a8:	7779                	lui	a4,0xffffe
    84aa:	97ba                	add	a5,a5,a4
    84ac:	0017b793          	seqz	a5,a5
    84b0:	c29c                	sw	a5,0(a3)
    84b2:	bff1                	j	848e <__swhatbuf_r+0x22>
    84b4:	04000793          	li	a5,64
    84b8:	c01c                	sw	a5,0(s0)
    84ba:	50f6                	lw	ra,124(sp)
    84bc:	5466                	lw	s0,120(sp)
    84be:	54d6                	lw	s1,116(sp)
    84c0:	4501                	li	a0,0
    84c2:	6109                	addi	sp,sp,128
    84c4:	8082                	ret

000084c6 <__smakebuf_r>:
__smakebuf_r():
    84c6:	00c5d783          	lhu	a5,12(a1)
    84ca:	1101                	addi	sp,sp,-32
    84cc:	cc22                	sw	s0,24(sp)
    84ce:	ce06                	sw	ra,28(sp)
    84d0:	ca26                	sw	s1,20(sp)
    84d2:	c84a                	sw	s2,16(sp)
    84d4:	8b89                	andi	a5,a5,2
    84d6:	842e                	mv	s0,a1
    84d8:	cf89                	beqz	a5,84f2 <__smakebuf_r+0x2c>
    84da:	04740793          	addi	a5,s0,71
    84de:	c01c                	sw	a5,0(s0)
    84e0:	c81c                	sw	a5,16(s0)
    84e2:	4785                	li	a5,1
    84e4:	c85c                	sw	a5,20(s0)
    84e6:	40f2                	lw	ra,28(sp)
    84e8:	4462                	lw	s0,24(sp)
    84ea:	44d2                	lw	s1,20(sp)
    84ec:	4942                	lw	s2,16(sp)
    84ee:	6105                	addi	sp,sp,32
    84f0:	8082                	ret
    84f2:	0074                	addi	a3,sp,12
    84f4:	0030                	addi	a2,sp,8
    84f6:	84aa                	mv	s1,a0
    84f8:	f75ff0ef          	jal	ra,846c <__swhatbuf_r>
    84fc:	45a2                	lw	a1,8(sp)
    84fe:	892a                	mv	s2,a0
    8500:	8526                	mv	a0,s1
    8502:	04f000ef          	jal	ra,8d50 <_malloc_r>
    8506:	ed01                	bnez	a0,851e <__smakebuf_r+0x58>
    8508:	00c41783          	lh	a5,12(s0)
    850c:	2007f713          	andi	a4,a5,512
    8510:	fb79                	bnez	a4,84e6 <__smakebuf_r+0x20>
    8512:	9bf1                	andi	a5,a5,-4
    8514:	0027e793          	ori	a5,a5,2
    8518:	00f41623          	sh	a5,12(s0)
    851c:	bf7d                	j	84da <__smakebuf_r+0x14>
    851e:	00000797          	auipc	a5,0x0
    8522:	d6c78793          	addi	a5,a5,-660 # 828a <_cleanup_r>
    8526:	d49c                	sw	a5,40(s1)
    8528:	00c45783          	lhu	a5,12(s0)
    852c:	c008                	sw	a0,0(s0)
    852e:	c808                	sw	a0,16(s0)
    8530:	0807e793          	ori	a5,a5,128
    8534:	00f41623          	sh	a5,12(s0)
    8538:	47a2                	lw	a5,8(sp)
    853a:	c85c                	sw	a5,20(s0)
    853c:	47b2                	lw	a5,12(sp)
    853e:	cf91                	beqz	a5,855a <__smakebuf_r+0x94>
    8540:	00e41583          	lh	a1,14(s0)
    8544:	8526                	mv	a0,s1
    8546:	549000ef          	jal	ra,928e <_isatty_r>
    854a:	c901                	beqz	a0,855a <__smakebuf_r+0x94>
    854c:	00c45783          	lhu	a5,12(s0)
    8550:	9bf1                	andi	a5,a5,-4
    8552:	0017e793          	ori	a5,a5,1
    8556:	00f41623          	sh	a5,12(s0)
    855a:	00c45783          	lhu	a5,12(s0)
    855e:	00f96933          	or	s2,s2,a5
    8562:	01241623          	sh	s2,12(s0)
    8566:	b741                	j	84e6 <__smakebuf_r+0x20>

00008568 <malloc>:
malloc():
    8568:	81818793          	addi	a5,gp,-2024 # 20000238 <_impure_ptr>
    856c:	85aa                	mv	a1,a0
    856e:	4388                	lw	a0,0(a5)
    8570:	7e00006f          	j	8d50 <_malloc_r>

00008574 <memchr>:
memchr():
    8574:	0ff5f593          	andi	a1,a1,255
    8578:	962a                	add	a2,a2,a0
    857a:	00c51463          	bne	a0,a2,8582 <memchr+0xe>
    857e:	4501                	li	a0,0
    8580:	8082                	ret
    8582:	00054783          	lbu	a5,0(a0)
    8586:	feb78de3          	beq	a5,a1,8580 <memchr+0xc>
    858a:	0505                	addi	a0,a0,1
    858c:	b7fd                	j	857a <memchr+0x6>

0000858e <_Balloc>:
_Balloc():
    858e:	515c                	lw	a5,36(a0)
    8590:	1141                	addi	sp,sp,-16
    8592:	c422                	sw	s0,8(sp)
    8594:	c04a                	sw	s2,0(sp)
    8596:	c606                	sw	ra,12(sp)
    8598:	c226                	sw	s1,4(sp)
    859a:	842a                	mv	s0,a0
    859c:	892e                	mv	s2,a1
    859e:	ef89                	bnez	a5,85b8 <_Balloc+0x2a>
    85a0:	4541                	li	a0,16
    85a2:	fc7ff0ef          	jal	ra,8568 <malloc>
    85a6:	d048                	sw	a0,36(s0)
    85a8:	00052223          	sw	zero,4(a0)
    85ac:	00052423          	sw	zero,8(a0)
    85b0:	00052023          	sw	zero,0(a0)
    85b4:	00052623          	sw	zero,12(a0)
    85b8:	5044                	lw	s1,36(s0)
    85ba:	44dc                	lw	a5,12(s1)
    85bc:	c795                	beqz	a5,85e8 <_Balloc+0x5a>
    85be:	5058                	lw	a4,36(s0)
    85c0:	00291793          	slli	a5,s2,0x2
    85c4:	4758                	lw	a4,12(a4)
    85c6:	97ba                	add	a5,a5,a4
    85c8:	4388                	lw	a0,0(a5)
    85ca:	ed1d                	bnez	a0,8608 <_Balloc+0x7a>
    85cc:	4485                	li	s1,1
    85ce:	012494b3          	sll	s1,s1,s2
    85d2:	00548613          	addi	a2,s1,5
    85d6:	060a                	slli	a2,a2,0x2
    85d8:	4585                	li	a1,1
    85da:	8522                	mv	a0,s0
    85dc:	256d                	jal	8c86 <_calloc_r>
    85de:	cd11                	beqz	a0,85fa <_Balloc+0x6c>
    85e0:	01252223          	sw	s2,4(a0)
    85e4:	c504                	sw	s1,8(a0)
    85e6:	a01d                	j	860c <_Balloc+0x7e>
    85e8:	02100613          	li	a2,33
    85ec:	4591                	li	a1,4
    85ee:	8522                	mv	a0,s0
    85f0:	2d59                	jal	8c86 <_calloc_r>
    85f2:	505c                	lw	a5,36(s0)
    85f4:	c4c8                	sw	a0,12(s1)
    85f6:	47dc                	lw	a5,12(a5)
    85f8:	f3f9                	bnez	a5,85be <_Balloc+0x30>
    85fa:	4501                	li	a0,0
    85fc:	40b2                	lw	ra,12(sp)
    85fe:	4422                	lw	s0,8(sp)
    8600:	4492                	lw	s1,4(sp)
    8602:	4902                	lw	s2,0(sp)
    8604:	0141                	addi	sp,sp,16
    8606:	8082                	ret
    8608:	4118                	lw	a4,0(a0)
    860a:	c398                	sw	a4,0(a5)
    860c:	00052823          	sw	zero,16(a0)
    8610:	00052623          	sw	zero,12(a0)
    8614:	b7e5                	j	85fc <_Balloc+0x6e>

00008616 <_Bfree>:
_Bfree():
    8616:	515c                	lw	a5,36(a0)
    8618:	1101                	addi	sp,sp,-32
    861a:	cc22                	sw	s0,24(sp)
    861c:	ce06                	sw	ra,28(sp)
    861e:	842a                	mv	s0,a0
    8620:	ef99                	bnez	a5,863e <_Bfree+0x28>
    8622:	4541                	li	a0,16
    8624:	c62e                	sw	a1,12(sp)
    8626:	f43ff0ef          	jal	ra,8568 <malloc>
    862a:	45b2                	lw	a1,12(sp)
    862c:	d048                	sw	a0,36(s0)
    862e:	00052223          	sw	zero,4(a0)
    8632:	00052423          	sw	zero,8(a0)
    8636:	00052023          	sw	zero,0(a0)
    863a:	00052623          	sw	zero,12(a0)
    863e:	c991                	beqz	a1,8652 <_Bfree+0x3c>
    8640:	5054                	lw	a3,36(s0)
    8642:	41dc                	lw	a5,4(a1)
    8644:	00279713          	slli	a4,a5,0x2
    8648:	46dc                	lw	a5,12(a3)
    864a:	97ba                	add	a5,a5,a4
    864c:	4398                	lw	a4,0(a5)
    864e:	c198                	sw	a4,0(a1)
    8650:	c38c                	sw	a1,0(a5)
    8652:	40f2                	lw	ra,28(sp)
    8654:	4462                	lw	s0,24(sp)
    8656:	6105                	addi	sp,sp,32
    8658:	8082                	ret

0000865a <__multadd>:
__multadd():
    865a:	7179                	addi	sp,sp,-48
    865c:	ce4e                	sw	s3,28(sp)
    865e:	89aa                	mv	s3,a0
    8660:	6541                	lui	a0,0x10
    8662:	d422                	sw	s0,40(sp)
    8664:	d226                	sw	s1,36(sp)
    8666:	842e                	mv	s0,a1
    8668:	4984                	lw	s1,16(a1)
    866a:	d606                	sw	ra,44(sp)
    866c:	d04a                	sw	s2,32(sp)
    866e:	05d1                	addi	a1,a1,20
    8670:	4801                	li	a6,0
    8672:	157d                	addi	a0,a0,-1
    8674:	419c                	lw	a5,0(a1)
    8676:	0591                	addi	a1,a1,4
    8678:	0805                	addi	a6,a6,1
    867a:	00a7f733          	and	a4,a5,a0
    867e:	02c70733          	mul	a4,a4,a2
    8682:	83c1                	srli	a5,a5,0x10
    8684:	02c787b3          	mul	a5,a5,a2
    8688:	9736                	add	a4,a4,a3
    868a:	01075693          	srli	a3,a4,0x10
    868e:	8f69                	and	a4,a4,a0
    8690:	97b6                	add	a5,a5,a3
    8692:	0107d693          	srli	a3,a5,0x10
    8696:	07c2                	slli	a5,a5,0x10
    8698:	97ba                	add	a5,a5,a4
    869a:	fef5ae23          	sw	a5,-4(a1)
    869e:	fc984be3          	blt	a6,s1,8674 <__multadd+0x1a>
    86a2:	c2a1                	beqz	a3,86e2 <__multadd+0x88>
    86a4:	441c                	lw	a5,8(s0)
    86a6:	02f4c763          	blt	s1,a5,86d4 <__multadd+0x7a>
    86aa:	404c                	lw	a1,4(s0)
    86ac:	854e                	mv	a0,s3
    86ae:	c636                	sw	a3,12(sp)
    86b0:	0585                	addi	a1,a1,1
    86b2:	eddff0ef          	jal	ra,858e <_Balloc>
    86b6:	4810                	lw	a2,16(s0)
    86b8:	00c40593          	addi	a1,s0,12
    86bc:	892a                	mv	s2,a0
    86be:	0609                	addi	a2,a2,2
    86c0:	060a                	slli	a2,a2,0x2
    86c2:	0531                	addi	a0,a0,12
    86c4:	f89fd0ef          	jal	ra,664c <memcpy>
    86c8:	85a2                	mv	a1,s0
    86ca:	854e                	mv	a0,s3
    86cc:	f4bff0ef          	jal	ra,8616 <_Bfree>
    86d0:	46b2                	lw	a3,12(sp)
    86d2:	844a                	mv	s0,s2
    86d4:	00448793          	addi	a5,s1,4
    86d8:	078a                	slli	a5,a5,0x2
    86da:	97a2                	add	a5,a5,s0
    86dc:	c3d4                	sw	a3,4(a5)
    86de:	0485                	addi	s1,s1,1
    86e0:	c804                	sw	s1,16(s0)
    86e2:	8522                	mv	a0,s0
    86e4:	50b2                	lw	ra,44(sp)
    86e6:	5422                	lw	s0,40(sp)
    86e8:	5492                	lw	s1,36(sp)
    86ea:	5902                	lw	s2,32(sp)
    86ec:	49f2                	lw	s3,28(sp)
    86ee:	6145                	addi	sp,sp,48
    86f0:	8082                	ret

000086f2 <__hi0bits>:
__hi0bits():
    86f2:	7741                	lui	a4,0xffff0
    86f4:	8f69                	and	a4,a4,a0
    86f6:	87aa                	mv	a5,a0
    86f8:	4501                	li	a0,0
    86fa:	e319                	bnez	a4,8700 <__hi0bits+0xe>
    86fc:	07c2                	slli	a5,a5,0x10
    86fe:	4541                	li	a0,16
    8700:	ff000737          	lui	a4,0xff000
    8704:	8f7d                	and	a4,a4,a5
    8706:	e319                	bnez	a4,870c <__hi0bits+0x1a>
    8708:	0521                	addi	a0,a0,8
    870a:	07a2                	slli	a5,a5,0x8
    870c:	f0000737          	lui	a4,0xf0000
    8710:	8f7d                	and	a4,a4,a5
    8712:	e319                	bnez	a4,8718 <__hi0bits+0x26>
    8714:	0511                	addi	a0,a0,4
    8716:	0792                	slli	a5,a5,0x4
    8718:	c0000737          	lui	a4,0xc0000
    871c:	8f7d                	and	a4,a4,a5
    871e:	e319                	bnez	a4,8724 <__hi0bits+0x32>
    8720:	0509                	addi	a0,a0,2
    8722:	078a                	slli	a5,a5,0x2
    8724:	0007c963          	bltz	a5,8736 <__hi0bits+0x44>
    8728:	00179713          	slli	a4,a5,0x1
    872c:	0505                	addi	a0,a0,1
    872e:	00074463          	bltz	a4,8736 <__hi0bits+0x44>
    8732:	02000513          	li	a0,32
    8736:	8082                	ret

00008738 <__lo0bits>:
__lo0bits():
    8738:	411c                	lw	a5,0(a0)
    873a:	0077f713          	andi	a4,a5,7
    873e:	c30d                	beqz	a4,8760 <__lo0bits+0x28>
    8740:	0017f693          	andi	a3,a5,1
    8744:	4701                	li	a4,0
    8746:	e699                	bnez	a3,8754 <__lo0bits+0x1c>
    8748:	0027f713          	andi	a4,a5,2
    874c:	c711                	beqz	a4,8758 <__lo0bits+0x20>
    874e:	8385                	srli	a5,a5,0x1
    8750:	c11c                	sw	a5,0(a0)
    8752:	4705                	li	a4,1
    8754:	853a                	mv	a0,a4
    8756:	8082                	ret
    8758:	8389                	srli	a5,a5,0x2
    875a:	c11c                	sw	a5,0(a0)
    875c:	4709                	li	a4,2
    875e:	bfdd                	j	8754 <__lo0bits+0x1c>
    8760:	01079693          	slli	a3,a5,0x10
    8764:	82c1                	srli	a3,a3,0x10
    8766:	4701                	li	a4,0
    8768:	e299                	bnez	a3,876e <__lo0bits+0x36>
    876a:	83c1                	srli	a5,a5,0x10
    876c:	4741                	li	a4,16
    876e:	0ff7f693          	andi	a3,a5,255
    8772:	e299                	bnez	a3,8778 <__lo0bits+0x40>
    8774:	0721                	addi	a4,a4,8
    8776:	83a1                	srli	a5,a5,0x8
    8778:	00f7f693          	andi	a3,a5,15
    877c:	e299                	bnez	a3,8782 <__lo0bits+0x4a>
    877e:	0711                	addi	a4,a4,4
    8780:	8391                	srli	a5,a5,0x4
    8782:	0037f693          	andi	a3,a5,3
    8786:	e299                	bnez	a3,878c <__lo0bits+0x54>
    8788:	0709                	addi	a4,a4,2
    878a:	8389                	srli	a5,a5,0x2
    878c:	0017f693          	andi	a3,a5,1
    8790:	e681                	bnez	a3,8798 <__lo0bits+0x60>
    8792:	8385                	srli	a5,a5,0x1
    8794:	0705                	addi	a4,a4,1
    8796:	c399                	beqz	a5,879c <__lo0bits+0x64>
    8798:	c11c                	sw	a5,0(a0)
    879a:	bf6d                	j	8754 <__lo0bits+0x1c>
    879c:	02000713          	li	a4,32
    87a0:	bf55                	j	8754 <__lo0bits+0x1c>

000087a2 <__i2b>:
__i2b():
    87a2:	1141                	addi	sp,sp,-16
    87a4:	c422                	sw	s0,8(sp)
    87a6:	842e                	mv	s0,a1
    87a8:	4585                	li	a1,1
    87aa:	c606                	sw	ra,12(sp)
    87ac:	de3ff0ef          	jal	ra,858e <_Balloc>
    87b0:	c940                	sw	s0,20(a0)
    87b2:	40b2                	lw	ra,12(sp)
    87b4:	4422                	lw	s0,8(sp)
    87b6:	4705                	li	a4,1
    87b8:	c918                	sw	a4,16(a0)
    87ba:	0141                	addi	sp,sp,16
    87bc:	8082                	ret

000087be <__multiply>:
__multiply():
    87be:	4998                	lw	a4,16(a1)
    87c0:	4a1c                	lw	a5,16(a2)
    87c2:	7179                	addi	sp,sp,-48
    87c4:	d226                	sw	s1,36(sp)
    87c6:	d606                	sw	ra,44(sp)
    87c8:	d422                	sw	s0,40(sp)
    87ca:	d04a                	sw	s2,32(sp)
    87cc:	ce4e                	sw	s3,28(sp)
    87ce:	84ae                	mv	s1,a1
    87d0:	00f75463          	bge	a4,a5,87d8 <__multiply+0x1a>
    87d4:	84b2                	mv	s1,a2
    87d6:	862e                	mv	a2,a1
    87d8:	0104a983          	lw	s3,16(s1)
    87dc:	01062903          	lw	s2,16(a2) # 10010 <_data_lma+0x5b3c>
    87e0:	449c                	lw	a5,8(s1)
    87e2:	40cc                	lw	a1,4(s1)
    87e4:	01298433          	add	s0,s3,s2
    87e8:	0087d363          	bge	a5,s0,87ee <__multiply+0x30>
    87ec:	0585                	addi	a1,a1,1
    87ee:	c632                	sw	a2,12(sp)
    87f0:	d9fff0ef          	jal	ra,858e <_Balloc>
    87f4:	4632                	lw	a2,12(sp)
    87f6:	01450813          	addi	a6,a0,20 # 10014 <_data_lma+0x5b40>
    87fa:	00241313          	slli	t1,s0,0x2
    87fe:	9342                	add	t1,t1,a6
    8800:	87c2                	mv	a5,a6
    8802:	0267ed63          	bltu	a5,t1,883c <__multiply+0x7e>
    8806:	01448593          	addi	a1,s1,20
    880a:	00299893          	slli	a7,s3,0x2
    880e:	0651                	addi	a2,a2,20
    8810:	00291e13          	slli	t3,s2,0x2
    8814:	66c1                	lui	a3,0x10
    8816:	98ae                	add	a7,a7,a1
    8818:	9e32                	add	t3,t3,a2
    881a:	16fd                	addi	a3,a3,-1
    881c:	03c66463          	bltu	a2,t3,8844 <__multiply+0x86>
    8820:	00805663          	blez	s0,882c <__multiply+0x6e>
    8824:	1371                	addi	t1,t1,-4
    8826:	00032783          	lw	a5,0(t1)
    882a:	cbf1                	beqz	a5,88fe <__multiply+0x140>
    882c:	c900                	sw	s0,16(a0)
    882e:	50b2                	lw	ra,44(sp)
    8830:	5422                	lw	s0,40(sp)
    8832:	5492                	lw	s1,36(sp)
    8834:	5902                	lw	s2,32(sp)
    8836:	49f2                	lw	s3,28(sp)
    8838:	6145                	addi	sp,sp,48
    883a:	8082                	ret
    883c:	0007a023          	sw	zero,0(a5)
    8840:	0791                	addi	a5,a5,4
    8842:	b7c1                	j	8802 <__multiply+0x44>
    8844:	00062f83          	lw	t6,0(a2)
    8848:	00dfffb3          	and	t6,t6,a3
    884c:	040f8a63          	beqz	t6,88a0 <__multiply+0xe2>
    8850:	8f42                	mv	t5,a6
    8852:	82ae                	mv	t0,a1
    8854:	4481                	li	s1,0
    8856:	0002a703          	lw	a4,0(t0)
    885a:	000f2383          	lw	t2,0(t5)
    885e:	0f11                	addi	t5,t5,4
    8860:	00d77eb3          	and	t4,a4,a3
    8864:	03fe8eb3          	mul	t4,t4,t6
    8868:	00d3f7b3          	and	a5,t2,a3
    886c:	0103d393          	srli	t2,t2,0x10
    8870:	0291                	addi	t0,t0,4
    8872:	9ebe                	add	t4,t4,a5
    8874:	01075793          	srli	a5,a4,0x10
    8878:	03f787b3          	mul	a5,a5,t6
    887c:	9ea6                	add	t4,t4,s1
    887e:	010ed713          	srli	a4,t4,0x10
    8882:	00defeb3          	and	t4,t4,a3
    8886:	979e                	add	a5,a5,t2
    8888:	97ba                	add	a5,a5,a4
    888a:	0107d493          	srli	s1,a5,0x10
    888e:	07c2                	slli	a5,a5,0x10
    8890:	01d7e7b3          	or	a5,a5,t4
    8894:	feff2e23          	sw	a5,-4(t5)
    8898:	fb12efe3          	bltu	t0,a7,8856 <__multiply+0x98>
    889c:	009f2023          	sw	s1,0(t5)
    88a0:	00265283          	lhu	t0,2(a2)
    88a4:	04028a63          	beqz	t0,88f8 <__multiply+0x13a>
    88a8:	00082783          	lw	a5,0(a6)
    88ac:	8ec2                	mv	t4,a6
    88ae:	8f2e                	mv	t5,a1
    88b0:	4f81                	li	t6,0
    88b2:	000f2703          	lw	a4,0(t5)
    88b6:	002ed383          	lhu	t2,2(t4)
    88ba:	8ff5                	and	a5,a5,a3
    88bc:	8f75                	and	a4,a4,a3
    88be:	02570733          	mul	a4,a4,t0
    88c2:	0e91                	addi	t4,t4,4
    88c4:	0f11                	addi	t5,t5,4
    88c6:	971e                	add	a4,a4,t2
    88c8:	977e                	add	a4,a4,t6
    88ca:	01071f93          	slli	t6,a4,0x10
    88ce:	00ffe7b3          	or	a5,t6,a5
    88d2:	fefeae23          	sw	a5,-4(t4)
    88d6:	ffef5783          	lhu	a5,-2(t5)
    88da:	000eaf83          	lw	t6,0(t4)
    88de:	8341                	srli	a4,a4,0x10
    88e0:	025787b3          	mul	a5,a5,t0
    88e4:	00dfffb3          	and	t6,t6,a3
    88e8:	97fe                	add	a5,a5,t6
    88ea:	97ba                	add	a5,a5,a4
    88ec:	0107df93          	srli	t6,a5,0x10
    88f0:	fd1f61e3          	bltu	t5,a7,88b2 <__multiply+0xf4>
    88f4:	00fea023          	sw	a5,0(t4)
    88f8:	0611                	addi	a2,a2,4
    88fa:	0811                	addi	a6,a6,4
    88fc:	b705                	j	881c <__multiply+0x5e>
    88fe:	147d                	addi	s0,s0,-1
    8900:	b705                	j	8820 <__multiply+0x62>

00008902 <__pow5mult>:
__pow5mult():
    8902:	1101                	addi	sp,sp,-32
    8904:	ca26                	sw	s1,20(sp)
    8906:	c84a                	sw	s2,16(sp)
    8908:	c64e                	sw	s3,12(sp)
    890a:	ce06                	sw	ra,28(sp)
    890c:	cc22                	sw	s0,24(sp)
    890e:	c452                	sw	s4,8(sp)
    8910:	00367793          	andi	a5,a2,3
    8914:	892a                	mv	s2,a0
    8916:	84b2                	mv	s1,a2
    8918:	89ae                	mv	s3,a1
    891a:	cf89                	beqz	a5,8934 <__pow5mult+0x32>
    891c:	17fd                	addi	a5,a5,-1
    891e:	00002717          	auipc	a4,0x2
    8922:	a8270713          	addi	a4,a4,-1406 # a3a0 <p05.3319>
    8926:	078a                	slli	a5,a5,0x2
    8928:	97ba                	add	a5,a5,a4
    892a:	4390                	lw	a2,0(a5)
    892c:	4681                	li	a3,0
    892e:	d2dff0ef          	jal	ra,865a <__multadd>
    8932:	89aa                	mv	s3,a0
    8934:	8489                	srai	s1,s1,0x2
    8936:	cca5                	beqz	s1,89ae <__pow5mult+0xac>
    8938:	02492783          	lw	a5,36(s2)
    893c:	ef91                	bnez	a5,8958 <__pow5mult+0x56>
    893e:	4541                	li	a0,16
    8940:	c29ff0ef          	jal	ra,8568 <malloc>
    8944:	02a92223          	sw	a0,36(s2)
    8948:	00052223          	sw	zero,4(a0)
    894c:	00052423          	sw	zero,8(a0)
    8950:	00052023          	sw	zero,0(a0)
    8954:	00052623          	sw	zero,12(a0)
    8958:	02492a03          	lw	s4,36(s2)
    895c:	008a2403          	lw	s0,8(s4)
    8960:	e819                	bnez	s0,8976 <__pow5mult+0x74>
    8962:	27100593          	li	a1,625
    8966:	854a                	mv	a0,s2
    8968:	e3bff0ef          	jal	ra,87a2 <__i2b>
    896c:	00aa2423          	sw	a0,8(s4)
    8970:	842a                	mv	s0,a0
    8972:	00052023          	sw	zero,0(a0)
    8976:	0014f793          	andi	a5,s1,1
    897a:	cf81                	beqz	a5,8992 <__pow5mult+0x90>
    897c:	85ce                	mv	a1,s3
    897e:	8622                	mv	a2,s0
    8980:	854a                	mv	a0,s2
    8982:	e3dff0ef          	jal	ra,87be <__multiply>
    8986:	8a2a                	mv	s4,a0
    8988:	85ce                	mv	a1,s3
    898a:	854a                	mv	a0,s2
    898c:	c8bff0ef          	jal	ra,8616 <_Bfree>
    8990:	89d2                	mv	s3,s4
    8992:	8485                	srai	s1,s1,0x1
    8994:	cc89                	beqz	s1,89ae <__pow5mult+0xac>
    8996:	4008                	lw	a0,0(s0)
    8998:	e909                	bnez	a0,89aa <__pow5mult+0xa8>
    899a:	8622                	mv	a2,s0
    899c:	85a2                	mv	a1,s0
    899e:	854a                	mv	a0,s2
    89a0:	e1fff0ef          	jal	ra,87be <__multiply>
    89a4:	c008                	sw	a0,0(s0)
    89a6:	00052023          	sw	zero,0(a0)
    89aa:	842a                	mv	s0,a0
    89ac:	b7e9                	j	8976 <__pow5mult+0x74>
    89ae:	40f2                	lw	ra,28(sp)
    89b0:	4462                	lw	s0,24(sp)
    89b2:	854e                	mv	a0,s3
    89b4:	44d2                	lw	s1,20(sp)
    89b6:	4942                	lw	s2,16(sp)
    89b8:	49b2                	lw	s3,12(sp)
    89ba:	4a22                	lw	s4,8(sp)
    89bc:	6105                	addi	sp,sp,32
    89be:	8082                	ret

000089c0 <__lshift>:
__lshift():
    89c0:	7179                	addi	sp,sp,-48
    89c2:	d226                	sw	s1,36(sp)
    89c4:	84ae                	mv	s1,a1
    89c6:	ce4e                	sw	s3,28(sp)
    89c8:	0104a983          	lw	s3,16(s1)
    89cc:	d422                	sw	s0,40(sp)
    89ce:	41cc                	lw	a1,4(a1)
    89d0:	40565413          	srai	s0,a2,0x5
    89d4:	449c                	lw	a5,8(s1)
    89d6:	99a2                	add	s3,s3,s0
    89d8:	d04a                	sw	s2,32(sp)
    89da:	ca56                	sw	s5,20(sp)
    89dc:	d606                	sw	ra,44(sp)
    89de:	cc52                	sw	s4,24(sp)
    89e0:	8aaa                	mv	s5,a0
    89e2:	00198913          	addi	s2,s3,1
    89e6:	0927c463          	blt	a5,s2,8a6e <__lshift+0xae>
    89ea:	8556                	mv	a0,s5
    89ec:	c632                	sw	a2,12(sp)
    89ee:	ba1ff0ef          	jal	ra,858e <_Balloc>
    89f2:	4632                	lw	a2,12(sp)
    89f4:	01450793          	addi	a5,a0,20
    89f8:	8a2a                	mv	s4,a0
    89fa:	86be                	mv	a3,a5
    89fc:	4701                	li	a4,0
    89fe:	0691                	addi	a3,a3,4
    8a00:	06874a63          	blt	a4,s0,8a74 <__lshift+0xb4>
    8a04:	00045363          	bgez	s0,8a0a <__lshift+0x4a>
    8a08:	4401                	li	s0,0
    8a0a:	4894                	lw	a3,16(s1)
    8a0c:	040a                	slli	s0,s0,0x2
    8a0e:	00878733          	add	a4,a5,s0
    8a12:	068a                	slli	a3,a3,0x2
    8a14:	01448793          	addi	a5,s1,20
    8a18:	8a7d                	andi	a2,a2,31
    8a1a:	96be                	add	a3,a3,a5
    8a1c:	c225                	beqz	a2,8a7c <__lshift+0xbc>
    8a1e:	02000813          	li	a6,32
    8a22:	40c80833          	sub	a6,a6,a2
    8a26:	4581                	li	a1,0
    8a28:	4388                	lw	a0,0(a5)
    8a2a:	0711                	addi	a4,a4,4
    8a2c:	0791                	addi	a5,a5,4
    8a2e:	00c51533          	sll	a0,a0,a2
    8a32:	8dc9                	or	a1,a1,a0
    8a34:	feb72e23          	sw	a1,-4(a4)
    8a38:	ffc7a583          	lw	a1,-4(a5)
    8a3c:	0105d5b3          	srl	a1,a1,a6
    8a40:	fed7e4e3          	bltu	a5,a3,8a28 <__lshift+0x68>
    8a44:	c30c                	sw	a1,0(a4)
    8a46:	c199                	beqz	a1,8a4c <__lshift+0x8c>
    8a48:	00298913          	addi	s2,s3,2
    8a4c:	197d                	addi	s2,s2,-1
    8a4e:	012a2823          	sw	s2,16(s4)
    8a52:	8556                	mv	a0,s5
    8a54:	85a6                	mv	a1,s1
    8a56:	bc1ff0ef          	jal	ra,8616 <_Bfree>
    8a5a:	50b2                	lw	ra,44(sp)
    8a5c:	5422                	lw	s0,40(sp)
    8a5e:	8552                	mv	a0,s4
    8a60:	5492                	lw	s1,36(sp)
    8a62:	5902                	lw	s2,32(sp)
    8a64:	49f2                	lw	s3,28(sp)
    8a66:	4a62                	lw	s4,24(sp)
    8a68:	4ad2                	lw	s5,20(sp)
    8a6a:	6145                	addi	sp,sp,48
    8a6c:	8082                	ret
    8a6e:	0585                	addi	a1,a1,1
    8a70:	0786                	slli	a5,a5,0x1
    8a72:	bf95                	j	89e6 <__lshift+0x26>
    8a74:	fe06ae23          	sw	zero,-4(a3) # fffc <_data_lma+0x5b28>
    8a78:	0705                	addi	a4,a4,1
    8a7a:	b751                	j	89fe <__lshift+0x3e>
    8a7c:	0791                	addi	a5,a5,4
    8a7e:	ffc7a603          	lw	a2,-4(a5)
    8a82:	0711                	addi	a4,a4,4
    8a84:	fec72e23          	sw	a2,-4(a4)
    8a88:	fed7eae3          	bltu	a5,a3,8a7c <__lshift+0xbc>
    8a8c:	b7c1                	j	8a4c <__lshift+0x8c>

00008a8e <__mcmp>:
__mcmp():
    8a8e:	491c                	lw	a5,16(a0)
    8a90:	4998                	lw	a4,16(a1)
    8a92:	8f99                	sub	a5,a5,a4
    8a94:	e38d                	bnez	a5,8ab6 <__mcmp+0x28>
    8a96:	070a                	slli	a4,a4,0x2
    8a98:	0551                	addi	a0,a0,20
    8a9a:	05d1                	addi	a1,a1,20
    8a9c:	00e506b3          	add	a3,a0,a4
    8aa0:	95ba                	add	a1,a1,a4
    8aa2:	16f1                	addi	a3,a3,-4
    8aa4:	15f1                	addi	a1,a1,-4
    8aa6:	4290                	lw	a2,0(a3)
    8aa8:	4198                	lw	a4,0(a1)
    8aaa:	00e60863          	beq	a2,a4,8aba <__mcmp+0x2c>
    8aae:	57fd                	li	a5,-1
    8ab0:	00e66363          	bltu	a2,a4,8ab6 <__mcmp+0x28>
    8ab4:	4785                	li	a5,1
    8ab6:	853e                	mv	a0,a5
    8ab8:	8082                	ret
    8aba:	fed564e3          	bltu	a0,a3,8aa2 <__mcmp+0x14>
    8abe:	bfe5                	j	8ab6 <__mcmp+0x28>

00008ac0 <__mdiff>:
__mdiff():
    8ac0:	1101                	addi	sp,sp,-32
    8ac2:	ca26                	sw	s1,20(sp)
    8ac4:	84ae                	mv	s1,a1
    8ac6:	c64e                	sw	s3,12(sp)
    8ac8:	85b2                	mv	a1,a2
    8aca:	89aa                	mv	s3,a0
    8acc:	8526                	mv	a0,s1
    8ace:	cc22                	sw	s0,24(sp)
    8ad0:	ce06                	sw	ra,28(sp)
    8ad2:	c84a                	sw	s2,16(sp)
    8ad4:	8432                	mv	s0,a2
    8ad6:	fb9ff0ef          	jal	ra,8a8e <__mcmp>
    8ada:	e105                	bnez	a0,8afa <__mdiff+0x3a>
    8adc:	4581                	li	a1,0
    8ade:	854e                	mv	a0,s3
    8ae0:	aafff0ef          	jal	ra,858e <_Balloc>
    8ae4:	4785                	li	a5,1
    8ae6:	c91c                	sw	a5,16(a0)
    8ae8:	00052a23          	sw	zero,20(a0)
    8aec:	40f2                	lw	ra,28(sp)
    8aee:	4462                	lw	s0,24(sp)
    8af0:	44d2                	lw	s1,20(sp)
    8af2:	4942                	lw	s2,16(sp)
    8af4:	49b2                	lw	s3,12(sp)
    8af6:	6105                	addi	sp,sp,32
    8af8:	8082                	ret
    8afa:	4905                	li	s2,1
    8afc:	00054663          	bltz	a0,8b08 <__mdiff+0x48>
    8b00:	87a2                	mv	a5,s0
    8b02:	4901                	li	s2,0
    8b04:	8426                	mv	s0,s1
    8b06:	84be                	mv	s1,a5
    8b08:	404c                	lw	a1,4(s0)
    8b0a:	854e                	mv	a0,s3
    8b0c:	a83ff0ef          	jal	ra,858e <_Balloc>
    8b10:	01042303          	lw	t1,16(s0)
    8b14:	0104a883          	lw	a7,16(s1)
    8b18:	01440613          	addi	a2,s0,20
    8b1c:	00231e13          	slli	t3,t1,0x2
    8b20:	01448813          	addi	a6,s1,20
    8b24:	088a                	slli	a7,a7,0x2
    8b26:	6ec1                	lui	t4,0x10
    8b28:	01252623          	sw	s2,12(a0)
    8b2c:	9e32                	add	t3,t3,a2
    8b2e:	98c2                	add	a7,a7,a6
    8b30:	01450693          	addi	a3,a0,20
    8b34:	4f01                	li	t5,0
    8b36:	1efd                	addi	t4,t4,-1
    8b38:	4218                	lw	a4,0(a2)
    8b3a:	00082f83          	lw	t6,0(a6)
    8b3e:	0691                	addi	a3,a3,4
    8b40:	01d775b3          	and	a1,a4,t4
    8b44:	01dff7b3          	and	a5,t6,t4
    8b48:	95fa                	add	a1,a1,t5
    8b4a:	8d9d                	sub	a1,a1,a5
    8b4c:	010fdf93          	srli	t6,t6,0x10
    8b50:	01075793          	srli	a5,a4,0x10
    8b54:	41f787b3          	sub	a5,a5,t6
    8b58:	4105d713          	srai	a4,a1,0x10
    8b5c:	97ba                	add	a5,a5,a4
    8b5e:	4107df13          	srai	t5,a5,0x10
    8b62:	01d5f5b3          	and	a1,a1,t4
    8b66:	07c2                	slli	a5,a5,0x10
    8b68:	8fcd                	or	a5,a5,a1
    8b6a:	0811                	addi	a6,a6,4
    8b6c:	fef6ae23          	sw	a5,-4(a3)
    8b70:	0611                	addi	a2,a2,4
    8b72:	fd1863e3          	bltu	a6,a7,8b38 <__mdiff+0x78>
    8b76:	65c1                	lui	a1,0x10
    8b78:	15fd                	addi	a1,a1,-1
    8b7a:	01c66863          	bltu	a2,t3,8b8a <__mdiff+0xca>
    8b7e:	16f1                	addi	a3,a3,-4
    8b80:	429c                	lw	a5,0(a3)
    8b82:	c795                	beqz	a5,8bae <__mdiff+0xee>
    8b84:	00652823          	sw	t1,16(a0)
    8b88:	b795                	j	8aec <__mdiff+0x2c>
    8b8a:	421c                	lw	a5,0(a2)
    8b8c:	0691                	addi	a3,a3,4
    8b8e:	0611                	addi	a2,a2,4
    8b90:	00b7f733          	and	a4,a5,a1
    8b94:	977a                	add	a4,a4,t5
    8b96:	41075813          	srai	a6,a4,0x10
    8b9a:	83c1                	srli	a5,a5,0x10
    8b9c:	97c2                	add	a5,a5,a6
    8b9e:	4107df13          	srai	t5,a5,0x10
    8ba2:	8f6d                	and	a4,a4,a1
    8ba4:	07c2                	slli	a5,a5,0x10
    8ba6:	8fd9                	or	a5,a5,a4
    8ba8:	fef6ae23          	sw	a5,-4(a3)
    8bac:	b7f9                	j	8b7a <__mdiff+0xba>
    8bae:	137d                	addi	t1,t1,-1
    8bb0:	b7f9                	j	8b7e <__mdiff+0xbe>

00008bb2 <__d2b>:
__d2b():
    8bb2:	7179                	addi	sp,sp,-48
    8bb4:	d422                	sw	s0,40(sp)
    8bb6:	842e                	mv	s0,a1
    8bb8:	4585                	li	a1,1
    8bba:	d226                	sw	s1,36(sp)
    8bbc:	d04a                	sw	s2,32(sp)
    8bbe:	84b2                	mv	s1,a2
    8bc0:	ce4e                	sw	s3,28(sp)
    8bc2:	cc52                	sw	s4,24(sp)
    8bc4:	893a                	mv	s2,a4
    8bc6:	d606                	sw	ra,44(sp)
    8bc8:	8a36                	mv	s4,a3
    8bca:	9c5ff0ef          	jal	ra,858e <_Balloc>
    8bce:	00100737          	lui	a4,0x100
    8bd2:	fff70793          	addi	a5,a4,-1 # fffff <_data_lma+0xf5b2b>
    8bd6:	8fe5                	and	a5,a5,s1
    8bd8:	80d1                	srli	s1,s1,0x14
    8bda:	7ff4f493          	andi	s1,s1,2047
    8bde:	89aa                	mv	s3,a0
    8be0:	e0b5                	bnez	s1,8c44 <__d2b+0x92>
    8be2:	c63e                	sw	a5,12(sp)
    8be4:	c42d                	beqz	s0,8c4e <__d2b+0x9c>
    8be6:	0028                	addi	a0,sp,8
    8be8:	c422                	sw	s0,8(sp)
    8bea:	b4fff0ef          	jal	ra,8738 <__lo0bits>
    8bee:	46a2                	lw	a3,8(sp)
    8bf0:	cd21                	beqz	a0,8c48 <__d2b+0x96>
    8bf2:	4732                	lw	a4,12(sp)
    8bf4:	02000793          	li	a5,32
    8bf8:	8f89                	sub	a5,a5,a0
    8bfa:	00f717b3          	sll	a5,a4,a5
    8bfe:	8fd5                	or	a5,a5,a3
    8c00:	00a75733          	srl	a4,a4,a0
    8c04:	00f9aa23          	sw	a5,20(s3)
    8c08:	c63a                	sw	a4,12(sp)
    8c0a:	4432                	lw	s0,12(sp)
    8c0c:	0089ac23          	sw	s0,24(s3)
    8c10:	00803433          	snez	s0,s0
    8c14:	0405                	addi	s0,s0,1
    8c16:	0089a823          	sw	s0,16(s3)
    8c1a:	c4b9                	beqz	s1,8c68 <__d2b+0xb6>
    8c1c:	bcd48493          	addi	s1,s1,-1075
    8c20:	94aa                	add	s1,s1,a0
    8c22:	03500793          	li	a5,53
    8c26:	009a2023          	sw	s1,0(s4)
    8c2a:	40a78533          	sub	a0,a5,a0
    8c2e:	00a92023          	sw	a0,0(s2)
    8c32:	50b2                	lw	ra,44(sp)
    8c34:	5422                	lw	s0,40(sp)
    8c36:	854e                	mv	a0,s3
    8c38:	5492                	lw	s1,36(sp)
    8c3a:	5902                	lw	s2,32(sp)
    8c3c:	49f2                	lw	s3,28(sp)
    8c3e:	4a62                	lw	s4,24(sp)
    8c40:	6145                	addi	sp,sp,48
    8c42:	8082                	ret
    8c44:	8fd9                	or	a5,a5,a4
    8c46:	bf71                	j	8be2 <__d2b+0x30>
    8c48:	00d9aa23          	sw	a3,20(s3)
    8c4c:	bf7d                	j	8c0a <__d2b+0x58>
    8c4e:	0068                	addi	a0,sp,12
    8c50:	ae9ff0ef          	jal	ra,8738 <__lo0bits>
    8c54:	47b2                	lw	a5,12(sp)
    8c56:	02050513          	addi	a0,a0,32
    8c5a:	4405                	li	s0,1
    8c5c:	00f9aa23          	sw	a5,20(s3)
    8c60:	4785                	li	a5,1
    8c62:	00f9a823          	sw	a5,16(s3)
    8c66:	bf55                	j	8c1a <__d2b+0x68>
    8c68:	00241793          	slli	a5,s0,0x2
    8c6c:	bce50513          	addi	a0,a0,-1074
    8c70:	97ce                	add	a5,a5,s3
    8c72:	00aa2023          	sw	a0,0(s4)
    8c76:	4b88                	lw	a0,16(a5)
    8c78:	0416                	slli	s0,s0,0x5
    8c7a:	a79ff0ef          	jal	ra,86f2 <__hi0bits>
    8c7e:	8c09                	sub	s0,s0,a0
    8c80:	00892023          	sw	s0,0(s2)
    8c84:	b77d                	j	8c32 <__d2b+0x80>

00008c86 <_calloc_r>:
_calloc_r():
    8c86:	02c58633          	mul	a2,a1,a2
    8c8a:	1101                	addi	sp,sp,-32
    8c8c:	cc22                	sw	s0,24(sp)
    8c8e:	ce06                	sw	ra,28(sp)
    8c90:	85b2                	mv	a1,a2
    8c92:	c632                	sw	a2,12(sp)
    8c94:	2875                	jal	8d50 <_malloc_r>
    8c96:	842a                	mv	s0,a0
    8c98:	c509                	beqz	a0,8ca2 <_calloc_r+0x1c>
    8c9a:	4632                	lw	a2,12(sp)
    8c9c:	4581                	li	a1,0
    8c9e:	d76f70ef          	jal	ra,214 <memset>
    8ca2:	8522                	mv	a0,s0
    8ca4:	40f2                	lw	ra,28(sp)
    8ca6:	4462                	lw	s0,24(sp)
    8ca8:	6105                	addi	sp,sp,32
    8caa:	8082                	ret

00008cac <_free_r>:
_free_r():
    8cac:	c1cd                	beqz	a1,8d4e <_free_r+0xa2>
    8cae:	ffc5a783          	lw	a5,-4(a1) # fffc <_data_lma+0x5b28>
    8cb2:	1141                	addi	sp,sp,-16
    8cb4:	c422                	sw	s0,8(sp)
    8cb6:	c606                	sw	ra,12(sp)
    8cb8:	c226                	sw	s1,4(sp)
    8cba:	ffc58413          	addi	s0,a1,-4
    8cbe:	0007d363          	bgez	a5,8cc4 <_free_r+0x18>
    8cc2:	943e                	add	s0,s0,a5
    8cc4:	84aa                	mv	s1,a0
    8cc6:	2d99                	jal	931c <__malloc_lock>
    8cc8:	88418793          	addi	a5,gp,-1916 # 200002a4 <__malloc_free_list>
    8ccc:	439c                	lw	a5,0(a5)
    8cce:	eb99                	bnez	a5,8ce4 <_free_r+0x38>
    8cd0:	00042223          	sw	zero,4(s0)
    8cd4:	8881a223          	sw	s0,-1916(gp) # 200002a4 <__malloc_free_list>
    8cd8:	4422                	lw	s0,8(sp)
    8cda:	40b2                	lw	ra,12(sp)
    8cdc:	8526                	mv	a0,s1
    8cde:	4492                	lw	s1,4(sp)
    8ce0:	0141                	addi	sp,sp,16
    8ce2:	ad35                	j	931e <__malloc_unlock>
    8ce4:	00f47e63          	bgeu	s0,a5,8d00 <_free_r+0x54>
    8ce8:	4014                	lw	a3,0(s0)
    8cea:	00d40733          	add	a4,s0,a3
    8cee:	00e79663          	bne	a5,a4,8cfa <_free_r+0x4e>
    8cf2:	4398                	lw	a4,0(a5)
    8cf4:	43dc                	lw	a5,4(a5)
    8cf6:	9736                	add	a4,a4,a3
    8cf8:	c018                	sw	a4,0(s0)
    8cfa:	c05c                	sw	a5,4(s0)
    8cfc:	bfe1                	j	8cd4 <_free_r+0x28>
    8cfe:	87ba                	mv	a5,a4
    8d00:	43d8                	lw	a4,4(a5)
    8d02:	c319                	beqz	a4,8d08 <_free_r+0x5c>
    8d04:	fee47de3          	bgeu	s0,a4,8cfe <_free_r+0x52>
    8d08:	4394                	lw	a3,0(a5)
    8d0a:	00d78633          	add	a2,a5,a3
    8d0e:	00861f63          	bne	a2,s0,8d2c <_free_r+0x80>
    8d12:	4010                	lw	a2,0(s0)
    8d14:	96b2                	add	a3,a3,a2
    8d16:	c394                	sw	a3,0(a5)
    8d18:	00d78633          	add	a2,a5,a3
    8d1c:	fac71ee3          	bne	a4,a2,8cd8 <_free_r+0x2c>
    8d20:	4310                	lw	a2,0(a4)
    8d22:	4358                	lw	a4,4(a4)
    8d24:	96b2                	add	a3,a3,a2
    8d26:	c394                	sw	a3,0(a5)
    8d28:	c3d8                	sw	a4,4(a5)
    8d2a:	b77d                	j	8cd8 <_free_r+0x2c>
    8d2c:	00c47563          	bgeu	s0,a2,8d36 <_free_r+0x8a>
    8d30:	47b1                	li	a5,12
    8d32:	c09c                	sw	a5,0(s1)
    8d34:	b755                	j	8cd8 <_free_r+0x2c>
    8d36:	4010                	lw	a2,0(s0)
    8d38:	00c406b3          	add	a3,s0,a2
    8d3c:	00d71663          	bne	a4,a3,8d48 <_free_r+0x9c>
    8d40:	4314                	lw	a3,0(a4)
    8d42:	4358                	lw	a4,4(a4)
    8d44:	96b2                	add	a3,a3,a2
    8d46:	c014                	sw	a3,0(s0)
    8d48:	c058                	sw	a4,4(s0)
    8d4a:	c3c0                	sw	s0,4(a5)
    8d4c:	b771                	j	8cd8 <_free_r+0x2c>
    8d4e:	8082                	ret

00008d50 <_malloc_r>:
_malloc_r():
    8d50:	1101                	addi	sp,sp,-32
    8d52:	ca26                	sw	s1,20(sp)
    8d54:	00358493          	addi	s1,a1,3
    8d58:	98f1                	andi	s1,s1,-4
    8d5a:	ce06                	sw	ra,28(sp)
    8d5c:	cc22                	sw	s0,24(sp)
    8d5e:	c84a                	sw	s2,16(sp)
    8d60:	c64e                	sw	s3,12(sp)
    8d62:	04a1                	addi	s1,s1,8
    8d64:	47b1                	li	a5,12
    8d66:	04f4f163          	bgeu	s1,a5,8da8 <_malloc_r+0x58>
    8d6a:	44b1                	li	s1,12
    8d6c:	04b4e063          	bltu	s1,a1,8dac <_malloc_r+0x5c>
    8d70:	892a                	mv	s2,a0
    8d72:	236d                	jal	931c <__malloc_lock>
    8d74:	88418793          	addi	a5,gp,-1916 # 200002a4 <__malloc_free_list>
    8d78:	4398                	lw	a4,0(a5)
    8d7a:	843a                	mv	s0,a4
    8d7c:	e031                	bnez	s0,8dc0 <_malloc_r+0x70>
    8d7e:	88818793          	addi	a5,gp,-1912 # 200002a8 <__malloc_sbrk_start>
    8d82:	439c                	lw	a5,0(a5)
    8d84:	e791                	bnez	a5,8d90 <_malloc_r+0x40>
    8d86:	4581                	li	a1,0
    8d88:	854a                	mv	a0,s2
    8d8a:	264d                	jal	912c <_sbrk_r>
    8d8c:	88a1a423          	sw	a0,-1912(gp) # 200002a8 <__malloc_sbrk_start>
    8d90:	85a6                	mv	a1,s1
    8d92:	854a                	mv	a0,s2
    8d94:	2e61                	jal	912c <_sbrk_r>
    8d96:	59fd                	li	s3,-1
    8d98:	07351763          	bne	a0,s3,8e06 <_malloc_r+0xb6>
    8d9c:	47b1                	li	a5,12
    8d9e:	00f92023          	sw	a5,0(s2)
    8da2:	854a                	mv	a0,s2
    8da4:	2bad                	jal	931e <__malloc_unlock>
    8da6:	a029                	j	8db0 <_malloc_r+0x60>
    8da8:	fc04d2e3          	bgez	s1,8d6c <_malloc_r+0x1c>
    8dac:	47b1                	li	a5,12
    8dae:	c11c                	sw	a5,0(a0)
    8db0:	4501                	li	a0,0
    8db2:	40f2                	lw	ra,28(sp)
    8db4:	4462                	lw	s0,24(sp)
    8db6:	44d2                	lw	s1,20(sp)
    8db8:	4942                	lw	s2,16(sp)
    8dba:	49b2                	lw	s3,12(sp)
    8dbc:	6105                	addi	sp,sp,32
    8dbe:	8082                	ret
    8dc0:	401c                	lw	a5,0(s0)
    8dc2:	8f85                	sub	a5,a5,s1
    8dc4:	0207ce63          	bltz	a5,8e00 <_malloc_r+0xb0>
    8dc8:	46ad                	li	a3,11
    8dca:	00f6f663          	bgeu	a3,a5,8dd6 <_malloc_r+0x86>
    8dce:	c01c                	sw	a5,0(s0)
    8dd0:	943e                	add	s0,s0,a5
    8dd2:	c004                	sw	s1,0(s0)
    8dd4:	a031                	j	8de0 <_malloc_r+0x90>
    8dd6:	405c                	lw	a5,4(s0)
    8dd8:	02871263          	bne	a4,s0,8dfc <_malloc_r+0xac>
    8ddc:	88f1a223          	sw	a5,-1916(gp) # 200002a4 <__malloc_free_list>
    8de0:	854a                	mv	a0,s2
    8de2:	2b35                	jal	931e <__malloc_unlock>
    8de4:	00b40513          	addi	a0,s0,11
    8de8:	00440793          	addi	a5,s0,4
    8dec:	9961                	andi	a0,a0,-8
    8dee:	40f50733          	sub	a4,a0,a5
    8df2:	d361                	beqz	a4,8db2 <_malloc_r+0x62>
    8df4:	943a                	add	s0,s0,a4
    8df6:	8f89                	sub	a5,a5,a0
    8df8:	c01c                	sw	a5,0(s0)
    8dfa:	bf65                	j	8db2 <_malloc_r+0x62>
    8dfc:	c35c                	sw	a5,4(a4)
    8dfe:	b7cd                	j	8de0 <_malloc_r+0x90>
    8e00:	8722                	mv	a4,s0
    8e02:	4040                	lw	s0,4(s0)
    8e04:	bfa5                	j	8d7c <_malloc_r+0x2c>
    8e06:	00350413          	addi	s0,a0,3
    8e0a:	9871                	andi	s0,s0,-4
    8e0c:	fc8503e3          	beq	a0,s0,8dd2 <_malloc_r+0x82>
    8e10:	40a405b3          	sub	a1,s0,a0
    8e14:	854a                	mv	a0,s2
    8e16:	2e19                	jal	912c <_sbrk_r>
    8e18:	fb351de3          	bne	a0,s3,8dd2 <_malloc_r+0x82>
    8e1c:	b741                	j	8d9c <_malloc_r+0x4c>

00008e1e <__sfputc_r>:
__sfputc_r():
    8e1e:	461c                	lw	a5,8(a2)
    8e20:	17fd                	addi	a5,a5,-1
    8e22:	c61c                	sw	a5,8(a2)
    8e24:	0007da63          	bgez	a5,8e38 <__sfputc_r+0x1a>
    8e28:	4e18                	lw	a4,24(a2)
    8e2a:	00e7c563          	blt	a5,a4,8e34 <__sfputc_r+0x16>
    8e2e:	47a9                	li	a5,10
    8e30:	00f59463          	bne	a1,a5,8e38 <__sfputc_r+0x1a>
    8e34:	b18fe06f          	j	714c <__swbuf_r>
    8e38:	421c                	lw	a5,0(a2)
    8e3a:	852e                	mv	a0,a1
    8e3c:	00178713          	addi	a4,a5,1
    8e40:	c218                	sw	a4,0(a2)
    8e42:	00b78023          	sb	a1,0(a5)
    8e46:	8082                	ret

00008e48 <__sfputs_r>:
__sfputs_r():
    8e48:	1101                	addi	sp,sp,-32
    8e4a:	cc22                	sw	s0,24(sp)
    8e4c:	ca26                	sw	s1,20(sp)
    8e4e:	c84a                	sw	s2,16(sp)
    8e50:	c64e                	sw	s3,12(sp)
    8e52:	c452                	sw	s4,8(sp)
    8e54:	ce06                	sw	ra,28(sp)
    8e56:	892a                	mv	s2,a0
    8e58:	89ae                	mv	s3,a1
    8e5a:	8432                	mv	s0,a2
    8e5c:	00d604b3          	add	s1,a2,a3
    8e60:	5a7d                	li	s4,-1
    8e62:	00941463          	bne	s0,s1,8e6a <__sfputs_r+0x22>
    8e66:	4501                	li	a0,0
    8e68:	a811                	j	8e7c <__sfputs_r+0x34>
    8e6a:	00044583          	lbu	a1,0(s0)
    8e6e:	864e                	mv	a2,s3
    8e70:	854a                	mv	a0,s2
    8e72:	fadff0ef          	jal	ra,8e1e <__sfputc_r>
    8e76:	0405                	addi	s0,s0,1
    8e78:	ff4515e3          	bne	a0,s4,8e62 <__sfputs_r+0x1a>
    8e7c:	40f2                	lw	ra,28(sp)
    8e7e:	4462                	lw	s0,24(sp)
    8e80:	44d2                	lw	s1,20(sp)
    8e82:	4942                	lw	s2,16(sp)
    8e84:	49b2                	lw	s3,12(sp)
    8e86:	4a22                	lw	s4,8(sp)
    8e88:	6105                	addi	sp,sp,32
    8e8a:	8082                	ret

00008e8c <_vfiprintf_r>:
_vfiprintf_r():
    8e8c:	7135                	addi	sp,sp,-160
    8e8e:	cd22                	sw	s0,152(sp)
    8e90:	cb26                	sw	s1,148(sp)
    8e92:	c94a                	sw	s2,144(sp)
    8e94:	c74e                	sw	s3,140(sp)
    8e96:	cf06                	sw	ra,156(sp)
    8e98:	c552                	sw	s4,136(sp)
    8e9a:	c356                	sw	s5,132(sp)
    8e9c:	c15a                	sw	s6,128(sp)
    8e9e:	dede                	sw	s7,124(sp)
    8ea0:	dce2                	sw	s8,120(sp)
    8ea2:	dae6                	sw	s9,116(sp)
    8ea4:	89aa                	mv	s3,a0
    8ea6:	84ae                	mv	s1,a1
    8ea8:	8932                	mv	s2,a2
    8eaa:	8436                	mv	s0,a3
    8eac:	c509                	beqz	a0,8eb6 <_vfiprintf_r+0x2a>
    8eae:	4d1c                	lw	a5,24(a0)
    8eb0:	e399                	bnez	a5,8eb6 <_vfiprintf_r+0x2a>
    8eb2:	c2aff0ef          	jal	ra,82dc <__sinit>
    8eb6:	00001797          	auipc	a5,0x1
    8eba:	3ba78793          	addi	a5,a5,954 # a270 <__sf_fake_stdin>
    8ebe:	0cf49d63          	bne	s1,a5,8f98 <_vfiprintf_r+0x10c>
    8ec2:	0049a483          	lw	s1,4(s3)
    8ec6:	00c4d783          	lhu	a5,12(s1)
    8eca:	8ba1                	andi	a5,a5,8
    8ecc:	cbe5                	beqz	a5,8fbc <_vfiprintf_r+0x130>
    8ece:	489c                	lw	a5,16(s1)
    8ed0:	c7f5                	beqz	a5,8fbc <_vfiprintf_r+0x130>
    8ed2:	02000793          	li	a5,32
    8ed6:	02f104a3          	sb	a5,41(sp)
    8eda:	03000793          	li	a5,48
    8ede:	d202                	sw	zero,36(sp)
    8ee0:	02f10523          	sb	a5,42(sp)
    8ee4:	c622                	sw	s0,12(sp)
    8ee6:	02500b93          	li	s7,37
    8eea:	00001a97          	auipc	s5,0x1
    8eee:	4c2a8a93          	addi	s5,s5,1218 # a3ac <p05.3319+0xc>
    8ef2:	4c05                	li	s8,1
    8ef4:	4b29                	li	s6,10
    8ef6:	844a                	mv	s0,s2
    8ef8:	00044783          	lbu	a5,0(s0)
    8efc:	c399                	beqz	a5,8f02 <_vfiprintf_r+0x76>
    8efe:	0f779263          	bne	a5,s7,8fe2 <_vfiprintf_r+0x156>
    8f02:	41240cb3          	sub	s9,s0,s2
    8f06:	000c8e63          	beqz	s9,8f22 <_vfiprintf_r+0x96>
    8f0a:	86e6                	mv	a3,s9
    8f0c:	864a                	mv	a2,s2
    8f0e:	85a6                	mv	a1,s1
    8f10:	854e                	mv	a0,s3
    8f12:	f37ff0ef          	jal	ra,8e48 <__sfputs_r>
    8f16:	57fd                	li	a5,-1
    8f18:	1ef50763          	beq	a0,a5,9106 <_vfiprintf_r+0x27a>
    8f1c:	5692                	lw	a3,36(sp)
    8f1e:	96e6                	add	a3,a3,s9
    8f20:	d236                	sw	a3,36(sp)
    8f22:	00044783          	lbu	a5,0(s0)
    8f26:	1e078063          	beqz	a5,9106 <_vfiprintf_r+0x27a>
    8f2a:	57fd                	li	a5,-1
    8f2c:	00140913          	addi	s2,s0,1
    8f30:	c802                	sw	zero,16(sp)
    8f32:	ce02                	sw	zero,28(sp)
    8f34:	ca3e                	sw	a5,20(sp)
    8f36:	cc02                	sw	zero,24(sp)
    8f38:	040109a3          	sb	zero,83(sp)
    8f3c:	d482                	sw	zero,104(sp)
    8f3e:	00094583          	lbu	a1,0(s2)
    8f42:	4615                	li	a2,5
    8f44:	8556                	mv	a0,s5
    8f46:	e2eff0ef          	jal	ra,8574 <memchr>
    8f4a:	00190413          	addi	s0,s2,1
    8f4e:	47c2                	lw	a5,16(sp)
    8f50:	e959                	bnez	a0,8fe6 <_vfiprintf_r+0x15a>
    8f52:	0107f713          	andi	a4,a5,16
    8f56:	c709                	beqz	a4,8f60 <_vfiprintf_r+0xd4>
    8f58:	02000713          	li	a4,32
    8f5c:	04e109a3          	sb	a4,83(sp)
    8f60:	0087f713          	andi	a4,a5,8
    8f64:	c709                	beqz	a4,8f6e <_vfiprintf_r+0xe2>
    8f66:	02b00713          	li	a4,43
    8f6a:	04e109a3          	sb	a4,83(sp)
    8f6e:	00094683          	lbu	a3,0(s2)
    8f72:	02a00713          	li	a4,42
    8f76:	08e68063          	beq	a3,a4,8ff6 <_vfiprintf_r+0x16a>
    8f7a:	47f2                	lw	a5,28(sp)
    8f7c:	844a                	mv	s0,s2
    8f7e:	4681                	li	a3,0
    8f80:	4625                	li	a2,9
    8f82:	00044703          	lbu	a4,0(s0)
    8f86:	00140593          	addi	a1,s0,1
    8f8a:	fd070713          	addi	a4,a4,-48
    8f8e:	0ae67963          	bgeu	a2,a4,9040 <_vfiprintf_r+0x1b4>
    8f92:	cab5                	beqz	a3,9006 <_vfiprintf_r+0x17a>
    8f94:	ce3e                	sw	a5,28(sp)
    8f96:	a885                	j	9006 <_vfiprintf_r+0x17a>
    8f98:	00001797          	auipc	a5,0x1
    8f9c:	2f878793          	addi	a5,a5,760 # a290 <__sf_fake_stdout>
    8fa0:	00f49563          	bne	s1,a5,8faa <_vfiprintf_r+0x11e>
    8fa4:	0089a483          	lw	s1,8(s3)
    8fa8:	bf39                	j	8ec6 <_vfiprintf_r+0x3a>
    8faa:	00001797          	auipc	a5,0x1
    8fae:	2a678793          	addi	a5,a5,678 # a250 <__sf_fake_stderr>
    8fb2:	f0f49ae3          	bne	s1,a5,8ec6 <_vfiprintf_r+0x3a>
    8fb6:	00c9a483          	lw	s1,12(s3)
    8fba:	b731                	j	8ec6 <_vfiprintf_r+0x3a>
    8fbc:	85a6                	mv	a1,s1
    8fbe:	854e                	mv	a0,s3
    8fc0:	a52fe0ef          	jal	ra,7212 <__swsetup_r>
    8fc4:	d519                	beqz	a0,8ed2 <_vfiprintf_r+0x46>
    8fc6:	557d                	li	a0,-1
    8fc8:	40fa                	lw	ra,156(sp)
    8fca:	446a                	lw	s0,152(sp)
    8fcc:	44da                	lw	s1,148(sp)
    8fce:	494a                	lw	s2,144(sp)
    8fd0:	49ba                	lw	s3,140(sp)
    8fd2:	4a2a                	lw	s4,136(sp)
    8fd4:	4a9a                	lw	s5,132(sp)
    8fd6:	4b0a                	lw	s6,128(sp)
    8fd8:	5bf6                	lw	s7,124(sp)
    8fda:	5c66                	lw	s8,120(sp)
    8fdc:	5cd6                	lw	s9,116(sp)
    8fde:	610d                	addi	sp,sp,160
    8fe0:	8082                	ret
    8fe2:	0405                	addi	s0,s0,1
    8fe4:	bf11                	j	8ef8 <_vfiprintf_r+0x6c>
    8fe6:	41550533          	sub	a0,a0,s5
    8fea:	00ac1533          	sll	a0,s8,a0
    8fee:	8fc9                	or	a5,a5,a0
    8ff0:	c83e                	sw	a5,16(sp)
    8ff2:	8922                	mv	s2,s0
    8ff4:	b7a9                	j	8f3e <_vfiprintf_r+0xb2>
    8ff6:	4732                	lw	a4,12(sp)
    8ff8:	00470693          	addi	a3,a4,4
    8ffc:	4318                	lw	a4,0(a4)
    8ffe:	c636                	sw	a3,12(sp)
    9000:	02074963          	bltz	a4,9032 <_vfiprintf_r+0x1a6>
    9004:	ce3a                	sw	a4,28(sp)
    9006:	00044703          	lbu	a4,0(s0)
    900a:	02e00793          	li	a5,46
    900e:	04f71f63          	bne	a4,a5,906c <_vfiprintf_r+0x1e0>
    9012:	00144703          	lbu	a4,1(s0)
    9016:	02a00793          	li	a5,42
    901a:	02f71b63          	bne	a4,a5,9050 <_vfiprintf_r+0x1c4>
    901e:	47b2                	lw	a5,12(sp)
    9020:	0409                	addi	s0,s0,2
    9022:	00478713          	addi	a4,a5,4
    9026:	439c                	lw	a5,0(a5)
    9028:	c63a                	sw	a4,12(sp)
    902a:	0207c163          	bltz	a5,904c <_vfiprintf_r+0x1c0>
    902e:	ca3e                	sw	a5,20(sp)
    9030:	a835                	j	906c <_vfiprintf_r+0x1e0>
    9032:	40e00733          	neg	a4,a4
    9036:	0027e793          	ori	a5,a5,2
    903a:	ce3a                	sw	a4,28(sp)
    903c:	c83e                	sw	a5,16(sp)
    903e:	b7e1                	j	9006 <_vfiprintf_r+0x17a>
    9040:	036787b3          	mul	a5,a5,s6
    9044:	4685                	li	a3,1
    9046:	842e                	mv	s0,a1
    9048:	97ba                	add	a5,a5,a4
    904a:	bf25                	j	8f82 <_vfiprintf_r+0xf6>
    904c:	57fd                	li	a5,-1
    904e:	b7c5                	j	902e <_vfiprintf_r+0x1a2>
    9050:	0405                	addi	s0,s0,1
    9052:	ca02                	sw	zero,20(sp)
    9054:	4681                	li	a3,0
    9056:	4781                	li	a5,0
    9058:	4625                	li	a2,9
    905a:	00044703          	lbu	a4,0(s0)
    905e:	00140593          	addi	a1,s0,1
    9062:	fd070713          	addi	a4,a4,-48
    9066:	06e67863          	bgeu	a2,a4,90d6 <_vfiprintf_r+0x24a>
    906a:	f2f1                	bnez	a3,902e <_vfiprintf_r+0x1a2>
    906c:	00044583          	lbu	a1,0(s0)
    9070:	460d                	li	a2,3
    9072:	00001517          	auipc	a0,0x1
    9076:	34250513          	addi	a0,a0,834 # a3b4 <p05.3319+0x14>
    907a:	cfaff0ef          	jal	ra,8574 <memchr>
    907e:	cd11                	beqz	a0,909a <_vfiprintf_r+0x20e>
    9080:	00001797          	auipc	a5,0x1
    9084:	33478793          	addi	a5,a5,820 # a3b4 <p05.3319+0x14>
    9088:	8d1d                	sub	a0,a0,a5
    908a:	04000793          	li	a5,64
    908e:	00a797b3          	sll	a5,a5,a0
    9092:	4542                	lw	a0,16(sp)
    9094:	0405                	addi	s0,s0,1
    9096:	8d5d                	or	a0,a0,a5
    9098:	c82a                	sw	a0,16(sp)
    909a:	00044583          	lbu	a1,0(s0)
    909e:	4619                	li	a2,6
    90a0:	00001517          	auipc	a0,0x1
    90a4:	31850513          	addi	a0,a0,792 # a3b8 <p05.3319+0x18>
    90a8:	00140913          	addi	s2,s0,1
    90ac:	02b10423          	sb	a1,40(sp)
    90b0:	cc4ff0ef          	jal	ra,8574 <memchr>
    90b4:	c12d                	beqz	a0,9116 <_vfiprintf_r+0x28a>
    90b6:	ffffd797          	auipc	a5,0xffffd
    90ba:	7c678793          	addi	a5,a5,1990 # 687c <_printf_float>
    90be:	e795                	bnez	a5,90ea <_vfiprintf_r+0x25e>
    90c0:	4742                	lw	a4,16(sp)
    90c2:	47b2                	lw	a5,12(sp)
    90c4:	10077713          	andi	a4,a4,256
    90c8:	cf09                	beqz	a4,90e2 <_vfiprintf_r+0x256>
    90ca:	0791                	addi	a5,a5,4
    90cc:	c63e                	sw	a5,12(sp)
    90ce:	5792                	lw	a5,36(sp)
    90d0:	97d2                	add	a5,a5,s4
    90d2:	d23e                	sw	a5,36(sp)
    90d4:	b50d                	j	8ef6 <_vfiprintf_r+0x6a>
    90d6:	036787b3          	mul	a5,a5,s6
    90da:	4685                	li	a3,1
    90dc:	842e                	mv	s0,a1
    90de:	97ba                	add	a5,a5,a4
    90e0:	bfad                	j	905a <_vfiprintf_r+0x1ce>
    90e2:	079d                	addi	a5,a5,7
    90e4:	9be1                	andi	a5,a5,-8
    90e6:	07a1                	addi	a5,a5,8
    90e8:	b7d5                	j	90cc <_vfiprintf_r+0x240>
    90ea:	0078                	addi	a4,sp,12
    90ec:	00000697          	auipc	a3,0x0
    90f0:	d5c68693          	addi	a3,a3,-676 # 8e48 <__sfputs_r>
    90f4:	8626                	mv	a2,s1
    90f6:	080c                	addi	a1,sp,16
    90f8:	854e                	mv	a0,s3
    90fa:	f82fd0ef          	jal	ra,687c <_printf_float>
    90fe:	57fd                	li	a5,-1
    9100:	8a2a                	mv	s4,a0
    9102:	fcf516e3          	bne	a0,a5,90ce <_vfiprintf_r+0x242>
    9106:	00c4d783          	lhu	a5,12(s1)
    910a:	0407f793          	andi	a5,a5,64
    910e:	ea079ce3          	bnez	a5,8fc6 <_vfiprintf_r+0x13a>
    9112:	5512                	lw	a0,36(sp)
    9114:	bd55                	j	8fc8 <_vfiprintf_r+0x13c>
    9116:	0078                	addi	a4,sp,12
    9118:	00000697          	auipc	a3,0x0
    911c:	d3068693          	addi	a3,a3,-720 # 8e48 <__sfputs_r>
    9120:	8626                	mv	a2,s1
    9122:	080c                	addi	a1,sp,16
    9124:	854e                	mv	a0,s3
    9126:	d27fd0ef          	jal	ra,6e4c <_printf_i>
    912a:	bfd1                	j	90fe <_vfiprintf_r+0x272>

0000912c <_sbrk_r>:
_sbrk_r():
    912c:	1141                	addi	sp,sp,-16
    912e:	c422                	sw	s0,8(sp)
    9130:	842a                	mv	s0,a0
    9132:	852e                	mv	a0,a1
    9134:	8e01a023          	sw	zero,-1824(gp) # 20000300 <errno>
    9138:	c606                	sw	ra,12(sp)
    913a:	2bf9                	jal	9718 <_sbrk>
    913c:	57fd                	li	a5,-1
    913e:	00f51763          	bne	a0,a5,914c <_sbrk_r+0x20>
    9142:	8e018793          	addi	a5,gp,-1824 # 20000300 <errno>
    9146:	439c                	lw	a5,0(a5)
    9148:	c391                	beqz	a5,914c <_sbrk_r+0x20>
    914a:	c01c                	sw	a5,0(s0)
    914c:	40b2                	lw	ra,12(sp)
    914e:	4422                	lw	s0,8(sp)
    9150:	0141                	addi	sp,sp,16
    9152:	8082                	ret

00009154 <__sread>:
__sread():
    9154:	1141                	addi	sp,sp,-16
    9156:	c422                	sw	s0,8(sp)
    9158:	842e                	mv	s0,a1
    915a:	00e59583          	lh	a1,14(a1)
    915e:	c606                	sw	ra,12(sp)
    9160:	22c1                	jal	9320 <_read_r>
    9162:	00054963          	bltz	a0,9174 <__sread+0x20>
    9166:	487c                	lw	a5,84(s0)
    9168:	97aa                	add	a5,a5,a0
    916a:	c87c                	sw	a5,84(s0)
    916c:	40b2                	lw	ra,12(sp)
    916e:	4422                	lw	s0,8(sp)
    9170:	0141                	addi	sp,sp,16
    9172:	8082                	ret
    9174:	00c45783          	lhu	a5,12(s0)
    9178:	777d                	lui	a4,0xfffff
    917a:	177d                	addi	a4,a4,-1
    917c:	8ff9                	and	a5,a5,a4
    917e:	00f41623          	sh	a5,12(s0)
    9182:	b7ed                	j	916c <__sread+0x18>

00009184 <__swrite>:
__swrite():
    9184:	00c5d783          	lhu	a5,12(a1)
    9188:	1101                	addi	sp,sp,-32
    918a:	cc22                	sw	s0,24(sp)
    918c:	ca26                	sw	s1,20(sp)
    918e:	c84a                	sw	s2,16(sp)
    9190:	c64e                	sw	s3,12(sp)
    9192:	ce06                	sw	ra,28(sp)
    9194:	1007f793          	andi	a5,a5,256
    9198:	84aa                	mv	s1,a0
    919a:	842e                	mv	s0,a1
    919c:	8932                	mv	s2,a2
    919e:	89b6                	mv	s3,a3
    91a0:	c791                	beqz	a5,91ac <__swrite+0x28>
    91a2:	00e59583          	lh	a1,14(a1)
    91a6:	4689                	li	a3,2
    91a8:	4601                	li	a2,0
    91aa:	2231                	jal	92b6 <_lseek_r>
    91ac:	00c45783          	lhu	a5,12(s0)
    91b0:	777d                	lui	a4,0xfffff
    91b2:	177d                	addi	a4,a4,-1
    91b4:	8ff9                	and	a5,a5,a4
    91b6:	00f41623          	sh	a5,12(s0)
    91ba:	00e41583          	lh	a1,14(s0)
    91be:	4462                	lw	s0,24(sp)
    91c0:	40f2                	lw	ra,28(sp)
    91c2:	86ce                	mv	a3,s3
    91c4:	864a                	mv	a2,s2
    91c6:	49b2                	lw	s3,12(sp)
    91c8:	4942                	lw	s2,16(sp)
    91ca:	8526                	mv	a0,s1
    91cc:	44d2                	lw	s1,20(sp)
    91ce:	6105                	addi	sp,sp,32
    91d0:	a83d                	j	920e <_write_r>

000091d2 <__sseek>:
__sseek():
    91d2:	1141                	addi	sp,sp,-16
    91d4:	c422                	sw	s0,8(sp)
    91d6:	842e                	mv	s0,a1
    91d8:	00e59583          	lh	a1,14(a1)
    91dc:	c606                	sw	ra,12(sp)
    91de:	28e1                	jal	92b6 <_lseek_r>
    91e0:	57fd                	li	a5,-1
    91e2:	00c45703          	lhu	a4,12(s0)
    91e6:	00f51b63          	bne	a0,a5,91fc <__sseek+0x2a>
    91ea:	77fd                	lui	a5,0xfffff
    91ec:	17fd                	addi	a5,a5,-1
    91ee:	8ff9                	and	a5,a5,a4
    91f0:	00f41623          	sh	a5,12(s0)
    91f4:	40b2                	lw	ra,12(sp)
    91f6:	4422                	lw	s0,8(sp)
    91f8:	0141                	addi	sp,sp,16
    91fa:	8082                	ret
    91fc:	6785                	lui	a5,0x1
    91fe:	8fd9                	or	a5,a5,a4
    9200:	00f41623          	sh	a5,12(s0)
    9204:	c868                	sw	a0,84(s0)
    9206:	b7fd                	j	91f4 <__sseek+0x22>

00009208 <__sclose>:
__sclose():
    9208:	00e59583          	lh	a1,14(a1)
    920c:	a805                	j	923c <_close_r>

0000920e <_write_r>:
_write_r():
    920e:	1141                	addi	sp,sp,-16
    9210:	c422                	sw	s0,8(sp)
    9212:	842a                	mv	s0,a0
    9214:	852e                	mv	a0,a1
    9216:	85b2                	mv	a1,a2
    9218:	8636                	mv	a2,a3
    921a:	8e01a023          	sw	zero,-1824(gp) # 20000300 <errno>
    921e:	c606                	sw	ra,12(sp)
    9220:	f47f80ef          	jal	ra,2166 <_write>
    9224:	57fd                	li	a5,-1
    9226:	00f51763          	bne	a0,a5,9234 <_write_r+0x26>
    922a:	8e018793          	addi	a5,gp,-1824 # 20000300 <errno>
    922e:	439c                	lw	a5,0(a5)
    9230:	c391                	beqz	a5,9234 <_write_r+0x26>
    9232:	c01c                	sw	a5,0(s0)
    9234:	40b2                	lw	ra,12(sp)
    9236:	4422                	lw	s0,8(sp)
    9238:	0141                	addi	sp,sp,16
    923a:	8082                	ret

0000923c <_close_r>:
_close_r():
    923c:	1141                	addi	sp,sp,-16
    923e:	c422                	sw	s0,8(sp)
    9240:	842a                	mv	s0,a0
    9242:	852e                	mv	a0,a1
    9244:	8e01a023          	sw	zero,-1824(gp) # 20000300 <errno>
    9248:	c606                	sw	ra,12(sp)
    924a:	2949                	jal	96dc <_close>
    924c:	57fd                	li	a5,-1
    924e:	00f51763          	bne	a0,a5,925c <_close_r+0x20>
    9252:	8e018793          	addi	a5,gp,-1824 # 20000300 <errno>
    9256:	439c                	lw	a5,0(a5)
    9258:	c391                	beqz	a5,925c <_close_r+0x20>
    925a:	c01c                	sw	a5,0(s0)
    925c:	40b2                	lw	ra,12(sp)
    925e:	4422                	lw	s0,8(sp)
    9260:	0141                	addi	sp,sp,16
    9262:	8082                	ret

00009264 <_fstat_r>:
_fstat_r():
    9264:	1141                	addi	sp,sp,-16
    9266:	c422                	sw	s0,8(sp)
    9268:	842a                	mv	s0,a0
    926a:	852e                	mv	a0,a1
    926c:	85b2                	mv	a1,a2
    926e:	8e01a023          	sw	zero,-1824(gp) # 20000300 <errno>
    9272:	c606                	sw	ra,12(sp)
    9274:	2995                	jal	96e8 <_fstat>
    9276:	57fd                	li	a5,-1
    9278:	00f51763          	bne	a0,a5,9286 <_fstat_r+0x22>
    927c:	8e018793          	addi	a5,gp,-1824 # 20000300 <errno>
    9280:	439c                	lw	a5,0(a5)
    9282:	c391                	beqz	a5,9286 <_fstat_r+0x22>
    9284:	c01c                	sw	a5,0(s0)
    9286:	40b2                	lw	ra,12(sp)
    9288:	4422                	lw	s0,8(sp)
    928a:	0141                	addi	sp,sp,16
    928c:	8082                	ret

0000928e <_isatty_r>:
_isatty_r():
    928e:	1141                	addi	sp,sp,-16
    9290:	c422                	sw	s0,8(sp)
    9292:	842a                	mv	s0,a0
    9294:	852e                	mv	a0,a1
    9296:	8e01a023          	sw	zero,-1824(gp) # 20000300 <errno>
    929a:	c606                	sw	ra,12(sp)
    929c:	29a1                	jal	96f4 <_isatty>
    929e:	57fd                	li	a5,-1
    92a0:	00f51763          	bne	a0,a5,92ae <_isatty_r+0x20>
    92a4:	8e018793          	addi	a5,gp,-1824 # 20000300 <errno>
    92a8:	439c                	lw	a5,0(a5)
    92aa:	c391                	beqz	a5,92ae <_isatty_r+0x20>
    92ac:	c01c                	sw	a5,0(s0)
    92ae:	40b2                	lw	ra,12(sp)
    92b0:	4422                	lw	s0,8(sp)
    92b2:	0141                	addi	sp,sp,16
    92b4:	8082                	ret

000092b6 <_lseek_r>:
_lseek_r():
    92b6:	1141                	addi	sp,sp,-16
    92b8:	c422                	sw	s0,8(sp)
    92ba:	842a                	mv	s0,a0
    92bc:	852e                	mv	a0,a1
    92be:	85b2                	mv	a1,a2
    92c0:	8636                	mv	a2,a3
    92c2:	8e01a023          	sw	zero,-1824(gp) # 20000300 <errno>
    92c6:	c606                	sw	ra,12(sp)
    92c8:	2925                	jal	9700 <_lseek>
    92ca:	57fd                	li	a5,-1
    92cc:	00f51763          	bne	a0,a5,92da <_lseek_r+0x24>
    92d0:	8e018793          	addi	a5,gp,-1824 # 20000300 <errno>
    92d4:	439c                	lw	a5,0(a5)
    92d6:	c391                	beqz	a5,92da <_lseek_r+0x24>
    92d8:	c01c                	sw	a5,0(s0)
    92da:	40b2                	lw	ra,12(sp)
    92dc:	4422                	lw	s0,8(sp)
    92de:	0141                	addi	sp,sp,16
    92e0:	8082                	ret

000092e2 <__ascii_mbtowc>:
__ascii_mbtowc():
    92e2:	e185                	bnez	a1,9302 <__ascii_mbtowc+0x20>
    92e4:	1141                	addi	sp,sp,-16
    92e6:	006c                	addi	a1,sp,12
    92e8:	4501                	li	a0,0
    92ea:	ca11                	beqz	a2,92fe <__ascii_mbtowc+0x1c>
    92ec:	5579                	li	a0,-2
    92ee:	ca81                	beqz	a3,92fe <__ascii_mbtowc+0x1c>
    92f0:	00064783          	lbu	a5,0(a2)
    92f4:	c19c                	sw	a5,0(a1)
    92f6:	00064503          	lbu	a0,0(a2)
    92fa:	00a03533          	snez	a0,a0
    92fe:	0141                	addi	sp,sp,16
    9300:	8082                	ret
    9302:	4501                	li	a0,0
    9304:	ca19                	beqz	a2,931a <__ascii_mbtowc+0x38>
    9306:	5579                	li	a0,-2
    9308:	ca89                	beqz	a3,931a <__ascii_mbtowc+0x38>
    930a:	00064783          	lbu	a5,0(a2)
    930e:	c19c                	sw	a5,0(a1)
    9310:	00064503          	lbu	a0,0(a2)
    9314:	00a03533          	snez	a0,a0
    9318:	8082                	ret
    931a:	8082                	ret

0000931c <__malloc_lock>:
__malloc_lock():
    931c:	8082                	ret

0000931e <__malloc_unlock>:
__malloc_unlock():
    931e:	8082                	ret

00009320 <_read_r>:
_read_r():
    9320:	1141                	addi	sp,sp,-16
    9322:	c422                	sw	s0,8(sp)
    9324:	842a                	mv	s0,a0
    9326:	852e                	mv	a0,a1
    9328:	85b2                	mv	a1,a2
    932a:	8636                	mv	a2,a3
    932c:	8e01a023          	sw	zero,-1824(gp) # 20000300 <errno>
    9330:	c606                	sw	ra,12(sp)
    9332:	2ee9                	jal	970c <_read>
    9334:	57fd                	li	a5,-1
    9336:	00f51763          	bne	a0,a5,9344 <_read_r+0x24>
    933a:	8e018793          	addi	a5,gp,-1824 # 20000300 <errno>
    933e:	439c                	lw	a5,0(a5)
    9340:	c391                	beqz	a5,9344 <_read_r+0x24>
    9342:	c01c                	sw	a5,0(s0)
    9344:	40b2                	lw	ra,12(sp)
    9346:	4422                	lw	s0,8(sp)
    9348:	0141                	addi	sp,sp,16
    934a:	8082                	ret

0000934c <__ascii_wctomb>:
__ascii_wctomb():
    934c:	cd91                	beqz	a1,9368 <__ascii_wctomb+0x1c>
    934e:	0ff00793          	li	a5,255
    9352:	00c7f763          	bgeu	a5,a2,9360 <__ascii_wctomb+0x14>
    9356:	08a00793          	li	a5,138
    935a:	c11c                	sw	a5,0(a0)
    935c:	557d                	li	a0,-1
    935e:	8082                	ret
    9360:	00c58023          	sb	a2,0(a1)
    9364:	4505                	li	a0,1
    9366:	8082                	ret
    9368:	4501                	li	a0,0
    936a:	8082                	ret

0000936c <__gedf2>:
__gtdf2():
    936c:	0145d713          	srli	a4,a1,0x14
    9370:	001007b7          	lui	a5,0x100
    9374:	17fd                	addi	a5,a5,-1
    9376:	0146d813          	srli	a6,a3,0x14
    937a:	7ff77713          	andi	a4,a4,2047
    937e:	7ff00893          	li	a7,2047
    9382:	00b7f333          	and	t1,a5,a1
    9386:	8e2a                	mv	t3,a0
    9388:	8ff5                	and	a5,a5,a3
    938a:	81fd                	srli	a1,a1,0x1f
    938c:	8eb2                	mv	t4,a2
    938e:	7ff87813          	andi	a6,a6,2047
    9392:	82fd                	srli	a3,a3,0x1f
    9394:	03170863          	beq	a4,a7,93c4 <__gedf2+0x58>
    9398:	03180063          	beq	a6,a7,93b8 <__gedf2+0x4c>
    939c:	eb0d                	bnez	a4,93ce <__gedf2+0x62>
    939e:	00a368b3          	or	a7,t1,a0
    93a2:	00081463          	bnez	a6,93aa <__gedf2+0x3e>
    93a6:	8e5d                	or	a2,a2,a5
    93a8:	ca29                	beqz	a2,93fa <__gedf2+0x8e>
    93aa:	04088563          	beqz	a7,93f4 <__gedf2+0x88>
    93ae:	02d58863          	beq	a1,a3,93de <__gedf2+0x72>
    93b2:	4505                	li	a0,1
    93b4:	ed95                	bnez	a1,93f0 <__gedf2+0x84>
    93b6:	8082                	ret
    93b8:	00c7e8b3          	or	a7,a5,a2
    93bc:	fe0880e3          	beqz	a7,939c <__gedf2+0x30>
    93c0:	5579                	li	a0,-2
    93c2:	8082                	ret
    93c4:	00a36533          	or	a0,t1,a0
    93c8:	fd65                	bnez	a0,93c0 <__gedf2+0x54>
    93ca:	02e80c63          	beq	a6,a4,9402 <__gedf2+0x96>
    93ce:	00081463          	bnez	a6,93d6 <__gedf2+0x6a>
    93d2:	8e5d                	or	a2,a2,a5
    93d4:	de79                	beqz	a2,93b2 <__gedf2+0x46>
    93d6:	fcd59ee3          	bne	a1,a3,93b2 <__gedf2+0x46>
    93da:	fce84ce3          	blt	a6,a4,93b2 <__gedf2+0x46>
    93de:	01074863          	blt	a4,a6,93ee <__gedf2+0x82>
    93e2:	fc67e8e3          	bltu	a5,t1,93b2 <__gedf2+0x46>
    93e6:	02f30363          	beq	t1,a5,940c <__gedf2+0xa0>
    93ea:	00f37f63          	bgeu	t1,a5,9408 <__gedf2+0x9c>
    93ee:	e581                	bnez	a1,93f6 <__gedf2+0x8a>
    93f0:	557d                	li	a0,-1
    93f2:	8082                	ret
    93f4:	def5                	beqz	a3,93f0 <__gedf2+0x84>
    93f6:	4505                	li	a0,1
    93f8:	8082                	ret
    93fa:	4501                	li	a0,0
    93fc:	fa089be3          	bnez	a7,93b2 <__gedf2+0x46>
    9400:	8082                	ret
    9402:	8e5d                	or	a2,a2,a5
    9404:	da69                	beqz	a2,93d6 <__gedf2+0x6a>
    9406:	bf6d                	j	93c0 <__gedf2+0x54>
    9408:	4501                	li	a0,0
    940a:	8082                	ret
    940c:	fbcee3e3          	bltu	t4,t3,93b2 <__gedf2+0x46>
    9410:	4501                	li	a0,0
    9412:	fbde72e3          	bgeu	t3,t4,93b6 <__gedf2+0x4a>
    9416:	f1e5                	bnez	a1,93f6 <__gedf2+0x8a>
    9418:	bfe1                	j	93f0 <__gedf2+0x84>

0000941a <__unorddf2>:
__unorddf2():
    941a:	0145d713          	srli	a4,a1,0x14
    941e:	001007b7          	lui	a5,0x100
    9422:	17fd                	addi	a5,a5,-1
    9424:	fff74713          	not	a4,a4
    9428:	0146d813          	srli	a6,a3,0x14
    942c:	8dfd                	and	a1,a1,a5
    942e:	8ff5                	and	a5,a5,a3
    9430:	01571693          	slli	a3,a4,0x15
    9434:	7ff87813          	andi	a6,a6,2047
    9438:	ca99                	beqz	a3,944e <__unorddf2+0x34>
    943a:	7ff00713          	li	a4,2047
    943e:	4501                	li	a0,0
    9440:	00e80363          	beq	a6,a4,9446 <__unorddf2+0x2c>
    9444:	8082                	ret
    9446:	8fd1                	or	a5,a5,a2
    9448:	00f03533          	snez	a0,a5
    944c:	8082                	ret
    944e:	8dc9                	or	a1,a1,a0
    9450:	4505                	li	a0,1
    9452:	d5e5                	beqz	a1,943a <__unorddf2+0x20>
    9454:	8082                	ret

00009456 <__floatunsidf>:
__floatunsidf():
    9456:	cd1d                	beqz	a0,9494 <__floatunsidf+0x3e>
    9458:	1141                	addi	sp,sp,-16
    945a:	c422                	sw	s0,8(sp)
    945c:	c606                	sw	ra,12(sp)
    945e:	842a                	mv	s0,a0
    9460:	976fd0ef          	jal	ra,65d6 <__clzsi2>
    9464:	41e00693          	li	a3,1054
    9468:	8e89                	sub	a3,a3,a0
    946a:	47a9                	li	a5,10
    946c:	7ff6f693          	andi	a3,a3,2047
    9470:	02a7dc63          	bge	a5,a0,94a8 <__floatunsidf+0x52>
    9474:	1555                	addi	a0,a0,-11
    9476:	00a417b3          	sll	a5,s0,a0
    947a:	07b2                	slli	a5,a5,0xc
    947c:	83b1                	srli	a5,a5,0xc
    947e:	4701                	li	a4,0
    9480:	40b2                	lw	ra,12(sp)
    9482:	4422                	lw	s0,8(sp)
    9484:	07b2                	slli	a5,a5,0xc
    9486:	06d2                	slli	a3,a3,0x14
    9488:	83b1                	srli	a5,a5,0xc
    948a:	8fd5                	or	a5,a5,a3
    948c:	853a                	mv	a0,a4
    948e:	85be                	mv	a1,a5
    9490:	0141                	addi	sp,sp,16
    9492:	8082                	ret
    9494:	4781                	li	a5,0
    9496:	4681                	li	a3,0
    9498:	07b2                	slli	a5,a5,0xc
    949a:	06d2                	slli	a3,a3,0x14
    949c:	83b1                	srli	a5,a5,0xc
    949e:	4701                	li	a4,0
    94a0:	8fd5                	or	a5,a5,a3
    94a2:	853a                	mv	a0,a4
    94a4:	85be                	mv	a1,a5
    94a6:	8082                	ret
    94a8:	472d                	li	a4,11
    94aa:	8f09                	sub	a4,a4,a0
    94ac:	00e457b3          	srl	a5,s0,a4
    94b0:	07b2                	slli	a5,a5,0xc
    94b2:	01550713          	addi	a4,a0,21
    94b6:	00e41733          	sll	a4,s0,a4
    94ba:	83b1                	srli	a5,a5,0xc
    94bc:	b7d1                	j	9480 <__floatunsidf+0x2a>

000094be <__trunctfdf2>:
__trunctfdf2():
    94be:	00c52803          	lw	a6,12(a0)
    94c2:	4118                	lw	a4,0(a0)
    94c4:	4154                	lw	a3,4(a0)
    94c6:	450c                	lw	a1,8(a0)
    94c8:	6521                	lui	a0,0x8
    94ca:	fff50793          	addi	a5,a0,-1 # 7fff <_dtoa_r+0xba1>
    94ce:	01085613          	srli	a2,a6,0x10
    94d2:	00359e13          	slli	t3,a1,0x3
    94d6:	8e7d                	and	a2,a2,a5
    94d8:	01d75893          	srli	a7,a4,0x1d
    94dc:	01d6d793          	srli	a5,a3,0x1d
    94e0:	01081313          	slli	t1,a6,0x10
    94e4:	068e                	slli	a3,a3,0x3
    94e6:	1141                	addi	sp,sp,-16
    94e8:	01c7e7b3          	or	a5,a5,t3
    94ec:	0116e6b3          	or	a3,a3,a7
    94f0:	01035313          	srli	t1,t1,0x10
    94f4:	00371e13          	slli	t3,a4,0x3
    94f8:	00160893          	addi	a7,a2,1
    94fc:	1579                	addi	a0,a0,-2
    94fe:	81f5                	srli	a1,a1,0x1d
    9500:	030e                	slli	t1,t1,0x3
    9502:	c43e                	sw	a5,8(sp)
    9504:	c236                	sw	a3,4(sp)
    9506:	c072                	sw	t3,0(sp)
    9508:	00a8f533          	and	a0,a7,a0
    950c:	01f85813          	srli	a6,a6,0x1f
    9510:	0065e5b3          	or	a1,a1,t1
    9514:	c905                	beqz	a0,9544 <__trunctfdf2+0x86>
    9516:	7771                	lui	a4,0xffffc
    9518:	40070713          	addi	a4,a4,1024 # ffffc400 <_eusrstack+0xdffec400>
    951c:	963a                	add	a2,a2,a4
    951e:	7fe00713          	li	a4,2046
    9522:	04c75d63          	bge	a4,a2,957c <__trunctfdf2+0xbe>
    9526:	7ff00613          	li	a2,2047
    952a:	4701                	li	a4,0
    952c:	4781                	li	a5,0
    952e:	0732                	slli	a4,a4,0xc
    9530:	0652                	slli	a2,a2,0x14
    9532:	8331                	srli	a4,a4,0xc
    9534:	087e                	slli	a6,a6,0x1f
    9536:	8f51                	or	a4,a4,a2
    9538:	01076733          	or	a4,a4,a6
    953c:	853e                	mv	a0,a5
    953e:	85ba                	mv	a1,a4
    9540:	0141                	addi	sp,sp,16
    9542:	8082                	ret
    9544:	8fd5                	or	a5,a5,a3
    9546:	8fcd                	or	a5,a5,a1
    9548:	01c7e7b3          	or	a5,a5,t3
    954c:	e205                	bnez	a2,956c <__trunctfdf2+0xae>
    954e:	cbf1                	beqz	a5,9622 <__trunctfdf2+0x164>
    9550:	4781                	li	a5,0
    9552:	4695                	li	a3,5
    9554:	0036d593          	srli	a1,a3,0x3
    9558:	00979713          	slli	a4,a5,0x9
    955c:	01d79693          	slli	a3,a5,0x1d
    9560:	00b6e7b3          	or	a5,a3,a1
    9564:	8331                	srli	a4,a4,0xc
    9566:	7ff67613          	andi	a2,a2,2047
    956a:	b7d1                	j	952e <__trunctfdf2+0x70>
    956c:	dfcd                	beqz	a5,9526 <__trunctfdf2+0x68>
    956e:	4801                	li	a6,0
    9570:	7ff00613          	li	a2,2047
    9574:	00080737          	lui	a4,0x80
    9578:	4781                	li	a5,0
    957a:	bf55                	j	952e <__trunctfdf2+0x70>
    957c:	0ac04663          	bgtz	a2,9628 <__trunctfdf2+0x16a>
    9580:	fcc00793          	li	a5,-52
    9584:	0ef64f63          	blt	a2,a5,9682 <__trunctfdf2+0x1c4>
    9588:	03d00793          	li	a5,61
    958c:	40c78633          	sub	a2,a5,a2
    9590:	40565793          	srai	a5,a2,0x5
    9594:	00080737          	lui	a4,0x80
    9598:	8dd9                	or	a1,a1,a4
    959a:	00279513          	slli	a0,a5,0x2
    959e:	870a                	mv	a4,sp
    95a0:	4681                	li	a3,0
    95a2:	c62e                	sw	a1,12(sp)
    95a4:	00a108b3          	add	a7,sp,a0
    95a8:	0711                	addi	a4,a4,4
    95aa:	8a7d                	andi	a2,a2,31
    95ac:	01c6e6b3          	or	a3,a3,t3
    95b0:	01170963          	beq	a4,a7,95c2 <__trunctfdf2+0x104>
    95b4:	00072e03          	lw	t3,0(a4) # 80000 <_data_lma+0x75b2c>
    95b8:	0711                	addi	a4,a4,4
    95ba:	01c6e6b3          	or	a3,a3,t3
    95be:	ff171be3          	bne	a4,a7,95b4 <__trunctfdf2+0xf6>
    95c2:	470d                	li	a4,3
    95c4:	8f1d                	sub	a4,a4,a5
    95c6:	ca79                	beqz	a2,969c <__trunctfdf2+0x1de>
    95c8:	01010893          	addi	a7,sp,16
    95cc:	98aa                	add	a7,a7,a0
    95ce:	ff08a883          	lw	a7,-16(a7) # fff0 <_data_lma+0x5b1c>
    95d2:	02000e13          	li	t3,32
    95d6:	40ce0e33          	sub	t3,t3,a2
    95da:	01c898b3          	sll	a7,a7,t3
    95de:	0116e6b3          	or	a3,a3,a7
    95e2:	cb75                	beqz	a4,96d6 <__trunctfdf2+0x218>
    95e4:	070a                	slli	a4,a4,0x2
    95e6:	950a                	add	a0,a0,sp
    95e8:	00e10eb3          	add	t4,sp,a4
    95ec:	888a                	mv	a7,sp
    95ee:	410c                	lw	a1,0(a0)
    95f0:	00452303          	lw	t1,4(a0)
    95f4:	0891                	addi	a7,a7,4
    95f6:	00c5d5b3          	srl	a1,a1,a2
    95fa:	01c31333          	sll	t1,t1,t3
    95fe:	0065e5b3          	or	a1,a1,t1
    9602:	feb8ae23          	sw	a1,-4(a7)
    9606:	0511                	addi	a0,a0,4
    9608:	ff1e93e3          	bne	t4,a7,95ee <__trunctfdf2+0x130>
    960c:	4591                	li	a1,4
    960e:	40f587b3          	sub	a5,a1,a5
    9612:	45b2                	lw	a1,12(sp)
    9614:	0808                	addi	a0,sp,16
    9616:	972a                	add	a4,a4,a0
    9618:	00c5d5b3          	srl	a1,a1,a2
    961c:	feb72823          	sw	a1,-16(a4)
    9620:	a861                	j	96b8 <__trunctfdf2+0x1fa>
    9622:	4601                	li	a2,0
    9624:	4701                	li	a4,0
    9626:	b721                	j	952e <__trunctfdf2+0x70>
    9628:	00469713          	slli	a4,a3,0x4
    962c:	00479513          	slli	a0,a5,0x4
    9630:	01c76733          	or	a4,a4,t3
    9634:	82f1                	srli	a3,a3,0x1c
    9636:	83f1                	srli	a5,a5,0x1c
    9638:	0592                	slli	a1,a1,0x4
    963a:	00e03733          	snez	a4,a4
    963e:	8ec9                	or	a3,a3,a0
    9640:	8fcd                	or	a5,a5,a1
    9642:	8ed9                	or	a3,a3,a4
    9644:	0076f713          	andi	a4,a3,7
    9648:	c711                	beqz	a4,9654 <__trunctfdf2+0x196>
    964a:	00f6f713          	andi	a4,a3,15
    964e:	4591                	li	a1,4
    9650:	02b71c63          	bne	a4,a1,9688 <__trunctfdf2+0x1ca>
    9654:	00800737          	lui	a4,0x800
    9658:	8f7d                	and	a4,a4,a5
    965a:	ee070de3          	beqz	a4,9554 <__trunctfdf2+0x96>
    965e:	0605                	addi	a2,a2,1
    9660:	7ff00713          	li	a4,2047
    9664:	ece601e3          	beq	a2,a4,9526 <__trunctfdf2+0x68>
    9668:	ff800737          	lui	a4,0xff800
    966c:	177d                	addi	a4,a4,-1
    966e:	8f7d                	and	a4,a4,a5
    9670:	01d71793          	slli	a5,a4,0x1d
    9674:	828d                	srli	a3,a3,0x3
    9676:	0726                	slli	a4,a4,0x9
    9678:	7ff67613          	andi	a2,a2,2047
    967c:	8fd5                	or	a5,a5,a3
    967e:	8331                	srli	a4,a4,0xc
    9680:	b57d                	j	952e <__trunctfdf2+0x70>
    9682:	4685                	li	a3,1
    9684:	4781                	li	a5,0
    9686:	4601                	li	a2,0
    9688:	ffc6b713          	sltiu	a4,a3,-4
    968c:	00174713          	xori	a4,a4,1
    9690:	97ba                	add	a5,a5,a4
    9692:	00800737          	lui	a4,0x800
    9696:	0691                	addi	a3,a3,4
    9698:	8f7d                	and	a4,a4,a5
    969a:	b7c1                	j	965a <__trunctfdf2+0x19c>
    969c:	858a                	mv	a1,sp
    969e:	00a588b3          	add	a7,a1,a0
    96a2:	0008a883          	lw	a7,0(a7)
    96a6:	0591                	addi	a1,a1,4
    96a8:	0605                	addi	a2,a2,1
    96aa:	ff15ae23          	sw	a7,-4(a1)
    96ae:	fec758e3          	bge	a4,a2,969e <__trunctfdf2+0x1e0>
    96b2:	4711                	li	a4,4
    96b4:	40f707b3          	sub	a5,a4,a5
    96b8:	078a                	slli	a5,a5,0x2
    96ba:	978a                	add	a5,a5,sp
    96bc:	0818                	addi	a4,sp,16
    96be:	0007a023          	sw	zero,0(a5) # 100000 <_data_lma+0xf5b2c>
    96c2:	0791                	addi	a5,a5,4
    96c4:	fee79de3          	bne	a5,a4,96be <__trunctfdf2+0x200>
    96c8:	4702                	lw	a4,0(sp)
    96ca:	00d036b3          	snez	a3,a3
    96ce:	4792                	lw	a5,4(sp)
    96d0:	8ed9                	or	a3,a3,a4
    96d2:	4601                	li	a2,0
    96d4:	bf85                	j	9644 <__trunctfdf2+0x186>
    96d6:	4785                	li	a5,1
    96d8:	4701                	li	a4,0
    96da:	bf2d                	j	9614 <__trunctfdf2+0x156>

000096dc <_close>:
_close():
    96dc:	05800793          	li	a5,88
    96e0:	8ef1a023          	sw	a5,-1824(gp) # 20000300 <errno>
    96e4:	557d                	li	a0,-1
    96e6:	8082                	ret

000096e8 <_fstat>:
_fstat():
    96e8:	05800793          	li	a5,88
    96ec:	8ef1a023          	sw	a5,-1824(gp) # 20000300 <errno>
    96f0:	557d                	li	a0,-1
    96f2:	8082                	ret

000096f4 <_isatty>:
_isatty():
    96f4:	05800793          	li	a5,88
    96f8:	8ef1a023          	sw	a5,-1824(gp) # 20000300 <errno>
    96fc:	4501                	li	a0,0
    96fe:	8082                	ret

00009700 <_lseek>:
_lseek():
    9700:	05800793          	li	a5,88
    9704:	8ef1a023          	sw	a5,-1824(gp) # 20000300 <errno>
    9708:	557d                	li	a0,-1
    970a:	8082                	ret

0000970c <_read>:
_read():
    970c:	05800793          	li	a5,88
    9710:	8ef1a023          	sw	a5,-1824(gp) # 20000300 <errno>
    9714:	557d                	li	a0,-1
    9716:	8082                	ret

00009718 <_sbrk>:
_sbrk():
    9718:	88c18793          	addi	a5,gp,-1908 # 200002ac <heap_end.1518>
    971c:	439c                	lw	a5,0(a5)
    971e:	c791                	beqz	a5,972a <_sbrk+0x12>
    9720:	953e                	add	a0,a0,a5
    9722:	88a1a623          	sw	a0,-1908(gp) # 200002ac <heap_end.1518>
    9726:	853e                	mv	a0,a5
    9728:	8082                	ret
    972a:	8e418793          	addi	a5,gp,-1820 # 20000304 <_ebss>
    972e:	953e                	add	a0,a0,a5
    9730:	88a1a623          	sw	a0,-1908(gp) # 200002ac <heap_end.1518>
    9734:	853e                	mv	a0,a5
    9736:	8082                	ret
    9738:	3a44                	fld	fs1,176(a2)
    973a:	6f72702f          	0x6f72702f
    973e:	656a                	flw	fa0,152(sp)
    9740:	2f737463          	bgeu	t1,s7,9a28 <tft_ascii+0x154>
    9744:	656d                	lui	a0,0x1b
    9746:	6e616863          	bltu	sp,t1,9e36 <tft_ascii+0x562>
    974a:	6369                	lui	t1,0x1a
    974c:	6c61                	lui	s8,0x18
    974e:	615f 6d72 462f      	0x462f6d72615f
    9754:	7269                	lui	tp,0xffffa
    9756:	776d                	lui	a4,0xffffb
    9758:	7261                	lui	tp,0xffff8
    975a:	2f65                	jal	9f12 <MyCfgDescrHD+0x3a>
    975c:	4d726143          	0x4d726143
    9760:	6961                	lui	s2,0x18
    9762:	436e                	lw	t1,216(sp)
    9764:	72746e6f          	jal	t3,5068a <_data_lma+0x461b6>
    9768:	6c2f6c6f          	jal	s8,ffe2a <_data_lma+0xf5956>
    976c:	6269                	lui	tp,0x1a
    976e:	6172                	flw	ft2,28(sp)
    9770:	6972                	flw	fs2,28(sp)
    9772:	7365                	lui	t1,0xffff9
    9774:	5f667a2f          	0x5f667a2f
    9778:	7264                	flw	fs1,100(a2)
    977a:	7669                	lui	a2,0xffffa
    977c:	7265                	lui	tp,0xffff9
    977e:	5f667a2f          	0x5f667a2f
    9782:	7264                	flw	fs1,100(a2)
    9784:	7669                	lui	a2,0xffffa
    9786:	7265                	lui	tp,0xffff9
    9788:	735f 6970 632e      	0x632e6970735f
    978e:	0000                	unimp
    9790:	3a44                	fld	fs1,176(a2)
    9792:	6f72702f          	0x6f72702f
    9796:	656a                	flw	fa0,152(sp)
    9798:	2f737463          	bgeu	t1,s7,9a80 <tft_ascii+0x1ac>
    979c:	656d                	lui	a0,0x1b
    979e:	6e616863          	bltu	sp,t1,9e8e <tft_ascii+0x5ba>
    97a2:	6369                	lui	t1,0x1a
    97a4:	6c61                	lui	s8,0x18
    97a6:	615f 6d72 462f      	0x462f6d72615f
    97ac:	7269                	lui	tp,0xffffa
    97ae:	776d                	lui	a4,0xffffb
    97b0:	7261                	lui	tp,0xffff8
    97b2:	2f65                	jal	9f6a <MyUSBQUADescHD+0x6>
    97b4:	4d726143          	0x4d726143
    97b8:	6961                	lui	s2,0x18
    97ba:	436e                	lw	t1,216(sp)
    97bc:	72746e6f          	jal	t3,506e2 <_data_lma+0x4620e>
    97c0:	6c2f6c6f          	jal	s8,ffe82 <_data_lma+0xf59ae>
    97c4:	6269                	lui	tp,0x1a
    97c6:	6172                	flw	ft2,28(sp)
    97c8:	6972                	flw	fs2,28(sp)
    97ca:	7365                	lui	t1,0xffff9
    97cc:	5f667a2f          	0x5f667a2f
    97d0:	6564                	flw	fs1,76(a0)
    97d2:	6976                	flw	fs2,92(sp)
    97d4:	7a2f6563          	bltu	t5,sp,9f7e <MyUSBQUADescHD+0x1a>
    97d8:	5f66                	lw	t5,120(sp)
    97da:	6564                	flw	fs1,76(a0)
    97dc:	6976                	flw	fs2,92(sp)
    97de:	745f6563          	bltu	t5,t0,9f28 <MyReportDescHD+0xc>
    97e2:	7466                	flw	fs0,120(sp)
    97e4:	3831                	jal	9000 <_vfiprintf_r+0x174>
    97e6:	2e30                	fld	fa2,88(a2)
    97e8:	00000063          	beqz	zero,97e8 <_sbrk+0xd0>
    97ec:	0000                	unimp
    97ee:	3f80                	fld	fs0,56(a5)
    97f0:	0000                	unimp
    97f2:	4120                	lw	s0,64(a0)
    97f4:	7341                	lui	t1,0xffff0
    97f6:	74726573          	csrrsi	a0,0x747,4
    97fa:	6520                	flw	fs0,72(a0)
    97fc:	7272                	flw	ft4,60(sp)
    97fe:	6920726f          	jal	tp,10e90 <_data_lma+0x69bc>
    9802:	206e                	fld	ft0,216(sp)
    9804:	7325                	lui	t1,0xfffe9
    9806:	6c20                	flw	fs0,88(s0)
    9808:	6e69                	lui	t3,0x1a
    980a:	2065                	jal	98b2 <spi_index+0xa>
    980c:	6425                	lui	s0,0x9
    980e:	0d2e                	slli	s10,s10,0xb
    9810:	000a                	c.slli	zero,0x2
    9812:	0000                	unimp
    9814:	6f4c                	flw	fa1,28(a4)
    9816:	656d2067          	0x656d2067
    981a:	67617373          	csrrci	t1,0x676,2
    981e:	2065                	jal	98c6 <uart_index+0x12>
    9820:	7266                	flw	ft4,120(sp)
    9822:	25206d6f          	jal	s10,fa74 <_data_lma+0x55a0>
    9826:	696c2073          	csrs	0x696,s8
    982a:	656e                	flw	fa0,216(sp)
    982c:	2520                	fld	fs0,72(a0)
    982e:	2064                	fld	fs1,192(s0)
    9830:	223a                	fld	ft4,392(sp)
    9832:	7325                	lui	t1,0xfffe9
    9834:	2e22                	fld	ft8,8(sp)
    9836:	0a0d                	addi	s4,s4,3
    9838:	0000                	unimp
    983a:	0000                	unimp
    983c:	6f5a                	flw	ft10,148(sp)
    983e:	676e                	flw	fa4,216(sp)
    9840:	694a                	flw	fs2,144(sp)
    9842:	2065                	jal	98ea <tft_ascii+0x16>
    9844:	7369                	lui	t1,0xffffa
    9846:	5320                	lw	s0,96(a4)
    9848:	2142                	fld	ft2,16(sp)
    984a:	2121                	jal	9c52 <tft_ascii+0x37e>
    984c:	0000                	unimp
    984e:	0000                	unimp
    9850:	420a                	lw	tp,128(sp)
    9852:	7561                	lui	a0,0xffff8
    9854:	2064                	fld	fs1,192(s0)
    9856:	6152                	flw	ft2,20(sp)
    9858:	6574                	flw	fa3,76(a0)
    985a:	3d20                	fld	fs0,120(a0)
    985c:	2520                	fld	fs0,72(a0)
    985e:	0064                	addi	s1,sp,12
    9860:	640a                	flw	fs0,128(sp)
    9862:	7461                	lui	s0,0xffff8
    9864:	4261                	li	tp,24
    9866:	7469                	lui	s0,0xffffa
    9868:	3d20                	fld	fs0,120(a0)
    986a:	2520                	fld	fs0,72(a0)
    986c:	0064                	addi	s1,sp,12
    986e:	0000                	unimp
    9870:	730a                	flw	ft6,160(sp)
    9872:	6f74                	flw	fa3,92(a4)
    9874:	4270                	lw	a2,68(a2)
    9876:	7469                	lui	s0,0xffffa
    9878:	3d20                	fld	fs0,120(a0)
    987a:	2520                	fld	fs0,72(a0)
    987c:	0064                	addi	s1,sp,12
    987e:	0000                	unimp
    9880:	700a                	flw	ft0,160(sp)
    9882:	7261                	lui	tp,0xffff8
    9884:	7469                	lui	s0,0xffffa
    9886:	5479                	li	s0,-2
    9888:	7079                	c.lui	zero,0xffffe
    988a:	2065                	jal	9932 <tft_ascii+0x5e>
    988c:	203d                	jal	98ba <uart_index+0x6>
    988e:	6425                	lui	s0,0x9
    9890:	0000                	unimp
	...

00009894 <gpio_group>:
    9894:	0800 4001 0c00 4001 1000 4001 1400 4001     ...@...@...@...@
    98a4:	1800 4001                                   ...@

000098a8 <spi_index>:
    98a8:	3000 4001 3800 4000 3c00 4000               .0.@.8.@.<.@

000098b4 <uart_index>:
    98b4:	3800 4001 4400 4000 4800 4000 4c00 4000     .8.@.D.@.H.@.L.@
    98c4:	5000 4000 1800 4000 1c00 4000 2000 4000     .P.@...@...@. .@

000098d4 <tft_ascii>:
	...
    98e4:	0000 0800 0808 0808 0808 0000 0808 0000     ................
    98f4:	4800 2424 0012 0000 0000 0000 0000 0000     .H$$............
    9904:	0000 4800 4848 247e 2424 247e 2424 0000     ...HHH~$$$~$$$..
    9914:	0000 3c10 5252 1c12 5030 5250 3c52 1010     ...<RR..0PPRR<..
    9924:	0000 2200 1525 0d15 582a 5454 2252 0000     ..."%...*XTTR"..
    9934:	0000 0c00 1212 0a12 2576 1929 6e91 0000     ........v%)..n..
    9944:	0600 0404 0002 0000 0000 0000 0000 0000     ................
    9954:	4000 1020 0810 0808 0808 1008 2010 0040     .@ .......... @.
    9964:	0200 0804 1008 1010 1010 0810 0408 0002     ................
    9974:	0000 0000 0808 1c6b 6b1c 0808 0000 0000     ......k..k......
    9984:	0000 0000 1000 1010 10fe 1010 0000 0000     ................
	...
    99a0:	0406 0204 0000 0000 0000 0000 007e 0000     ............~...
	...
    99c0:	0606 0000 0000 2040 2020 1010 0808 0408     ......@   ......
    99d0:	0204 0002 0000 1800 4224 4242 4242 4242     ........$BBBBBBB
    99e0:	1824 0000 0000 1000 101c 1010 1010 1010     $...............
    99f0:	7c10 0000 0000 3c00 4242 4042 1020 0408     .|.....<BBB@ ...
    9a00:	7e42 0000 0000 3c00 4242 2040 2018 4240     B~.....<BB@ . @B
    9a10:	3c42 0000 0000 2000 3030 2428 2224 20fe     B<..... 00($$". 
    9a20:	f820 0000 0000 7e00 0202 1e02 4022 4240      ......~...."@@B
    9a30:	1c22 0000 0000 1800 0224 3a02 4246 4242     ".......$..:FBBB
    9a40:	3844 0000 0000 7e00 2042 1020 0810 0808     D8.....~B  .....
    9a50:	0808 0000 0000 3c00 4242 2442 2418 4242     .......<BBB$.$BB
    9a60:	3c42 0000 0000 1c00 4222 4242 5c62 4040     B<......"BBBb\@@
    9a70:	1824 0000 0000 0000 0000 1818 0000 0000     $...............
    9a80:	1818 0000 0000 0000 0000 0800 0000 0000     ................
    9a90:	0800 0808 0000 4000 1020 0408 0402 1008     .......@ .......
    9aa0:	4020 0000 0000 0000 0000 007e 7e00 0000      @........~..~..
    9ab0:	0000 0000 0000 0200 0804 2010 2040 0810     ........... @ ..
    9ac0:	0204 0000 0000 3c00 4242 2046 1010 0010     .......<BBF ....
    9ad0:	1818 0000 0000 1c00 5a22 5555 5555 3a55     ........"ZUUUUU:
    9ae0:	3c42 0000 0000 0800 1808 1414 3c24 4222     B<..........$<"B
    9af0:	e742 0000 0000 1f00 2222 1e22 4222 4242     B......."""."BBB
    9b00:	1f22 0000 0000 7c00 4242 0101 0101 4201     "......|BB.....B
    9b10:	1c22 0000 0000 1f00 4222 4242 4242 4242     "......."BBBBBBB
    9b20:	1f22 0000 0000 3f00 1242 1e12 1212 4202     "......?B......B
    9b30:	3f42 0000 0000 3f00 1242 1e12 1212 0202     B?.....?B.......
    9b40:	0702 0000 0000 3c00 2222 0101 7101 2221     .......<""...q!"
    9b50:	1c22 0000 0000 e700 4242 4242 427e 4242     ".......BBBB~BBB
    9b60:	e742 0000 0000 3e00 0808 0808 0808 0808     B......>........
    9b70:	3e08 0000 0000 7c00 1010 1010 1010 1010     .>.....|........
    9b80:	1010 0f11 0000 7700 1222 0e0a 120a 2212     .......w"......"
    9b90:	7722 0000 0000 0700 0202 0202 0202 0202     "w..............
    9ba0:	7f42 0000 0000 7700 3636 3636 2a36 2a2a     B......w66666***
    9bb0:	6b2a 0000 0000 e300 4646 4a4a 5252 6252     *k......FFJJRRRb
    9bc0:	4762 0000 0000 1c00 4122 4141 4141 4141     bG......"AAAAAAA
    9bd0:	1c22 0000 0000 3f00 4242 4242 023e 0202     "......?BBBB>...
    9be0:	0702 0000 0000 1c00 4122 4141 4141 4d41     ........"AAAAAAM
    9bf0:	1c32 0060 0000 3f00 4242 3e42 1212 2222     2.`....?BBB>..""
    9c00:	c742 0000 0000 7c00 4242 0402 2018 4240     B......|BB... @B
    9c10:	3e42 0000 0000 7f00 0849 0808 0808 0808     B>......I.......
    9c20:	1c08 0000 0000 e700 4242 4242 4242 4242     ........BBBBBBBB
    9c30:	3c42 0000 0000 e700 4242 2422 1424 1814     B<......BB"$$...
    9c40:	0808 0000 0000 6b00 2a2a 2a2a 362a 1414     .......k*****6..
    9c50:	1414 0000 0000 e700 2442 1824 1818 2424     ........B$$...$$
    9c60:	e742 0000 0000 7700 2222 1414 0808 0808     B......w""......
    9c70:	1c08 0000 0000 7e00 2021 1010 0408 4204     .......~! .....B
    9c80:	3f42 0000 7800 0808 0808 0808 0808 0808     B?...x..........
    9c90:	0808 0078 0000 0402 0404 0808 1008 2010     ..x............ 
    9ca0:	2020 4040 1e00 1010 1010 1010 1010 1010       @@............
    9cb0:	1010 001e 1800 0024 0000 0000 0000 0000     ......$.........
	...
    9cd0:	0000 ff00 0600 0008 0000 0000 0000 0000     ................
	...
    9ce8:	0000 1c00 3022 222c 6c32 0000 0000 0000     ...."0,"2l......
    9cf8:	0203 1a02 4226 4242 1a26 0000 0000 0000     ....&BBB&.......
    9d08:	0000 3800 0244 0202 3844 0000 0000 0000     ...8D...D8......
    9d18:	4060 7c40 4242 4242 dc62 0000 0000 0000     `@@|BBBBb.......
    9d28:	0000 3c00 4242 027e 3c42 0000 0000 0000     ...<BB~.B<......
    9d38:	4830 3e08 0808 0808 3e08 0000 0000 0000     0H.>.....>......
    9d48:	0000 7c00 2222 021c 423c 3c42 0000 0000     ...|""..<BB<....
    9d58:	0203 3a02 4246 4242 e742 0000 0000 0c00     ...:FBBBB.......
    9d68:	000c 0e00 0808 0808 3e08 0000 0000 3000     .........>.....0
    9d78:	0030 3800 2020 2020 2020 1e22 0000 0000     0..8      ".....
    9d88:	0203 7202 0a12 120e 7722 0000 0000 0800     ...r...."w......
    9d98:	080e 0808 0808 0808 3e08 0000 0000 0000     .........>......
    9da8:	0000 7f00 9292 9292 b792 0000 0000 0000     ................
    9db8:	0000 3b00 4246 4242 e742 0000 0000 0000     ...;FBBBB.......
    9dc8:	0000 3c00 4242 4242 3c42 0000 0000 0000     ...<BBBBB<......
    9dd8:	0000 1b00 4226 4242 1a26 0702 0000 0000     ....&BBB&.......
    9de8:	0000 5800 4264 4242 5864 e040 0000 0000     ...XdBBBdX@.....
    9df8:	0000 7700 044c 0404 1f04 0000 0000 0000     ...wL...........
    9e08:	0000 7c00 0242 403c 3e42 0000 0000 0000     ...|B.<@B>......
    9e18:	0800 3e08 0808 0808 3048 0000 0000 0000     ...>....H0......
    9e28:	0000 6300 4242 4242 dc62 0000 0000 0000     ...cBBBBb.......
    9e38:	0000 7700 2222 1414 0808 0000 0000 0000     ...w""..........
    9e48:	0000 db00 5291 2a5a 2424 0000 0000 0000     .....RZ*$$......
    9e58:	0000 6e00 1824 1818 7624 0000 0000 0000     ...n$...$v......
    9e68:	0000 e700 2442 1824 0818 0608 0000 0000     ....B$$.........
    9e78:	0000 7e00 1022 0808 7e44 0000 c000 2020     ...~"...D~....  
    9e88:	2020 2020 2010 2020 2020 00c0 1010 1010         .     ......
    9e98:	1010 1010 1010 1010 1010 1010 0300 0404     ................
    9ea8:	0404 0404 0408 0404 0404 0003 5a04 0020     .............Z .
	...

00009ec4 <MyDevDescrHD>:
    9ec4:	0112 0200 0002 0800 1a86 5722 0100 0201     .........."W....
    9ed4:	0103 0000                                   ....

00009ed8 <MyCfgDescrHD>:
    9ed8:	0209 0043 0102 a000 0932 0004 0100 0202     ..C.....2.......
    9ee8:	0001 2405 1000 0501 0124 0000 2404 0202     ...$....$....$..
    9ef8:	2405 0006 0701 8105 4003 ff00 0409 0001     .$.......@......
    9f08:	0a02 0000 0700 0205 4002 0000 0507 0282     .........@......
    9f18:	0040 0000                                   @...

00009f1c <MyReportDescHD>:
    9f1c:	0314 0032 0030 0031 0037 002d 0032 002d     ..2.0.1.7.-.2.-.
    9f2c:	0032 0035                                   2.5.

00009f30 <MyManuInfoHD>:
    9f30:	030e 0077 0063 0068 002e 0063 006e 0000     ..w.c.h...c.n...

00009f40 <MyProdInfoHD>:
    9f40:	030c 0043 0048 0033 0030 0037               ..C.H.3.0.7.

00009f4c <MySerNumInfoHD>:
    9f4c:	0316 0030 0031 0032 0033 0034 0035 0036     ..0.1.2.3.4.5.6.
    9f5c:	0037 0038 0039 0000                         7.8.9...

00009f64 <MyUSBQUADescHD>:
    9f64:	060a 0200 00ff 40ff 0001 0000 456a 0000     .......@....jE..
    9f74:	42be 0000 4678 0000 43b4 0000 4678 0000     .B..xF...C..xF..
    9f84:	4254 0000 4096 0000 4678 0000 4278 0000     TB...@..xF..xB..
    9f94:	42a0 0000 452e 0000 454e 0000 41de 0000     .B...E..NE...A..
    9fa4:	40c8 0000 40da 0000 40ee 0000 41de 0000     .@...@...@...A..
    9fb4:	41de 0000 4186 0000 4198 0000 41de 0000     .A...A...A...A..
    9fc4:	41de 0000 41de 0000 41de 0000 41de 0000     .A...A...A...A..
    9fd4:	41de 0000 41de 0000 41d6 0000 41de 0000     .A...A...A...A..
    9fe4:	41de 0000 41de 0000 41de 0000 41de 0000     .A...A...A...A..
    9ff4:	41de 0000 41de 0000 41de 0000 41de 0000     .A...A...A...A..
    a004:	41de 0000 41de 0000 41de 0000 41de 0000     .A...A...A...A..
    a014:	41de 0000 41de 0000 41de 0000 41de 0000     .A...A...A...A..
    a024:	41de 0000 4174 0000 b44e ffff b2d2 ffff     .A..tA..N.......
    a034:	b3e2 ffff b3ea ffff b3e2 ffff b302 ffff     ................
    a044:	b3e2 ffff b3ea ffff b2d2 ffff b2d2 ffff     ................
    a054:	b302 ffff b3ea ffff b444 ffff b444 ffff     ........D...D...
    a064:	b444 ffff b302 ffff bab0 ffff b9a2 ffff     D...............
    a074:	b9a2 ffff b9a0 ffff b9a8 ffff b9a8 ffff     ................
    a084:	b96e ffff b9a0 ffff b9a8 ffff b96e ffff     n...........n...
    a094:	b9a8 ffff b9a0 ffff ba9c ffff ba9c ffff     ................
    a0a4:	ba9c ffff b96e ffff                         ....n...

0000a0ac <__clz_tab>:
    a0ac:	0100 0202 0303 0303 0404 0404 0404 0404     ................
    a0bc:	0505 0505 0505 0505 0505 0505 0505 0505     ................
    a0cc:	0606 0606 0606 0606 0606 0606 0606 0606     ................
    a0dc:	0606 0606 0606 0606 0606 0606 0606 0606     ................
    a0ec:	0707 0707 0707 0707 0707 0707 0707 0707     ................
    a0fc:	0707 0707 0707 0707 0707 0707 0707 0707     ................
    a10c:	0707 0707 0707 0707 0707 0707 0707 0707     ................
    a11c:	0707 0707 0707 0707 0707 0707 0707 0707     ................
    a12c:	0808 0808 0808 0808 0808 0808 0808 0808     ................
    a13c:	0808 0808 0808 0808 0808 0808 0808 0808     ................
    a14c:	0808 0808 0808 0808 0808 0808 0808 0808     ................
    a15c:	0808 0808 0808 0808 0808 0808 0808 0808     ................
    a16c:	0808 0808 0808 0808 0808 0808 0808 0808     ................
    a17c:	0808 0808 0808 0808 0808 0808 0808 0808     ................
    a18c:	0808 0808 0808 0808 0808 0808 0808 0808     ................
    a19c:	0808 0808 0808 0808 0808 0808 0808 0808     ................
    a1ac:	0000 0000 ffff ffff ffff 7fef 4e49 0046     ............INF.
    a1bc:	6e69 0066 414e 004e 616e 006e 0030 0000     inf.NAN.nan.0...
    a1cc:	3130 3332 3534 3736 3938 4241 4443 4645     0123456789ABCDEF
    a1dc:	0000 0000 3130 3332 3534 3736 3938 6261     ....0123456789ab
    a1ec:	6463 6665 0000 0000 0000 0000 0000 0000     cdef............
    a1fc:	0000 3ff8 4361 636f 87a7 3fd2 c8b3 8b60     ...?aCoc...?..`.
    a20c:	8a28 3fc6 79fb 509f 4413 3fd3 0000 0000     (..?.y.P.D.?....
    a21c:	0000 3ff0 0000 0000 0000 4024 0000 0000     ...?......$@....
    a22c:	0000 401c 0000 0000 0000 4014 0000 0000     ...@.......@....
    a23c:	0000 3fe0 6e49 6966 696e 7974 0000 0000     ...?Infinity....
    a24c:	614e 004e                                   NaN.

0000a250 <__sf_fake_stderr>:
	...

0000a270 <__sf_fake_stdin>:
	...

0000a290 <__sf_fake_stdout>:
	...

0000a2b0 <__mprec_bigtens>:
    a2b0:	8000 37e0 c379 4341 6e17 b505 b8b5 4693     ...7y.AC.n.....F
    a2c0:	f9f5 e93f 4f03 4d38 1d32 f930 7748 5a82     ..?..O8M2.0.Hw.Z
    a2d0:	bf3c 7f73 4fdd 7515                         <.s..O.u

0000a2d8 <__mprec_tens>:
    a2d8:	0000 0000 0000 3ff0 0000 0000 0000 4024     .......?......$@
    a2e8:	0000 0000 0000 4059 0000 0000 4000 408f     ......Y@.....@.@
    a2f8:	0000 0000 8800 40c3 0000 0000 6a00 40f8     .......@.....j.@
    a308:	0000 0000 8480 412e 0000 0000 12d0 4163     .......A......cA
    a318:	0000 0000 d784 4197 0000 0000 cd65 41cd     .......A....e..A
    a328:	0000 2000 a05f 4202 0000 e800 4876 4237     ... _..B....vH7B
    a338:	0000 a200 1a94 426d 0000 e540 309c 42a2     ......mB..@..0.B
    a348:	0000 1e90 bcc4 42d6 0000 2634 6bf5 430c     .......B..4&.k.C
    a358:	8000 37e0 c379 4341 a000 85d8 3457 4376     ...7y.AC....W4vC
    a368:	c800 674e c16d 43ab 3d00 6091 58e4 43e1     ..Ngm..C.=.`.X.C
    a378:	8c40 78b5 af1d 4415 ef50 d6e2 1ae4 444b     @..x...DP.....KD
    a388:	d592 064d f0cf 4480 4af6 c7e1 2d02 44b5     ..M....D.J...-.D
    a398:	9db4 79d9 7843 44ea                         ...yCx.D

0000a3a0 <p05.3319>:
    a3a0:	0005 0000 0019 0000 007d 0000 2d23 2b30     ........}...#-0+
    a3b0:	0020 0000 6c68 004c 6665 4567 4746 0000      ...hlL.efgEFG..
    a3c0:	0043 0000 4f50 4953 0058 0000 002e 0000     C...POSIX.......

0000a3d0 <_ctype_>:
    a3d0:	2000 2020 2020 2020 2020 2828 2828 2028     .         ((((( 
    a3e0:	2020 2020 2020 2020 2020 2020 2020 2020                     
    a3f0:	8820 1010 1010 1010 1010 1010 1010 1010      ...............
    a400:	0410 0404 0404 0404 0404 1004 1010 1010     ................
    a410:	1010 4141 4141 4141 0101 0101 0101 0101     ..AAAAAA........
    a420:	0101 0101 0101 0101 0101 0101 1010 1010     ................
    a430:	1010 4242 4242 4242 0202 0202 0202 0202     ..BBBBBB........
    a440:	0202 0202 0202 0202 0202 0202 1010 1010     ................
    a450:	0020 0000 0000 0000 0000 0000 0000 0000      ...............
	...
