
ArmMainControler.elf:     file format elf32-littleriscv
ArmMainControler.elf
architecture: riscv:rv32, flags 0x00000112:
EXEC_P, HAS_SYMS, D_PAGED
start address 0x00000000

Program Header:
    LOAD off    0x00001000 vaddr 0x00000000 paddr 0x00000000 align 2**12
         filesz 0x0000a47c memsz 0x0000a47c flags r-x
    LOAD off    0x0000c000 vaddr 0x20000000 paddr 0x0000a47c align 2**12
         filesz 0x00000250 memsz 0x00000304 flags rw-
    LOAD off    0x0000c800 vaddr 0x2000f800 paddr 0x2000f800 align 2**12
         filesz 0x00000000 memsz 0x00000800 flags rw-

Sections:
Idx Name           Size      VMA       LMA       File off  Algn  Flags
  0 .init          00000038  00000000  00000000  00001000  2**1  CONTENTS, ALLOC, LOAD, READONLY, CODE
  1 .vector        000001c8  00000038  00000038  00001038  2**1  CONTENTS, ALLOC, LOAD, READONLY, CODE
  2 .text          0000a27c  00000200  00000200  00001200  2**3  CONTENTS, ALLOC, LOAD, READONLY, CODE
  3 .fini          00000000  0000a47c  0000a47c  0000c250  2**0  CONTENTS, ALLOC, LOAD, CODE
  4 .dalign        00000000  20000000  20000000  0000c250  2**0  CONTENTS
  5 .dlalign       00000000  0000a47c  0000a47c  0000c250  2**0  CONTENTS
  6 .data          00000250  20000000  0000a47c  0000c000  2**2  CONTENTS, ALLOC, LOAD, DATA
  7 .bss           000000b4  20000250  0000a6cc  0000c250  2**2  ALLOC
  8 .stack         00000800  2000f800  2000f800  0000c800  2**0  ALLOC
  9 .debug_info    00019550  00000000  00000000  0000c250  2**0  CONTENTS, READONLY, DEBUGGING
 10 .debug_abbrev  000040b6  00000000  00000000  000257a0  2**0  CONTENTS, READONLY, DEBUGGING
 11 .debug_aranges 00000f30  00000000  00000000  00029858  2**3  CONTENTS, READONLY, DEBUGGING
 12 .debug_ranges  00000d40  00000000  00000000  0002a788  2**3  CONTENTS, READONLY, DEBUGGING
 13 .debug_line    0001214d  00000000  00000000  0002b4c8  2**0  CONTENTS, READONLY, DEBUGGING
 14 .debug_str     000057bd  00000000  00000000  0003d615  2**0  CONTENTS, READONLY, DEBUGGING
 15 .comment       00000033  00000000  00000000  00042dd2  2**0  CONTENTS, READONLY
 16 .debug_frame   000047bc  00000000  00000000  00042e08  2**2  CONTENTS, READONLY, DEBUGGING
 17 .stab          00000084  00000000  00000000  000475c4  2**2  CONTENTS, READONLY, DEBUGGING
 18 .stabstr       00000117  00000000  00000000  00047648  2**0  CONTENTS, READONLY, DEBUGGING
SYMBOL TABLE:
00000000 l    d  .init	00000000 .init
00000038 l    d  .vector	00000000 .vector
00000200 l    d  .text	00000000 .text
0000a47c l    d  .fini	00000000 .fini
20000000 l    d  .dalign	00000000 .dalign
0000a47c l    d  .dlalign	00000000 .dlalign
20000000 l    d  .data	00000000 .data
20000250 l    d  .bss	00000000 .bss
2000f800 l    d  .stack	00000000 .stack
00000000 l    d  .debug_info	00000000 .debug_info
00000000 l    d  .debug_abbrev	00000000 .debug_abbrev
00000000 l    d  .debug_aranges	00000000 .debug_aranges
00000000 l    d  .debug_ranges	00000000 .debug_ranges
00000000 l    d  .debug_line	00000000 .debug_line
00000000 l    d  .debug_str	00000000 .debug_str
00000000 l    d  .comment	00000000 .comment
00000000 l    d  .debug_frame	00000000 .debug_frame
00000000 l    d  .stab	00000000 .stab
00000000 l    d  .stabstr	00000000 .stabstr
00000000 l    df *ABS*	00000000 ./sdk/Startup/startup_ch32v30x.o
00000038 l       .vector	00000000 _vector_base
00000000 l    df *ABS*	00000000 zf_driver_delay.c
00000000 l    df *ABS*	00000000 zf_driver_gpio.c
00000000 l    df *ABS*	00000000 zf_driver_spi.c
00000000 l    df *ABS*	00000000 zf_driver_uart.c
00000000 l    df *ABS*	00000000 zf_device_bluetooth_ch9141.c
200002b0 l     O .bss	00000014 bluetooth_ch9141_fifo
20000250 l     O .bss	00000001 bluetooth_ch9141_data
00000000 l    df *ABS*	00000000 zf_device_bluetooth_ch9141_ch2.c
200002c4 l     O .bss	00000014 bluetooth_ch9141_fifo_ch2
20000251 l     O .bss	00000001 bluetooth_ch9141_data_ch2
00000000 l    df *ABS*	00000000 zf_device_camera.c
00000000 l    df *ABS*	00000000 zf_device_mt9v03x_dvp.c
20000254 l     O .bss	00000003 receive_dvp
20000257 l     O .bss	00000001 receive_num_dvp
20000258 l     O .bss	00000001 uart_receive_flag_dvp
00000000 l    df *ABS*	00000000 zf_device_scc8660_dvp.c
00000000 l    df *ABS*	00000000 zf_device_tft180.c
000013b6 l     F .text	0000007c tft180_write_index
00001432 l     F .text	000001ec tft180_set_region
00000000 l    df *ABS*	00000000 zf_device_wireless_ch573.c
200002d8 l     O .bss	00000014 wireless_ch573_fifo
20000270 l     O .bss	00000001 wireless_ch573_data
00000000 l    df *ABS*	00000000 zf_device_wireless_uart.c
200002ec l     O .bss	00000014 wireless_uart_fifo
20000271 l     O .bss	00000001 wireless_uart_data
00000000 l    df *ABS*	00000000 zf_common_clock.c
00001d42 l     F .text	00000076 clock_reset
00001db8 l     F .text	00000260 clock_set_freq
00000000 l    df *ABS*	00000000 zf_common_debug.c
00002018 l     F .text	00000010 __NOP
00000000 l    df *ABS*	00000000 zf_common_fifo.c
00000000 l    df *ABS*	00000000 zf_common_interrupt.c
0000226a l     F .text	00000032 NVIC_EnableIRQ
0000229c l     F .text	00000032 NVIC_DisableIRQ
2000027c l     O .bss	00000004 interrupt_nest_count
00000000 l    df *ABS*	00000000 isr.c
00000000 l    df *ABS*	00000000 main.c
20000280 l     O .bss	00000004 i.6861
00000000 l    df *ABS*	00000000 system_ch32v30x.c
00002c1c l     F .text	00000014 SetSysClock
00002c30 l     F .text	00000162 SetSysClockTo144
00000000 l    df *ABS*	00000000 ch32v30x_exti.c
00000000 l    df *ABS*	00000000 ch32v30x_gpio.c
00000000 l    df *ABS*	00000000 ch32v30x_rcc.c
20000000 l     O .data	00000010 APBAHBPrescTable
20000228 l     O .data	00000004 ADCPrescTable
00000000 l    df *ABS*	00000000 ch32v30x_spi.c
00000000 l    df *ABS*	00000000 ch32v30x_tim.c
00000000 l    df *ABS*	00000000 ch32v30x_usart.c
00000000 l    df *ABS*	00000000 ch32v30x_usbotg_device.c
00000000 l    df *ABS*	00000000 adddf3.c
00000000 l    df *ABS*	00000000 divdf3.c
00000000 l    df *ABS*	00000000 eqdf2.c
00000000 l    df *ABS*	00000000 ledf2.c
00000000 l    df *ABS*	00000000 muldf3.c
00000000 l    df *ABS*	00000000 subdf3.c
00000000 l    df *ABS*	00000000 fixdfsi.c
00000000 l    df *ABS*	00000000 floatsidf.c
00000000 l    df *ABS*	00000000 libgcc2.c
00000000 l    df *ABS*	00000000 memcpy.c
00000000 l    df *ABS*	00000000 nano-vfprintf_float.c
00000000 l    df *ABS*	00000000 nano-vfprintf_i.c
00000000 l    df *ABS*	00000000 printf.c
00000000 l    df *ABS*	00000000 strlen.c
00000000 l    df *ABS*	00000000 wbuf.c
00000000 l    df *ABS*	00000000 wsetup.c
00000000 l    df *ABS*	00000000 dtoa.c
000072de l     F .text	0000013a quorem
00000000 l    df *ABS*	00000000 fflush.c
00000000 l    df *ABS*	00000000 findfp.c
000081da l     F .text	0000006a std
00000000 l    df *ABS*	00000000 fwalk.c
00000000 l    df *ABS*	00000000 localeconv.c
00000000 l    df *ABS*	00000000 makebuf.c
00000000 l    df *ABS*	00000000 malloc.c
00000000 l    df *ABS*	00000000 memchr.c
00000000 l    df *ABS*	00000000 mprec.c
0000a348 l     O .text	0000000c p05.3319
00000000 l    df *ABS*	00000000 nano-mallocr.c
00000000 l    df *ABS*	00000000 nano-mallocr.c
00000000 l    df *ABS*	00000000 nano-mallocr.c
00000000 l    df *ABS*	00000000 nano-vfprintf.c
00008dd8 l     F .text	0000002a __sfputc_r
00000000 l    df *ABS*	00000000 sbrkr.c
00000000 l    df *ABS*	00000000 stdio.c
00000000 l    df *ABS*	00000000 writer.c
00000000 l    df *ABS*	00000000 closer.c
00000000 l    df *ABS*	00000000 fstatr.c
00000000 l    df *ABS*	00000000 isattyr.c
00000000 l    df *ABS*	00000000 lseekr.c
00000000 l    df *ABS*	00000000 mbtowc_r.c
00000000 l    df *ABS*	00000000 mlock.c
00000000 l    df *ABS*	00000000 readr.c
00000000 l    df *ABS*	00000000 wctomb_r.c
00000000 l    df *ABS*	00000000 gedf2.c
00000000 l    df *ABS*	00000000 unorddf2.c
00000000 l    df *ABS*	00000000 floatunsidf.c
00000000 l    df *ABS*	00000000 trunctfdf2.c
00000000 l    df *ABS*	00000000 close.c
00000000 l    df *ABS*	00000000 fstat.c
00000000 l    df *ABS*	00000000 isatty.c
00000000 l    df *ABS*	00000000 lseek.c
00000000 l    df *ABS*	00000000 read.c
00000000 l    df *ABS*	00000000 sbrk.c
200002ac l     O .bss	00000004 heap_end.1518
00000000 l    df *ABS*	00000000 zf_common_font.c
00000000 l    df *ABS*	00000000 libgcc2.c
00000000 l    df *ABS*	00000000 locale.c
00000000 l    df *ABS*	00000000 ctype_.c
00000000 l    df *ABS*	00000000 impure.c
20000054 l     O .data	00000060 impure_data
00000000 l    df *ABS*	00000000 zf_device_type.c
00000000 l    df *ABS*	00000000 reent.c
000066bc g     F .text	000000ee __cvt
000025ca g     F .text	00000024 EXTI2_IRQHandler
2000026c g     O .bss	00000004 wireless_type
00002abc  w      .text	00000000 TIM8_TRG_COM_IRQHandler
00002abe  w      .text	00000000 TIM8_CC_IRQHandler
0000205c g     F .text	00000044 debug_assert_handler
00000f06 g     F .text	0000005e uart_query_byte
2000029e g     O .bss	00000001 USBHD_Dev_SleepStatus
00009248 g     F .text	00000028 _isatty_r
00003d06 g     F .text	0000003e DevEP1_IN_Deal
00009270 g     F .text	0000002c _lseek_r
20000260 g     O .bss	00000001 scc8660_uart_receive_flag_dvp
00002518 g     F .text	0000002c UART8_IRQHandler
000057a6 g     F .text	0000006a .hidden __eqdf2
0000295a g     F .text	00000062 KeyInit
000070b2 g     F .text	00000042 printf
20000a20 g       .data	00000000 __global_pointer$
00002a98  w      .text	00000000 TIM1_CC_IRQHandler
00000318 g     F .text	00000066 gpio_toggle_level
0000918c g     F .text	00000036 __sseek
00008296 g     F .text	0000006c __sinit
00007106 g     F .text	000000c6 __swbuf_r
0000216a g     F .text	00000100 fifo_write_buffer
0000291e g     F .text	00000008 HardFault_Handler
0000824e g     F .text	00000048 __sfmoreglue
000092d8 g     F .text	00000002 __malloc_unlock
00001264 g     F .text	00000036 camera_uart_handler
00001cca g     F .text	00000028 wireless_ch573_callback
0000282e g     F .text	00000028 TIM6_IRQHandler
00002a5e  w      .text	00000000 SysTick_Handler
000029bc g     F .text	00000032 Init
00002a64  w      .text	00000000 PVD_IRQHandler
00002ac4  w      .text	00000000 SDIO_IRQHandler
00002af6  w      .text	00000000 TIM9_BRK_IRQHandler
0000133e g     F .text	00000064 scc8660_uart_callback_dvp
00003584 g     F .text	00000076 SPI_I2S_DeInit
00002b0a  w      .text	00000000 DMA2_Channel8_IRQHandler
0000290e g     F .text	00000010 NMI_Handler
00008548 g     F .text	00000088 _Balloc
00002ae4  w      .text	00000000 CAN2_RX1_IRQHandler
000025ee g     F .text	00000024 EXTI3_IRQHandler
20000268 g     O .bss	00000004 camera_type
00009326 g     F .text	000000ae .hidden __gtdf2
000016e4 g     F .text	00000034 tft180_set_color
00002aec  w      .text	00000000 USBHS_IRQHandler
00002a60  w      .text	00000000 SW_handler
00003b70 g     F .text	00000046 USART_GetFlagStatus
00002b0c  w      .text	00000000 DMA2_Channel9_IRQHandler
0000921e g     F .text	0000002a _fstat_r
20000225 g     O .data	00000001 tft180_y_max
00009ec8 g     O .text	00000014 MyReportDescHD
00002b04  w      .text	00000000 TIM10_CC_IRQHandler
20000300 g     O .bss	00000004 errno
20000010 g     O .data	00000043 TAB_USB_FS_OSC_DESC
20000250 g       .bss	00000000 _sbss
00000800 g       *ABS*	00000000 __stack_size
00000206 g       .text	00000000 en_interrupt
2000029f g     O .bss	00000001 DevConfig
000022ea g     F .text	0000001c interrupt_disable
00001214 g     F .text	00000028 bluetooth_ch9141_uart_callback_ch1
00006606 g     F .text	000000b6 memcpy
2000023c g     O .data	00000008 uart_irq
00008244 g     F .text	0000000a _cleanup_r
0000306a g     F .text	0000013c GPIO_PinRemapConfig
00006520 g     F .text	00000070 .hidden __floatsidf
20000261 g     O .bss	00000001 scc8660_finish_flag_dvp
00005810 g     F .text	000000b6 .hidden __ltdf2
00002582 g     F .text	00000024 EXTI0_IRQHandler
00002aa4  w      .text	00000000 I2C2_EV_IRQHandler
00002b02  w      .text	00000000 TIM10_TRG_COM_IRQHandler
20000220 g     O .data	00000002 tft180_pencolor
200002a2 g     O .bss	00000002 SetupReqLen
00009ef8 g     O .text	00000016 MySerNumInfoHD
00008522 g     F .text	0000000c malloc
000096a2 g     F .text	0000000c _fstat
00000718 g     F .text	00000264 spi_init
0000a280 g     O .text	000000c8 __mprec_tens
00000038 g       .init	00000000 _einit
000037bc g     F .text	0000002e TIM_ClearITPendingBit
00009f10 g     O .text	0000000a MyUSBQUADescHD
00002306 g     F .text	0000000e interrupt_init
0000346c g     F .text	00000046 RCC_APB2PeriphClockCmd
20000222 g     O .data	00000002 tft180_bgcolor
00009880 g     O .text	000005f0 tft_ascii
00002ae6  w      .text	00000000 CAN2_SCE_IRQHandler
00002a86  w      .text	00000000 ADC1_2_IRQHandler
00002e08 g     F .text	0000022a GPIO_Init
00002a5c  w      .text	00000000 Break_Point_Handler
200002a0 g     O .bss	00000001 SetupReqCode
0000840e g     F .text	00000018 _localeconv_r
0000875c g     F .text	0000001c __i2b
0000211c g     F .text	0000004e fifo_head_offset
00002aa8  w      .text	00000000 SPI1_IRQHandler
00003a1e g     F .text	00000060 USART_Cmd
000090e6 g     F .text	00000028 _sbrk_r
00002a66  w      .text	00000000 TAMPER_IRQHandler
000092da g     F .text	0000002c _read_r
00003cb8 g     F .text	0000004e USART_ClearITPendingBit
00002ae2  w      .text	00000000 CAN2_RX0_IRQHandler
00002886 g     F .text	00000030 TIM8_UP_IRQHandler
000034b2 g     F .text	00000046 RCC_APB1PeriphClockCmd
00004ac2 g     F .text	00000730 .hidden __adddf3
00002a58  w      .text	00000000 Ecall_M_Mode_Handler
000013a2 g     F .text	00000014 scc8660_vsync_dvp
000096ae g     F .text	0000000c _isatty
20000248 g     O .data	00000004 _global_impure_ptr
00002ad4  w      .text	00000000 DMA2_Channel2_IRQHandler
00002a7e  w      .text	00000000 DMA1_Channel4_IRQHandler
0000a258 g     O .text	00000028 __mprec_bigtens
00009410 g     F .text	00000068 .hidden __floatunsidf
000096d2 g     F .text	00000020 _sbrk
00008a48 g     F .text	00000032 __mcmp
000012c6 g     F .text	00000064 mt9v03x_uart_callback_dvp
000028b6 g     F .text	00000030 TIM9_UP_IRQHandler
00002400 g     F .text	00000034 USART3_IRQHandler
00002de8 g     F .text	00000020 EXTI_ClearITPendingBit
00002a68  w      .text	00000000 RTC_IRQHandler
20000304 g       .bss	00000000 _ebss
00003bb6 g     F .text	00000102 USART_GetITStatus
00002a84  w      .text	00000000 DMA1_Channel7_IRQHandler
00009eec g     O .text	0000000c MyProdInfoHD
000086ac g     F .text	00000046 __hi0bits
00002a8c  w      .text	00000000 CAN1_RX1_IRQHandler
000064b8 g     F .text	00000068 .hidden __fixdfsi
00002544 g     F .text	0000003e DVP_IRQHandler
00002468 g     F .text	00000030 UART5_IRQHandler
20000298 g     O .bss	00000004 pDescr
20000244 g     O .data	00000004 MyLangDescrHD
20000274 g     O .bss	00000004 system_clock
000027ce g     F .text	00000030 TIM4_IRQHandler
00005810 g     F .text	000000b6 .hidden __ledf2
00003032 g     F .text	00000038 GPIO_WriteBit
00001d1a g     F .text	00000028 clock_init
00002ad2  w      .text	00000000 DMA2_Channel1_IRQHandler
000088bc g     F .text	000000be __pow5mult
00001718 g     F .text	00000142 tft180_show_char
0000a1f8 g     O .text	00000020 __sf_fake_stderr
20000304 g       .bss	00000000 end
20000230 g     O .data	00000007 LineCoding
00002aa0  w      .text	00000000 I2C1_EV_IRQHandler
0000185a g     F .text	00000470 tft180_init
0000374c g     F .text	00000070 TIM_GetITStatus
000009d2 g     F .text	000000a6 spi_write_16bit
000031a6 g     F .text	000002c6 RCC_GetClocksFreq
00002a82  w      .text	00000000 DMA1_Channel6_IRQHandler
00006590 g     F .text	00000076 .hidden __clzsi2
00008e02 g     F .text	00000044 __sfputs_r
00000f64 g     F .text	000002b0 uart_init
00002434 g     F .text	00000034 UART4_IRQHandler
00002ad8  w      .text	00000000 DMA2_Channel4_IRQHandler
0000852e g     F .text	0000001a memchr
00006836  w    F .text	000004c4 _printf_float
000037ea g     F .text	00000234 USART_Init
00008c66 g     F .text	000000a4 _free_r
0000279e g     F .text	00000030 TIM3_IRQHandler
00002a6c  w      .text	00000000 RCC_IRQHandler
00000a78 g     F .text	00000408 uart_gpio_init
00002a96  w      .text	00000000 TIM1_TRG_COM_IRQHandler
00002a78  w      .text	00000000 DMA1_Channel1_IRQHandler
00000000 g       .init	00000000 _start
00002b08  w      .text	00000000 DMA2_Channel7_IRQHandler
000096ba g     F .text	0000000c _lseek
0000897a g     F .text	000000ce __lshift
000026be g     F .text	00000080 EXTI15_10_IRQHandler
00000200 g       .text	00000000 dis_interrupt
00000e80 g     F .text	00000086 uart_rx_interrupt
00003a7e g     F .text	000000c4 USART_ITConfig
20000294 g     O .bss	00000004 pEP2_RAM_Addr
00008778 g     F .text	00000144 __multiply
00008b6c g     F .text	000000d4 __d2b
0000123c g     F .text	00000028 bluetooth_ch9141_uart_callback_ch2
000002bc g     F .text	0000005c system_delay
00002856 g     F .text	00000030 TIM7_IRQHandler
000091f6 g     F .text	00000028 _close_r
00002ae0  w      .text	00000000 CAN2_TX_IRQHandler
20000000 g       .dalign	00000000 _data_vma
000027fe g     F .text	00000030 TIM5_IRQHandler
00003de8 g     F .text	00000066 DevEP2_OUT_Deal
000071cc g     F .text	00000112 __swsetup_r
00002636 g     F .text	00000088 EXTI9_5_IRQHandler
000051f2 g     F .text	000005b4 .hidden __divdf3
00008302 g     F .text	000000a0 __sfp
000058c6 g     F .text	000004b8 .hidden __muldf3
0000910e g     F .text	00000030 __sread
0000161e g     F .text	00000078 tft180_clear
00002ade  w      .text	00000000 ETH_WKUP_IRQHandler
00001696 g     F .text	0000004e tft180_set_dir
00003d82 g     F .text	00000066 DevEP1_OUT_Deal
000092d6 g     F .text	00000002 __malloc_lock
00008174 g     F .text	00000066 _fflush_r
00008c40 g     F .text	00000026 _calloc_r
00002d92 g     F .text	00000056 EXTI_GetITStatus
2000028c g     O .bss	00000004 pEP0_RAM_Addr
20000252 g     O .bss	00000001 mt9v03x_finish_flag_dvp
00002aaa  w      .text	00000000 SPI2_IRQHandler
0000a218 g     O .text	00000020 __sf_fake_stdin
00009e70 g     O .text	00000012 MyDevDescrHD
00000214 g     F .text	000000a8 memset
000029ee g     F .text	00000066 main
00002afe  w      .text	00000000 TIM10_BRK_IRQHandler
00002afc  w      .text	00000000 TIM9_CC_IRQHandler
000091c2 g     F .text	00000006 __sclose
00002ada  w      .text	00000000 DMA2_Channel5_IRQHandler
2000022c g     O .data	00000001 USBHD_Dev_Speed
2000025f g     O .bss	00000001 scc8660_uart_receive_num_dvp
00007418 g     F .text	00000c1e _dtoa_r
00008d0a g     F .text	000000ce _malloc_r
00009306 g     F .text	00000020 __ascii_wctomb
00009edc g     O .text	0000000e MyManuInfoHD
2000025c g     O .bss	00000003 scc8660_uart_receive_dvp
00002a80  w      .text	00000000 DMA1_Channel5_IRQHandler
20000278 g     O .bss	00000001 zf_debug_init_flag
00009860 g     O .text	00000020 uart_index
00002612 g     F .text	00000024 EXTI4_IRQHandler
00002a8a  w      .text	00000000 USB_LP_CAN1_RX0_IRQHandler
0000132a g     F .text	00000014 mt9v03x_handler_dvp
000036f2 g     F .text	0000005a SPI_Cmd
00002028 g     F .text	00000034 debug_init
00002ba0 g     F .text	0000007c SystemInit
00002ac0  w      .text	00000000 RNG_IRQHandler
000057a6 g     F .text	0000006a .hidden __nedf2
000070b2 g     F .text	00000042 iprintf
20000284 g     O .bss	00000008 EP0_DatabufHD
00002a88  w      .text	00000000 USB_HP_CAN1_TX_IRQHandler
0000a058 g     O .text	00000100 .hidden __clz_tab
000067aa g     F .text	0000008c __exponent
00000000 g       .init	00000000 _sinit
00003d44 g     F .text	0000003e DevEP2_IN_Deal
000091c8 g     F .text	0000002e _write_r
00002a7c  w      .text	00000000 DMA1_Channel3_IRQHandler
00009854 g     O .text	0000000c spi_index
00002ac2  w      .text	00000000 FSMC_IRQHandler
00002adc  w      .text	00000000 ETH_IRQHandler
00006cfa g     F .text	0000010c _printf_common
20000238 g     O .data	00000004 _impure_ptr
0000273e g     F .text	00000030 TIM1_UP_IRQHandler
00008036 g     F .text	0000013e __sflush_r
00002a62  w      .text	00000000 WWDG_IRQHandler
00002926 g     F .text	00000034 Blink
00002aea  w      .text	00000000 USBHSWakeup_IRQHandler
00002b10  w      .text	00000000 DMA2_Channel11_IRQHandler
0000353e g     F .text	00000046 RCC_APB1PeriphResetCmd
0000929c g     F .text	0000003a __ascii_mbtowc
00002a5a  w      .text	00000000 Ecall_U_Mode_Handler
00002b06  w      .text	00000000 DMA2_Channel6_IRQHandler
0000276e g     F .text	00000030 TIM2_IRQHandler
20010000 g       .stack	00000000 _eusrstack
0000097c g     F .text	00000056 spi_write_8bit
00009e84 g     O .text	00000043 MyCfgDescrHD
00002a92  w      .text	00000000 TIM1_BRK_IRQHandler
00008426 g     F .text	0000005a __swhatbuf_r
00003b42 g     F .text	0000002e USART_SendData
00002b0e  w      .text	00000000 DMA2_Channel10_IRQHandler
000025a6 g     F .text	00000024 EXTI1_IRQHandler
000020a0 g     F .text	0000007c _write
20000250 g       .data	00000000 _edata
00001cf2 g     F .text	00000028 wireless_uart_callback
2000029c g     O .bss	00000002 USBHD_Dev_SetupReqLen
00002ab4  w      .text	00000000 RTCAlarm_IRQHandler
20000264 g     O .bss	00000004 tft180_display_dir
0000a47c g       .dlalign	00000000 _data_lma
000028e6 g     F .text	00000028 TIM10_UP_IRQHandler
00002afa  w      .text	00000000 TIM9_TRG_COM_IRQHandler
000024cc g     F .text	0000004c UART7_IRQHandler
20000224 g     O .data	00000001 tft180_x_max
0000239e g     F .text	00000062 USART2_IRQHandler
00002498 g     F .text	00000034 UART6_IRQHandler
0000913e g     F .text	0000004e __swrite
00008e46 g     F .text	000002a0 _vfiprintf_r
000083a2 g     F .text	0000006c _fwalk_reent
00008a7a g     F .text	000000f2 __mdiff
00002314 g     F .text	0000002e interrupt_global_enable
00002aa6  w      .text	00000000 I2C2_ER_IRQHandler
00002a7a  w      .text	00000000 DMA1_Channel2_IRQHandler
0000a238 g     O .text	00000020 __sf_fake_stdout
00002ab8  w      .text	00000000 TIM8_BRK_IRQHandler
0000a378 g     O .text	00000101 _ctype_
000096c6 g     F .text	0000000c _read
000093d4 g     F .text	0000003c .hidden __unorddf2
00002b12  w      .text	00000000 handle_reset
00002a8e  w      .text	00000000 CAN1_SCE_IRQHandler
00009840 g     O .text	00000014 gpio_group
00002a6a  w      .text	00000000 FLASH_IRQHandler
0000236a g     F .text	00000034 USART1_IRQHandler
00008480 g     F .text	000000a2 __smakebuf_r
000022ce g     F .text	0000001c interrupt_enable
000070f4 g     F .text	00000012 strlen
00003e4e g     F .text	00000c74 OTG_FS_IRQHandler
00006e06 g     F .text	000002ac _printf_i
00002ac8  w      .text	00000000 SPI3_IRQHandler
0000129a g     F .text	0000002c camera_dvp_handler
00009326 g     F .text	000000ae .hidden __gedf2
200002a8 g     O .bss	00000004 __malloc_sbrk_start
000034f8 g     F .text	00000046 RCC_APB2PeriphResetCmd
00002aa2  w      .text	00000000 I2C1_ER_IRQHandler
000035fa g     F .text	000000f8 SPI_Init
00000514 g     F .text	00000204 spi_gpio_init
0000037e g     F .text	00000196 gpio_init
200002a4 g     O .bss	00000004 __malloc_free_list
00005d7e g     F .text	0000073a .hidden __subdf3
00008e46 g     F .text	000002a0 _vfprintf_r
000086f2 g     F .text	0000006a __lo0bits
20000290 g     O .bss	00000004 pEP1_RAM_Addr
200000b4 g     O .data	0000016c __global_locale
00002ab6  w      .text	00000000 USBWakeUp_IRQHandler
00009478 g     F .text	0000021e .hidden __trunctfdf2
00009696 g     F .text	0000000c _close
00002ad6  w      .text	00000000 DMA2_Channel3_IRQHandler
00008614 g     F .text	00000098 __multadd
00002342 g     F .text	00000028 interrupt_global_disable
000085d0 g     F .text	00000044 _Bfree



Disassembly of section .init:

00000000 <_sinit>:
_start():
D:/projects/mechanical_arm/Firmware/ArmMainControler/libraries/sdk/Startup/startup_ch32v30x.S:13

	.section	.init,"ax",@progbits
	.global	_start
	.align	1
_start:
	j	handle_reset
   0:	3130206f          	j	2b12 <handle_reset>
   4:	00000013          	nop
   8:	00000013          	nop
   c:	00000013          	nop
  10:	00000013          	nop
  14:	00000013          	nop
  18:	00000013          	nop
  1c:	00000013          	nop
  20:	00000013          	nop
  24:	00000013          	nop
  28:	00000013          	nop
  2c:	00000013          	nop
  30:	00000013          	nop
  34:	00100073          	ebreak

Disassembly of section .vector:

00000038 <_vector_base>:
	...
_vector_base():
  40:	290e                	fld	fs2,192(sp)
  42:	0000                	unimp
  44:	291e                	fld	fs2,448(sp)
  46:	0000                	unimp
  48:	0000                	unimp
  4a:	0000                	unimp
  4c:	2a58                	fld	fa4,144(a2)
	...
  56:	0000                	unimp
  58:	2a5a                	fld	fs4,400(sp)
  5a:	0000                	unimp
  5c:	2a5c                	fld	fa5,144(a2)
	...
  66:	0000                	unimp
  68:	2a5e                	fld	fs4,464(sp)
  6a:	0000                	unimp
  6c:	0000                	unimp
  6e:	0000                	unimp
  70:	2a60                	fld	fs0,208(a2)
  72:	0000                	unimp
  74:	0000                	unimp
  76:	0000                	unimp
  78:	2a62                	fld	fs4,24(sp)
  7a:	0000                	unimp
  7c:	2a64                	fld	fs1,208(a2)
  7e:	0000                	unimp
  80:	2a66                	fld	fs4,88(sp)
  82:	0000                	unimp
  84:	2a68                	fld	fa0,208(a2)
  86:	0000                	unimp
  88:	2a6a                	fld	fs4,152(sp)
  8a:	0000                	unimp
  8c:	2a6c                	fld	fa1,208(a2)
  8e:	0000                	unimp
  90:	2582                	fld	fa1,0(sp)
  92:	0000                	unimp
  94:	25a6                	fld	fa1,72(sp)
  96:	0000                	unimp
  98:	25ca                	fld	fa1,144(sp)
  9a:	0000                	unimp
  9c:	25ee                	fld	fa1,216(sp)
  9e:	0000                	unimp
  a0:	2612                	fld	fa2,256(sp)
  a2:	0000                	unimp
  a4:	2a78                	fld	fa4,208(a2)
  a6:	0000                	unimp
  a8:	2a7a                	fld	fs4,408(sp)
  aa:	0000                	unimp
  ac:	2a7c                	fld	fa5,208(a2)
  ae:	0000                	unimp
  b0:	2a7e                	fld	fs4,472(sp)
  b2:	0000                	unimp
  b4:	2a80                	fld	fs0,16(a3)
  b6:	0000                	unimp
  b8:	2a82                	fld	fs5,0(sp)
  ba:	0000                	unimp
  bc:	2a84                	fld	fs1,16(a3)
  be:	0000                	unimp
  c0:	2a86                	fld	fs5,64(sp)
  c2:	0000                	unimp
  c4:	2a88                	fld	fa0,16(a3)
  c6:	0000                	unimp
  c8:	2a8a                	fld	fs5,128(sp)
  ca:	0000                	unimp
  cc:	2a8c                	fld	fa1,16(a3)
  ce:	0000                	unimp
  d0:	2a8e                	fld	fs5,192(sp)
  d2:	0000                	unimp
  d4:	2636                	fld	fa2,328(sp)
  d6:	0000                	unimp
  d8:	2a92                	fld	fs5,256(sp)
  da:	0000                	unimp
  dc:	273e                	fld	fa4,456(sp)
  de:	0000                	unimp
  e0:	2a96                	fld	fs5,320(sp)
  e2:	0000                	unimp
  e4:	2a98                	fld	fa4,16(a3)
  e6:	0000                	unimp
  e8:	276e                	fld	fa4,216(sp)
  ea:	0000                	unimp
  ec:	279e                	fld	fa5,448(sp)
  ee:	0000                	unimp
  f0:	27ce                	fld	fa5,208(sp)
  f2:	0000                	unimp
  f4:	2aa0                	fld	fs0,80(a3)
  f6:	0000                	unimp
  f8:	2aa2                	fld	fs5,8(sp)
  fa:	0000                	unimp
  fc:	2aa4                	fld	fs1,80(a3)
  fe:	0000                	unimp
 100:	2aa6                	fld	fs5,72(sp)
 102:	0000                	unimp
 104:	2aa8                	fld	fa0,80(a3)
 106:	0000                	unimp
 108:	2aaa                	fld	fs5,136(sp)
 10a:	0000                	unimp
 10c:	236a                	fld	ft6,152(sp)
 10e:	0000                	unimp
 110:	239e                	fld	ft7,448(sp)
 112:	0000                	unimp
 114:	2400                	fld	fs0,8(s0)
 116:	0000                	unimp
 118:	26be                	fld	fa3,456(sp)
 11a:	0000                	unimp
 11c:	2ab4                	fld	fa3,80(a3)
 11e:	0000                	unimp
 120:	2ab6                	fld	fs5,328(sp)
 122:	0000                	unimp
 124:	2ab8                	fld	fa4,80(a3)
 126:	0000                	unimp
 128:	2886                	fld	fa7,64(sp)
 12a:	0000                	unimp
 12c:	2abc                	fld	fa5,80(a3)
 12e:	0000                	unimp
 130:	2abe                	fld	fs5,456(sp)
 132:	0000                	unimp
 134:	2ac0                	fld	fs0,144(a3)
 136:	0000                	unimp
 138:	2ac2                	fld	fs5,16(sp)
 13a:	0000                	unimp
 13c:	2ac4                	fld	fs1,144(a3)
 13e:	0000                	unimp
 140:	27fe                	fld	fa5,472(sp)
 142:	0000                	unimp
 144:	2ac8                	fld	fa0,144(a3)
 146:	0000                	unimp
 148:	2434                	fld	fa3,72(s0)
 14a:	0000                	unimp
 14c:	2468                	fld	fa0,200(s0)
 14e:	0000                	unimp
 150:	282e                	fld	fa6,200(sp)
 152:	0000                	unimp
 154:	2856                	fld	fa6,336(sp)
 156:	0000                	unimp
 158:	2ad2                	fld	fs5,272(sp)
 15a:	0000                	unimp
 15c:	2ad4                	fld	fa3,144(a3)
 15e:	0000                	unimp
 160:	2ad6                	fld	fs5,336(sp)
 162:	0000                	unimp
 164:	2ad8                	fld	fa4,144(a3)
 166:	0000                	unimp
 168:	2ada                	fld	fs5,400(sp)
 16a:	0000                	unimp
 16c:	2adc                	fld	fa5,144(a3)
 16e:	0000                	unimp
 170:	2ade                	fld	fs5,464(sp)
 172:	0000                	unimp
 174:	2ae0                	fld	fs0,208(a3)
 176:	0000                	unimp
 178:	2ae2                	fld	fs5,24(sp)
 17a:	0000                	unimp
 17c:	2ae4                	fld	fs1,208(a3)
 17e:	0000                	unimp
 180:	2ae6                	fld	fs5,88(sp)
 182:	0000                	unimp
 184:	3e4e                	fld	ft8,240(sp)
 186:	0000                	unimp
 188:	2aea                	fld	fs5,152(sp)
 18a:	0000                	unimp
 18c:	2aec                	fld	fa1,208(a3)
 18e:	0000                	unimp
 190:	2544                	fld	fs1,136(a0)
 192:	0000                	unimp
 194:	2498                	fld	fa4,8(s1)
 196:	0000                	unimp
 198:	24cc                	fld	fa1,136(s1)
 19a:	0000                	unimp
 19c:	2518                	fld	fa4,8(a0)
 19e:	0000                	unimp
 1a0:	2af6                	fld	fs5,344(sp)
 1a2:	0000                	unimp
 1a4:	28b6                	fld	fa7,328(sp)
 1a6:	0000                	unimp
 1a8:	2afa                	fld	fs5,408(sp)
 1aa:	0000                	unimp
 1ac:	2afc                	fld	fa5,208(a3)
 1ae:	0000                	unimp
 1b0:	2afe                	fld	fs5,472(sp)
 1b2:	0000                	unimp
 1b4:	28e6                	fld	fa7,88(sp)
 1b6:	0000                	unimp
 1b8:	2b02                	fld	fs6,0(sp)
 1ba:	0000                	unimp
 1bc:	2b04                	fld	fs1,16(a4)
 1be:	0000                	unimp
 1c0:	2b06                	fld	fs6,64(sp)
 1c2:	0000                	unimp
 1c4:	2b08                	fld	fa0,16(a4)
 1c6:	0000                	unimp
 1c8:	2b0a                	fld	fs6,128(sp)
 1ca:	0000                	unimp
 1cc:	2b0c                	fld	fa1,16(a4)
 1ce:	0000                	unimp
 1d0:	2b0e                	fld	fs6,192(sp)
 1d2:	0000                	unimp
 1d4:	2b10                	fld	fa2,16(a4)
	...

Disassembly of section .text:

00000200 <dis_interrupt>:
dis_interrupt():
D:/projects/mechanical_arm/Firmware/ArmMainControler/libraries/zf_driver/zf_driver_irq.S:39
#a0 = 0x7888
#mstatus中的第11 12位MPP
#00 用户模式  (U)
#01 监管者模式(S)
#11 机器模式  (M) 只有该模式允许使用SCR指令
    csrrci a0, mstatus, 0x8
     200:	30047573          	csrrci	a0,mstatus,8
D:/projects/mechanical_arm/Firmware/ArmMainControler/libraries/zf_driver/zf_driver_irq.S:40
    ret
     204:	8082                	ret

00000206 <en_interrupt>:
en_interrupt():
D:/projects/mechanical_arm/Firmware/ArmMainControler/libraries/zf_driver/zf_driver_irq.S:57

#	li t0, 0x1f
#	csrw 0x804, t0

#mstatus寄存器中的MIE位置1，切换为用户模式
   	li t0, 0x6088
     206:	000062b7          	lui	t0,0x6
     20a:	08828293          	addi	t0,t0,136 # 6088 <__subdf3+0x30a>
D:/projects/mechanical_arm/Firmware/ArmMainControler/libraries/zf_driver/zf_driver_irq.S:58
   	csrs mstatus, t0
     20e:	3002a073          	csrs	mstatus,t0
D:/projects/mechanical_arm/Firmware/ArmMainControler/libraries/zf_driver/zf_driver_irq.S:59
    ret
     212:	8082                	ret

00000214 <memset>:
memset():
     214:	433d                	li	t1,15
     216:	872a                	mv	a4,a0
     218:	02c37363          	bgeu	t1,a2,23e <memset+0x2a>
     21c:	00f77793          	andi	a5,a4,15
     220:	efbd                	bnez	a5,29e <memset+0x8a>
     222:	e5ad                	bnez	a1,28c <memset+0x78>
     224:	ff067693          	andi	a3,a2,-16
     228:	8a3d                	andi	a2,a2,15
     22a:	96ba                	add	a3,a3,a4
     22c:	c30c                	sw	a1,0(a4)
     22e:	c34c                	sw	a1,4(a4)
     230:	c70c                	sw	a1,8(a4)
     232:	c74c                	sw	a1,12(a4)
     234:	0741                	addi	a4,a4,16
     236:	fed76be3          	bltu	a4,a3,22c <memset+0x18>
     23a:	e211                	bnez	a2,23e <memset+0x2a>
     23c:	8082                	ret
     23e:	40c306b3          	sub	a3,t1,a2
     242:	068a                	slli	a3,a3,0x2
     244:	00000297          	auipc	t0,0x0
     248:	9696                	add	a3,a3,t0
     24a:	00a68067          	jr	10(a3)
     24e:	00b70723          	sb	a1,14(a4)
     252:	00b706a3          	sb	a1,13(a4)
     256:	00b70623          	sb	a1,12(a4)
     25a:	00b705a3          	sb	a1,11(a4)
     25e:	00b70523          	sb	a1,10(a4)
     262:	00b704a3          	sb	a1,9(a4)
     266:	00b70423          	sb	a1,8(a4)
     26a:	00b703a3          	sb	a1,7(a4)
     26e:	00b70323          	sb	a1,6(a4)
     272:	00b702a3          	sb	a1,5(a4)
     276:	00b70223          	sb	a1,4(a4)
     27a:	00b701a3          	sb	a1,3(a4)
     27e:	00b70123          	sb	a1,2(a4)
     282:	00b700a3          	sb	a1,1(a4)
     286:	00b70023          	sb	a1,0(a4)
     28a:	8082                	ret
     28c:	0ff5f593          	andi	a1,a1,255
     290:	00859693          	slli	a3,a1,0x8
     294:	8dd5                	or	a1,a1,a3
     296:	01059693          	slli	a3,a1,0x10
     29a:	8dd5                	or	a1,a1,a3
     29c:	b761                	j	224 <memset+0x10>
     29e:	00279693          	slli	a3,a5,0x2
     2a2:	00000297          	auipc	t0,0x0
     2a6:	9696                	add	a3,a3,t0
     2a8:	8286                	mv	t0,ra
     2aa:	fa8680e7          	jalr	-88(a3)
     2ae:	8096                	mv	ra,t0
     2b0:	17c1                	addi	a5,a5,-16
     2b2:	8f1d                	sub	a4,a4,a5
     2b4:	963e                	add	a2,a2,a5
     2b6:	f8c374e3          	bgeu	t1,a2,23e <memset+0x2a>
     2ba:	b7a5                	j	222 <memset+0xe>

000002bc <system_delay>:
system_delay():
D:/projects/mechanical_arm/Firmware/ArmMainControler/libraries/zf_driver/zf_driver_delay.c:28
//  @param      time                us
//  @return     void
//  Sample usage:                   内部使用，用户无需关心
//-------------------------------------------------------------------------------------------------------------------
void system_delay(uint64_t time)
{
     2bc:	1101                	addi	sp,sp,-32
     2be:	ce22                	sw	s0,28(sp)
     2c0:	1000                	addi	s0,sp,32
     2c2:	fea42423          	sw	a0,-24(s0)
     2c6:	feb42623          	sw	a1,-20(s0)
D:/projects/mechanical_arm/Firmware/ArmMainControler/libraries/zf_driver/zf_driver_delay.c:29
    SysTick->CTLR = 0;
     2ca:	e000f7b7          	lui	a5,0xe000f
     2ce:	0007a023          	sw	zero,0(a5) # e000f000 <_eusrstack+0xbffff000>
D:/projects/mechanical_arm/Firmware/ArmMainControler/libraries/zf_driver/zf_driver_delay.c:30
    SysTick->CNT  = 0;
     2d2:	e000f7b7          	lui	a5,0xe000f
     2d6:	4681                	li	a3,0
     2d8:	4701                	li	a4,0
     2da:	c794                	sw	a3,8(a5)
     2dc:	c7d8                	sw	a4,12(a5)
D:/projects/mechanical_arm/Firmware/ArmMainControler/libraries/zf_driver/zf_driver_delay.c:31
    SysTick->CTLR = 1;          //启动系统计数器 systick（HCLK/8 时基） us
     2de:	e000f7b7          	lui	a5,0xe000f
     2e2:	4705                	li	a4,1
     2e4:	c398                	sw	a4,0(a5)
D:/projects/mechanical_arm/Firmware/ArmMainControler/libraries/zf_driver/zf_driver_delay.c:34

    //while((*(volatile uint32*)0xE000F004) <= time);
    while(SysTick->CNT <= time);
     2e6:	0001                	nop
D:/projects/mechanical_arm/Firmware/ArmMainControler/libraries/zf_driver/zf_driver_delay.c:34 (discriminator 1)
     2e8:	e000f7b7          	lui	a5,0xe000f
     2ec:	00c7a803          	lw	a6,12(a5) # e000f00c <_eusrstack+0xbffff00c>
     2f0:	479c                	lw	a5,8(a5)
     2f2:	fec42703          	lw	a4,-20(s0)
     2f6:	86c2                	mv	a3,a6
     2f8:	00d76c63          	bltu	a4,a3,310 <system_delay+0x54>
     2fc:	fec42703          	lw	a4,-20(s0)
     300:	86c2                	mv	a3,a6
     302:	fed713e3          	bne	a4,a3,2e8 <system_delay+0x2c>
     306:	fe842703          	lw	a4,-24(s0)
     30a:	00f76363          	bltu	a4,a5,310 <system_delay+0x54>
     30e:	bfe9                	j	2e8 <system_delay+0x2c>
D:/projects/mechanical_arm/Firmware/ArmMainControler/libraries/zf_driver/zf_driver_delay.c:36

}
     310:	0001                	nop
     312:	4472                	lw	s0,28(sp)
     314:	6105                	addi	sp,sp,32
     316:	8082                	ret

00000318 <gpio_toggle_level>:
gpio_toggle_level():
D:/projects/mechanical_arm/Firmware/ArmMainControler/libraries/zf_driver/zf_driver_gpio.c:63
//  @param      pin         选择的引脚 (可选择范围由 common.h 内GPIO_PIN_enum枚举值确定)
//  @return     void        
//  Sample usage:           gpio_toggle_level(D5);//D5引脚电平翻转
//-------------------------------------------------------------------------------------------------------------------
void gpio_toggle_level(gpio_pin_enum pin)
{
     318:	7179                	addi	sp,sp,-48
     31a:	d622                	sw	s0,44(sp)
     31c:	1800                	addi	s0,sp,48
     31e:	fca42e23          	sw	a0,-36(s0)
D:/projects/mechanical_arm/Firmware/ArmMainControler/libraries/zf_driver/zf_driver_gpio.c:64
    uint8 io_group = (pin & 0xF0) >> 5;
     322:	fdc42783          	lw	a5,-36(s0)
     326:	8395                	srli	a5,a5,0x5
     328:	0ff7f793          	andi	a5,a5,255
     32c:	8b9d                	andi	a5,a5,7
     32e:	fef407a3          	sb	a5,-17(s0)
D:/projects/mechanical_arm/Firmware/ArmMainControler/libraries/zf_driver/zf_driver_gpio.c:65
    uint8 io_pin = pin & 0x0F;
     332:	fdc42783          	lw	a5,-36(s0)
     336:	0ff7f793          	andi	a5,a5,255
     33a:	8bbd                	andi	a5,a5,15
     33c:	fef40723          	sb	a5,-18(s0)
D:/projects/mechanical_arm/Firmware/ArmMainControler/libraries/zf_driver/zf_driver_gpio.c:67

    ((GPIO_TypeDef*)(gpio_group[io_group]))->OUTDR ^= (uint16)(1 << io_pin);
     340:	fef44703          	lbu	a4,-17(s0)
     344:	67a9                	lui	a5,0xa
     346:	070a                	slli	a4,a4,0x2
     348:	84078793          	addi	a5,a5,-1984 # 9840 <gpio_group>
     34c:	97ba                	add	a5,a5,a4
     34e:	439c                	lw	a5,0(a5)
     350:	47dc                	lw	a5,12(a5)
     352:	fee44703          	lbu	a4,-18(s0)
     356:	4685                	li	a3,1
     358:	00e69733          	sll	a4,a3,a4
     35c:	0742                	slli	a4,a4,0x10
     35e:	8341                	srli	a4,a4,0x10
     360:	863a                	mv	a2,a4
     362:	fef44683          	lbu	a3,-17(s0)
     366:	6729                	lui	a4,0xa
     368:	068a                	slli	a3,a3,0x2
     36a:	84070713          	addi	a4,a4,-1984 # 9840 <gpio_group>
     36e:	9736                	add	a4,a4,a3
     370:	4318                	lw	a4,0(a4)
     372:	8fb1                	xor	a5,a5,a2
     374:	c75c                	sw	a5,12(a4)
D:/projects/mechanical_arm/Firmware/ArmMainControler/libraries/zf_driver/zf_driver_gpio.c:68
}
     376:	0001                	nop
     378:	5432                	lw	s0,44(sp)
     37a:	6145                	addi	sp,sp,48
     37c:	8082                	ret

0000037e <gpio_init>:
gpio_init():
D:/projects/mechanical_arm/Firmware/ArmMainControler/libraries/zf_driver/zf_driver_gpio.c:80
//  @param      pinconf     引脚配置（可设置参数由zf_gpio.h文件内GPIOSPEED_enum与GPIOMODE_enum枚举值确定，多个条件使用 | 相或）
//  @return     void
//  Sample usage:           gpio_init(D0, GPO, 1, GPIO_PIN_CONFIG);//D0初始化为GPIO功能、输出模式、输出高电平、速度100MHZ 推挽输出
//-------------------------------------------------------------------------------------------------------------------
void gpio_init(gpio_pin_enum gpio_pin, gpio_dir_enum gpio_dir, gpio_level_enum dat, uint32 pinconf)
{
     37e:	7179                	addi	sp,sp,-48
     380:	d606                	sw	ra,44(sp)
     382:	d422                	sw	s0,40(sp)
     384:	1800                	addi	s0,sp,48
     386:	fca42e23          	sw	a0,-36(s0)
     38a:	fcb42c23          	sw	a1,-40(s0)
     38e:	fcc42a23          	sw	a2,-44(s0)
     392:	fcd42823          	sw	a3,-48(s0)
D:/projects/mechanical_arm/Firmware/ArmMainControler/libraries/zf_driver/zf_driver_gpio.c:82
    GPIO_InitTypeDef GPIO_InitStructure;
    uint8 io_group = (gpio_pin & 0xF0) >> 5;
     396:	fdc42783          	lw	a5,-36(s0)
     39a:	8395                	srli	a5,a5,0x5
     39c:	0ff7f793          	andi	a5,a5,255
     3a0:	8b9d                	andi	a5,a5,7
     3a2:	fef407a3          	sb	a5,-17(s0)
D:/projects/mechanical_arm/Firmware/ArmMainControler/libraries/zf_driver/zf_driver_gpio.c:83
    uint8 io_pin = gpio_pin & 0x0F;
     3a6:	fdc42783          	lw	a5,-36(s0)
     3aa:	0ff7f793          	andi	a5,a5,255
     3ae:	8bbd                	andi	a5,a5,15
     3b0:	fef40723          	sb	a5,-18(s0)
D:/projects/mechanical_arm/Firmware/ArmMainControler/libraries/zf_driver/zf_driver_gpio.c:87

    //GPIO_DeInit((GPIO_TypeDef *)(GPION[io_group]));
    //  空引脚则返回
    if(PIN_NULL == gpio_pin) return;
     3b4:	fdc42703          	lw	a4,-36(s0)
     3b8:	0ff00793          	li	a5,255
     3bc:	14f70563          	beq	a4,a5,506 <gpio_init+0x188>
D:/projects/mechanical_arm/Firmware/ArmMainControler/libraries/zf_driver/zf_driver_gpio.c:88
    if(SPI_CS_NULL == gpio_pin) return;
     3c0:	fdc42703          	lw	a4,-36(s0)
     3c4:	0ff00793          	li	a5,255
     3c8:	14f70163          	beq	a4,a5,50a <gpio_init+0x18c>
D:/projects/mechanical_arm/Firmware/ArmMainControler/libraries/zf_driver/zf_driver_gpio.c:91

    //  GPIO总线使能
    if(0 == io_group)      RCC_APB2PeriphClockCmd(RCC_APB2Periph_GPIOA, ENABLE);
     3cc:	fef44783          	lbu	a5,-17(s0)
     3d0:	e791                	bnez	a5,3dc <gpio_init+0x5e>
D:/projects/mechanical_arm/Firmware/ArmMainControler/libraries/zf_driver/zf_driver_gpio.c:91 (discriminator 1)
     3d2:	4585                	li	a1,1
     3d4:	4511                	li	a0,4
     3d6:	096030ef          	jal	ra,346c <RCC_APB2PeriphClockCmd>
     3da:	a041                	j	45a <gpio_init+0xdc>
D:/projects/mechanical_arm/Firmware/ArmMainControler/libraries/zf_driver/zf_driver_gpio.c:92
    else if(1 == io_group) RCC_APB2PeriphClockCmd(RCC_APB2Periph_GPIOB, ENABLE);
     3dc:	fef44703          	lbu	a4,-17(s0)
     3e0:	4785                	li	a5,1
     3e2:	00f71763          	bne	a4,a5,3f0 <gpio_init+0x72>
D:/projects/mechanical_arm/Firmware/ArmMainControler/libraries/zf_driver/zf_driver_gpio.c:92 (discriminator 1)
     3e6:	4585                	li	a1,1
     3e8:	4521                	li	a0,8
     3ea:	082030ef          	jal	ra,346c <RCC_APB2PeriphClockCmd>
     3ee:	a0b5                	j	45a <gpio_init+0xdc>
D:/projects/mechanical_arm/Firmware/ArmMainControler/libraries/zf_driver/zf_driver_gpio.c:93
    else if(2 == io_group) RCC_APB2PeriphClockCmd(RCC_APB2Periph_GPIOC, ENABLE);
     3f0:	fef44703          	lbu	a4,-17(s0)
     3f4:	4789                	li	a5,2
     3f6:	00f71763          	bne	a4,a5,404 <gpio_init+0x86>
D:/projects/mechanical_arm/Firmware/ArmMainControler/libraries/zf_driver/zf_driver_gpio.c:93 (discriminator 1)
     3fa:	4585                	li	a1,1
     3fc:	4541                	li	a0,16
     3fe:	06e030ef          	jal	ra,346c <RCC_APB2PeriphClockCmd>
     402:	a8a1                	j	45a <gpio_init+0xdc>
D:/projects/mechanical_arm/Firmware/ArmMainControler/libraries/zf_driver/zf_driver_gpio.c:94
    else if(3 == io_group) RCC_APB2PeriphClockCmd(RCC_APB2Periph_GPIOD, ENABLE);
     404:	fef44703          	lbu	a4,-17(s0)
     408:	478d                	li	a5,3
     40a:	00f71863          	bne	a4,a5,41a <gpio_init+0x9c>
D:/projects/mechanical_arm/Firmware/ArmMainControler/libraries/zf_driver/zf_driver_gpio.c:94 (discriminator 1)
     40e:	4585                	li	a1,1
     410:	02000513          	li	a0,32
     414:	058030ef          	jal	ra,346c <RCC_APB2PeriphClockCmd>
     418:	a089                	j	45a <gpio_init+0xdc>
D:/projects/mechanical_arm/Firmware/ArmMainControler/libraries/zf_driver/zf_driver_gpio.c:95
    else if(4 == io_group) RCC_APB2PeriphClockCmd(RCC_APB2Periph_GPIOE, ENABLE);
     41a:	fef44703          	lbu	a4,-17(s0)
     41e:	4791                	li	a5,4
     420:	00f71863          	bne	a4,a5,430 <gpio_init+0xb2>
D:/projects/mechanical_arm/Firmware/ArmMainControler/libraries/zf_driver/zf_driver_gpio.c:95 (discriminator 1)
     424:	4585                	li	a1,1
     426:	04000513          	li	a0,64
     42a:	042030ef          	jal	ra,346c <RCC_APB2PeriphClockCmd>
     42e:	a035                	j	45a <gpio_init+0xdc>
D:/projects/mechanical_arm/Firmware/ArmMainControler/libraries/zf_driver/zf_driver_gpio.c:96
    else if(5 == io_group) RCC_APB2PeriphClockCmd(RCC_APB2Periph_GPIOF, ENABLE);
     430:	fef44703          	lbu	a4,-17(s0)
     434:	4795                	li	a5,5
     436:	00f71863          	bne	a4,a5,446 <gpio_init+0xc8>
D:/projects/mechanical_arm/Firmware/ArmMainControler/libraries/zf_driver/zf_driver_gpio.c:96 (discriminator 1)
     43a:	4585                	li	a1,1
     43c:	08000513          	li	a0,128
     440:	02c030ef          	jal	ra,346c <RCC_APB2PeriphClockCmd>
     444:	a819                	j	45a <gpio_init+0xdc>
D:/projects/mechanical_arm/Firmware/ArmMainControler/libraries/zf_driver/zf_driver_gpio.c:97
    else if(6 == io_group) RCC_APB2PeriphClockCmd(RCC_APB2Periph_GPIOG, ENABLE);
     446:	fef44703          	lbu	a4,-17(s0)
     44a:	4799                	li	a5,6
     44c:	00f71763          	bne	a4,a5,45a <gpio_init+0xdc>
D:/projects/mechanical_arm/Firmware/ArmMainControler/libraries/zf_driver/zf_driver_gpio.c:97 (discriminator 1)
     450:	4585                	li	a1,1
     452:	10000513          	li	a0,256
     456:	016030ef          	jal	ra,346c <RCC_APB2PeriphClockCmd>
D:/projects/mechanical_arm/Firmware/ArmMainControler/libraries/zf_driver/zf_driver_gpio.c:100

    //  设置引脚号
    GPIO_InitStructure.GPIO_Pin = (uint16)(1 << io_pin);
     45a:	fee44783          	lbu	a5,-18(s0)
     45e:	4705                	li	a4,1
     460:	00f717b3          	sll	a5,a4,a5
     464:	07c2                	slli	a5,a5,0x10
     466:	83c1                	srli	a5,a5,0x10
     468:	fef41023          	sh	a5,-32(s0)
D:/projects/mechanical_arm/Firmware/ArmMainControler/libraries/zf_driver/zf_driver_gpio.c:103

    //  只有输出需要设置速度
    if(GPO == gpio_dir)
     46c:	fd842703          	lw	a4,-40(s0)
     470:	4785                	li	a5,1
     472:	02f71763          	bne	a4,a5,4a0 <gpio_init+0x122>
D:/projects/mechanical_arm/Firmware/ArmMainControler/libraries/zf_driver/zf_driver_gpio.c:105
    {
        if((uint16)pinconf >> 8 == 0) GPIO_InitStructure.GPIO_Speed = (GPIOSpeed_TypeDef)(GPIO_Speed_50MHz);            //防止没有填写这个参数,默认设置50Mhz
     476:	fd042783          	lw	a5,-48(s0)
     47a:	07c2                	slli	a5,a5,0x10
     47c:	83c1                	srli	a5,a5,0x10
     47e:	83a1                	srli	a5,a5,0x8
     480:	07c2                	slli	a5,a5,0x10
     482:	83c1                	srli	a5,a5,0x10
     484:	e789                	bnez	a5,48e <gpio_init+0x110>
D:/projects/mechanical_arm/Firmware/ArmMainControler/libraries/zf_driver/zf_driver_gpio.c:105 (discriminator 1)
     486:	478d                	li	a5,3
     488:	fef42223          	sw	a5,-28(s0)
     48c:	a811                	j	4a0 <gpio_init+0x122>
D:/projects/mechanical_arm/Firmware/ArmMainControler/libraries/zf_driver/zf_driver_gpio.c:106
        else GPIO_InitStructure.GPIO_Speed = (gpio_speed_enum)((uint16)pinconf >> 8);         //已经填写了该参数。根据值来设置
     48e:	fd042783          	lw	a5,-48(s0)
     492:	07c2                	slli	a5,a5,0x10
     494:	83c1                	srli	a5,a5,0x10
     496:	83a1                	srli	a5,a5,0x8
     498:	07c2                	slli	a5,a5,0x10
     49a:	83c1                	srli	a5,a5,0x10
     49c:	fef42223          	sw	a5,-28(s0)
D:/projects/mechanical_arm/Firmware/ArmMainControler/libraries/zf_driver/zf_driver_gpio.c:110
    }

    //  设置模式
    GPIO_InitStructure.GPIO_Mode = (GPIOMode_TypeDef)((uint16)pinconf & 0xFF);
     4a0:	fd042783          	lw	a5,-48(s0)
     4a4:	07c2                	slli	a5,a5,0x10
     4a6:	83c1                	srli	a5,a5,0x10
     4a8:	0ff7f793          	andi	a5,a5,255
     4ac:	fef42423          	sw	a5,-24(s0)
D:/projects/mechanical_arm/Firmware/ArmMainControler/libraries/zf_driver/zf_driver_gpio.c:111
    GPIO_Init((GPIO_TypeDef*)gpio_group[io_group], &GPIO_InitStructure);
     4b0:	fef44703          	lbu	a4,-17(s0)
     4b4:	67a9                	lui	a5,0xa
     4b6:	070a                	slli	a4,a4,0x2
     4b8:	84078793          	addi	a5,a5,-1984 # 9840 <gpio_group>
     4bc:	97ba                	add	a5,a5,a4
     4be:	439c                	lw	a5,0(a5)
     4c0:	873e                	mv	a4,a5
     4c2:	fe040793          	addi	a5,s0,-32
     4c6:	85be                	mv	a1,a5
     4c8:	853a                	mv	a0,a4
     4ca:	13f020ef          	jal	ra,2e08 <GPIO_Init>
D:/projects/mechanical_arm/Firmware/ArmMainControler/libraries/zf_driver/zf_driver_gpio.c:114

    //  只有输出需要设置引脚状态
    if(GPO == gpio_dir)
     4ce:	fd842703          	lw	a4,-40(s0)
     4d2:	4785                	li	a5,1
     4d4:	02f71c63          	bne	a4,a5,50c <gpio_init+0x18e>
D:/projects/mechanical_arm/Firmware/ArmMainControler/libraries/zf_driver/zf_driver_gpio.c:116
    {
        GPIO_WriteBit((GPIO_TypeDef*)gpio_group[io_group], (uint16)(1 << io_pin), dat);
     4d8:	fef44703          	lbu	a4,-17(s0)
     4dc:	67a9                	lui	a5,0xa
     4de:	070a                	slli	a4,a4,0x2
     4e0:	84078793          	addi	a5,a5,-1984 # 9840 <gpio_group>
     4e4:	97ba                	add	a5,a5,a4
     4e6:	439c                	lw	a5,0(a5)
     4e8:	86be                	mv	a3,a5
     4ea:	fee44783          	lbu	a5,-18(s0)
     4ee:	4705                	li	a4,1
     4f0:	00f717b3          	sll	a5,a4,a5
     4f4:	07c2                	slli	a5,a5,0x10
     4f6:	83c1                	srli	a5,a5,0x10
     4f8:	fd442603          	lw	a2,-44(s0)
     4fc:	85be                	mv	a1,a5
     4fe:	8536                	mv	a0,a3
     500:	333020ef          	jal	ra,3032 <GPIO_WriteBit>
     504:	a021                	j	50c <gpio_init+0x18e>
D:/projects/mechanical_arm/Firmware/ArmMainControler/libraries/zf_driver/zf_driver_gpio.c:87
    if(PIN_NULL == gpio_pin) return;
     506:	0001                	nop
     508:	a011                	j	50c <gpio_init+0x18e>
D:/projects/mechanical_arm/Firmware/ArmMainControler/libraries/zf_driver/zf_driver_gpio.c:88
    if(SPI_CS_NULL == gpio_pin) return;
     50a:	0001                	nop
D:/projects/mechanical_arm/Firmware/ArmMainControler/libraries/zf_driver/zf_driver_gpio.c:118
    }
}
     50c:	50b2                	lw	ra,44(sp)
     50e:	5422                	lw	s0,40(sp)
     510:	6145                	addi	sp,sp,48
     512:	8082                	ret

00000514 <spi_gpio_init>:
spi_gpio_init():
D:/projects/mechanical_arm/Firmware/ArmMainControler/libraries/zf_driver/zf_driver_spi.c:35
//  @param      cs_pin      片选引脚(可选择范围由common.h内PIN_enum枚举值确定)
//  @return     void
//  Sample usage:           内部使用  用户无需关心
//-------------------------------------------------------------------------------------------------------------------
void spi_gpio_init(spi_pin_enum sck_pin, spi_pin_enum mosi_pin, spi_pin_enum miso_pin, gpio_pin_enum cs_pin)
{
     514:	1101                	addi	sp,sp,-32
     516:	ce06                	sw	ra,28(sp)
     518:	cc22                	sw	s0,24(sp)
     51a:	1000                	addi	s0,sp,32
     51c:	fea42623          	sw	a0,-20(s0)
     520:	feb42423          	sw	a1,-24(s0)
     524:	fec42223          	sw	a2,-28(s0)
     528:	fed42023          	sw	a3,-32(s0)
D:/projects/mechanical_arm/Firmware/ArmMainControler/libraries/zf_driver/zf_driver_spi.c:36
    if(SPI1_SCK_A5        == sck_pin)    gpio_init(A5,  GPO, 1, SPEED_50MHZ|GPO_AF_PUSH_PULL);
     52c:	fec42783          	lw	a5,-20(s0)
     530:	eb81                	bnez	a5,540 <spi_gpio_init+0x2c>
D:/projects/mechanical_arm/Firmware/ArmMainControler/libraries/zf_driver/zf_driver_spi.c:36 (discriminator 1)
     532:	31800693          	li	a3,792
     536:	4605                	li	a2,1
     538:	4585                	li	a1,1
     53a:	4515                	li	a0,5
     53c:	3589                	jal	37e <gpio_init>
     53e:	a041                	j	5be <spi_gpio_init+0xaa>
D:/projects/mechanical_arm/Firmware/ArmMainControler/libraries/zf_driver/zf_driver_spi.c:37
    else if(SPI1_SCK_B3   == sck_pin)    gpio_init(B3,  GPO, 1, SPEED_50MHZ|GPO_AF_PUSH_PULL);
     540:	fec42703          	lw	a4,-20(s0)
     544:	47c1                	li	a5,16
     546:	00f71a63          	bne	a4,a5,55a <spi_gpio_init+0x46>
D:/projects/mechanical_arm/Firmware/ArmMainControler/libraries/zf_driver/zf_driver_spi.c:37 (discriminator 1)
     54a:	31800693          	li	a3,792
     54e:	4605                	li	a2,1
     550:	4585                	li	a1,1
     552:	02300513          	li	a0,35
     556:	3525                	jal	37e <gpio_init>
     558:	a09d                	j	5be <spi_gpio_init+0xaa>
D:/projects/mechanical_arm/Firmware/ArmMainControler/libraries/zf_driver/zf_driver_spi.c:38
    else if(SPI2_SCK_B13  == sck_pin)    gpio_init(B13, GPO, 1, SPEED_50MHZ|GPO_AF_PUSH_PULL);
     55a:	fec42703          	lw	a4,-20(s0)
     55e:	02000793          	li	a5,32
     562:	00f71a63          	bne	a4,a5,576 <spi_gpio_init+0x62>
D:/projects/mechanical_arm/Firmware/ArmMainControler/libraries/zf_driver/zf_driver_spi.c:38 (discriminator 1)
     566:	31800693          	li	a3,792
     56a:	4605                	li	a2,1
     56c:	4585                	li	a1,1
     56e:	02d00513          	li	a0,45
     572:	3531                	jal	37e <gpio_init>
     574:	a0a9                	j	5be <spi_gpio_init+0xaa>
D:/projects/mechanical_arm/Firmware/ArmMainControler/libraries/zf_driver/zf_driver_spi.c:39
    else if(SPI3_SCK_B3   == sck_pin)    gpio_init(B3,  GPO, 1, SPEED_50MHZ|GPO_AF_PUSH_PULL);
     576:	fec42703          	lw	a4,-20(s0)
     57a:	03000793          	li	a5,48
     57e:	00f71a63          	bne	a4,a5,592 <spi_gpio_init+0x7e>
D:/projects/mechanical_arm/Firmware/ArmMainControler/libraries/zf_driver/zf_driver_spi.c:39 (discriminator 1)
     582:	31800693          	li	a3,792
     586:	4605                	li	a2,1
     588:	4585                	li	a1,1
     58a:	02300513          	li	a0,35
     58e:	3bc5                	jal	37e <gpio_init>
     590:	a03d                	j	5be <spi_gpio_init+0xaa>
D:/projects/mechanical_arm/Firmware/ArmMainControler/libraries/zf_driver/zf_driver_spi.c:40
    else if(SPI3_SCK_C10  == sck_pin)    gpio_init(C10, GPO, 1, SPEED_50MHZ|GPO_AF_PUSH_PULL);
     592:	fec42703          	lw	a4,-20(s0)
     596:	04000793          	li	a5,64
     59a:	00f71a63          	bne	a4,a5,5ae <spi_gpio_init+0x9a>
D:/projects/mechanical_arm/Firmware/ArmMainControler/libraries/zf_driver/zf_driver_spi.c:40 (discriminator 1)
     59e:	31800693          	li	a3,792
     5a2:	4605                	li	a2,1
     5a4:	4585                	li	a1,1
     5a6:	04a00513          	li	a0,74
     5aa:	3bd1                	jal	37e <gpio_init>
     5ac:	a809                	j	5be <spi_gpio_init+0xaa>
D:/projects/mechanical_arm/Firmware/ArmMainControler/libraries/zf_driver/zf_driver_spi.c:41
    else zf_assert(0);         //无此参数进入断言
     5ae:	02900613          	li	a2,41
     5b2:	67a5                	lui	a5,0x9
     5b4:	6f478593          	addi	a1,a5,1780 # 96f4 <_sbrk+0x22>
     5b8:	4501                	li	a0,0
     5ba:	2a3010ef          	jal	ra,205c <debug_assert_handler>
D:/projects/mechanical_arm/Firmware/ArmMainControler/libraries/zf_driver/zf_driver_spi.c:43

    if(SPI1_MOSI_A7       == mosi_pin)   gpio_init(A7,  GPO, 1, SPEED_50MHZ|GPO_AF_PUSH_PULL);
     5be:	fe842703          	lw	a4,-24(s0)
     5c2:	4789                	li	a5,2
     5c4:	00f71963          	bne	a4,a5,5d6 <spi_gpio_init+0xc2>
D:/projects/mechanical_arm/Firmware/ArmMainControler/libraries/zf_driver/zf_driver_spi.c:43 (discriminator 1)
     5c8:	31800693          	li	a3,792
     5cc:	4605                	li	a2,1
     5ce:	4585                	li	a1,1
     5d0:	451d                	li	a0,7
     5d2:	3375                	jal	37e <gpio_init>
     5d4:	a041                	j	654 <spi_gpio_init+0x140>
D:/projects/mechanical_arm/Firmware/ArmMainControler/libraries/zf_driver/zf_driver_spi.c:44
    else if(SPI1_MOSI_B5  == mosi_pin)   gpio_init(B5,  GPO, 1, SPEED_50MHZ|GPO_AF_PUSH_PULL);
     5d6:	fe842703          	lw	a4,-24(s0)
     5da:	47c9                	li	a5,18
     5dc:	00f71a63          	bne	a4,a5,5f0 <spi_gpio_init+0xdc>
D:/projects/mechanical_arm/Firmware/ArmMainControler/libraries/zf_driver/zf_driver_spi.c:44 (discriminator 1)
     5e0:	31800693          	li	a3,792
     5e4:	4605                	li	a2,1
     5e6:	4585                	li	a1,1
     5e8:	02500513          	li	a0,37
     5ec:	3b49                	jal	37e <gpio_init>
     5ee:	a09d                	j	654 <spi_gpio_init+0x140>
D:/projects/mechanical_arm/Firmware/ArmMainControler/libraries/zf_driver/zf_driver_spi.c:45
    else if(SPI2_MOSI_B15 == mosi_pin)   gpio_init(B15, GPO, 1, SPEED_50MHZ|GPO_AF_PUSH_PULL);
     5f0:	fe842703          	lw	a4,-24(s0)
     5f4:	02200793          	li	a5,34
     5f8:	00f71a63          	bne	a4,a5,60c <spi_gpio_init+0xf8>
D:/projects/mechanical_arm/Firmware/ArmMainControler/libraries/zf_driver/zf_driver_spi.c:45 (discriminator 1)
     5fc:	31800693          	li	a3,792
     600:	4605                	li	a2,1
     602:	4585                	li	a1,1
     604:	02f00513          	li	a0,47
     608:	3b9d                	jal	37e <gpio_init>
     60a:	a0a9                	j	654 <spi_gpio_init+0x140>
D:/projects/mechanical_arm/Firmware/ArmMainControler/libraries/zf_driver/zf_driver_spi.c:46
    else if(SPI3_MOSI_B5  == mosi_pin)   gpio_init(B5,  GPO, 1, SPEED_50MHZ|GPO_AF_PUSH_PULL);
     60c:	fe842703          	lw	a4,-24(s0)
     610:	03200793          	li	a5,50
     614:	00f71a63          	bne	a4,a5,628 <spi_gpio_init+0x114>
D:/projects/mechanical_arm/Firmware/ArmMainControler/libraries/zf_driver/zf_driver_spi.c:46 (discriminator 1)
     618:	31800693          	li	a3,792
     61c:	4605                	li	a2,1
     61e:	4585                	li	a1,1
     620:	02500513          	li	a0,37
     624:	3ba9                	jal	37e <gpio_init>
     626:	a03d                	j	654 <spi_gpio_init+0x140>
D:/projects/mechanical_arm/Firmware/ArmMainControler/libraries/zf_driver/zf_driver_spi.c:47
    else if(SPI3_MOSI_C12 == mosi_pin)   gpio_init(C12, GPO, 1, SPEED_50MHZ|GPO_AF_PUSH_PULL);
     628:	fe842703          	lw	a4,-24(s0)
     62c:	04200793          	li	a5,66
     630:	00f71a63          	bne	a4,a5,644 <spi_gpio_init+0x130>
D:/projects/mechanical_arm/Firmware/ArmMainControler/libraries/zf_driver/zf_driver_spi.c:47 (discriminator 1)
     634:	31800693          	li	a3,792
     638:	4605                	li	a2,1
     63a:	4585                	li	a1,1
     63c:	04c00513          	li	a0,76
     640:	3b3d                	jal	37e <gpio_init>
     642:	a809                	j	654 <spi_gpio_init+0x140>
D:/projects/mechanical_arm/Firmware/ArmMainControler/libraries/zf_driver/zf_driver_spi.c:48
    else zf_assert(0);         //无此参数进入断言
     644:	03000613          	li	a2,48
     648:	67a5                	lui	a5,0x9
     64a:	6f478593          	addi	a1,a5,1780 # 96f4 <_sbrk+0x22>
     64e:	4501                	li	a0,0
     650:	20d010ef          	jal	ra,205c <debug_assert_handler>
D:/projects/mechanical_arm/Firmware/ArmMainControler/libraries/zf_driver/zf_driver_spi.c:50

    if(SPI1_MISO_A6       == miso_pin)   gpio_init(A6,  GPI, 1, SPEED_50MHZ|GPI_FLOATING_IN);
     654:	fe442703          	lw	a4,-28(s0)
     658:	4785                	li	a5,1
     65a:	00f71963          	bne	a4,a5,66c <spi_gpio_init+0x158>
D:/projects/mechanical_arm/Firmware/ArmMainControler/libraries/zf_driver/zf_driver_spi.c:50 (discriminator 1)
     65e:	30400693          	li	a3,772
     662:	4605                	li	a2,1
     664:	4581                	li	a1,0
     666:	4519                	li	a0,6
     668:	3b19                	jal	37e <gpio_init>
     66a:	a859                	j	700 <spi_gpio_init+0x1ec>
D:/projects/mechanical_arm/Firmware/ArmMainControler/libraries/zf_driver/zf_driver_spi.c:51
    else if(SPI1_MISO_B4  == miso_pin)   gpio_init(B4,  GPI, 1, SPEED_50MHZ|GPI_FLOATING_IN);
     66c:	fe442703          	lw	a4,-28(s0)
     670:	47c5                	li	a5,17
     672:	00f71a63          	bne	a4,a5,686 <spi_gpio_init+0x172>
D:/projects/mechanical_arm/Firmware/ArmMainControler/libraries/zf_driver/zf_driver_spi.c:51 (discriminator 1)
     676:	30400693          	li	a3,772
     67a:	4605                	li	a2,1
     67c:	4581                	li	a1,0
     67e:	02400513          	li	a0,36
     682:	39f5                	jal	37e <gpio_init>
     684:	a8b5                	j	700 <spi_gpio_init+0x1ec>
D:/projects/mechanical_arm/Firmware/ArmMainControler/libraries/zf_driver/zf_driver_spi.c:52
    else if(SPI2_MISO_B14 == miso_pin)   gpio_init(B14, GPI, 1, SPEED_50MHZ|GPI_FLOATING_IN);
     686:	fe442703          	lw	a4,-28(s0)
     68a:	02100793          	li	a5,33
     68e:	00f71a63          	bne	a4,a5,6a2 <spi_gpio_init+0x18e>
D:/projects/mechanical_arm/Firmware/ArmMainControler/libraries/zf_driver/zf_driver_spi.c:52 (discriminator 1)
     692:	30400693          	li	a3,772
     696:	4605                	li	a2,1
     698:	4581                	li	a1,0
     69a:	02e00513          	li	a0,46
     69e:	31c5                	jal	37e <gpio_init>
     6a0:	a085                	j	700 <spi_gpio_init+0x1ec>
D:/projects/mechanical_arm/Firmware/ArmMainControler/libraries/zf_driver/zf_driver_spi.c:53
    else if(SPI3_MISO_C11 == miso_pin)   gpio_init(C11, GPI, 1, SPEED_50MHZ|GPI_FLOATING_IN);
     6a2:	fe442703          	lw	a4,-28(s0)
     6a6:	04100793          	li	a5,65
     6aa:	00f71a63          	bne	a4,a5,6be <spi_gpio_init+0x1aa>
D:/projects/mechanical_arm/Firmware/ArmMainControler/libraries/zf_driver/zf_driver_spi.c:53 (discriminator 1)
     6ae:	30400693          	li	a3,772
     6b2:	4605                	li	a2,1
     6b4:	4581                	li	a1,0
     6b6:	04b00513          	li	a0,75
     6ba:	31d1                	jal	37e <gpio_init>
     6bc:	a091                	j	700 <spi_gpio_init+0x1ec>
D:/projects/mechanical_arm/Firmware/ArmMainControler/libraries/zf_driver/zf_driver_spi.c:54
    else if(SPI3_MISO_B4  == miso_pin)   gpio_init(B4,  GPI, 1, SPEED_50MHZ|GPI_FLOATING_IN);
     6be:	fe442703          	lw	a4,-28(s0)
     6c2:	03100793          	li	a5,49
     6c6:	00f71a63          	bne	a4,a5,6da <spi_gpio_init+0x1c6>
D:/projects/mechanical_arm/Firmware/ArmMainControler/libraries/zf_driver/zf_driver_spi.c:54 (discriminator 1)
     6ca:	30400693          	li	a3,772
     6ce:	4605                	li	a2,1
     6d0:	4581                	li	a1,0
     6d2:	02400513          	li	a0,36
     6d6:	3165                	jal	37e <gpio_init>
     6d8:	a025                	j	700 <spi_gpio_init+0x1ec>
D:/projects/mechanical_arm/Firmware/ArmMainControler/libraries/zf_driver/zf_driver_spi.c:55
    else if(SPI_MISO_NULL == miso_pin)   miso_pin = SPI_MISO_NULL;
     6da:	fe442703          	lw	a4,-28(s0)
     6de:	0ff00793          	li	a5,255
     6e2:	00f71763          	bne	a4,a5,6f0 <spi_gpio_init+0x1dc>
D:/projects/mechanical_arm/Firmware/ArmMainControler/libraries/zf_driver/zf_driver_spi.c:55 (discriminator 1)
     6e6:	0ff00793          	li	a5,255
     6ea:	fef42223          	sw	a5,-28(s0)
     6ee:	a809                	j	700 <spi_gpio_init+0x1ec>
D:/projects/mechanical_arm/Firmware/ArmMainControler/libraries/zf_driver/zf_driver_spi.c:56
    else  zf_assert(0);         //无此参数进入断言
     6f0:	03800613          	li	a2,56
     6f4:	67a5                	lui	a5,0x9
     6f6:	6f478593          	addi	a1,a5,1780 # 96f4 <_sbrk+0x22>
     6fa:	4501                	li	a0,0
     6fc:	161010ef          	jal	ra,205c <debug_assert_handler>
D:/projects/mechanical_arm/Firmware/ArmMainControler/libraries/zf_driver/zf_driver_spi.c:59

    //初始化CS引脚
    gpio_init(cs_pin, GPO, 0, SPEED_50MHZ|GPO_PUSH_PULL);
     700:	31000693          	li	a3,784
     704:	4601                	li	a2,0
     706:	4585                	li	a1,1
     708:	fe042503          	lw	a0,-32(s0)
     70c:	398d                	jal	37e <gpio_init>
D:/projects/mechanical_arm/Firmware/ArmMainControler/libraries/zf_driver/zf_driver_spi.c:61

}
     70e:	0001                	nop
     710:	40f2                	lw	ra,28(sp)
     712:	4462                	lw	s0,24(sp)
     714:	6105                	addi	sp,sp,32
     716:	8082                	ret

00000718 <spi_init>:
spi_init():
D:/projects/mechanical_arm/Firmware/ArmMainControler/libraries/zf_driver/zf_driver_spi.c:76
// @param       cs_pin          选择 CS 引脚 参照 zf_driver_gpio.h 内 gpio_pin_enum 枚举体定义
// @return      void
// Sample usage:                spi_init(SPI_1, 0, 1*1000*1000, SPI1_SCK_A5, SPI1_MOSI_A7, SPI1_MISO_A6, A4);  //硬件SPI初始化  模式0 波特率为1Mhz
//-------------------------------------------------------------------------------------------------------------------
void spi_init(spi_index_enum spi_n, spi_mode_enum mode, uint32 baud, spi_pin_enum sck_pin, spi_pin_enum mosi_pin, spi_pin_enum miso_pin, gpio_pin_enum cs_pin)
{
     718:	715d                	addi	sp,sp,-80
     71a:	c686                	sw	ra,76(sp)
     71c:	c4a2                	sw	s0,72(sp)
     71e:	0880                	addi	s0,sp,80
     720:	fca42623          	sw	a0,-52(s0)
     724:	fcb42423          	sw	a1,-56(s0)
     728:	fcc42223          	sw	a2,-60(s0)
     72c:	fcd42023          	sw	a3,-64(s0)
     730:	fae42e23          	sw	a4,-68(s0)
     734:	faf42c23          	sw	a5,-72(s0)
     738:	fb042a23          	sw	a6,-76(s0)
D:/projects/mechanical_arm/Firmware/ArmMainControler/libraries/zf_driver/zf_driver_spi.c:77
    uint16 psc = 0;
     73c:	fe041723          	sh	zero,-18(s0)
D:/projects/mechanical_arm/Firmware/ArmMainControler/libraries/zf_driver/zf_driver_spi.c:88
//    {
//        assert(0);
//        return;
//    }

    SPI_I2S_DeInit((SPI_TypeDef *)(spi_index[spi_n]));
     740:	67a9                	lui	a5,0xa
     742:	fcc42703          	lw	a4,-52(s0)
     746:	070a                	slli	a4,a4,0x2
     748:	85478793          	addi	a5,a5,-1964 # 9854 <spi_index>
     74c:	97ba                	add	a5,a5,a4
     74e:	439c                	lw	a5,0(a5)
     750:	853e                	mv	a0,a5
     752:	633020ef          	jal	ra,3584 <SPI_I2S_DeInit>
D:/projects/mechanical_arm/Firmware/ArmMainControler/libraries/zf_driver/zf_driver_spi.c:90

    RCC_APB2PeriphClockCmd(RCC_APB2Periph_AFIO, ENABLE);                                           // 复用总线使能
     756:	4585                	li	a1,1
     758:	4505                	li	a0,1
     75a:	513020ef          	jal	ra,346c <RCC_APB2PeriphClockCmd>
D:/projects/mechanical_arm/Firmware/ArmMainControler/libraries/zf_driver/zf_driver_spi.c:92

    if(sck_pin == SPI1_SCK_B3 && mosi_pin == SPI1_MOSI_B5 && miso_pin == SPI1_MISO_B4)
     75e:	fc042703          	lw	a4,-64(s0)
     762:	47c1                	li	a5,16
     764:	02f71163          	bne	a4,a5,786 <spi_init+0x6e>
D:/projects/mechanical_arm/Firmware/ArmMainControler/libraries/zf_driver/zf_driver_spi.c:92 (discriminator 1)
     768:	fbc42703          	lw	a4,-68(s0)
     76c:	47c9                	li	a5,18
     76e:	00f71c63          	bne	a4,a5,786 <spi_init+0x6e>
D:/projects/mechanical_arm/Firmware/ArmMainControler/libraries/zf_driver/zf_driver_spi.c:92 (discriminator 2)
     772:	fb842703          	lw	a4,-72(s0)
     776:	47c5                	li	a5,17
     778:	00f71763          	bne	a4,a5,786 <spi_init+0x6e>
D:/projects/mechanical_arm/Firmware/ArmMainControler/libraries/zf_driver/zf_driver_spi.c:93
        GPIO_PinRemapConfig(GPIO_Remap_SPI1, ENABLE);
     77c:	4585                	li	a1,1
     77e:	4505                	li	a0,1
     780:	0eb020ef          	jal	ra,306a <GPIO_PinRemapConfig>
     784:	a815                	j	7b8 <spi_init+0xa0>
D:/projects/mechanical_arm/Firmware/ArmMainControler/libraries/zf_driver/zf_driver_spi.c:94
    else if(sck_pin == SPI3_SCK_C10 && mosi_pin == SPI3_MOSI_C12 && miso_pin == SPI3_MISO_C11)
     786:	fc042703          	lw	a4,-64(s0)
     78a:	04000793          	li	a5,64
     78e:	02f71563          	bne	a4,a5,7b8 <spi_init+0xa0>
D:/projects/mechanical_arm/Firmware/ArmMainControler/libraries/zf_driver/zf_driver_spi.c:94 (discriminator 1)
     792:	fbc42703          	lw	a4,-68(s0)
     796:	04200793          	li	a5,66
     79a:	00f71f63          	bne	a4,a5,7b8 <spi_init+0xa0>
D:/projects/mechanical_arm/Firmware/ArmMainControler/libraries/zf_driver/zf_driver_spi.c:94 (discriminator 2)
     79e:	fb842703          	lw	a4,-72(s0)
     7a2:	04100793          	li	a5,65
     7a6:	00f71963          	bne	a4,a5,7b8 <spi_init+0xa0>
D:/projects/mechanical_arm/Firmware/ArmMainControler/libraries/zf_driver/zf_driver_spi.c:95
        GPIO_PinRemapConfig(GPIO_Remap_SPI3, ENABLE);
     7aa:	4585                	li	a1,1
     7ac:	002017b7          	lui	a5,0x201
     7b0:	10078513          	addi	a0,a5,256 # 201100 <_data_lma+0x1f6c84>
     7b4:	0b7020ef          	jal	ra,306a <GPIO_PinRemapConfig>
D:/projects/mechanical_arm/Firmware/ArmMainControler/libraries/zf_driver/zf_driver_spi.c:98


         if(SPI_1 == spi_n)   RCC_APB2PeriphClockCmd(RCC_APB2Periph_SPI1, ENABLE);                // SPI1时钟使能
     7b8:	fcc42783          	lw	a5,-52(s0)
     7bc:	e791                	bnez	a5,7c8 <spi_init+0xb0>
D:/projects/mechanical_arm/Firmware/ArmMainControler/libraries/zf_driver/zf_driver_spi.c:98 (discriminator 1)
     7be:	4585                	li	a1,1
     7c0:	6505                	lui	a0,0x1
     7c2:	4ab020ef          	jal	ra,346c <RCC_APB2PeriphClockCmd>
     7c6:	a025                	j	7ee <spi_init+0xd6>
D:/projects/mechanical_arm/Firmware/ArmMainControler/libraries/zf_driver/zf_driver_spi.c:99
    else if(SPI_2 == spi_n)   RCC_APB1PeriphClockCmd(RCC_APB1Periph_SPI2, ENABLE);                // SPI2时钟使能
     7c8:	fcc42703          	lw	a4,-52(s0)
     7cc:	4785                	li	a5,1
     7ce:	00f71763          	bne	a4,a5,7dc <spi_init+0xc4>
D:/projects/mechanical_arm/Firmware/ArmMainControler/libraries/zf_driver/zf_driver_spi.c:99 (discriminator 1)
     7d2:	4585                	li	a1,1
     7d4:	6511                	lui	a0,0x4
     7d6:	4dd020ef          	jal	ra,34b2 <RCC_APB1PeriphClockCmd>
     7da:	a811                	j	7ee <spi_init+0xd6>
D:/projects/mechanical_arm/Firmware/ArmMainControler/libraries/zf_driver/zf_driver_spi.c:100
    else if(SPI_3 == spi_n)   RCC_APB1PeriphClockCmd(RCC_APB1Periph_SPI3, ENABLE);                // SPI3时钟使能
     7dc:	fcc42703          	lw	a4,-52(s0)
     7e0:	4789                	li	a5,2
     7e2:	00f71663          	bne	a4,a5,7ee <spi_init+0xd6>
D:/projects/mechanical_arm/Firmware/ArmMainControler/libraries/zf_driver/zf_driver_spi.c:100 (discriminator 1)
     7e6:	4585                	li	a1,1
     7e8:	6521                	lui	a0,0x8
     7ea:	4c9020ef          	jal	ra,34b2 <RCC_APB1PeriphClockCmd>
D:/projects/mechanical_arm/Firmware/ArmMainControler/libraries/zf_driver/zf_driver_spi.c:101
    spi_gpio_init(sck_pin, mosi_pin, miso_pin, cs_pin);
     7ee:	fb442683          	lw	a3,-76(s0)
     7f2:	fb842603          	lw	a2,-72(s0)
     7f6:	fbc42583          	lw	a1,-68(s0)
     7fa:	fc042503          	lw	a0,-64(s0)
     7fe:	3b19                	jal	514 <spi_gpio_init>
D:/projects/mechanical_arm/Firmware/ArmMainControler/libraries/zf_driver/zf_driver_spi.c:104


    SPI_InitStructure.SPI_Direction = SPI_Direction_2Lines_FullDuplex;      // SPI设置为双线双向全双工
     800:	fc041e23          	sh	zero,-36(s0)
D:/projects/mechanical_arm/Firmware/ArmMainControler/libraries/zf_driver/zf_driver_spi.c:105
    SPI_InitStructure.SPI_Mode = SPI_Mode_Master;                           // 设置SPI工作模式:设置为主SPI
     804:	10400793          	li	a5,260
     808:	fcf41f23          	sh	a5,-34(s0)
D:/projects/mechanical_arm/Firmware/ArmMainControler/libraries/zf_driver/zf_driver_spi.c:106
    SPI_InitStructure.SPI_DataSize = SPI_DataSize_8b;                       // 设置SPI的数据大小:SPI发送接收8位帧结构
     80c:	fe041023          	sh	zero,-32(s0)
     810:	fc842703          	lw	a4,-56(s0)
     814:	4785                	li	a5,1
     816:	02f70563          	beq	a4,a5,840 <__stack_size+0x40>
     81a:	fc842783          	lw	a5,-56(s0)
     81e:	cf81                	beqz	a5,836 <__stack_size+0x36>
     820:	fc842703          	lw	a4,-56(s0)
     824:	4789                	li	a5,2
     826:	02f70363          	beq	a4,a5,84c <__stack_size+0x4c>
     82a:	fc842703          	lw	a4,-56(s0)
     82e:	478d                	li	a5,3
     830:	02f70463          	beq	a4,a5,858 <__stack_size+0x58>
     834:	a80d                	j	866 <__stack_size+0x66>
D:/projects/mechanical_arm/Firmware/ArmMainControler/libraries/zf_driver/zf_driver_spi.c:112

    switch(mode)
    {
        case SPI_MODE0:
        {
            SPI_InitStructure.SPI_CPOL = SPI_CPOL_Low;                      // 串行同步时钟的空闲状态为低电平
     836:	fe041123          	sh	zero,-30(s0)
D:/projects/mechanical_arm/Firmware/ArmMainControler/libraries/zf_driver/zf_driver_spi.c:113
            SPI_InitStructure.SPI_CPHA = SPI_CPHA_1Edge;                    // 串行同步时钟的第一个跳变沿（上升或下降）数据被采样
     83a:	fe041223          	sh	zero,-28(s0)
D:/projects/mechanical_arm/Firmware/ArmMainControler/libraries/zf_driver/zf_driver_spi.c:114
        }break;
     83e:	a025                	j	866 <__stack_size+0x66>
D:/projects/mechanical_arm/Firmware/ArmMainControler/libraries/zf_driver/zf_driver_spi.c:117
        case SPI_MODE1:
        {
            SPI_InitStructure.SPI_CPOL = SPI_CPOL_Low;                      // 串行同步时钟的空闲状态为低电平
     840:	fe041123          	sh	zero,-30(s0)
D:/projects/mechanical_arm/Firmware/ArmMainControler/libraries/zf_driver/zf_driver_spi.c:118
            SPI_InitStructure.SPI_CPHA = SPI_CPHA_2Edge;                    // 串行同步时钟的第二个跳变沿（上升或下降）数据被采样
     844:	4785                	li	a5,1
     846:	fef41223          	sh	a5,-28(s0)
D:/projects/mechanical_arm/Firmware/ArmMainControler/libraries/zf_driver/zf_driver_spi.c:119
        }break;
     84a:	a831                	j	866 <__stack_size+0x66>
D:/projects/mechanical_arm/Firmware/ArmMainControler/libraries/zf_driver/zf_driver_spi.c:122
        case SPI_MODE2:
        {
            SPI_InitStructure.SPI_CPOL = SPI_CPOL_High;                     // 串行同步时钟的空闲状态为高电平
     84c:	4789                	li	a5,2
     84e:	fef41123          	sh	a5,-30(s0)
D:/projects/mechanical_arm/Firmware/ArmMainControler/libraries/zf_driver/zf_driver_spi.c:123
            SPI_InitStructure.SPI_CPHA = SPI_CPHA_1Edge;                    // 串行同步时钟的第一个跳变沿（上升或下降）数据被采样
     852:	fe041223          	sh	zero,-28(s0)
D:/projects/mechanical_arm/Firmware/ArmMainControler/libraries/zf_driver/zf_driver_spi.c:124
        }break;
     856:	a801                	j	866 <__stack_size+0x66>
D:/projects/mechanical_arm/Firmware/ArmMainControler/libraries/zf_driver/zf_driver_spi.c:127
        case SPI_MODE3:
        {
            SPI_InitStructure.SPI_CPOL = SPI_CPOL_High;                     // 串行同步时钟的空闲状态为高电平
     858:	4789                	li	a5,2
     85a:	fef41123          	sh	a5,-30(s0)
D:/projects/mechanical_arm/Firmware/ArmMainControler/libraries/zf_driver/zf_driver_spi.c:128
            SPI_InitStructure.SPI_CPHA = SPI_CPHA_2Edge;                    // 串行同步时钟的第二个跳变沿（上升或下降）数据被采样
     85e:	4785                	li	a5,1
     860:	fef41223          	sh	a5,-28(s0)
D:/projects/mechanical_arm/Firmware/ArmMainControler/libraries/zf_driver/zf_driver_spi.c:129
        }break;
     864:	0001                	nop
D:/projects/mechanical_arm/Firmware/ArmMainControler/libraries/zf_driver/zf_driver_spi.c:132
    }

    psc = system_clock / baud;                                              // 计算分频值
     866:	8541a703          	lw	a4,-1964(gp) # 20000274 <system_clock>
     86a:	fc442783          	lw	a5,-60(s0)
     86e:	02f757b3          	divu	a5,a4,a5
     872:	fef41723          	sh	a5,-18(s0)
D:/projects/mechanical_arm/Firmware/ArmMainControler/libraries/zf_driver/zf_driver_spi.c:133
         if(psc >= 256) psc = SPI_BaudRatePrescaler_256;                    // 计算最佳分频值
     876:	fee45703          	lhu	a4,-18(s0)
     87a:	0ff00793          	li	a5,255
     87e:	00e7f763          	bgeu	a5,a4,88c <__stack_size+0x8c>
D:/projects/mechanical_arm/Firmware/ArmMainControler/libraries/zf_driver/zf_driver_spi.c:133 (discriminator 1)
     882:	03800793          	li	a5,56
     886:	fef41723          	sh	a5,-18(s0)
     88a:	a861                	j	922 <__stack_size+0x122>
D:/projects/mechanical_arm/Firmware/ArmMainControler/libraries/zf_driver/zf_driver_spi.c:134
    else if(psc >= 128) psc = SPI_BaudRatePrescaler_128;
     88c:	fee45703          	lhu	a4,-18(s0)
     890:	07f00793          	li	a5,127
     894:	00e7f763          	bgeu	a5,a4,8a2 <__stack_size+0xa2>
D:/projects/mechanical_arm/Firmware/ArmMainControler/libraries/zf_driver/zf_driver_spi.c:134 (discriminator 1)
     898:	03000793          	li	a5,48
     89c:	fef41723          	sh	a5,-18(s0)
     8a0:	a049                	j	922 <__stack_size+0x122>
D:/projects/mechanical_arm/Firmware/ArmMainControler/libraries/zf_driver/zf_driver_spi.c:135
    else if(psc >= 64)  psc = SPI_BaudRatePrescaler_64;
     8a2:	fee45703          	lhu	a4,-18(s0)
     8a6:	03f00793          	li	a5,63
     8aa:	00e7f763          	bgeu	a5,a4,8b8 <__stack_size+0xb8>
D:/projects/mechanical_arm/Firmware/ArmMainControler/libraries/zf_driver/zf_driver_spi.c:135 (discriminator 1)
     8ae:	02800793          	li	a5,40
     8b2:	fef41723          	sh	a5,-18(s0)
     8b6:	a0b5                	j	922 <__stack_size+0x122>
D:/projects/mechanical_arm/Firmware/ArmMainControler/libraries/zf_driver/zf_driver_spi.c:136
    else if(psc >= 32)  psc = SPI_BaudRatePrescaler_32;
     8b8:	fee45703          	lhu	a4,-18(s0)
     8bc:	47fd                	li	a5,31
     8be:	00e7f763          	bgeu	a5,a4,8cc <__stack_size+0xcc>
D:/projects/mechanical_arm/Firmware/ArmMainControler/libraries/zf_driver/zf_driver_spi.c:136 (discriminator 1)
     8c2:	02000793          	li	a5,32
     8c6:	fef41723          	sh	a5,-18(s0)
     8ca:	a8a1                	j	922 <__stack_size+0x122>
D:/projects/mechanical_arm/Firmware/ArmMainControler/libraries/zf_driver/zf_driver_spi.c:137
    else if(psc >= 16)  psc = SPI_BaudRatePrescaler_16;
     8cc:	fee45703          	lhu	a4,-18(s0)
     8d0:	47bd                	li	a5,15
     8d2:	00e7f663          	bgeu	a5,a4,8de <__stack_size+0xde>
D:/projects/mechanical_arm/Firmware/ArmMainControler/libraries/zf_driver/zf_driver_spi.c:137 (discriminator 1)
     8d6:	47e1                	li	a5,24
     8d8:	fef41723          	sh	a5,-18(s0)
     8dc:	a099                	j	922 <__stack_size+0x122>
D:/projects/mechanical_arm/Firmware/ArmMainControler/libraries/zf_driver/zf_driver_spi.c:138
    else if(psc >= 8)   psc = SPI_BaudRatePrescaler_8;
     8de:	fee45703          	lhu	a4,-18(s0)
     8e2:	479d                	li	a5,7
     8e4:	00e7f663          	bgeu	a5,a4,8f0 <__stack_size+0xf0>
D:/projects/mechanical_arm/Firmware/ArmMainControler/libraries/zf_driver/zf_driver_spi.c:138 (discriminator 1)
     8e8:	47c1                	li	a5,16
     8ea:	fef41723          	sh	a5,-18(s0)
     8ee:	a815                	j	922 <__stack_size+0x122>
D:/projects/mechanical_arm/Firmware/ArmMainControler/libraries/zf_driver/zf_driver_spi.c:139
    else if(psc >= 4)   psc = SPI_BaudRatePrescaler_4;
     8f0:	fee45703          	lhu	a4,-18(s0)
     8f4:	478d                	li	a5,3
     8f6:	00e7f663          	bgeu	a5,a4,902 <__stack_size+0x102>
D:/projects/mechanical_arm/Firmware/ArmMainControler/libraries/zf_driver/zf_driver_spi.c:139 (discriminator 1)
     8fa:	47a1                	li	a5,8
     8fc:	fef41723          	sh	a5,-18(s0)
     900:	a00d                	j	922 <__stack_size+0x122>
D:/projects/mechanical_arm/Firmware/ArmMainControler/libraries/zf_driver/zf_driver_spi.c:140
    else if(psc >= 2)   psc = SPI_BaudRatePrescaler_2;
     902:	fee45703          	lhu	a4,-18(s0)
     906:	4785                	li	a5,1
     908:	00e7f563          	bgeu	a5,a4,912 <__stack_size+0x112>
D:/projects/mechanical_arm/Firmware/ArmMainControler/libraries/zf_driver/zf_driver_spi.c:140 (discriminator 1)
     90c:	fe041723          	sh	zero,-18(s0)
     910:	a809                	j	922 <__stack_size+0x122>
D:/projects/mechanical_arm/Firmware/ArmMainControler/libraries/zf_driver/zf_driver_spi.c:141
    else zf_assert(0);
     912:	08d00613          	li	a2,141
     916:	67a5                	lui	a5,0x9
     918:	6f478593          	addi	a1,a5,1780 # 96f4 <_sbrk+0x22>
     91c:	4501                	li	a0,0
     91e:	73e010ef          	jal	ra,205c <debug_assert_handler>
D:/projects/mechanical_arm/Firmware/ArmMainControler/libraries/zf_driver/zf_driver_spi.c:142
    SPI_InitStructure.SPI_BaudRatePrescaler = psc;                          // 定义波特率预分频的值
     922:	fee45783          	lhu	a5,-18(s0)
     926:	fef41423          	sh	a5,-24(s0)
D:/projects/mechanical_arm/Firmware/ArmMainControler/libraries/zf_driver/zf_driver_spi.c:143
    SPI_InitStructure.SPI_NSS = SPI_NSS_Soft;                               // 主机模式，使用软件控制NSS引脚
     92a:	20000793          	li	a5,512
     92e:	fef41323          	sh	a5,-26(s0)
D:/projects/mechanical_arm/Firmware/ArmMainControler/libraries/zf_driver/zf_driver_spi.c:144
    SPI_InitStructure.SPI_FirstBit = SPI_FirstBit_MSB;                      // 指定数据传输从MSB位还是LSB位开始:数据传输从MSB位开始
     932:	fe041523          	sh	zero,-22(s0)
D:/projects/mechanical_arm/Firmware/ArmMainControler/libraries/zf_driver/zf_driver_spi.c:145
    SPI_InitStructure.SPI_CRCPolynomial = 7;                                // CRC值计算的多项式
     936:	479d                	li	a5,7
     938:	fef41623          	sh	a5,-20(s0)
D:/projects/mechanical_arm/Firmware/ArmMainControler/libraries/zf_driver/zf_driver_spi.c:146
    SPI_Init((SPI_TypeDef *)(spi_index[spi_n]), &SPI_InitStructure);        // 根据SPI_InitStruct中指定的参数初始化外设SPIx寄存器
     93c:	67a9                	lui	a5,0xa
     93e:	fcc42703          	lw	a4,-52(s0)
     942:	070a                	slli	a4,a4,0x2
     944:	85478793          	addi	a5,a5,-1964 # 9854 <spi_index>
     948:	97ba                	add	a5,a5,a4
     94a:	439c                	lw	a5,0(a5)
     94c:	873e                	mv	a4,a5
     94e:	fdc40793          	addi	a5,s0,-36
     952:	85be                	mv	a1,a5
     954:	853a                	mv	a0,a4
     956:	4a5020ef          	jal	ra,35fa <SPI_Init>
D:/projects/mechanical_arm/Firmware/ArmMainControler/libraries/zf_driver/zf_driver_spi.c:149


    SPI_Cmd(((SPI_TypeDef *)(spi_index[spi_n])), ENABLE);                   // 使能SPI外设
     95a:	67a9                	lui	a5,0xa
     95c:	fcc42703          	lw	a4,-52(s0)
     960:	070a                	slli	a4,a4,0x2
     962:	85478793          	addi	a5,a5,-1964 # 9854 <spi_index>
     966:	97ba                	add	a5,a5,a4
     968:	439c                	lw	a5,0(a5)
     96a:	4585                	li	a1,1
     96c:	853e                	mv	a0,a5
     96e:	585020ef          	jal	ra,36f2 <SPI_Cmd>
D:/projects/mechanical_arm/Firmware/ArmMainControler/libraries/zf_driver/zf_driver_spi.c:150
}
     972:	0001                	nop
     974:	40b6                	lw	ra,76(sp)
     976:	4426                	lw	s0,72(sp)
     978:	6161                	addi	sp,sp,80
     97a:	8082                	ret

0000097c <spi_write_8bit>:
spi_write_8bit():
D:/projects/mechanical_arm/Firmware/ArmMainControler/libraries/zf_driver/zf_driver_spi.c:161
// @param       data            数据
// @return      void
// Sample usage:                spi_write_8bit(SPI_1,0x11);
//-------------------------------------------------------------------------------------------------------------------
void spi_write_8bit (spi_index_enum spi_n, uint8 dat)
{
     97c:	1101                	addi	sp,sp,-32
     97e:	ce22                	sw	s0,28(sp)
     980:	1000                	addi	s0,sp,32
     982:	fea42623          	sw	a0,-20(s0)
     986:	87ae                	mv	a5,a1
     988:	fef405a3          	sb	a5,-21(s0)
D:/projects/mechanical_arm/Firmware/ArmMainControler/libraries/zf_driver/zf_driver_spi.c:162
    ((SPI_TypeDef *)(spi_index[spi_n]))->DATAR = dat;                                  // 发送数据
     98c:	67a9                	lui	a5,0xa
     98e:	fec42703          	lw	a4,-20(s0)
     992:	070a                	slli	a4,a4,0x2
     994:	85478793          	addi	a5,a5,-1964 # 9854 <spi_index>
     998:	97ba                	add	a5,a5,a4
     99a:	439c                	lw	a5,0(a5)
     99c:	873e                	mv	a4,a5
     99e:	feb44783          	lbu	a5,-21(s0)
     9a2:	07c2                	slli	a5,a5,0x10
     9a4:	83c1                	srli	a5,a5,0x10
     9a6:	00f71623          	sh	a5,12(a4)
D:/projects/mechanical_arm/Firmware/ArmMainControler/libraries/zf_driver/zf_driver_spi.c:163
    while((((SPI_TypeDef *)(spi_index[spi_n]))->STATR & SPI_I2S_FLAG_BSY) != RESET);    // 发送为空
     9aa:	0001                	nop
D:/projects/mechanical_arm/Firmware/ArmMainControler/libraries/zf_driver/zf_driver_spi.c:163 (discriminator 1)
     9ac:	67a9                	lui	a5,0xa
     9ae:	fec42703          	lw	a4,-20(s0)
     9b2:	070a                	slli	a4,a4,0x2
     9b4:	85478793          	addi	a5,a5,-1964 # 9854 <spi_index>
     9b8:	97ba                	add	a5,a5,a4
     9ba:	439c                	lw	a5,0(a5)
     9bc:	0087d783          	lhu	a5,8(a5)
     9c0:	07c2                	slli	a5,a5,0x10
     9c2:	83c1                	srli	a5,a5,0x10
     9c4:	0807f793          	andi	a5,a5,128
     9c8:	f3f5                	bnez	a5,9ac <spi_write_8bit+0x30>
D:/projects/mechanical_arm/Firmware/ArmMainControler/libraries/zf_driver/zf_driver_spi.c:164
}
     9ca:	0001                	nop
     9cc:	4472                	lw	s0,28(sp)
     9ce:	6105                	addi	sp,sp,32
     9d0:	8082                	ret

000009d2 <spi_write_16bit>:
spi_write_16bit():
D:/projects/mechanical_arm/Firmware/ArmMainControler/libraries/zf_driver/zf_driver_spi.c:191
// @param       data            数据
// @return      void
// Sample usage:                spi_write_16bit(SPI_1,0x1101);
//-------------------------------------------------------------------------------------------------------------------
void spi_write_16bit (spi_index_enum spi_n, uint16 dat)
{
     9d2:	1101                	addi	sp,sp,-32
     9d4:	ce22                	sw	s0,28(sp)
     9d6:	1000                	addi	s0,sp,32
     9d8:	fea42623          	sw	a0,-20(s0)
     9dc:	87ae                	mv	a5,a1
     9de:	fef41523          	sh	a5,-22(s0)
D:/projects/mechanical_arm/Firmware/ArmMainControler/libraries/zf_driver/zf_driver_spi.c:192
    ((SPI_TypeDef *)(spi_index[spi_n]))->DATAR = (uint8)((dat & 0xFF00)>>8);
     9e2:	fea45783          	lhu	a5,-22(s0)
     9e6:	83a1                	srli	a5,a5,0x8
     9e8:	07c2                	slli	a5,a5,0x10
     9ea:	83c1                	srli	a5,a5,0x10
     9ec:	0ff7f693          	andi	a3,a5,255
     9f0:	67a9                	lui	a5,0xa
     9f2:	fec42703          	lw	a4,-20(s0)
     9f6:	070a                	slli	a4,a4,0x2
     9f8:	85478793          	addi	a5,a5,-1964 # 9854 <spi_index>
     9fc:	97ba                	add	a5,a5,a4
     9fe:	439c                	lw	a5,0(a5)
     a00:	873e                	mv	a4,a5
     a02:	01069793          	slli	a5,a3,0x10
     a06:	83c1                	srli	a5,a5,0x10
     a08:	00f71623          	sh	a5,12(a4)
D:/projects/mechanical_arm/Firmware/ArmMainControler/libraries/zf_driver/zf_driver_spi.c:193
    while((((SPI_TypeDef *)(spi_index[spi_n]))->STATR & SPI_I2S_FLAG_BSY) != RESET);
     a0c:	0001                	nop
D:/projects/mechanical_arm/Firmware/ArmMainControler/libraries/zf_driver/zf_driver_spi.c:193 (discriminator 1)
     a0e:	67a9                	lui	a5,0xa
     a10:	fec42703          	lw	a4,-20(s0)
     a14:	070a                	slli	a4,a4,0x2
     a16:	85478793          	addi	a5,a5,-1964 # 9854 <spi_index>
     a1a:	97ba                	add	a5,a5,a4
     a1c:	439c                	lw	a5,0(a5)
     a1e:	0087d783          	lhu	a5,8(a5)
     a22:	07c2                	slli	a5,a5,0x10
     a24:	83c1                	srli	a5,a5,0x10
     a26:	0807f793          	andi	a5,a5,128
     a2a:	f3f5                	bnez	a5,a0e <spi_write_16bit+0x3c>
D:/projects/mechanical_arm/Firmware/ArmMainControler/libraries/zf_driver/zf_driver_spi.c:195

    ((SPI_TypeDef *)(spi_index[spi_n]))->DATAR = (uint8)(dat & 0x00FF);
     a2c:	fea45783          	lhu	a5,-22(s0)
     a30:	0ff7f693          	andi	a3,a5,255
     a34:	67a9                	lui	a5,0xa
     a36:	fec42703          	lw	a4,-20(s0)
     a3a:	070a                	slli	a4,a4,0x2
     a3c:	85478793          	addi	a5,a5,-1964 # 9854 <spi_index>
     a40:	97ba                	add	a5,a5,a4
     a42:	439c                	lw	a5,0(a5)
     a44:	873e                	mv	a4,a5
     a46:	01069793          	slli	a5,a3,0x10
     a4a:	83c1                	srli	a5,a5,0x10
     a4c:	00f71623          	sh	a5,12(a4)
D:/projects/mechanical_arm/Firmware/ArmMainControler/libraries/zf_driver/zf_driver_spi.c:196
    while((((SPI_TypeDef *)(spi_index[spi_n]))->STATR & SPI_I2S_FLAG_BSY) != RESET);
     a50:	0001                	nop
D:/projects/mechanical_arm/Firmware/ArmMainControler/libraries/zf_driver/zf_driver_spi.c:196 (discriminator 1)
     a52:	67a9                	lui	a5,0xa
     a54:	fec42703          	lw	a4,-20(s0)
     a58:	070a                	slli	a4,a4,0x2
     a5a:	85478793          	addi	a5,a5,-1964 # 9854 <spi_index>
     a5e:	97ba                	add	a5,a5,a4
     a60:	439c                	lw	a5,0(a5)
     a62:	0087d783          	lhu	a5,8(a5)
     a66:	07c2                	slli	a5,a5,0x10
     a68:	83c1                	srli	a5,a5,0x10
     a6a:	0807f793          	andi	a5,a5,128
     a6e:	f3f5                	bnez	a5,a52 <spi_write_16bit+0x80>
D:/projects/mechanical_arm/Firmware/ArmMainControler/libraries/zf_driver/zf_driver_spi.c:197
}
     a70:	0001                	nop
     a72:	4472                	lw	s0,28(sp)
     a74:	6105                	addi	sp,sp,32
     a76:	8082                	ret

00000a78 <uart_gpio_init>:
uart_gpio_init():
D:/projects/mechanical_arm/Firmware/ArmMainControler/libraries/zf_driver/zf_driver_uart.c:40
//  @param      rx_pin      串口接收引脚号
//  @return     void
//  Sample usage:           内部使用，用户无需关心
//-------------------------------------------------------------------------------------------------------------------
void uart_gpio_init(uart_pin_enum tx_pin, uart_pin_enum rx_pin)
{
     a78:	1101                	addi	sp,sp,-32
     a7a:	ce06                	sw	ra,28(sp)
     a7c:	cc22                	sw	s0,24(sp)
     a7e:	1000                	addi	s0,sp,32
     a80:	fea42623          	sw	a0,-20(s0)
     a84:	feb42423          	sw	a1,-24(s0)
D:/projects/mechanical_arm/Firmware/ArmMainControler/libraries/zf_driver/zf_driver_uart.c:41
    if     (tx_pin == UART1_TX_A9 )     gpio_init(A9,  GPO, 0, GPO_AF_PUSH_PULL);
     a88:	fec42783          	lw	a5,-20(s0)
     a8c:	e799                	bnez	a5,a9a <uart_gpio_init+0x22>
D:/projects/mechanical_arm/Firmware/ArmMainControler/libraries/zf_driver/zf_driver_uart.c:41 (discriminator 1)
     a8e:	46e1                	li	a3,24
     a90:	4601                	li	a2,0
     a92:	4585                	li	a1,1
     a94:	4525                	li	a0,9
     a96:	30e5                	jal	37e <gpio_init>
     a98:	aac9                	j	c6a <uart_gpio_init+0x1f2>
D:/projects/mechanical_arm/Firmware/ArmMainControler/libraries/zf_driver/zf_driver_uart.c:42
    else if(tx_pin == UART1_TX_B6 )     gpio_init(B6,  GPO, 0, GPO_AF_PUSH_PULL);
     a9a:	fec42703          	lw	a4,-20(s0)
     a9e:	4789                	li	a5,2
     aa0:	00f71a63          	bne	a4,a5,ab4 <uart_gpio_init+0x3c>
D:/projects/mechanical_arm/Firmware/ArmMainControler/libraries/zf_driver/zf_driver_uart.c:42 (discriminator 1)
     aa4:	46e1                	li	a3,24
     aa6:	4601                	li	a2,0
     aa8:	4585                	li	a1,1
     aaa:	02600513          	li	a0,38
     aae:	8d1ff0ef          	jal	ra,37e <gpio_init>
     ab2:	aa65                	j	c6a <uart_gpio_init+0x1f2>
D:/projects/mechanical_arm/Firmware/ArmMainControler/libraries/zf_driver/zf_driver_uart.c:43
    else if(tx_pin == UART2_TX_A2 )     gpio_init(A2,  GPO, 0, GPO_AF_PUSH_PULL);
     ab4:	fec42703          	lw	a4,-20(s0)
     ab8:	47c1                	li	a5,16
     aba:	00f71963          	bne	a4,a5,acc <uart_gpio_init+0x54>
D:/projects/mechanical_arm/Firmware/ArmMainControler/libraries/zf_driver/zf_driver_uart.c:43 (discriminator 1)
     abe:	46e1                	li	a3,24
     ac0:	4601                	li	a2,0
     ac2:	4585                	li	a1,1
     ac4:	4509                	li	a0,2
     ac6:	8b9ff0ef          	jal	ra,37e <gpio_init>
     aca:	a245                	j	c6a <uart_gpio_init+0x1f2>
D:/projects/mechanical_arm/Firmware/ArmMainControler/libraries/zf_driver/zf_driver_uart.c:44
    else if(tx_pin == UART2_TX_D5 )     gpio_init(D5,  GPO, 0, GPO_AF_PUSH_PULL);
     acc:	fec42703          	lw	a4,-20(s0)
     ad0:	47c9                	li	a5,18
     ad2:	00f71a63          	bne	a4,a5,ae6 <uart_gpio_init+0x6e>
D:/projects/mechanical_arm/Firmware/ArmMainControler/libraries/zf_driver/zf_driver_uart.c:44 (discriminator 1)
     ad6:	46e1                	li	a3,24
     ad8:	4601                	li	a2,0
     ada:	4585                	li	a1,1
     adc:	06500513          	li	a0,101
     ae0:	89fff0ef          	jal	ra,37e <gpio_init>
     ae4:	a259                	j	c6a <uart_gpio_init+0x1f2>
D:/projects/mechanical_arm/Firmware/ArmMainControler/libraries/zf_driver/zf_driver_uart.c:45
    else if(tx_pin == UART3_TX_B10)     gpio_init(B10, GPO, 0, GPO_AF_PUSH_PULL);
     ae6:	fec42703          	lw	a4,-20(s0)
     aea:	02000793          	li	a5,32
     aee:	00f71a63          	bne	a4,a5,b02 <uart_gpio_init+0x8a>
D:/projects/mechanical_arm/Firmware/ArmMainControler/libraries/zf_driver/zf_driver_uart.c:45 (discriminator 1)
     af2:	46e1                	li	a3,24
     af4:	4601                	li	a2,0
     af6:	4585                	li	a1,1
     af8:	02a00513          	li	a0,42
     afc:	883ff0ef          	jal	ra,37e <gpio_init>
     b00:	a2ad                	j	c6a <uart_gpio_init+0x1f2>
D:/projects/mechanical_arm/Firmware/ArmMainControler/libraries/zf_driver/zf_driver_uart.c:46
    else if(tx_pin == UART3_TX_C10)     gpio_init(C10, GPO, 0, GPO_AF_PUSH_PULL);
     b02:	fec42703          	lw	a4,-20(s0)
     b06:	02200793          	li	a5,34
     b0a:	00f71a63          	bne	a4,a5,b1e <uart_gpio_init+0xa6>
D:/projects/mechanical_arm/Firmware/ArmMainControler/libraries/zf_driver/zf_driver_uart.c:46 (discriminator 1)
     b0e:	46e1                	li	a3,24
     b10:	4601                	li	a2,0
     b12:	4585                	li	a1,1
     b14:	04a00513          	li	a0,74
     b18:	867ff0ef          	jal	ra,37e <gpio_init>
     b1c:	a2b9                	j	c6a <uart_gpio_init+0x1f2>
D:/projects/mechanical_arm/Firmware/ArmMainControler/libraries/zf_driver/zf_driver_uart.c:47
    else if(tx_pin == UART3_TX_D8 )     gpio_init(D8,  GPO, 0, GPO_AF_PUSH_PULL);
     b1e:	fec42703          	lw	a4,-20(s0)
     b22:	02400793          	li	a5,36
     b26:	00f71a63          	bne	a4,a5,b3a <uart_gpio_init+0xc2>
D:/projects/mechanical_arm/Firmware/ArmMainControler/libraries/zf_driver/zf_driver_uart.c:47 (discriminator 1)
     b2a:	46e1                	li	a3,24
     b2c:	4601                	li	a2,0
     b2e:	4585                	li	a1,1
     b30:	06800513          	li	a0,104
     b34:	84bff0ef          	jal	ra,37e <gpio_init>
     b38:	aa0d                	j	c6a <uart_gpio_init+0x1f2>
D:/projects/mechanical_arm/Firmware/ArmMainControler/libraries/zf_driver/zf_driver_uart.c:48
    else if(tx_pin == UART4_TX_C10)     gpio_init(C10, GPO, 0, GPO_AF_PUSH_PULL);
     b3a:	fec42703          	lw	a4,-20(s0)
     b3e:	04000793          	li	a5,64
     b42:	00f71a63          	bne	a4,a5,b56 <uart_gpio_init+0xde>
D:/projects/mechanical_arm/Firmware/ArmMainControler/libraries/zf_driver/zf_driver_uart.c:48 (discriminator 1)
     b46:	46e1                	li	a3,24
     b48:	4601                	li	a2,0
     b4a:	4585                	li	a1,1
     b4c:	04a00513          	li	a0,74
     b50:	82fff0ef          	jal	ra,37e <gpio_init>
     b54:	aa19                	j	c6a <uart_gpio_init+0x1f2>
D:/projects/mechanical_arm/Firmware/ArmMainControler/libraries/zf_driver/zf_driver_uart.c:49
    else if(tx_pin == UART4_TX_B0)      gpio_init(B0, GPO, 0, GPO_AF_PUSH_PULL);
     b56:	fec42703          	lw	a4,-20(s0)
     b5a:	04200793          	li	a5,66
     b5e:	00f71a63          	bne	a4,a5,b72 <uart_gpio_init+0xfa>
D:/projects/mechanical_arm/Firmware/ArmMainControler/libraries/zf_driver/zf_driver_uart.c:49 (discriminator 1)
     b62:	46e1                	li	a3,24
     b64:	4601                	li	a2,0
     b66:	4585                	li	a1,1
     b68:	02000513          	li	a0,32
     b6c:	813ff0ef          	jal	ra,37e <gpio_init>
     b70:	a8ed                	j	c6a <uart_gpio_init+0x1f2>
D:/projects/mechanical_arm/Firmware/ArmMainControler/libraries/zf_driver/zf_driver_uart.c:50
    else if(tx_pin == UART5_TX_C12)     gpio_init(C12, GPO, 0, GPO_AF_PUSH_PULL);
     b72:	fec42703          	lw	a4,-20(s0)
     b76:	05000793          	li	a5,80
     b7a:	00f71a63          	bne	a4,a5,b8e <uart_gpio_init+0x116>
D:/projects/mechanical_arm/Firmware/ArmMainControler/libraries/zf_driver/zf_driver_uart.c:50 (discriminator 1)
     b7e:	46e1                	li	a3,24
     b80:	4601                	li	a2,0
     b82:	4585                	li	a1,1
     b84:	04c00513          	li	a0,76
     b88:	ff6ff0ef          	jal	ra,37e <gpio_init>
     b8c:	a8f9                	j	c6a <uart_gpio_init+0x1f2>
D:/projects/mechanical_arm/Firmware/ArmMainControler/libraries/zf_driver/zf_driver_uart.c:51
    else if(tx_pin == UART5_TX_E8)      gpio_init(E8, GPO, 0, GPO_AF_PUSH_PULL);
     b8e:	fec42703          	lw	a4,-20(s0)
     b92:	05200793          	li	a5,82
     b96:	00f71a63          	bne	a4,a5,baa <uart_gpio_init+0x132>
D:/projects/mechanical_arm/Firmware/ArmMainControler/libraries/zf_driver/zf_driver_uart.c:51 (discriminator 1)
     b9a:	46e1                	li	a3,24
     b9c:	4601                	li	a2,0
     b9e:	4585                	li	a1,1
     ba0:	08800513          	li	a0,136
     ba4:	fdaff0ef          	jal	ra,37e <gpio_init>
     ba8:	a0c9                	j	c6a <uart_gpio_init+0x1f2>
D:/projects/mechanical_arm/Firmware/ArmMainControler/libraries/zf_driver/zf_driver_uart.c:52
    else if(tx_pin == UART6_TX_C0 )     gpio_init(C0,  GPO, 0, GPO_AF_PUSH_PULL);
     baa:	fec42703          	lw	a4,-20(s0)
     bae:	06000793          	li	a5,96
     bb2:	00f71a63          	bne	a4,a5,bc6 <uart_gpio_init+0x14e>
D:/projects/mechanical_arm/Firmware/ArmMainControler/libraries/zf_driver/zf_driver_uart.c:52 (discriminator 1)
     bb6:	46e1                	li	a3,24
     bb8:	4601                	li	a2,0
     bba:	4585                	li	a1,1
     bbc:	04000513          	li	a0,64
     bc0:	fbeff0ef          	jal	ra,37e <gpio_init>
     bc4:	a05d                	j	c6a <uart_gpio_init+0x1f2>
D:/projects/mechanical_arm/Firmware/ArmMainControler/libraries/zf_driver/zf_driver_uart.c:53
    else if(tx_pin == UART6_TX_E10 )    gpio_init(C0,  GPO, 0, GPO_AF_PUSH_PULL);
     bc6:	fec42703          	lw	a4,-20(s0)
     bca:	06200793          	li	a5,98
     bce:	00f71a63          	bne	a4,a5,be2 <uart_gpio_init+0x16a>
D:/projects/mechanical_arm/Firmware/ArmMainControler/libraries/zf_driver/zf_driver_uart.c:53 (discriminator 1)
     bd2:	46e1                	li	a3,24
     bd4:	4601                	li	a2,0
     bd6:	4585                	li	a1,1
     bd8:	04000513          	li	a0,64
     bdc:	fa2ff0ef          	jal	ra,37e <gpio_init>
     be0:	a069                	j	c6a <uart_gpio_init+0x1f2>
D:/projects/mechanical_arm/Firmware/ArmMainControler/libraries/zf_driver/zf_driver_uart.c:54
    else if(tx_pin == UART7_TX_C2 )     gpio_init(C2,  GPO, 0, GPO_AF_PUSH_PULL);
     be2:	fec42703          	lw	a4,-20(s0)
     be6:	07000793          	li	a5,112
     bea:	00f71a63          	bne	a4,a5,bfe <uart_gpio_init+0x186>
D:/projects/mechanical_arm/Firmware/ArmMainControler/libraries/zf_driver/zf_driver_uart.c:54 (discriminator 1)
     bee:	46e1                	li	a3,24
     bf0:	4601                	li	a2,0
     bf2:	4585                	li	a1,1
     bf4:	04200513          	li	a0,66
     bf8:	f86ff0ef          	jal	ra,37e <gpio_init>
     bfc:	a0bd                	j	c6a <uart_gpio_init+0x1f2>
D:/projects/mechanical_arm/Firmware/ArmMainControler/libraries/zf_driver/zf_driver_uart.c:55
    else if(tx_pin == UART7_TX_A6 )     gpio_init(A6,  GPO, 0, GPO_AF_PUSH_PULL);
     bfe:	fec42703          	lw	a4,-20(s0)
     c02:	07200793          	li	a5,114
     c06:	00f71963          	bne	a4,a5,c18 <uart_gpio_init+0x1a0>
D:/projects/mechanical_arm/Firmware/ArmMainControler/libraries/zf_driver/zf_driver_uart.c:55 (discriminator 1)
     c0a:	46e1                	li	a3,24
     c0c:	4601                	li	a2,0
     c0e:	4585                	li	a1,1
     c10:	4519                	li	a0,6
     c12:	f6cff0ef          	jal	ra,37e <gpio_init>
     c16:	a891                	j	c6a <uart_gpio_init+0x1f2>
D:/projects/mechanical_arm/Firmware/ArmMainControler/libraries/zf_driver/zf_driver_uart.c:56
    else if(tx_pin == UART7_TX_E12 )    gpio_init(E12,  GPO, 0, GPO_AF_PUSH_PULL);
     c18:	fec42703          	lw	a4,-20(s0)
     c1c:	07400793          	li	a5,116
     c20:	00f71a63          	bne	a4,a5,c34 <uart_gpio_init+0x1bc>
D:/projects/mechanical_arm/Firmware/ArmMainControler/libraries/zf_driver/zf_driver_uart.c:56 (discriminator 1)
     c24:	46e1                	li	a3,24
     c26:	4601                	li	a2,0
     c28:	4585                	li	a1,1
     c2a:	08c00513          	li	a0,140
     c2e:	f50ff0ef          	jal	ra,37e <gpio_init>
     c32:	a825                	j	c6a <uart_gpio_init+0x1f2>
D:/projects/mechanical_arm/Firmware/ArmMainControler/libraries/zf_driver/zf_driver_uart.c:57
    else if(tx_pin == UART8_TX_C4 )     gpio_init(C4,  GPO, 0, GPO_AF_PUSH_PULL);
     c34:	fec42703          	lw	a4,-20(s0)
     c38:	08000793          	li	a5,128
     c3c:	00f71a63          	bne	a4,a5,c50 <uart_gpio_init+0x1d8>
D:/projects/mechanical_arm/Firmware/ArmMainControler/libraries/zf_driver/zf_driver_uart.c:57 (discriminator 1)
     c40:	46e1                	li	a3,24
     c42:	4601                	li	a2,0
     c44:	4585                	li	a1,1
     c46:	04400513          	li	a0,68
     c4a:	f34ff0ef          	jal	ra,37e <gpio_init>
     c4e:	a831                	j	c6a <uart_gpio_init+0x1f2>
D:/projects/mechanical_arm/Firmware/ArmMainControler/libraries/zf_driver/zf_driver_uart.c:58
    else if(tx_pin == UART8_TX_E14 )    gpio_init(E14,  GPO, 0, GPO_AF_PUSH_PULL);
     c50:	fec42703          	lw	a4,-20(s0)
     c54:	08200793          	li	a5,130
     c58:	00f71963          	bne	a4,a5,c6a <uart_gpio_init+0x1f2>
D:/projects/mechanical_arm/Firmware/ArmMainControler/libraries/zf_driver/zf_driver_uart.c:58 (discriminator 1)
     c5c:	46e1                	li	a3,24
     c5e:	4601                	li	a2,0
     c60:	4585                	li	a1,1
     c62:	08e00513          	li	a0,142
     c66:	f18ff0ef          	jal	ra,37e <gpio_init>
D:/projects/mechanical_arm/Firmware/ArmMainControler/libraries/zf_driver/zf_driver_uart.c:60

    if     (rx_pin == UART1_RX_A10)     gpio_init(A10, GPI, 0, GPI_PULL_UP);
     c6a:	fe842703          	lw	a4,-24(s0)
     c6e:	4785                	li	a5,1
     c70:	00f71a63          	bne	a4,a5,c84 <uart_gpio_init+0x20c>
D:/projects/mechanical_arm/Firmware/ArmMainControler/libraries/zf_driver/zf_driver_uart.c:60 (discriminator 1)
     c74:	04800693          	li	a3,72
     c78:	4601                	li	a2,0
     c7a:	4581                	li	a1,0
     c7c:	4529                	li	a0,10
     c7e:	f00ff0ef          	jal	ra,37e <gpio_init>
D:/projects/mechanical_arm/Firmware/ArmMainControler/libraries/zf_driver/zf_driver_uart.c:78 (discriminator 1)
    else if(rx_pin == UART7_RX_C3 )     gpio_init(C3,  GPI, 0, GPI_PULL_UP);
    else if(rx_pin == UART7_RX_A7 )     gpio_init(A7,  GPI, 0, GPI_PULL_UP);
    else if(rx_pin == UART7_RX_E13 )    gpio_init(E13,  GPI, 0, GPI_PULL_UP);
    else if(rx_pin == UART8_RX_C5 )     gpio_init(C5,  GPI, 0, GPI_PULL_UP);
    else if(rx_pin == UART8_RX_E15 )    gpio_init(E15,  GPI, 0, GPI_PULL_UP);
}
     c82:	aad5                	j	e76 <uart_gpio_init+0x3fe>
D:/projects/mechanical_arm/Firmware/ArmMainControler/libraries/zf_driver/zf_driver_uart.c:61
    else if(rx_pin == UART1_RX_B7 )     gpio_init(B7,  GPI, 0, GPI_PULL_UP);
     c84:	fe842703          	lw	a4,-24(s0)
     c88:	478d                	li	a5,3
     c8a:	00f71b63          	bne	a4,a5,ca0 <uart_gpio_init+0x228>
D:/projects/mechanical_arm/Firmware/ArmMainControler/libraries/zf_driver/zf_driver_uart.c:61 (discriminator 1)
     c8e:	04800693          	li	a3,72
     c92:	4601                	li	a2,0
     c94:	4581                	li	a1,0
     c96:	02700513          	li	a0,39
     c9a:	ee4ff0ef          	jal	ra,37e <gpio_init>
D:/projects/mechanical_arm/Firmware/ArmMainControler/libraries/zf_driver/zf_driver_uart.c:78 (discriminator 1)
}
     c9e:	aae1                	j	e76 <uart_gpio_init+0x3fe>
D:/projects/mechanical_arm/Firmware/ArmMainControler/libraries/zf_driver/zf_driver_uart.c:62
    else if(rx_pin == UART2_RX_A3 )     gpio_init(A3,  GPI, 0, GPI_PULL_UP);
     ca0:	fe842703          	lw	a4,-24(s0)
     ca4:	47c5                	li	a5,17
     ca6:	00f71a63          	bne	a4,a5,cba <uart_gpio_init+0x242>
D:/projects/mechanical_arm/Firmware/ArmMainControler/libraries/zf_driver/zf_driver_uart.c:62 (discriminator 1)
     caa:	04800693          	li	a3,72
     cae:	4601                	li	a2,0
     cb0:	4581                	li	a1,0
     cb2:	450d                	li	a0,3
     cb4:	ecaff0ef          	jal	ra,37e <gpio_init>
D:/projects/mechanical_arm/Firmware/ArmMainControler/libraries/zf_driver/zf_driver_uart.c:78 (discriminator 1)
}
     cb8:	aa7d                	j	e76 <uart_gpio_init+0x3fe>
D:/projects/mechanical_arm/Firmware/ArmMainControler/libraries/zf_driver/zf_driver_uart.c:63
    else if(rx_pin == UART2_RX_D6 )     gpio_init(D6,  GPI, 0, GPI_PULL_UP);
     cba:	fe842703          	lw	a4,-24(s0)
     cbe:	47cd                	li	a5,19
     cc0:	00f71b63          	bne	a4,a5,cd6 <uart_gpio_init+0x25e>
D:/projects/mechanical_arm/Firmware/ArmMainControler/libraries/zf_driver/zf_driver_uart.c:63 (discriminator 1)
     cc4:	04800693          	li	a3,72
     cc8:	4601                	li	a2,0
     cca:	4581                	li	a1,0
     ccc:	06600513          	li	a0,102
     cd0:	eaeff0ef          	jal	ra,37e <gpio_init>
D:/projects/mechanical_arm/Firmware/ArmMainControler/libraries/zf_driver/zf_driver_uart.c:78 (discriminator 1)
}
     cd4:	a24d                	j	e76 <uart_gpio_init+0x3fe>
D:/projects/mechanical_arm/Firmware/ArmMainControler/libraries/zf_driver/zf_driver_uart.c:64
    else if(rx_pin == UART3_RX_B11)     gpio_init(B11, GPI, 0, GPI_PULL_UP);
     cd6:	fe842703          	lw	a4,-24(s0)
     cda:	02100793          	li	a5,33
     cde:	00f71b63          	bne	a4,a5,cf4 <uart_gpio_init+0x27c>
D:/projects/mechanical_arm/Firmware/ArmMainControler/libraries/zf_driver/zf_driver_uart.c:64 (discriminator 1)
     ce2:	04800693          	li	a3,72
     ce6:	4601                	li	a2,0
     ce8:	4581                	li	a1,0
     cea:	02b00513          	li	a0,43
     cee:	e90ff0ef          	jal	ra,37e <gpio_init>
D:/projects/mechanical_arm/Firmware/ArmMainControler/libraries/zf_driver/zf_driver_uart.c:78 (discriminator 1)
}
     cf2:	a251                	j	e76 <uart_gpio_init+0x3fe>
D:/projects/mechanical_arm/Firmware/ArmMainControler/libraries/zf_driver/zf_driver_uart.c:65
    else if(rx_pin == UART3_RX_C11)     gpio_init(C11, GPI, 0, GPI_PULL_UP);
     cf4:	fe842703          	lw	a4,-24(s0)
     cf8:	02300793          	li	a5,35
     cfc:	00f71b63          	bne	a4,a5,d12 <uart_gpio_init+0x29a>
D:/projects/mechanical_arm/Firmware/ArmMainControler/libraries/zf_driver/zf_driver_uart.c:65 (discriminator 1)
     d00:	04800693          	li	a3,72
     d04:	4601                	li	a2,0
     d06:	4581                	li	a1,0
     d08:	04b00513          	li	a0,75
     d0c:	e72ff0ef          	jal	ra,37e <gpio_init>
D:/projects/mechanical_arm/Firmware/ArmMainControler/libraries/zf_driver/zf_driver_uart.c:78 (discriminator 1)
}
     d10:	a29d                	j	e76 <uart_gpio_init+0x3fe>
D:/projects/mechanical_arm/Firmware/ArmMainControler/libraries/zf_driver/zf_driver_uart.c:66
    else if(rx_pin == UART3_RX_D9 )     gpio_init(D9,  GPI, 0, GPI_PULL_UP);
     d12:	fe842703          	lw	a4,-24(s0)
     d16:	02500793          	li	a5,37
     d1a:	00f71b63          	bne	a4,a5,d30 <uart_gpio_init+0x2b8>
D:/projects/mechanical_arm/Firmware/ArmMainControler/libraries/zf_driver/zf_driver_uart.c:66 (discriminator 1)
     d1e:	04800693          	li	a3,72
     d22:	4601                	li	a2,0
     d24:	4581                	li	a1,0
     d26:	06900513          	li	a0,105
     d2a:	e54ff0ef          	jal	ra,37e <gpio_init>
D:/projects/mechanical_arm/Firmware/ArmMainControler/libraries/zf_driver/zf_driver_uart.c:78 (discriminator 1)
}
     d2e:	a2a1                	j	e76 <uart_gpio_init+0x3fe>
D:/projects/mechanical_arm/Firmware/ArmMainControler/libraries/zf_driver/zf_driver_uart.c:67
    else if(rx_pin == UART4_RX_C11)     gpio_init(C11, GPI, 0, GPI_PULL_UP);
     d30:	fe842703          	lw	a4,-24(s0)
     d34:	04100793          	li	a5,65
     d38:	00f71b63          	bne	a4,a5,d4e <uart_gpio_init+0x2d6>
D:/projects/mechanical_arm/Firmware/ArmMainControler/libraries/zf_driver/zf_driver_uart.c:67 (discriminator 1)
     d3c:	04800693          	li	a3,72
     d40:	4601                	li	a2,0
     d42:	4581                	li	a1,0
     d44:	04b00513          	li	a0,75
     d48:	e36ff0ef          	jal	ra,37e <gpio_init>
D:/projects/mechanical_arm/Firmware/ArmMainControler/libraries/zf_driver/zf_driver_uart.c:78 (discriminator 1)
}
     d4c:	a22d                	j	e76 <uart_gpio_init+0x3fe>
D:/projects/mechanical_arm/Firmware/ArmMainControler/libraries/zf_driver/zf_driver_uart.c:68
    else if(rx_pin == UART4_RX_B1)      gpio_init(B1, GPI, 0, GPI_PULL_UP);
     d4e:	fe842703          	lw	a4,-24(s0)
     d52:	04300793          	li	a5,67
     d56:	00f71b63          	bne	a4,a5,d6c <uart_gpio_init+0x2f4>
D:/projects/mechanical_arm/Firmware/ArmMainControler/libraries/zf_driver/zf_driver_uart.c:68 (discriminator 1)
     d5a:	04800693          	li	a3,72
     d5e:	4601                	li	a2,0
     d60:	4581                	li	a1,0
     d62:	02100513          	li	a0,33
     d66:	e18ff0ef          	jal	ra,37e <gpio_init>
D:/projects/mechanical_arm/Firmware/ArmMainControler/libraries/zf_driver/zf_driver_uart.c:78 (discriminator 1)
}
     d6a:	a231                	j	e76 <uart_gpio_init+0x3fe>
D:/projects/mechanical_arm/Firmware/ArmMainControler/libraries/zf_driver/zf_driver_uart.c:69
    else if(rx_pin == UART5_RX_D2 )     gpio_init(D2,  GPI, 0, GPI_PULL_UP);
     d6c:	fe842703          	lw	a4,-24(s0)
     d70:	05100793          	li	a5,81
     d74:	00f71b63          	bne	a4,a5,d8a <uart_gpio_init+0x312>
D:/projects/mechanical_arm/Firmware/ArmMainControler/libraries/zf_driver/zf_driver_uart.c:69 (discriminator 1)
     d78:	04800693          	li	a3,72
     d7c:	4601                	li	a2,0
     d7e:	4581                	li	a1,0
     d80:	06200513          	li	a0,98
     d84:	dfaff0ef          	jal	ra,37e <gpio_init>
D:/projects/mechanical_arm/Firmware/ArmMainControler/libraries/zf_driver/zf_driver_uart.c:78 (discriminator 1)
}
     d88:	a0fd                	j	e76 <uart_gpio_init+0x3fe>
D:/projects/mechanical_arm/Firmware/ArmMainControler/libraries/zf_driver/zf_driver_uart.c:70
    else if(rx_pin == UART5_RX_E9 )     gpio_init(E9,  GPI, 0, GPI_PULL_UP);
     d8a:	fe842703          	lw	a4,-24(s0)
     d8e:	05300793          	li	a5,83
     d92:	00f71b63          	bne	a4,a5,da8 <uart_gpio_init+0x330>
D:/projects/mechanical_arm/Firmware/ArmMainControler/libraries/zf_driver/zf_driver_uart.c:70 (discriminator 1)
     d96:	04800693          	li	a3,72
     d9a:	4601                	li	a2,0
     d9c:	4581                	li	a1,0
     d9e:	08900513          	li	a0,137
     da2:	ddcff0ef          	jal	ra,37e <gpio_init>
D:/projects/mechanical_arm/Firmware/ArmMainControler/libraries/zf_driver/zf_driver_uart.c:78 (discriminator 1)
}
     da6:	a8c1                	j	e76 <uart_gpio_init+0x3fe>
D:/projects/mechanical_arm/Firmware/ArmMainControler/libraries/zf_driver/zf_driver_uart.c:71
    else if(rx_pin == UART6_RX_C1 )     gpio_init(C1,  GPI, 0, GPI_PULL_UP);
     da8:	fe842703          	lw	a4,-24(s0)
     dac:	06100793          	li	a5,97
     db0:	00f71b63          	bne	a4,a5,dc6 <uart_gpio_init+0x34e>
D:/projects/mechanical_arm/Firmware/ArmMainControler/libraries/zf_driver/zf_driver_uart.c:71 (discriminator 1)
     db4:	04800693          	li	a3,72
     db8:	4601                	li	a2,0
     dba:	4581                	li	a1,0
     dbc:	04100513          	li	a0,65
     dc0:	dbeff0ef          	jal	ra,37e <gpio_init>
D:/projects/mechanical_arm/Firmware/ArmMainControler/libraries/zf_driver/zf_driver_uart.c:78 (discriminator 1)
}
     dc4:	a84d                	j	e76 <uart_gpio_init+0x3fe>
D:/projects/mechanical_arm/Firmware/ArmMainControler/libraries/zf_driver/zf_driver_uart.c:72
    else if(rx_pin == UART6_RX_E11 )    gpio_init(E11,  GPI, 0, GPI_PULL_UP);
     dc6:	fe842703          	lw	a4,-24(s0)
     dca:	06300793          	li	a5,99
     dce:	00f71b63          	bne	a4,a5,de4 <uart_gpio_init+0x36c>
D:/projects/mechanical_arm/Firmware/ArmMainControler/libraries/zf_driver/zf_driver_uart.c:72 (discriminator 1)
     dd2:	04800693          	li	a3,72
     dd6:	4601                	li	a2,0
     dd8:	4581                	li	a1,0
     dda:	08b00513          	li	a0,139
     dde:	da0ff0ef          	jal	ra,37e <gpio_init>
D:/projects/mechanical_arm/Firmware/ArmMainControler/libraries/zf_driver/zf_driver_uart.c:78 (discriminator 1)
}
     de2:	a851                	j	e76 <uart_gpio_init+0x3fe>
D:/projects/mechanical_arm/Firmware/ArmMainControler/libraries/zf_driver/zf_driver_uart.c:73
    else if(rx_pin == UART7_RX_C3 )     gpio_init(C3,  GPI, 0, GPI_PULL_UP);
     de4:	fe842703          	lw	a4,-24(s0)
     de8:	07100793          	li	a5,113
     dec:	00f71b63          	bne	a4,a5,e02 <uart_gpio_init+0x38a>
D:/projects/mechanical_arm/Firmware/ArmMainControler/libraries/zf_driver/zf_driver_uart.c:73 (discriminator 1)
     df0:	04800693          	li	a3,72
     df4:	4601                	li	a2,0
     df6:	4581                	li	a1,0
     df8:	04300513          	li	a0,67
     dfc:	d82ff0ef          	jal	ra,37e <gpio_init>
D:/projects/mechanical_arm/Firmware/ArmMainControler/libraries/zf_driver/zf_driver_uart.c:78 (discriminator 1)
}
     e00:	a89d                	j	e76 <uart_gpio_init+0x3fe>
D:/projects/mechanical_arm/Firmware/ArmMainControler/libraries/zf_driver/zf_driver_uart.c:74
    else if(rx_pin == UART7_RX_A7 )     gpio_init(A7,  GPI, 0, GPI_PULL_UP);
     e02:	fe842703          	lw	a4,-24(s0)
     e06:	07300793          	li	a5,115
     e0a:	00f71a63          	bne	a4,a5,e1e <uart_gpio_init+0x3a6>
D:/projects/mechanical_arm/Firmware/ArmMainControler/libraries/zf_driver/zf_driver_uart.c:74 (discriminator 1)
     e0e:	04800693          	li	a3,72
     e12:	4601                	li	a2,0
     e14:	4581                	li	a1,0
     e16:	451d                	li	a0,7
     e18:	d66ff0ef          	jal	ra,37e <gpio_init>
D:/projects/mechanical_arm/Firmware/ArmMainControler/libraries/zf_driver/zf_driver_uart.c:78 (discriminator 1)
}
     e1c:	a8a9                	j	e76 <uart_gpio_init+0x3fe>
D:/projects/mechanical_arm/Firmware/ArmMainControler/libraries/zf_driver/zf_driver_uart.c:75
    else if(rx_pin == UART7_RX_E13 )    gpio_init(E13,  GPI, 0, GPI_PULL_UP);
     e1e:	fe842703          	lw	a4,-24(s0)
     e22:	07500793          	li	a5,117
     e26:	00f71b63          	bne	a4,a5,e3c <uart_gpio_init+0x3c4>
D:/projects/mechanical_arm/Firmware/ArmMainControler/libraries/zf_driver/zf_driver_uart.c:75 (discriminator 1)
     e2a:	04800693          	li	a3,72
     e2e:	4601                	li	a2,0
     e30:	4581                	li	a1,0
     e32:	08d00513          	li	a0,141
     e36:	d48ff0ef          	jal	ra,37e <gpio_init>
D:/projects/mechanical_arm/Firmware/ArmMainControler/libraries/zf_driver/zf_driver_uart.c:78 (discriminator 1)
}
     e3a:	a835                	j	e76 <uart_gpio_init+0x3fe>
D:/projects/mechanical_arm/Firmware/ArmMainControler/libraries/zf_driver/zf_driver_uart.c:76
    else if(rx_pin == UART8_RX_C5 )     gpio_init(C5,  GPI, 0, GPI_PULL_UP);
     e3c:	fe842703          	lw	a4,-24(s0)
     e40:	08100793          	li	a5,129
     e44:	00f71b63          	bne	a4,a5,e5a <uart_gpio_init+0x3e2>
D:/projects/mechanical_arm/Firmware/ArmMainControler/libraries/zf_driver/zf_driver_uart.c:76 (discriminator 1)
     e48:	04800693          	li	a3,72
     e4c:	4601                	li	a2,0
     e4e:	4581                	li	a1,0
     e50:	04500513          	li	a0,69
     e54:	d2aff0ef          	jal	ra,37e <gpio_init>
D:/projects/mechanical_arm/Firmware/ArmMainControler/libraries/zf_driver/zf_driver_uart.c:78 (discriminator 1)
}
     e58:	a839                	j	e76 <uart_gpio_init+0x3fe>
D:/projects/mechanical_arm/Firmware/ArmMainControler/libraries/zf_driver/zf_driver_uart.c:77
    else if(rx_pin == UART8_RX_E15 )    gpio_init(E15,  GPI, 0, GPI_PULL_UP);
     e5a:	fe842703          	lw	a4,-24(s0)
     e5e:	08300793          	li	a5,131
     e62:	00f71a63          	bne	a4,a5,e76 <uart_gpio_init+0x3fe>
D:/projects/mechanical_arm/Firmware/ArmMainControler/libraries/zf_driver/zf_driver_uart.c:77 (discriminator 1)
     e66:	04800693          	li	a3,72
     e6a:	4601                	li	a2,0
     e6c:	4581                	li	a1,0
     e6e:	08f00513          	li	a0,143
     e72:	d0cff0ef          	jal	ra,37e <gpio_init>
D:/projects/mechanical_arm/Firmware/ArmMainControler/libraries/zf_driver/zf_driver_uart.c:78
}
     e76:	0001                	nop
     e78:	40f2                	lw	ra,28(sp)
     e7a:	4462                	lw	s0,24(sp)
     e7c:	6105                	addi	sp,sp,32
     e7e:	8082                	ret

00000e80 <uart_rx_interrupt>:
uart_rx_interrupt():
D:/projects/mechanical_arm/Firmware/ArmMainControler/libraries/zf_driver/zf_driver_uart.c:153
//  @param      status      使能或者失能
//  @return     void
//  Sample usage:           uart_rx_irq(UART_1, ENABLE);        //打开串口1接收中断
//-------------------------------------------------------------------------------------------------------------------
void uart_rx_interrupt(uart_index_enum uartn, uint8 status)
{
     e80:	1101                	addi	sp,sp,-32
     e82:	ce06                	sw	ra,28(sp)
     e84:	cc22                	sw	s0,24(sp)
     e86:	1000                	addi	s0,sp,32
     e88:	fea42623          	sw	a0,-20(s0)
     e8c:	87ae                	mv	a5,a1
     e8e:	fef405a3          	sb	a5,-21(s0)
D:/projects/mechanical_arm/Firmware/ArmMainControler/libraries/zf_driver/zf_driver_uart.c:154
    USART_ITConfig(((USART_TypeDef*)uart_index[uartn]), USART_IT_RXNE, status);
     e92:	67a9                	lui	a5,0xa
     e94:	fec42703          	lw	a4,-20(s0)
     e98:	070a                	slli	a4,a4,0x2
     e9a:	86078793          	addi	a5,a5,-1952 # 9860 <uart_index>
     e9e:	97ba                	add	a5,a5,a4
     ea0:	439c                	lw	a5,0(a5)
     ea2:	873e                	mv	a4,a5
     ea4:	feb44783          	lbu	a5,-21(s0)
     ea8:	863e                	mv	a2,a5
     eaa:	52500593          	li	a1,1317
     eae:	853a                	mv	a0,a4
     eb0:	3cf020ef          	jal	ra,3a7e <USART_ITConfig>
D:/projects/mechanical_arm/Firmware/ArmMainControler/libraries/zf_driver/zf_driver_uart.c:156

    NVIC->IPRIOR[(uint32)((IRQn_Type)uart_irq[uartn])] = 0;
     eb4:	e000e7b7          	lui	a5,0xe000e
     eb8:	81c18693          	addi	a3,gp,-2020 # 2000023c <uart_irq>
     ebc:	fec42703          	lw	a4,-20(s0)
     ec0:	9736                	add	a4,a4,a3
     ec2:	00074703          	lbu	a4,0(a4)
     ec6:	97ba                	add	a5,a5,a4
     ec8:	40078023          	sb	zero,1024(a5) # e000e400 <_eusrstack+0xbfffe400>
D:/projects/mechanical_arm/Firmware/ArmMainControler/libraries/zf_driver/zf_driver_uart.c:158

    if(status)  interrupt_enable((IRQn_Type)uart_irq[uartn]);
     ecc:	feb44783          	lbu	a5,-21(s0)
     ed0:	cf81                	beqz	a5,ee8 <uart_rx_interrupt+0x68>
D:/projects/mechanical_arm/Firmware/ArmMainControler/libraries/zf_driver/zf_driver_uart.c:158 (discriminator 1)
     ed2:	81c18713          	addi	a4,gp,-2020 # 2000023c <uart_irq>
     ed6:	fec42783          	lw	a5,-20(s0)
     eda:	97ba                	add	a5,a5,a4
     edc:	0007c783          	lbu	a5,0(a5)
     ee0:	853e                	mv	a0,a5
     ee2:	3ec010ef          	jal	ra,22ce <interrupt_enable>
D:/projects/mechanical_arm/Firmware/ArmMainControler/libraries/zf_driver/zf_driver_uart.c:162 (discriminator 1)
    else        interrupt_disable((IRQn_Type)uart_irq[uartn]);

    //nvic_init((IRQn_Type)uart_irq[uartn], 1, 0, status);
}
     ee6:	a819                	j	efc <uart_rx_interrupt+0x7c>
D:/projects/mechanical_arm/Firmware/ArmMainControler/libraries/zf_driver/zf_driver_uart.c:159
    else        interrupt_disable((IRQn_Type)uart_irq[uartn]);
     ee8:	81c18713          	addi	a4,gp,-2020 # 2000023c <uart_irq>
     eec:	fec42783          	lw	a5,-20(s0)
     ef0:	97ba                	add	a5,a5,a4
     ef2:	0007c783          	lbu	a5,0(a5)
     ef6:	853e                	mv	a0,a5
     ef8:	3f2010ef          	jal	ra,22ea <interrupt_disable>
D:/projects/mechanical_arm/Firmware/ArmMainControler/libraries/zf_driver/zf_driver_uart.c:162
}
     efc:	0001                	nop
     efe:	40f2                	lw	ra,28(sp)
     f00:	4462                	lw	s0,24(sp)
     f02:	6105                	addi	sp,sp,32
     f04:	8082                	ret

00000f06 <uart_query_byte>:
uart_query_byte():
D:/projects/mechanical_arm/Firmware/ArmMainControler/libraries/zf_driver/zf_driver_uart.c:203
//  @param      *dat            接收数据的地址
//  @return     uint8           1：接收成功   0：未接收到数据
//  Sample usage:               uint8 dat; uart_query_byte(USART_1,&dat);       // 接收串口1数据  存在在dat变量里
//-------------------------------------------------------------------------------------------------------------------
uint8 uart_query_byte(uart_index_enum uartn, uint8 *dat)
{
     f06:	1101                	addi	sp,sp,-32
     f08:	ce22                	sw	s0,28(sp)
     f0a:	1000                	addi	s0,sp,32
     f0c:	fea42623          	sw	a0,-20(s0)
     f10:	feb42423          	sw	a1,-24(s0)
D:/projects/mechanical_arm/Firmware/ArmMainControler/libraries/zf_driver/zf_driver_uart.c:204
    if((((USART_TypeDef*)uart_index[uartn])->STATR & USART_FLAG_RXNE) != 0)
     f14:	67a9                	lui	a5,0xa
     f16:	fec42703          	lw	a4,-20(s0)
     f1a:	070a                	slli	a4,a4,0x2
     f1c:	86078793          	addi	a5,a5,-1952 # 9860 <uart_index>
     f20:	97ba                	add	a5,a5,a4
     f22:	439c                	lw	a5,0(a5)
     f24:	0007d783          	lhu	a5,0(a5)
     f28:	07c2                	slli	a5,a5,0x10
     f2a:	83c1                	srli	a5,a5,0x10
     f2c:	0207f793          	andi	a5,a5,32
     f30:	c78d                	beqz	a5,f5a <uart_query_byte+0x54>
D:/projects/mechanical_arm/Firmware/ArmMainControler/libraries/zf_driver/zf_driver_uart.c:206
    {
        *dat = (((USART_TypeDef*)uart_index[uartn])->DATAR & 0xFF);
     f32:	67a9                	lui	a5,0xa
     f34:	fec42703          	lw	a4,-20(s0)
     f38:	070a                	slli	a4,a4,0x2
     f3a:	86078793          	addi	a5,a5,-1952 # 9860 <uart_index>
     f3e:	97ba                	add	a5,a5,a4
     f40:	439c                	lw	a5,0(a5)
     f42:	0047d783          	lhu	a5,4(a5)
     f46:	07c2                	slli	a5,a5,0x10
     f48:	83c1                	srli	a5,a5,0x10
     f4a:	0ff7f713          	andi	a4,a5,255
     f4e:	fe842783          	lw	a5,-24(s0)
     f52:	00e78023          	sb	a4,0(a5)
D:/projects/mechanical_arm/Firmware/ArmMainControler/libraries/zf_driver/zf_driver_uart.c:207
        return 1;
     f56:	4785                	li	a5,1
     f58:	a011                	j	f5c <uart_query_byte+0x56>
D:/projects/mechanical_arm/Firmware/ArmMainControler/libraries/zf_driver/zf_driver_uart.c:209
    }
    return 0;
     f5a:	4781                	li	a5,0
D:/projects/mechanical_arm/Firmware/ArmMainControler/libraries/zf_driver/zf_driver_uart.c:210
}
     f5c:	853e                	mv	a0,a5
     f5e:	4472                	lw	s0,28(sp)
     f60:	6105                	addi	sp,sp,32
     f62:	8082                	ret

00000f64 <uart_init>:
uart_init():
D:/projects/mechanical_arm/Firmware/ArmMainControler/libraries/zf_driver/zf_driver_uart.c:222
//  @param      rx_pin      串口接收引脚号
//  @return     void
//  Sample usage:           uart_init(UART_1, 115200, UART1_TX_A9, UART1_RX_A10); //串口1初始化引脚号,TX为A9,RX为A10
//-------------------------------------------------------------------------------------------------------------------
void uart_init(uart_index_enum uart_num, uint32 baud, uart_pin_enum tx_pin, uart_pin_enum rx_pin)
{
     f64:	7179                	addi	sp,sp,-48
     f66:	d606                	sw	ra,44(sp)
     f68:	d422                	sw	s0,40(sp)
     f6a:	1800                	addi	s0,sp,48
     f6c:	fca42e23          	sw	a0,-36(s0)
     f70:	fcb42c23          	sw	a1,-40(s0)
     f74:	fcc42a23          	sw	a2,-44(s0)
     f78:	fcd42823          	sw	a3,-48(s0)
D:/projects/mechanical_arm/Firmware/ArmMainControler/libraries/zf_driver/zf_driver_uart.c:226
    USART_InitTypeDef USART_InitStructure;

    // AFIO总线开启
    RCC_APB2PeriphClockCmd(RCC_APB2Periph_AFIO, ENABLE);
     f7c:	4585                	li	a1,1
     f7e:	4505                	li	a0,1
     f80:	4ec020ef          	jal	ra,346c <RCC_APB2PeriphClockCmd>
D:/projects/mechanical_arm/Firmware/ArmMainControler/libraries/zf_driver/zf_driver_uart.c:233

    // RX引脚和TX引脚必须组传入
//    zf_assert(((rx_pin - 1) == tx_pin) || (tx_pin == UART5_TX_C12 && UART5_RX_D2 == rx_pin));

    // 引脚初始化
    uart_gpio_init(tx_pin, rx_pin);
     f84:	fd042583          	lw	a1,-48(s0)
     f88:	fd442503          	lw	a0,-44(s0)
     f8c:	34f5                	jal	a78 <uart_gpio_init>
D:/projects/mechanical_arm/Firmware/ArmMainControler/libraries/zf_driver/zf_driver_uart.c:236

    // 端口重映射
    if(UART1_TX_B6 == tx_pin && UART1_RX_B7 == rx_pin)
     f8e:	fd442703          	lw	a4,-44(s0)
     f92:	4789                	li	a5,2
     f94:	00f71c63          	bne	a4,a5,fac <uart_init+0x48>
D:/projects/mechanical_arm/Firmware/ArmMainControler/libraries/zf_driver/zf_driver_uart.c:236 (discriminator 1)
     f98:	fd042703          	lw	a4,-48(s0)
     f9c:	478d                	li	a5,3
     f9e:	00f71763          	bne	a4,a5,fac <uart_init+0x48>
D:/projects/mechanical_arm/Firmware/ArmMainControler/libraries/zf_driver/zf_driver_uart.c:237
        GPIO_PinRemapConfig(GPIO_Remap_USART1, ENABLE);
     fa2:	4585                	li	a1,1
     fa4:	4511                	li	a0,4
     fa6:	0c4020ef          	jal	ra,306a <GPIO_PinRemapConfig>
     faa:	a295                	j	110e <uart_init+0x1aa>
D:/projects/mechanical_arm/Firmware/ArmMainControler/libraries/zf_driver/zf_driver_uart.c:238
    else if(UART2_TX_D5 == tx_pin && UART2_RX_D6 == rx_pin)
     fac:	fd442703          	lw	a4,-44(s0)
     fb0:	47c9                	li	a5,18
     fb2:	00f71c63          	bne	a4,a5,fca <uart_init+0x66>
D:/projects/mechanical_arm/Firmware/ArmMainControler/libraries/zf_driver/zf_driver_uart.c:238 (discriminator 1)
     fb6:	fd042703          	lw	a4,-48(s0)
     fba:	47cd                	li	a5,19
     fbc:	00f71763          	bne	a4,a5,fca <uart_init+0x66>
D:/projects/mechanical_arm/Firmware/ArmMainControler/libraries/zf_driver/zf_driver_uart.c:239
        GPIO_PinRemapConfig(GPIO_Remap_USART2, ENABLE);
     fc0:	4585                	li	a1,1
     fc2:	4521                	li	a0,8
     fc4:	0a6020ef          	jal	ra,306a <GPIO_PinRemapConfig>
     fc8:	a299                	j	110e <uart_init+0x1aa>
D:/projects/mechanical_arm/Firmware/ArmMainControler/libraries/zf_driver/zf_driver_uart.c:240
    else if(UART3_TX_C10 == tx_pin && UART3_RX_C11 == rx_pin)
     fca:	fd442703          	lw	a4,-44(s0)
     fce:	02200793          	li	a5,34
     fd2:	02f71063          	bne	a4,a5,ff2 <uart_init+0x8e>
D:/projects/mechanical_arm/Firmware/ArmMainControler/libraries/zf_driver/zf_driver_uart.c:240 (discriminator 1)
     fd6:	fd042703          	lw	a4,-48(s0)
     fda:	02300793          	li	a5,35
     fde:	00f71a63          	bne	a4,a5,ff2 <uart_init+0x8e>
D:/projects/mechanical_arm/Firmware/ArmMainControler/libraries/zf_driver/zf_driver_uart.c:241
        GPIO_PinRemapConfig(GPIO_PartialRemap_USART3, ENABLE);
     fe2:	4585                	li	a1,1
     fe4:	001407b7          	lui	a5,0x140
     fe8:	01078513          	addi	a0,a5,16 # 140010 <_data_lma+0x135b94>
     fec:	07e020ef          	jal	ra,306a <GPIO_PinRemapConfig>
     ff0:	aa39                	j	110e <uart_init+0x1aa>
D:/projects/mechanical_arm/Firmware/ArmMainControler/libraries/zf_driver/zf_driver_uart.c:242
    else if(UART3_TX_D8 == tx_pin && UART3_RX_D9 == rx_pin)
     ff2:	fd442703          	lw	a4,-44(s0)
     ff6:	02400793          	li	a5,36
     ffa:	02f71063          	bne	a4,a5,101a <uart_init+0xb6>
D:/projects/mechanical_arm/Firmware/ArmMainControler/libraries/zf_driver/zf_driver_uart.c:242 (discriminator 1)
     ffe:	fd042703          	lw	a4,-48(s0)
    1002:	02500793          	li	a5,37
    1006:	00f71a63          	bne	a4,a5,101a <uart_init+0xb6>
D:/projects/mechanical_arm/Firmware/ArmMainControler/libraries/zf_driver/zf_driver_uart.c:243
        GPIO_PinRemapConfig(GPIO_FullRemap_USART3, ENABLE);
    100a:	4585                	li	a1,1
    100c:	001407b7          	lui	a5,0x140
    1010:	03078513          	addi	a0,a5,48 # 140030 <_data_lma+0x135bb4>
    1014:	056020ef          	jal	ra,306a <GPIO_PinRemapConfig>
    1018:	a8dd                	j	110e <uart_init+0x1aa>
D:/projects/mechanical_arm/Firmware/ArmMainControler/libraries/zf_driver/zf_driver_uart.c:244
    else if(UART4_TX_B0 == tx_pin && UART4_RX_B1 == rx_pin)
    101a:	fd442703          	lw	a4,-44(s0)
    101e:	04200793          	li	a5,66
    1022:	00f71d63          	bne	a4,a5,103c <uart_init+0xd8>
D:/projects/mechanical_arm/Firmware/ArmMainControler/libraries/zf_driver/zf_driver_uart.c:244 (discriminator 1)
    1026:	fd042703          	lw	a4,-48(s0)
    102a:	04300793          	li	a5,67
    102e:	00f71763          	bne	a4,a5,103c <uart_init+0xd8>
D:/projects/mechanical_arm/Firmware/ArmMainControler/libraries/zf_driver/zf_driver_uart.c:245
        GPIO_PinRemapConfig(GPIO_Remap_TIM4, ENABLE);
    1032:	4585                	li	a1,1
    1034:	6505                	lui	a0,0x1
    1036:	034020ef          	jal	ra,306a <GPIO_PinRemapConfig>
    103a:	a8d1                	j	110e <uart_init+0x1aa>
D:/projects/mechanical_arm/Firmware/ArmMainControler/libraries/zf_driver/zf_driver_uart.c:246
    else if(UART5_TX_E8 == tx_pin && UART5_RX_E9 == rx_pin)
    103c:	fd442703          	lw	a4,-44(s0)
    1040:	05200793          	li	a5,82
    1044:	02f71063          	bne	a4,a5,1064 <uart_init+0x100>
D:/projects/mechanical_arm/Firmware/ArmMainControler/libraries/zf_driver/zf_driver_uart.c:246 (discriminator 1)
    1048:	fd042703          	lw	a4,-48(s0)
    104c:	05300793          	li	a5,83
    1050:	00f71a63          	bne	a4,a5,1064 <uart_init+0x100>
D:/projects/mechanical_arm/Firmware/ArmMainControler/libraries/zf_driver/zf_driver_uart.c:247
        GPIO_PinRemapConfig(GPIO_Remap_TIM5CH4_LSI, ENABLE);
    1054:	4585                	li	a1,1
    1056:	002007b7          	lui	a5,0x200
    105a:	00178513          	addi	a0,a5,1 # 200001 <_data_lma+0x1f5b85>
    105e:	00c020ef          	jal	ra,306a <GPIO_PinRemapConfig>
    1062:	a075                	j	110e <uart_init+0x1aa>
D:/projects/mechanical_arm/Firmware/ArmMainControler/libraries/zf_driver/zf_driver_uart.c:248
    else if(UART6_TX_E10 == tx_pin && UART6_RX_E11 == rx_pin)
    1064:	fd442703          	lw	a4,-44(s0)
    1068:	06200793          	li	a5,98
    106c:	02f71063          	bne	a4,a5,108c <uart_init+0x128>
D:/projects/mechanical_arm/Firmware/ArmMainControler/libraries/zf_driver/zf_driver_uart.c:248 (discriminator 1)
    1070:	fd042703          	lw	a4,-48(s0)
    1074:	06300793          	li	a5,99
    1078:	00f71a63          	bne	a4,a5,108c <uart_init+0x128>
D:/projects/mechanical_arm/Firmware/ArmMainControler/libraries/zf_driver/zf_driver_uart.c:249
        GPIO_PinRemapConfig(GPIO_Remap_TIM67_DAC_DMA, ENABLE);
    107c:	4585                	li	a1,1
    107e:	800017b7          	lui	a5,0x80001
    1082:	80078513          	addi	a0,a5,-2048 # 80000800 <_eusrstack+0x5fff0800>
    1086:	7e5010ef          	jal	ra,306a <GPIO_PinRemapConfig>
    108a:	a051                	j	110e <uart_init+0x1aa>
D:/projects/mechanical_arm/Firmware/ArmMainControler/libraries/zf_driver/zf_driver_uart.c:251

    else if(UART7_TX_A6 == tx_pin && UART7_RX_A7 == rx_pin)
    108c:	fd442703          	lw	a4,-44(s0)
    1090:	07200793          	li	a5,114
    1094:	02f71263          	bne	a4,a5,10b8 <uart_init+0x154>
D:/projects/mechanical_arm/Firmware/ArmMainControler/libraries/zf_driver/zf_driver_uart.c:251 (discriminator 1)
    1098:	fd042703          	lw	a4,-48(s0)
    109c:	07300793          	li	a5,115
    10a0:	00f71c63          	bne	a4,a5,10b8 <uart_init+0x154>
D:/projects/mechanical_arm/Firmware/ArmMainControler/libraries/zf_driver/zf_driver_uart.c:252
        AFIO->PCFR2 |= 0x01<<22;                       //[23:22]
    10a4:	400107b7          	lui	a5,0x40010
    10a8:	4fd4                	lw	a3,28(a5)
    10aa:	400107b7          	lui	a5,0x40010
    10ae:	00400737          	lui	a4,0x400
    10b2:	8f55                	or	a4,a4,a3
    10b4:	cfd8                	sw	a4,28(a5)
    10b6:	a8a1                	j	110e <uart_init+0x1aa>
D:/projects/mechanical_arm/Firmware/ArmMainControler/libraries/zf_driver/zf_driver_uart.c:253
    else if(UART7_TX_E12 == tx_pin && UART7_RX_E13 == rx_pin)
    10b8:	fd442703          	lw	a4,-44(s0)
    10bc:	07400793          	li	a5,116
    10c0:	02f71263          	bne	a4,a5,10e4 <uart_init+0x180>
D:/projects/mechanical_arm/Firmware/ArmMainControler/libraries/zf_driver/zf_driver_uart.c:253 (discriminator 1)
    10c4:	fd042703          	lw	a4,-48(s0)
    10c8:	07500793          	li	a5,117
    10cc:	00f71c63          	bne	a4,a5,10e4 <uart_init+0x180>
D:/projects/mechanical_arm/Firmware/ArmMainControler/libraries/zf_driver/zf_driver_uart.c:254
        AFIO->PCFR2 |= 0x01<<23;                       //[23:22]
    10d0:	400107b7          	lui	a5,0x40010
    10d4:	4fd4                	lw	a3,28(a5)
    10d6:	400107b7          	lui	a5,0x40010
    10da:	00800737          	lui	a4,0x800
    10de:	8f55                	or	a4,a4,a3
    10e0:	cfd8                	sw	a4,28(a5)
    10e2:	a035                	j	110e <uart_init+0x1aa>
D:/projects/mechanical_arm/Firmware/ArmMainControler/libraries/zf_driver/zf_driver_uart.c:256

    else if(UART8_TX_E14 == tx_pin && UART8_RX_E15 == rx_pin)
    10e4:	fd442703          	lw	a4,-44(s0)
    10e8:	08200793          	li	a5,130
    10ec:	02f71163          	bne	a4,a5,110e <uart_init+0x1aa>
D:/projects/mechanical_arm/Firmware/ArmMainControler/libraries/zf_driver/zf_driver_uart.c:256 (discriminator 1)
    10f0:	fd042703          	lw	a4,-48(s0)
    10f4:	08300793          	li	a5,131
    10f8:	00f71b63          	bne	a4,a5,110e <uart_init+0x1aa>
D:/projects/mechanical_arm/Firmware/ArmMainControler/libraries/zf_driver/zf_driver_uart.c:257
        AFIO->PCFR2 |= 1<<25;    //[25:24]
    10fc:	400107b7          	lui	a5,0x40010
    1100:	4fd4                	lw	a3,28(a5)
    1102:	400107b7          	lui	a5,0x40010
    1106:	02000737          	lui	a4,0x2000
    110a:	8f55                	or	a4,a4,a3
    110c:	cfd8                	sw	a4,28(a5)
D:/projects/mechanical_arm/Firmware/ArmMainControler/libraries/zf_driver/zf_driver_uart.c:260

    //  串口总线使能
    if(UART_1 == uart_num) RCC_APB2PeriphClockCmd(RCC_APB2Periph_USART1, ENABLE);
    110e:	fdc42783          	lw	a5,-36(s0)
    1112:	e791                	bnez	a5,111e <uart_init+0x1ba>
D:/projects/mechanical_arm/Firmware/ArmMainControler/libraries/zf_driver/zf_driver_uart.c:260 (discriminator 1)
    1114:	4585                	li	a1,1
    1116:	6511                	lui	a0,0x4
    1118:	354020ef          	jal	ra,346c <RCC_APB2PeriphClockCmd>
    111c:	a869                	j	11b6 <uart_init+0x252>
D:/projects/mechanical_arm/Firmware/ArmMainControler/libraries/zf_driver/zf_driver_uart.c:261
    else if(UART_2 == uart_num) RCC_APB1PeriphClockCmd(RCC_APB1Periph_USART2, ENABLE);
    111e:	fdc42703          	lw	a4,-36(s0)
    1122:	4785                	li	a5,1
    1124:	00f71863          	bne	a4,a5,1134 <uart_init+0x1d0>
D:/projects/mechanical_arm/Firmware/ArmMainControler/libraries/zf_driver/zf_driver_uart.c:261 (discriminator 1)
    1128:	4585                	li	a1,1
    112a:	00020537          	lui	a0,0x20
    112e:	384020ef          	jal	ra,34b2 <RCC_APB1PeriphClockCmd>
    1132:	a051                	j	11b6 <uart_init+0x252>
D:/projects/mechanical_arm/Firmware/ArmMainControler/libraries/zf_driver/zf_driver_uart.c:262
    else if(UART_3 == uart_num) RCC_APB1PeriphClockCmd(RCC_APB1Periph_USART3, ENABLE);
    1134:	fdc42703          	lw	a4,-36(s0)
    1138:	4789                	li	a5,2
    113a:	00f71863          	bne	a4,a5,114a <uart_init+0x1e6>
D:/projects/mechanical_arm/Firmware/ArmMainControler/libraries/zf_driver/zf_driver_uart.c:262 (discriminator 1)
    113e:	4585                	li	a1,1
    1140:	00040537          	lui	a0,0x40
    1144:	36e020ef          	jal	ra,34b2 <RCC_APB1PeriphClockCmd>
    1148:	a0bd                	j	11b6 <uart_init+0x252>
D:/projects/mechanical_arm/Firmware/ArmMainControler/libraries/zf_driver/zf_driver_uart.c:263
    else if(UART_4 == uart_num) RCC_APB1PeriphClockCmd(RCC_APB1Periph_UART4, ENABLE);
    114a:	fdc42703          	lw	a4,-36(s0)
    114e:	478d                	li	a5,3
    1150:	00f71863          	bne	a4,a5,1160 <uart_init+0x1fc>
D:/projects/mechanical_arm/Firmware/ArmMainControler/libraries/zf_driver/zf_driver_uart.c:263 (discriminator 1)
    1154:	4585                	li	a1,1
    1156:	00080537          	lui	a0,0x80
    115a:	358020ef          	jal	ra,34b2 <RCC_APB1PeriphClockCmd>
    115e:	a8a1                	j	11b6 <uart_init+0x252>
D:/projects/mechanical_arm/Firmware/ArmMainControler/libraries/zf_driver/zf_driver_uart.c:264
    else if(UART_5 == uart_num) RCC_APB1PeriphClockCmd(RCC_APB1Periph_UART5, ENABLE);
    1160:	fdc42703          	lw	a4,-36(s0)
    1164:	4791                	li	a5,4
    1166:	00f71863          	bne	a4,a5,1176 <uart_init+0x212>
D:/projects/mechanical_arm/Firmware/ArmMainControler/libraries/zf_driver/zf_driver_uart.c:264 (discriminator 1)
    116a:	4585                	li	a1,1
    116c:	00100537          	lui	a0,0x100
    1170:	342020ef          	jal	ra,34b2 <RCC_APB1PeriphClockCmd>
    1174:	a089                	j	11b6 <uart_init+0x252>
D:/projects/mechanical_arm/Firmware/ArmMainControler/libraries/zf_driver/zf_driver_uart.c:265
    else if(UART_6 == uart_num) RCC_APB1PeriphClockCmd(RCC_APB1Periph_UART6, ENABLE);
    1176:	fdc42703          	lw	a4,-36(s0)
    117a:	4795                	li	a5,5
    117c:	00f71863          	bne	a4,a5,118c <uart_init+0x228>
D:/projects/mechanical_arm/Firmware/ArmMainControler/libraries/zf_driver/zf_driver_uart.c:265 (discriminator 1)
    1180:	4585                	li	a1,1
    1182:	04000513          	li	a0,64
    1186:	32c020ef          	jal	ra,34b2 <RCC_APB1PeriphClockCmd>
    118a:	a035                	j	11b6 <uart_init+0x252>
D:/projects/mechanical_arm/Firmware/ArmMainControler/libraries/zf_driver/zf_driver_uart.c:266
    else if(UART_7 == uart_num) RCC_APB1PeriphClockCmd(RCC_APB1Periph_UART7, ENABLE);
    118c:	fdc42703          	lw	a4,-36(s0)
    1190:	4799                	li	a5,6
    1192:	00f71863          	bne	a4,a5,11a2 <uart_init+0x23e>
D:/projects/mechanical_arm/Firmware/ArmMainControler/libraries/zf_driver/zf_driver_uart.c:266 (discriminator 1)
    1196:	4585                	li	a1,1
    1198:	08000513          	li	a0,128
    119c:	316020ef          	jal	ra,34b2 <RCC_APB1PeriphClockCmd>
    11a0:	a819                	j	11b6 <uart_init+0x252>
D:/projects/mechanical_arm/Firmware/ArmMainControler/libraries/zf_driver/zf_driver_uart.c:267
    else if(UART_8 == uart_num) RCC_APB1PeriphClockCmd(RCC_APB1Periph_UART8, ENABLE);
    11a2:	fdc42703          	lw	a4,-36(s0)
    11a6:	479d                	li	a5,7
    11a8:	00f71763          	bne	a4,a5,11b6 <uart_init+0x252>
D:/projects/mechanical_arm/Firmware/ArmMainControler/libraries/zf_driver/zf_driver_uart.c:267 (discriminator 1)
    11ac:	4585                	li	a1,1
    11ae:	10000513          	li	a0,256
    11b2:	300020ef          	jal	ra,34b2 <RCC_APB1PeriphClockCmd>
D:/projects/mechanical_arm/Firmware/ArmMainControler/libraries/zf_driver/zf_driver_uart.c:271


    //  串口参数配置
    USART_InitStructure.USART_BaudRate = baud;
    11b6:	fd842783          	lw	a5,-40(s0)
    11ba:	fef42023          	sw	a5,-32(s0)
D:/projects/mechanical_arm/Firmware/ArmMainControler/libraries/zf_driver/zf_driver_uart.c:272
    USART_InitStructure.USART_WordLength = USART_WordLength_8b;
    11be:	fe041223          	sh	zero,-28(s0)
D:/projects/mechanical_arm/Firmware/ArmMainControler/libraries/zf_driver/zf_driver_uart.c:273
    USART_InitStructure.USART_StopBits = USART_StopBits_1;
    11c2:	fe041323          	sh	zero,-26(s0)
D:/projects/mechanical_arm/Firmware/ArmMainControler/libraries/zf_driver/zf_driver_uart.c:274
    USART_InitStructure.USART_Parity = USART_Parity_No;
    11c6:	fe041423          	sh	zero,-24(s0)
D:/projects/mechanical_arm/Firmware/ArmMainControler/libraries/zf_driver/zf_driver_uart.c:275
    USART_InitStructure.USART_HardwareFlowControl = USART_HardwareFlowControl_None;
    11ca:	fe041623          	sh	zero,-20(s0)
D:/projects/mechanical_arm/Firmware/ArmMainControler/libraries/zf_driver/zf_driver_uart.c:276
    USART_InitStructure.USART_Mode = USART_Mode_Tx | USART_Mode_Rx;
    11ce:	47b1                	li	a5,12
    11d0:	fef41523          	sh	a5,-22(s0)
D:/projects/mechanical_arm/Firmware/ArmMainControler/libraries/zf_driver/zf_driver_uart.c:279

    //  使能串口
    USART_Init((USART_TypeDef*)uart_index[uart_num], &USART_InitStructure);
    11d4:	67a9                	lui	a5,0xa
    11d6:	fdc42703          	lw	a4,-36(s0)
    11da:	070a                	slli	a4,a4,0x2
    11dc:	86078793          	addi	a5,a5,-1952 # 9860 <uart_index>
    11e0:	97ba                	add	a5,a5,a4
    11e2:	439c                	lw	a5,0(a5)
    11e4:	873e                	mv	a4,a5
    11e6:	fe040793          	addi	a5,s0,-32
    11ea:	85be                	mv	a1,a5
    11ec:	853a                	mv	a0,a4
    11ee:	5fc020ef          	jal	ra,37ea <USART_Init>
D:/projects/mechanical_arm/Firmware/ArmMainControler/libraries/zf_driver/zf_driver_uart.c:280
    USART_Cmd((USART_TypeDef*)uart_index[uart_num], ENABLE);
    11f2:	67a9                	lui	a5,0xa
    11f4:	fdc42703          	lw	a4,-36(s0)
    11f8:	070a                	slli	a4,a4,0x2
    11fa:	86078793          	addi	a5,a5,-1952 # 9860 <uart_index>
    11fe:	97ba                	add	a5,a5,a4
    1200:	439c                	lw	a5,0(a5)
    1202:	4585                	li	a1,1
    1204:	853e                	mv	a0,a5
    1206:	019020ef          	jal	ra,3a1e <USART_Cmd>
D:/projects/mechanical_arm/Firmware/ArmMainControler/libraries/zf_driver/zf_driver_uart.c:282

}
    120a:	0001                	nop
    120c:	50b2                	lw	ra,44(sp)
    120e:	5422                	lw	s0,40(sp)
    1210:	6145                	addi	sp,sp,48
    1212:	8082                	ret

00001214 <bluetooth_ch9141_uart_callback_ch1>:
bluetooth_ch9141_uart_callback_ch1():
D:/projects/mechanical_arm/Firmware/ArmMainControler/libraries/zf_device/zf_device_bluetooth_ch9141.c:39
//  @since      v1.0
//  Sample usage:
//  @note       该函数在ISR文件 串口8中断程序被调用
//-------------------------------------------------------------------------------------------------------------------
void bluetooth_ch9141_uart_callback_ch1 (void)
{
    1214:	1141                	addi	sp,sp,-16
    1216:	c606                	sw	ra,12(sp)
    1218:	c422                	sw	s0,8(sp)
    121a:	0800                	addi	s0,sp,16
D:/projects/mechanical_arm/Firmware/ArmMainControler/libraries/zf_device/zf_device_bluetooth_ch9141.c:40
    uart_query_byte(BLUETOOTH_CH9141_INDEX, &bluetooth_ch9141_data);                // 读取串口数据
    121c:	83018593          	addi	a1,gp,-2000 # 20000250 <_edata>
    1220:	4519                	li	a0,6
    1222:	31d5                	jal	f06 <uart_query_byte>
D:/projects/mechanical_arm/Firmware/ArmMainControler/libraries/zf_device/zf_device_bluetooth_ch9141.c:41
    fifo_write_buffer(&bluetooth_ch9141_fifo, &bluetooth_ch9141_data, 1);           // 存入 FIFO
    1224:	4605                	li	a2,1
    1226:	83018593          	addi	a1,gp,-2000 # 20000250 <_edata>
    122a:	89018513          	addi	a0,gp,-1904 # 200002b0 <bluetooth_ch9141_fifo>
    122e:	73d000ef          	jal	ra,216a <fifo_write_buffer>
D:/projects/mechanical_arm/Firmware/ArmMainControler/libraries/zf_device/zf_device_bluetooth_ch9141.c:42
}
    1232:	0001                	nop
    1234:	40b2                	lw	ra,12(sp)
    1236:	4422                	lw	s0,8(sp)
    1238:	0141                	addi	sp,sp,16
    123a:	8082                	ret

0000123c <bluetooth_ch9141_uart_callback_ch2>:
bluetooth_ch9141_uart_callback_ch2():
D:/projects/mechanical_arm/Firmware/ArmMainControler/libraries/zf_device/zf_device_bluetooth_ch9141_ch2.c:41
//  @since      v1.0
//  Sample usage:
//  @note       该函数在ISR文件 串口8中断程序被调用
//-------------------------------------------------------------------------------------------------------------------
void bluetooth_ch9141_uart_callback_ch2 (void)
{
    123c:	1141                	addi	sp,sp,-16
    123e:	c606                	sw	ra,12(sp)
    1240:	c422                	sw	s0,8(sp)
    1242:	0800                	addi	s0,sp,16
D:/projects/mechanical_arm/Firmware/ArmMainControler/libraries/zf_device/zf_device_bluetooth_ch9141_ch2.c:42
    uart_query_byte(BLUETOOTH_CH9141_INDEX_CH2, &bluetooth_ch9141_data_ch2);                // 读取串口数据
    1244:	83118593          	addi	a1,gp,-1999 # 20000251 <bluetooth_ch9141_data_ch2>
    1248:	4505                	li	a0,1
    124a:	3975                	jal	f06 <uart_query_byte>
D:/projects/mechanical_arm/Firmware/ArmMainControler/libraries/zf_device/zf_device_bluetooth_ch9141_ch2.c:43
    fifo_write_buffer(&bluetooth_ch9141_fifo_ch2, &bluetooth_ch9141_data_ch2, 1);           // 存入 FIFO
    124c:	4605                	li	a2,1
    124e:	83118593          	addi	a1,gp,-1999 # 20000251 <bluetooth_ch9141_data_ch2>
    1252:	8a418513          	addi	a0,gp,-1884 # 200002c4 <bluetooth_ch9141_fifo_ch2>
    1256:	715000ef          	jal	ra,216a <fifo_write_buffer>
D:/projects/mechanical_arm/Firmware/ArmMainControler/libraries/zf_device/zf_device_bluetooth_ch9141_ch2.c:45

}
    125a:	0001                	nop
    125c:	40b2                	lw	ra,12(sp)
    125e:	4422                	lw	s0,8(sp)
    1260:	0141                	addi	sp,sp,16
    1262:	8082                	ret

00001264 <camera_uart_handler>:
camera_uart_handler():
D:/projects/mechanical_arm/Firmware/ArmMainControler/libraries/zf_device/zf_device_camera.c:35
// @param       void
// @return      void
// Sample usage:
//-------------------------------------------------------------------------------------------------------------------
void camera_uart_handler (void)
{
    1264:	1141                	addi	sp,sp,-16
    1266:	c606                	sw	ra,12(sp)
    1268:	c422                	sw	s0,8(sp)
    126a:	0800                	addi	s0,sp,16
D:/projects/mechanical_arm/Firmware/ArmMainControler/libraries/zf_device/zf_device_camera.c:36
    if(camera_type == CAMERA_BIN_UART)
    126c:	8481a703          	lw	a4,-1976(gp) # 20000268 <camera_type>
    1270:	4789                	li	a5,2
    1272:	00f70f63          	beq	a4,a5,1290 <camera_uart_handler+0x2c>
D:/projects/mechanical_arm/Firmware/ArmMainControler/libraries/zf_device/zf_device_camera.c:41
    {
        // 小钻风暂不支持
        //ov7725_cof_uart_interrupt();
    }
    else if(camera_type == CAMERA_GRAYSCALE)
    1276:	8481a703          	lw	a4,-1976(gp) # 20000268 <camera_type>
    127a:	478d                	li	a5,3
    127c:	00f71463          	bne	a4,a5,1284 <camera_uart_handler+0x20>
D:/projects/mechanical_arm/Firmware/ArmMainControler/libraries/zf_device/zf_device_camera.c:44
    {
        // 总钻风串口回调函数
        mt9v03x_uart_callback_dvp();
    1280:	2099                	jal	12c6 <mt9v03x_uart_callback_dvp>
D:/projects/mechanical_arm/Firmware/ArmMainControler/libraries/zf_device/zf_device_camera.c:51
    else if(camera_type == CAMERA_COLOR)
    {
        //凌瞳串口回调函数
        scc8660_uart_callback_dvp();
    }
}
    1282:	a039                	j	1290 <camera_uart_handler+0x2c>
D:/projects/mechanical_arm/Firmware/ArmMainControler/libraries/zf_device/zf_device_camera.c:46
    else if(camera_type == CAMERA_COLOR)
    1284:	8481a703          	lw	a4,-1976(gp) # 20000268 <camera_type>
    1288:	4791                	li	a5,4
    128a:	00f71363          	bne	a4,a5,1290 <camera_uart_handler+0x2c>
D:/projects/mechanical_arm/Firmware/ArmMainControler/libraries/zf_device/zf_device_camera.c:49
        scc8660_uart_callback_dvp();
    128e:	2845                	jal	133e <scc8660_uart_callback_dvp>
D:/projects/mechanical_arm/Firmware/ArmMainControler/libraries/zf_device/zf_device_camera.c:51
}
    1290:	0001                	nop
    1292:	40b2                	lw	ra,12(sp)
    1294:	4422                	lw	s0,8(sp)
    1296:	0141                	addi	sp,sp,16
    1298:	8082                	ret

0000129a <camera_dvp_handler>:
camera_dvp_handler():
D:/projects/mechanical_arm/Firmware/ArmMainControler/libraries/zf_device/zf_device_camera.c:82
// @param       void
// @return      void
// Sample usage:
//-------------------------------------------------------------------------------------------------------------------
void camera_dvp_handler(void)
{
    129a:	1141                	addi	sp,sp,-16
    129c:	c606                	sw	ra,12(sp)
    129e:	c422                	sw	s0,8(sp)
    12a0:	0800                	addi	s0,sp,16
D:/projects/mechanical_arm/Firmware/ArmMainControler/libraries/zf_device/zf_device_camera.c:83
    if(camera_type == CAMERA_COLOR)
    12a2:	8481a703          	lw	a4,-1976(gp) # 20000268 <camera_type>
    12a6:	4791                	li	a5,4
    12a8:	00f71463          	bne	a4,a5,12b0 <camera_dvp_handler+0x16>
D:/projects/mechanical_arm/Firmware/ArmMainControler/libraries/zf_device/zf_device_camera.c:85
    {
        scc8660_vsync_dvp();
    12ac:	28dd                	jal	13a2 <scc8660_vsync_dvp>
D:/projects/mechanical_arm/Firmware/ArmMainControler/libraries/zf_device/zf_device_camera.c:95
    }
    else if(camera_type == CAMERA_BIN_UART)
    {
        //小钻风不支持
    }
}
    12ae:	a039                	j	12bc <camera_dvp_handler+0x22>
D:/projects/mechanical_arm/Firmware/ArmMainControler/libraries/zf_device/zf_device_camera.c:87
    else if(camera_type == CAMERA_GRAYSCALE)
    12b0:	8481a703          	lw	a4,-1976(gp) # 20000268 <camera_type>
    12b4:	478d                	li	a5,3
    12b6:	00f71363          	bne	a4,a5,12bc <camera_dvp_handler+0x22>
D:/projects/mechanical_arm/Firmware/ArmMainControler/libraries/zf_device/zf_device_camera.c:89
        mt9v03x_handler_dvp();
    12ba:	2885                	jal	132a <mt9v03x_handler_dvp>
D:/projects/mechanical_arm/Firmware/ArmMainControler/libraries/zf_device/zf_device_camera.c:95
}
    12bc:	0001                	nop
    12be:	40b2                	lw	ra,12(sp)
    12c0:	4422                	lw	s0,8(sp)
    12c2:	0141                	addi	sp,sp,16
    12c4:	8082                	ret

000012c6 <mt9v03x_uart_callback_dvp>:
mt9v03x_uart_callback_dvp():
D:/projects/mechanical_arm/Firmware/ArmMainControler/libraries/zf_device/zf_device_mt9v03x_dvp.c:177
// @param       void
// @return      void
// Sample usage:
//-------------------------------------------------------------------------------------------------------------------
void mt9v03x_uart_callback_dvp (void)
{
    12c6:	1141                	addi	sp,sp,-16
    12c8:	c606                	sw	ra,12(sp)
    12ca:	c422                	sw	s0,8(sp)
    12cc:	0800                	addi	s0,sp,16
D:/projects/mechanical_arm/Firmware/ArmMainControler/libraries/zf_device/zf_device_mt9v03x_dvp.c:181
//    receive_dvp[receive_num_dvp] = ((USART_TypeDef*)uart_index[MT9V03X_COF_UART_DVP])->DATAR & 0xFF;
//    receive_num_dvp++;

    if(uart_query_byte(MT9V03X_COF_UART_DVP, &receive_dvp[receive_num_dvp]))
    12ce:	8371c783          	lbu	a5,-1993(gp) # 20000257 <receive_num_dvp>
    12d2:	873e                	mv	a4,a5
    12d4:	83418793          	addi	a5,gp,-1996 # 20000254 <receive_dvp>
    12d8:	97ba                	add	a5,a5,a4
    12da:	85be                	mv	a1,a5
    12dc:	4511                	li	a0,4
    12de:	3125                	jal	f06 <uart_query_byte>
    12e0:	87aa                	mv	a5,a0
    12e2:	cb81                	beqz	a5,12f2 <mt9v03x_uart_callback_dvp+0x2c>
D:/projects/mechanical_arm/Firmware/ArmMainControler/libraries/zf_device/zf_device_mt9v03x_dvp.c:182
        receive_num_dvp++;
    12e4:	8371c783          	lbu	a5,-1993(gp) # 20000257 <receive_num_dvp>
    12e8:	0785                	addi	a5,a5,1
    12ea:	0ff7f713          	andi	a4,a5,255
    12ee:	82e18ba3          	sb	a4,-1993(gp) # 20000257 <receive_num_dvp>
D:/projects/mechanical_arm/Firmware/ArmMainControler/libraries/zf_device/zf_device_mt9v03x_dvp.c:184

    if(1 == receive_num_dvp && 0XA5!=receive_dvp[0])
    12f2:	8371c703          	lbu	a4,-1993(gp) # 20000257 <receive_num_dvp>
    12f6:	4785                	li	a5,1
    12f8:	00f71a63          	bne	a4,a5,130c <mt9v03x_uart_callback_dvp+0x46>
D:/projects/mechanical_arm/Firmware/ArmMainControler/libraries/zf_device/zf_device_mt9v03x_dvp.c:184 (discriminator 1)
    12fc:	8341c703          	lbu	a4,-1996(gp) # 20000254 <receive_dvp>
    1300:	0a500793          	li	a5,165
    1304:	00f70463          	beq	a4,a5,130c <mt9v03x_uart_callback_dvp+0x46>
D:/projects/mechanical_arm/Firmware/ArmMainControler/libraries/zf_device/zf_device_mt9v03x_dvp.c:185
        receive_num_dvp = 0;
    1308:	82018ba3          	sb	zero,-1993(gp) # 20000257 <receive_num_dvp>
D:/projects/mechanical_arm/Firmware/ArmMainControler/libraries/zf_device/zf_device_mt9v03x_dvp.c:186
    if(3 == receive_num_dvp)
    130c:	8371c703          	lbu	a4,-1993(gp) # 20000257 <receive_num_dvp>
    1310:	478d                	li	a5,3
    1312:	00f71763          	bne	a4,a5,1320 <mt9v03x_uart_callback_dvp+0x5a>
D:/projects/mechanical_arm/Firmware/ArmMainControler/libraries/zf_device/zf_device_mt9v03x_dvp.c:188
    {
        receive_num_dvp = 0;
    1316:	82018ba3          	sb	zero,-1993(gp) # 20000257 <receive_num_dvp>
D:/projects/mechanical_arm/Firmware/ArmMainControler/libraries/zf_device/zf_device_mt9v03x_dvp.c:189
        uart_receive_flag_dvp = 1;
    131a:	4705                	li	a4,1
    131c:	82e18c23          	sb	a4,-1992(gp) # 20000258 <uart_receive_flag_dvp>
D:/projects/mechanical_arm/Firmware/ArmMainControler/libraries/zf_device/zf_device_mt9v03x_dvp.c:191
    }
}
    1320:	0001                	nop
    1322:	40b2                	lw	ra,12(sp)
    1324:	4422                	lw	s0,8(sp)
    1326:	0141                	addi	sp,sp,16
    1328:	8082                	ret

0000132a <mt9v03x_handler_dvp>:
mt9v03x_handler_dvp():
D:/projects/mechanical_arm/Firmware/ArmMainControler/libraries/zf_device/zf_device_mt9v03x_dvp.c:306
//  @return     void
//  @since      v1.0
//  Sample usage:               在isr.c里面先创建对应的中断函数，然后调用该函数(之后别忘记清除中断标志位)
//-------------------------------------------------------------------------------------------------------------------
void mt9v03x_handler_dvp(void)
{
    132a:	1141                	addi	sp,sp,-16
    132c:	c622                	sw	s0,12(sp)
    132e:	0800                	addi	s0,sp,16
D:/projects/mechanical_arm/Firmware/ArmMainControler/libraries/zf_device/zf_device_mt9v03x_dvp.c:309
    //已经修改为循环采集模式。不需要设置地址和开启DVP
    //DVP->DMA_BUF0 = (uint32)camera_buffer_addr;       // 恢复DMA地址
    mt9v03x_finish_flag_dvp = 1;                        // 摄像头采集完成标志位置1
    1330:	4705                	li	a4,1
    1332:	82e18923          	sb	a4,-1998(gp) # 20000252 <mt9v03x_finish_flag_dvp>
D:/projects/mechanical_arm/Firmware/ArmMainControler/libraries/zf_device/zf_device_mt9v03x_dvp.c:312
    //已经修改为循环采集模式。不需要设置地址和开启DVP
    //DVP->CR0 |= RB_DVP_ENABLE;                          // 重新打开DVP，采集下一副图像
}
    1336:	0001                	nop
    1338:	4432                	lw	s0,12(sp)
    133a:	0141                	addi	sp,sp,16
    133c:	8082                	ret

0000133e <scc8660_uart_callback_dvp>:
scc8660_uart_callback_dvp():
D:/projects/mechanical_arm/Firmware/ArmMainControler/libraries/zf_device/zf_device_scc8660_dvp.c:106
//  @since      v1.0
//  Sample usage:	
//  @note       该函数在SDK底层fsl_lpuart文件中的串口3中断函数内调用
//-------------------------------------------------------------------------------------------------------------------
void scc8660_uart_callback_dvp(void)
{
    133e:	1141                	addi	sp,sp,-16
    1340:	c606                	sw	ra,12(sp)
    1342:	c422                	sw	s0,8(sp)
    1344:	0800                	addi	s0,sp,16
D:/projects/mechanical_arm/Firmware/ArmMainControler/libraries/zf_device/zf_device_scc8660_dvp.c:107
    if(uart_query_byte(SCC8660_COF_UART_DVP, &scc8660_uart_receive_dvp[scc8660_uart_receive_num_dvp]))
    1346:	83f1c783          	lbu	a5,-1985(gp) # 2000025f <scc8660_uart_receive_num_dvp>
    134a:	873e                	mv	a4,a5
    134c:	83c18793          	addi	a5,gp,-1988 # 2000025c <scc8660_uart_receive_dvp>
    1350:	97ba                	add	a5,a5,a4
    1352:	85be                	mv	a1,a5
    1354:	4511                	li	a0,4
    1356:	3e45                	jal	f06 <uart_query_byte>
    1358:	87aa                	mv	a5,a0
    135a:	cb81                	beqz	a5,136a <scc8660_uart_callback_dvp+0x2c>
D:/projects/mechanical_arm/Firmware/ArmMainControler/libraries/zf_device/zf_device_scc8660_dvp.c:108
        scc8660_uart_receive_num_dvp++;
    135c:	83f1c783          	lbu	a5,-1985(gp) # 2000025f <scc8660_uart_receive_num_dvp>
    1360:	0785                	addi	a5,a5,1
    1362:	0ff7f713          	andi	a4,a5,255
    1366:	82e18fa3          	sb	a4,-1985(gp) # 2000025f <scc8660_uart_receive_num_dvp>
D:/projects/mechanical_arm/Firmware/ArmMainControler/libraries/zf_device/zf_device_scc8660_dvp.c:110

    if(1==scc8660_uart_receive_num_dvp && 0XA5!=scc8660_uart_receive_dvp[0])  scc8660_uart_receive_num_dvp = 0;
    136a:	83f1c703          	lbu	a4,-1985(gp) # 2000025f <scc8660_uart_receive_num_dvp>
    136e:	4785                	li	a5,1
    1370:	00f71a63          	bne	a4,a5,1384 <scc8660_uart_callback_dvp+0x46>
D:/projects/mechanical_arm/Firmware/ArmMainControler/libraries/zf_device/zf_device_scc8660_dvp.c:110 (discriminator 1)
    1374:	83c1c703          	lbu	a4,-1988(gp) # 2000025c <scc8660_uart_receive_dvp>
    1378:	0a500793          	li	a5,165
    137c:	00f70463          	beq	a4,a5,1384 <scc8660_uart_callback_dvp+0x46>
D:/projects/mechanical_arm/Firmware/ArmMainControler/libraries/zf_device/zf_device_scc8660_dvp.c:110 (discriminator 2)
    1380:	82018fa3          	sb	zero,-1985(gp) # 2000025f <scc8660_uart_receive_num_dvp>
D:/projects/mechanical_arm/Firmware/ArmMainControler/libraries/zf_device/zf_device_scc8660_dvp.c:111
    if(3 == scc8660_uart_receive_num_dvp)
    1384:	83f1c703          	lbu	a4,-1985(gp) # 2000025f <scc8660_uart_receive_num_dvp>
    1388:	478d                	li	a5,3
    138a:	00f71763          	bne	a4,a5,1398 <scc8660_uart_callback_dvp+0x5a>
D:/projects/mechanical_arm/Firmware/ArmMainControler/libraries/zf_device/zf_device_scc8660_dvp.c:113
    {
        scc8660_uart_receive_num_dvp = 0;
    138e:	82018fa3          	sb	zero,-1985(gp) # 2000025f <scc8660_uart_receive_num_dvp>
D:/projects/mechanical_arm/Firmware/ArmMainControler/libraries/zf_device/zf_device_scc8660_dvp.c:114
        scc8660_uart_receive_flag_dvp = 1;
    1392:	4705                	li	a4,1
    1394:	84e18023          	sb	a4,-1984(gp) # 20000260 <scc8660_uart_receive_flag_dvp>
D:/projects/mechanical_arm/Firmware/ArmMainControler/libraries/zf_device/zf_device_scc8660_dvp.c:116
    }
}
    1398:	0001                	nop
    139a:	40b2                	lw	ra,12(sp)
    139c:	4422                	lw	s0,8(sp)
    139e:	0141                	addi	sp,sp,16
    13a0:	8082                	ret

000013a2 <scc8660_vsync_dvp>:
scc8660_vsync_dvp():
D:/projects/mechanical_arm/Firmware/ArmMainControler/libraries/zf_device/zf_device_scc8660_dvp.c:452
//  @return     void
//  @since      v1.0
//  Sample usage:               在isr.c里面先创建对应的中断函数，然后调用该函数(之后别忘记清除中断标志位)
//-------------------------------------------------------------------------------------------------------------------
void scc8660_vsync_dvp(void)
{
    13a2:	1141                	addi	sp,sp,-16
    13a4:	c622                	sw	s0,12(sp)
    13a6:	0800                	addi	s0,sp,16
D:/projects/mechanical_arm/Firmware/ArmMainControler/libraries/zf_device/zf_device_scc8660_dvp.c:458
    //已经修改为循环采集模式。不需要设置地址和开启DVP
    //恢复DMA地址
    //DVP->DMA_BUF0 = (uint32)camera_buffer_addr;

    //采集完成标志位置1
    scc8660_finish_flag_dvp = 1;
    13a8:	4705                	li	a4,1
    13aa:	84e180a3          	sb	a4,-1983(gp) # 20000261 <scc8660_finish_flag_dvp>
D:/projects/mechanical_arm/Firmware/ArmMainControler/libraries/zf_device/zf_device_scc8660_dvp.c:463

    //已经修改为循环采集模式。不需要设置地址和开启DVP
    //开启DVP
    //DVP->CR0 |= RB_DVP_ENABLE;
}
    13ae:	0001                	nop
    13b0:	4432                	lw	s0,12(sp)
    13b2:	0141                	addi	sp,sp,16
    13b4:	8082                	ret

000013b6 <tft180_write_index>:
tft180_write_index():
D:/projects/mechanical_arm/Firmware/ArmMainControler/libraries/zf_device/zf_device_tft180.c:58
//-------------------------------------------------------------------------------------------------------------------
// @brief       写命令 内部调用
// @note        内部调用 用户无需关心
//-------------------------------------------------------------------------------------------------------------------
static void tft180_write_index (uint8 dat)
{
    13b6:	1101                	addi	sp,sp,-32
    13b8:	ce06                	sw	ra,28(sp)
    13ba:	cc22                	sw	s0,24(sp)
    13bc:	1000                	addi	s0,sp,32
    13be:	87aa                	mv	a5,a0
    13c0:	fef407a3          	sb	a5,-17(s0)
D:/projects/mechanical_arm/Firmware/ArmMainControler/libraries/zf_device/zf_device_tft180.c:59
    TFT180_CS(1);
    13c4:	67a9                	lui	a5,0xa
    13c6:	84078793          	addi	a5,a5,-1984 # 9840 <gpio_group>
    13ca:	43dc                	lw	a5,4(a5)
    13cc:	873e                	mv	a4,a5
    13ce:	6785                	lui	a5,0x1
    13d0:	cb1c                	sw	a5,16(a4)
D:/projects/mechanical_arm/Firmware/ArmMainControler/libraries/zf_device/zf_device_tft180.c:60
    TFT180_CS(0);
    13d2:	67a9                	lui	a5,0xa
    13d4:	84078793          	addi	a5,a5,-1984 # 9840 <gpio_group>
    13d8:	43dc                	lw	a5,4(a5)
    13da:	873e                	mv	a4,a5
    13dc:	6785                	lui	a5,0x1
    13de:	cb5c                	sw	a5,20(a4)
D:/projects/mechanical_arm/Firmware/ArmMainControler/libraries/zf_device/zf_device_tft180.c:61
    TFT180_DC(0);
    13e0:	67a9                	lui	a5,0xa
    13e2:	84078793          	addi	a5,a5,-1984 # 9840 <gpio_group>
    13e6:	47dc                	lw	a5,12(a5)
    13e8:	873e                	mv	a4,a5
    13ea:	10000793          	li	a5,256
    13ee:	cb5c                	sw	a5,20(a4)
D:/projects/mechanical_arm/Firmware/ArmMainControler/libraries/zf_device/zf_device_tft180.c:62
    tft180_write_8bit_data(dat);
    13f0:	fef44783          	lbu	a5,-17(s0)
    13f4:	85be                	mv	a1,a5
    13f6:	4505                	li	a0,1
    13f8:	d84ff0ef          	jal	ra,97c <spi_write_8bit>
D:/projects/mechanical_arm/Firmware/ArmMainControler/libraries/zf_device/zf_device_tft180.c:63
    TFT180_CS(1);
    13fc:	67a9                	lui	a5,0xa
    13fe:	84078793          	addi	a5,a5,-1984 # 9840 <gpio_group>
    1402:	43dc                	lw	a5,4(a5)
    1404:	873e                	mv	a4,a5
    1406:	6785                	lui	a5,0x1
    1408:	cb1c                	sw	a5,16(a4)
D:/projects/mechanical_arm/Firmware/ArmMainControler/libraries/zf_device/zf_device_tft180.c:64
    TFT180_DC(1);
    140a:	67a9                	lui	a5,0xa
    140c:	84078793          	addi	a5,a5,-1984 # 9840 <gpio_group>
    1410:	47dc                	lw	a5,12(a5)
    1412:	873e                	mv	a4,a5
    1414:	10000793          	li	a5,256
    1418:	cb1c                	sw	a5,16(a4)
D:/projects/mechanical_arm/Firmware/ArmMainControler/libraries/zf_device/zf_device_tft180.c:65
    TFT180_CS(0);
    141a:	67a9                	lui	a5,0xa
    141c:	84078793          	addi	a5,a5,-1984 # 9840 <gpio_group>
    1420:	43dc                	lw	a5,4(a5)
    1422:	873e                	mv	a4,a5
    1424:	6785                	lui	a5,0x1
    1426:	cb5c                	sw	a5,20(a4)
D:/projects/mechanical_arm/Firmware/ArmMainControler/libraries/zf_device/zf_device_tft180.c:66
}
    1428:	0001                	nop
    142a:	40f2                	lw	ra,28(sp)
    142c:	4462                	lw	s0,24(sp)
    142e:	6105                	addi	sp,sp,32
    1430:	8082                	ret

00001432 <tft180_set_region>:
tft180_set_region():
D:/projects/mechanical_arm/Firmware/ArmMainControler/libraries/zf_device/zf_device_tft180.c:78
// @param       y2              结束y轴坐标
// @return      void
// @note        内部调用 用户无需关心
//-------------------------------------------------------------------------------------------------------------------
static void tft180_set_region (uint16 x1, uint16 y1, uint16 x2, uint16 y2)
{
    1432:	1101                	addi	sp,sp,-32
    1434:	ce06                	sw	ra,28(sp)
    1436:	cc22                	sw	s0,24(sp)
    1438:	1000                	addi	s0,sp,32
    143a:	87aa                	mv	a5,a0
    143c:	8736                	mv	a4,a3
    143e:	fef41723          	sh	a5,-18(s0)
    1442:	87ae                	mv	a5,a1
    1444:	fef41623          	sh	a5,-20(s0)
    1448:	87b2                	mv	a5,a2
    144a:	fef41523          	sh	a5,-22(s0)
    144e:	87ba                	mv	a5,a4
    1450:	fef41423          	sh	a5,-24(s0)
D:/projects/mechanical_arm/Firmware/ArmMainControler/libraries/zf_device/zf_device_tft180.c:79
    zf_assert(x1 < tft180_x_max);
    1454:	200007b7          	lui	a5,0x20000
    1458:	2247c783          	lbu	a5,548(a5) # 20000224 <tft180_x_max>
    145c:	07c2                	slli	a5,a5,0x10
    145e:	83c1                	srli	a5,a5,0x10
    1460:	fee45703          	lhu	a4,-18(s0)
    1464:	00f737b3          	sltu	a5,a4,a5
    1468:	0ff7f793          	andi	a5,a5,255
    146c:	873e                	mv	a4,a5
    146e:	04f00613          	li	a2,79
    1472:	67a5                	lui	a5,0x9
    1474:	75078593          	addi	a1,a5,1872 # 9750 <_sbrk+0x7e>
    1478:	853a                	mv	a0,a4
    147a:	3e3000ef          	jal	ra,205c <debug_assert_handler>
D:/projects/mechanical_arm/Firmware/ArmMainControler/libraries/zf_device/zf_device_tft180.c:80
    zf_assert(y1 < tft180_y_max);
    147e:	8051c783          	lbu	a5,-2043(gp) # 20000225 <tft180_y_max>
    1482:	07c2                	slli	a5,a5,0x10
    1484:	83c1                	srli	a5,a5,0x10
    1486:	fec45703          	lhu	a4,-20(s0)
    148a:	00f737b3          	sltu	a5,a4,a5
    148e:	0ff7f793          	andi	a5,a5,255
    1492:	873e                	mv	a4,a5
    1494:	05000613          	li	a2,80
    1498:	67a5                	lui	a5,0x9
    149a:	75078593          	addi	a1,a5,1872 # 9750 <_sbrk+0x7e>
    149e:	853a                	mv	a0,a4
    14a0:	3bd000ef          	jal	ra,205c <debug_assert_handler>
D:/projects/mechanical_arm/Firmware/ArmMainControler/libraries/zf_device/zf_device_tft180.c:81
    zf_assert(x2 < tft180_x_max);
    14a4:	200007b7          	lui	a5,0x20000
    14a8:	2247c783          	lbu	a5,548(a5) # 20000224 <tft180_x_max>
    14ac:	07c2                	slli	a5,a5,0x10
    14ae:	83c1                	srli	a5,a5,0x10
    14b0:	fea45703          	lhu	a4,-22(s0)
    14b4:	00f737b3          	sltu	a5,a4,a5
    14b8:	0ff7f793          	andi	a5,a5,255
    14bc:	873e                	mv	a4,a5
    14be:	05100613          	li	a2,81
    14c2:	67a5                	lui	a5,0x9
    14c4:	75078593          	addi	a1,a5,1872 # 9750 <_sbrk+0x7e>
    14c8:	853a                	mv	a0,a4
    14ca:	393000ef          	jal	ra,205c <debug_assert_handler>
D:/projects/mechanical_arm/Firmware/ArmMainControler/libraries/zf_device/zf_device_tft180.c:82
    zf_assert(y2 < tft180_y_max);
    14ce:	8051c783          	lbu	a5,-2043(gp) # 20000225 <tft180_y_max>
    14d2:	07c2                	slli	a5,a5,0x10
    14d4:	83c1                	srli	a5,a5,0x10
    14d6:	fe845703          	lhu	a4,-24(s0)
    14da:	00f737b3          	sltu	a5,a4,a5
    14de:	0ff7f793          	andi	a5,a5,255
    14e2:	873e                	mv	a4,a5
    14e4:	05200613          	li	a2,82
    14e8:	67a5                	lui	a5,0x9
    14ea:	75078593          	addi	a1,a5,1872 # 9750 <_sbrk+0x7e>
    14ee:	853a                	mv	a0,a4
    14f0:	36d000ef          	jal	ra,205c <debug_assert_handler>
D:/projects/mechanical_arm/Firmware/ArmMainControler/libraries/zf_device/zf_device_tft180.c:84

    if(tft180_display_dir==TFT180_PORTAIT || tft180_display_dir==TFT180_PORTAIT_180)
    14f4:	8441a783          	lw	a5,-1980(gp) # 20000264 <tft180_display_dir>
    14f8:	c791                	beqz	a5,1504 <tft180_set_region+0xd2>
D:/projects/mechanical_arm/Firmware/ArmMainControler/libraries/zf_device/zf_device_tft180.c:84 (discriminator 1)
    14fa:	8441a703          	lw	a4,-1980(gp) # 20000264 <tft180_display_dir>
    14fe:	4785                	li	a5,1
    1500:	08f71563          	bne	a4,a5,158a <tft180_set_region+0x158>
D:/projects/mechanical_arm/Firmware/ArmMainControler/libraries/zf_device/zf_device_tft180.c:86
    {
        tft180_write_index(0x2a);
    1504:	02a00513          	li	a0,42
    1508:	357d                	jal	13b6 <tft180_write_index>
D:/projects/mechanical_arm/Firmware/ArmMainControler/libraries/zf_device/zf_device_tft180.c:87
        tft180_write_8bit_data(0x00);
    150a:	4581                	li	a1,0
    150c:	4505                	li	a0,1
    150e:	c6eff0ef          	jal	ra,97c <spi_write_8bit>
D:/projects/mechanical_arm/Firmware/ArmMainControler/libraries/zf_device/zf_device_tft180.c:88
        tft180_write_8bit_data(x1+2);
    1512:	fee45783          	lhu	a5,-18(s0)
    1516:	0ff7f793          	andi	a5,a5,255
    151a:	0789                	addi	a5,a5,2
    151c:	0ff7f793          	andi	a5,a5,255
    1520:	85be                	mv	a1,a5
    1522:	4505                	li	a0,1
    1524:	c58ff0ef          	jal	ra,97c <spi_write_8bit>
D:/projects/mechanical_arm/Firmware/ArmMainControler/libraries/zf_device/zf_device_tft180.c:89
        tft180_write_8bit_data(0x00);
    1528:	4581                	li	a1,0
    152a:	4505                	li	a0,1
    152c:	c50ff0ef          	jal	ra,97c <spi_write_8bit>
D:/projects/mechanical_arm/Firmware/ArmMainControler/libraries/zf_device/zf_device_tft180.c:90
        tft180_write_8bit_data(x2+2);
    1530:	fea45783          	lhu	a5,-22(s0)
    1534:	0ff7f793          	andi	a5,a5,255
    1538:	0789                	addi	a5,a5,2
    153a:	0ff7f793          	andi	a5,a5,255
    153e:	85be                	mv	a1,a5
    1540:	4505                	li	a0,1
    1542:	c3aff0ef          	jal	ra,97c <spi_write_8bit>
D:/projects/mechanical_arm/Firmware/ArmMainControler/libraries/zf_device/zf_device_tft180.c:92

        tft180_write_index(0x2b);
    1546:	02b00513          	li	a0,43
    154a:	35b5                	jal	13b6 <tft180_write_index>
D:/projects/mechanical_arm/Firmware/ArmMainControler/libraries/zf_device/zf_device_tft180.c:93
        tft180_write_8bit_data(0x00);
    154c:	4581                	li	a1,0
    154e:	4505                	li	a0,1
    1550:	c2cff0ef          	jal	ra,97c <spi_write_8bit>
D:/projects/mechanical_arm/Firmware/ArmMainControler/libraries/zf_device/zf_device_tft180.c:94
        tft180_write_8bit_data(y1+1);
    1554:	fec45783          	lhu	a5,-20(s0)
    1558:	0ff7f793          	andi	a5,a5,255
    155c:	0785                	addi	a5,a5,1
    155e:	0ff7f793          	andi	a5,a5,255
    1562:	85be                	mv	a1,a5
    1564:	4505                	li	a0,1
    1566:	c16ff0ef          	jal	ra,97c <spi_write_8bit>
D:/projects/mechanical_arm/Firmware/ArmMainControler/libraries/zf_device/zf_device_tft180.c:95
        tft180_write_8bit_data(0x00);
    156a:	4581                	li	a1,0
    156c:	4505                	li	a0,1
    156e:	c0eff0ef          	jal	ra,97c <spi_write_8bit>
D:/projects/mechanical_arm/Firmware/ArmMainControler/libraries/zf_device/zf_device_tft180.c:96
        tft180_write_8bit_data(y2+1);
    1572:	fe845783          	lhu	a5,-24(s0)
    1576:	0ff7f793          	andi	a5,a5,255
    157a:	0785                	addi	a5,a5,1
    157c:	0ff7f793          	andi	a5,a5,255
    1580:	85be                	mv	a1,a5
    1582:	4505                	li	a0,1
    1584:	bf8ff0ef          	jal	ra,97c <spi_write_8bit>
    1588:	a059                	j	160e <tft180_set_region+0x1dc>
D:/projects/mechanical_arm/Firmware/ArmMainControler/libraries/zf_device/zf_device_tft180.c:100
    }
    else
    {
        tft180_write_index(0x2a);
    158a:	02a00513          	li	a0,42
    158e:	3525                	jal	13b6 <tft180_write_index>
D:/projects/mechanical_arm/Firmware/ArmMainControler/libraries/zf_device/zf_device_tft180.c:101
        tft180_write_8bit_data(0x00);
    1590:	4581                	li	a1,0
    1592:	4505                	li	a0,1
    1594:	be8ff0ef          	jal	ra,97c <spi_write_8bit>
D:/projects/mechanical_arm/Firmware/ArmMainControler/libraries/zf_device/zf_device_tft180.c:102
        tft180_write_8bit_data(x1+1);
    1598:	fee45783          	lhu	a5,-18(s0)
    159c:	0ff7f793          	andi	a5,a5,255
    15a0:	0785                	addi	a5,a5,1
    15a2:	0ff7f793          	andi	a5,a5,255
    15a6:	85be                	mv	a1,a5
    15a8:	4505                	li	a0,1
    15aa:	bd2ff0ef          	jal	ra,97c <spi_write_8bit>
D:/projects/mechanical_arm/Firmware/ArmMainControler/libraries/zf_device/zf_device_tft180.c:103
        tft180_write_8bit_data(0x0);
    15ae:	4581                	li	a1,0
    15b0:	4505                	li	a0,1
    15b2:	bcaff0ef          	jal	ra,97c <spi_write_8bit>
D:/projects/mechanical_arm/Firmware/ArmMainControler/libraries/zf_device/zf_device_tft180.c:104
        tft180_write_8bit_data(x2+1);
    15b6:	fea45783          	lhu	a5,-22(s0)
    15ba:	0ff7f793          	andi	a5,a5,255
    15be:	0785                	addi	a5,a5,1
    15c0:	0ff7f793          	andi	a5,a5,255
    15c4:	85be                	mv	a1,a5
    15c6:	4505                	li	a0,1
    15c8:	bb4ff0ef          	jal	ra,97c <spi_write_8bit>
D:/projects/mechanical_arm/Firmware/ArmMainControler/libraries/zf_device/zf_device_tft180.c:106

        tft180_write_index(0x2b);
    15cc:	02b00513          	li	a0,43
    15d0:	33dd                	jal	13b6 <tft180_write_index>
D:/projects/mechanical_arm/Firmware/ArmMainControler/libraries/zf_device/zf_device_tft180.c:107
        tft180_write_8bit_data(0x00);
    15d2:	4581                	li	a1,0
    15d4:	4505                	li	a0,1
    15d6:	ba6ff0ef          	jal	ra,97c <spi_write_8bit>
D:/projects/mechanical_arm/Firmware/ArmMainControler/libraries/zf_device/zf_device_tft180.c:108
        tft180_write_8bit_data(y1+2);
    15da:	fec45783          	lhu	a5,-20(s0)
    15de:	0ff7f793          	andi	a5,a5,255
    15e2:	0789                	addi	a5,a5,2
    15e4:	0ff7f793          	andi	a5,a5,255
    15e8:	85be                	mv	a1,a5
    15ea:	4505                	li	a0,1
    15ec:	b90ff0ef          	jal	ra,97c <spi_write_8bit>
D:/projects/mechanical_arm/Firmware/ArmMainControler/libraries/zf_device/zf_device_tft180.c:109
        tft180_write_8bit_data(0x00);
    15f0:	4581                	li	a1,0
    15f2:	4505                	li	a0,1
    15f4:	b88ff0ef          	jal	ra,97c <spi_write_8bit>
D:/projects/mechanical_arm/Firmware/ArmMainControler/libraries/zf_device/zf_device_tft180.c:110
        tft180_write_8bit_data(y2+2);
    15f8:	fe845783          	lhu	a5,-24(s0)
    15fc:	0ff7f793          	andi	a5,a5,255
    1600:	0789                	addi	a5,a5,2
    1602:	0ff7f793          	andi	a5,a5,255
    1606:	85be                	mv	a1,a5
    1608:	4505                	li	a0,1
    160a:	b72ff0ef          	jal	ra,97c <spi_write_8bit>
D:/projects/mechanical_arm/Firmware/ArmMainControler/libraries/zf_device/zf_device_tft180.c:112
    }
    tft180_write_index(0x2c);
    160e:	02c00513          	li	a0,44
    1612:	3355                	jal	13b6 <tft180_write_index>
D:/projects/mechanical_arm/Firmware/ArmMainControler/libraries/zf_device/zf_device_tft180.c:113
}
    1614:	0001                	nop
    1616:	40f2                	lw	ra,28(sp)
    1618:	4462                	lw	s0,24(sp)
    161a:	6105                	addi	sp,sp,32
    161c:	8082                	ret

0000161e <tft180_clear>:
tft180_clear():
D:/projects/mechanical_arm/Firmware/ArmMainControler/libraries/zf_device/zf_device_tft180.c:122
// @param       color           颜色格式 RGB565 或者可以使用 zf_common_font.h 内常用颜色宏定义
// @return      void
// Sample usage:                tft180_clear(YELLOW);
//-------------------------------------------------------------------------------------------------------------------
void tft180_clear (uint16 color)
{
    161e:	7179                	addi	sp,sp,-48
    1620:	d606                	sw	ra,44(sp)
    1622:	d422                	sw	s0,40(sp)
    1624:	1800                	addi	s0,sp,48
    1626:	87aa                	mv	a5,a0
    1628:	fcf41f23          	sh	a5,-34(s0)
D:/projects/mechanical_arm/Firmware/ArmMainControler/libraries/zf_device/zf_device_tft180.c:123
    uint32 i = tft180_x_max*tft180_y_max;
    162c:	200007b7          	lui	a5,0x20000
    1630:	2247c783          	lbu	a5,548(a5) # 20000224 <tft180_x_max>
    1634:	873e                	mv	a4,a5
    1636:	8051c783          	lbu	a5,-2043(gp) # 20000225 <tft180_y_max>
    163a:	02f707b3          	mul	a5,a4,a5
    163e:	fef42623          	sw	a5,-20(s0)
D:/projects/mechanical_arm/Firmware/ArmMainControler/libraries/zf_device/zf_device_tft180.c:125

    tft180_set_region(0,0,tft180_x_max-1,tft180_y_max-1);
    1642:	200007b7          	lui	a5,0x20000
    1646:	2247c783          	lbu	a5,548(a5) # 20000224 <tft180_x_max>
    164a:	07c2                	slli	a5,a5,0x10
    164c:	83c1                	srli	a5,a5,0x10
    164e:	17fd                	addi	a5,a5,-1
    1650:	01079713          	slli	a4,a5,0x10
    1654:	8341                	srli	a4,a4,0x10
    1656:	8051c783          	lbu	a5,-2043(gp) # 20000225 <tft180_y_max>
    165a:	07c2                	slli	a5,a5,0x10
    165c:	83c1                	srli	a5,a5,0x10
    165e:	17fd                	addi	a5,a5,-1
    1660:	07c2                	slli	a5,a5,0x10
    1662:	83c1                	srli	a5,a5,0x10
    1664:	86be                	mv	a3,a5
    1666:	863a                	mv	a2,a4
    1668:	4581                	li	a1,0
    166a:	4501                	li	a0,0
    166c:	33d9                	jal	1432 <tft180_set_region>
D:/projects/mechanical_arm/Firmware/ArmMainControler/libraries/zf_device/zf_device_tft180.c:126
    for( ; i>0; i--)
    166e:	a821                	j	1686 <tft180_clear+0x68>
D:/projects/mechanical_arm/Firmware/ArmMainControler/libraries/zf_device/zf_device_tft180.c:128 (discriminator 2)
    {
        tft180_write_16bit_data(color);
    1670:	fde45783          	lhu	a5,-34(s0)
    1674:	85be                	mv	a1,a5
    1676:	4505                	li	a0,1
    1678:	b5aff0ef          	jal	ra,9d2 <spi_write_16bit>
D:/projects/mechanical_arm/Firmware/ArmMainControler/libraries/zf_device/zf_device_tft180.c:126 (discriminator 2)
    for( ; i>0; i--)
    167c:	fec42783          	lw	a5,-20(s0)
    1680:	17fd                	addi	a5,a5,-1
    1682:	fef42623          	sw	a5,-20(s0)
D:/projects/mechanical_arm/Firmware/ArmMainControler/libraries/zf_device/zf_device_tft180.c:126 (discriminator 1)
    1686:	fec42783          	lw	a5,-20(s0)
    168a:	f3fd                	bnez	a5,1670 <tft180_clear+0x52>
D:/projects/mechanical_arm/Firmware/ArmMainControler/libraries/zf_device/zf_device_tft180.c:130
    }
}
    168c:	0001                	nop
    168e:	50b2                	lw	ra,44(sp)
    1690:	5422                	lw	s0,40(sp)
    1692:	6145                	addi	sp,sp,48
    1694:	8082                	ret

00001696 <tft180_set_dir>:
tft180_set_dir():
D:/projects/mechanical_arm/Firmware/ArmMainControler/libraries/zf_device/zf_device_tft180.c:139
// @param       dir             显示方向  参照 zf_device_ips114.h 内 tft180_dir_enum 枚举体定义
// @return      void
// Sample usage:                tft180_set_dir(TFT180_CROSSWISE);
//-------------------------------------------------------------------------------------------------------------------
void tft180_set_dir (tft180_dir_enum dir)
{
    1696:	1101                	addi	sp,sp,-32
    1698:	ce22                	sw	s0,28(sp)
    169a:	1000                	addi	s0,sp,32
    169c:	fea42623          	sw	a0,-20(s0)
D:/projects/mechanical_arm/Firmware/ArmMainControler/libraries/zf_device/zf_device_tft180.c:140
    tft180_display_dir = dir;
    16a0:	fec42703          	lw	a4,-20(s0)
    16a4:	84e1a223          	sw	a4,-1980(gp) # 20000264 <tft180_display_dir>
D:/projects/mechanical_arm/Firmware/ArmMainControler/libraries/zf_device/zf_device_tft180.c:141
    if(dir < 2)
    16a8:	fec42703          	lw	a4,-20(s0)
    16ac:	4785                	li	a5,1
    16ae:	00e7ed63          	bltu	a5,a4,16c8 <tft180_set_dir+0x32>
D:/projects/mechanical_arm/Firmware/ArmMainControler/libraries/zf_device/zf_device_tft180.c:143
    {
        tft180_x_max = 128;
    16b2:	200007b7          	lui	a5,0x20000
    16b6:	f8000713          	li	a4,-128
    16ba:	22e78223          	sb	a4,548(a5) # 20000224 <tft180_x_max>
D:/projects/mechanical_arm/Firmware/ArmMainControler/libraries/zf_device/zf_device_tft180.c:144
        tft180_y_max = 160;
    16be:	fa000713          	li	a4,-96
    16c2:	80e182a3          	sb	a4,-2043(gp) # 20000225 <tft180_y_max>
D:/projects/mechanical_arm/Firmware/ArmMainControler/libraries/zf_device/zf_device_tft180.c:151
    else
    {
        tft180_x_max = 160;
        tft180_y_max = 128;
    }
}
    16c6:	a819                	j	16dc <tft180_set_dir+0x46>
D:/projects/mechanical_arm/Firmware/ArmMainControler/libraries/zf_device/zf_device_tft180.c:148
        tft180_x_max = 160;
    16c8:	200007b7          	lui	a5,0x20000
    16cc:	fa000713          	li	a4,-96
    16d0:	22e78223          	sb	a4,548(a5) # 20000224 <tft180_x_max>
D:/projects/mechanical_arm/Firmware/ArmMainControler/libraries/zf_device/zf_device_tft180.c:149
        tft180_y_max = 128;
    16d4:	f8000713          	li	a4,-128
    16d8:	80e182a3          	sb	a4,-2043(gp) # 20000225 <tft180_y_max>
D:/projects/mechanical_arm/Firmware/ArmMainControler/libraries/zf_device/zf_device_tft180.c:151
}
    16dc:	0001                	nop
    16de:	4472                	lw	s0,28(sp)
    16e0:	6105                	addi	sp,sp,32
    16e2:	8082                	ret

000016e4 <tft180_set_color>:
tft180_set_color():
D:/projects/mechanical_arm/Firmware/ArmMainControler/libraries/zf_device/zf_device_tft180.c:161
// @param       bgcolor         颜色格式 RGB565 或者可以使用 zf_common_font.h 内常用颜色宏定义
// @return      void
// Sample usage:                tft180_set_color(WHITE,BLACK);
//-------------------------------------------------------------------------------------------------------------------
void tft180_set_color (uint16 pen, uint16 bgcolor)
{
    16e4:	1101                	addi	sp,sp,-32
    16e6:	ce22                	sw	s0,28(sp)
    16e8:	1000                	addi	s0,sp,32
    16ea:	87aa                	mv	a5,a0
    16ec:	872e                	mv	a4,a1
    16ee:	fef41723          	sh	a5,-18(s0)
    16f2:	87ba                	mv	a5,a4
    16f4:	fef41623          	sh	a5,-20(s0)
D:/projects/mechanical_arm/Firmware/ArmMainControler/libraries/zf_device/zf_device_tft180.c:162
    tft180_pencolor = pen;
    16f8:	200007b7          	lui	a5,0x20000
    16fc:	fee45703          	lhu	a4,-18(s0)
    1700:	22e79023          	sh	a4,544(a5) # 20000220 <tft180_pencolor>
D:/projects/mechanical_arm/Firmware/ArmMainControler/libraries/zf_device/zf_device_tft180.c:163
    tft180_bgcolor = bgcolor;
    1704:	200007b7          	lui	a5,0x20000
    1708:	fec45703          	lhu	a4,-20(s0)
    170c:	22e79123          	sh	a4,546(a5) # 20000222 <tft180_bgcolor>
D:/projects/mechanical_arm/Firmware/ArmMainControler/libraries/zf_device/zf_device_tft180.c:164
}
    1710:	0001                	nop
    1712:	4472                	lw	s0,28(sp)
    1714:	6105                	addi	sp,sp,32
    1716:	8082                	ret

00001718 <tft180_show_char>:
tft180_show_char():
D:/projects/mechanical_arm/Firmware/ArmMainControler/libraries/zf_device/zf_device_tft180.c:247
// @param       dat             需要显示的字符
// @return      void
// Sample usage:                tft180_show_char(0,0,'x');                      // 坐标 0,0 写一个字符 x
//-------------------------------------------------------------------------------------------------------------------
void tft180_show_char (uint16 x, uint16 y, const char dat)
{
    1718:	7179                	addi	sp,sp,-48
    171a:	d606                	sw	ra,44(sp)
    171c:	d422                	sw	s0,40(sp)
    171e:	1800                	addi	s0,sp,48
    1720:	87aa                	mv	a5,a0
    1722:	86ae                	mv	a3,a1
    1724:	8732                	mv	a4,a2
    1726:	fcf41f23          	sh	a5,-34(s0)
    172a:	87b6                	mv	a5,a3
    172c:	fcf41e23          	sh	a5,-36(s0)
    1730:	87ba                	mv	a5,a4
    1732:	fcf40da3          	sb	a5,-37(s0)
D:/projects/mechanical_arm/Firmware/ArmMainControler/libraries/zf_device/zf_device_tft180.c:248
    zf_assert(x < tft180_x_max);
    1736:	200007b7          	lui	a5,0x20000
    173a:	2247c783          	lbu	a5,548(a5) # 20000224 <tft180_x_max>
    173e:	07c2                	slli	a5,a5,0x10
    1740:	83c1                	srli	a5,a5,0x10
    1742:	fde45703          	lhu	a4,-34(s0)
    1746:	00f737b3          	sltu	a5,a4,a5
    174a:	0ff7f793          	andi	a5,a5,255
    174e:	873e                	mv	a4,a5
    1750:	0f800613          	li	a2,248
    1754:	67a5                	lui	a5,0x9
    1756:	75078593          	addi	a1,a5,1872 # 9750 <_sbrk+0x7e>
    175a:	853a                	mv	a0,a4
    175c:	101000ef          	jal	ra,205c <debug_assert_handler>
D:/projects/mechanical_arm/Firmware/ArmMainControler/libraries/zf_device/zf_device_tft180.c:249
    zf_assert(y < tft180_y_max);
    1760:	8051c783          	lbu	a5,-2043(gp) # 20000225 <tft180_y_max>
    1764:	07c2                	slli	a5,a5,0x10
    1766:	83c1                	srli	a5,a5,0x10
    1768:	fdc45703          	lhu	a4,-36(s0)
    176c:	00f737b3          	sltu	a5,a4,a5
    1770:	0ff7f793          	andi	a5,a5,255
    1774:	873e                	mv	a4,a5
    1776:	0f900613          	li	a2,249
    177a:	67a5                	lui	a5,0x9
    177c:	75078593          	addi	a1,a5,1872 # 9750 <_sbrk+0x7e>
    1780:	853a                	mv	a0,a4
    1782:	0db000ef          	jal	ra,205c <debug_assert_handler>
D:/projects/mechanical_arm/Firmware/ArmMainControler/libraries/zf_device/zf_device_tft180.c:254

    uint8 i,j;
    uint8 temp;

    for(i=0; i<16; i++)
    1786:	fe0407a3          	sb	zero,-17(s0)
    178a:	a875                	j	1846 <tft180_show_char+0x12e>
D:/projects/mechanical_arm/Firmware/ArmMainControler/libraries/zf_device/zf_device_tft180.c:256
    {
        tft180_set_region(x,y+i,x+7,y+i);
    178c:	fef44783          	lbu	a5,-17(s0)
    1790:	01079713          	slli	a4,a5,0x10
    1794:	8341                	srli	a4,a4,0x10
    1796:	fdc45783          	lhu	a5,-36(s0)
    179a:	97ba                	add	a5,a5,a4
    179c:	01079593          	slli	a1,a5,0x10
    17a0:	81c1                	srli	a1,a1,0x10
    17a2:	fde45783          	lhu	a5,-34(s0)
    17a6:	079d                	addi	a5,a5,7
    17a8:	01079613          	slli	a2,a5,0x10
    17ac:	8241                	srli	a2,a2,0x10
    17ae:	fef44783          	lbu	a5,-17(s0)
    17b2:	01079713          	slli	a4,a5,0x10
    17b6:	8341                	srli	a4,a4,0x10
    17b8:	fdc45783          	lhu	a5,-36(s0)
    17bc:	97ba                	add	a5,a5,a4
    17be:	01079713          	slli	a4,a5,0x10
    17c2:	8341                	srli	a4,a4,0x10
    17c4:	fde45783          	lhu	a5,-34(s0)
    17c8:	86ba                	mv	a3,a4
    17ca:	853e                	mv	a0,a5
    17cc:	319d                	jal	1432 <tft180_set_region>
D:/projects/mechanical_arm/Firmware/ArmMainControler/libraries/zf_device/zf_device_tft180.c:257
        temp = tft_ascii[dat-32][i];                                            //减 32 因为是取模是从空格开始取得 空格在 ascii 中序号是 32
    17ce:	fdb40783          	lb	a5,-37(s0)
    17d2:	fe078693          	addi	a3,a5,-32
    17d6:	fef44783          	lbu	a5,-17(s0)
    17da:	6729                	lui	a4,0xa
    17dc:	0692                	slli	a3,a3,0x4
    17de:	88070713          	addi	a4,a4,-1920 # 9880 <tft_ascii>
    17e2:	9736                	add	a4,a4,a3
    17e4:	97ba                	add	a5,a5,a4
    17e6:	0007c783          	lbu	a5,0(a5)
    17ea:	fef406a3          	sb	a5,-19(s0)
D:/projects/mechanical_arm/Firmware/ArmMainControler/libraries/zf_device/zf_device_tft180.c:258
        for(j=0; j<8; j++)
    17ee:	fe040723          	sb	zero,-18(s0)
    17f2:	a081                	j	1832 <tft180_show_char+0x11a>
D:/projects/mechanical_arm/Firmware/ArmMainControler/libraries/zf_device/zf_device_tft180.c:260
        {
            if(temp&0x01)   
    17f4:	fed44783          	lbu	a5,-19(s0)
    17f8:	8b85                	andi	a5,a5,1
    17fa:	cb91                	beqz	a5,180e <tft180_show_char+0xf6>
D:/projects/mechanical_arm/Firmware/ArmMainControler/libraries/zf_device/zf_device_tft180.c:261
                tft180_write_16bit_data(tft180_pencolor);
    17fc:	200007b7          	lui	a5,0x20000
    1800:	2207d783          	lhu	a5,544(a5) # 20000220 <tft180_pencolor>
    1804:	85be                	mv	a1,a5
    1806:	4505                	li	a0,1
    1808:	9caff0ef          	jal	ra,9d2 <spi_write_16bit>
    180c:	a809                	j	181e <tft180_show_char+0x106>
D:/projects/mechanical_arm/Firmware/ArmMainControler/libraries/zf_device/zf_device_tft180.c:263
            else
                tft180_write_16bit_data(tft180_bgcolor);
    180e:	200007b7          	lui	a5,0x20000
    1812:	2227d783          	lhu	a5,546(a5) # 20000222 <tft180_bgcolor>
    1816:	85be                	mv	a1,a5
    1818:	4505                	li	a0,1
    181a:	9b8ff0ef          	jal	ra,9d2 <spi_write_16bit>
D:/projects/mechanical_arm/Firmware/ArmMainControler/libraries/zf_device/zf_device_tft180.c:264 (discriminator 2)
            temp>>=1;
    181e:	fed44783          	lbu	a5,-19(s0)
    1822:	8385                	srli	a5,a5,0x1
    1824:	fef406a3          	sb	a5,-19(s0)
D:/projects/mechanical_arm/Firmware/ArmMainControler/libraries/zf_device/zf_device_tft180.c:258 (discriminator 2)
        for(j=0; j<8; j++)
    1828:	fee44783          	lbu	a5,-18(s0)
    182c:	0785                	addi	a5,a5,1
    182e:	fef40723          	sb	a5,-18(s0)
D:/projects/mechanical_arm/Firmware/ArmMainControler/libraries/zf_device/zf_device_tft180.c:258 (discriminator 1)
    1832:	fee44703          	lbu	a4,-18(s0)
    1836:	479d                	li	a5,7
    1838:	fae7fee3          	bgeu	a5,a4,17f4 <tft180_show_char+0xdc>
D:/projects/mechanical_arm/Firmware/ArmMainControler/libraries/zf_device/zf_device_tft180.c:254 (discriminator 2)
    for(i=0; i<16; i++)
    183c:	fef44783          	lbu	a5,-17(s0)
    1840:	0785                	addi	a5,a5,1
    1842:	fef407a3          	sb	a5,-17(s0)
D:/projects/mechanical_arm/Firmware/ArmMainControler/libraries/zf_device/zf_device_tft180.c:254 (discriminator 1)
    1846:	fef44703          	lbu	a4,-17(s0)
    184a:	47bd                	li	a5,15
    184c:	f4e7f0e3          	bgeu	a5,a4,178c <tft180_show_char+0x74>
D:/projects/mechanical_arm/Firmware/ArmMainControler/libraries/zf_device/zf_device_tft180.c:267
        }
    }
}
    1850:	0001                	nop
    1852:	50b2                	lw	ra,44(sp)
    1854:	5422                	lw	s0,40(sp)
    1856:	6145                	addi	sp,sp,48
    1858:	8082                	ret

0000185a <tft180_init>:
tft180_init():
D:/projects/mechanical_arm/Firmware/ArmMainControler/libraries/zf_device/zf_device_tft180.c:607
// @brief       1.8寸 TFT屏幕初始化
// @return      void
// Sample usage:                tft180_init();
//-------------------------------------------------------------------------------------------------------------------
void tft180_init (void)
{
    185a:	1101                	addi	sp,sp,-32
    185c:	ce06                	sw	ra,28(sp)
    185e:	cc22                	sw	s0,24(sp)
    1860:	ca4a                	sw	s2,20(sp)
    1862:	c84e                	sw	s3,16(sp)
    1864:	c652                	sw	s4,12(sp)
    1866:	c456                	sw	s5,8(sp)
    1868:	c25a                	sw	s6,4(sp)
    186a:	c05e                	sw	s7,0(sp)
    186c:	1000                	addi	s0,sp,32
D:/projects/mechanical_arm/Firmware/ArmMainControler/libraries/zf_device/zf_device_tft180.c:611
#if TFT180_USE_SOFT_SPI
    soft_spi_init(&tft180_spi, 0, TFT180_SOFT_SPI_DELAY, TFT180_SCL_PIN, TFT180_SDA_PIN, SOFT_SPI_PIN_NULL, SOFT_SPI_PIN_NULL);
#else
    spi_init(TFT180_SPI, SPI_MODE0, TFT180_SPI_SPEED, TFT180_SCL_PIN, TFT180_SDA_PIN, SPI_MISO_NULL, SPI_CS_NULL);
    186e:	8541a783          	lw	a5,-1964(gp) # 20000274 <system_clock>
    1872:	0027d613          	srli	a2,a5,0x2
    1876:	0ff00813          	li	a6,255
    187a:	0ff00793          	li	a5,255
    187e:	02200713          	li	a4,34
    1882:	02000693          	li	a3,32
    1886:	4581                	li	a1,0
    1888:	4505                	li	a0,1
    188a:	e8ffe0ef          	jal	ra,718 <spi_init>
D:/projects/mechanical_arm/Firmware/ArmMainControler/libraries/zf_device/zf_device_tft180.c:614
#endif

    gpio_init(TFT180_DC_PIN, GPO, GPIO_LOW, GPO_PUSH_PULL);
    188e:	46c1                	li	a3,16
    1890:	4601                	li	a2,0
    1892:	4585                	li	a1,1
    1894:	06800513          	li	a0,104
    1898:	ae7fe0ef          	jal	ra,37e <gpio_init>
D:/projects/mechanical_arm/Firmware/ArmMainControler/libraries/zf_device/zf_device_tft180.c:615
    gpio_init(TFT180_RES_PIN, GPO, GPIO_LOW, GPO_PUSH_PULL);
    189c:	46c1                	li	a3,16
    189e:	4601                	li	a2,0
    18a0:	4585                	li	a1,1
    18a2:	06a00513          	li	a0,106
    18a6:	ad9fe0ef          	jal	ra,37e <gpio_init>
D:/projects/mechanical_arm/Firmware/ArmMainControler/libraries/zf_device/zf_device_tft180.c:616
    gpio_init(TFT180_CS_PIN, GPO, GPIO_LOW, GPO_PUSH_PULL);
    18aa:	46c1                	li	a3,16
    18ac:	4601                	li	a2,0
    18ae:	4585                	li	a1,1
    18b0:	02c00513          	li	a0,44
    18b4:	acbfe0ef          	jal	ra,37e <gpio_init>
D:/projects/mechanical_arm/Firmware/ArmMainControler/libraries/zf_device/zf_device_tft180.c:617
    gpio_init(TFT180_BL_PIN, GPO, GPIO_HIGH, GPO_PUSH_PULL);
    18b8:	46c1                	li	a3,16
    18ba:	4605                	li	a2,1
    18bc:	4585                	li	a1,1
    18be:	06c00513          	li	a0,108
    18c2:	abdfe0ef          	jal	ra,37e <gpio_init>
D:/projects/mechanical_arm/Firmware/ArmMainControler/libraries/zf_device/zf_device_tft180.c:619

    tft180_set_dir(tft180_display_dir);
    18c6:	8441a783          	lw	a5,-1980(gp) # 20000264 <tft180_display_dir>
    18ca:	853e                	mv	a0,a5
    18cc:	33e9                	jal	1696 <tft180_set_dir>
D:/projects/mechanical_arm/Firmware/ArmMainControler/libraries/zf_device/zf_device_tft180.c:620
    tft180_set_color(tft180_pencolor, tft180_bgcolor);
    18ce:	200007b7          	lui	a5,0x20000
    18d2:	2207d703          	lhu	a4,544(a5) # 20000220 <tft180_pencolor>
    18d6:	200007b7          	lui	a5,0x20000
    18da:	2227d783          	lhu	a5,546(a5) # 20000222 <tft180_bgcolor>
    18de:	85be                	mv	a1,a5
    18e0:	853a                	mv	a0,a4
    18e2:	3509                	jal	16e4 <tft180_set_color>
D:/projects/mechanical_arm/Firmware/ArmMainControler/libraries/zf_device/zf_device_tft180.c:622

    TFT180_RES(0);
    18e4:	67a9                	lui	a5,0xa
    18e6:	84078793          	addi	a5,a5,-1984 # 9840 <gpio_group>
    18ea:	47dc                	lw	a5,12(a5)
    18ec:	873e                	mv	a4,a5
    18ee:	40000793          	li	a5,1024
    18f2:	cb5c                	sw	a5,20(a4)
D:/projects/mechanical_arm/Firmware/ArmMainControler/libraries/zf_device/zf_device_tft180.c:623
    system_delay_ms(10);
    18f4:	8541a703          	lw	a4,-1964(gp) # 20000274 <system_clock>
    18f8:	6789                	lui	a5,0x2
    18fa:	f4078793          	addi	a5,a5,-192 # 1f40 <clock_set_freq+0x188>
    18fe:	02f75733          	divu	a4,a4,a5
    1902:	87ba                	mv	a5,a4
    1904:	078a                	slli	a5,a5,0x2
    1906:	97ba                	add	a5,a5,a4
    1908:	0786                	slli	a5,a5,0x1
    190a:	8b3e                	mv	s6,a5
    190c:	4b81                	li	s7,0
    190e:	855a                	mv	a0,s6
    1910:	85de                	mv	a1,s7
    1912:	9abfe0ef          	jal	ra,2bc <system_delay>
D:/projects/mechanical_arm/Firmware/ArmMainControler/libraries/zf_device/zf_device_tft180.c:625

    TFT180_RES(1);
    1916:	67a9                	lui	a5,0xa
    1918:	84078793          	addi	a5,a5,-1984 # 9840 <gpio_group>
    191c:	47dc                	lw	a5,12(a5)
    191e:	873e                	mv	a4,a5
    1920:	40000793          	li	a5,1024
    1924:	cb1c                	sw	a5,16(a4)
D:/projects/mechanical_arm/Firmware/ArmMainControler/libraries/zf_device/zf_device_tft180.c:626
    system_delay_ms(120);
    1926:	8541a703          	lw	a4,-1964(gp) # 20000274 <system_clock>
    192a:	6789                	lui	a5,0x2
    192c:	f4078793          	addi	a5,a5,-192 # 1f40 <clock_set_freq+0x188>
    1930:	02f75733          	divu	a4,a4,a5
    1934:	87ba                	mv	a5,a4
    1936:	0792                	slli	a5,a5,0x4
    1938:	8f99                	sub	a5,a5,a4
    193a:	078e                	slli	a5,a5,0x3
    193c:	8a3e                	mv	s4,a5
    193e:	4a81                	li	s5,0
    1940:	8552                	mv	a0,s4
    1942:	85d6                	mv	a1,s5
    1944:	979fe0ef          	jal	ra,2bc <system_delay>
D:/projects/mechanical_arm/Firmware/ArmMainControler/libraries/zf_device/zf_device_tft180.c:628

    tft180_write_index(0x11);
    1948:	4545                	li	a0,17
    194a:	a6dff0ef          	jal	ra,13b6 <tft180_write_index>
D:/projects/mechanical_arm/Firmware/ArmMainControler/libraries/zf_device/zf_device_tft180.c:629
    system_delay_ms(120);
    194e:	8541a703          	lw	a4,-1964(gp) # 20000274 <system_clock>
    1952:	6789                	lui	a5,0x2
    1954:	f4078793          	addi	a5,a5,-192 # 1f40 <clock_set_freq+0x188>
    1958:	02f75733          	divu	a4,a4,a5
    195c:	87ba                	mv	a5,a4
    195e:	0792                	slli	a5,a5,0x4
    1960:	8f99                	sub	a5,a5,a4
    1962:	078e                	slli	a5,a5,0x3
    1964:	893e                	mv	s2,a5
    1966:	4981                	li	s3,0
    1968:	854a                	mv	a0,s2
    196a:	85ce                	mv	a1,s3
    196c:	951fe0ef          	jal	ra,2bc <system_delay>
D:/projects/mechanical_arm/Firmware/ArmMainControler/libraries/zf_device/zf_device_tft180.c:631

    tft180_write_index(0xB1);
    1970:	0b100513          	li	a0,177
    1974:	a43ff0ef          	jal	ra,13b6 <tft180_write_index>
D:/projects/mechanical_arm/Firmware/ArmMainControler/libraries/zf_device/zf_device_tft180.c:632
    tft180_write_8bit_data(0x01);
    1978:	4585                	li	a1,1
    197a:	4505                	li	a0,1
    197c:	800ff0ef          	jal	ra,97c <spi_write_8bit>
D:/projects/mechanical_arm/Firmware/ArmMainControler/libraries/zf_device/zf_device_tft180.c:633
    tft180_write_8bit_data(0x2C);
    1980:	02c00593          	li	a1,44
    1984:	4505                	li	a0,1
    1986:	ff7fe0ef          	jal	ra,97c <spi_write_8bit>
D:/projects/mechanical_arm/Firmware/ArmMainControler/libraries/zf_device/zf_device_tft180.c:634
    tft180_write_8bit_data(0x2D);
    198a:	02d00593          	li	a1,45
    198e:	4505                	li	a0,1
    1990:	fedfe0ef          	jal	ra,97c <spi_write_8bit>
D:/projects/mechanical_arm/Firmware/ArmMainControler/libraries/zf_device/zf_device_tft180.c:636

    tft180_write_index(0xB2);
    1994:	0b200513          	li	a0,178
    1998:	a1fff0ef          	jal	ra,13b6 <tft180_write_index>
D:/projects/mechanical_arm/Firmware/ArmMainControler/libraries/zf_device/zf_device_tft180.c:637
    tft180_write_8bit_data(0x01);
    199c:	4585                	li	a1,1
    199e:	4505                	li	a0,1
    19a0:	fddfe0ef          	jal	ra,97c <spi_write_8bit>
D:/projects/mechanical_arm/Firmware/ArmMainControler/libraries/zf_device/zf_device_tft180.c:638
    tft180_write_8bit_data(0x2C);
    19a4:	02c00593          	li	a1,44
    19a8:	4505                	li	a0,1
    19aa:	fd3fe0ef          	jal	ra,97c <spi_write_8bit>
D:/projects/mechanical_arm/Firmware/ArmMainControler/libraries/zf_device/zf_device_tft180.c:639
    tft180_write_8bit_data(0x2D);
    19ae:	02d00593          	li	a1,45
    19b2:	4505                	li	a0,1
    19b4:	fc9fe0ef          	jal	ra,97c <spi_write_8bit>
D:/projects/mechanical_arm/Firmware/ArmMainControler/libraries/zf_device/zf_device_tft180.c:641

    tft180_write_index(0xB3);
    19b8:	0b300513          	li	a0,179
    19bc:	9fbff0ef          	jal	ra,13b6 <tft180_write_index>
D:/projects/mechanical_arm/Firmware/ArmMainControler/libraries/zf_device/zf_device_tft180.c:642
    tft180_write_8bit_data(0x01);
    19c0:	4585                	li	a1,1
    19c2:	4505                	li	a0,1
    19c4:	fb9fe0ef          	jal	ra,97c <spi_write_8bit>
D:/projects/mechanical_arm/Firmware/ArmMainControler/libraries/zf_device/zf_device_tft180.c:643
    tft180_write_8bit_data(0x2C);
    19c8:	02c00593          	li	a1,44
    19cc:	4505                	li	a0,1
    19ce:	faffe0ef          	jal	ra,97c <spi_write_8bit>
D:/projects/mechanical_arm/Firmware/ArmMainControler/libraries/zf_device/zf_device_tft180.c:644
    tft180_write_8bit_data(0x2D);
    19d2:	02d00593          	li	a1,45
    19d6:	4505                	li	a0,1
    19d8:	fa5fe0ef          	jal	ra,97c <spi_write_8bit>
D:/projects/mechanical_arm/Firmware/ArmMainControler/libraries/zf_device/zf_device_tft180.c:645
    tft180_write_8bit_data(0x01);
    19dc:	4585                	li	a1,1
    19de:	4505                	li	a0,1
    19e0:	f9dfe0ef          	jal	ra,97c <spi_write_8bit>
D:/projects/mechanical_arm/Firmware/ArmMainControler/libraries/zf_device/zf_device_tft180.c:646
    tft180_write_8bit_data(0x2C);
    19e4:	02c00593          	li	a1,44
    19e8:	4505                	li	a0,1
    19ea:	f93fe0ef          	jal	ra,97c <spi_write_8bit>
D:/projects/mechanical_arm/Firmware/ArmMainControler/libraries/zf_device/zf_device_tft180.c:647
    tft180_write_8bit_data(0x2D);
    19ee:	02d00593          	li	a1,45
    19f2:	4505                	li	a0,1
    19f4:	f89fe0ef          	jal	ra,97c <spi_write_8bit>
D:/projects/mechanical_arm/Firmware/ArmMainControler/libraries/zf_device/zf_device_tft180.c:649

    tft180_write_index(0xB4);
    19f8:	0b400513          	li	a0,180
    19fc:	9bbff0ef          	jal	ra,13b6 <tft180_write_index>
D:/projects/mechanical_arm/Firmware/ArmMainControler/libraries/zf_device/zf_device_tft180.c:650
    tft180_write_8bit_data(0x07);
    1a00:	459d                	li	a1,7
    1a02:	4505                	li	a0,1
    1a04:	f79fe0ef          	jal	ra,97c <spi_write_8bit>
D:/projects/mechanical_arm/Firmware/ArmMainControler/libraries/zf_device/zf_device_tft180.c:652

    tft180_write_index(0xC0);
    1a08:	0c000513          	li	a0,192
    1a0c:	9abff0ef          	jal	ra,13b6 <tft180_write_index>
D:/projects/mechanical_arm/Firmware/ArmMainControler/libraries/zf_device/zf_device_tft180.c:653
    tft180_write_8bit_data(0xA2);
    1a10:	0a200593          	li	a1,162
    1a14:	4505                	li	a0,1
    1a16:	f67fe0ef          	jal	ra,97c <spi_write_8bit>
D:/projects/mechanical_arm/Firmware/ArmMainControler/libraries/zf_device/zf_device_tft180.c:654
    tft180_write_8bit_data(0x02);
    1a1a:	4589                	li	a1,2
    1a1c:	4505                	li	a0,1
    1a1e:	f5ffe0ef          	jal	ra,97c <spi_write_8bit>
D:/projects/mechanical_arm/Firmware/ArmMainControler/libraries/zf_device/zf_device_tft180.c:655
    tft180_write_8bit_data(0x84);
    1a22:	08400593          	li	a1,132
    1a26:	4505                	li	a0,1
    1a28:	f55fe0ef          	jal	ra,97c <spi_write_8bit>
D:/projects/mechanical_arm/Firmware/ArmMainControler/libraries/zf_device/zf_device_tft180.c:656
    tft180_write_index(0xC1);
    1a2c:	0c100513          	li	a0,193
    1a30:	987ff0ef          	jal	ra,13b6 <tft180_write_index>
D:/projects/mechanical_arm/Firmware/ArmMainControler/libraries/zf_device/zf_device_tft180.c:657
    tft180_write_8bit_data(0xC5);
    1a34:	0c500593          	li	a1,197
    1a38:	4505                	li	a0,1
    1a3a:	f43fe0ef          	jal	ra,97c <spi_write_8bit>
D:/projects/mechanical_arm/Firmware/ArmMainControler/libraries/zf_device/zf_device_tft180.c:659

    tft180_write_index(0xC2);
    1a3e:	0c200513          	li	a0,194
    1a42:	975ff0ef          	jal	ra,13b6 <tft180_write_index>
D:/projects/mechanical_arm/Firmware/ArmMainControler/libraries/zf_device/zf_device_tft180.c:660
    tft180_write_8bit_data(0x0A);
    1a46:	45a9                	li	a1,10
    1a48:	4505                	li	a0,1
    1a4a:	f33fe0ef          	jal	ra,97c <spi_write_8bit>
D:/projects/mechanical_arm/Firmware/ArmMainControler/libraries/zf_device/zf_device_tft180.c:661
    tft180_write_8bit_data(0x00);
    1a4e:	4581                	li	a1,0
    1a50:	4505                	li	a0,1
    1a52:	f2bfe0ef          	jal	ra,97c <spi_write_8bit>
D:/projects/mechanical_arm/Firmware/ArmMainControler/libraries/zf_device/zf_device_tft180.c:663

    tft180_write_index(0xC3);
    1a56:	0c300513          	li	a0,195
    1a5a:	95dff0ef          	jal	ra,13b6 <tft180_write_index>
D:/projects/mechanical_arm/Firmware/ArmMainControler/libraries/zf_device/zf_device_tft180.c:664
    tft180_write_8bit_data(0x8A);
    1a5e:	08a00593          	li	a1,138
    1a62:	4505                	li	a0,1
    1a64:	f19fe0ef          	jal	ra,97c <spi_write_8bit>
D:/projects/mechanical_arm/Firmware/ArmMainControler/libraries/zf_device/zf_device_tft180.c:665
    tft180_write_8bit_data(0x2A);
    1a68:	02a00593          	li	a1,42
    1a6c:	4505                	li	a0,1
    1a6e:	f0ffe0ef          	jal	ra,97c <spi_write_8bit>
D:/projects/mechanical_arm/Firmware/ArmMainControler/libraries/zf_device/zf_device_tft180.c:666
    tft180_write_index(0xC4);
    1a72:	0c400513          	li	a0,196
    1a76:	941ff0ef          	jal	ra,13b6 <tft180_write_index>
D:/projects/mechanical_arm/Firmware/ArmMainControler/libraries/zf_device/zf_device_tft180.c:667
    tft180_write_8bit_data(0x8A);
    1a7a:	08a00593          	li	a1,138
    1a7e:	4505                	li	a0,1
    1a80:	efdfe0ef          	jal	ra,97c <spi_write_8bit>
D:/projects/mechanical_arm/Firmware/ArmMainControler/libraries/zf_device/zf_device_tft180.c:668
    tft180_write_8bit_data(0xEE);
    1a84:	0ee00593          	li	a1,238
    1a88:	4505                	li	a0,1
    1a8a:	ef3fe0ef          	jal	ra,97c <spi_write_8bit>
D:/projects/mechanical_arm/Firmware/ArmMainControler/libraries/zf_device/zf_device_tft180.c:670

    tft180_write_index(0xC5);
    1a8e:	0c500513          	li	a0,197
    1a92:	925ff0ef          	jal	ra,13b6 <tft180_write_index>
D:/projects/mechanical_arm/Firmware/ArmMainControler/libraries/zf_device/zf_device_tft180.c:671
    tft180_write_8bit_data(0x0E);
    1a96:	45b9                	li	a1,14
    1a98:	4505                	li	a0,1
    1a9a:	ee3fe0ef          	jal	ra,97c <spi_write_8bit>
D:/projects/mechanical_arm/Firmware/ArmMainControler/libraries/zf_device/zf_device_tft180.c:673

    tft180_write_index(0x36);
    1a9e:	03600513          	li	a0,54
    1aa2:	915ff0ef          	jal	ra,13b6 <tft180_write_index>
D:/projects/mechanical_arm/Firmware/ArmMainControler/libraries/zf_device/zf_device_tft180.c:674
    switch(tft180_display_dir)                                                         // y x v
    1aa6:	8441a783          	lw	a5,-1980(gp) # 20000264 <tft180_display_dir>
    1aaa:	4705                	li	a4,1
    1aac:	02e78063          	beq	a5,a4,1acc <tft180_init+0x272>
    1ab0:	cb81                	beqz	a5,1ac0 <tft180_init+0x266>
    1ab2:	4709                	li	a4,2
    1ab4:	02e78163          	beq	a5,a4,1ad6 <tft180_init+0x27c>
    1ab8:	470d                	li	a4,3
    1aba:	02e78463          	beq	a5,a4,1ae2 <tft180_init+0x288>
    1abe:	a805                	j	1aee <tft180_init+0x294>
D:/projects/mechanical_arm/Firmware/ArmMainControler/libraries/zf_device/zf_device_tft180.c:676
    {
        case 0: tft180_write_8bit_data(1<<7 | 1<<6 | 0<<5);  break;                          // 竖屏模式
    1ac0:	0c000593          	li	a1,192
    1ac4:	4505                	li	a0,1
    1ac6:	eb7fe0ef          	jal	ra,97c <spi_write_8bit>
    1aca:	a015                	j	1aee <tft180_init+0x294>
D:/projects/mechanical_arm/Firmware/ArmMainControler/libraries/zf_device/zf_device_tft180.c:677
        case 1: tft180_write_8bit_data(0<<7 | 0<<6 | 0<<5);  break;                          // 竖屏模式  旋转180
    1acc:	4581                	li	a1,0
    1ace:	4505                	li	a0,1
    1ad0:	eadfe0ef          	jal	ra,97c <spi_write_8bit>
    1ad4:	a829                	j	1aee <tft180_init+0x294>
D:/projects/mechanical_arm/Firmware/ArmMainControler/libraries/zf_device/zf_device_tft180.c:678
        case 2: tft180_write_8bit_data(1<<7 | 0<<6 | 1<<5);  break;                          // 横屏模式
    1ad6:	0a000593          	li	a1,160
    1ada:	4505                	li	a0,1
    1adc:	ea1fe0ef          	jal	ra,97c <spi_write_8bit>
    1ae0:	a039                	j	1aee <tft180_init+0x294>
D:/projects/mechanical_arm/Firmware/ArmMainControler/libraries/zf_device/zf_device_tft180.c:679
        case 3: tft180_write_8bit_data(0<<7 | 1<<6 | 1<<5);  break;                          // 横屏模式  旋转180
    1ae2:	06000593          	li	a1,96
    1ae6:	4505                	li	a0,1
    1ae8:	e95fe0ef          	jal	ra,97c <spi_write_8bit>
    1aec:	0001                	nop
D:/projects/mechanical_arm/Firmware/ArmMainControler/libraries/zf_device/zf_device_tft180.c:682
    }

    tft180_write_index(0xe0);
    1aee:	0e000513          	li	a0,224
    1af2:	8c5ff0ef          	jal	ra,13b6 <tft180_write_index>
D:/projects/mechanical_arm/Firmware/ArmMainControler/libraries/zf_device/zf_device_tft180.c:683
    tft180_write_8bit_data(0x0f);
    1af6:	45bd                	li	a1,15
    1af8:	4505                	li	a0,1
    1afa:	e83fe0ef          	jal	ra,97c <spi_write_8bit>
D:/projects/mechanical_arm/Firmware/ArmMainControler/libraries/zf_device/zf_device_tft180.c:684
    tft180_write_8bit_data(0x1a);
    1afe:	45e9                	li	a1,26
    1b00:	4505                	li	a0,1
    1b02:	e7bfe0ef          	jal	ra,97c <spi_write_8bit>
D:/projects/mechanical_arm/Firmware/ArmMainControler/libraries/zf_device/zf_device_tft180.c:685
    tft180_write_8bit_data(0x0f);
    1b06:	45bd                	li	a1,15
    1b08:	4505                	li	a0,1
    1b0a:	e73fe0ef          	jal	ra,97c <spi_write_8bit>
D:/projects/mechanical_arm/Firmware/ArmMainControler/libraries/zf_device/zf_device_tft180.c:686
    tft180_write_8bit_data(0x18);
    1b0e:	45e1                	li	a1,24
    1b10:	4505                	li	a0,1
    1b12:	e6bfe0ef          	jal	ra,97c <spi_write_8bit>
D:/projects/mechanical_arm/Firmware/ArmMainControler/libraries/zf_device/zf_device_tft180.c:687
    tft180_write_8bit_data(0x2f);
    1b16:	02f00593          	li	a1,47
    1b1a:	4505                	li	a0,1
    1b1c:	e61fe0ef          	jal	ra,97c <spi_write_8bit>
D:/projects/mechanical_arm/Firmware/ArmMainControler/libraries/zf_device/zf_device_tft180.c:688
    tft180_write_8bit_data(0x28);
    1b20:	02800593          	li	a1,40
    1b24:	4505                	li	a0,1
    1b26:	e57fe0ef          	jal	ra,97c <spi_write_8bit>
D:/projects/mechanical_arm/Firmware/ArmMainControler/libraries/zf_device/zf_device_tft180.c:689
    tft180_write_8bit_data(0x20);
    1b2a:	02000593          	li	a1,32
    1b2e:	4505                	li	a0,1
    1b30:	e4dfe0ef          	jal	ra,97c <spi_write_8bit>
D:/projects/mechanical_arm/Firmware/ArmMainControler/libraries/zf_device/zf_device_tft180.c:690
    tft180_write_8bit_data(0x22);
    1b34:	02200593          	li	a1,34
    1b38:	4505                	li	a0,1
    1b3a:	e43fe0ef          	jal	ra,97c <spi_write_8bit>
D:/projects/mechanical_arm/Firmware/ArmMainControler/libraries/zf_device/zf_device_tft180.c:691
    tft180_write_8bit_data(0x1f);
    1b3e:	45fd                	li	a1,31
    1b40:	4505                	li	a0,1
    1b42:	e3bfe0ef          	jal	ra,97c <spi_write_8bit>
D:/projects/mechanical_arm/Firmware/ArmMainControler/libraries/zf_device/zf_device_tft180.c:692
    tft180_write_8bit_data(0x1b);
    1b46:	45ed                	li	a1,27
    1b48:	4505                	li	a0,1
    1b4a:	e33fe0ef          	jal	ra,97c <spi_write_8bit>
D:/projects/mechanical_arm/Firmware/ArmMainControler/libraries/zf_device/zf_device_tft180.c:693
    tft180_write_8bit_data(0x23);
    1b4e:	02300593          	li	a1,35
    1b52:	4505                	li	a0,1
    1b54:	e29fe0ef          	jal	ra,97c <spi_write_8bit>
D:/projects/mechanical_arm/Firmware/ArmMainControler/libraries/zf_device/zf_device_tft180.c:694
    tft180_write_8bit_data(0x37);
    1b58:	03700593          	li	a1,55
    1b5c:	4505                	li	a0,1
    1b5e:	e1ffe0ef          	jal	ra,97c <spi_write_8bit>
D:/projects/mechanical_arm/Firmware/ArmMainControler/libraries/zf_device/zf_device_tft180.c:695
    tft180_write_8bit_data(0x00);
    1b62:	4581                	li	a1,0
    1b64:	4505                	li	a0,1
    1b66:	e17fe0ef          	jal	ra,97c <spi_write_8bit>
D:/projects/mechanical_arm/Firmware/ArmMainControler/libraries/zf_device/zf_device_tft180.c:696
    tft180_write_8bit_data(0x07);
    1b6a:	459d                	li	a1,7
    1b6c:	4505                	li	a0,1
    1b6e:	e0ffe0ef          	jal	ra,97c <spi_write_8bit>
D:/projects/mechanical_arm/Firmware/ArmMainControler/libraries/zf_device/zf_device_tft180.c:697
    tft180_write_8bit_data(0x02);
    1b72:	4589                	li	a1,2
    1b74:	4505                	li	a0,1
    1b76:	e07fe0ef          	jal	ra,97c <spi_write_8bit>
D:/projects/mechanical_arm/Firmware/ArmMainControler/libraries/zf_device/zf_device_tft180.c:698
    tft180_write_8bit_data(0x10);
    1b7a:	45c1                	li	a1,16
    1b7c:	4505                	li	a0,1
    1b7e:	dfffe0ef          	jal	ra,97c <spi_write_8bit>
D:/projects/mechanical_arm/Firmware/ArmMainControler/libraries/zf_device/zf_device_tft180.c:700

    tft180_write_index(0xe1);
    1b82:	0e100513          	li	a0,225
    1b86:	831ff0ef          	jal	ra,13b6 <tft180_write_index>
D:/projects/mechanical_arm/Firmware/ArmMainControler/libraries/zf_device/zf_device_tft180.c:701
    tft180_write_8bit_data(0x0f);
    1b8a:	45bd                	li	a1,15
    1b8c:	4505                	li	a0,1
    1b8e:	deffe0ef          	jal	ra,97c <spi_write_8bit>
D:/projects/mechanical_arm/Firmware/ArmMainControler/libraries/zf_device/zf_device_tft180.c:702
    tft180_write_8bit_data(0x1b);
    1b92:	45ed                	li	a1,27
    1b94:	4505                	li	a0,1
    1b96:	de7fe0ef          	jal	ra,97c <spi_write_8bit>
D:/projects/mechanical_arm/Firmware/ArmMainControler/libraries/zf_device/zf_device_tft180.c:703
    tft180_write_8bit_data(0x0f);
    1b9a:	45bd                	li	a1,15
    1b9c:	4505                	li	a0,1
    1b9e:	ddffe0ef          	jal	ra,97c <spi_write_8bit>
D:/projects/mechanical_arm/Firmware/ArmMainControler/libraries/zf_device/zf_device_tft180.c:704
    tft180_write_8bit_data(0x17);
    1ba2:	45dd                	li	a1,23
    1ba4:	4505                	li	a0,1
    1ba6:	dd7fe0ef          	jal	ra,97c <spi_write_8bit>
D:/projects/mechanical_arm/Firmware/ArmMainControler/libraries/zf_device/zf_device_tft180.c:705
    tft180_write_8bit_data(0x33);
    1baa:	03300593          	li	a1,51
    1bae:	4505                	li	a0,1
    1bb0:	dcdfe0ef          	jal	ra,97c <spi_write_8bit>
D:/projects/mechanical_arm/Firmware/ArmMainControler/libraries/zf_device/zf_device_tft180.c:706
    tft180_write_8bit_data(0x2c);
    1bb4:	02c00593          	li	a1,44
    1bb8:	4505                	li	a0,1
    1bba:	dc3fe0ef          	jal	ra,97c <spi_write_8bit>
D:/projects/mechanical_arm/Firmware/ArmMainControler/libraries/zf_device/zf_device_tft180.c:707
    tft180_write_8bit_data(0x29);
    1bbe:	02900593          	li	a1,41
    1bc2:	4505                	li	a0,1
    1bc4:	db9fe0ef          	jal	ra,97c <spi_write_8bit>
D:/projects/mechanical_arm/Firmware/ArmMainControler/libraries/zf_device/zf_device_tft180.c:708
    tft180_write_8bit_data(0x2e);
    1bc8:	02e00593          	li	a1,46
    1bcc:	4505                	li	a0,1
    1bce:	daffe0ef          	jal	ra,97c <spi_write_8bit>
D:/projects/mechanical_arm/Firmware/ArmMainControler/libraries/zf_device/zf_device_tft180.c:709
    tft180_write_8bit_data(0x30);
    1bd2:	03000593          	li	a1,48
    1bd6:	4505                	li	a0,1
    1bd8:	da5fe0ef          	jal	ra,97c <spi_write_8bit>
D:/projects/mechanical_arm/Firmware/ArmMainControler/libraries/zf_device/zf_device_tft180.c:710
    tft180_write_8bit_data(0x30);
    1bdc:	03000593          	li	a1,48
    1be0:	4505                	li	a0,1
    1be2:	d9bfe0ef          	jal	ra,97c <spi_write_8bit>
D:/projects/mechanical_arm/Firmware/ArmMainControler/libraries/zf_device/zf_device_tft180.c:711
    tft180_write_8bit_data(0x39);
    1be6:	03900593          	li	a1,57
    1bea:	4505                	li	a0,1
    1bec:	d91fe0ef          	jal	ra,97c <spi_write_8bit>
D:/projects/mechanical_arm/Firmware/ArmMainControler/libraries/zf_device/zf_device_tft180.c:712
    tft180_write_8bit_data(0x3f);
    1bf0:	03f00593          	li	a1,63
    1bf4:	4505                	li	a0,1
    1bf6:	d87fe0ef          	jal	ra,97c <spi_write_8bit>
D:/projects/mechanical_arm/Firmware/ArmMainControler/libraries/zf_device/zf_device_tft180.c:713
    tft180_write_8bit_data(0x00);
    1bfa:	4581                	li	a1,0
    1bfc:	4505                	li	a0,1
    1bfe:	d7ffe0ef          	jal	ra,97c <spi_write_8bit>
D:/projects/mechanical_arm/Firmware/ArmMainControler/libraries/zf_device/zf_device_tft180.c:714
    tft180_write_8bit_data(0x07);
    1c02:	459d                	li	a1,7
    1c04:	4505                	li	a0,1
    1c06:	d77fe0ef          	jal	ra,97c <spi_write_8bit>
D:/projects/mechanical_arm/Firmware/ArmMainControler/libraries/zf_device/zf_device_tft180.c:715
    tft180_write_8bit_data(0x03);
    1c0a:	458d                	li	a1,3
    1c0c:	4505                	li	a0,1
    1c0e:	d6ffe0ef          	jal	ra,97c <spi_write_8bit>
D:/projects/mechanical_arm/Firmware/ArmMainControler/libraries/zf_device/zf_device_tft180.c:716
    tft180_write_8bit_data(0x10);
    1c12:	45c1                	li	a1,16
    1c14:	4505                	li	a0,1
    1c16:	d67fe0ef          	jal	ra,97c <spi_write_8bit>
D:/projects/mechanical_arm/Firmware/ArmMainControler/libraries/zf_device/zf_device_tft180.c:718

    tft180_write_index(0x2a);
    1c1a:	02a00513          	li	a0,42
    1c1e:	f98ff0ef          	jal	ra,13b6 <tft180_write_index>
D:/projects/mechanical_arm/Firmware/ArmMainControler/libraries/zf_device/zf_device_tft180.c:719
    tft180_write_8bit_data(0x00);
    1c22:	4581                	li	a1,0
    1c24:	4505                	li	a0,1
    1c26:	d57fe0ef          	jal	ra,97c <spi_write_8bit>
D:/projects/mechanical_arm/Firmware/ArmMainControler/libraries/zf_device/zf_device_tft180.c:720
    tft180_write_8bit_data(0x00+2);
    1c2a:	4589                	li	a1,2
    1c2c:	4505                	li	a0,1
    1c2e:	d4ffe0ef          	jal	ra,97c <spi_write_8bit>
D:/projects/mechanical_arm/Firmware/ArmMainControler/libraries/zf_device/zf_device_tft180.c:721
    tft180_write_8bit_data(0x00);
    1c32:	4581                	li	a1,0
    1c34:	4505                	li	a0,1
    1c36:	d47fe0ef          	jal	ra,97c <spi_write_8bit>
D:/projects/mechanical_arm/Firmware/ArmMainControler/libraries/zf_device/zf_device_tft180.c:722
    tft180_write_8bit_data(0x80+2);
    1c3a:	08200593          	li	a1,130
    1c3e:	4505                	li	a0,1
    1c40:	d3dfe0ef          	jal	ra,97c <spi_write_8bit>
D:/projects/mechanical_arm/Firmware/ArmMainControler/libraries/zf_device/zf_device_tft180.c:724

    tft180_write_index(0x2b);
    1c44:	02b00513          	li	a0,43
    1c48:	f6eff0ef          	jal	ra,13b6 <tft180_write_index>
D:/projects/mechanical_arm/Firmware/ArmMainControler/libraries/zf_device/zf_device_tft180.c:725
    tft180_write_8bit_data(0x00);
    1c4c:	4581                	li	a1,0
    1c4e:	4505                	li	a0,1
    1c50:	d2dfe0ef          	jal	ra,97c <spi_write_8bit>
D:/projects/mechanical_arm/Firmware/ArmMainControler/libraries/zf_device/zf_device_tft180.c:726
    tft180_write_8bit_data(0x00+3);
    1c54:	458d                	li	a1,3
    1c56:	4505                	li	a0,1
    1c58:	d25fe0ef          	jal	ra,97c <spi_write_8bit>
D:/projects/mechanical_arm/Firmware/ArmMainControler/libraries/zf_device/zf_device_tft180.c:727
    tft180_write_8bit_data(0x00);
    1c5c:	4581                	li	a1,0
    1c5e:	4505                	li	a0,1
    1c60:	d1dfe0ef          	jal	ra,97c <spi_write_8bit>
D:/projects/mechanical_arm/Firmware/ArmMainControler/libraries/zf_device/zf_device_tft180.c:728
    tft180_write_8bit_data(0x80+3);
    1c64:	08300593          	li	a1,131
    1c68:	4505                	li	a0,1
    1c6a:	d13fe0ef          	jal	ra,97c <spi_write_8bit>
D:/projects/mechanical_arm/Firmware/ArmMainControler/libraries/zf_device/zf_device_tft180.c:730

    tft180_write_index(0xF0);
    1c6e:	0f000513          	li	a0,240
    1c72:	f44ff0ef          	jal	ra,13b6 <tft180_write_index>
D:/projects/mechanical_arm/Firmware/ArmMainControler/libraries/zf_device/zf_device_tft180.c:731
    tft180_write_8bit_data(0x01);
    1c76:	4585                	li	a1,1
    1c78:	4505                	li	a0,1
    1c7a:	d03fe0ef          	jal	ra,97c <spi_write_8bit>
D:/projects/mechanical_arm/Firmware/ArmMainControler/libraries/zf_device/zf_device_tft180.c:732
    tft180_write_index(0xF6);
    1c7e:	0f600513          	li	a0,246
    1c82:	f34ff0ef          	jal	ra,13b6 <tft180_write_index>
D:/projects/mechanical_arm/Firmware/ArmMainControler/libraries/zf_device/zf_device_tft180.c:733
    tft180_write_8bit_data(0x00);
    1c86:	4581                	li	a1,0
    1c88:	4505                	li	a0,1
    1c8a:	cf3fe0ef          	jal	ra,97c <spi_write_8bit>
D:/projects/mechanical_arm/Firmware/ArmMainControler/libraries/zf_device/zf_device_tft180.c:735

    tft180_write_index(0x3A);
    1c8e:	03a00513          	li	a0,58
    1c92:	f24ff0ef          	jal	ra,13b6 <tft180_write_index>
D:/projects/mechanical_arm/Firmware/ArmMainControler/libraries/zf_device/zf_device_tft180.c:736
    tft180_write_8bit_data(0x05);
    1c96:	4595                	li	a1,5
    1c98:	4505                	li	a0,1
    1c9a:	ce3fe0ef          	jal	ra,97c <spi_write_8bit>
D:/projects/mechanical_arm/Firmware/ArmMainControler/libraries/zf_device/zf_device_tft180.c:737
    tft180_write_index(0x29);
    1c9e:	02900513          	li	a0,41
    1ca2:	f14ff0ef          	jal	ra,13b6 <tft180_write_index>
D:/projects/mechanical_arm/Firmware/ArmMainControler/libraries/zf_device/zf_device_tft180.c:739

    tft180_clear(tft180_bgcolor);
    1ca6:	200007b7          	lui	a5,0x20000
    1caa:	2227d783          	lhu	a5,546(a5) # 20000222 <tft180_bgcolor>
    1cae:	853e                	mv	a0,a5
    1cb0:	96fff0ef          	jal	ra,161e <tft180_clear>
D:/projects/mechanical_arm/Firmware/ArmMainControler/libraries/zf_device/zf_device_tft180.c:740
}
    1cb4:	0001                	nop
    1cb6:	40f2                	lw	ra,28(sp)
    1cb8:	4462                	lw	s0,24(sp)
    1cba:	4952                	lw	s2,20(sp)
    1cbc:	49c2                	lw	s3,16(sp)
    1cbe:	4a32                	lw	s4,12(sp)
    1cc0:	4aa2                	lw	s5,8(sp)
    1cc2:	4b12                	lw	s6,4(sp)
    1cc4:	4b82                	lw	s7,0(sp)
    1cc6:	6105                	addi	sp,sp,32
    1cc8:	8082                	ret

00001cca <wireless_ch573_callback>:
wireless_ch573_callback():
D:/projects/mechanical_arm/Firmware/ArmMainControler/libraries/zf_device/zf_device_wireless_ch573.c:37
// @return      void
// Sample usage:
// @note
//-------------------------------------------------------------------------------------------------------------------
void wireless_ch573_callback (void)
{
    1cca:	1141                	addi	sp,sp,-16
    1ccc:	c606                	sw	ra,12(sp)
    1cce:	c422                	sw	s0,8(sp)
    1cd0:	0800                	addi	s0,sp,16
D:/projects/mechanical_arm/Firmware/ArmMainControler/libraries/zf_device/zf_device_wireless_ch573.c:38
    uart_query_byte(WIRELESS_CH573_INDEX, &wireless_ch573_data);
    1cd2:	85018593          	addi	a1,gp,-1968 # 20000270 <wireless_ch573_data>
    1cd6:	4505                	li	a0,1
    1cd8:	a2eff0ef          	jal	ra,f06 <uart_query_byte>
D:/projects/mechanical_arm/Firmware/ArmMainControler/libraries/zf_device/zf_device_wireless_ch573.c:39
    fifo_write_buffer(&wireless_ch573_fifo, &wireless_ch573_data, 1);
    1cdc:	4605                	li	a2,1
    1cde:	85018593          	addi	a1,gp,-1968 # 20000270 <wireless_ch573_data>
    1ce2:	8b818513          	addi	a0,gp,-1864 # 200002d8 <wireless_ch573_fifo>
    1ce6:	2151                	jal	216a <fifo_write_buffer>
D:/projects/mechanical_arm/Firmware/ArmMainControler/libraries/zf_device/zf_device_wireless_ch573.c:41

}
    1ce8:	0001                	nop
    1cea:	40b2                	lw	ra,12(sp)
    1cec:	4422                	lw	s0,8(sp)
    1cee:	0141                	addi	sp,sp,16
    1cf0:	8082                	ret

00001cf2 <wireless_uart_callback>:
wireless_uart_callback():
D:/projects/mechanical_arm/Firmware/ArmMainControler/libraries/zf_device/zf_device_wireless_uart.c:41
// @return      void
// Sample usage:
// @note
//-------------------------------------------------------------------------------------------------------------------
void wireless_uart_callback (void)
{
    1cf2:	1141                	addi	sp,sp,-16
    1cf4:	c606                	sw	ra,12(sp)
    1cf6:	c422                	sw	s0,8(sp)
    1cf8:	0800                	addi	s0,sp,16
D:/projects/mechanical_arm/Firmware/ArmMainControler/libraries/zf_device/zf_device_wireless_uart.c:42
    uart_query_byte(WIRELESS_UART_INDEX, &wireless_uart_data);
    1cfa:	85118593          	addi	a1,gp,-1967 # 20000271 <wireless_uart_data>
    1cfe:	4505                	li	a0,1
    1d00:	a06ff0ef          	jal	ra,f06 <uart_query_byte>
D:/projects/mechanical_arm/Firmware/ArmMainControler/libraries/zf_device/zf_device_wireless_uart.c:43
    fifo_write_buffer(&wireless_uart_fifo, &wireless_uart_data, 1);
    1d04:	4605                	li	a2,1
    1d06:	85118593          	addi	a1,gp,-1967 # 20000271 <wireless_uart_data>
    1d0a:	8cc18513          	addi	a0,gp,-1844 # 200002ec <wireless_uart_fifo>
    1d0e:	29b1                	jal	216a <fifo_write_buffer>
D:/projects/mechanical_arm/Firmware/ArmMainControler/libraries/zf_device/zf_device_wireless_uart.c:51
    {
        wireless_auto_baud_flag = 3;
        fifo_read_buffer(&wireless_uart_fifo, (uint8 *)wireless_auto_baud_data, (uint32 *)&wireless_auto_baud_flag, FIFO_READ_AND_CLEAN);
    }
#endif
}
    1d10:	0001                	nop
    1d12:	40b2                	lw	ra,12(sp)
    1d14:	4422                	lw	s0,8(sp)
    1d16:	0141                	addi	sp,sp,16
    1d18:	8082                	ret

00001d1a <clock_init>:
clock_init():
D:/projects/mechanical_arm/Firmware/ArmMainControler/libraries/zf_common/zf_common_clock.c:36
// @param       clock           时钟频率 推荐使用 zf_common_clock.h 中 system_clock_enum 定义的选项
// @return      void
// Sample usage:                clock_init(SYSTEM_CLOCK_144M);                   // 初始化核心时钟为 144MHz
//-------------------------------------------------------------------------------------------------------------------
void clock_init (uint32 clock)
{
    1d1a:	1101                	addi	sp,sp,-32
    1d1c:	ce06                	sw	ra,28(sp)
    1d1e:	cc22                	sw	s0,24(sp)
    1d20:	1000                	addi	s0,sp,32
    1d22:	fea42623          	sw	a0,-20(s0)
D:/projects/mechanical_arm/Firmware/ArmMainControler/libraries/zf_common/zf_common_clock.c:37
    system_clock = clock;                                                       // 记录核心时钟频率
    1d26:	fec42703          	lw	a4,-20(s0)
    1d2a:	84e1aa23          	sw	a4,-1964(gp) # 20000274 <system_clock>
D:/projects/mechanical_arm/Firmware/ArmMainControler/libraries/zf_common/zf_common_clock.c:38
    clock_reset();
    1d2e:	2811                	jal	1d42 <clock_reset>
D:/projects/mechanical_arm/Firmware/ArmMainControler/libraries/zf_common/zf_common_clock.c:39
    clock_set_freq(clock);
    1d30:	fec42503          	lw	a0,-20(s0)
    1d34:	2051                	jal	1db8 <clock_set_freq>
D:/projects/mechanical_arm/Firmware/ArmMainControler/libraries/zf_common/zf_common_clock.c:40
    interrupt_init();
    1d36:	2bc1                	jal	2306 <interrupt_init>
D:/projects/mechanical_arm/Firmware/ArmMainControler/libraries/zf_common/zf_common_clock.c:41
}
    1d38:	0001                	nop
    1d3a:	40f2                	lw	ra,28(sp)
    1d3c:	4462                	lw	s0,24(sp)
    1d3e:	6105                	addi	sp,sp,32
    1d40:	8082                	ret

00001d42 <clock_reset>:
clock_reset():
D:/projects/mechanical_arm/Firmware/ArmMainControler/libraries/zf_common/zf_common_clock.c:49
// @brief       核心时钟恢复初始设置 内部调用
// @param       void
// @return      void
//-------------------------------------------------------------------------------------------------------------------
static void clock_reset (void)
{
    1d42:	1141                	addi	sp,sp,-16
    1d44:	c622                	sw	s0,12(sp)
    1d46:	0800                	addi	s0,sp,16
D:/projects/mechanical_arm/Firmware/ArmMainControler/libraries/zf_common/zf_common_clock.c:50
    RCC->CTLR |= (uint32)0x00000001;      //使能HSI振荡器
    1d48:	400217b7          	lui	a5,0x40021
    1d4c:	4398                	lw	a4,0(a5)
    1d4e:	400217b7          	lui	a5,0x40021
    1d52:	00176713          	ori	a4,a4,1
    1d56:	c398                	sw	a4,0(a5)
D:/projects/mechanical_arm/Firmware/ArmMainControler/libraries/zf_common/zf_common_clock.c:51
    RCC->CFGR0 &= (uint32)0xF8FF0000;
    1d58:	400217b7          	lui	a5,0x40021
    1d5c:	43d4                	lw	a3,4(a5)
    1d5e:	400217b7          	lui	a5,0x40021
    1d62:	f8ff0737          	lui	a4,0xf8ff0
    1d66:	8f75                	and	a4,a4,a3
    1d68:	c3d8                	sw	a4,4(a5)
D:/projects/mechanical_arm/Firmware/ArmMainControler/libraries/zf_common/zf_common_clock.c:52
    RCC->CTLR &= (uint32)0xFEF6FFFF;
    1d6a:	400217b7          	lui	a5,0x40021
    1d6e:	4394                	lw	a3,0(a5)
    1d70:	400217b7          	lui	a5,0x40021
    1d74:	fef70737          	lui	a4,0xfef70
    1d78:	177d                	addi	a4,a4,-1
    1d7a:	8f75                	and	a4,a4,a3
    1d7c:	c398                	sw	a4,0(a5)
D:/projects/mechanical_arm/Firmware/ArmMainControler/libraries/zf_common/zf_common_clock.c:53
    RCC->CTLR &= (uint32)0xFFFBFFFF;
    1d7e:	400217b7          	lui	a5,0x40021
    1d82:	4394                	lw	a3,0(a5)
    1d84:	400217b7          	lui	a5,0x40021
    1d88:	fffc0737          	lui	a4,0xfffc0
    1d8c:	177d                	addi	a4,a4,-1
    1d8e:	8f75                	and	a4,a4,a3
    1d90:	c398                	sw	a4,0(a5)
D:/projects/mechanical_arm/Firmware/ArmMainControler/libraries/zf_common/zf_common_clock.c:54
    RCC->CFGR0 &= (uint32)0xFF80FFFF;
    1d92:	400217b7          	lui	a5,0x40021
    1d96:	43d4                	lw	a3,4(a5)
    1d98:	400217b7          	lui	a5,0x40021
    1d9c:	ff810737          	lui	a4,0xff810
    1da0:	177d                	addi	a4,a4,-1
    1da2:	8f75                	and	a4,a4,a3
    1da4:	c3d8                	sw	a4,4(a5)
D:/projects/mechanical_arm/Firmware/ArmMainControler/libraries/zf_common/zf_common_clock.c:55
    RCC->INTR = 0x009F0000;                 // 禁用所有中断并清除挂起位
    1da6:	400217b7          	lui	a5,0x40021
    1daa:	009f0737          	lui	a4,0x9f0
    1dae:	c798                	sw	a4,8(a5)
D:/projects/mechanical_arm/Firmware/ArmMainControler/libraries/zf_common/zf_common_clock.c:56
}
    1db0:	0001                	nop
    1db2:	4432                	lw	s0,12(sp)
    1db4:	0141                	addi	sp,sp,16
    1db6:	8082                	ret

00001db8 <clock_set_freq>:
clock_set_freq():
D:/projects/mechanical_arm/Firmware/ArmMainControler/libraries/zf_common/zf_common_clock.c:66
// @brief       核心时钟设置
// @param       clock           时钟频率 推荐使用 zf_common_clock.h 中 system_clock_enum 定义的选项
// @return      void
//-------------------------------------------------------------------------------------------------------------------
static void clock_set_freq (uint32 clock)
{
    1db8:	7179                	addi	sp,sp,-48
    1dba:	d622                	sw	s0,44(sp)
    1dbc:	1800                	addi	s0,sp,48
    1dbe:	fca42e23          	sw	a0,-36(s0)
D:/projects/mechanical_arm/Firmware/ArmMainControler/libraries/zf_common/zf_common_clock.c:67
    __IO uint32 StartUpCounter = 0, HSEStatus = 0;
    1dc2:	fe042623          	sw	zero,-20(s0)
    1dc6:	fe042423          	sw	zero,-24(s0)
D:/projects/mechanical_arm/Firmware/ArmMainControler/libraries/zf_common/zf_common_clock.c:69

    RCC->CTLR |= ((uint32)RCC_HSEON);
    1dca:	400217b7          	lui	a5,0x40021
    1dce:	4394                	lw	a3,0(a5)
    1dd0:	400217b7          	lui	a5,0x40021
    1dd4:	6741                	lui	a4,0x10
    1dd6:	8f55                	or	a4,a4,a3
    1dd8:	c398                	sw	a4,0(a5)
D:/projects/mechanical_arm/Firmware/ArmMainControler/libraries/zf_common/zf_common_clock.c:74 (discriminator 2)

    /* Wait till HSE is ready and if Time out is reached exit */
    do
    {
        HSEStatus = RCC->CTLR & RCC_HSERDY;
    1dda:	400217b7          	lui	a5,0x40021
    1dde:	4398                	lw	a4,0(a5)
    1de0:	000207b7          	lui	a5,0x20
    1de4:	8ff9                	and	a5,a5,a4
    1de6:	fef42423          	sw	a5,-24(s0)
D:/projects/mechanical_arm/Firmware/ArmMainControler/libraries/zf_common/zf_common_clock.c:75 (discriminator 2)
        StartUpCounter++;
    1dea:	fec42783          	lw	a5,-20(s0)
    1dee:	0785                	addi	a5,a5,1
    1df0:	fef42623          	sw	a5,-20(s0)
D:/projects/mechanical_arm/Firmware/ArmMainControler/libraries/zf_common/zf_common_clock.c:76 (discriminator 2)
    } while((HSEStatus == 0) && (StartUpCounter != HSE_STARTUP_TIMEOUT));
    1df4:	fe842783          	lw	a5,-24(s0)
    1df8:	e799                	bnez	a5,1e06 <clock_set_freq+0x4e>
D:/projects/mechanical_arm/Firmware/ArmMainControler/libraries/zf_common/zf_common_clock.c:76 (discriminator 1)
    1dfa:	fec42703          	lw	a4,-20(s0)
    1dfe:	50000793          	li	a5,1280
    1e02:	fcf71ce3          	bne	a4,a5,1dda <clock_set_freq+0x22>
D:/projects/mechanical_arm/Firmware/ArmMainControler/libraries/zf_common/zf_common_clock.c:78

    if ((RCC->CTLR & RCC_HSERDY) != RESET)
    1e06:	400217b7          	lui	a5,0x40021
    1e0a:	4398                	lw	a4,0(a5)
    1e0c:	000207b7          	lui	a5,0x20
    1e10:	8ff9                	and	a5,a5,a4
    1e12:	c789                	beqz	a5,1e1c <clock_set_freq+0x64>
D:/projects/mechanical_arm/Firmware/ArmMainControler/libraries/zf_common/zf_common_clock.c:80
    {
        HSEStatus = (uint32)0x01;
    1e14:	4785                	li	a5,1
    1e16:	fef42423          	sw	a5,-24(s0)
    1e1a:	a019                	j	1e20 <clock_set_freq+0x68>
D:/projects/mechanical_arm/Firmware/ArmMainControler/libraries/zf_common/zf_common_clock.c:84
    }
    else
    {
        HSEStatus = (uint32)0x00;
    1e1c:	fe042423          	sw	zero,-24(s0)
D:/projects/mechanical_arm/Firmware/ArmMainControler/libraries/zf_common/zf_common_clock.c:87
    }

    if (HSEStatus == (uint32)0x01)
    1e20:	fe842703          	lw	a4,-24(s0)
    1e24:	4785                	li	a5,1
    1e26:	1ef71563          	bne	a4,a5,2010 <clock_set_freq+0x258>
D:/projects/mechanical_arm/Firmware/ArmMainControler/libraries/zf_common/zf_common_clock.c:90
    {
        /* Enable Prefetch Buffer */
        FLASH->ACTLR |= FLASH_ACTLR_PRFTBE;
    1e2a:	400227b7          	lui	a5,0x40022
    1e2e:	4398                	lw	a4,0(a5)
    1e30:	400227b7          	lui	a5,0x40022
    1e34:	01076713          	ori	a4,a4,16
    1e38:	c398                	sw	a4,0(a5)
D:/projects/mechanical_arm/Firmware/ArmMainControler/libraries/zf_common/zf_common_clock.c:93

        /* Flash wait state */
        FLASH->ACTLR &= (uint32)((uint32)~FLASH_ACTLR_LATENCY);
    1e3a:	400227b7          	lui	a5,0x40022
    1e3e:	4398                	lw	a4,0(a5)
    1e40:	400227b7          	lui	a5,0x40022
    1e44:	9b71                	andi	a4,a4,-4
    1e46:	c398                	sw	a4,0(a5)
D:/projects/mechanical_arm/Firmware/ArmMainControler/libraries/zf_common/zf_common_clock.c:95

        FLASH->ACTLR |= (((clock-1)/24000000)&0x07);
    1e48:	400227b7          	lui	a5,0x40022
    1e4c:	4394                	lw	a3,0(a5)
    1e4e:	fdc42783          	lw	a5,-36(s0)
    1e52:	fff78713          	addi	a4,a5,-1 # 40021fff <_eusrstack+0x20011fff>
    1e56:	016e37b7          	lui	a5,0x16e3
    1e5a:	60078793          	addi	a5,a5,1536 # 16e3600 <_data_lma+0x16d9184>
    1e5e:	02f757b3          	divu	a5,a4,a5
    1e62:	0077f713          	andi	a4,a5,7
    1e66:	400227b7          	lui	a5,0x40022
    1e6a:	8f55                	or	a4,a4,a3
    1e6c:	c398                	sw	a4,0(a5)
D:/projects/mechanical_arm/Firmware/ArmMainControler/libraries/zf_common/zf_common_clock.c:98

        /* HCLK = SYSCLK */
        RCC->CFGR0 |= (uint32)RCC_HPRE_DIV1;
    1e6e:	40021737          	lui	a4,0x40021
    1e72:	400217b7          	lui	a5,0x40021
    1e76:	4358                	lw	a4,4(a4)
    1e78:	c3d8                	sw	a4,4(a5)
D:/projects/mechanical_arm/Firmware/ArmMainControler/libraries/zf_common/zf_common_clock.c:100
        /* PCLK2 = HCLK */
        RCC->CFGR0 |= (uint32)RCC_PPRE2_DIV1;
    1e7a:	40021737          	lui	a4,0x40021
    1e7e:	400217b7          	lui	a5,0x40021
    1e82:	4358                	lw	a4,4(a4)
    1e84:	c3d8                	sw	a4,4(a5)
D:/projects/mechanical_arm/Firmware/ArmMainControler/libraries/zf_common/zf_common_clock.c:102
        /* PCLK1 = HCLK */
        RCC->CFGR0 |= (uint32)RCC_PPRE1_DIV1;
    1e86:	40021737          	lui	a4,0x40021
    1e8a:	400217b7          	lui	a5,0x40021
    1e8e:	4358                	lw	a4,4(a4)
    1e90:	c3d8                	sw	a4,4(a5)
D:/projects/mechanical_arm/Firmware/ArmMainControler/libraries/zf_common/zf_common_clock.c:105


        if(clock == SYSTEM_CLOCK_XTAL)
    1e92:	fdc42703          	lw	a4,-36(s0)
    1e96:	007a17b7          	lui	a5,0x7a1
    1e9a:	20078793          	addi	a5,a5,512 # 7a1200 <_data_lma+0x796d84>
    1e9e:	02f71b63          	bne	a4,a5,1ed4 <clock_set_freq+0x11c>
D:/projects/mechanical_arm/Firmware/ArmMainControler/libraries/zf_common/zf_common_clock.c:108
        {
            /* Select HSE as system clock source */
            RCC->CFGR0 &= (uint32)((uint32)~(RCC_SW));
    1ea2:	400217b7          	lui	a5,0x40021
    1ea6:	43d8                	lw	a4,4(a5)
    1ea8:	400217b7          	lui	a5,0x40021
    1eac:	9b71                	andi	a4,a4,-4
    1eae:	c3d8                	sw	a4,4(a5)
D:/projects/mechanical_arm/Firmware/ArmMainControler/libraries/zf_common/zf_common_clock.c:109
            RCC->CFGR0 |= (uint32)RCC_SW_HSE;
    1eb0:	400217b7          	lui	a5,0x40021
    1eb4:	43d8                	lw	a4,4(a5)
    1eb6:	400217b7          	lui	a5,0x40021
    1eba:	00176713          	ori	a4,a4,1
    1ebe:	c3d8                	sw	a4,4(a5)
D:/projects/mechanical_arm/Firmware/ArmMainControler/libraries/zf_common/zf_common_clock.c:111
            /* Wait till HSE is used as system clock source */
            while ((RCC->CFGR0 & (uint32)RCC_SWS) != (uint32)0x04)
    1ec0:	0001                	nop
D:/projects/mechanical_arm/Firmware/ArmMainControler/libraries/zf_common/zf_common_clock.c:111 (discriminator 1)
    1ec2:	400217b7          	lui	a5,0x40021
    1ec6:	43dc                	lw	a5,4(a5)
    1ec8:	00c7f713          	andi	a4,a5,12
    1ecc:	4791                	li	a5,4
    1ece:	fef71ae3          	bne	a4,a5,1ec2 <clock_set_freq+0x10a>
D:/projects/mechanical_arm/Firmware/ArmMainControler/libraries/zf_common/zf_common_clock.c:161
        /*
        * If HSE fails to start-up, the application will have wrong clock
        * configuration. User can add here some code to deal with this error
        */
    }
}
    1ed2:	a281                	j	2012 <clock_set_freq+0x25a>
D:/projects/mechanical_arm/Firmware/ArmMainControler/libraries/zf_common/zf_common_clock.c:118
            RCC->CFGR0 &= (uint32)((uint32)~(RCC_PLLSRC | RCC_PLLXTPRE | RCC_PLLMULL));
    1ed4:	400217b7          	lui	a5,0x40021
    1ed8:	43d4                	lw	a3,4(a5)
    1eda:	400217b7          	lui	a5,0x40021
    1ede:	ffc10737          	lui	a4,0xffc10
    1ee2:	177d                	addi	a4,a4,-1
    1ee4:	8f75                	and	a4,a4,a3
    1ee6:	c3d8                	sw	a4,4(a5)
D:/projects/mechanical_arm/Firmware/ArmMainControler/libraries/zf_common/zf_common_clock.c:120
            if(clock == SYSTEM_CLOCK_144M)
    1ee8:	fdc42703          	lw	a4,-36(s0)
    1eec:	089547b7          	lui	a5,0x8954
    1ef0:	40078793          	addi	a5,a5,1024 # 8954400 <_data_lma+0x8949f84>
    1ef4:	00f71b63          	bne	a4,a5,1f0a <clock_set_freq+0x152>
D:/projects/mechanical_arm/Firmware/ArmMainControler/libraries/zf_common/zf_common_clock.c:121
            RCC->CFGR0 |= (uint32)(RCC_PLLSRC_HSE | RCC_PLLXTPRE_HSE | RCC_PLLMULL18_EXTEN);
    1ef8:	400217b7          	lui	a5,0x40021
    1efc:	43d4                	lw	a3,4(a5)
    1efe:	400217b7          	lui	a5,0x40021
    1f02:	6741                	lui	a4,0x10
    1f04:	8f55                	or	a4,a4,a3
    1f06:	c3d8                	sw	a4,4(a5)
    1f08:	a855                	j	1fbc <clock_set_freq+0x204>
D:/projects/mechanical_arm/Firmware/ArmMainControler/libraries/zf_common/zf_common_clock.c:122
            else if(clock == SYSTEM_CLOCK_120M)
    1f0a:	fdc42703          	lw	a4,-36(s0)
    1f0e:	072717b7          	lui	a5,0x7271
    1f12:	e0078793          	addi	a5,a5,-512 # 7270e00 <_data_lma+0x7266984>
    1f16:	00f71c63          	bne	a4,a5,1f2e <clock_set_freq+0x176>
D:/projects/mechanical_arm/Firmware/ArmMainControler/libraries/zf_common/zf_common_clock.c:123
            RCC->CFGR0 |= (uint32)(RCC_PLLSRC_HSE | RCC_PLLXTPRE_HSE | RCC_PLLMULL15_EXTEN);
    1f1a:	400217b7          	lui	a5,0x40021
    1f1e:	43d4                	lw	a3,4(a5)
    1f20:	400217b7          	lui	a5,0x40021
    1f24:	00390737          	lui	a4,0x390
    1f28:	8f55                	or	a4,a4,a3
    1f2a:	c3d8                	sw	a4,4(a5)
    1f2c:	a841                	j	1fbc <clock_set_freq+0x204>
D:/projects/mechanical_arm/Firmware/ArmMainControler/libraries/zf_common/zf_common_clock.c:124
            else if(clock == SYSTEM_CLOCK_96M)
    1f2e:	fdc42703          	lw	a4,-36(s0)
    1f32:	05b8e7b7          	lui	a5,0x5b8e
    1f36:	80078793          	addi	a5,a5,-2048 # 5b8d800 <_data_lma+0x5b83384>
    1f3a:	00f71c63          	bne	a4,a5,1f52 <clock_set_freq+0x19a>
D:/projects/mechanical_arm/Firmware/ArmMainControler/libraries/zf_common/zf_common_clock.c:125
            RCC->CFGR0 |= (uint32)(RCC_PLLSRC_HSE | RCC_PLLXTPRE_HSE | RCC_PLLMULL12_EXTEN);
    1f3e:	400217b7          	lui	a5,0x40021
    1f42:	43d4                	lw	a3,4(a5)
    1f44:	400217b7          	lui	a5,0x40021
    1f48:	00290737          	lui	a4,0x290
    1f4c:	8f55                	or	a4,a4,a3
    1f4e:	c3d8                	sw	a4,4(a5)
    1f50:	a0b5                	j	1fbc <clock_set_freq+0x204>
D:/projects/mechanical_arm/Firmware/ArmMainControler/libraries/zf_common/zf_common_clock.c:126
            else if(clock == SYSTEM_CLOCK_72M)
    1f52:	fdc42703          	lw	a4,-36(s0)
    1f56:	044aa7b7          	lui	a5,0x44aa
    1f5a:	20078793          	addi	a5,a5,512 # 44aa200 <_data_lma+0x449fd84>
    1f5e:	00f71c63          	bne	a4,a5,1f76 <clock_set_freq+0x1be>
D:/projects/mechanical_arm/Firmware/ArmMainControler/libraries/zf_common/zf_common_clock.c:127
            RCC->CFGR0 |= (uint32)(RCC_PLLSRC_HSE | RCC_PLLXTPRE_HSE | RCC_PLLMULL9_EXTEN);
    1f62:	400217b7          	lui	a5,0x40021
    1f66:	43d4                	lw	a3,4(a5)
    1f68:	400217b7          	lui	a5,0x40021
    1f6c:	001d0737          	lui	a4,0x1d0
    1f70:	8f55                	or	a4,a4,a3
    1f72:	c3d8                	sw	a4,4(a5)
    1f74:	a0a1                	j	1fbc <clock_set_freq+0x204>
D:/projects/mechanical_arm/Firmware/ArmMainControler/libraries/zf_common/zf_common_clock.c:128
            else if(clock == SYSTEM_CLOCK_48M)
    1f76:	fdc42703          	lw	a4,-36(s0)
    1f7a:	02dc77b7          	lui	a5,0x2dc7
    1f7e:	c0078793          	addi	a5,a5,-1024 # 2dc6c00 <_data_lma+0x2dbc784>
    1f82:	00f71c63          	bne	a4,a5,1f9a <clock_set_freq+0x1e2>
D:/projects/mechanical_arm/Firmware/ArmMainControler/libraries/zf_common/zf_common_clock.c:129
            RCC->CFGR0 |= (uint32)(RCC_PLLSRC_HSE | RCC_PLLXTPRE_HSE | RCC_PLLMULL6_EXTEN);
    1f86:	400217b7          	lui	a5,0x40021
    1f8a:	43d4                	lw	a3,4(a5)
    1f8c:	400217b7          	lui	a5,0x40021
    1f90:	00110737          	lui	a4,0x110
    1f94:	8f55                	or	a4,a4,a3
    1f96:	c3d8                	sw	a4,4(a5)
    1f98:	a015                	j	1fbc <clock_set_freq+0x204>
D:/projects/mechanical_arm/Firmware/ArmMainControler/libraries/zf_common/zf_common_clock.c:130
            else if(clock == SYSTEM_CLOCK_24M)
    1f9a:	fdc42703          	lw	a4,-36(s0)
    1f9e:	016e37b7          	lui	a5,0x16e3
    1fa2:	60078793          	addi	a5,a5,1536 # 16e3600 <_data_lma+0x16d9184>
    1fa6:	00f71b63          	bne	a4,a5,1fbc <clock_set_freq+0x204>
D:/projects/mechanical_arm/Firmware/ArmMainControler/libraries/zf_common/zf_common_clock.c:131
            RCC->CFGR0 |= (uint32)(RCC_PLLSRC_HSE | RCC_PLLXTPRE_HSE | RCC_PLLMULL3_EXTEN);
    1faa:	400217b7          	lui	a5,0x40021
    1fae:	43d4                	lw	a3,4(a5)
    1fb0:	400217b7          	lui	a5,0x40021
    1fb4:	00050737          	lui	a4,0x50
    1fb8:	8f55                	or	a4,a4,a3
    1fba:	c3d8                	sw	a4,4(a5)
D:/projects/mechanical_arm/Firmware/ArmMainControler/libraries/zf_common/zf_common_clock.c:138
            RCC->CTLR |= RCC_PLLON;
    1fbc:	400217b7          	lui	a5,0x40021
    1fc0:	4394                	lw	a3,0(a5)
    1fc2:	400217b7          	lui	a5,0x40021
    1fc6:	01000737          	lui	a4,0x1000
    1fca:	8f55                	or	a4,a4,a3
    1fcc:	c398                	sw	a4,0(a5)
D:/projects/mechanical_arm/Firmware/ArmMainControler/libraries/zf_common/zf_common_clock.c:140
            while((RCC->CTLR & RCC_PLLRDY) == 0)
    1fce:	0001                	nop
D:/projects/mechanical_arm/Firmware/ArmMainControler/libraries/zf_common/zf_common_clock.c:140 (discriminator 1)
    1fd0:	400217b7          	lui	a5,0x40021
    1fd4:	4398                	lw	a4,0(a5)
    1fd6:	020007b7          	lui	a5,0x2000
    1fda:	8ff9                	and	a5,a5,a4
    1fdc:	dbf5                	beqz	a5,1fd0 <clock_set_freq+0x218>
D:/projects/mechanical_arm/Firmware/ArmMainControler/libraries/zf_common/zf_common_clock.c:144
            RCC->CFGR0 &= (uint32)((uint32)~(RCC_SW));
    1fde:	400217b7          	lui	a5,0x40021
    1fe2:	43d8                	lw	a4,4(a5)
    1fe4:	400217b7          	lui	a5,0x40021
    1fe8:	9b71                	andi	a4,a4,-4
    1fea:	c3d8                	sw	a4,4(a5)
D:/projects/mechanical_arm/Firmware/ArmMainControler/libraries/zf_common/zf_common_clock.c:145
            RCC->CFGR0 |= (uint32)RCC_SW_PLL;
    1fec:	400217b7          	lui	a5,0x40021
    1ff0:	43d8                	lw	a4,4(a5)
    1ff2:	400217b7          	lui	a5,0x40021
    1ff6:	00276713          	ori	a4,a4,2
    1ffa:	c3d8                	sw	a4,4(a5)
D:/projects/mechanical_arm/Firmware/ArmMainControler/libraries/zf_common/zf_common_clock.c:147
            while ((RCC->CFGR0 & (uint32)RCC_SWS) != (uint32)0x08)
    1ffc:	0001                	nop
D:/projects/mechanical_arm/Firmware/ArmMainControler/libraries/zf_common/zf_common_clock.c:147 (discriminator 1)
    1ffe:	400217b7          	lui	a5,0x40021
    2002:	43dc                	lw	a5,4(a5)
    2004:	00c7f713          	andi	a4,a5,12
    2008:	47a1                	li	a5,8
    200a:	fef71ae3          	bne	a4,a5,1ffe <clock_set_freq+0x246>
D:/projects/mechanical_arm/Firmware/ArmMainControler/libraries/zf_common/zf_common_clock.c:161
}
    200e:	a011                	j	2012 <clock_set_freq+0x25a>
D:/projects/mechanical_arm/Firmware/ArmMainControler/libraries/zf_common/zf_common_clock.c:155 (discriminator 2)
        while(1);           // 外部晶振不稳定或缺失 时钟设置失败
    2010:	a001                	j	2010 <clock_set_freq+0x258>
D:/projects/mechanical_arm/Firmware/ArmMainControler/libraries/zf_common/zf_common_clock.c:161
}
    2012:	5432                	lw	s0,44(sp)
    2014:	6145                	addi	sp,sp,48
    2016:	8082                	ret

00002018 <__NOP>:
__NOP():
D:\projects\mechanical_arm\Firmware\ArmMainControler\libraries\sdk\Core/core_riscv.h:117
#define SysTick         ((SysTick_Type *) 0xE000F000)

/* risc-v specific functions */
RV_STATIC_INLINE void __enable_irq() { __asm volatile ("csrw 0x800, %0" : : "r" (0x6088) ); }
RV_STATIC_INLINE void __disable_irq() { __asm volatile ("csrw 0x800, %0" : : "r" (0x6000) ); }
RV_STATIC_INLINE void __NOP() { __asm volatile ("nop"); }
    2018:	1141                	addi	sp,sp,-16
    201a:	c622                	sw	s0,12(sp)
    201c:	0800                	addi	s0,sp,16
    201e:	0001                	nop
    2020:	0001                	nop
    2022:	4432                	lw	s0,12(sp)
    2024:	0141                	addi	sp,sp,16
    2026:	8082                	ret

00002028 <debug_init>:
debug_init():
D:/projects/mechanical_arm/Firmware/ArmMainControler/libraries/zf_common/zf_common_debug.c:41
// @param       void
// @return      void
// Sample usage:
//-------------------------------------------------------------------------------------------------------------------
void debug_init (void)
{
    2028:	1141                	addi	sp,sp,-16
    202a:	c606                	sw	ra,12(sp)
    202c:	c422                	sw	s0,8(sp)
    202e:	0800                	addi	s0,sp,16
D:/projects/mechanical_arm/Firmware/ArmMainControler/libraries/zf_common/zf_common_debug.c:48
//    GPIO_DeInit(GPIOB);
//    GPIO_DeInit(GPIOC);
//    GPIO_DeInit(GPIOD);
//    GPIO_DeInit(GPIOE);

    uart_init(
    2030:	02100693          	li	a3,33
    2034:	02000613          	li	a2,32
    2038:	67f1                	lui	a5,0x1c
    203a:	20078593          	addi	a1,a5,512 # 1c200 <_data_lma+0x11d84>
    203e:	4509                	li	a0,2
    2040:	f25fe0ef          	jal	ra,f64 <uart_init>
D:/projects/mechanical_arm/Firmware/ArmMainControler/libraries/zf_common/zf_common_debug.c:56
        DEBUG_UART_TX_PIN,                                                      // 在 zf_common_debug.h 中查看对应值
        DEBUG_UART_RX_PIN);                                                     // 在 zf_common_debug.h 中查看对应值

    if(DEBUG_UART_USE_INTERRUPT)                                                // 如果启用串口中断
    {
        uart_rx_interrupt(DEBUG_UART_INDEX, 1);                                 // 使能对应串口接收中断
    2044:	4585                	li	a1,1
    2046:	4509                	li	a0,2
    2048:	e39fe0ef          	jal	ra,e80 <uart_rx_interrupt>
D:/projects/mechanical_arm/Firmware/ArmMainControler/libraries/zf_common/zf_common_debug.c:58
    }
    zf_debug_init_flag = 1;
    204c:	4705                	li	a4,1
    204e:	84e18c23          	sb	a4,-1960(gp) # 20000278 <zf_debug_init_flag>
D:/projects/mechanical_arm/Firmware/ArmMainControler/libraries/zf_common/zf_common_debug.c:59
}
    2052:	0001                	nop
    2054:	40b2                	lw	ra,12(sp)
    2056:	4422                	lw	s0,8(sp)
    2058:	0141                	addi	sp,sp,16
    205a:	8082                	ret

0000205c <debug_assert_handler>:
debug_assert_handler():
D:/projects/mechanical_arm/Firmware/ArmMainControler/libraries/zf_common/zf_common_debug.c:70
// @param       line        目标行数
// @return      void
// Sample usage:            这个函数不是直接调用的 使用 zf_commmon_debug.h 中的 zf_assert(x) 接口
//-------------------------------------------------------------------------------------------------------------------
void debug_assert_handler (uint8 pass, char *file, uint32 line)
{
    205c:	1101                	addi	sp,sp,-32
    205e:	ce06                	sw	ra,28(sp)
    2060:	cc22                	sw	s0,24(sp)
    2062:	1000                	addi	s0,sp,32
    2064:	87aa                	mv	a5,a0
    2066:	feb42423          	sw	a1,-24(s0)
    206a:	fec42223          	sw	a2,-28(s0)
    206e:	fef407a3          	sb	a5,-17(s0)
D:/projects/mechanical_arm/Firmware/ArmMainControler/libraries/zf_common/zf_common_debug.c:71
    if(pass)
    2072:	fef44783          	lbu	a5,-17(s0)
    2076:	e385                	bnez	a5,2096 <debug_assert_handler+0x3a>
D:/projects/mechanical_arm/Firmware/ArmMainControler/libraries/zf_common/zf_common_debug.c:73
        return;
    if(zf_debug_init_flag)
    2078:	8581c783          	lbu	a5,-1960(gp) # 20000278 <zf_debug_init_flag>
    207c:	cb91                	beqz	a5,2090 <debug_assert_handler+0x34>
D:/projects/mechanical_arm/Firmware/ArmMainControler/libraries/zf_common/zf_common_debug.c:75
    {
        printf("Assert error in %s line %d.\r\n", file, line);
    207e:	fe442603          	lw	a2,-28(s0)
    2082:	fe842583          	lw	a1,-24(s0)
    2086:	67a5                	lui	a5,0x9
    2088:	7b478513          	addi	a0,a5,1972 # 97b4 <_sbrk+0xe2>
    208c:	026050ef          	jal	ra,70b2 <iprintf>
D:/projects/mechanical_arm/Firmware/ArmMainControler/libraries/zf_common/zf_common_debug.c:77
    }
    interrupt_global_disable();
    2090:	2c4d                	jal	2342 <interrupt_global_disable>
D:/projects/mechanical_arm/Firmware/ArmMainControler/libraries/zf_common/zf_common_debug.c:92 (discriminator 1)
        // 如果没有初始化 debug
        // 那就看看这个 file 的字符串值和 line 的行数
        // 那代表报错的文件路径名称和对应报错行数

        // 再去调试看看是为什么参数出错
        __NOP();
    2092:	3759                	jal	2018 <__NOP>
    2094:	bffd                	j	2092 <debug_assert_handler+0x36>
D:/projects/mechanical_arm/Firmware/ArmMainControler/libraries/zf_common/zf_common_debug.c:72
        return;
    2096:	0001                	nop
D:/projects/mechanical_arm/Firmware/ArmMainControler/libraries/zf_common/zf_common_debug.c:94
    }
}
    2098:	40f2                	lw	ra,28(sp)
    209a:	4462                	lw	s0,24(sp)
    209c:	6105                	addi	sp,sp,32
    209e:	8082                	ret

000020a0 <_write>:
_write():
D:/projects/mechanical_arm/Firmware/ArmMainControler/libraries/zf_common/zf_common_debug.c:159
//  @since      v1.0
//  Sample usage:              重定向printf到DEBUG串口上
//-------------------------------------------------------------------------------------------------------------------
#if (1 == PRINTF_ENABLE)
int _write(int fd, char *buf, int size)
{
    20a0:	7179                	addi	sp,sp,-48
    20a2:	d606                	sw	ra,44(sp)
    20a4:	d422                	sw	s0,40(sp)
    20a6:	1800                	addi	s0,sp,48
    20a8:	fca42e23          	sw	a0,-36(s0)
    20ac:	fcb42c23          	sw	a1,-40(s0)
    20b0:	fcc42a23          	sw	a2,-44(s0)
D:/projects/mechanical_arm/Firmware/ArmMainControler/libraries/zf_common/zf_common_debug.c:161
    int i;
    for(i=0; i<size; i++)
    20b4:	fe042623          	sw	zero,-20(s0)
    20b8:	a0a9                	j	2102 <_write+0x62>
D:/projects/mechanical_arm/Firmware/ArmMainControler/libraries/zf_common/zf_common_debug.c:163
    {
        while (USART_GetFlagStatus((USART_TypeDef*)uart_index[DEBUG_UART_INDEX], USART_FLAG_TC) == RESET);
    20ba:	0001                	nop
D:/projects/mechanical_arm/Firmware/ArmMainControler/libraries/zf_common/zf_common_debug.c:163 (discriminator 1)
    20bc:	67a9                	lui	a5,0xa
    20be:	86078793          	addi	a5,a5,-1952 # 9860 <uart_index>
    20c2:	479c                	lw	a5,8(a5)
    20c4:	04000593          	li	a1,64
    20c8:	853e                	mv	a0,a5
    20ca:	2a7010ef          	jal	ra,3b70 <USART_GetFlagStatus>
    20ce:	87aa                	mv	a5,a0
    20d0:	d7f5                	beqz	a5,20bc <_write+0x1c>
D:/projects/mechanical_arm/Firmware/ArmMainControler/libraries/zf_common/zf_common_debug.c:164 (discriminator 2)
        USART_SendData((USART_TypeDef*)uart_index[DEBUG_UART_INDEX], *buf++);
    20d2:	67a9                	lui	a5,0xa
    20d4:	86078793          	addi	a5,a5,-1952 # 9860 <uart_index>
    20d8:	479c                	lw	a5,8(a5)
    20da:	86be                	mv	a3,a5
    20dc:	fd842783          	lw	a5,-40(s0)
    20e0:	00178713          	addi	a4,a5,1
    20e4:	fce42c23          	sw	a4,-40(s0)
    20e8:	00078783          	lb	a5,0(a5)
    20ec:	07c2                	slli	a5,a5,0x10
    20ee:	83c1                	srli	a5,a5,0x10
    20f0:	85be                	mv	a1,a5
    20f2:	8536                	mv	a0,a3
    20f4:	24f010ef          	jal	ra,3b42 <USART_SendData>
D:/projects/mechanical_arm/Firmware/ArmMainControler/libraries/zf_common/zf_common_debug.c:161 (discriminator 2)
    for(i=0; i<size; i++)
    20f8:	fec42783          	lw	a5,-20(s0)
    20fc:	0785                	addi	a5,a5,1
    20fe:	fef42623          	sw	a5,-20(s0)
D:/projects/mechanical_arm/Firmware/ArmMainControler/libraries/zf_common/zf_common_debug.c:161 (discriminator 1)
    2102:	fec42703          	lw	a4,-20(s0)
    2106:	fd442783          	lw	a5,-44(s0)
    210a:	faf748e3          	blt	a4,a5,20ba <_write+0x1a>
D:/projects/mechanical_arm/Firmware/ArmMainControler/libraries/zf_common/zf_common_debug.c:167

    }
    return size;
    210e:	fd442783          	lw	a5,-44(s0)
D:/projects/mechanical_arm/Firmware/ArmMainControler/libraries/zf_common/zf_common_debug.c:168
}
    2112:	853e                	mv	a0,a5
    2114:	50b2                	lw	ra,44(sp)
    2116:	5422                	lw	s0,40(sp)
    2118:	6145                	addi	sp,sp,48
    211a:	8082                	ret

0000211c <fifo_head_offset>:
fifo_head_offset():
D:/projects/mechanical_arm/Firmware/ArmMainControler/libraries/zf_common/zf_common_fifo.c:53
// @param       offset          偏移量
// @return      void
// Sample usage:
//-------------------------------------------------------------------------------------------------------------------
void fifo_head_offset (fifo_struct *fifo, uint32 offset)
{
    211c:	1101                	addi	sp,sp,-32
    211e:	ce22                	sw	s0,28(sp)
    2120:	1000                	addi	s0,sp,32
    2122:	fea42623          	sw	a0,-20(s0)
    2126:	feb42423          	sw	a1,-24(s0)
D:/projects/mechanical_arm/Firmware/ArmMainControler/libraries/zf_common/zf_common_fifo.c:54
    fifo->head += offset;
    212a:	fec42783          	lw	a5,-20(s0)
    212e:	43d8                	lw	a4,4(a5)
    2130:	fe842783          	lw	a5,-24(s0)
    2134:	973e                	add	a4,a4,a5
    2136:	fec42783          	lw	a5,-20(s0)
    213a:	c3d8                	sw	a4,4(a5)
D:/projects/mechanical_arm/Firmware/ArmMainControler/libraries/zf_common/zf_common_fifo.c:56
    
    while(fifo->max <= fifo->head)                                              // 如果范围超过则减缓冲区大小 直到小于最大缓冲区大小
    213c:	a819                	j	2152 <fifo_head_offset+0x36>
D:/projects/mechanical_arm/Firmware/ArmMainControler/libraries/zf_common/zf_common_fifo.c:58
    {
        fifo->head -= fifo->max;
    213e:	fec42783          	lw	a5,-20(s0)
    2142:	43d8                	lw	a4,4(a5)
    2144:	fec42783          	lw	a5,-20(s0)
    2148:	4b9c                	lw	a5,16(a5)
    214a:	8f1d                	sub	a4,a4,a5
    214c:	fec42783          	lw	a5,-20(s0)
    2150:	c3d8                	sw	a4,4(a5)
D:/projects/mechanical_arm/Firmware/ArmMainControler/libraries/zf_common/zf_common_fifo.c:56
    while(fifo->max <= fifo->head)                                              // 如果范围超过则减缓冲区大小 直到小于最大缓冲区大小
    2152:	fec42783          	lw	a5,-20(s0)
    2156:	4b98                	lw	a4,16(a5)
    2158:	fec42783          	lw	a5,-20(s0)
    215c:	43dc                	lw	a5,4(a5)
    215e:	fee7f0e3          	bgeu	a5,a4,213e <fifo_head_offset+0x22>
D:/projects/mechanical_arm/Firmware/ArmMainControler/libraries/zf_common/zf_common_fifo.c:60
    }
}
    2162:	0001                	nop
    2164:	4472                	lw	s0,28(sp)
    2166:	6105                	addi	sp,sp,32
    2168:	8082                	ret

0000216a <fifo_write_buffer>:
fifo_write_buffer():
D:/projects/mechanical_arm/Firmware/ArmMainControler/libraries/zf_common/zf_common_fifo.c:112
// @param       length          需要写入的数据长度
// @return      fifo_state_enum 操作状态
// Sample usage:                if(fifo_write(&fifo,data,32)!=FIFO_SUCCESS) while(1);
//-------------------------------------------------------------------------------------------------------------------
fifo_state_enum fifo_write_buffer (fifo_struct *fifo, uint8 *dat, uint32 length)
{
    216a:	7179                	addi	sp,sp,-48
    216c:	d606                	sw	ra,44(sp)
    216e:	d422                	sw	s0,40(sp)
    2170:	1800                	addi	s0,sp,48
    2172:	fca42e23          	sw	a0,-36(s0)
    2176:	fcb42c23          	sw	a1,-40(s0)
    217a:	fcc42a23          	sw	a2,-44(s0)
D:/projects/mechanical_arm/Firmware/ArmMainControler/libraries/zf_common/zf_common_fifo.c:115
    uint32 temp_length;
    
    if(length < fifo->size)                                                     // 剩余空间足够装下本次数据
    217e:	fdc42783          	lw	a5,-36(s0)
    2182:	47dc                	lw	a5,12(a5)
    2184:	fd442703          	lw	a4,-44(s0)
    2188:	0cf77b63          	bgeu	a4,a5,225e <fifo_write_buffer+0xf4>
D:/projects/mechanical_arm/Firmware/ArmMainControler/libraries/zf_common/zf_common_fifo.c:117
    {
        interrupt_global_disable();
    218c:	2a5d                	jal	2342 <interrupt_global_disable>
D:/projects/mechanical_arm/Firmware/ArmMainControler/libraries/zf_common/zf_common_fifo.c:118
        temp_length = fifo->max - fifo->head;                                   // 计算头指针距离缓冲区尾还有多少空间
    218e:	fdc42783          	lw	a5,-36(s0)
    2192:	4b98                	lw	a4,16(a5)
    2194:	fdc42783          	lw	a5,-36(s0)
    2198:	43dc                	lw	a5,4(a5)
    219a:	40f707b3          	sub	a5,a4,a5
    219e:	fef42623          	sw	a5,-20(s0)
D:/projects/mechanical_arm/Firmware/ArmMainControler/libraries/zf_common/zf_common_fifo.c:120

        if(length > temp_length)                                                // 距离缓冲区尾长度不足写入数据 环形缓冲区分段操作
    21a2:	fd442703          	lw	a4,-44(s0)
    21a6:	fec42783          	lw	a5,-20(s0)
    21aa:	06e7fb63          	bgeu	a5,a4,2220 <fifo_write_buffer+0xb6>
D:/projects/mechanical_arm/Firmware/ArmMainControler/libraries/zf_common/zf_common_fifo.c:122
        {
            memcpy(&fifo->buffer[fifo->head], dat, temp_length);                // 拷贝第一段数据
    21ae:	fdc42783          	lw	a5,-36(s0)
    21b2:	4398                	lw	a4,0(a5)
    21b4:	fdc42783          	lw	a5,-36(s0)
    21b8:	43dc                	lw	a5,4(a5)
    21ba:	97ba                	add	a5,a5,a4
    21bc:	fec42603          	lw	a2,-20(s0)
    21c0:	fd842583          	lw	a1,-40(s0)
    21c4:	853e                	mv	a0,a5
    21c6:	440040ef          	jal	ra,6606 <memcpy>
D:/projects/mechanical_arm/Firmware/ArmMainControler/libraries/zf_common/zf_common_fifo.c:123
            fifo_head_offset(fifo, temp_length);                                // 头指针偏移
    21ca:	fec42583          	lw	a1,-20(s0)
    21ce:	fdc42503          	lw	a0,-36(s0)
    21d2:	37a9                	jal	211c <fifo_head_offset>
D:/projects/mechanical_arm/Firmware/ArmMainControler/libraries/zf_common/zf_common_fifo.c:124
            dat += temp_length;                                                 // 读取缓冲偏移
    21d4:	fd842703          	lw	a4,-40(s0)
    21d8:	fec42783          	lw	a5,-20(s0)
    21dc:	97ba                	add	a5,a5,a4
    21de:	fcf42c23          	sw	a5,-40(s0)
D:/projects/mechanical_arm/Firmware/ArmMainControler/libraries/zf_common/zf_common_fifo.c:125
            memcpy(&fifo->buffer[fifo->head], dat, length - temp_length);       // 拷贝第一段数据
    21e2:	fdc42783          	lw	a5,-36(s0)
    21e6:	4398                	lw	a4,0(a5)
    21e8:	fdc42783          	lw	a5,-36(s0)
    21ec:	43dc                	lw	a5,4(a5)
    21ee:	00f706b3          	add	a3,a4,a5
    21f2:	fd442703          	lw	a4,-44(s0)
    21f6:	fec42783          	lw	a5,-20(s0)
    21fa:	40f707b3          	sub	a5,a4,a5
    21fe:	863e                	mv	a2,a5
    2200:	fd842583          	lw	a1,-40(s0)
    2204:	8536                	mv	a0,a3
    2206:	400040ef          	jal	ra,6606 <memcpy>
D:/projects/mechanical_arm/Firmware/ArmMainControler/libraries/zf_common/zf_common_fifo.c:126
            fifo_head_offset(fifo, length - temp_length);                       // 头指针偏移
    220a:	fd442703          	lw	a4,-44(s0)
    220e:	fec42783          	lw	a5,-20(s0)
    2212:	40f707b3          	sub	a5,a4,a5
    2216:	85be                	mv	a1,a5
    2218:	fdc42503          	lw	a0,-36(s0)
    221c:	3701                	jal	211c <fifo_head_offset>
    221e:	a025                	j	2246 <fifo_write_buffer+0xdc>
D:/projects/mechanical_arm/Firmware/ArmMainControler/libraries/zf_common/zf_common_fifo.c:130
        }
        else
        {
            memcpy(&fifo->buffer[fifo->head], dat, length);                     // 一次完整写入
    2220:	fdc42783          	lw	a5,-36(s0)
    2224:	4398                	lw	a4,0(a5)
    2226:	fdc42783          	lw	a5,-36(s0)
    222a:	43dc                	lw	a5,4(a5)
    222c:	97ba                	add	a5,a5,a4
    222e:	fd442603          	lw	a2,-44(s0)
    2232:	fd842583          	lw	a1,-40(s0)
    2236:	853e                	mv	a0,a5
    2238:	3ce040ef          	jal	ra,6606 <memcpy>
D:/projects/mechanical_arm/Firmware/ArmMainControler/libraries/zf_common/zf_common_fifo.c:131
            fifo_head_offset(fifo, length);                                     // 头指针偏移
    223c:	fd442583          	lw	a1,-44(s0)
    2240:	fdc42503          	lw	a0,-36(s0)
    2244:	3de1                	jal	211c <fifo_head_offset>
D:/projects/mechanical_arm/Firmware/ArmMainControler/libraries/zf_common/zf_common_fifo.c:134
        }

        fifo->size -= length;                                                   // 缓冲区剩余长度减小
    2246:	fdc42783          	lw	a5,-36(s0)
    224a:	47d8                	lw	a4,12(a5)
    224c:	fd442783          	lw	a5,-44(s0)
    2250:	8f1d                	sub	a4,a4,a5
    2252:	fdc42783          	lw	a5,-36(s0)
    2256:	c7d8                	sw	a4,12(a5)
D:/projects/mechanical_arm/Firmware/ArmMainControler/libraries/zf_common/zf_common_fifo.c:135
        interrupt_global_enable();
    2258:	2875                	jal	2314 <interrupt_global_enable>
D:/projects/mechanical_arm/Firmware/ArmMainControler/libraries/zf_common/zf_common_fifo.c:142
    else
    {
        return FIFO_SPACE_NO_ENOUGH;
    }
    
    return FIFO_SUCCESS;
    225a:	4781                	li	a5,0
    225c:	a011                	j	2260 <fifo_write_buffer+0xf6>
D:/projects/mechanical_arm/Firmware/ArmMainControler/libraries/zf_common/zf_common_fifo.c:139
        return FIFO_SPACE_NO_ENOUGH;
    225e:	4789                	li	a5,2
D:/projects/mechanical_arm/Firmware/ArmMainControler/libraries/zf_common/zf_common_fifo.c:143
}
    2260:	853e                	mv	a0,a5
    2262:	50b2                	lw	ra,44(sp)
    2264:	5422                	lw	s0,40(sp)
    2266:	6145                	addi	sp,sp,48
    2268:	8082                	ret

0000226a <NVIC_EnableIRQ>:
NVIC_EnableIRQ():
D:\projects\mechanical_arm\Firmware\ArmMainControler\libraries\sdk\Core/core_riscv.h:129
* Function Name  : NVIC_EnableIRQ
* Description    : Enable Interrupt
* Input          : IRQn: Interrupt Numbers
* Return         : None
*******************************************************************************/
RV_STATIC_INLINE void NVIC_EnableIRQ(IRQn_Type IRQn){
    226a:	1101                	addi	sp,sp,-32
    226c:	ce22                	sw	s0,28(sp)
    226e:	1000                	addi	s0,sp,32
    2270:	fea42623          	sw	a0,-20(s0)
D:\projects\mechanical_arm\Firmware\ArmMainControler\libraries\sdk\Core/core_riscv.h:130
  NVIC->IENR[((uint32_t)(IRQn) >> 5)] = (1 << ((uint32_t)(IRQn) & 0x1F));
    2274:	fec42783          	lw	a5,-20(s0)
    2278:	8bfd                	andi	a5,a5,31
    227a:	4705                	li	a4,1
    227c:	00f716b3          	sll	a3,a4,a5
    2280:	e000e737          	lui	a4,0xe000e
    2284:	fec42783          	lw	a5,-20(s0)
    2288:	8395                	srli	a5,a5,0x5
    228a:	04078793          	addi	a5,a5,64
    228e:	078a                	slli	a5,a5,0x2
    2290:	97ba                	add	a5,a5,a4
    2292:	c394                	sw	a3,0(a5)
D:\projects\mechanical_arm\Firmware\ArmMainControler\libraries\sdk\Core/core_riscv.h:131
}
    2294:	0001                	nop
    2296:	4472                	lw	s0,28(sp)
    2298:	6105                	addi	sp,sp,32
    229a:	8082                	ret

0000229c <NVIC_DisableIRQ>:
NVIC_DisableIRQ():
D:\projects\mechanical_arm\Firmware\ArmMainControler\libraries\sdk\Core/core_riscv.h:140
* Description    : Disable Interrupt
* Input          : IRQn: Interrupt Numbers
* Return         : None
*******************************************************************************/
RV_STATIC_INLINE void NVIC_DisableIRQ(IRQn_Type IRQn)
{
    229c:	1101                	addi	sp,sp,-32
    229e:	ce22                	sw	s0,28(sp)
    22a0:	1000                	addi	s0,sp,32
    22a2:	fea42623          	sw	a0,-20(s0)
D:\projects\mechanical_arm\Firmware\ArmMainControler\libraries\sdk\Core/core_riscv.h:141
  NVIC->IRER[((uint32_t)(IRQn) >> 5)] = (1 << ((uint32_t)(IRQn) & 0x1F));
    22a6:	fec42783          	lw	a5,-20(s0)
    22aa:	8bfd                	andi	a5,a5,31
    22ac:	4705                	li	a4,1
    22ae:	00f716b3          	sll	a3,a4,a5
    22b2:	e000e737          	lui	a4,0xe000e
    22b6:	fec42783          	lw	a5,-20(s0)
    22ba:	8395                	srli	a5,a5,0x5
    22bc:	06078793          	addi	a5,a5,96
    22c0:	078a                	slli	a5,a5,0x2
    22c2:	97ba                	add	a5,a5,a4
    22c4:	c394                	sw	a3,0(a5)
D:\projects\mechanical_arm\Firmware\ArmMainControler\libraries\sdk\Core/core_riscv.h:142
}
    22c6:	0001                	nop
    22c8:	4472                	lw	s0,28(sp)
    22ca:	6105                	addi	sp,sp,32
    22cc:	8082                	ret

000022ce <interrupt_enable>:
interrupt_enable():
D:/projects/mechanical_arm/Firmware/ArmMainControler/libraries/zf_common/zf_common_interrupt.c:34
// @param       irqn            指定中断号 可查看 isr.c 对应中断服务函数的标注
// @return      void
// Sample usage:                interrupt_enable(UART1_IRQn);
//-------------------------------------------------------------------------------------------------------------------
void interrupt_enable (IRQn_Type irqn)
{
    22ce:	1101                	addi	sp,sp,-32
    22d0:	ce06                	sw	ra,28(sp)
    22d2:	cc22                	sw	s0,24(sp)
    22d4:	1000                	addi	s0,sp,32
    22d6:	fea42623          	sw	a0,-20(s0)
D:/projects/mechanical_arm/Firmware/ArmMainControler/libraries/zf_common/zf_common_interrupt.c:35
    NVIC_EnableIRQ(irqn);
    22da:	fec42503          	lw	a0,-20(s0)
    22de:	3771                	jal	226a <NVIC_EnableIRQ>
D:/projects/mechanical_arm/Firmware/ArmMainControler/libraries/zf_common/zf_common_interrupt.c:36
}
    22e0:	0001                	nop
    22e2:	40f2                	lw	ra,28(sp)
    22e4:	4462                	lw	s0,24(sp)
    22e6:	6105                	addi	sp,sp,32
    22e8:	8082                	ret

000022ea <interrupt_disable>:
interrupt_disable():
D:/projects/mechanical_arm/Firmware/ArmMainControler/libraries/zf_common/zf_common_interrupt.c:45
// @param       irqn            指定中断号 可查看 isr.c 对应中断服务函数的标注
// @return      void
// Sample usage:                interrupt_disable(UART1_IRQn);
//-------------------------------------------------------------------------------------------------------------------
void interrupt_disable (IRQn_Type irqn)
{
    22ea:	1101                	addi	sp,sp,-32
    22ec:	ce06                	sw	ra,28(sp)
    22ee:	cc22                	sw	s0,24(sp)
    22f0:	1000                	addi	s0,sp,32
    22f2:	fea42623          	sw	a0,-20(s0)
D:/projects/mechanical_arm/Firmware/ArmMainControler/libraries/zf_common/zf_common_interrupt.c:46
    NVIC_DisableIRQ(irqn);
    22f6:	fec42503          	lw	a0,-20(s0)
    22fa:	374d                	jal	229c <NVIC_DisableIRQ>
D:/projects/mechanical_arm/Firmware/ArmMainControler/libraries/zf_common/zf_common_interrupt.c:47
}
    22fc:	0001                	nop
    22fe:	40f2                	lw	ra,28(sp)
    2300:	4462                	lw	s0,24(sp)
    2302:	6105                	addi	sp,sp,32
    2304:	8082                	ret

00002306 <interrupt_init>:
interrupt_init():
D:/projects/mechanical_arm/Firmware/ArmMainControler/libraries/zf_common/zf_common_interrupt.c:69
// @param       void
// @return      void
// Sample usage:                interrupt_init();
//-------------------------------------------------------------------------------------------------------------------
void interrupt_init (void)
{
    2306:	1141                	addi	sp,sp,-16
    2308:	c622                	sw	s0,12(sp)
    230a:	0800                	addi	s0,sp,16
D:/projects/mechanical_arm/Firmware/ArmMainControler/libraries/zf_common/zf_common_interrupt.c:72
    //NVIC_SetPriorityGrouping(4);

}
    230c:	0001                	nop
    230e:	4432                	lw	s0,12(sp)
    2310:	0141                	addi	sp,sp,16
    2312:	8082                	ret

00002314 <interrupt_global_enable>:
interrupt_global_enable():
D:/projects/mechanical_arm/Firmware/ArmMainControler/libraries/zf_common/zf_common_interrupt.c:81
// @param       void            还原的嵌套层 如果传入 0 则直接清空嵌套层数开启总中断
// @return      void
// Sample usage:                interrupt_global_enable();
//-------------------------------------------------------------------------------------------------------------------
void interrupt_global_enable (void)
{
    2314:	1141                	addi	sp,sp,-16
    2316:	c606                	sw	ra,12(sp)
    2318:	c422                	sw	s0,8(sp)
    231a:	0800                	addi	s0,sp,16
D:/projects/mechanical_arm/Firmware/ArmMainControler/libraries/zf_common/zf_common_interrupt.c:82
    if(interrupt_nest_count)
    231c:	85c1a783          	lw	a5,-1956(gp) # 2000027c <interrupt_nest_count>
    2320:	c799                	beqz	a5,232e <interrupt_global_enable+0x1a>
D:/projects/mechanical_arm/Firmware/ArmMainControler/libraries/zf_common/zf_common_interrupt.c:83
        interrupt_nest_count--;
    2322:	85c1a783          	lw	a5,-1956(gp) # 2000027c <interrupt_nest_count>
    2326:	fff78713          	addi	a4,a5,-1
    232a:	84e1ae23          	sw	a4,-1956(gp) # 2000027c <interrupt_nest_count>
D:/projects/mechanical_arm/Firmware/ArmMainControler/libraries/zf_common/zf_common_interrupt.c:85

    if(interrupt_nest_count == 0)
    232e:	85c1a783          	lw	a5,-1956(gp) # 2000027c <interrupt_nest_count>
    2332:	e399                	bnez	a5,2338 <interrupt_global_enable+0x24>
D:/projects/mechanical_arm/Firmware/ArmMainControler/libraries/zf_common/zf_common_interrupt.c:88
    {
        extern void en_interrupt();
        en_interrupt();
    2334:	ed3fd0ef          	jal	ra,206 <en_interrupt>
D:/projects/mechanical_arm/Firmware/ArmMainControler/libraries/zf_common/zf_common_interrupt.c:90
    }
}
    2338:	0001                	nop
    233a:	40b2                	lw	ra,12(sp)
    233c:	4422                	lw	s0,8(sp)
    233e:	0141                	addi	sp,sp,16
    2340:	8082                	ret

00002342 <interrupt_global_disable>:
interrupt_global_disable():
D:/projects/mechanical_arm/Firmware/ArmMainControler/libraries/zf_common/zf_common_interrupt.c:99
// @param       void
// @return      void
// Sample usage:                interrupt_disable_all();
//-------------------------------------------------------------------------------------------------------------------
void interrupt_global_disable (void)
{
    2342:	1141                	addi	sp,sp,-16
    2344:	c606                	sw	ra,12(sp)
    2346:	c422                	sw	s0,8(sp)
    2348:	0800                	addi	s0,sp,16
D:/projects/mechanical_arm/Firmware/ArmMainControler/libraries/zf_common/zf_common_interrupt.c:100
    if(!interrupt_nest_count)
    234a:	85c1a783          	lw	a5,-1956(gp) # 2000027c <interrupt_nest_count>
    234e:	e399                	bnez	a5,2354 <interrupt_global_disable+0x12>
D:/projects/mechanical_arm/Firmware/ArmMainControler/libraries/zf_common/zf_common_interrupt.c:103
    {
        extern void dis_interrupt();
        dis_interrupt();
    2350:	eb1fd0ef          	jal	ra,200 <dis_interrupt>
D:/projects/mechanical_arm/Firmware/ArmMainControler/libraries/zf_common/zf_common_interrupt.c:105
    }
    interrupt_nest_count++;
    2354:	85c1a783          	lw	a5,-1956(gp) # 2000027c <interrupt_nest_count>
    2358:	00178713          	addi	a4,a5,1
    235c:	84e1ae23          	sw	a4,-1956(gp) # 2000027c <interrupt_nest_count>
D:/projects/mechanical_arm/Firmware/ArmMainControler/libraries/zf_common/zf_common_interrupt.c:110
    //返回当前mstatus寄存器的值
//    uint32 temp;
//    temp = __get_MSTATUS();
//    return temp;
}
    2360:	0001                	nop
    2362:	40b2                	lw	ra,12(sp)
    2364:	4422                	lw	s0,8(sp)
    2366:	0141                	addi	sp,sp,16
    2368:	8082                	ret

0000236a <USART1_IRQHandler>:
USART1_IRQHandler():
D:/projects/mechanical_arm/Firmware/ArmMainControler/project/user/src/isr.c:65
void EXTI4_IRQHandler(void) __attribute__((interrupt("WCH-Interrupt-fast")));
void EXTI9_5_IRQHandler(void) __attribute__((interrupt("WCH-Interrupt-fast")));
void EXTI15_10_IRQHandler(void) __attribute__((interrupt("WCH-Interrupt-fast")));

void USART1_IRQHandler(void)
{
    236a:	1141                	addi	sp,sp,-16
    236c:	c622                	sw	s0,12(sp)
    236e:	0800                	addi	s0,sp,16
D:/projects/mechanical_arm/Firmware/ArmMainControler/project/user/src/isr.c:66
    if(USART_GetITStatus(USART1, USART_IT_RXNE) != RESET)
    2370:	52500593          	li	a1,1317
    2374:	400147b7          	lui	a5,0x40014
    2378:	80078513          	addi	a0,a5,-2048 # 40013800 <_eusrstack+0x20003800>
    237c:	03b010ef          	jal	ra,3bb6 <USART_GetITStatus>
    2380:	87aa                	mv	a5,a0
    2382:	cb89                	beqz	a5,2394 <USART1_IRQHandler+0x2a>
D:/projects/mechanical_arm/Firmware/ArmMainControler/project/user/src/isr.c:69
    {

        USART_ClearITPendingBit(USART1, USART_IT_RXNE);
    2384:	52500593          	li	a1,1317
    2388:	400147b7          	lui	a5,0x40014
    238c:	80078513          	addi	a0,a5,-2048 # 40013800 <_eusrstack+0x20003800>
    2390:	129010ef          	jal	ra,3cb8 <USART_ClearITPendingBit>
D:/projects/mechanical_arm/Firmware/ArmMainControler/project/user/src/isr.c:71
    }
}
    2394:	0001                	nop
    2396:	4432                	lw	s0,12(sp)
    2398:	0141                	addi	sp,sp,16
    239a:	30200073          	mret

0000239e <USART2_IRQHandler>:
USART2_IRQHandler():
D:/projects/mechanical_arm/Firmware/ArmMainControler/project/user/src/isr.c:73
void USART2_IRQHandler(void)
{
    239e:	1141                	addi	sp,sp,-16
    23a0:	c622                	sw	s0,12(sp)
    23a2:	0800                	addi	s0,sp,16
D:/projects/mechanical_arm/Firmware/ArmMainControler/project/user/src/isr.c:74
    if(USART_GetITStatus(USART2, USART_IT_RXNE) != RESET)
    23a4:	52500593          	li	a1,1317
    23a8:	400047b7          	lui	a5,0x40004
    23ac:	40078513          	addi	a0,a5,1024 # 40004400 <_eusrstack+0x1fff4400>
    23b0:	007010ef          	jal	ra,3bb6 <USART_GetITStatus>
    23b4:	87aa                	mv	a5,a0
    23b6:	c3a1                	beqz	a5,23f6 <USART2_IRQHandler+0x58>
D:/projects/mechanical_arm/Firmware/ArmMainControler/project/user/src/isr.c:76
    {
        if(wireless_type == WIRELESS_UART)
    23b8:	84c1a703          	lw	a4,-1972(gp) # 2000026c <wireless_type>
    23bc:	4785                	li	a5,1
    23be:	00f71563          	bne	a4,a5,23c8 <USART2_IRQHandler+0x2a>
D:/projects/mechanical_arm/Firmware/ArmMainControler/project/user/src/isr.c:78
        {
            wireless_uart_callback();
    23c2:	931ff0ef          	jal	ra,1cf2 <wireless_uart_callback>
    23c6:	a005                	j	23e6 <USART2_IRQHandler+0x48>
D:/projects/mechanical_arm/Firmware/ArmMainControler/project/user/src/isr.c:80
        }
        else if(wireless_type == BLUETOOTH_CH9141)
    23c8:	84c1a703          	lw	a4,-1972(gp) # 2000026c <wireless_type>
    23cc:	4789                	li	a5,2
    23ce:	00f71563          	bne	a4,a5,23d8 <USART2_IRQHandler+0x3a>
D:/projects/mechanical_arm/Firmware/ArmMainControler/project/user/src/isr.c:82
        {
            bluetooth_ch9141_uart_callback_ch2();
    23d2:	e6bfe0ef          	jal	ra,123c <bluetooth_ch9141_uart_callback_ch2>
    23d6:	a801                	j	23e6 <USART2_IRQHandler+0x48>
D:/projects/mechanical_arm/Firmware/ArmMainControler/project/user/src/isr.c:84
        }
        else if(wireless_type == WIRELESS_CH573)
    23d8:	84c1a703          	lw	a4,-1972(gp) # 2000026c <wireless_type>
    23dc:	478d                	li	a5,3
    23de:	00f71463          	bne	a4,a5,23e6 <USART2_IRQHandler+0x48>
D:/projects/mechanical_arm/Firmware/ArmMainControler/project/user/src/isr.c:86
        {
            wireless_ch573_callback();
    23e2:	8e9ff0ef          	jal	ra,1cca <wireless_ch573_callback>
D:/projects/mechanical_arm/Firmware/ArmMainControler/project/user/src/isr.c:88
        }
        USART_ClearITPendingBit(USART2, USART_IT_RXNE);
    23e6:	52500593          	li	a1,1317
    23ea:	400047b7          	lui	a5,0x40004
    23ee:	40078513          	addi	a0,a5,1024 # 40004400 <_eusrstack+0x1fff4400>
    23f2:	0c7010ef          	jal	ra,3cb8 <USART_ClearITPendingBit>
D:/projects/mechanical_arm/Firmware/ArmMainControler/project/user/src/isr.c:90
    }
}
    23f6:	0001                	nop
    23f8:	4432                	lw	s0,12(sp)
    23fa:	0141                	addi	sp,sp,16
    23fc:	30200073          	mret

00002400 <USART3_IRQHandler>:
USART3_IRQHandler():
D:/projects/mechanical_arm/Firmware/ArmMainControler/project/user/src/isr.c:92
void USART3_IRQHandler(void)
{
    2400:	1141                	addi	sp,sp,-16
    2402:	c622                	sw	s0,12(sp)
    2404:	0800                	addi	s0,sp,16
D:/projects/mechanical_arm/Firmware/ArmMainControler/project/user/src/isr.c:93
    if(USART_GetITStatus(USART3, USART_IT_RXNE) != RESET)
    2406:	52500593          	li	a1,1317
    240a:	400057b7          	lui	a5,0x40005
    240e:	80078513          	addi	a0,a5,-2048 # 40004800 <_eusrstack+0x1fff4800>
    2412:	7a4010ef          	jal	ra,3bb6 <USART_GetITStatus>
    2416:	87aa                	mv	a5,a0
    2418:	cb89                	beqz	a5,242a <USART3_IRQHandler+0x2a>
D:/projects/mechanical_arm/Firmware/ArmMainControler/project/user/src/isr.c:96
    {

        USART_ClearITPendingBit(USART3, USART_IT_RXNE);
    241a:	52500593          	li	a1,1317
    241e:	400057b7          	lui	a5,0x40005
    2422:	80078513          	addi	a0,a5,-2048 # 40004800 <_eusrstack+0x1fff4800>
    2426:	093010ef          	jal	ra,3cb8 <USART_ClearITPendingBit>
D:/projects/mechanical_arm/Firmware/ArmMainControler/project/user/src/isr.c:98
    }
}
    242a:	0001                	nop
    242c:	4432                	lw	s0,12(sp)
    242e:	0141                	addi	sp,sp,16
    2430:	30200073          	mret

00002434 <UART4_IRQHandler>:
UART4_IRQHandler():
D:/projects/mechanical_arm/Firmware/ArmMainControler/project/user/src/isr.c:100
void UART4_IRQHandler (void)
{
    2434:	1141                	addi	sp,sp,-16
    2436:	c622                	sw	s0,12(sp)
    2438:	0800                	addi	s0,sp,16
D:/projects/mechanical_arm/Firmware/ArmMainControler/project/user/src/isr.c:101
    if(USART_GetITStatus(UART4, USART_IT_RXNE) != RESET)
    243a:	52500593          	li	a1,1317
    243e:	400057b7          	lui	a5,0x40005
    2442:	c0078513          	addi	a0,a5,-1024 # 40004c00 <_eusrstack+0x1fff4c00>
    2446:	770010ef          	jal	ra,3bb6 <USART_GetITStatus>
    244a:	87aa                	mv	a5,a0
    244c:	cb89                	beqz	a5,245e <UART4_IRQHandler+0x2a>
D:/projects/mechanical_arm/Firmware/ArmMainControler/project/user/src/isr.c:104
    {

        USART_ClearITPendingBit(UART4, USART_IT_RXNE);
    244e:	52500593          	li	a1,1317
    2452:	400057b7          	lui	a5,0x40005
    2456:	c0078513          	addi	a0,a5,-1024 # 40004c00 <_eusrstack+0x1fff4c00>
    245a:	05f010ef          	jal	ra,3cb8 <USART_ClearITPendingBit>
D:/projects/mechanical_arm/Firmware/ArmMainControler/project/user/src/isr.c:106
    }
}
    245e:	0001                	nop
    2460:	4432                	lw	s0,12(sp)
    2462:	0141                	addi	sp,sp,16
    2464:	30200073          	mret

00002468 <UART5_IRQHandler>:
UART5_IRQHandler():
D:/projects/mechanical_arm/Firmware/ArmMainControler/project/user/src/isr.c:108
void UART5_IRQHandler (void)
{
    2468:	1141                	addi	sp,sp,-16
    246a:	c622                	sw	s0,12(sp)
    246c:	0800                	addi	s0,sp,16
D:/projects/mechanical_arm/Firmware/ArmMainControler/project/user/src/isr.c:109
    if(USART_GetITStatus(UART5, USART_IT_RXNE) != RESET)
    246e:	52500593          	li	a1,1317
    2472:	40005537          	lui	a0,0x40005
    2476:	740010ef          	jal	ra,3bb6 <USART_GetITStatus>
    247a:	87aa                	mv	a5,a0
    247c:	cb89                	beqz	a5,248e <UART5_IRQHandler+0x26>
D:/projects/mechanical_arm/Firmware/ArmMainControler/project/user/src/isr.c:111
    {
        camera_uart_handler();
    247e:	de7fe0ef          	jal	ra,1264 <camera_uart_handler>
D:/projects/mechanical_arm/Firmware/ArmMainControler/project/user/src/isr.c:112
        USART_ClearITPendingBit(UART5, USART_IT_RXNE);
    2482:	52500593          	li	a1,1317
    2486:	40005537          	lui	a0,0x40005
    248a:	02f010ef          	jal	ra,3cb8 <USART_ClearITPendingBit>
D:/projects/mechanical_arm/Firmware/ArmMainControler/project/user/src/isr.c:114
    }
}
    248e:	0001                	nop
    2490:	4432                	lw	s0,12(sp)
    2492:	0141                	addi	sp,sp,16
    2494:	30200073          	mret

00002498 <UART6_IRQHandler>:
UART6_IRQHandler():
D:/projects/mechanical_arm/Firmware/ArmMainControler/project/user/src/isr.c:116
void UART6_IRQHandler (void)
{
    2498:	1141                	addi	sp,sp,-16
    249a:	c622                	sw	s0,12(sp)
    249c:	0800                	addi	s0,sp,16
D:/projects/mechanical_arm/Firmware/ArmMainControler/project/user/src/isr.c:117
    if(USART_GetITStatus(UART6, USART_IT_RXNE) != RESET)
    249e:	52500593          	li	a1,1317
    24a2:	400027b7          	lui	a5,0x40002
    24a6:	80078513          	addi	a0,a5,-2048 # 40001800 <_eusrstack+0x1fff1800>
    24aa:	70c010ef          	jal	ra,3bb6 <USART_GetITStatus>
    24ae:	87aa                	mv	a5,a0
    24b0:	cb89                	beqz	a5,24c2 <UART6_IRQHandler+0x2a>
D:/projects/mechanical_arm/Firmware/ArmMainControler/project/user/src/isr.c:120
    {

        USART_ClearITPendingBit(UART6, USART_IT_RXNE);
    24b2:	52500593          	li	a1,1317
    24b6:	400027b7          	lui	a5,0x40002
    24ba:	80078513          	addi	a0,a5,-2048 # 40001800 <_eusrstack+0x1fff1800>
    24be:	7fa010ef          	jal	ra,3cb8 <USART_ClearITPendingBit>
D:/projects/mechanical_arm/Firmware/ArmMainControler/project/user/src/isr.c:122
    }
}
    24c2:	0001                	nop
    24c4:	4432                	lw	s0,12(sp)
    24c6:	0141                	addi	sp,sp,16
    24c8:	30200073          	mret

000024cc <UART7_IRQHandler>:
UART7_IRQHandler():
D:/projects/mechanical_arm/Firmware/ArmMainControler/project/user/src/isr.c:124
void UART7_IRQHandler (void)
{
    24cc:	1141                	addi	sp,sp,-16
    24ce:	c622                	sw	s0,12(sp)
    24d0:	0800                	addi	s0,sp,16
D:/projects/mechanical_arm/Firmware/ArmMainControler/project/user/src/isr.c:125
    if(USART_GetITStatus(UART7, USART_IT_RXNE) != RESET)
    24d2:	52500593          	li	a1,1317
    24d6:	400027b7          	lui	a5,0x40002
    24da:	c0078513          	addi	a0,a5,-1024 # 40001c00 <_eusrstack+0x1fff1c00>
    24de:	6d8010ef          	jal	ra,3bb6 <USART_GetITStatus>
    24e2:	87aa                	mv	a5,a0
    24e4:	c78d                	beqz	a5,250e <UART7_IRQHandler+0x42>
D:/projects/mechanical_arm/Firmware/ArmMainControler/project/user/src/isr.c:127
    {
        if(wireless_type == WIRELESS_UART)
    24e6:	84c1a703          	lw	a4,-1972(gp) # 2000026c <wireless_type>
    24ea:	4785                	li	a5,1
    24ec:	00f70963          	beq	a4,a5,24fe <UART7_IRQHandler+0x32>
D:/projects/mechanical_arm/Firmware/ArmMainControler/project/user/src/isr.c:131
        {

        }
        else if(wireless_type == BLUETOOTH_CH9141)
    24f0:	84c1a703          	lw	a4,-1972(gp) # 2000026c <wireless_type>
    24f4:	4789                	li	a5,2
    24f6:	00f71463          	bne	a4,a5,24fe <UART7_IRQHandler+0x32>
D:/projects/mechanical_arm/Firmware/ArmMainControler/project/user/src/isr.c:133
        {
            bluetooth_ch9141_uart_callback_ch1();
    24fa:	d1bfe0ef          	jal	ra,1214 <bluetooth_ch9141_uart_callback_ch1>
D:/projects/mechanical_arm/Firmware/ArmMainControler/project/user/src/isr.c:135
        }
        USART_ClearITPendingBit(UART7, USART_IT_RXNE);
    24fe:	52500593          	li	a1,1317
    2502:	400027b7          	lui	a5,0x40002
    2506:	c0078513          	addi	a0,a5,-1024 # 40001c00 <_eusrstack+0x1fff1c00>
    250a:	7ae010ef          	jal	ra,3cb8 <USART_ClearITPendingBit>
D:/projects/mechanical_arm/Firmware/ArmMainControler/project/user/src/isr.c:137
    }
}
    250e:	0001                	nop
    2510:	4432                	lw	s0,12(sp)
    2512:	0141                	addi	sp,sp,16
    2514:	30200073          	mret

00002518 <UART8_IRQHandler>:
UART8_IRQHandler():
D:/projects/mechanical_arm/Firmware/ArmMainControler/project/user/src/isr.c:139
void UART8_IRQHandler (void)
{
    2518:	1141                	addi	sp,sp,-16
    251a:	c622                	sw	s0,12(sp)
    251c:	0800                	addi	s0,sp,16
D:/projects/mechanical_arm/Firmware/ArmMainControler/project/user/src/isr.c:140
    if(USART_GetITStatus(UART8, USART_IT_RXNE) != RESET)
    251e:	52500593          	li	a1,1317
    2522:	40002537          	lui	a0,0x40002
    2526:	690010ef          	jal	ra,3bb6 <USART_GetITStatus>
    252a:	87aa                	mv	a5,a0
    252c:	c799                	beqz	a5,253a <UART8_IRQHandler+0x22>
D:/projects/mechanical_arm/Firmware/ArmMainControler/project/user/src/isr.c:144
    {
//        extern void uart_handler (void);
//        uart_handler();
        USART_ClearITPendingBit(UART8, USART_IT_RXNE);
    252e:	52500593          	li	a1,1317
    2532:	40002537          	lui	a0,0x40002
    2536:	782010ef          	jal	ra,3cb8 <USART_ClearITPendingBit>
D:/projects/mechanical_arm/Firmware/ArmMainControler/project/user/src/isr.c:146
    }
}
    253a:	0001                	nop
    253c:	4432                	lw	s0,12(sp)
    253e:	0141                	addi	sp,sp,16
    2540:	30200073          	mret

00002544 <DVP_IRQHandler>:
DVP_IRQHandler():
D:/projects/mechanical_arm/Firmware/ArmMainControler/project/user/src/isr.c:151



void DVP_IRQHandler(void)
{
    2544:	1141                	addi	sp,sp,-16
    2546:	c622                	sw	s0,12(sp)
    2548:	0800                	addi	s0,sp,16
D:/projects/mechanical_arm/Firmware/ArmMainControler/project/user/src/isr.c:152
    if (DVP->IFR & RB_DVP_IF_FRM_DONE)
    254a:	500507b7          	lui	a5,0x50050
    254e:	0107c783          	lbu	a5,16(a5) # 50050010 <_eusrstack+0x30040010>
    2552:	0ff7f793          	andi	a5,a5,255
    2556:	8b91                	andi	a5,a5,4
    2558:	c385                	beqz	a5,2578 <DVP_IRQHandler+0x34>
D:/projects/mechanical_arm/Firmware/ArmMainControler/project/user/src/isr.c:154
    {
        camera_dvp_handler();
    255a:	d41fe0ef          	jal	ra,129a <camera_dvp_handler>
D:/projects/mechanical_arm/Firmware/ArmMainControler/project/user/src/isr.c:155
        DVP->IFR &= ~RB_DVP_IF_FRM_DONE;
    255e:	500507b7          	lui	a5,0x50050
    2562:	0107c783          	lbu	a5,16(a5) # 50050010 <_eusrstack+0x30040010>
    2566:	0ff7f713          	andi	a4,a5,255
    256a:	500507b7          	lui	a5,0x50050
    256e:	9b6d                	andi	a4,a4,-5
    2570:	0ff77713          	andi	a4,a4,255
    2574:	00e78823          	sb	a4,16(a5) # 50050010 <_eusrstack+0x30040010>
D:/projects/mechanical_arm/Firmware/ArmMainControler/project/user/src/isr.c:157
    }
}
    2578:	0001                	nop
    257a:	4432                	lw	s0,12(sp)
    257c:	0141                	addi	sp,sp,16
    257e:	30200073          	mret

00002582 <EXTI0_IRQHandler>:
EXTI0_IRQHandler():
D:/projects/mechanical_arm/Firmware/ArmMainControler/project/user/src/isr.c:159
void EXTI0_IRQHandler(void)
{
    2582:	1141                	addi	sp,sp,-16
    2584:	c622                	sw	s0,12(sp)
    2586:	0800                	addi	s0,sp,16
D:/projects/mechanical_arm/Firmware/ArmMainControler/project/user/src/isr.c:160
    if(SET == EXTI_GetITStatus(EXTI_Line0))
    2588:	4505                	li	a0,1
    258a:	009000ef          	jal	ra,2d92 <EXTI_GetITStatus>
    258e:	872a                	mv	a4,a0
    2590:	4785                	li	a5,1
    2592:	00f71563          	bne	a4,a5,259c <EXTI0_IRQHandler+0x1a>
D:/projects/mechanical_arm/Firmware/ArmMainControler/project/user/src/isr.c:162
    {
        EXTI_ClearITPendingBit(EXTI_Line0);
    2596:	4505                	li	a0,1
    2598:	051000ef          	jal	ra,2de8 <EXTI_ClearITPendingBit>
D:/projects/mechanical_arm/Firmware/ArmMainControler/project/user/src/isr.c:165

    }
}
    259c:	0001                	nop
    259e:	4432                	lw	s0,12(sp)
    25a0:	0141                	addi	sp,sp,16
    25a2:	30200073          	mret

000025a6 <EXTI1_IRQHandler>:
EXTI1_IRQHandler():
D:/projects/mechanical_arm/Firmware/ArmMainControler/project/user/src/isr.c:168

void EXTI1_IRQHandler(void)
{
    25a6:	1141                	addi	sp,sp,-16
    25a8:	c622                	sw	s0,12(sp)
    25aa:	0800                	addi	s0,sp,16
D:/projects/mechanical_arm/Firmware/ArmMainControler/project/user/src/isr.c:169
    if(SET == EXTI_GetITStatus(EXTI_Line1))
    25ac:	4509                	li	a0,2
    25ae:	7e4000ef          	jal	ra,2d92 <EXTI_GetITStatus>
    25b2:	872a                	mv	a4,a0
    25b4:	4785                	li	a5,1
    25b6:	00f71563          	bne	a4,a5,25c0 <EXTI1_IRQHandler+0x1a>
D:/projects/mechanical_arm/Firmware/ArmMainControler/project/user/src/isr.c:171
    {
        EXTI_ClearITPendingBit(EXTI_Line1);
    25ba:	4509                	li	a0,2
    25bc:	02d000ef          	jal	ra,2de8 <EXTI_ClearITPendingBit>
D:/projects/mechanical_arm/Firmware/ArmMainControler/project/user/src/isr.c:174

    }
}
    25c0:	0001                	nop
    25c2:	4432                	lw	s0,12(sp)
    25c4:	0141                	addi	sp,sp,16
    25c6:	30200073          	mret

000025ca <EXTI2_IRQHandler>:
EXTI2_IRQHandler():
D:/projects/mechanical_arm/Firmware/ArmMainControler/project/user/src/isr.c:177

void EXTI2_IRQHandler(void)
{
    25ca:	1141                	addi	sp,sp,-16
    25cc:	c622                	sw	s0,12(sp)
    25ce:	0800                	addi	s0,sp,16
D:/projects/mechanical_arm/Firmware/ArmMainControler/project/user/src/isr.c:178
    if(SET == EXTI_GetITStatus(EXTI_Line2))
    25d0:	4511                	li	a0,4
    25d2:	7c0000ef          	jal	ra,2d92 <EXTI_GetITStatus>
    25d6:	872a                	mv	a4,a0
    25d8:	4785                	li	a5,1
    25da:	00f71563          	bne	a4,a5,25e4 <EXTI2_IRQHandler+0x1a>
D:/projects/mechanical_arm/Firmware/ArmMainControler/project/user/src/isr.c:180
    {
        EXTI_ClearITPendingBit(EXTI_Line2);
    25de:	4511                	li	a0,4
    25e0:	009000ef          	jal	ra,2de8 <EXTI_ClearITPendingBit>
D:/projects/mechanical_arm/Firmware/ArmMainControler/project/user/src/isr.c:183

    }
}
    25e4:	0001                	nop
    25e6:	4432                	lw	s0,12(sp)
    25e8:	0141                	addi	sp,sp,16
    25ea:	30200073          	mret

000025ee <EXTI3_IRQHandler>:
EXTI3_IRQHandler():
D:/projects/mechanical_arm/Firmware/ArmMainControler/project/user/src/isr.c:186

void EXTI3_IRQHandler(void)
{
    25ee:	1141                	addi	sp,sp,-16
    25f0:	c622                	sw	s0,12(sp)
    25f2:	0800                	addi	s0,sp,16
D:/projects/mechanical_arm/Firmware/ArmMainControler/project/user/src/isr.c:187
    if(SET == EXTI_GetITStatus(EXTI_Line3))
    25f4:	4521                	li	a0,8
    25f6:	79c000ef          	jal	ra,2d92 <EXTI_GetITStatus>
    25fa:	872a                	mv	a4,a0
    25fc:	4785                	li	a5,1
    25fe:	00f71563          	bne	a4,a5,2608 <EXTI3_IRQHandler+0x1a>
D:/projects/mechanical_arm/Firmware/ArmMainControler/project/user/src/isr.c:189
    {
        EXTI_ClearITPendingBit(EXTI_Line3);
    2602:	4521                	li	a0,8
    2604:	7e4000ef          	jal	ra,2de8 <EXTI_ClearITPendingBit>
D:/projects/mechanical_arm/Firmware/ArmMainControler/project/user/src/isr.c:192

    }
}
    2608:	0001                	nop
    260a:	4432                	lw	s0,12(sp)
    260c:	0141                	addi	sp,sp,16
    260e:	30200073          	mret

00002612 <EXTI4_IRQHandler>:
EXTI4_IRQHandler():
D:/projects/mechanical_arm/Firmware/ArmMainControler/project/user/src/isr.c:195

void EXTI4_IRQHandler(void)
{
    2612:	1141                	addi	sp,sp,-16
    2614:	c622                	sw	s0,12(sp)
    2616:	0800                	addi	s0,sp,16
D:/projects/mechanical_arm/Firmware/ArmMainControler/project/user/src/isr.c:196
    if(SET == EXTI_GetITStatus(EXTI_Line4))
    2618:	4541                	li	a0,16
    261a:	778000ef          	jal	ra,2d92 <EXTI_GetITStatus>
    261e:	872a                	mv	a4,a0
    2620:	4785                	li	a5,1
    2622:	00f71563          	bne	a4,a5,262c <EXTI4_IRQHandler+0x1a>
D:/projects/mechanical_arm/Firmware/ArmMainControler/project/user/src/isr.c:198
    {
        EXTI_ClearITPendingBit(EXTI_Line4);
    2626:	4541                	li	a0,16
    2628:	7c0000ef          	jal	ra,2de8 <EXTI_ClearITPendingBit>
D:/projects/mechanical_arm/Firmware/ArmMainControler/project/user/src/isr.c:201

    }
}
    262c:	0001                	nop
    262e:	4432                	lw	s0,12(sp)
    2630:	0141                	addi	sp,sp,16
    2632:	30200073          	mret

00002636 <EXTI9_5_IRQHandler>:
EXTI9_5_IRQHandler():
D:/projects/mechanical_arm/Firmware/ArmMainControler/project/user/src/isr.c:203
void EXTI9_5_IRQHandler(void)
{
    2636:	1141                	addi	sp,sp,-16
    2638:	c622                	sw	s0,12(sp)
    263a:	0800                	addi	s0,sp,16
D:/projects/mechanical_arm/Firmware/ArmMainControler/project/user/src/isr.c:204
    if(SET == EXTI_GetITStatus(EXTI_Line5))
    263c:	02000513          	li	a0,32
    2640:	752000ef          	jal	ra,2d92 <EXTI_GetITStatus>
    2644:	872a                	mv	a4,a0
    2646:	4785                	li	a5,1
    2648:	00f71663          	bne	a4,a5,2654 <EXTI9_5_IRQHandler+0x1e>
D:/projects/mechanical_arm/Firmware/ArmMainControler/project/user/src/isr.c:206
    {
        EXTI_ClearITPendingBit(EXTI_Line5);
    264c:	02000513          	li	a0,32
    2650:	798000ef          	jal	ra,2de8 <EXTI_ClearITPendingBit>
D:/projects/mechanical_arm/Firmware/ArmMainControler/project/user/src/isr.c:209

    }
    if(SET == EXTI_GetITStatus(EXTI_Line6))
    2654:	04000513          	li	a0,64
    2658:	73a000ef          	jal	ra,2d92 <EXTI_GetITStatus>
    265c:	872a                	mv	a4,a0
    265e:	4785                	li	a5,1
    2660:	00f71663          	bne	a4,a5,266c <EXTI9_5_IRQHandler+0x36>
D:/projects/mechanical_arm/Firmware/ArmMainControler/project/user/src/isr.c:211
    {
        EXTI_ClearITPendingBit(EXTI_Line6);
    2664:	04000513          	li	a0,64
    2668:	780000ef          	jal	ra,2de8 <EXTI_ClearITPendingBit>
D:/projects/mechanical_arm/Firmware/ArmMainControler/project/user/src/isr.c:214

    }
    if(SET == EXTI_GetITStatus(EXTI_Line7))
    266c:	08000513          	li	a0,128
    2670:	722000ef          	jal	ra,2d92 <EXTI_GetITStatus>
    2674:	872a                	mv	a4,a0
    2676:	4785                	li	a5,1
    2678:	00f71663          	bne	a4,a5,2684 <EXTI9_5_IRQHandler+0x4e>
D:/projects/mechanical_arm/Firmware/ArmMainControler/project/user/src/isr.c:216
    {
        EXTI_ClearITPendingBit(EXTI_Line7);
    267c:	08000513          	li	a0,128
    2680:	768000ef          	jal	ra,2de8 <EXTI_ClearITPendingBit>
D:/projects/mechanical_arm/Firmware/ArmMainControler/project/user/src/isr.c:219

    }
    if(SET == EXTI_GetITStatus(EXTI_Line8))
    2684:	10000513          	li	a0,256
    2688:	70a000ef          	jal	ra,2d92 <EXTI_GetITStatus>
    268c:	872a                	mv	a4,a0
    268e:	4785                	li	a5,1
    2690:	00f71663          	bne	a4,a5,269c <EXTI9_5_IRQHandler+0x66>
D:/projects/mechanical_arm/Firmware/ArmMainControler/project/user/src/isr.c:221
    {
        EXTI_ClearITPendingBit(EXTI_Line8);
    2694:	10000513          	li	a0,256
    2698:	750000ef          	jal	ra,2de8 <EXTI_ClearITPendingBit>
D:/projects/mechanical_arm/Firmware/ArmMainControler/project/user/src/isr.c:224

    }
    if(SET == EXTI_GetITStatus(EXTI_Line9))
    269c:	20000513          	li	a0,512
    26a0:	6f2000ef          	jal	ra,2d92 <EXTI_GetITStatus>
    26a4:	872a                	mv	a4,a0
    26a6:	4785                	li	a5,1
    26a8:	00f71663          	bne	a4,a5,26b4 <EXTI9_5_IRQHandler+0x7e>
D:/projects/mechanical_arm/Firmware/ArmMainControler/project/user/src/isr.c:226
    {
        EXTI_ClearITPendingBit(EXTI_Line9);
    26ac:	20000513          	li	a0,512
    26b0:	738000ef          	jal	ra,2de8 <EXTI_ClearITPendingBit>
D:/projects/mechanical_arm/Firmware/ArmMainControler/project/user/src/isr.c:230

    }

}
    26b4:	0001                	nop
    26b6:	4432                	lw	s0,12(sp)
    26b8:	0141                	addi	sp,sp,16
    26ba:	30200073          	mret

000026be <EXTI15_10_IRQHandler>:
EXTI15_10_IRQHandler():
D:/projects/mechanical_arm/Firmware/ArmMainControler/project/user/src/isr.c:233

void EXTI15_10_IRQHandler(void)
{
    26be:	1141                	addi	sp,sp,-16
    26c0:	c622                	sw	s0,12(sp)
    26c2:	0800                	addi	s0,sp,16
D:/projects/mechanical_arm/Firmware/ArmMainControler/project/user/src/isr.c:234
    if(SET == EXTI_GetITStatus(EXTI_Line10))
    26c4:	40000513          	li	a0,1024
    26c8:	25e9                	jal	2d92 <EXTI_GetITStatus>
    26ca:	872a                	mv	a4,a0
    26cc:	4785                	li	a5,1
    26ce:	00f71663          	bne	a4,a5,26da <EXTI15_10_IRQHandler+0x1c>
D:/projects/mechanical_arm/Firmware/ArmMainControler/project/user/src/isr.c:236
    {
        EXTI_ClearITPendingBit(EXTI_Line10);
    26d2:	40000513          	li	a0,1024
    26d6:	712000ef          	jal	ra,2de8 <EXTI_ClearITPendingBit>
D:/projects/mechanical_arm/Firmware/ArmMainControler/project/user/src/isr.c:239

    }
    if(SET == EXTI_GetITStatus(EXTI_Line11))
    26da:	6785                	lui	a5,0x1
    26dc:	80078513          	addi	a0,a5,-2048 # 800 <__stack_size>
    26e0:	2d4d                	jal	2d92 <EXTI_GetITStatus>
    26e2:	872a                	mv	a4,a0
    26e4:	4785                	li	a5,1
    26e6:	00f71763          	bne	a4,a5,26f4 <EXTI15_10_IRQHandler+0x36>
D:/projects/mechanical_arm/Firmware/ArmMainControler/project/user/src/isr.c:241
    {
        EXTI_ClearITPendingBit(EXTI_Line11);
    26ea:	6785                	lui	a5,0x1
    26ec:	80078513          	addi	a0,a5,-2048 # 800 <__stack_size>
    26f0:	6f8000ef          	jal	ra,2de8 <EXTI_ClearITPendingBit>
D:/projects/mechanical_arm/Firmware/ArmMainControler/project/user/src/isr.c:244

    }
    if(SET == EXTI_GetITStatus(EXTI_Line12))
    26f4:	6505                	lui	a0,0x1
    26f6:	2d71                	jal	2d92 <EXTI_GetITStatus>
    26f8:	872a                	mv	a4,a0
    26fa:	4785                	li	a5,1
    26fc:	00f71463          	bne	a4,a5,2704 <EXTI15_10_IRQHandler+0x46>
D:/projects/mechanical_arm/Firmware/ArmMainControler/project/user/src/isr.c:246
    {
        EXTI_ClearITPendingBit(EXTI_Line12);
    2700:	6505                	lui	a0,0x1
    2702:	25dd                	jal	2de8 <EXTI_ClearITPendingBit>
D:/projects/mechanical_arm/Firmware/ArmMainControler/project/user/src/isr.c:249

    }
    if(SET == EXTI_GetITStatus(EXTI_Line13))
    2704:	6509                	lui	a0,0x2
    2706:	2571                	jal	2d92 <EXTI_GetITStatus>
    2708:	872a                	mv	a4,a0
    270a:	4785                	li	a5,1
    270c:	00f71463          	bne	a4,a5,2714 <EXTI15_10_IRQHandler+0x56>
D:/projects/mechanical_arm/Firmware/ArmMainControler/project/user/src/isr.c:251
    {
        EXTI_ClearITPendingBit(EXTI_Line13);
    2710:	6509                	lui	a0,0x2
    2712:	2dd9                	jal	2de8 <EXTI_ClearITPendingBit>
D:/projects/mechanical_arm/Firmware/ArmMainControler/project/user/src/isr.c:254

    }
    if(SET == EXTI_GetITStatus(EXTI_Line14))
    2714:	6511                	lui	a0,0x4
    2716:	2db5                	jal	2d92 <EXTI_GetITStatus>
    2718:	872a                	mv	a4,a0
    271a:	4785                	li	a5,1
    271c:	00f71463          	bne	a4,a5,2724 <EXTI15_10_IRQHandler+0x66>
D:/projects/mechanical_arm/Firmware/ArmMainControler/project/user/src/isr.c:256
    {
        EXTI_ClearITPendingBit(EXTI_Line14);
    2720:	6511                	lui	a0,0x4
    2722:	25d9                	jal	2de8 <EXTI_ClearITPendingBit>
D:/projects/mechanical_arm/Firmware/ArmMainControler/project/user/src/isr.c:259

    }
    if(SET == EXTI_GetITStatus(EXTI_Line15))
    2724:	6521                	lui	a0,0x8
    2726:	25b5                	jal	2d92 <EXTI_GetITStatus>
    2728:	872a                	mv	a4,a0
    272a:	4785                	li	a5,1
    272c:	00f71463          	bne	a4,a5,2734 <EXTI15_10_IRQHandler+0x76>
D:/projects/mechanical_arm/Firmware/ArmMainControler/project/user/src/isr.c:261
    {
        EXTI_ClearITPendingBit(EXTI_Line15);
    2730:	6521                	lui	a0,0x8
    2732:	2d5d                	jal	2de8 <EXTI_ClearITPendingBit>
D:/projects/mechanical_arm/Firmware/ArmMainControler/project/user/src/isr.c:264

    }
}
    2734:	0001                	nop
    2736:	4432                	lw	s0,12(sp)
    2738:	0141                	addi	sp,sp,16
    273a:	30200073          	mret

0000273e <TIM1_UP_IRQHandler>:
TIM1_UP_IRQHandler():
D:/projects/mechanical_arm/Firmware/ArmMainControler/project/user/src/isr.c:267

void TIM1_UP_IRQHandler(void)
{
    273e:	1141                	addi	sp,sp,-16
    2740:	c622                	sw	s0,12(sp)
    2742:	0800                	addi	s0,sp,16
D:/projects/mechanical_arm/Firmware/ArmMainControler/project/user/src/isr.c:268
    if(TIM_GetITStatus(TIM1, TIM_IT_Update) != RESET)
    2744:	4585                	li	a1,1
    2746:	400137b7          	lui	a5,0x40013
    274a:	c0078513          	addi	a0,a5,-1024 # 40012c00 <_eusrstack+0x20002c00>
    274e:	7ff000ef          	jal	ra,374c <TIM_GetITStatus>
    2752:	87aa                	mv	a5,a0
    2754:	cb81                	beqz	a5,2764 <TIM1_UP_IRQHandler+0x26>
D:/projects/mechanical_arm/Firmware/ArmMainControler/project/user/src/isr.c:270
    {
        TIM_ClearITPendingBit(TIM1, TIM_IT_Update);
    2756:	4585                	li	a1,1
    2758:	400137b7          	lui	a5,0x40013
    275c:	c0078513          	addi	a0,a5,-1024 # 40012c00 <_eusrstack+0x20002c00>
    2760:	05c010ef          	jal	ra,37bc <TIM_ClearITPendingBit>
D:/projects/mechanical_arm/Firmware/ArmMainControler/project/user/src/isr.c:273

    }
}
    2764:	0001                	nop
    2766:	4432                	lw	s0,12(sp)
    2768:	0141                	addi	sp,sp,16
    276a:	30200073          	mret

0000276e <TIM2_IRQHandler>:
TIM2_IRQHandler():
D:/projects/mechanical_arm/Firmware/ArmMainControler/project/user/src/isr.c:277


void TIM2_IRQHandler(void)
{
    276e:	1141                	addi	sp,sp,-16
    2770:	c622                	sw	s0,12(sp)
    2772:	0800                	addi	s0,sp,16
D:/projects/mechanical_arm/Firmware/ArmMainControler/project/user/src/isr.c:278
    if(TIM_GetITStatus(TIM2, TIM_IT_Update) != RESET)
    2774:	4585                	li	a1,1
    2776:	40000537          	lui	a0,0x40000
    277a:	7d3000ef          	jal	ra,374c <TIM_GetITStatus>
    277e:	87aa                	mv	a5,a0
    2780:	cb91                	beqz	a5,2794 <TIM2_IRQHandler+0x26>
D:/projects/mechanical_arm/Firmware/ArmMainControler/project/user/src/isr.c:280
    {
       TIM_ClearITPendingBit(TIM2, TIM_IT_Update );
    2782:	4585                	li	a1,1
    2784:	40000537          	lui	a0,0x40000
    2788:	034010ef          	jal	ra,37bc <TIM_ClearITPendingBit>
D:/projects/mechanical_arm/Firmware/ArmMainControler/project/user/src/isr.c:281
       gpio_toggle_level(E2);
    278c:	08200513          	li	a0,130
    2790:	b89fd0ef          	jal	ra,318 <gpio_toggle_level>
D:/projects/mechanical_arm/Firmware/ArmMainControler/project/user/src/isr.c:284

    }
}
    2794:	0001                	nop
    2796:	4432                	lw	s0,12(sp)
    2798:	0141                	addi	sp,sp,16
    279a:	30200073          	mret

0000279e <TIM3_IRQHandler>:
TIM3_IRQHandler():
D:/projects/mechanical_arm/Firmware/ArmMainControler/project/user/src/isr.c:287

void TIM3_IRQHandler(void)
{
    279e:	1141                	addi	sp,sp,-16
    27a0:	c622                	sw	s0,12(sp)
    27a2:	0800                	addi	s0,sp,16
D:/projects/mechanical_arm/Firmware/ArmMainControler/project/user/src/isr.c:288
    if(TIM_GetITStatus(TIM3, TIM_IT_Update) != RESET)
    27a4:	4585                	li	a1,1
    27a6:	400007b7          	lui	a5,0x40000
    27aa:	40078513          	addi	a0,a5,1024 # 40000400 <_eusrstack+0x1fff0400>
    27ae:	79f000ef          	jal	ra,374c <TIM_GetITStatus>
    27b2:	87aa                	mv	a5,a0
    27b4:	cb81                	beqz	a5,27c4 <TIM3_IRQHandler+0x26>
D:/projects/mechanical_arm/Firmware/ArmMainControler/project/user/src/isr.c:290
    {
       TIM_ClearITPendingBit(TIM3, TIM_IT_Update );
    27b6:	4585                	li	a1,1
    27b8:	400007b7          	lui	a5,0x40000
    27bc:	40078513          	addi	a0,a5,1024 # 40000400 <_eusrstack+0x1fff0400>
    27c0:	7fd000ef          	jal	ra,37bc <TIM_ClearITPendingBit>
D:/projects/mechanical_arm/Firmware/ArmMainControler/project/user/src/isr.c:294


    }
}
    27c4:	0001                	nop
    27c6:	4432                	lw	s0,12(sp)
    27c8:	0141                	addi	sp,sp,16
    27ca:	30200073          	mret

000027ce <TIM4_IRQHandler>:
TIM4_IRQHandler():
D:/projects/mechanical_arm/Firmware/ArmMainControler/project/user/src/isr.c:297

void TIM4_IRQHandler(void)
{
    27ce:	1141                	addi	sp,sp,-16
    27d0:	c622                	sw	s0,12(sp)
    27d2:	0800                	addi	s0,sp,16
D:/projects/mechanical_arm/Firmware/ArmMainControler/project/user/src/isr.c:298
    if(TIM_GetITStatus(TIM4, TIM_IT_Update) != RESET)
    27d4:	4585                	li	a1,1
    27d6:	400017b7          	lui	a5,0x40001
    27da:	80078513          	addi	a0,a5,-2048 # 40000800 <_eusrstack+0x1fff0800>
    27de:	76f000ef          	jal	ra,374c <TIM_GetITStatus>
    27e2:	87aa                	mv	a5,a0
    27e4:	cb81                	beqz	a5,27f4 <TIM4_IRQHandler+0x26>
D:/projects/mechanical_arm/Firmware/ArmMainControler/project/user/src/isr.c:300
    {
       TIM_ClearITPendingBit(TIM4, TIM_IT_Update );
    27e6:	4585                	li	a1,1
    27e8:	400017b7          	lui	a5,0x40001
    27ec:	80078513          	addi	a0,a5,-2048 # 40000800 <_eusrstack+0x1fff0800>
    27f0:	7cd000ef          	jal	ra,37bc <TIM_ClearITPendingBit>
D:/projects/mechanical_arm/Firmware/ArmMainControler/project/user/src/isr.c:304


    }
}
    27f4:	0001                	nop
    27f6:	4432                	lw	s0,12(sp)
    27f8:	0141                	addi	sp,sp,16
    27fa:	30200073          	mret

000027fe <TIM5_IRQHandler>:
TIM5_IRQHandler():
D:/projects/mechanical_arm/Firmware/ArmMainControler/project/user/src/isr.c:307

void TIM5_IRQHandler(void)
{
    27fe:	1141                	addi	sp,sp,-16
    2800:	c622                	sw	s0,12(sp)
    2802:	0800                	addi	s0,sp,16
D:/projects/mechanical_arm/Firmware/ArmMainControler/project/user/src/isr.c:308
    if(TIM_GetITStatus(TIM5, TIM_IT_Update) != RESET)
    2804:	4585                	li	a1,1
    2806:	400017b7          	lui	a5,0x40001
    280a:	c0078513          	addi	a0,a5,-1024 # 40000c00 <_eusrstack+0x1fff0c00>
    280e:	73f000ef          	jal	ra,374c <TIM_GetITStatus>
    2812:	87aa                	mv	a5,a0
    2814:	cb81                	beqz	a5,2824 <TIM5_IRQHandler+0x26>
D:/projects/mechanical_arm/Firmware/ArmMainControler/project/user/src/isr.c:310
    {
       TIM_ClearITPendingBit(TIM5, TIM_IT_Update );
    2816:	4585                	li	a1,1
    2818:	400017b7          	lui	a5,0x40001
    281c:	c0078513          	addi	a0,a5,-1024 # 40000c00 <_eusrstack+0x1fff0c00>
    2820:	79d000ef          	jal	ra,37bc <TIM_ClearITPendingBit>
D:/projects/mechanical_arm/Firmware/ArmMainControler/project/user/src/isr.c:314


    }
}
    2824:	0001                	nop
    2826:	4432                	lw	s0,12(sp)
    2828:	0141                	addi	sp,sp,16
    282a:	30200073          	mret

0000282e <TIM6_IRQHandler>:
TIM6_IRQHandler():
D:/projects/mechanical_arm/Firmware/ArmMainControler/project/user/src/isr.c:317

void TIM6_IRQHandler(void)
{
    282e:	1141                	addi	sp,sp,-16
    2830:	c622                	sw	s0,12(sp)
    2832:	0800                	addi	s0,sp,16
D:/projects/mechanical_arm/Firmware/ArmMainControler/project/user/src/isr.c:318
    if(TIM_GetITStatus(TIM6, TIM_IT_Update) != RESET)
    2834:	4585                	li	a1,1
    2836:	40001537          	lui	a0,0x40001
    283a:	713000ef          	jal	ra,374c <TIM_GetITStatus>
    283e:	87aa                	mv	a5,a0
    2840:	c791                	beqz	a5,284c <TIM6_IRQHandler+0x1e>
D:/projects/mechanical_arm/Firmware/ArmMainControler/project/user/src/isr.c:320
    {
       TIM_ClearITPendingBit(TIM6, TIM_IT_Update );
    2842:	4585                	li	a1,1
    2844:	40001537          	lui	a0,0x40001
    2848:	775000ef          	jal	ra,37bc <TIM_ClearITPendingBit>
D:/projects/mechanical_arm/Firmware/ArmMainControler/project/user/src/isr.c:324


    }
}
    284c:	0001                	nop
    284e:	4432                	lw	s0,12(sp)
    2850:	0141                	addi	sp,sp,16
    2852:	30200073          	mret

00002856 <TIM7_IRQHandler>:
TIM7_IRQHandler():
D:/projects/mechanical_arm/Firmware/ArmMainControler/project/user/src/isr.c:327

void TIM7_IRQHandler(void)
{
    2856:	1141                	addi	sp,sp,-16
    2858:	c622                	sw	s0,12(sp)
    285a:	0800                	addi	s0,sp,16
D:/projects/mechanical_arm/Firmware/ArmMainControler/project/user/src/isr.c:328
    if(TIM_GetITStatus(TIM7, TIM_IT_Update) != RESET)
    285c:	4585                	li	a1,1
    285e:	400017b7          	lui	a5,0x40001
    2862:	40078513          	addi	a0,a5,1024 # 40001400 <_eusrstack+0x1fff1400>
    2866:	6e7000ef          	jal	ra,374c <TIM_GetITStatus>
    286a:	87aa                	mv	a5,a0
    286c:	cb81                	beqz	a5,287c <TIM7_IRQHandler+0x26>
D:/projects/mechanical_arm/Firmware/ArmMainControler/project/user/src/isr.c:330
    {
       TIM_ClearITPendingBit(TIM7, TIM_IT_Update );
    286e:	4585                	li	a1,1
    2870:	400017b7          	lui	a5,0x40001
    2874:	40078513          	addi	a0,a5,1024 # 40001400 <_eusrstack+0x1fff1400>
    2878:	745000ef          	jal	ra,37bc <TIM_ClearITPendingBit>
D:/projects/mechanical_arm/Firmware/ArmMainControler/project/user/src/isr.c:334


    }
}
    287c:	0001                	nop
    287e:	4432                	lw	s0,12(sp)
    2880:	0141                	addi	sp,sp,16
    2882:	30200073          	mret

00002886 <TIM8_UP_IRQHandler>:
TIM8_UP_IRQHandler():
D:/projects/mechanical_arm/Firmware/ArmMainControler/project/user/src/isr.c:338


void TIM8_UP_IRQHandler(void)
{
    2886:	1141                	addi	sp,sp,-16
    2888:	c622                	sw	s0,12(sp)
    288a:	0800                	addi	s0,sp,16
D:/projects/mechanical_arm/Firmware/ArmMainControler/project/user/src/isr.c:339
    if(TIM_GetITStatus(TIM8, TIM_IT_Update) != RESET)
    288c:	4585                	li	a1,1
    288e:	400137b7          	lui	a5,0x40013
    2892:	40078513          	addi	a0,a5,1024 # 40013400 <_eusrstack+0x20003400>
    2896:	6b7000ef          	jal	ra,374c <TIM_GetITStatus>
    289a:	87aa                	mv	a5,a0
    289c:	cb81                	beqz	a5,28ac <TIM8_UP_IRQHandler+0x26>
D:/projects/mechanical_arm/Firmware/ArmMainControler/project/user/src/isr.c:341
    {
        TIM_ClearITPendingBit(TIM8, TIM_IT_Update);
    289e:	4585                	li	a1,1
    28a0:	400137b7          	lui	a5,0x40013
    28a4:	40078513          	addi	a0,a5,1024 # 40013400 <_eusrstack+0x20003400>
    28a8:	715000ef          	jal	ra,37bc <TIM_ClearITPendingBit>
D:/projects/mechanical_arm/Firmware/ArmMainControler/project/user/src/isr.c:344

    }
}
    28ac:	0001                	nop
    28ae:	4432                	lw	s0,12(sp)
    28b0:	0141                	addi	sp,sp,16
    28b2:	30200073          	mret

000028b6 <TIM9_UP_IRQHandler>:
TIM9_UP_IRQHandler():
D:/projects/mechanical_arm/Firmware/ArmMainControler/project/user/src/isr.c:348


void TIM9_UP_IRQHandler(void)
{
    28b6:	1141                	addi	sp,sp,-16
    28b8:	c622                	sw	s0,12(sp)
    28ba:	0800                	addi	s0,sp,16
D:/projects/mechanical_arm/Firmware/ArmMainControler/project/user/src/isr.c:349
    if(TIM_GetITStatus(TIM9, TIM_IT_Update) != RESET)
    28bc:	4585                	li	a1,1
    28be:	400157b7          	lui	a5,0x40015
    28c2:	c0078513          	addi	a0,a5,-1024 # 40014c00 <_eusrstack+0x20004c00>
    28c6:	687000ef          	jal	ra,374c <TIM_GetITStatus>
    28ca:	87aa                	mv	a5,a0
    28cc:	cb81                	beqz	a5,28dc <TIM9_UP_IRQHandler+0x26>
D:/projects/mechanical_arm/Firmware/ArmMainControler/project/user/src/isr.c:351
    {
        TIM_ClearITPendingBit(TIM9, TIM_IT_Update);
    28ce:	4585                	li	a1,1
    28d0:	400157b7          	lui	a5,0x40015
    28d4:	c0078513          	addi	a0,a5,-1024 # 40014c00 <_eusrstack+0x20004c00>
    28d8:	6e5000ef          	jal	ra,37bc <TIM_ClearITPendingBit>
D:/projects/mechanical_arm/Firmware/ArmMainControler/project/user/src/isr.c:354

    }
}
    28dc:	0001                	nop
    28de:	4432                	lw	s0,12(sp)
    28e0:	0141                	addi	sp,sp,16
    28e2:	30200073          	mret

000028e6 <TIM10_UP_IRQHandler>:
TIM10_UP_IRQHandler():
D:/projects/mechanical_arm/Firmware/ArmMainControler/project/user/src/isr.c:358


void TIM10_UP_IRQHandler(void)
{
    28e6:	1141                	addi	sp,sp,-16
    28e8:	c622                	sw	s0,12(sp)
    28ea:	0800                	addi	s0,sp,16
D:/projects/mechanical_arm/Firmware/ArmMainControler/project/user/src/isr.c:359
    if(TIM_GetITStatus(TIM10, TIM_IT_Update) != RESET)
    28ec:	4585                	li	a1,1
    28ee:	40015537          	lui	a0,0x40015
    28f2:	65b000ef          	jal	ra,374c <TIM_GetITStatus>
    28f6:	87aa                	mv	a5,a0
    28f8:	c791                	beqz	a5,2904 <TIM10_UP_IRQHandler+0x1e>
D:/projects/mechanical_arm/Firmware/ArmMainControler/project/user/src/isr.c:361
    {
        TIM_ClearITPendingBit(TIM10, TIM_IT_Update);
    28fa:	4585                	li	a1,1
    28fc:	40015537          	lui	a0,0x40015
    2900:	6bd000ef          	jal	ra,37bc <TIM_ClearITPendingBit>
D:/projects/mechanical_arm/Firmware/ArmMainControler/project/user/src/isr.c:364

    }
}
    2904:	0001                	nop
    2906:	4432                	lw	s0,12(sp)
    2908:	0141                	addi	sp,sp,16
    290a:	30200073          	mret

0000290e <NMI_Handler>:
NMI_Handler():
D:/projects/mechanical_arm/Firmware/ArmMainControler/project/user/src/isr.c:460
* Description    : This function handles NMI exception.
* Input          : None
* Return         : None
*******************************************************************************/
void NMI_Handler(void)
{
    290e:	1141                	addi	sp,sp,-16
    2910:	c622                	sw	s0,12(sp)
    2912:	0800                	addi	s0,sp,16
D:/projects/mechanical_arm/Firmware/ArmMainControler/project/user/src/isr.c:461
}
    2914:	0001                	nop
    2916:	4432                	lw	s0,12(sp)
    2918:	0141                	addi	sp,sp,16
    291a:	30200073          	mret

0000291e <HardFault_Handler>:
HardFault_Handler():
D:/projects/mechanical_arm/Firmware/ArmMainControler/project/user/src/isr.c:470
* Description    : This function handles Hard Fault exception.
* Input          : None
* Return         : None
*******************************************************************************/
void HardFault_Handler(void)
{
    291e:	1141                	addi	sp,sp,-16
    2920:	c622                	sw	s0,12(sp)
    2922:	0800                	addi	s0,sp,16
D:/projects/mechanical_arm/Firmware/ArmMainControler/project/user/src/isr.c:471 (discriminator 1)
  while (1)
    2924:	a001                	j	2924 <HardFault_Handler+0x6>

00002926 <Blink>:
Blink():
D:/projects/mechanical_arm/Firmware/ArmMainControler/project/user/src/main.c:36
/*
 * @note:控制机械臂主板上的LED闪烁
*/
#define CONTROLER_INDICATOR A10
void Blink()
{
    2926:	1141                	addi	sp,sp,-16
    2928:	c606                	sw	ra,12(sp)
    292a:	c422                	sw	s0,8(sp)
    292c:	0800                	addi	s0,sp,16
D:/projects/mechanical_arm/Firmware/ArmMainControler/project/user/src/main.c:38
    static int i = 0;
    if (i >= 100)
    292e:	8601a703          	lw	a4,-1952(gp) # 20000280 <i.6861>
    2932:	06300793          	li	a5,99
    2936:	00e7d763          	bge	a5,a4,2944 <Blink+0x1e>
D:/projects/mechanical_arm/Firmware/ArmMainControler/project/user/src/main.c:40
    {
        gpio_toggle_level(CONTROLER_INDICATOR);
    293a:	4529                	li	a0,10
    293c:	9ddfd0ef          	jal	ra,318 <gpio_toggle_level>
D:/projects/mechanical_arm/Firmware/ArmMainControler/project/user/src/main.c:41
        i = 0;
    2940:	8601a023          	sw	zero,-1952(gp) # 20000280 <i.6861>
D:/projects/mechanical_arm/Firmware/ArmMainControler/project/user/src/main.c:43
    }
    i++;
    2944:	8601a783          	lw	a5,-1952(gp) # 20000280 <i.6861>
    2948:	00178713          	addi	a4,a5,1
    294c:	86e1a023          	sw	a4,-1952(gp) # 20000280 <i.6861>
D:/projects/mechanical_arm/Firmware/ArmMainControler/project/user/src/main.c:44
}
    2950:	0001                	nop
    2952:	40b2                	lw	ra,12(sp)
    2954:	4422                	lw	s0,8(sp)
    2956:	0141                	addi	sp,sp,16
    2958:	8082                	ret

0000295a <KeyInit>:
KeyInit():
D:/projects/mechanical_arm/Firmware/ArmMainControler/project/user/src/main.c:47

void KeyInit()
{
    295a:	1141                	addi	sp,sp,-16
    295c:	c606                	sw	ra,12(sp)
    295e:	c422                	sw	s0,8(sp)
    2960:	0800                	addi	s0,sp,16
D:/projects/mechanical_arm/Firmware/ArmMainControler/project/user/src/main.c:49
    // Note: 5Key内部已使用下拉电阻
    gpio_init(KEY_UP, GPI, GPIO_LOW, GPI_PULL_DOWN);
    2962:	02800693          	li	a3,40
    2966:	4601                	li	a2,0
    2968:	4581                	li	a1,0
    296a:	08100513          	li	a0,129
    296e:	a11fd0ef          	jal	ra,37e <gpio_init>
D:/projects/mechanical_arm/Firmware/ArmMainControler/project/user/src/main.c:50
    gpio_init(KEY_DOWN, GPI, GPIO_LOW, GPI_PULL_DOWN);
    2972:	02800693          	li	a3,40
    2976:	4601                	li	a2,0
    2978:	4581                	li	a1,0
    297a:	08200513          	li	a0,130
    297e:	a01fd0ef          	jal	ra,37e <gpio_init>
D:/projects/mechanical_arm/Firmware/ArmMainControler/project/user/src/main.c:51
    gpio_init(KEY_MID, GPI, GPIO_LOW, GPI_PULL_DOWN);
    2982:	02800693          	li	a3,40
    2986:	4601                	li	a2,0
    2988:	4581                	li	a1,0
    298a:	06d00513          	li	a0,109
    298e:	9f1fd0ef          	jal	ra,37e <gpio_init>
D:/projects/mechanical_arm/Firmware/ArmMainControler/project/user/src/main.c:52
    gpio_init(KEY_LEFT, GPI, GPIO_LOW, GPI_PULL_DOWN);
    2992:	02800693          	li	a3,40
    2996:	4601                	li	a2,0
    2998:	4581                	li	a1,0
    299a:	06600513          	li	a0,102
    299e:	9e1fd0ef          	jal	ra,37e <gpio_init>
D:/projects/mechanical_arm/Firmware/ArmMainControler/project/user/src/main.c:53
    gpio_init(KEY_RIGHT, GPI, GPIO_LOW, GPI_PULL_DOWN);
    29a2:	02800693          	li	a3,40
    29a6:	4601                	li	a2,0
    29a8:	4581                	li	a1,0
    29aa:	08300513          	li	a0,131
    29ae:	9d1fd0ef          	jal	ra,37e <gpio_init>
D:/projects/mechanical_arm/Firmware/ArmMainControler/project/user/src/main.c:54
}
    29b2:	0001                	nop
    29b4:	40b2                	lw	ra,12(sp)
    29b6:	4422                	lw	s0,8(sp)
    29b8:	0141                	addi	sp,sp,16
    29ba:	8082                	ret

000029bc <Init>:
Init():
D:/projects/mechanical_arm/Firmware/ArmMainControler/project/user/src/main.c:86
        gpio_set_level(BEEP, 0);
    }
}

void Init()
{
    29bc:	1141                	addi	sp,sp,-16
    29be:	c606                	sw	ra,12(sp)
    29c0:	c422                	sw	s0,8(sp)
    29c2:	0800                	addi	s0,sp,16
D:/projects/mechanical_arm/Firmware/ArmMainControler/project/user/src/main.c:87
    tft180_init();
    29c4:	e97fe0ef          	jal	ra,185a <tft180_init>
D:/projects/mechanical_arm/Firmware/ArmMainControler/project/user/src/main.c:88
    gpio_init(CONTROLER_INDICATOR, GPO, GPIO_LOW, GPO_PUSH_PULL);
    29c8:	46c1                	li	a3,16
    29ca:	4601                	li	a2,0
    29cc:	4585                	li	a1,1
    29ce:	4529                	li	a0,10
    29d0:	9affd0ef          	jal	ra,37e <gpio_init>
D:/projects/mechanical_arm/Firmware/ArmMainControler/project/user/src/main.c:89
    gpio_init(BEEP, GPO, GPIO_LOW, GPO_PUSH_PULL);
    29d4:	46c1                	li	a3,16
    29d6:	4601                	li	a2,0
    29d8:	4585                	li	a1,1
    29da:	08f00513          	li	a0,143
    29de:	9a1fd0ef          	jal	ra,37e <gpio_init>
D:/projects/mechanical_arm/Firmware/ArmMainControler/project/user/src/main.c:90
    KeyInit();
    29e2:	3fa5                	jal	295a <KeyInit>
D:/projects/mechanical_arm/Firmware/ArmMainControler/project/user/src/main.c:91
}
    29e4:	0001                	nop
    29e6:	40b2                	lw	ra,12(sp)
    29e8:	4422                	lw	s0,8(sp)
    29ea:	0141                	addi	sp,sp,16
    29ec:	8082                	ret

000029ee <main>:
main():
D:/projects/mechanical_arm/Firmware/ArmMainControler/project/user/src/main.c:94

int main(void)
{
    29ee:	1141                	addi	sp,sp,-16
    29f0:	c606                	sw	ra,12(sp)
    29f2:	c422                	sw	s0,8(sp)
    29f4:	c24a                	sw	s2,4(sp)
    29f6:	c04e                	sw	s3,0(sp)
    29f8:	0800                	addi	s0,sp,16
D:/projects/mechanical_arm/Firmware/ArmMainControler/project/user/src/main.c:95
    interrupt_global_disable();             // 关闭总中断
    29fa:	949ff0ef          	jal	ra,2342 <interrupt_global_disable>
D:/projects/mechanical_arm/Firmware/ArmMainControler/project/user/src/main.c:96
    clock_init(SYSTEM_CLOCK_144M);          // 务必保留，设置系统时钟。
    29fe:	089547b7          	lui	a5,0x8954
    2a02:	40078513          	addi	a0,a5,1024 # 8954400 <_data_lma+0x8949f84>
    2a06:	b14ff0ef          	jal	ra,1d1a <clock_init>
D:/projects/mechanical_arm/Firmware/ArmMainControler/project/user/src/main.c:97
    debug_init();                           // 务必保留，本函数用于初始化MPU 时钟 调试串口
    2a0a:	e1eff0ef          	jal	ra,2028 <debug_init>
D:/projects/mechanical_arm/Firmware/ArmMainControler/project/user/src/main.c:99

    Init();
    2a0e:	377d                	jal	29bc <Init>
D:/projects/mechanical_arm/Firmware/ArmMainControler/project/user/src/main.c:100
    interrupt_global_enable();              // 总中断最后开启
    2a10:	905ff0ef          	jal	ra,2314 <interrupt_global_enable>
D:/projects/mechanical_arm/Firmware/ArmMainControler/project/user/src/main.c:104 (discriminator 1)
    while(1)
    {
        //FiveKeyStatus();
        tft180_show_char(10,10, 'A');
    2a14:	04100613          	li	a2,65
    2a18:	45a9                	li	a1,10
    2a1a:	4529                	li	a0,10
    2a1c:	cfdfe0ef          	jal	ra,1718 <tft180_show_char>
D:/projects/mechanical_arm/Firmware/ArmMainControler/project/user/src/main.c:105 (discriminator 1)
        tft180_show_char(20,10, 'B');
    2a20:	04200613          	li	a2,66
    2a24:	45a9                	li	a1,10
    2a26:	4551                	li	a0,20
    2a28:	cf1fe0ef          	jal	ra,1718 <tft180_show_char>
D:/projects/mechanical_arm/Firmware/ArmMainControler/project/user/src/main.c:106 (discriminator 1)
        system_delay_ms(10);
    2a2c:	8541a703          	lw	a4,-1964(gp) # 20000274 <system_clock>
    2a30:	6789                	lui	a5,0x2
    2a32:	f4078793          	addi	a5,a5,-192 # 1f40 <clock_set_freq+0x188>
    2a36:	02f75733          	divu	a4,a4,a5
    2a3a:	87ba                	mv	a5,a4
    2a3c:	078a                	slli	a5,a5,0x2
    2a3e:	97ba                	add	a5,a5,a4
    2a40:	0786                	slli	a5,a5,0x1
    2a42:	893e                	mv	s2,a5
    2a44:	4981                	li	s3,0
    2a46:	854a                	mv	a0,s2
    2a48:	85ce                	mv	a1,s3
    2a4a:	873fd0ef          	jal	ra,2bc <system_delay>
D:/projects/mechanical_arm/Firmware/ArmMainControler/project/user/src/main.c:107 (discriminator 1)
        Blink();
    2a4e:	ed9ff0ef          	jal	ra,2926 <Blink>
D:/projects/mechanical_arm/Firmware/ArmMainControler/project/user/src/main.c:104 (discriminator 1)
        tft180_show_char(10,10, 'A');
    2a52:	b7c9                	j	2a14 <main+0x26>
D:/projects/mechanical_arm/Firmware/ArmMainControler/libraries/sdk/Startup/startup_ch32v30x.S:236
    .weak   DMA2_Channel8_IRQHandler   /* DMA2 Channel 8 */
    .weak   DMA2_Channel9_IRQHandler   /* DMA2 Channel 9 */
    .weak   DMA2_Channel10_IRQHandler  /* DMA2 Channel 10 */
    .weak   DMA2_Channel11_IRQHandler  /* DMA2 Channel 11 */

NMI_Handler:  1:  j 1b
    2a54:	a001                	j	2a54 <main+0x66>
D:/projects/mechanical_arm/Firmware/ArmMainControler/libraries/sdk/Startup/startup_ch32v30x.S:237
HardFault_Handler:  1:  j 1b
    2a56:	a001                	j	2a56 <main+0x68>

00002a58 <Ecall_M_Mode_Handler>:
Ecall_M_Mode_Handler():
D:/projects/mechanical_arm/Firmware/ArmMainControler/libraries/sdk/Startup/startup_ch32v30x.S:238
Ecall_M_Mode_Handler:  1:  j 1b
    2a58:	a001                	j	2a58 <Ecall_M_Mode_Handler>

00002a5a <Ecall_U_Mode_Handler>:
Ecall_U_Mode_Handler():
D:/projects/mechanical_arm/Firmware/ArmMainControler/libraries/sdk/Startup/startup_ch32v30x.S:239
Ecall_U_Mode_Handler:  1:  j 1b
    2a5a:	a001                	j	2a5a <Ecall_U_Mode_Handler>

00002a5c <Break_Point_Handler>:
Break_Point_Handler():
D:/projects/mechanical_arm/Firmware/ArmMainControler/libraries/sdk/Startup/startup_ch32v30x.S:240
Break_Point_Handler:  1:  j 1b
    2a5c:	a001                	j	2a5c <Break_Point_Handler>

00002a5e <SysTick_Handler>:
SysTick_Handler():
D:/projects/mechanical_arm/Firmware/ArmMainControler/libraries/sdk/Startup/startup_ch32v30x.S:241
SysTick_Handler:  1:  j 1b
    2a5e:	a001                	j	2a5e <SysTick_Handler>

00002a60 <SW_handler>:
SW_handler():
D:/projects/mechanical_arm/Firmware/ArmMainControler/libraries/sdk/Startup/startup_ch32v30x.S:242
SW_handler:  1:  j 1b
    2a60:	a001                	j	2a60 <SW_handler>

00002a62 <WWDG_IRQHandler>:
WWDG_IRQHandler():
D:/projects/mechanical_arm/Firmware/ArmMainControler/libraries/sdk/Startup/startup_ch32v30x.S:243
WWDG_IRQHandler:  1:  j 1b
    2a62:	a001                	j	2a62 <WWDG_IRQHandler>

00002a64 <PVD_IRQHandler>:
PVD_IRQHandler():
D:/projects/mechanical_arm/Firmware/ArmMainControler/libraries/sdk/Startup/startup_ch32v30x.S:244
PVD_IRQHandler:  1:  j 1b
    2a64:	a001                	j	2a64 <PVD_IRQHandler>

00002a66 <TAMPER_IRQHandler>:
TAMPER_IRQHandler():
D:/projects/mechanical_arm/Firmware/ArmMainControler/libraries/sdk/Startup/startup_ch32v30x.S:245
TAMPER_IRQHandler:  1:  j 1b
    2a66:	a001                	j	2a66 <TAMPER_IRQHandler>

00002a68 <RTC_IRQHandler>:
RTC_IRQHandler():
D:/projects/mechanical_arm/Firmware/ArmMainControler/libraries/sdk/Startup/startup_ch32v30x.S:246
RTC_IRQHandler:  1:  j 1b
    2a68:	a001                	j	2a68 <RTC_IRQHandler>

00002a6a <FLASH_IRQHandler>:
FLASH_IRQHandler():
D:/projects/mechanical_arm/Firmware/ArmMainControler/libraries/sdk/Startup/startup_ch32v30x.S:247
FLASH_IRQHandler:  1:  j 1b
    2a6a:	a001                	j	2a6a <FLASH_IRQHandler>

00002a6c <RCC_IRQHandler>:
RCC_IRQHandler():
D:/projects/mechanical_arm/Firmware/ArmMainControler/libraries/sdk/Startup/startup_ch32v30x.S:248
RCC_IRQHandler:  1:  j 1b
    2a6c:	a001                	j	2a6c <RCC_IRQHandler>
D:/projects/mechanical_arm/Firmware/ArmMainControler/libraries/sdk/Startup/startup_ch32v30x.S:249
EXTI0_IRQHandler:  1:  j 1b
    2a6e:	a001                	j	2a6e <RCC_IRQHandler+0x2>
D:/projects/mechanical_arm/Firmware/ArmMainControler/libraries/sdk/Startup/startup_ch32v30x.S:250
EXTI1_IRQHandler:  1:  j 1b
    2a70:	a001                	j	2a70 <RCC_IRQHandler+0x4>
D:/projects/mechanical_arm/Firmware/ArmMainControler/libraries/sdk/Startup/startup_ch32v30x.S:251
EXTI2_IRQHandler:  1:  j 1b
    2a72:	a001                	j	2a72 <RCC_IRQHandler+0x6>
D:/projects/mechanical_arm/Firmware/ArmMainControler/libraries/sdk/Startup/startup_ch32v30x.S:252
EXTI3_IRQHandler:  1:  j 1b
    2a74:	a001                	j	2a74 <RCC_IRQHandler+0x8>
D:/projects/mechanical_arm/Firmware/ArmMainControler/libraries/sdk/Startup/startup_ch32v30x.S:253
EXTI4_IRQHandler:  1:  j 1b
    2a76:	a001                	j	2a76 <RCC_IRQHandler+0xa>

00002a78 <DMA1_Channel1_IRQHandler>:
DMA1_Channel1_IRQHandler():
D:/projects/mechanical_arm/Firmware/ArmMainControler/libraries/sdk/Startup/startup_ch32v30x.S:254
DMA1_Channel1_IRQHandler:  1:  j 1b
    2a78:	a001                	j	2a78 <DMA1_Channel1_IRQHandler>

00002a7a <DMA1_Channel2_IRQHandler>:
DMA1_Channel2_IRQHandler():
D:/projects/mechanical_arm/Firmware/ArmMainControler/libraries/sdk/Startup/startup_ch32v30x.S:255
DMA1_Channel2_IRQHandler:  1:  j 1b
    2a7a:	a001                	j	2a7a <DMA1_Channel2_IRQHandler>

00002a7c <DMA1_Channel3_IRQHandler>:
DMA1_Channel3_IRQHandler():
D:/projects/mechanical_arm/Firmware/ArmMainControler/libraries/sdk/Startup/startup_ch32v30x.S:256
DMA1_Channel3_IRQHandler:  1:  j 1b
    2a7c:	a001                	j	2a7c <DMA1_Channel3_IRQHandler>

00002a7e <DMA1_Channel4_IRQHandler>:
DMA1_Channel4_IRQHandler():
D:/projects/mechanical_arm/Firmware/ArmMainControler/libraries/sdk/Startup/startup_ch32v30x.S:257
DMA1_Channel4_IRQHandler:  1:  j 1b
    2a7e:	a001                	j	2a7e <DMA1_Channel4_IRQHandler>

00002a80 <DMA1_Channel5_IRQHandler>:
DMA1_Channel5_IRQHandler():
D:/projects/mechanical_arm/Firmware/ArmMainControler/libraries/sdk/Startup/startup_ch32v30x.S:258
DMA1_Channel5_IRQHandler:  1:  j 1b
    2a80:	a001                	j	2a80 <DMA1_Channel5_IRQHandler>

00002a82 <DMA1_Channel6_IRQHandler>:
DMA1_Channel6_IRQHandler():
D:/projects/mechanical_arm/Firmware/ArmMainControler/libraries/sdk/Startup/startup_ch32v30x.S:259
DMA1_Channel6_IRQHandler:  1:  j 1b
    2a82:	a001                	j	2a82 <DMA1_Channel6_IRQHandler>

00002a84 <DMA1_Channel7_IRQHandler>:
DMA1_Channel7_IRQHandler():
D:/projects/mechanical_arm/Firmware/ArmMainControler/libraries/sdk/Startup/startup_ch32v30x.S:260
DMA1_Channel7_IRQHandler:  1:  j 1b
    2a84:	a001                	j	2a84 <DMA1_Channel7_IRQHandler>

00002a86 <ADC1_2_IRQHandler>:
ADC1_2_IRQHandler():
D:/projects/mechanical_arm/Firmware/ArmMainControler/libraries/sdk/Startup/startup_ch32v30x.S:261
ADC1_2_IRQHandler:  1:  j 1b
    2a86:	a001                	j	2a86 <ADC1_2_IRQHandler>

00002a88 <USB_HP_CAN1_TX_IRQHandler>:
USB_HP_CAN1_TX_IRQHandler():
D:/projects/mechanical_arm/Firmware/ArmMainControler/libraries/sdk/Startup/startup_ch32v30x.S:262
USB_HP_CAN1_TX_IRQHandler:  1:  j 1b
    2a88:	a001                	j	2a88 <USB_HP_CAN1_TX_IRQHandler>

00002a8a <USB_LP_CAN1_RX0_IRQHandler>:
USB_LP_CAN1_RX0_IRQHandler():
D:/projects/mechanical_arm/Firmware/ArmMainControler/libraries/sdk/Startup/startup_ch32v30x.S:263
USB_LP_CAN1_RX0_IRQHandler:  1:  j 1b
    2a8a:	a001                	j	2a8a <USB_LP_CAN1_RX0_IRQHandler>

00002a8c <CAN1_RX1_IRQHandler>:
CAN1_RX1_IRQHandler():
D:/projects/mechanical_arm/Firmware/ArmMainControler/libraries/sdk/Startup/startup_ch32v30x.S:264
CAN1_RX1_IRQHandler:  1:  j 1b
    2a8c:	a001                	j	2a8c <CAN1_RX1_IRQHandler>

00002a8e <CAN1_SCE_IRQHandler>:
CAN1_SCE_IRQHandler():
D:/projects/mechanical_arm/Firmware/ArmMainControler/libraries/sdk/Startup/startup_ch32v30x.S:265
CAN1_SCE_IRQHandler:  1:  j 1b
    2a8e:	a001                	j	2a8e <CAN1_SCE_IRQHandler>
D:/projects/mechanical_arm/Firmware/ArmMainControler/libraries/sdk/Startup/startup_ch32v30x.S:266
EXTI9_5_IRQHandler:  1:  j 1b
    2a90:	a001                	j	2a90 <CAN1_SCE_IRQHandler+0x2>

00002a92 <TIM1_BRK_IRQHandler>:
TIM1_BRK_IRQHandler():
D:/projects/mechanical_arm/Firmware/ArmMainControler/libraries/sdk/Startup/startup_ch32v30x.S:267
TIM1_BRK_IRQHandler:  1:  j 1b
    2a92:	a001                	j	2a92 <TIM1_BRK_IRQHandler>
D:/projects/mechanical_arm/Firmware/ArmMainControler/libraries/sdk/Startup/startup_ch32v30x.S:268
TIM1_UP_IRQHandler:  1:  j 1b
    2a94:	a001                	j	2a94 <TIM1_BRK_IRQHandler+0x2>

00002a96 <TIM1_TRG_COM_IRQHandler>:
TIM1_TRG_COM_IRQHandler():
D:/projects/mechanical_arm/Firmware/ArmMainControler/libraries/sdk/Startup/startup_ch32v30x.S:269
TIM1_TRG_COM_IRQHandler:  1:  j 1b
    2a96:	a001                	j	2a96 <TIM1_TRG_COM_IRQHandler>

00002a98 <TIM1_CC_IRQHandler>:
TIM1_CC_IRQHandler():
D:/projects/mechanical_arm/Firmware/ArmMainControler/libraries/sdk/Startup/startup_ch32v30x.S:270
TIM1_CC_IRQHandler:  1:  j 1b
    2a98:	a001                	j	2a98 <TIM1_CC_IRQHandler>
D:/projects/mechanical_arm/Firmware/ArmMainControler/libraries/sdk/Startup/startup_ch32v30x.S:271
TIM2_IRQHandler:  1:  j 1b
    2a9a:	a001                	j	2a9a <TIM1_CC_IRQHandler+0x2>
D:/projects/mechanical_arm/Firmware/ArmMainControler/libraries/sdk/Startup/startup_ch32v30x.S:272
TIM3_IRQHandler:  1:  j 1b
    2a9c:	a001                	j	2a9c <TIM1_CC_IRQHandler+0x4>
D:/projects/mechanical_arm/Firmware/ArmMainControler/libraries/sdk/Startup/startup_ch32v30x.S:273
TIM4_IRQHandler:  1:  j 1b
    2a9e:	a001                	j	2a9e <TIM1_CC_IRQHandler+0x6>

00002aa0 <I2C1_EV_IRQHandler>:
I2C1_EV_IRQHandler():
D:/projects/mechanical_arm/Firmware/ArmMainControler/libraries/sdk/Startup/startup_ch32v30x.S:274
I2C1_EV_IRQHandler:  1:  j 1b
    2aa0:	a001                	j	2aa0 <I2C1_EV_IRQHandler>

00002aa2 <I2C1_ER_IRQHandler>:
I2C1_ER_IRQHandler():
D:/projects/mechanical_arm/Firmware/ArmMainControler/libraries/sdk/Startup/startup_ch32v30x.S:275
I2C1_ER_IRQHandler:  1:  j 1b
    2aa2:	a001                	j	2aa2 <I2C1_ER_IRQHandler>

00002aa4 <I2C2_EV_IRQHandler>:
I2C2_EV_IRQHandler():
D:/projects/mechanical_arm/Firmware/ArmMainControler/libraries/sdk/Startup/startup_ch32v30x.S:276
I2C2_EV_IRQHandler:  1:  j 1b
    2aa4:	a001                	j	2aa4 <I2C2_EV_IRQHandler>

00002aa6 <I2C2_ER_IRQHandler>:
I2C2_ER_IRQHandler():
D:/projects/mechanical_arm/Firmware/ArmMainControler/libraries/sdk/Startup/startup_ch32v30x.S:277
I2C2_ER_IRQHandler:  1:  j 1b
    2aa6:	a001                	j	2aa6 <I2C2_ER_IRQHandler>

00002aa8 <SPI1_IRQHandler>:
SPI1_IRQHandler():
D:/projects/mechanical_arm/Firmware/ArmMainControler/libraries/sdk/Startup/startup_ch32v30x.S:278
SPI1_IRQHandler:  1:  j 1b
    2aa8:	a001                	j	2aa8 <SPI1_IRQHandler>

00002aaa <SPI2_IRQHandler>:
SPI2_IRQHandler():
D:/projects/mechanical_arm/Firmware/ArmMainControler/libraries/sdk/Startup/startup_ch32v30x.S:279
SPI2_IRQHandler:  1:  j 1b
    2aaa:	a001                	j	2aaa <SPI2_IRQHandler>
D:/projects/mechanical_arm/Firmware/ArmMainControler/libraries/sdk/Startup/startup_ch32v30x.S:280
USART1_IRQHandler:  1:  j 1b
    2aac:	a001                	j	2aac <SPI2_IRQHandler+0x2>
D:/projects/mechanical_arm/Firmware/ArmMainControler/libraries/sdk/Startup/startup_ch32v30x.S:281
USART2_IRQHandler:  1:  j 1b
    2aae:	a001                	j	2aae <SPI2_IRQHandler+0x4>
D:/projects/mechanical_arm/Firmware/ArmMainControler/libraries/sdk/Startup/startup_ch32v30x.S:282
USART3_IRQHandler:  1:  j 1b
    2ab0:	a001                	j	2ab0 <SPI2_IRQHandler+0x6>
D:/projects/mechanical_arm/Firmware/ArmMainControler/libraries/sdk/Startup/startup_ch32v30x.S:283
EXTI15_10_IRQHandler:  1:  j 1b
    2ab2:	a001                	j	2ab2 <SPI2_IRQHandler+0x8>

00002ab4 <RTCAlarm_IRQHandler>:
RTCAlarm_IRQHandler():
D:/projects/mechanical_arm/Firmware/ArmMainControler/libraries/sdk/Startup/startup_ch32v30x.S:284
RTCAlarm_IRQHandler:  1:  j 1b
    2ab4:	a001                	j	2ab4 <RTCAlarm_IRQHandler>

00002ab6 <USBWakeUp_IRQHandler>:
USBWakeUp_IRQHandler():
D:/projects/mechanical_arm/Firmware/ArmMainControler/libraries/sdk/Startup/startup_ch32v30x.S:285
USBWakeUp_IRQHandler:  1:  j 1b
    2ab6:	a001                	j	2ab6 <USBWakeUp_IRQHandler>

00002ab8 <TIM8_BRK_IRQHandler>:
TIM8_BRK_IRQHandler():
D:/projects/mechanical_arm/Firmware/ArmMainControler/libraries/sdk/Startup/startup_ch32v30x.S:286
TIM8_BRK_IRQHandler:  1:  j 1b
    2ab8:	a001                	j	2ab8 <TIM8_BRK_IRQHandler>
D:/projects/mechanical_arm/Firmware/ArmMainControler/libraries/sdk/Startup/startup_ch32v30x.S:287
TIM8_UP_IRQHandler:  1:  j 1b
    2aba:	a001                	j	2aba <TIM8_BRK_IRQHandler+0x2>

00002abc <TIM8_TRG_COM_IRQHandler>:
TIM8_TRG_COM_IRQHandler():
D:/projects/mechanical_arm/Firmware/ArmMainControler/libraries/sdk/Startup/startup_ch32v30x.S:288
TIM8_TRG_COM_IRQHandler:  1:  j 1b
    2abc:	a001                	j	2abc <TIM8_TRG_COM_IRQHandler>

00002abe <TIM8_CC_IRQHandler>:
TIM8_CC_IRQHandler():
D:/projects/mechanical_arm/Firmware/ArmMainControler/libraries/sdk/Startup/startup_ch32v30x.S:289
TIM8_CC_IRQHandler:  1:  j 1b
    2abe:	a001                	j	2abe <TIM8_CC_IRQHandler>

00002ac0 <RNG_IRQHandler>:
RNG_IRQHandler():
D:/projects/mechanical_arm/Firmware/ArmMainControler/libraries/sdk/Startup/startup_ch32v30x.S:290
RNG_IRQHandler:  1:  j 1b
    2ac0:	a001                	j	2ac0 <RNG_IRQHandler>

00002ac2 <FSMC_IRQHandler>:
FSMC_IRQHandler():
D:/projects/mechanical_arm/Firmware/ArmMainControler/libraries/sdk/Startup/startup_ch32v30x.S:291
FSMC_IRQHandler:  1:  j 1b
    2ac2:	a001                	j	2ac2 <FSMC_IRQHandler>

00002ac4 <SDIO_IRQHandler>:
SDIO_IRQHandler():
D:/projects/mechanical_arm/Firmware/ArmMainControler/libraries/sdk/Startup/startup_ch32v30x.S:292
SDIO_IRQHandler:  1:  j 1b
    2ac4:	a001                	j	2ac4 <SDIO_IRQHandler>
D:/projects/mechanical_arm/Firmware/ArmMainControler/libraries/sdk/Startup/startup_ch32v30x.S:293
TIM5_IRQHandler:  1:  j 1b
    2ac6:	a001                	j	2ac6 <SDIO_IRQHandler+0x2>

00002ac8 <SPI3_IRQHandler>:
SPI3_IRQHandler():
D:/projects/mechanical_arm/Firmware/ArmMainControler/libraries/sdk/Startup/startup_ch32v30x.S:294
SPI3_IRQHandler:  1:  j 1b
    2ac8:	a001                	j	2ac8 <SPI3_IRQHandler>
D:/projects/mechanical_arm/Firmware/ArmMainControler/libraries/sdk/Startup/startup_ch32v30x.S:295
UART4_IRQHandler:  1:  j 1b
    2aca:	a001                	j	2aca <SPI3_IRQHandler+0x2>
D:/projects/mechanical_arm/Firmware/ArmMainControler/libraries/sdk/Startup/startup_ch32v30x.S:296
UART5_IRQHandler:  1:  j 1b
    2acc:	a001                	j	2acc <SPI3_IRQHandler+0x4>
D:/projects/mechanical_arm/Firmware/ArmMainControler/libraries/sdk/Startup/startup_ch32v30x.S:297
TIM6_IRQHandler:  1:  j 1b
    2ace:	a001                	j	2ace <SPI3_IRQHandler+0x6>
D:/projects/mechanical_arm/Firmware/ArmMainControler/libraries/sdk/Startup/startup_ch32v30x.S:298
TIM7_IRQHandler:  1:  j 1b
    2ad0:	a001                	j	2ad0 <SPI3_IRQHandler+0x8>

00002ad2 <DMA2_Channel1_IRQHandler>:
DMA2_Channel1_IRQHandler():
D:/projects/mechanical_arm/Firmware/ArmMainControler/libraries/sdk/Startup/startup_ch32v30x.S:299
DMA2_Channel1_IRQHandler:  1:  j 1b
    2ad2:	a001                	j	2ad2 <DMA2_Channel1_IRQHandler>

00002ad4 <DMA2_Channel2_IRQHandler>:
DMA2_Channel2_IRQHandler():
D:/projects/mechanical_arm/Firmware/ArmMainControler/libraries/sdk/Startup/startup_ch32v30x.S:300
DMA2_Channel2_IRQHandler:  1:  j 1b
    2ad4:	a001                	j	2ad4 <DMA2_Channel2_IRQHandler>

00002ad6 <DMA2_Channel3_IRQHandler>:
DMA2_Channel3_IRQHandler():
D:/projects/mechanical_arm/Firmware/ArmMainControler/libraries/sdk/Startup/startup_ch32v30x.S:301
DMA2_Channel3_IRQHandler:  1:  j 1b
    2ad6:	a001                	j	2ad6 <DMA2_Channel3_IRQHandler>

00002ad8 <DMA2_Channel4_IRQHandler>:
DMA2_Channel4_IRQHandler():
D:/projects/mechanical_arm/Firmware/ArmMainControler/libraries/sdk/Startup/startup_ch32v30x.S:302
DMA2_Channel4_IRQHandler:  1:  j 1b
    2ad8:	a001                	j	2ad8 <DMA2_Channel4_IRQHandler>

00002ada <DMA2_Channel5_IRQHandler>:
DMA2_Channel5_IRQHandler():
D:/projects/mechanical_arm/Firmware/ArmMainControler/libraries/sdk/Startup/startup_ch32v30x.S:303
DMA2_Channel5_IRQHandler:  1:  j 1b
    2ada:	a001                	j	2ada <DMA2_Channel5_IRQHandler>

00002adc <ETH_IRQHandler>:
ETH_IRQHandler():
D:/projects/mechanical_arm/Firmware/ArmMainControler/libraries/sdk/Startup/startup_ch32v30x.S:304
ETH_IRQHandler:  1:  j 1b
    2adc:	a001                	j	2adc <ETH_IRQHandler>

00002ade <ETH_WKUP_IRQHandler>:
ETH_WKUP_IRQHandler():
D:/projects/mechanical_arm/Firmware/ArmMainControler/libraries/sdk/Startup/startup_ch32v30x.S:305
ETH_WKUP_IRQHandler:  1:  j 1b
    2ade:	a001                	j	2ade <ETH_WKUP_IRQHandler>

00002ae0 <CAN2_TX_IRQHandler>:
CAN2_TX_IRQHandler():
D:/projects/mechanical_arm/Firmware/ArmMainControler/libraries/sdk/Startup/startup_ch32v30x.S:306
CAN2_TX_IRQHandler:  1:  j 1b
    2ae0:	a001                	j	2ae0 <CAN2_TX_IRQHandler>

00002ae2 <CAN2_RX0_IRQHandler>:
CAN2_RX0_IRQHandler():
D:/projects/mechanical_arm/Firmware/ArmMainControler/libraries/sdk/Startup/startup_ch32v30x.S:307
CAN2_RX0_IRQHandler:  1:  j 1b
    2ae2:	a001                	j	2ae2 <CAN2_RX0_IRQHandler>

00002ae4 <CAN2_RX1_IRQHandler>:
CAN2_RX1_IRQHandler():
D:/projects/mechanical_arm/Firmware/ArmMainControler/libraries/sdk/Startup/startup_ch32v30x.S:308
CAN2_RX1_IRQHandler:  1:  j 1b
    2ae4:	a001                	j	2ae4 <CAN2_RX1_IRQHandler>

00002ae6 <CAN2_SCE_IRQHandler>:
CAN2_SCE_IRQHandler():
D:/projects/mechanical_arm/Firmware/ArmMainControler/libraries/sdk/Startup/startup_ch32v30x.S:309
CAN2_SCE_IRQHandler:  1:  j 1b
    2ae6:	a001                	j	2ae6 <CAN2_SCE_IRQHandler>
D:/projects/mechanical_arm/Firmware/ArmMainControler/libraries/sdk/Startup/startup_ch32v30x.S:310
OTG_FS_IRQHandler:  1:  j 1b
    2ae8:	a001                	j	2ae8 <CAN2_SCE_IRQHandler+0x2>

00002aea <USBHSWakeup_IRQHandler>:
USBHSWakeup_IRQHandler():
D:/projects/mechanical_arm/Firmware/ArmMainControler/libraries/sdk/Startup/startup_ch32v30x.S:311
USBHSWakeup_IRQHandler:  1:  j 1b
    2aea:	a001                	j	2aea <USBHSWakeup_IRQHandler>

00002aec <USBHS_IRQHandler>:
USBHS_IRQHandler():
D:/projects/mechanical_arm/Firmware/ArmMainControler/libraries/sdk/Startup/startup_ch32v30x.S:312
USBHS_IRQHandler:  1:  j 1b
    2aec:	a001                	j	2aec <USBHS_IRQHandler>
D:/projects/mechanical_arm/Firmware/ArmMainControler/libraries/sdk/Startup/startup_ch32v30x.S:313
DVP_IRQHandler:  1:  j 1b
    2aee:	a001                	j	2aee <USBHS_IRQHandler+0x2>
D:/projects/mechanical_arm/Firmware/ArmMainControler/libraries/sdk/Startup/startup_ch32v30x.S:314
UART6_IRQHandler:  1:  j 1b
    2af0:	a001                	j	2af0 <USBHS_IRQHandler+0x4>
D:/projects/mechanical_arm/Firmware/ArmMainControler/libraries/sdk/Startup/startup_ch32v30x.S:315
UART7_IRQHandler:  1:  j 1b
    2af2:	a001                	j	2af2 <USBHS_IRQHandler+0x6>
D:/projects/mechanical_arm/Firmware/ArmMainControler/libraries/sdk/Startup/startup_ch32v30x.S:316
UART8_IRQHandler:  1:  j 1b
    2af4:	a001                	j	2af4 <USBHS_IRQHandler+0x8>

00002af6 <TIM9_BRK_IRQHandler>:
TIM9_BRK_IRQHandler():
D:/projects/mechanical_arm/Firmware/ArmMainControler/libraries/sdk/Startup/startup_ch32v30x.S:317
TIM9_BRK_IRQHandler:  1:  j 1b
    2af6:	a001                	j	2af6 <TIM9_BRK_IRQHandler>
D:/projects/mechanical_arm/Firmware/ArmMainControler/libraries/sdk/Startup/startup_ch32v30x.S:318
TIM9_UP_IRQHandler:  1:  j 1b
    2af8:	a001                	j	2af8 <TIM9_BRK_IRQHandler+0x2>

00002afa <TIM9_TRG_COM_IRQHandler>:
TIM9_TRG_COM_IRQHandler():
D:/projects/mechanical_arm/Firmware/ArmMainControler/libraries/sdk/Startup/startup_ch32v30x.S:319
TIM9_TRG_COM_IRQHandler:  1:  j 1b
    2afa:	a001                	j	2afa <TIM9_TRG_COM_IRQHandler>

00002afc <TIM9_CC_IRQHandler>:
TIM9_CC_IRQHandler():
D:/projects/mechanical_arm/Firmware/ArmMainControler/libraries/sdk/Startup/startup_ch32v30x.S:320
TIM9_CC_IRQHandler:  1:  j 1b
    2afc:	a001                	j	2afc <TIM9_CC_IRQHandler>

00002afe <TIM10_BRK_IRQHandler>:
TIM10_BRK_IRQHandler():
D:/projects/mechanical_arm/Firmware/ArmMainControler/libraries/sdk/Startup/startup_ch32v30x.S:321
TIM10_BRK_IRQHandler:  1:  j 1b
    2afe:	a001                	j	2afe <TIM10_BRK_IRQHandler>
D:/projects/mechanical_arm/Firmware/ArmMainControler/libraries/sdk/Startup/startup_ch32v30x.S:322
TIM10_UP_IRQHandler:  1:  j 1b
    2b00:	a001                	j	2b00 <TIM10_BRK_IRQHandler+0x2>

00002b02 <TIM10_TRG_COM_IRQHandler>:
TIM10_TRG_COM_IRQHandler():
D:/projects/mechanical_arm/Firmware/ArmMainControler/libraries/sdk/Startup/startup_ch32v30x.S:323
TIM10_TRG_COM_IRQHandler:  1:  j 1b
    2b02:	a001                	j	2b02 <TIM10_TRG_COM_IRQHandler>

00002b04 <TIM10_CC_IRQHandler>:
TIM10_CC_IRQHandler():
D:/projects/mechanical_arm/Firmware/ArmMainControler/libraries/sdk/Startup/startup_ch32v30x.S:324
TIM10_CC_IRQHandler:  1:  j 1b
    2b04:	a001                	j	2b04 <TIM10_CC_IRQHandler>

00002b06 <DMA2_Channel6_IRQHandler>:
DMA2_Channel6_IRQHandler():
D:/projects/mechanical_arm/Firmware/ArmMainControler/libraries/sdk/Startup/startup_ch32v30x.S:325
DMA2_Channel6_IRQHandler:  1:  j 1b
    2b06:	a001                	j	2b06 <DMA2_Channel6_IRQHandler>

00002b08 <DMA2_Channel7_IRQHandler>:
DMA2_Channel7_IRQHandler():
D:/projects/mechanical_arm/Firmware/ArmMainControler/libraries/sdk/Startup/startup_ch32v30x.S:326
DMA2_Channel7_IRQHandler:  1:  j 1b
    2b08:	a001                	j	2b08 <DMA2_Channel7_IRQHandler>

00002b0a <DMA2_Channel8_IRQHandler>:
DMA2_Channel8_IRQHandler():
D:/projects/mechanical_arm/Firmware/ArmMainControler/libraries/sdk/Startup/startup_ch32v30x.S:327
DMA2_Channel8_IRQHandler:  1:  j 1b
    2b0a:	a001                	j	2b0a <DMA2_Channel8_IRQHandler>

00002b0c <DMA2_Channel9_IRQHandler>:
DMA2_Channel9_IRQHandler():
D:/projects/mechanical_arm/Firmware/ArmMainControler/libraries/sdk/Startup/startup_ch32v30x.S:328
DMA2_Channel9_IRQHandler:  1:  j 1b
    2b0c:	a001                	j	2b0c <DMA2_Channel9_IRQHandler>

00002b0e <DMA2_Channel10_IRQHandler>:
DMA2_Channel10_IRQHandler():
D:/projects/mechanical_arm/Firmware/ArmMainControler/libraries/sdk/Startup/startup_ch32v30x.S:329
DMA2_Channel10_IRQHandler:  1:  j 1b
    2b0e:	a001                	j	2b0e <DMA2_Channel10_IRQHandler>

00002b10 <DMA2_Channel11_IRQHandler>:
DMA2_Channel11_IRQHandler():
D:/projects/mechanical_arm/Firmware/ArmMainControler/libraries/sdk/Startup/startup_ch32v30x.S:330
DMA2_Channel11_IRQHandler:  1:  j 1b
    2b10:	a001                	j	2b10 <DMA2_Channel11_IRQHandler>

00002b12 <handle_reset>:
handle_reset():
D:/projects/mechanical_arm/Firmware/ArmMainControler/libraries/sdk/Startup/startup_ch32v30x.S:340
	.align	1
handle_reset:
.option push 
.option	norelax 

    csrw mepc, t0
    2b12:	34129073          	csrw	mepc,t0
D:/projects/mechanical_arm/Firmware/ArmMainControler/libraries/sdk/Startup/startup_ch32v30x.S:341
	la gp, __global_pointer$
    2b16:	1fffe197          	auipc	gp,0x1fffe
    2b1a:	f0a18193          	addi	gp,gp,-246 # 20000a20 <__global_pointer$>
D:/projects/mechanical_arm/Firmware/ArmMainControler/libraries/sdk/Startup/startup_ch32v30x.S:344
.option	pop 
1:
	la sp, _eusrstack 
    2b1e:	2000d117          	auipc	sp,0x2000d
    2b22:	4e210113          	addi	sp,sp,1250 # 20010000 <_eusrstack>
D:/projects/mechanical_arm/Firmware/ArmMainControler/libraries/sdk/Startup/startup_ch32v30x.S:347
2:
	/* Load data section from flash to RAM */
	la a0, _data_lma
    2b26:	00008517          	auipc	a0,0x8
    2b2a:	95650513          	addi	a0,a0,-1706 # a47c <_data_lma>
D:/projects/mechanical_arm/Firmware/ArmMainControler/libraries/sdk/Startup/startup_ch32v30x.S:348
	la a1, _data_vma
    2b2e:	1fffd597          	auipc	a1,0x1fffd
    2b32:	4d258593          	addi	a1,a1,1234 # 20000000 <_data_vma>
D:/projects/mechanical_arm/Firmware/ArmMainControler/libraries/sdk/Startup/startup_ch32v30x.S:349
	la a2, _edata
    2b36:	83018613          	addi	a2,gp,-2000 # 20000250 <_edata>
D:/projects/mechanical_arm/Firmware/ArmMainControler/libraries/sdk/Startup/startup_ch32v30x.S:350
	bgeu a1, a2, 2f
    2b3a:	00c5fa63          	bgeu	a1,a2,2b4e <handle_reset+0x3c>
D:/projects/mechanical_arm/Firmware/ArmMainControler/libraries/sdk/Startup/startup_ch32v30x.S:352
1:
	lw t0, (a0)
    2b3e:	00052283          	lw	t0,0(a0)
D:/projects/mechanical_arm/Firmware/ArmMainControler/libraries/sdk/Startup/startup_ch32v30x.S:353
	sw t0, (a1)
    2b42:	0055a023          	sw	t0,0(a1)
D:/projects/mechanical_arm/Firmware/ArmMainControler/libraries/sdk/Startup/startup_ch32v30x.S:354
	addi a0, a0, 4
    2b46:	0511                	addi	a0,a0,4
D:/projects/mechanical_arm/Firmware/ArmMainControler/libraries/sdk/Startup/startup_ch32v30x.S:355
	addi a1, a1, 4
    2b48:	0591                	addi	a1,a1,4
D:/projects/mechanical_arm/Firmware/ArmMainControler/libraries/sdk/Startup/startup_ch32v30x.S:356
	bltu a1, a2, 1b
    2b4a:	fec5eae3          	bltu	a1,a2,2b3e <handle_reset+0x2c>
D:/projects/mechanical_arm/Firmware/ArmMainControler/libraries/sdk/Startup/startup_ch32v30x.S:359
2:
	/* Clear bss section */
	la a0, _sbss
    2b4e:	83018513          	addi	a0,gp,-2000 # 20000250 <_edata>
D:/projects/mechanical_arm/Firmware/ArmMainControler/libraries/sdk/Startup/startup_ch32v30x.S:360
	la a1, _ebss
    2b52:	8e418593          	addi	a1,gp,-1820 # 20000304 <_ebss>
D:/projects/mechanical_arm/Firmware/ArmMainControler/libraries/sdk/Startup/startup_ch32v30x.S:361
	bgeu a0, a1, 2f
    2b56:	00b57763          	bgeu	a0,a1,2b64 <handle_reset+0x52>
D:/projects/mechanical_arm/Firmware/ArmMainControler/libraries/sdk/Startup/startup_ch32v30x.S:363
1:
	sw zero, (a0)
    2b5a:	00052023          	sw	zero,0(a0)
D:/projects/mechanical_arm/Firmware/ArmMainControler/libraries/sdk/Startup/startup_ch32v30x.S:364
	addi a0, a0, 4
    2b5e:	0511                	addi	a0,a0,4
D:/projects/mechanical_arm/Firmware/ArmMainControler/libraries/sdk/Startup/startup_ch32v30x.S:365
	bltu a0, a1, 1b
    2b60:	feb56de3          	bltu	a0,a1,2b5a <handle_reset+0x48>
D:/projects/mechanical_arm/Firmware/ArmMainControler/libraries/sdk/Startup/startup_ch32v30x.S:367
2:
    li t0, 0x1f
    2b64:	42fd                	li	t0,31
D:/projects/mechanical_arm/Firmware/ArmMainControler/libraries/sdk/Startup/startup_ch32v30x.S:368
    csrw 0xbc0, t0
    2b66:	bc029073          	csrw	0xbc0,t0
D:/projects/mechanical_arm/Firmware/ArmMainControler/libraries/sdk/Startup/startup_ch32v30x.S:371

    /* Enable nested and hardware stack */
	li t0, 0x1f
    2b6a:	42fd                	li	t0,31
D:/projects/mechanical_arm/Firmware/ArmMainControler/libraries/sdk/Startup/startup_ch32v30x.S:372
	csrw 0x804, t0
    2b6c:	80429073          	csrw	0x804,t0
D:/projects/mechanical_arm/Firmware/ArmMainControler/libraries/sdk/Startup/startup_ch32v30x.S:376

    /* Enable floating point and interrupt */

   	li t0, 0x7888
    2b70:	000082b7          	lui	t0,0x8
    2b74:	88828293          	addi	t0,t0,-1912 # 7888 <_dtoa_r+0x470>
D:/projects/mechanical_arm/Firmware/ArmMainControler/libraries/sdk/Startup/startup_ch32v30x.S:377
   	csrs mstatus, t0
    2b78:	3002a073          	csrs	mstatus,t0
D:/projects/mechanical_arm/Firmware/ArmMainControler/libraries/sdk/Startup/startup_ch32v30x.S:379

 	la t0, _vector_base
    2b7c:	ffffd297          	auipc	t0,0xffffd
    2b80:	4bc28293          	addi	t0,t0,1212 # 38 <_einit>
D:/projects/mechanical_arm/Firmware/ArmMainControler/libraries/sdk/Startup/startup_ch32v30x.S:380
    ori t0, t0, 3           
    2b84:	0032e293          	ori	t0,t0,3
D:/projects/mechanical_arm/Firmware/ArmMainControler/libraries/sdk/Startup/startup_ch32v30x.S:381
	csrw mtvec, t0
    2b88:	30529073          	csrw	mtvec,t0
D:/projects/mechanical_arm/Firmware/ArmMainControler/libraries/sdk/Startup/startup_ch32v30x.S:383

    jal  SystemInit
    2b8c:	014000ef          	jal	ra,2ba0 <SystemInit>
D:/projects/mechanical_arm/Firmware/ArmMainControler/libraries/sdk/Startup/startup_ch32v30x.S:384
	la t0, main
    2b90:	00000297          	auipc	t0,0x0
    2b94:	e5e28293          	addi	t0,t0,-418 # 29ee <main>
D:/projects/mechanical_arm/Firmware/ArmMainControler/libraries/sdk/Startup/startup_ch32v30x.S:385
	csrw mepc, t0
    2b98:	34129073          	csrw	mepc,t0
D:/projects/mechanical_arm/Firmware/ArmMainControler/libraries/sdk/Startup/startup_ch32v30x.S:386
	mret
    2b9c:	30200073          	mret

00002ba0 <SystemInit>:
SystemInit():
D:/projects/mechanical_arm/Firmware/ArmMainControler/libraries/sdk/Startup/system_ch32v30x.c:83
*                  the PLL and update the SystemCoreClock variable.
* Input          : None
* Return         : None
*******************************************************************************************/
void SystemInit (void)
{
    2ba0:	1141                	addi	sp,sp,-16
    2ba2:	c606                	sw	ra,12(sp)
    2ba4:	c422                	sw	s0,8(sp)
    2ba6:	0800                	addi	s0,sp,16
D:/projects/mechanical_arm/Firmware/ArmMainControler/libraries/sdk/Startup/system_ch32v30x.c:84
  RCC->CTLR |= (uint32_t)0x00000001;
    2ba8:	400217b7          	lui	a5,0x40021
    2bac:	4398                	lw	a4,0(a5)
    2bae:	400217b7          	lui	a5,0x40021
    2bb2:	00176713          	ori	a4,a4,1
    2bb6:	c398                	sw	a4,0(a5)
D:/projects/mechanical_arm/Firmware/ArmMainControler/libraries/sdk/Startup/system_ch32v30x.c:85
  RCC->CFGR0 &= (uint32_t)0xF8FF0000;
    2bb8:	400217b7          	lui	a5,0x40021
    2bbc:	43d4                	lw	a3,4(a5)
    2bbe:	400217b7          	lui	a5,0x40021
    2bc2:	f8ff0737          	lui	a4,0xf8ff0
    2bc6:	8f75                	and	a4,a4,a3
    2bc8:	c3d8                	sw	a4,4(a5)
D:/projects/mechanical_arm/Firmware/ArmMainControler/libraries/sdk/Startup/system_ch32v30x.c:86
  RCC->CTLR &= (uint32_t)0xFEF6FFFF;
    2bca:	400217b7          	lui	a5,0x40021
    2bce:	4394                	lw	a3,0(a5)
    2bd0:	400217b7          	lui	a5,0x40021
    2bd4:	fef70737          	lui	a4,0xfef70
    2bd8:	177d                	addi	a4,a4,-1
    2bda:	8f75                	and	a4,a4,a3
    2bdc:	c398                	sw	a4,0(a5)
D:/projects/mechanical_arm/Firmware/ArmMainControler/libraries/sdk/Startup/system_ch32v30x.c:87
  RCC->CTLR &= (uint32_t)0xFFFBFFFF;
    2bde:	400217b7          	lui	a5,0x40021
    2be2:	4394                	lw	a3,0(a5)
    2be4:	400217b7          	lui	a5,0x40021
    2be8:	fffc0737          	lui	a4,0xfffc0
    2bec:	177d                	addi	a4,a4,-1
    2bee:	8f75                	and	a4,a4,a3
    2bf0:	c398                	sw	a4,0(a5)
D:/projects/mechanical_arm/Firmware/ArmMainControler/libraries/sdk/Startup/system_ch32v30x.c:88
  RCC->CFGR0 &= (uint32_t)0xFF80FFFF;
    2bf2:	400217b7          	lui	a5,0x40021
    2bf6:	43d4                	lw	a3,4(a5)
    2bf8:	400217b7          	lui	a5,0x40021
    2bfc:	ff810737          	lui	a4,0xff810
    2c00:	177d                	addi	a4,a4,-1
    2c02:	8f75                	and	a4,a4,a3
    2c04:	c3d8                	sw	a4,4(a5)
D:/projects/mechanical_arm/Firmware/ArmMainControler/libraries/sdk/Startup/system_ch32v30x.c:89
  RCC->INTR = 0x009F0000;    
    2c06:	400217b7          	lui	a5,0x40021
    2c0a:	009f0737          	lui	a4,0x9f0
    2c0e:	c798                	sw	a4,8(a5)
D:/projects/mechanical_arm/Firmware/ArmMainControler/libraries/sdk/Startup/system_ch32v30x.c:90
  SetSysClock();
    2c10:	2031                	jal	2c1c <SetSysClock>
D:/projects/mechanical_arm/Firmware/ArmMainControler/libraries/sdk/Startup/system_ch32v30x.c:91
}
    2c12:	0001                	nop
    2c14:	40b2                	lw	ra,12(sp)
    2c16:	4422                	lw	s0,8(sp)
    2c18:	0141                	addi	sp,sp,16
    2c1a:	8082                	ret

00002c1c <SetSysClock>:
SetSysClock():
D:/projects/mechanical_arm/Firmware/ArmMainControler/libraries/sdk/Startup/system_ch32v30x.c:168
* Description    : Configures the System clock frequency, HCLK, PCLK2 and PCLK1 prescalers. 
* Input          : None
* Return         : None
*******************************************************************************************/
static void SetSysClock(void)
{
    2c1c:	1141                	addi	sp,sp,-16
    2c1e:	c606                	sw	ra,12(sp)
    2c20:	c422                	sw	s0,8(sp)
    2c22:	0800                	addi	s0,sp,16
D:/projects/mechanical_arm/Firmware/ArmMainControler/libraries/sdk/Startup/system_ch32v30x.c:185
#elif defined SYSCLK_FREQ_96MHz
  SetSysClockTo96();
#elif defined SYSCLK_FREQ_120MHz
  SetSysClockTo120();
#elif defined SYSCLK_FREQ_144MHz
  SetSysClockTo144();
    2c24:	2031                	jal	2c30 <SetSysClockTo144>
D:/projects/mechanical_arm/Firmware/ArmMainControler/libraries/sdk/Startup/system_ch32v30x.c:193
#endif
 
 /* If none of the define above is enabled, the HSI is used as System clock
  * source (default after reset) 
	*/ 
}
    2c26:	0001                	nop
    2c28:	40b2                	lw	ra,12(sp)
    2c2a:	4422                	lw	s0,8(sp)
    2c2c:	0141                	addi	sp,sp,16
    2c2e:	8082                	ret

00002c30 <SetSysClockTo144>:
SetSysClockTo144():
D:/projects/mechanical_arm/Firmware/ArmMainControler/libraries/sdk/Startup/system_ch32v30x.c:745
* Description    : Sets System clock frequency to 144MHz and configure HCLK, PCLK2 and PCLK1 prescalers.
* Input          : None
* Return         : None
*******************************************************************************************/
static void SetSysClockTo144(void)
{
    2c30:	1101                	addi	sp,sp,-32
    2c32:	ce22                	sw	s0,28(sp)
    2c34:	1000                	addi	s0,sp,32
D:/projects/mechanical_arm/Firmware/ArmMainControler/libraries/sdk/Startup/system_ch32v30x.c:746
  __IO uint32_t StartUpCounter = 0, HSEStatus = 0;
    2c36:	fe042623          	sw	zero,-20(s0)
    2c3a:	fe042423          	sw	zero,-24(s0)
D:/projects/mechanical_arm/Firmware/ArmMainControler/libraries/sdk/Startup/system_ch32v30x.c:748

  RCC->CTLR |= ((uint32_t)RCC_HSEON);
    2c3e:	400217b7          	lui	a5,0x40021
    2c42:	4394                	lw	a3,0(a5)
    2c44:	400217b7          	lui	a5,0x40021
    2c48:	6741                	lui	a4,0x10
    2c4a:	8f55                	or	a4,a4,a3
    2c4c:	c398                	sw	a4,0(a5)
D:/projects/mechanical_arm/Firmware/ArmMainControler/libraries/sdk/Startup/system_ch32v30x.c:753 (discriminator 2)

  /* Wait till HSE is ready and if Time out is reached exit */
  do
  {
    HSEStatus = RCC->CTLR & RCC_HSERDY;
    2c4e:	400217b7          	lui	a5,0x40021
    2c52:	4398                	lw	a4,0(a5)
    2c54:	000207b7          	lui	a5,0x20
    2c58:	8ff9                	and	a5,a5,a4
    2c5a:	fef42423          	sw	a5,-24(s0)
D:/projects/mechanical_arm/Firmware/ArmMainControler/libraries/sdk/Startup/system_ch32v30x.c:754 (discriminator 2)
    StartUpCounter++;
    2c5e:	fec42783          	lw	a5,-20(s0)
    2c62:	0785                	addi	a5,a5,1
    2c64:	fef42623          	sw	a5,-20(s0)
D:/projects/mechanical_arm/Firmware/ArmMainControler/libraries/sdk/Startup/system_ch32v30x.c:755 (discriminator 2)
  } while((HSEStatus == 0) && (StartUpCounter != HSE_STARTUP_TIMEOUT));
    2c68:	fe842783          	lw	a5,-24(s0)
    2c6c:	e799                	bnez	a5,2c7a <SetSysClockTo144+0x4a>
D:/projects/mechanical_arm/Firmware/ArmMainControler/libraries/sdk/Startup/system_ch32v30x.c:755 (discriminator 1)
    2c6e:	fec42703          	lw	a4,-20(s0)
    2c72:	50000793          	li	a5,1280
    2c76:	fcf71ce3          	bne	a4,a5,2c4e <SetSysClockTo144+0x1e>
D:/projects/mechanical_arm/Firmware/ArmMainControler/libraries/sdk/Startup/system_ch32v30x.c:757

  if ((RCC->CTLR & RCC_HSERDY) != RESET)
    2c7a:	400217b7          	lui	a5,0x40021
    2c7e:	4398                	lw	a4,0(a5)
    2c80:	000207b7          	lui	a5,0x20
    2c84:	8ff9                	and	a5,a5,a4
    2c86:	c789                	beqz	a5,2c90 <SetSysClockTo144+0x60>
D:/projects/mechanical_arm/Firmware/ArmMainControler/libraries/sdk/Startup/system_ch32v30x.c:759
  {
    HSEStatus = (uint32_t)0x01;
    2c88:	4785                	li	a5,1
    2c8a:	fef42423          	sw	a5,-24(s0)
    2c8e:	a019                	j	2c94 <SetSysClockTo144+0x64>
D:/projects/mechanical_arm/Firmware/ArmMainControler/libraries/sdk/Startup/system_ch32v30x.c:763
  }
  else
  {
    HSEStatus = (uint32_t)0x00;
    2c90:	fe042423          	sw	zero,-24(s0)
D:/projects/mechanical_arm/Firmware/ArmMainControler/libraries/sdk/Startup/system_ch32v30x.c:766
  }

  if (HSEStatus == (uint32_t)0x01)
    2c94:	fe842703          	lw	a4,-24(s0)
    2c98:	4785                	li	a5,1
    2c9a:	0ef71863          	bne	a4,a5,2d8a <SetSysClockTo144+0x15a>
D:/projects/mechanical_arm/Firmware/ArmMainControler/libraries/sdk/Startup/system_ch32v30x.c:769
  {
    /* Enable Prefetch Buffer */
    FLASH->ACTLR |= FLASH_ACTLR_PRFTBE;
    2c9e:	400227b7          	lui	a5,0x40022
    2ca2:	4398                	lw	a4,0(a5)
    2ca4:	400227b7          	lui	a5,0x40022
    2ca8:	01076713          	ori	a4,a4,16
    2cac:	c398                	sw	a4,0(a5)
D:/projects/mechanical_arm/Firmware/ArmMainControler/libraries/sdk/Startup/system_ch32v30x.c:772

    /* Flash 2 wait state */
    FLASH->ACTLR &= (uint32_t)((uint32_t)~FLASH_ACTLR_LATENCY);
    2cae:	400227b7          	lui	a5,0x40022
    2cb2:	4398                	lw	a4,0(a5)
    2cb4:	400227b7          	lui	a5,0x40022
    2cb8:	9b71                	andi	a4,a4,-4
    2cba:	c398                	sw	a4,0(a5)
D:/projects/mechanical_arm/Firmware/ArmMainControler/libraries/sdk/Startup/system_ch32v30x.c:773
    FLASH->ACTLR |= (uint32_t)FLASH_ACTLR_LATENCY_2;
    2cbc:	400227b7          	lui	a5,0x40022
    2cc0:	4398                	lw	a4,0(a5)
    2cc2:	400227b7          	lui	a5,0x40022
    2cc6:	00276713          	ori	a4,a4,2
    2cca:	c398                	sw	a4,0(a5)
D:/projects/mechanical_arm/Firmware/ArmMainControler/libraries/sdk/Startup/system_ch32v30x.c:776

    /* HCLK = SYSCLK */
    RCC->CFGR0 |= (uint32_t)RCC_HPRE_DIV1;
    2ccc:	40021737          	lui	a4,0x40021
    2cd0:	400217b7          	lui	a5,0x40021
    2cd4:	4358                	lw	a4,4(a4)
    2cd6:	c3d8                	sw	a4,4(a5)
D:/projects/mechanical_arm/Firmware/ArmMainControler/libraries/sdk/Startup/system_ch32v30x.c:778
    /* PCLK2 = HCLK */
    RCC->CFGR0 |= (uint32_t)RCC_PPRE2_DIV1;
    2cd8:	40021737          	lui	a4,0x40021
    2cdc:	400217b7          	lui	a5,0x40021
    2ce0:	4358                	lw	a4,4(a4)
    2ce2:	c3d8                	sw	a4,4(a5)
D:/projects/mechanical_arm/Firmware/ArmMainControler/libraries/sdk/Startup/system_ch32v30x.c:780
    /* PCLK1 = HCLK */
    RCC->CFGR0 |= (uint32_t)RCC_PPRE1_DIV1;
    2ce4:	40021737          	lui	a4,0x40021
    2ce8:	400217b7          	lui	a5,0x40021
    2cec:	4358                	lw	a4,4(a4)
    2cee:	c3d8                	sw	a4,4(a5)
D:/projects/mechanical_arm/Firmware/ArmMainControler/libraries/sdk/Startup/system_ch32v30x.c:783

    /*  PLL configuration: PLLCLK = HSE * 18 = 144 MHz */
    RCC->CFGR0 &= (uint32_t)((uint32_t)~(RCC_PLLSRC | RCC_PLLXTPRE |
    2cf0:	400217b7          	lui	a5,0x40021
    2cf4:	43d4                	lw	a3,4(a5)
    2cf6:	400217b7          	lui	a5,0x40021
    2cfa:	ffc10737          	lui	a4,0xffc10
    2cfe:	177d                	addi	a4,a4,-1
    2d00:	8f75                	and	a4,a4,a3
    2d02:	c3d8                	sw	a4,4(a5)
D:/projects/mechanical_arm/Firmware/ArmMainControler/libraries/sdk/Startup/system_ch32v30x.c:786
                                        RCC_PLLMULL));

    if(((*(uint32_t*)0x1FFFF70C) & (1<<14)) != (1<<14)){
    2d04:	1ffff7b7          	lui	a5,0x1ffff
    2d08:	70c78793          	addi	a5,a5,1804 # 1ffff70c <_data_lma+0x1fff5290>
    2d0c:	4398                	lw	a4,0(a5)
    2d0e:	6791                	lui	a5,0x4
    2d10:	8ff9                	and	a5,a5,a4
    2d12:	eb99                	bnez	a5,2d28 <SetSysClockTo144+0xf8>
D:/projects/mechanical_arm/Firmware/ArmMainControler/libraries/sdk/Startup/system_ch32v30x.c:787
        RCC->CFGR0 |= (uint32_t)(RCC_PLLSRC_HSE | RCC_PLLXTPRE_HSE | RCC_PLLMULL18);
    2d14:	400217b7          	lui	a5,0x40021
    2d18:	43d4                	lw	a3,4(a5)
    2d1a:	400217b7          	lui	a5,0x40021
    2d1e:	003d0737          	lui	a4,0x3d0
    2d22:	8f55                	or	a4,a4,a3
    2d24:	c3d8                	sw	a4,4(a5)
    2d26:	a809                	j	2d38 <SetSysClockTo144+0x108>
D:/projects/mechanical_arm/Firmware/ArmMainControler/libraries/sdk/Startup/system_ch32v30x.c:790
    }
    else{
        RCC->CFGR0 |= (uint32_t)(RCC_PLLSRC_HSE | RCC_PLLXTPRE_HSE | RCC_PLLMULL18_EXTEN);
    2d28:	400217b7          	lui	a5,0x40021
    2d2c:	43d4                	lw	a3,4(a5)
    2d2e:	400217b7          	lui	a5,0x40021
    2d32:	6741                	lui	a4,0x10
    2d34:	8f55                	or	a4,a4,a3
    2d36:	c3d8                	sw	a4,4(a5)
D:/projects/mechanical_arm/Firmware/ArmMainControler/libraries/sdk/Startup/system_ch32v30x.c:794
    }

    /* Enable PLL */
    RCC->CTLR |= RCC_PLLON;
    2d38:	400217b7          	lui	a5,0x40021
    2d3c:	4394                	lw	a3,0(a5)
    2d3e:	400217b7          	lui	a5,0x40021
    2d42:	01000737          	lui	a4,0x1000
    2d46:	8f55                	or	a4,a4,a3
    2d48:	c398                	sw	a4,0(a5)
D:/projects/mechanical_arm/Firmware/ArmMainControler/libraries/sdk/Startup/system_ch32v30x.c:796
    /* Wait till PLL is ready */
    while((RCC->CTLR & RCC_PLLRDY) == 0)
    2d4a:	0001                	nop
D:/projects/mechanical_arm/Firmware/ArmMainControler/libraries/sdk/Startup/system_ch32v30x.c:796 (discriminator 1)
    2d4c:	400217b7          	lui	a5,0x40021
    2d50:	4398                	lw	a4,0(a5)
    2d52:	020007b7          	lui	a5,0x2000
    2d56:	8ff9                	and	a5,a5,a4
    2d58:	dbf5                	beqz	a5,2d4c <SetSysClockTo144+0x11c>
D:/projects/mechanical_arm/Firmware/ArmMainControler/libraries/sdk/Startup/system_ch32v30x.c:800
    {
    }
    /* Select PLL as system clock source */
    RCC->CFGR0 &= (uint32_t)((uint32_t)~(RCC_SW));
    2d5a:	400217b7          	lui	a5,0x40021
    2d5e:	43d8                	lw	a4,4(a5)
    2d60:	400217b7          	lui	a5,0x40021
    2d64:	9b71                	andi	a4,a4,-4
    2d66:	c3d8                	sw	a4,4(a5)
D:/projects/mechanical_arm/Firmware/ArmMainControler/libraries/sdk/Startup/system_ch32v30x.c:801
    RCC->CFGR0 |= (uint32_t)RCC_SW_PLL;
    2d68:	400217b7          	lui	a5,0x40021
    2d6c:	43d8                	lw	a4,4(a5)
    2d6e:	400217b7          	lui	a5,0x40021
    2d72:	00276713          	ori	a4,a4,2
    2d76:	c3d8                	sw	a4,4(a5)
D:/projects/mechanical_arm/Firmware/ArmMainControler/libraries/sdk/Startup/system_ch32v30x.c:803
    /* Wait till PLL is used as system clock source */
    while ((RCC->CFGR0 & (uint32_t)RCC_SWS) != (uint32_t)0x08)
    2d78:	0001                	nop
D:/projects/mechanical_arm/Firmware/ArmMainControler/libraries/sdk/Startup/system_ch32v30x.c:803 (discriminator 1)
    2d7a:	400217b7          	lui	a5,0x40021
    2d7e:	43dc                	lw	a5,4(a5)
    2d80:	00c7f713          	andi	a4,a5,12
    2d84:	47a1                	li	a5,8
    2d86:	fef71ae3          	bne	a4,a5,2d7a <SetSysClockTo144+0x14a>
D:/projects/mechanical_arm/Firmware/ArmMainControler/libraries/sdk/Startup/system_ch32v30x.c:814
        /*
         * If HSE fails to start-up, the application will have wrong clock
     * configuration. User can add here some code to deal with this error
         */
  }
}
    2d8a:	0001                	nop
    2d8c:	4472                	lw	s0,28(sp)
    2d8e:	6105                	addi	sp,sp,32
    2d90:	8082                	ret

00002d92 <EXTI_GetITStatus>:
EXTI_GetITStatus():
D:/projects/mechanical_arm/Firmware/ArmMainControler/libraries/sdk/Peripheral/ch32v30x_exti.c:131
* Description    : Checks whether the specified EXTI line is asserted or not.
* Input          : EXTI_Line: specifies the EXTI lines to be enabled or disabled.
* Return         : The new state of EXTI_Line (SET or RESET).
*********************************************************************************/	
ITStatus EXTI_GetITStatus(uint32_t EXTI_Line)
{
    2d92:	7179                	addi	sp,sp,-48
    2d94:	d622                	sw	s0,44(sp)
    2d96:	1800                	addi	s0,sp,48
    2d98:	fca42e23          	sw	a0,-36(s0)
D:/projects/mechanical_arm/Firmware/ArmMainControler/libraries/sdk/Peripheral/ch32v30x_exti.c:132
  ITStatus bitstatus = RESET;
    2d9c:	fe042623          	sw	zero,-20(s0)
D:/projects/mechanical_arm/Firmware/ArmMainControler/libraries/sdk/Peripheral/ch32v30x_exti.c:133
  uint32_t enablestatus = 0;
    2da0:	fe042423          	sw	zero,-24(s0)
D:/projects/mechanical_arm/Firmware/ArmMainControler/libraries/sdk/Peripheral/ch32v30x_exti.c:135
  
  enablestatus =  EXTI->INTENR & EXTI_Line;
    2da4:	400107b7          	lui	a5,0x40010
    2da8:	40078793          	addi	a5,a5,1024 # 40010400 <_eusrstack+0x20000400>
    2dac:	439c                	lw	a5,0(a5)
    2dae:	fdc42703          	lw	a4,-36(s0)
    2db2:	8ff9                	and	a5,a5,a4
    2db4:	fef42423          	sw	a5,-24(s0)
D:/projects/mechanical_arm/Firmware/ArmMainControler/libraries/sdk/Peripheral/ch32v30x_exti.c:136
  if (((EXTI->INTFR & EXTI_Line) != (uint32_t)RESET) && (enablestatus != (uint32_t)RESET))
    2db8:	400107b7          	lui	a5,0x40010
    2dbc:	40078793          	addi	a5,a5,1024 # 40010400 <_eusrstack+0x20000400>
    2dc0:	4bd8                	lw	a4,20(a5)
    2dc2:	fdc42783          	lw	a5,-36(s0)
    2dc6:	8ff9                	and	a5,a5,a4
    2dc8:	cb81                	beqz	a5,2dd8 <EXTI_GetITStatus+0x46>
D:/projects/mechanical_arm/Firmware/ArmMainControler/libraries/sdk/Peripheral/ch32v30x_exti.c:136 (discriminator 1)
    2dca:	fe842783          	lw	a5,-24(s0)
    2dce:	c789                	beqz	a5,2dd8 <EXTI_GetITStatus+0x46>
D:/projects/mechanical_arm/Firmware/ArmMainControler/libraries/sdk/Peripheral/ch32v30x_exti.c:138
  {
    bitstatus = SET;
    2dd0:	4785                	li	a5,1
    2dd2:	fef42623          	sw	a5,-20(s0)
    2dd6:	a019                	j	2ddc <EXTI_GetITStatus+0x4a>
D:/projects/mechanical_arm/Firmware/ArmMainControler/libraries/sdk/Peripheral/ch32v30x_exti.c:142
  }
  else
  {
    bitstatus = RESET;
    2dd8:	fe042623          	sw	zero,-20(s0)
D:/projects/mechanical_arm/Firmware/ArmMainControler/libraries/sdk/Peripheral/ch32v30x_exti.c:144
  }
  return bitstatus;
    2ddc:	fec42783          	lw	a5,-20(s0)
D:/projects/mechanical_arm/Firmware/ArmMainControler/libraries/sdk/Peripheral/ch32v30x_exti.c:145
}
    2de0:	853e                	mv	a0,a5
    2de2:	5432                	lw	s0,44(sp)
    2de4:	6145                	addi	sp,sp,48
    2de6:	8082                	ret

00002de8 <EXTI_ClearITPendingBit>:
EXTI_ClearITPendingBit():
D:/projects/mechanical_arm/Firmware/ArmMainControler/libraries/sdk/Peripheral/ch32v30x_exti.c:154
* Description    : Clears the EXTI's line pending bits.
* Input          : EXTI_Line: specifies the EXTI lines to be enabled or disabled.
* Return         : None
*********************************************************************************/
void EXTI_ClearITPendingBit(uint32_t EXTI_Line)
{  
    2de8:	1101                	addi	sp,sp,-32
    2dea:	ce22                	sw	s0,28(sp)
    2dec:	1000                	addi	s0,sp,32
    2dee:	fea42623          	sw	a0,-20(s0)
D:/projects/mechanical_arm/Firmware/ArmMainControler/libraries/sdk/Peripheral/ch32v30x_exti.c:155
  EXTI->INTFR = EXTI_Line;
    2df2:	400107b7          	lui	a5,0x40010
    2df6:	40078793          	addi	a5,a5,1024 # 40010400 <_eusrstack+0x20000400>
    2dfa:	fec42703          	lw	a4,-20(s0)
    2dfe:	cbd8                	sw	a4,20(a5)
D:/projects/mechanical_arm/Firmware/ArmMainControler/libraries/sdk/Peripheral/ch32v30x_exti.c:156
}
    2e00:	0001                	nop
    2e02:	4472                	lw	s0,28(sp)
    2e04:	6105                	addi	sp,sp,32
    2e06:	8082                	ret

00002e08 <GPIO_Init>:
GPIO_Init():
D:/projects/mechanical_arm/Firmware/ArmMainControler/libraries/sdk/Peripheral/ch32v30x_gpio.c:88
* Input          : GPIO_InitStruct: pointer to a GPIO_InitTypeDef structure that
*      contains the configuration information for the specified GPIO peripheral.
* Return         : None
*******************************************************************************/
void GPIO_Init(GPIO_TypeDef* GPIOx, GPIO_InitTypeDef* GPIO_InitStruct)
{
    2e08:	7139                	addi	sp,sp,-64
    2e0a:	de22                	sw	s0,60(sp)
    2e0c:	0080                	addi	s0,sp,64
    2e0e:	fca42623          	sw	a0,-52(s0)
    2e12:	fcb42423          	sw	a1,-56(s0)
D:/projects/mechanical_arm/Firmware/ArmMainControler/libraries/sdk/Peripheral/ch32v30x_gpio.c:89
  uint32_t currentmode = 0x00, currentpin = 0x00, pinpos = 0x00, pos = 0x00;
    2e16:	fe042623          	sw	zero,-20(s0)
    2e1a:	fe042023          	sw	zero,-32(s0)
    2e1e:	fe042423          	sw	zero,-24(s0)
    2e22:	fc042e23          	sw	zero,-36(s0)
D:/projects/mechanical_arm/Firmware/ArmMainControler/libraries/sdk/Peripheral/ch32v30x_gpio.c:90
  uint32_t tmpreg = 0x00, pinmask = 0x00;
    2e26:	fe042223          	sw	zero,-28(s0)
    2e2a:	fc042c23          	sw	zero,-40(s0)
D:/projects/mechanical_arm/Firmware/ArmMainControler/libraries/sdk/Peripheral/ch32v30x_gpio.c:92

  currentmode = ((uint32_t)GPIO_InitStruct->GPIO_Mode) & ((uint32_t)0x0F);
    2e2e:	fc842783          	lw	a5,-56(s0)
    2e32:	479c                	lw	a5,8(a5)
    2e34:	8bbd                	andi	a5,a5,15
    2e36:	fef42623          	sw	a5,-20(s0)
D:/projects/mechanical_arm/Firmware/ArmMainControler/libraries/sdk/Peripheral/ch32v30x_gpio.c:94
	
  if ((((uint32_t)GPIO_InitStruct->GPIO_Mode) & ((uint32_t)0x10)) != 0x00)
    2e3a:	fc842783          	lw	a5,-56(s0)
    2e3e:	479c                	lw	a5,8(a5)
    2e40:	8bc1                	andi	a5,a5,16
    2e42:	cb89                	beqz	a5,2e54 <GPIO_Init+0x4c>
D:/projects/mechanical_arm/Firmware/ArmMainControler/libraries/sdk/Peripheral/ch32v30x_gpio.c:96
  { 
    currentmode |= (uint32_t)GPIO_InitStruct->GPIO_Speed;
    2e44:	fc842783          	lw	a5,-56(s0)
    2e48:	43dc                	lw	a5,4(a5)
    2e4a:	fec42703          	lw	a4,-20(s0)
    2e4e:	8fd9                	or	a5,a5,a4
    2e50:	fef42623          	sw	a5,-20(s0)
D:/projects/mechanical_arm/Firmware/ArmMainControler/libraries/sdk/Peripheral/ch32v30x_gpio.c:99
  }

  if (((uint32_t)GPIO_InitStruct->GPIO_Pin & ((uint32_t)0x00FF)) != 0x00)
    2e54:	fc842783          	lw	a5,-56(s0)
    2e58:	0007d783          	lhu	a5,0(a5)
    2e5c:	0ff7f793          	andi	a5,a5,255
    2e60:	cff1                	beqz	a5,2f3c <GPIO_Init+0x134>
D:/projects/mechanical_arm/Firmware/ArmMainControler/libraries/sdk/Peripheral/ch32v30x_gpio.c:101
  {
    tmpreg = GPIOx->CFGLR;
    2e62:	fcc42783          	lw	a5,-52(s0)
    2e66:	439c                	lw	a5,0(a5)
    2e68:	fef42223          	sw	a5,-28(s0)
D:/projects/mechanical_arm/Firmware/ArmMainControler/libraries/sdk/Peripheral/ch32v30x_gpio.c:103
		
    for (pinpos = 0x00; pinpos < 0x08; pinpos++)
    2e6c:	fe042423          	sw	zero,-24(s0)
    2e70:	a865                	j	2f28 <GPIO_Init+0x120>
D:/projects/mechanical_arm/Firmware/ArmMainControler/libraries/sdk/Peripheral/ch32v30x_gpio.c:105
    {
      pos = ((uint32_t)0x01) << pinpos;
    2e72:	fe842783          	lw	a5,-24(s0)
    2e76:	4705                	li	a4,1
    2e78:	00f717b3          	sll	a5,a4,a5
    2e7c:	fcf42e23          	sw	a5,-36(s0)
D:/projects/mechanical_arm/Firmware/ArmMainControler/libraries/sdk/Peripheral/ch32v30x_gpio.c:106
      currentpin = (GPIO_InitStruct->GPIO_Pin) & pos;
    2e80:	fc842783          	lw	a5,-56(s0)
    2e84:	0007d783          	lhu	a5,0(a5)
    2e88:	873e                	mv	a4,a5
    2e8a:	fdc42783          	lw	a5,-36(s0)
    2e8e:	8ff9                	and	a5,a5,a4
    2e90:	fef42023          	sw	a5,-32(s0)
D:/projects/mechanical_arm/Firmware/ArmMainControler/libraries/sdk/Peripheral/ch32v30x_gpio.c:108
			
      if (currentpin == pos)
    2e94:	fe042703          	lw	a4,-32(s0)
    2e98:	fdc42783          	lw	a5,-36(s0)
    2e9c:	08f71163          	bne	a4,a5,2f1e <GPIO_Init+0x116>
D:/projects/mechanical_arm/Firmware/ArmMainControler/libraries/sdk/Peripheral/ch32v30x_gpio.c:110
      {
        pos = pinpos << 2;
    2ea0:	fe842783          	lw	a5,-24(s0)
    2ea4:	078a                	slli	a5,a5,0x2
    2ea6:	fcf42e23          	sw	a5,-36(s0)
D:/projects/mechanical_arm/Firmware/ArmMainControler/libraries/sdk/Peripheral/ch32v30x_gpio.c:111
        pinmask = ((uint32_t)0x0F) << pos;
    2eaa:	fdc42783          	lw	a5,-36(s0)
    2eae:	473d                	li	a4,15
    2eb0:	00f717b3          	sll	a5,a4,a5
    2eb4:	fcf42c23          	sw	a5,-40(s0)
D:/projects/mechanical_arm/Firmware/ArmMainControler/libraries/sdk/Peripheral/ch32v30x_gpio.c:112
        tmpreg &= ~pinmask;
    2eb8:	fd842783          	lw	a5,-40(s0)
    2ebc:	fff7c793          	not	a5,a5
    2ec0:	fe442703          	lw	a4,-28(s0)
    2ec4:	8ff9                	and	a5,a5,a4
    2ec6:	fef42223          	sw	a5,-28(s0)
D:/projects/mechanical_arm/Firmware/ArmMainControler/libraries/sdk/Peripheral/ch32v30x_gpio.c:113
        tmpreg |= (currentmode << pos);
    2eca:	fdc42783          	lw	a5,-36(s0)
    2ece:	fec42703          	lw	a4,-20(s0)
    2ed2:	00f717b3          	sll	a5,a4,a5
    2ed6:	fe442703          	lw	a4,-28(s0)
    2eda:	8fd9                	or	a5,a5,a4
    2edc:	fef42223          	sw	a5,-28(s0)
D:/projects/mechanical_arm/Firmware/ArmMainControler/libraries/sdk/Peripheral/ch32v30x_gpio.c:115

        if (GPIO_InitStruct->GPIO_Mode == GPIO_Mode_IPD)
    2ee0:	fc842783          	lw	a5,-56(s0)
    2ee4:	4798                	lw	a4,8(a5)
    2ee6:	02800793          	li	a5,40
    2eea:	00f71b63          	bne	a4,a5,2f00 <GPIO_Init+0xf8>
D:/projects/mechanical_arm/Firmware/ArmMainControler/libraries/sdk/Peripheral/ch32v30x_gpio.c:117
        {
          GPIOx->BCR = (((uint32_t)0x01) << pinpos);
    2eee:	fe842783          	lw	a5,-24(s0)
    2ef2:	4705                	li	a4,1
    2ef4:	00f71733          	sll	a4,a4,a5
    2ef8:	fcc42783          	lw	a5,-52(s0)
    2efc:	cbd8                	sw	a4,20(a5)
    2efe:	a005                	j	2f1e <GPIO_Init+0x116>
D:/projects/mechanical_arm/Firmware/ArmMainControler/libraries/sdk/Peripheral/ch32v30x_gpio.c:121
        }
        else
        {
          if (GPIO_InitStruct->GPIO_Mode == GPIO_Mode_IPU)
    2f00:	fc842783          	lw	a5,-56(s0)
    2f04:	4798                	lw	a4,8(a5)
    2f06:	04800793          	li	a5,72
    2f0a:	00f71a63          	bne	a4,a5,2f1e <GPIO_Init+0x116>
D:/projects/mechanical_arm/Firmware/ArmMainControler/libraries/sdk/Peripheral/ch32v30x_gpio.c:123
          {
            GPIOx->BSHR = (((uint32_t)0x01) << pinpos);
    2f0e:	fe842783          	lw	a5,-24(s0)
    2f12:	4705                	li	a4,1
    2f14:	00f71733          	sll	a4,a4,a5
    2f18:	fcc42783          	lw	a5,-52(s0)
    2f1c:	cb98                	sw	a4,16(a5)
D:/projects/mechanical_arm/Firmware/ArmMainControler/libraries/sdk/Peripheral/ch32v30x_gpio.c:103 (discriminator 2)
    for (pinpos = 0x00; pinpos < 0x08; pinpos++)
    2f1e:	fe842783          	lw	a5,-24(s0)
    2f22:	0785                	addi	a5,a5,1
    2f24:	fef42423          	sw	a5,-24(s0)
D:/projects/mechanical_arm/Firmware/ArmMainControler/libraries/sdk/Peripheral/ch32v30x_gpio.c:103 (discriminator 1)
    2f28:	fe842703          	lw	a4,-24(s0)
    2f2c:	479d                	li	a5,7
    2f2e:	f4e7f2e3          	bgeu	a5,a4,2e72 <GPIO_Init+0x6a>
D:/projects/mechanical_arm/Firmware/ArmMainControler/libraries/sdk/Peripheral/ch32v30x_gpio.c:128
          }
        }
      }
    }
    GPIOx->CFGLR = tmpreg;
    2f32:	fcc42783          	lw	a5,-52(s0)
    2f36:	fe442703          	lw	a4,-28(s0)
    2f3a:	c398                	sw	a4,0(a5)
D:/projects/mechanical_arm/Firmware/ArmMainControler/libraries/sdk/Peripheral/ch32v30x_gpio.c:131
  }

  if (GPIO_InitStruct->GPIO_Pin > 0x00FF)
    2f3c:	fc842783          	lw	a5,-56(s0)
    2f40:	0007d703          	lhu	a4,0(a5)
    2f44:	0ff00793          	li	a5,255
    2f48:	0ee7f163          	bgeu	a5,a4,302a <GPIO_Init+0x222>
D:/projects/mechanical_arm/Firmware/ArmMainControler/libraries/sdk/Peripheral/ch32v30x_gpio.c:133
  {
    tmpreg = GPIOx->CFGHR;
    2f4c:	fcc42783          	lw	a5,-52(s0)
    2f50:	43dc                	lw	a5,4(a5)
    2f52:	fef42223          	sw	a5,-28(s0)
D:/projects/mechanical_arm/Firmware/ArmMainControler/libraries/sdk/Peripheral/ch32v30x_gpio.c:135
		
    for (pinpos = 0x00; pinpos < 0x08; pinpos++)
    2f56:	fe042423          	sw	zero,-24(s0)
    2f5a:	a875                	j	3016 <GPIO_Init+0x20e>
D:/projects/mechanical_arm/Firmware/ArmMainControler/libraries/sdk/Peripheral/ch32v30x_gpio.c:137
    {
      pos = (((uint32_t)0x01) << (pinpos + 0x08));
    2f5c:	fe842783          	lw	a5,-24(s0)
    2f60:	07a1                	addi	a5,a5,8
    2f62:	4705                	li	a4,1
    2f64:	00f717b3          	sll	a5,a4,a5
    2f68:	fcf42e23          	sw	a5,-36(s0)
D:/projects/mechanical_arm/Firmware/ArmMainControler/libraries/sdk/Peripheral/ch32v30x_gpio.c:138
      currentpin = ((GPIO_InitStruct->GPIO_Pin) & pos);
    2f6c:	fc842783          	lw	a5,-56(s0)
    2f70:	0007d783          	lhu	a5,0(a5)
    2f74:	873e                	mv	a4,a5
    2f76:	fdc42783          	lw	a5,-36(s0)
    2f7a:	8ff9                	and	a5,a5,a4
    2f7c:	fef42023          	sw	a5,-32(s0)
D:/projects/mechanical_arm/Firmware/ArmMainControler/libraries/sdk/Peripheral/ch32v30x_gpio.c:140
			
      if (currentpin == pos)
    2f80:	fe042703          	lw	a4,-32(s0)
    2f84:	fdc42783          	lw	a5,-36(s0)
    2f88:	08f71263          	bne	a4,a5,300c <GPIO_Init+0x204>
D:/projects/mechanical_arm/Firmware/ArmMainControler/libraries/sdk/Peripheral/ch32v30x_gpio.c:142
      {
        pos = pinpos << 2;
    2f8c:	fe842783          	lw	a5,-24(s0)
    2f90:	078a                	slli	a5,a5,0x2
    2f92:	fcf42e23          	sw	a5,-36(s0)
D:/projects/mechanical_arm/Firmware/ArmMainControler/libraries/sdk/Peripheral/ch32v30x_gpio.c:143
        pinmask = ((uint32_t)0x0F) << pos;
    2f96:	fdc42783          	lw	a5,-36(s0)
    2f9a:	473d                	li	a4,15
    2f9c:	00f717b3          	sll	a5,a4,a5
    2fa0:	fcf42c23          	sw	a5,-40(s0)
D:/projects/mechanical_arm/Firmware/ArmMainControler/libraries/sdk/Peripheral/ch32v30x_gpio.c:144
        tmpreg &= ~pinmask;
    2fa4:	fd842783          	lw	a5,-40(s0)
    2fa8:	fff7c793          	not	a5,a5
    2fac:	fe442703          	lw	a4,-28(s0)
    2fb0:	8ff9                	and	a5,a5,a4
    2fb2:	fef42223          	sw	a5,-28(s0)
D:/projects/mechanical_arm/Firmware/ArmMainControler/libraries/sdk/Peripheral/ch32v30x_gpio.c:145
        tmpreg |= (currentmode << pos);
    2fb6:	fdc42783          	lw	a5,-36(s0)
    2fba:	fec42703          	lw	a4,-20(s0)
    2fbe:	00f717b3          	sll	a5,a4,a5
    2fc2:	fe442703          	lw	a4,-28(s0)
    2fc6:	8fd9                	or	a5,a5,a4
    2fc8:	fef42223          	sw	a5,-28(s0)
D:/projects/mechanical_arm/Firmware/ArmMainControler/libraries/sdk/Peripheral/ch32v30x_gpio.c:147

        if (GPIO_InitStruct->GPIO_Mode == GPIO_Mode_IPD)
    2fcc:	fc842783          	lw	a5,-56(s0)
    2fd0:	4798                	lw	a4,8(a5)
    2fd2:	02800793          	li	a5,40
    2fd6:	00f71b63          	bne	a4,a5,2fec <GPIO_Init+0x1e4>
D:/projects/mechanical_arm/Firmware/ArmMainControler/libraries/sdk/Peripheral/ch32v30x_gpio.c:149
        {
          GPIOx->BCR = (((uint32_t)0x01) << (pinpos + 0x08));
    2fda:	fe842783          	lw	a5,-24(s0)
    2fde:	07a1                	addi	a5,a5,8
    2fe0:	4705                	li	a4,1
    2fe2:	00f71733          	sll	a4,a4,a5
    2fe6:	fcc42783          	lw	a5,-52(s0)
    2fea:	cbd8                	sw	a4,20(a5)
D:/projects/mechanical_arm/Firmware/ArmMainControler/libraries/sdk/Peripheral/ch32v30x_gpio.c:152
        }

        if (GPIO_InitStruct->GPIO_Mode == GPIO_Mode_IPU)
    2fec:	fc842783          	lw	a5,-56(s0)
    2ff0:	4798                	lw	a4,8(a5)
    2ff2:	04800793          	li	a5,72
    2ff6:	00f71b63          	bne	a4,a5,300c <GPIO_Init+0x204>
D:/projects/mechanical_arm/Firmware/ArmMainControler/libraries/sdk/Peripheral/ch32v30x_gpio.c:154
        {
          GPIOx->BSHR = (((uint32_t)0x01) << (pinpos + 0x08));
    2ffa:	fe842783          	lw	a5,-24(s0)
    2ffe:	07a1                	addi	a5,a5,8
    3000:	4705                	li	a4,1
    3002:	00f71733          	sll	a4,a4,a5
    3006:	fcc42783          	lw	a5,-52(s0)
    300a:	cb98                	sw	a4,16(a5)
D:/projects/mechanical_arm/Firmware/ArmMainControler/libraries/sdk/Peripheral/ch32v30x_gpio.c:135 (discriminator 2)
    for (pinpos = 0x00; pinpos < 0x08; pinpos++)
    300c:	fe842783          	lw	a5,-24(s0)
    3010:	0785                	addi	a5,a5,1
    3012:	fef42423          	sw	a5,-24(s0)
D:/projects/mechanical_arm/Firmware/ArmMainControler/libraries/sdk/Peripheral/ch32v30x_gpio.c:135 (discriminator 1)
    3016:	fe842703          	lw	a4,-24(s0)
    301a:	479d                	li	a5,7
    301c:	f4e7f0e3          	bgeu	a5,a4,2f5c <GPIO_Init+0x154>
D:/projects/mechanical_arm/Firmware/ArmMainControler/libraries/sdk/Peripheral/ch32v30x_gpio.c:158
        }
      }
    }
    GPIOx->CFGHR = tmpreg;
    3020:	fcc42783          	lw	a5,-52(s0)
    3024:	fe442703          	lw	a4,-28(s0)
    3028:	c3d8                	sw	a4,4(a5)
D:/projects/mechanical_arm/Firmware/ArmMainControler/libraries/sdk/Peripheral/ch32v30x_gpio.c:160
  }
}
    302a:	0001                	nop
    302c:	5472                	lw	s0,60(sp)
    302e:	6121                	addi	sp,sp,64
    3030:	8082                	ret

00003032 <GPIO_WriteBit>:
GPIO_WriteBit():
D:/projects/mechanical_arm/Firmware/ArmMainControler/libraries/sdk/Peripheral/ch32v30x_gpio.c:282
*                    Bit_SetL: to clear the port pin.
*                    Bit_SetH: to set the port pin.                  
* Return         : None
*******************************************************************************/
void GPIO_WriteBit(GPIO_TypeDef* GPIOx, uint16_t GPIO_Pin, BitAction BitVal)
{
    3032:	1101                	addi	sp,sp,-32
    3034:	ce22                	sw	s0,28(sp)
    3036:	1000                	addi	s0,sp,32
    3038:	fea42623          	sw	a0,-20(s0)
    303c:	87ae                	mv	a5,a1
    303e:	fec42223          	sw	a2,-28(s0)
    3042:	fef41523          	sh	a5,-22(s0)
D:/projects/mechanical_arm/Firmware/ArmMainControler/libraries/sdk/Peripheral/ch32v30x_gpio.c:283
  if (BitVal != Bit_RESET)
    3046:	fe442783          	lw	a5,-28(s0)
    304a:	c799                	beqz	a5,3058 <GPIO_WriteBit+0x26>
D:/projects/mechanical_arm/Firmware/ArmMainControler/libraries/sdk/Peripheral/ch32v30x_gpio.c:285
  {
    GPIOx->BSHR = GPIO_Pin;
    304c:	fea45703          	lhu	a4,-22(s0)
    3050:	fec42783          	lw	a5,-20(s0)
    3054:	cb98                	sw	a4,16(a5)
D:/projects/mechanical_arm/Firmware/ArmMainControler/libraries/sdk/Peripheral/ch32v30x_gpio.c:291
  }
  else
  {
    GPIOx->BCR = GPIO_Pin;
  }
}
    3056:	a031                	j	3062 <GPIO_WriteBit+0x30>
D:/projects/mechanical_arm/Firmware/ArmMainControler/libraries/sdk/Peripheral/ch32v30x_gpio.c:289
    GPIOx->BCR = GPIO_Pin;
    3058:	fea45703          	lhu	a4,-22(s0)
    305c:	fec42783          	lw	a5,-20(s0)
    3060:	cbd8                	sw	a4,20(a5)
D:/projects/mechanical_arm/Firmware/ArmMainControler/libraries/sdk/Peripheral/ch32v30x_gpio.c:291
}
    3062:	0001                	nop
    3064:	4472                	lw	s0,28(sp)
    3066:	6105                	addi	sp,sp,32
    3068:	8082                	ret

0000306a <GPIO_PinRemapConfig>:
GPIO_PinRemapConfig():
D:/projects/mechanical_arm/Firmware/ArmMainControler/libraries/sdk/Peripheral/ch32v30x_gpio.c:402
*      only for High density Value line devices)     
*                  NewState: ENABLE or DISABLE.             
* Return         : None
*******************************************************************************/
void GPIO_PinRemapConfig(uint32_t GPIO_Remap, FunctionalState NewState)
{
    306a:	7179                	addi	sp,sp,-48
    306c:	d622                	sw	s0,44(sp)
    306e:	1800                	addi	s0,sp,48
    3070:	fca42e23          	sw	a0,-36(s0)
    3074:	fcb42c23          	sw	a1,-40(s0)
D:/projects/mechanical_arm/Firmware/ArmMainControler/libraries/sdk/Peripheral/ch32v30x_gpio.c:403
  uint32_t tmp = 0x00, tmp1 = 0x00, tmpreg = 0x00, tmpmask = 0x00;
    3078:	fe042423          	sw	zero,-24(s0)
    307c:	fe042223          	sw	zero,-28(s0)
    3080:	fe042623          	sw	zero,-20(s0)
    3084:	fe042023          	sw	zero,-32(s0)
D:/projects/mechanical_arm/Firmware/ArmMainControler/libraries/sdk/Peripheral/ch32v30x_gpio.c:405

  if((GPIO_Remap & 0x80000000) == 0x80000000)
    3088:	fdc42783          	lw	a5,-36(s0)
    308c:	0007d863          	bgez	a5,309c <GPIO_PinRemapConfig+0x32>
D:/projects/mechanical_arm/Firmware/ArmMainControler/libraries/sdk/Peripheral/ch32v30x_gpio.c:407
  {
    tmpreg = AFIO->PCFR2;
    3090:	400107b7          	lui	a5,0x40010
    3094:	4fdc                	lw	a5,28(a5)
    3096:	fef42623          	sw	a5,-20(s0)
    309a:	a031                	j	30a6 <GPIO_PinRemapConfig+0x3c>
D:/projects/mechanical_arm/Firmware/ArmMainControler/libraries/sdk/Peripheral/ch32v30x_gpio.c:411
  }
  else
  {
    tmpreg = AFIO->PCFR1;
    309c:	400107b7          	lui	a5,0x40010
    30a0:	43dc                	lw	a5,4(a5)
    30a2:	fef42623          	sw	a5,-20(s0)
D:/projects/mechanical_arm/Firmware/ArmMainControler/libraries/sdk/Peripheral/ch32v30x_gpio.c:414
  }

  tmpmask = (GPIO_Remap & DBGAFR_POSITION_MASK) >> 0x10;
    30a6:	fdc42783          	lw	a5,-36(s0)
    30aa:	83c1                	srli	a5,a5,0x10
    30ac:	8bbd                	andi	a5,a5,15
    30ae:	fef42023          	sw	a5,-32(s0)
D:/projects/mechanical_arm/Firmware/ArmMainControler/libraries/sdk/Peripheral/ch32v30x_gpio.c:415
  tmp = GPIO_Remap & LSB_MASK;
    30b2:	fdc42703          	lw	a4,-36(s0)
    30b6:	67c1                	lui	a5,0x10
    30b8:	17fd                	addi	a5,a5,-1
    30ba:	8ff9                	and	a5,a5,a4
    30bc:	fef42423          	sw	a5,-24(s0)
D:/projects/mechanical_arm/Firmware/ArmMainControler/libraries/sdk/Peripheral/ch32v30x_gpio.c:417

  if ((GPIO_Remap & (DBGAFR_LOCATION_MASK | DBGAFR_NUMBITS_MASK)) == (DBGAFR_LOCATION_MASK | DBGAFR_NUMBITS_MASK))
    30c0:	fdc42703          	lw	a4,-36(s0)
    30c4:	003007b7          	lui	a5,0x300
    30c8:	8f7d                	and	a4,a4,a5
    30ca:	003007b7          	lui	a5,0x300
    30ce:	02f71563          	bne	a4,a5,30f8 <GPIO_PinRemapConfig+0x8e>
D:/projects/mechanical_arm/Firmware/ArmMainControler/libraries/sdk/Peripheral/ch32v30x_gpio.c:419
  {
    tmpreg &= DBGAFR_SWJCFG_MASK;
    30d2:	fec42703          	lw	a4,-20(s0)
    30d6:	f10007b7          	lui	a5,0xf1000
    30da:	17fd                	addi	a5,a5,-1
    30dc:	8ff9                	and	a5,a5,a4
    30de:	fef42623          	sw	a5,-20(s0)
D:/projects/mechanical_arm/Firmware/ArmMainControler/libraries/sdk/Peripheral/ch32v30x_gpio.c:420
    AFIO->PCFR1 &= DBGAFR_SWJCFG_MASK;
    30e2:	400107b7          	lui	a5,0x40010
    30e6:	43d4                	lw	a3,4(a5)
    30e8:	400107b7          	lui	a5,0x40010
    30ec:	f1000737          	lui	a4,0xf1000
    30f0:	177d                	addi	a4,a4,-1
    30f2:	8f75                	and	a4,a4,a3
    30f4:	c3d8                	sw	a4,4(a5)
    30f6:	a0ad                	j	3160 <GPIO_PinRemapConfig+0xf6>
D:/projects/mechanical_arm/Firmware/ArmMainControler/libraries/sdk/Peripheral/ch32v30x_gpio.c:422
  }
  else if ((GPIO_Remap & DBGAFR_NUMBITS_MASK) == DBGAFR_NUMBITS_MASK)
    30f8:	fdc42703          	lw	a4,-36(s0)
    30fc:	001007b7          	lui	a5,0x100
    3100:	8ff9                	and	a5,a5,a4
    3102:	cb8d                	beqz	a5,3134 <GPIO_PinRemapConfig+0xca>
D:/projects/mechanical_arm/Firmware/ArmMainControler/libraries/sdk/Peripheral/ch32v30x_gpio.c:424
  {
    tmp1 = ((uint32_t)0x03) << tmpmask;
    3104:	fe042783          	lw	a5,-32(s0)
    3108:	470d                	li	a4,3
    310a:	00f717b3          	sll	a5,a4,a5
    310e:	fef42223          	sw	a5,-28(s0)
D:/projects/mechanical_arm/Firmware/ArmMainControler/libraries/sdk/Peripheral/ch32v30x_gpio.c:425
    tmpreg &= ~tmp1;
    3112:	fe442783          	lw	a5,-28(s0)
    3116:	fff7c793          	not	a5,a5
    311a:	fec42703          	lw	a4,-20(s0)
    311e:	8ff9                	and	a5,a5,a4
    3120:	fef42623          	sw	a5,-20(s0)
D:/projects/mechanical_arm/Firmware/ArmMainControler/libraries/sdk/Peripheral/ch32v30x_gpio.c:426
    tmpreg |= ~DBGAFR_SWJCFG_MASK;
    3124:	fec42703          	lw	a4,-20(s0)
    3128:	0f0007b7          	lui	a5,0xf000
    312c:	8fd9                	or	a5,a5,a4
    312e:	fef42623          	sw	a5,-20(s0)
    3132:	a03d                	j	3160 <GPIO_PinRemapConfig+0xf6>
D:/projects/mechanical_arm/Firmware/ArmMainControler/libraries/sdk/Peripheral/ch32v30x_gpio.c:430
  }
  else
  {
    tmpreg &= ~(tmp << ((GPIO_Remap >> 0x15)*0x10));
    3134:	fdc42783          	lw	a5,-36(s0)
    3138:	83d5                	srli	a5,a5,0x15
    313a:	0792                	slli	a5,a5,0x4
    313c:	fe842703          	lw	a4,-24(s0)
    3140:	00f717b3          	sll	a5,a4,a5
    3144:	fff7c793          	not	a5,a5
    3148:	fec42703          	lw	a4,-20(s0)
    314c:	8ff9                	and	a5,a5,a4
    314e:	fef42623          	sw	a5,-20(s0)
D:/projects/mechanical_arm/Firmware/ArmMainControler/libraries/sdk/Peripheral/ch32v30x_gpio.c:431
    tmpreg |= ~DBGAFR_SWJCFG_MASK;
    3152:	fec42703          	lw	a4,-20(s0)
    3156:	0f0007b7          	lui	a5,0xf000
    315a:	8fd9                	or	a5,a5,a4
    315c:	fef42623          	sw	a5,-20(s0)
D:/projects/mechanical_arm/Firmware/ArmMainControler/libraries/sdk/Peripheral/ch32v30x_gpio.c:434
  }

  if (NewState != DISABLE)
    3160:	fd842783          	lw	a5,-40(s0)
    3164:	cf91                	beqz	a5,3180 <GPIO_PinRemapConfig+0x116>
D:/projects/mechanical_arm/Firmware/ArmMainControler/libraries/sdk/Peripheral/ch32v30x_gpio.c:436
  {
    tmpreg |= (tmp << ((GPIO_Remap >> 0x15)*0x10));
    3166:	fdc42783          	lw	a5,-36(s0)
    316a:	83d5                	srli	a5,a5,0x15
    316c:	0792                	slli	a5,a5,0x4
    316e:	fe842703          	lw	a4,-24(s0)
    3172:	00f717b3          	sll	a5,a4,a5
    3176:	fec42703          	lw	a4,-20(s0)
    317a:	8fd9                	or	a5,a5,a4
    317c:	fef42623          	sw	a5,-20(s0)
D:/projects/mechanical_arm/Firmware/ArmMainControler/libraries/sdk/Peripheral/ch32v30x_gpio.c:439
  }

  if((GPIO_Remap & 0x80000000) == 0x80000000)
    3180:	fdc42783          	lw	a5,-36(s0)
    3184:	0007d863          	bgez	a5,3194 <GPIO_PinRemapConfig+0x12a>
D:/projects/mechanical_arm/Firmware/ArmMainControler/libraries/sdk/Peripheral/ch32v30x_gpio.c:441
  {
    AFIO->PCFR2 = tmpreg;
    3188:	400107b7          	lui	a5,0x40010
    318c:	fec42703          	lw	a4,-20(s0)
    3190:	cfd8                	sw	a4,28(a5)
D:/projects/mechanical_arm/Firmware/ArmMainControler/libraries/sdk/Peripheral/ch32v30x_gpio.c:447
  }
  else
  {
    AFIO->PCFR1 = tmpreg;
  }  
}
    3192:	a031                	j	319e <GPIO_PinRemapConfig+0x134>
D:/projects/mechanical_arm/Firmware/ArmMainControler/libraries/sdk/Peripheral/ch32v30x_gpio.c:445
    AFIO->PCFR1 = tmpreg;
    3194:	400107b7          	lui	a5,0x40010
    3198:	fec42703          	lw	a4,-20(s0)
    319c:	c3d8                	sw	a4,4(a5)
D:/projects/mechanical_arm/Firmware/ArmMainControler/libraries/sdk/Peripheral/ch32v30x_gpio.c:447
}
    319e:	0001                	nop
    31a0:	5432                	lw	s0,44(sp)
    31a2:	6145                	addi	sp,sp,48
    31a4:	8082                	ret

000031a6 <RCC_GetClocksFreq>:
RCC_GetClocksFreq():
D:/projects/mechanical_arm/Firmware/ArmMainControler/libraries/sdk/Peripheral/ch32v30x_rcc.c:489
* Input          : RCC_Clocks: pointer to a RCC_ClocksTypeDef structure which will hold
*      the clocks frequencies.
* Return         : None
********************************************************************************/
void RCC_GetClocksFreq(RCC_ClocksTypeDef* RCC_Clocks)
{
    31a6:	7139                	addi	sp,sp,-64
    31a8:	de22                	sw	s0,60(sp)
    31aa:	0080                	addi	s0,sp,64
    31ac:	fca42623          	sw	a0,-52(s0)
D:/projects/mechanical_arm/Firmware/ArmMainControler/libraries/sdk/Peripheral/ch32v30x_rcc.c:490
    uint32_t tmp = 0, pllmull = 0, pllsource = 0, presc = 0, Pll_6_5 = 0;
    31b0:	fe042223          	sw	zero,-28(s0)
    31b4:	fe042623          	sw	zero,-20(s0)
    31b8:	fe042023          	sw	zero,-32(s0)
    31bc:	fc042e23          	sw	zero,-36(s0)
    31c0:	fe042423          	sw	zero,-24(s0)
D:/projects/mechanical_arm/Firmware/ArmMainControler/libraries/sdk/Peripheral/ch32v30x_rcc.c:492

    tmp = RCC->CFGR0 & CFGR0_SWS_Mask;
    31c4:	400217b7          	lui	a5,0x40021
    31c8:	43dc                	lw	a5,4(a5)
    31ca:	8bb1                	andi	a5,a5,12
    31cc:	fef42223          	sw	a5,-28(s0)
    31d0:	fe442703          	lw	a4,-28(s0)
    31d4:	4791                	li	a5,4
    31d6:	02f70363          	beq	a4,a5,31fc <RCC_GetClocksFreq+0x56>
    31da:	fe442703          	lw	a4,-28(s0)
    31de:	47a1                	li	a5,8
    31e0:	02f70663          	beq	a4,a5,320c <RCC_GetClocksFreq+0x66>
    31e4:	fe442783          	lw	a5,-28(s0)
    31e8:	14079963          	bnez	a5,333a <RCC_GetClocksFreq+0x194>
D:/projects/mechanical_arm/Firmware/ArmMainControler/libraries/sdk/Peripheral/ch32v30x_rcc.c:497

    switch (tmp)
    {
      case 0x00:
        RCC_Clocks->SYSCLK_Frequency = HSI_VALUE;
    31ec:	fcc42783          	lw	a5,-52(s0)
    31f0:	007a1737          	lui	a4,0x7a1
    31f4:	20070713          	addi	a4,a4,512 # 7a1200 <_data_lma+0x796d84>
    31f8:	c398                	sw	a4,0(a5)
D:/projects/mechanical_arm/Firmware/ArmMainControler/libraries/sdk/Peripheral/ch32v30x_rcc.c:498
        break;
    31fa:	aa89                	j	334c <RCC_GetClocksFreq+0x1a6>
D:/projects/mechanical_arm/Firmware/ArmMainControler/libraries/sdk/Peripheral/ch32v30x_rcc.c:501

      case 0x04:
        RCC_Clocks->SYSCLK_Frequency = HSE_VALUE;
    31fc:	fcc42783          	lw	a5,-52(s0)
    3200:	007a1737          	lui	a4,0x7a1
    3204:	20070713          	addi	a4,a4,512 # 7a1200 <_data_lma+0x796d84>
    3208:	c398                	sw	a4,0(a5)
D:/projects/mechanical_arm/Firmware/ArmMainControler/libraries/sdk/Peripheral/ch32v30x_rcc.c:502
        break;
    320a:	a289                	j	334c <RCC_GetClocksFreq+0x1a6>
D:/projects/mechanical_arm/Firmware/ArmMainControler/libraries/sdk/Peripheral/ch32v30x_rcc.c:505

      case 0x08:
        pllmull = RCC->CFGR0 & CFGR0_PLLMull_Mask;
    320c:	400217b7          	lui	a5,0x40021
    3210:	43d8                	lw	a4,4(a5)
    3212:	003c07b7          	lui	a5,0x3c0
    3216:	8ff9                	and	a5,a5,a4
    3218:	fef42623          	sw	a5,-20(s0)
D:/projects/mechanical_arm/Firmware/ArmMainControler/libraries/sdk/Peripheral/ch32v30x_rcc.c:506
        pllsource = RCC->CFGR0 & CFGR0_PLLSRC_Mask;
    321c:	400217b7          	lui	a5,0x40021
    3220:	43d8                	lw	a4,4(a5)
    3222:	67c1                	lui	a5,0x10
    3224:	8ff9                	and	a5,a5,a4
    3226:	fef42023          	sw	a5,-32(s0)
D:/projects/mechanical_arm/Firmware/ArmMainControler/libraries/sdk/Peripheral/ch32v30x_rcc.c:508

        pllmull = ( pllmull >> 18) + 2;
    322a:	fec42783          	lw	a5,-20(s0)
    322e:	83c9                	srli	a5,a5,0x12
    3230:	0789                	addi	a5,a5,2
    3232:	fef42623          	sw	a5,-20(s0)
D:/projects/mechanical_arm/Firmware/ArmMainControler/libraries/sdk/Peripheral/ch32v30x_rcc.c:510

        if(((*(uint32_t*)0x1FFFF70C) & (1<<14)) != (1<<14)){ /* for other CH32V30x */
    3236:	1ffff7b7          	lui	a5,0x1ffff
    323a:	70c78793          	addi	a5,a5,1804 # 1ffff70c <_data_lma+0x1fff5290>
    323e:	4398                	lw	a4,0(a5)
    3240:	6791                	lui	a5,0x4
    3242:	8ff9                	and	a5,a5,a4
    3244:	eb91                	bnez	a5,3258 <RCC_GetClocksFreq+0xb2>
D:/projects/mechanical_arm/Firmware/ArmMainControler/libraries/sdk/Peripheral/ch32v30x_rcc.c:511
            if(pllmull == 17) pllmull = 18;
    3246:	fec42703          	lw	a4,-20(s0)
    324a:	47c5                	li	a5,17
    324c:	04f71963          	bne	a4,a5,329e <RCC_GetClocksFreq+0xf8>
D:/projects/mechanical_arm/Firmware/ArmMainControler/libraries/sdk/Peripheral/ch32v30x_rcc.c:511 (discriminator 1)
    3250:	47c9                	li	a5,18
    3252:	fef42623          	sw	a5,-20(s0)
    3256:	a0a1                	j	329e <RCC_GetClocksFreq+0xf8>
D:/projects/mechanical_arm/Firmware/ArmMainControler/libraries/sdk/Peripheral/ch32v30x_rcc.c:514
        }
        else{  /* for CH32V307 */
            if(pllmull == 2) pllmull = 18;
    3258:	fec42703          	lw	a4,-20(s0)
    325c:	4789                	li	a5,2
    325e:	00f71563          	bne	a4,a5,3268 <RCC_GetClocksFreq+0xc2>
D:/projects/mechanical_arm/Firmware/ArmMainControler/libraries/sdk/Peripheral/ch32v30x_rcc.c:514 (discriminator 1)
    3262:	47c9                	li	a5,18
    3264:	fef42623          	sw	a5,-20(s0)
D:/projects/mechanical_arm/Firmware/ArmMainControler/libraries/sdk/Peripheral/ch32v30x_rcc.c:515
            if(pllmull == 15){
    3268:	fec42703          	lw	a4,-20(s0)
    326c:	47bd                	li	a5,15
    326e:	00f71863          	bne	a4,a5,327e <RCC_GetClocksFreq+0xd8>
D:/projects/mechanical_arm/Firmware/ArmMainControler/libraries/sdk/Peripheral/ch32v30x_rcc.c:516
                pllmull = 13;  /* *6.5 */
    3272:	47b5                	li	a5,13
    3274:	fef42623          	sw	a5,-20(s0)
D:/projects/mechanical_arm/Firmware/ArmMainControler/libraries/sdk/Peripheral/ch32v30x_rcc.c:517
                Pll_6_5 = 1;
    3278:	4785                	li	a5,1
    327a:	fef42423          	sw	a5,-24(s0)
D:/projects/mechanical_arm/Firmware/ArmMainControler/libraries/sdk/Peripheral/ch32v30x_rcc.c:519
            }
            if(pllmull == 16) pllmull = 15;
    327e:	fec42703          	lw	a4,-20(s0)
    3282:	47c1                	li	a5,16
    3284:	00f71563          	bne	a4,a5,328e <RCC_GetClocksFreq+0xe8>
D:/projects/mechanical_arm/Firmware/ArmMainControler/libraries/sdk/Peripheral/ch32v30x_rcc.c:519 (discriminator 1)
    3288:	47bd                	li	a5,15
    328a:	fef42623          	sw	a5,-20(s0)
D:/projects/mechanical_arm/Firmware/ArmMainControler/libraries/sdk/Peripheral/ch32v30x_rcc.c:520
            if(pllmull == 17) pllmull = 16;
    328e:	fec42703          	lw	a4,-20(s0)
    3292:	47c5                	li	a5,17
    3294:	00f71563          	bne	a4,a5,329e <RCC_GetClocksFreq+0xf8>
D:/projects/mechanical_arm/Firmware/ArmMainControler/libraries/sdk/Peripheral/ch32v30x_rcc.c:520 (discriminator 1)
    3298:	47c1                	li	a5,16
    329a:	fef42623          	sw	a5,-20(s0)
D:/projects/mechanical_arm/Firmware/ArmMainControler/libraries/sdk/Peripheral/ch32v30x_rcc.c:524
        }


        if (pllsource == 0x00)
    329e:	fe042783          	lw	a5,-32(s0)
    32a2:	e3a1                	bnez	a5,32e2 <RCC_GetClocksFreq+0x13c>
D:/projects/mechanical_arm/Firmware/ArmMainControler/libraries/sdk/Peripheral/ch32v30x_rcc.c:526
        {
                  if(EXTEN->EXTEN_CTR & EXTEN_PLL_HSI_PRE){
    32a4:	400247b7          	lui	a5,0x40024
    32a8:	80078793          	addi	a5,a5,-2048 # 40023800 <_eusrstack+0x20013800>
    32ac:	439c                	lw	a5,0(a5)
    32ae:	8bc1                	andi	a5,a5,16
    32b0:	cf89                	beqz	a5,32ca <RCC_GetClocksFreq+0x124>
D:/projects/mechanical_arm/Firmware/ArmMainControler/libraries/sdk/Peripheral/ch32v30x_rcc.c:527
                   RCC_Clocks->SYSCLK_Frequency = (HSI_VALUE) * pllmull;
    32b2:	fec42703          	lw	a4,-20(s0)
    32b6:	007a17b7          	lui	a5,0x7a1
    32ba:	20078793          	addi	a5,a5,512 # 7a1200 <_data_lma+0x796d84>
    32be:	02f70733          	mul	a4,a4,a5
    32c2:	fcc42783          	lw	a5,-52(s0)
    32c6:	c398                	sw	a4,0(a5)
    32c8:	a899                	j	331e <RCC_GetClocksFreq+0x178>
D:/projects/mechanical_arm/Firmware/ArmMainControler/libraries/sdk/Peripheral/ch32v30x_rcc.c:530
                  }
                  else{
                   RCC_Clocks->SYSCLK_Frequency = (HSI_VALUE >>1) * pllmull;
    32ca:	fec42703          	lw	a4,-20(s0)
    32ce:	003d17b7          	lui	a5,0x3d1
    32d2:	90078793          	addi	a5,a5,-1792 # 3d0900 <_data_lma+0x3c6484>
    32d6:	02f70733          	mul	a4,a4,a5
    32da:	fcc42783          	lw	a5,-52(s0)
    32de:	c398                	sw	a4,0(a5)
    32e0:	a83d                	j	331e <RCC_GetClocksFreq+0x178>
D:/projects/mechanical_arm/Firmware/ArmMainControler/libraries/sdk/Peripheral/ch32v30x_rcc.c:535
                  }
        }
        else
        {
          if ((RCC->CFGR0 & CFGR0_PLLXTPRE_Mask) != (uint32_t)RESET)
    32e2:	400217b7          	lui	a5,0x40021
    32e6:	43d8                	lw	a4,4(a5)
    32e8:	000207b7          	lui	a5,0x20
    32ec:	8ff9                	and	a5,a5,a4
    32ee:	cf89                	beqz	a5,3308 <RCC_GetClocksFreq+0x162>
D:/projects/mechanical_arm/Firmware/ArmMainControler/libraries/sdk/Peripheral/ch32v30x_rcc.c:537
          {
            RCC_Clocks->SYSCLK_Frequency = (HSE_VALUE >> 1) * pllmull;
    32f0:	fec42703          	lw	a4,-20(s0)
    32f4:	003d17b7          	lui	a5,0x3d1
    32f8:	90078793          	addi	a5,a5,-1792 # 3d0900 <_data_lma+0x3c6484>
    32fc:	02f70733          	mul	a4,a4,a5
    3300:	fcc42783          	lw	a5,-52(s0)
    3304:	c398                	sw	a4,0(a5)
    3306:	a821                	j	331e <RCC_GetClocksFreq+0x178>
D:/projects/mechanical_arm/Firmware/ArmMainControler/libraries/sdk/Peripheral/ch32v30x_rcc.c:541
          }
          else
          {
            RCC_Clocks->SYSCLK_Frequency = HSE_VALUE * pllmull;
    3308:	fec42703          	lw	a4,-20(s0)
    330c:	007a17b7          	lui	a5,0x7a1
    3310:	20078793          	addi	a5,a5,512 # 7a1200 <_data_lma+0x796d84>
    3314:	02f70733          	mul	a4,a4,a5
    3318:	fcc42783          	lw	a5,-52(s0)
    331c:	c398                	sw	a4,0(a5)
D:/projects/mechanical_arm/Firmware/ArmMainControler/libraries/sdk/Peripheral/ch32v30x_rcc.c:545
          }
        }

        if(Pll_6_5 == 1) RCC_Clocks->SYSCLK_Frequency = (RCC_Clocks->SYSCLK_Frequency / 2);
    331e:	fe842703          	lw	a4,-24(s0)
    3322:	4785                	li	a5,1
    3324:	02f71363          	bne	a4,a5,334a <RCC_GetClocksFreq+0x1a4>
D:/projects/mechanical_arm/Firmware/ArmMainControler/libraries/sdk/Peripheral/ch32v30x_rcc.c:545 (discriminator 1)
    3328:	fcc42783          	lw	a5,-52(s0)
    332c:	439c                	lw	a5,0(a5)
    332e:	0017d713          	srli	a4,a5,0x1
    3332:	fcc42783          	lw	a5,-52(s0)
    3336:	c398                	sw	a4,0(a5)
D:/projects/mechanical_arm/Firmware/ArmMainControler/libraries/sdk/Peripheral/ch32v30x_rcc.c:547 (discriminator 1)

        break;
    3338:	a809                	j	334a <RCC_GetClocksFreq+0x1a4>
D:/projects/mechanical_arm/Firmware/ArmMainControler/libraries/sdk/Peripheral/ch32v30x_rcc.c:550

      default:
        RCC_Clocks->SYSCLK_Frequency = HSI_VALUE;
    333a:	fcc42783          	lw	a5,-52(s0)
    333e:	007a1737          	lui	a4,0x7a1
    3342:	20070713          	addi	a4,a4,512 # 7a1200 <_data_lma+0x796d84>
    3346:	c398                	sw	a4,0(a5)
D:/projects/mechanical_arm/Firmware/ArmMainControler/libraries/sdk/Peripheral/ch32v30x_rcc.c:551
        break;
    3348:	a011                	j	334c <RCC_GetClocksFreq+0x1a6>
D:/projects/mechanical_arm/Firmware/ArmMainControler/libraries/sdk/Peripheral/ch32v30x_rcc.c:547
        break;
    334a:	0001                	nop
D:/projects/mechanical_arm/Firmware/ArmMainControler/libraries/sdk/Peripheral/ch32v30x_rcc.c:554
    }

    tmp = RCC->CFGR0 & CFGR0_HPRE_Set_Mask;
    334c:	400217b7          	lui	a5,0x40021
    3350:	43dc                	lw	a5,4(a5)
    3352:	0f07f793          	andi	a5,a5,240
    3356:	fef42223          	sw	a5,-28(s0)
D:/projects/mechanical_arm/Firmware/ArmMainControler/libraries/sdk/Peripheral/ch32v30x_rcc.c:555
    tmp = tmp >> 4;
    335a:	fe442783          	lw	a5,-28(s0)
    335e:	8391                	srli	a5,a5,0x4
    3360:	fef42223          	sw	a5,-28(s0)
D:/projects/mechanical_arm/Firmware/ArmMainControler/libraries/sdk/Peripheral/ch32v30x_rcc.c:556
    presc = APBAHBPrescTable[tmp];
    3364:	200007b7          	lui	a5,0x20000
    3368:	00078713          	mv	a4,a5
    336c:	fe442783          	lw	a5,-28(s0)
    3370:	97ba                	add	a5,a5,a4
    3372:	0007c783          	lbu	a5,0(a5) # 20000000 <_data_vma>
    3376:	0ff7f793          	andi	a5,a5,255
    337a:	fcf42e23          	sw	a5,-36(s0)
D:/projects/mechanical_arm/Firmware/ArmMainControler/libraries/sdk/Peripheral/ch32v30x_rcc.c:557
    RCC_Clocks->HCLK_Frequency = RCC_Clocks->SYSCLK_Frequency >> presc;
    337e:	fcc42783          	lw	a5,-52(s0)
    3382:	4398                	lw	a4,0(a5)
    3384:	fdc42783          	lw	a5,-36(s0)
    3388:	00f75733          	srl	a4,a4,a5
    338c:	fcc42783          	lw	a5,-52(s0)
    3390:	c3d8                	sw	a4,4(a5)
D:/projects/mechanical_arm/Firmware/ArmMainControler/libraries/sdk/Peripheral/ch32v30x_rcc.c:558
    tmp = RCC->CFGR0 & CFGR0_PPRE1_Set_Mask;
    3392:	400217b7          	lui	a5,0x40021
    3396:	43dc                	lw	a5,4(a5)
    3398:	7007f793          	andi	a5,a5,1792
    339c:	fef42223          	sw	a5,-28(s0)
D:/projects/mechanical_arm/Firmware/ArmMainControler/libraries/sdk/Peripheral/ch32v30x_rcc.c:559
    tmp = tmp >> 8;
    33a0:	fe442783          	lw	a5,-28(s0)
    33a4:	83a1                	srli	a5,a5,0x8
    33a6:	fef42223          	sw	a5,-28(s0)
D:/projects/mechanical_arm/Firmware/ArmMainControler/libraries/sdk/Peripheral/ch32v30x_rcc.c:560
    presc = APBAHBPrescTable[tmp];
    33aa:	200007b7          	lui	a5,0x20000
    33ae:	00078713          	mv	a4,a5
    33b2:	fe442783          	lw	a5,-28(s0)
    33b6:	97ba                	add	a5,a5,a4
    33b8:	0007c783          	lbu	a5,0(a5) # 20000000 <_data_vma>
    33bc:	0ff7f793          	andi	a5,a5,255
    33c0:	fcf42e23          	sw	a5,-36(s0)
D:/projects/mechanical_arm/Firmware/ArmMainControler/libraries/sdk/Peripheral/ch32v30x_rcc.c:561
    RCC_Clocks->PCLK1_Frequency = RCC_Clocks->HCLK_Frequency >> presc;
    33c4:	fcc42783          	lw	a5,-52(s0)
    33c8:	43d8                	lw	a4,4(a5)
    33ca:	fdc42783          	lw	a5,-36(s0)
    33ce:	00f75733          	srl	a4,a4,a5
    33d2:	fcc42783          	lw	a5,-52(s0)
    33d6:	c798                	sw	a4,8(a5)
D:/projects/mechanical_arm/Firmware/ArmMainControler/libraries/sdk/Peripheral/ch32v30x_rcc.c:562
    tmp = RCC->CFGR0 & CFGR0_PPRE2_Set_Mask;
    33d8:	400217b7          	lui	a5,0x40021
    33dc:	43d8                	lw	a4,4(a5)
    33de:	6791                	lui	a5,0x4
    33e0:	80078793          	addi	a5,a5,-2048 # 3800 <USART_Init+0x16>
    33e4:	8ff9                	and	a5,a5,a4
    33e6:	fef42223          	sw	a5,-28(s0)
D:/projects/mechanical_arm/Firmware/ArmMainControler/libraries/sdk/Peripheral/ch32v30x_rcc.c:563
    tmp = tmp >> 11;
    33ea:	fe442783          	lw	a5,-28(s0)
    33ee:	83ad                	srli	a5,a5,0xb
    33f0:	fef42223          	sw	a5,-28(s0)
D:/projects/mechanical_arm/Firmware/ArmMainControler/libraries/sdk/Peripheral/ch32v30x_rcc.c:564
    presc = APBAHBPrescTable[tmp];
    33f4:	200007b7          	lui	a5,0x20000
    33f8:	00078713          	mv	a4,a5
    33fc:	fe442783          	lw	a5,-28(s0)
    3400:	97ba                	add	a5,a5,a4
    3402:	0007c783          	lbu	a5,0(a5) # 20000000 <_data_vma>
    3406:	0ff7f793          	andi	a5,a5,255
    340a:	fcf42e23          	sw	a5,-36(s0)
D:/projects/mechanical_arm/Firmware/ArmMainControler/libraries/sdk/Peripheral/ch32v30x_rcc.c:565
    RCC_Clocks->PCLK2_Frequency = RCC_Clocks->HCLK_Frequency >> presc;
    340e:	fcc42783          	lw	a5,-52(s0)
    3412:	43d8                	lw	a4,4(a5)
    3414:	fdc42783          	lw	a5,-36(s0)
    3418:	00f75733          	srl	a4,a4,a5
    341c:	fcc42783          	lw	a5,-52(s0)
    3420:	c7d8                	sw	a4,12(a5)
D:/projects/mechanical_arm/Firmware/ArmMainControler/libraries/sdk/Peripheral/ch32v30x_rcc.c:566
    tmp = RCC->CFGR0 & CFGR0_ADCPRE_Set_Mask;
    3422:	400217b7          	lui	a5,0x40021
    3426:	43d8                	lw	a4,4(a5)
    3428:	67b1                	lui	a5,0xc
    342a:	8ff9                	and	a5,a5,a4
    342c:	fef42223          	sw	a5,-28(s0)
D:/projects/mechanical_arm/Firmware/ArmMainControler/libraries/sdk/Peripheral/ch32v30x_rcc.c:567
    tmp = tmp >> 14;
    3430:	fe442783          	lw	a5,-28(s0)
    3434:	83b9                	srli	a5,a5,0xe
    3436:	fef42223          	sw	a5,-28(s0)
D:/projects/mechanical_arm/Firmware/ArmMainControler/libraries/sdk/Peripheral/ch32v30x_rcc.c:568
    presc = ADCPrescTable[tmp];
    343a:	80818713          	addi	a4,gp,-2040 # 20000228 <ADCPrescTable>
    343e:	fe442783          	lw	a5,-28(s0)
    3442:	97ba                	add	a5,a5,a4
    3444:	0007c783          	lbu	a5,0(a5) # c000 <_data_lma+0x1b84>
    3448:	0ff7f793          	andi	a5,a5,255
    344c:	fcf42e23          	sw	a5,-36(s0)
D:/projects/mechanical_arm/Firmware/ArmMainControler/libraries/sdk/Peripheral/ch32v30x_rcc.c:569
    RCC_Clocks->ADCCLK_Frequency = RCC_Clocks->PCLK2_Frequency / presc;
    3450:	fcc42783          	lw	a5,-52(s0)
    3454:	47d8                	lw	a4,12(a5)
    3456:	fdc42783          	lw	a5,-36(s0)
    345a:	02f75733          	divu	a4,a4,a5
    345e:	fcc42783          	lw	a5,-52(s0)
    3462:	cb98                	sw	a4,16(a5)
D:/projects/mechanical_arm/Firmware/ArmMainControler/libraries/sdk/Peripheral/ch32v30x_rcc.c:570
}
    3464:	0001                	nop
    3466:	5472                	lw	s0,60(sp)
    3468:	6121                	addi	sp,sp,64
    346a:	8082                	ret

0000346c <RCC_APB2PeriphClockCmd>:
RCC_APB2PeriphClockCmd():
D:/projects/mechanical_arm/Firmware/ArmMainControler/libraries/sdk/Peripheral/ch32v30x_rcc.c:627
*                    RCC_APB2Periph_USART1.
*                  NewState: ENABLE or DISABLE
* Return         : None
*******************************************************************************/	
void RCC_APB2PeriphClockCmd(uint32_t RCC_APB2Periph, FunctionalState NewState)
{
    346c:	1101                	addi	sp,sp,-32
    346e:	ce22                	sw	s0,28(sp)
    3470:	1000                	addi	s0,sp,32
    3472:	fea42623          	sw	a0,-20(s0)
    3476:	feb42423          	sw	a1,-24(s0)
D:/projects/mechanical_arm/Firmware/ArmMainControler/libraries/sdk/Peripheral/ch32v30x_rcc.c:628
  if (NewState != DISABLE)
    347a:	fe842783          	lw	a5,-24(s0)
    347e:	cb99                	beqz	a5,3494 <RCC_APB2PeriphClockCmd+0x28>
D:/projects/mechanical_arm/Firmware/ArmMainControler/libraries/sdk/Peripheral/ch32v30x_rcc.c:630
  {
    RCC->APB2PCENR |= RCC_APB2Periph;
    3480:	400217b7          	lui	a5,0x40021
    3484:	4f94                	lw	a3,24(a5)
    3486:	400217b7          	lui	a5,0x40021
    348a:	fec42703          	lw	a4,-20(s0)
    348e:	8f55                	or	a4,a4,a3
    3490:	cf98                	sw	a4,24(a5)
D:/projects/mechanical_arm/Firmware/ArmMainControler/libraries/sdk/Peripheral/ch32v30x_rcc.c:636
  }
  else
  {
    RCC->APB2PCENR &= ~RCC_APB2Periph;
  }
}
    3492:	a821                	j	34aa <RCC_APB2PeriphClockCmd+0x3e>
D:/projects/mechanical_arm/Firmware/ArmMainControler/libraries/sdk/Peripheral/ch32v30x_rcc.c:634
    RCC->APB2PCENR &= ~RCC_APB2Periph;
    3494:	400217b7          	lui	a5,0x40021
    3498:	4f94                	lw	a3,24(a5)
    349a:	fec42783          	lw	a5,-20(s0)
    349e:	fff7c713          	not	a4,a5
    34a2:	400217b7          	lui	a5,0x40021
    34a6:	8f75                	and	a4,a4,a3
    34a8:	cf98                	sw	a4,24(a5)
D:/projects/mechanical_arm/Firmware/ArmMainControler/libraries/sdk/Peripheral/ch32v30x_rcc.c:636
}
    34aa:	0001                	nop
    34ac:	4472                	lw	s0,28(sp)
    34ae:	6105                	addi	sp,sp,32
    34b0:	8082                	ret

000034b2 <RCC_APB1PeriphClockCmd>:
RCC_APB1PeriphClockCmd():
D:/projects/mechanical_arm/Firmware/ArmMainControler/libraries/sdk/Peripheral/ch32v30x_rcc.c:668
*                    RCC_APB1Periph_DAC.                
*                  NewState: ENABLE or DISABLE.
* Return         : None
*******************************************************************************/	
void RCC_APB1PeriphClockCmd(uint32_t RCC_APB1Periph, FunctionalState NewState)
{
    34b2:	1101                	addi	sp,sp,-32
    34b4:	ce22                	sw	s0,28(sp)
    34b6:	1000                	addi	s0,sp,32
    34b8:	fea42623          	sw	a0,-20(s0)
    34bc:	feb42423          	sw	a1,-24(s0)
D:/projects/mechanical_arm/Firmware/ArmMainControler/libraries/sdk/Peripheral/ch32v30x_rcc.c:669
  if (NewState != DISABLE)
    34c0:	fe842783          	lw	a5,-24(s0)
    34c4:	cb99                	beqz	a5,34da <RCC_APB1PeriphClockCmd+0x28>
D:/projects/mechanical_arm/Firmware/ArmMainControler/libraries/sdk/Peripheral/ch32v30x_rcc.c:671
  {
    RCC->APB1PCENR |= RCC_APB1Periph;
    34c6:	400217b7          	lui	a5,0x40021
    34ca:	4fd4                	lw	a3,28(a5)
    34cc:	400217b7          	lui	a5,0x40021
    34d0:	fec42703          	lw	a4,-20(s0)
    34d4:	8f55                	or	a4,a4,a3
    34d6:	cfd8                	sw	a4,28(a5)
D:/projects/mechanical_arm/Firmware/ArmMainControler/libraries/sdk/Peripheral/ch32v30x_rcc.c:677
  }
  else
  {
    RCC->APB1PCENR &= ~RCC_APB1Periph;
  }
}
    34d8:	a821                	j	34f0 <RCC_APB1PeriphClockCmd+0x3e>
D:/projects/mechanical_arm/Firmware/ArmMainControler/libraries/sdk/Peripheral/ch32v30x_rcc.c:675
    RCC->APB1PCENR &= ~RCC_APB1Periph;
    34da:	400217b7          	lui	a5,0x40021
    34de:	4fd4                	lw	a3,28(a5)
    34e0:	fec42783          	lw	a5,-20(s0)
    34e4:	fff7c713          	not	a4,a5
    34e8:	400217b7          	lui	a5,0x40021
    34ec:	8f75                	and	a4,a4,a3
    34ee:	cfd8                	sw	a4,28(a5)
D:/projects/mechanical_arm/Firmware/ArmMainControler/libraries/sdk/Peripheral/ch32v30x_rcc.c:677
}
    34f0:	0001                	nop
    34f2:	4472                	lw	s0,28(sp)
    34f4:	6105                	addi	sp,sp,32
    34f6:	8082                	ret

000034f8 <RCC_APB2PeriphResetCmd>:
RCC_APB2PeriphResetCmd():
D:/projects/mechanical_arm/Firmware/ArmMainControler/libraries/sdk/Peripheral/ch32v30x_rcc.c:701
*                    RCC_APB2Periph_USART1.                
*                  NewState: ENABLE or DISABLE.
* Return         : None
*******************************************************************************/	
void RCC_APB2PeriphResetCmd(uint32_t RCC_APB2Periph, FunctionalState NewState)
{
    34f8:	1101                	addi	sp,sp,-32
    34fa:	ce22                	sw	s0,28(sp)
    34fc:	1000                	addi	s0,sp,32
    34fe:	fea42623          	sw	a0,-20(s0)
    3502:	feb42423          	sw	a1,-24(s0)
D:/projects/mechanical_arm/Firmware/ArmMainControler/libraries/sdk/Peripheral/ch32v30x_rcc.c:702
  if (NewState != DISABLE)
    3506:	fe842783          	lw	a5,-24(s0)
    350a:	cb99                	beqz	a5,3520 <RCC_APB2PeriphResetCmd+0x28>
D:/projects/mechanical_arm/Firmware/ArmMainControler/libraries/sdk/Peripheral/ch32v30x_rcc.c:704
  {
    RCC->APB2PRSTR |= RCC_APB2Periph;
    350c:	400217b7          	lui	a5,0x40021
    3510:	47d4                	lw	a3,12(a5)
    3512:	400217b7          	lui	a5,0x40021
    3516:	fec42703          	lw	a4,-20(s0)
    351a:	8f55                	or	a4,a4,a3
    351c:	c7d8                	sw	a4,12(a5)
D:/projects/mechanical_arm/Firmware/ArmMainControler/libraries/sdk/Peripheral/ch32v30x_rcc.c:710
  }
  else
  {
    RCC->APB2PRSTR &= ~RCC_APB2Periph;
  }
}
    351e:	a821                	j	3536 <RCC_APB2PeriphResetCmd+0x3e>
D:/projects/mechanical_arm/Firmware/ArmMainControler/libraries/sdk/Peripheral/ch32v30x_rcc.c:708
    RCC->APB2PRSTR &= ~RCC_APB2Periph;
    3520:	400217b7          	lui	a5,0x40021
    3524:	47d4                	lw	a3,12(a5)
    3526:	fec42783          	lw	a5,-20(s0)
    352a:	fff7c713          	not	a4,a5
    352e:	400217b7          	lui	a5,0x40021
    3532:	8f75                	and	a4,a4,a3
    3534:	c7d8                	sw	a4,12(a5)
D:/projects/mechanical_arm/Firmware/ArmMainControler/libraries/sdk/Peripheral/ch32v30x_rcc.c:710
}
    3536:	0001                	nop
    3538:	4472                	lw	s0,28(sp)
    353a:	6105                	addi	sp,sp,32
    353c:	8082                	ret

0000353e <RCC_APB1PeriphResetCmd>:
RCC_APB1PeriphResetCmd():
D:/projects/mechanical_arm/Firmware/ArmMainControler/libraries/sdk/Peripheral/ch32v30x_rcc.c:742
*                    RCC_APB1Periph_DAC.
*                  NewState: ENABLE or DISABLE.
* Return         : None
*******************************************************************************/	
void RCC_APB1PeriphResetCmd(uint32_t RCC_APB1Periph, FunctionalState NewState)
{
    353e:	1101                	addi	sp,sp,-32
    3540:	ce22                	sw	s0,28(sp)
    3542:	1000                	addi	s0,sp,32
    3544:	fea42623          	sw	a0,-20(s0)
    3548:	feb42423          	sw	a1,-24(s0)
D:/projects/mechanical_arm/Firmware/ArmMainControler/libraries/sdk/Peripheral/ch32v30x_rcc.c:743
  if (NewState != DISABLE)
    354c:	fe842783          	lw	a5,-24(s0)
    3550:	cb99                	beqz	a5,3566 <RCC_APB1PeriphResetCmd+0x28>
D:/projects/mechanical_arm/Firmware/ArmMainControler/libraries/sdk/Peripheral/ch32v30x_rcc.c:745
  {
    RCC->APB1PRSTR |= RCC_APB1Periph;
    3552:	400217b7          	lui	a5,0x40021
    3556:	4b94                	lw	a3,16(a5)
    3558:	400217b7          	lui	a5,0x40021
    355c:	fec42703          	lw	a4,-20(s0)
    3560:	8f55                	or	a4,a4,a3
    3562:	cb98                	sw	a4,16(a5)
D:/projects/mechanical_arm/Firmware/ArmMainControler/libraries/sdk/Peripheral/ch32v30x_rcc.c:751
  }
  else
  {
    RCC->APB1PRSTR &= ~RCC_APB1Periph;
  }
}
    3564:	a821                	j	357c <RCC_APB1PeriphResetCmd+0x3e>
D:/projects/mechanical_arm/Firmware/ArmMainControler/libraries/sdk/Peripheral/ch32v30x_rcc.c:749
    RCC->APB1PRSTR &= ~RCC_APB1Periph;
    3566:	400217b7          	lui	a5,0x40021
    356a:	4b94                	lw	a3,16(a5)
    356c:	fec42783          	lw	a5,-20(s0)
    3570:	fff7c713          	not	a4,a5
    3574:	400217b7          	lui	a5,0x40021
    3578:	8f75                	and	a4,a4,a3
    357a:	cb98                	sw	a4,16(a5)
D:/projects/mechanical_arm/Firmware/ArmMainControler/libraries/sdk/Peripheral/ch32v30x_rcc.c:751
}
    357c:	0001                	nop
    357e:	4472                	lw	s0,28(sp)
    3580:	6105                	addi	sp,sp,32
    3582:	8082                	ret

00003584 <SPI_I2S_DeInit>:
SPI_I2S_DeInit():
D:/projects/mechanical_arm/Firmware/ArmMainControler/libraries/sdk/Peripheral/ch32v30x_spi.c:52
*      reset values (Affects also the I2Ss).
* Input          : SPIx: where x can be 1, 2 or 3 to select the SPI peripheral.
* Return         : None
*******************************************************************************/
void SPI_I2S_DeInit(SPI_TypeDef* SPIx)
{
    3584:	1101                	addi	sp,sp,-32
    3586:	ce06                	sw	ra,28(sp)
    3588:	cc22                	sw	s0,24(sp)
    358a:	1000                	addi	s0,sp,32
    358c:	fea42623          	sw	a0,-20(s0)
D:/projects/mechanical_arm/Firmware/ArmMainControler/libraries/sdk/Peripheral/ch32v30x_spi.c:53
  if (SPIx == SPI1)
    3590:	fec42703          	lw	a4,-20(s0)
    3594:	400137b7          	lui	a5,0x40013
    3598:	00f71b63          	bne	a4,a5,35ae <SPI_I2S_DeInit+0x2a>
D:/projects/mechanical_arm/Firmware/ArmMainControler/libraries/sdk/Peripheral/ch32v30x_spi.c:55
  {
    RCC_APB2PeriphResetCmd(RCC_APB2Periph_SPI1, ENABLE);
    359c:	4585                	li	a1,1
    359e:	6505                	lui	a0,0x1
    35a0:	f59ff0ef          	jal	ra,34f8 <RCC_APB2PeriphResetCmd>
D:/projects/mechanical_arm/Firmware/ArmMainControler/libraries/sdk/Peripheral/ch32v30x_spi.c:56
    RCC_APB2PeriphResetCmd(RCC_APB2Periph_SPI1, DISABLE);
    35a4:	4581                	li	a1,0
    35a6:	6505                	lui	a0,0x1
    35a8:	f51ff0ef          	jal	ra,34f8 <RCC_APB2PeriphResetCmd>
D:/projects/mechanical_arm/Firmware/ArmMainControler/libraries/sdk/Peripheral/ch32v30x_spi.c:71
    {
      RCC_APB1PeriphResetCmd(RCC_APB1Periph_SPI3, ENABLE);
      RCC_APB1PeriphResetCmd(RCC_APB1Periph_SPI3, DISABLE);
    }
  }
}
    35ac:	a091                	j	35f0 <SPI_I2S_DeInit+0x6c>
D:/projects/mechanical_arm/Firmware/ArmMainControler/libraries/sdk/Peripheral/ch32v30x_spi.c:58
  else if (SPIx == SPI2)
    35ae:	fec42703          	lw	a4,-20(s0)
    35b2:	400047b7          	lui	a5,0x40004
    35b6:	80078793          	addi	a5,a5,-2048 # 40003800 <_eusrstack+0x1fff3800>
    35ba:	00f71b63          	bne	a4,a5,35d0 <SPI_I2S_DeInit+0x4c>
D:/projects/mechanical_arm/Firmware/ArmMainControler/libraries/sdk/Peripheral/ch32v30x_spi.c:60
    RCC_APB1PeriphResetCmd(RCC_APB1Periph_SPI2, ENABLE);
    35be:	4585                	li	a1,1
    35c0:	6511                	lui	a0,0x4
    35c2:	f7dff0ef          	jal	ra,353e <RCC_APB1PeriphResetCmd>
D:/projects/mechanical_arm/Firmware/ArmMainControler/libraries/sdk/Peripheral/ch32v30x_spi.c:61
    RCC_APB1PeriphResetCmd(RCC_APB1Periph_SPI2, DISABLE);
    35c6:	4581                	li	a1,0
    35c8:	6511                	lui	a0,0x4
    35ca:	f75ff0ef          	jal	ra,353e <RCC_APB1PeriphResetCmd>
D:/projects/mechanical_arm/Firmware/ArmMainControler/libraries/sdk/Peripheral/ch32v30x_spi.c:71
}
    35ce:	a00d                	j	35f0 <SPI_I2S_DeInit+0x6c>
D:/projects/mechanical_arm/Firmware/ArmMainControler/libraries/sdk/Peripheral/ch32v30x_spi.c:65
    if (SPIx == SPI3)
    35d0:	fec42703          	lw	a4,-20(s0)
    35d4:	400047b7          	lui	a5,0x40004
    35d8:	c0078793          	addi	a5,a5,-1024 # 40003c00 <_eusrstack+0x1fff3c00>
    35dc:	00f71a63          	bne	a4,a5,35f0 <SPI_I2S_DeInit+0x6c>
D:/projects/mechanical_arm/Firmware/ArmMainControler/libraries/sdk/Peripheral/ch32v30x_spi.c:67
      RCC_APB1PeriphResetCmd(RCC_APB1Periph_SPI3, ENABLE);
    35e0:	4585                	li	a1,1
    35e2:	6521                	lui	a0,0x8
    35e4:	f5bff0ef          	jal	ra,353e <RCC_APB1PeriphResetCmd>
D:/projects/mechanical_arm/Firmware/ArmMainControler/libraries/sdk/Peripheral/ch32v30x_spi.c:68
      RCC_APB1PeriphResetCmd(RCC_APB1Periph_SPI3, DISABLE);
    35e8:	4581                	li	a1,0
    35ea:	6521                	lui	a0,0x8
    35ec:	f53ff0ef          	jal	ra,353e <RCC_APB1PeriphResetCmd>
D:/projects/mechanical_arm/Firmware/ArmMainControler/libraries/sdk/Peripheral/ch32v30x_spi.c:71
}
    35f0:	0001                	nop
    35f2:	40f2                	lw	ra,28(sp)
    35f4:	4462                	lw	s0,24(sp)
    35f6:	6105                	addi	sp,sp,32
    35f8:	8082                	ret

000035fa <SPI_Init>:
SPI_Init():
D:/projects/mechanical_arm/Firmware/ArmMainControler/libraries/sdk/Peripheral/ch32v30x_spi.c:83
*                  SPI_InitStruct: pointer to a SPI_InitTypeDef structure that
*      contains the configuration information for the specified SPI peripheral.
* Return         : None
*******************************************************************************/
void SPI_Init(SPI_TypeDef* SPIx, SPI_InitTypeDef* SPI_InitStruct)
{
    35fa:	7179                	addi	sp,sp,-48
    35fc:	d622                	sw	s0,44(sp)
    35fe:	1800                	addi	s0,sp,48
    3600:	fca42e23          	sw	a0,-36(s0)
    3604:	fcb42c23          	sw	a1,-40(s0)
D:/projects/mechanical_arm/Firmware/ArmMainControler/libraries/sdk/Peripheral/ch32v30x_spi.c:84
  uint16_t tmpreg = 0;
    3608:	fe041723          	sh	zero,-18(s0)
D:/projects/mechanical_arm/Firmware/ArmMainControler/libraries/sdk/Peripheral/ch32v30x_spi.c:86
  
  tmpreg = SPIx->CTLR1;
    360c:	fdc42783          	lw	a5,-36(s0)
    3610:	0007d783          	lhu	a5,0(a5)
    3614:	fef41723          	sh	a5,-18(s0)
D:/projects/mechanical_arm/Firmware/ArmMainControler/libraries/sdk/Peripheral/ch32v30x_spi.c:87
  tmpreg &= CTLR1_CLEAR_Mask;
    3618:	fee45703          	lhu	a4,-18(s0)
    361c:	678d                	lui	a5,0x3
    361e:	04078793          	addi	a5,a5,64 # 3040 <GPIO_WriteBit+0xe>
    3622:	8ff9                	and	a5,a5,a4
    3624:	fef41723          	sh	a5,-18(s0)
D:/projects/mechanical_arm/Firmware/ArmMainControler/libraries/sdk/Peripheral/ch32v30x_spi.c:88
  tmpreg |= (uint16_t)((uint32_t)SPI_InitStruct->SPI_Direction | SPI_InitStruct->SPI_Mode |
    3628:	fd842783          	lw	a5,-40(s0)
    362c:	0007d703          	lhu	a4,0(a5)
    3630:	fd842783          	lw	a5,-40(s0)
    3634:	0027d783          	lhu	a5,2(a5)
    3638:	8fd9                	or	a5,a5,a4
    363a:	01079713          	slli	a4,a5,0x10
    363e:	8341                	srli	a4,a4,0x10
D:/projects/mechanical_arm/Firmware/ArmMainControler/libraries/sdk/Peripheral/ch32v30x_spi.c:89
                  SPI_InitStruct->SPI_DataSize | SPI_InitStruct->SPI_CPOL |  
    3640:	fd842783          	lw	a5,-40(s0)
    3644:	0047d783          	lhu	a5,4(a5)
D:/projects/mechanical_arm/Firmware/ArmMainControler/libraries/sdk/Peripheral/ch32v30x_spi.c:88
  tmpreg |= (uint16_t)((uint32_t)SPI_InitStruct->SPI_Direction | SPI_InitStruct->SPI_Mode |
    3648:	8fd9                	or	a5,a5,a4
    364a:	01079713          	slli	a4,a5,0x10
    364e:	8341                	srli	a4,a4,0x10
D:/projects/mechanical_arm/Firmware/ArmMainControler/libraries/sdk/Peripheral/ch32v30x_spi.c:89
                  SPI_InitStruct->SPI_DataSize | SPI_InitStruct->SPI_CPOL |  
    3650:	fd842783          	lw	a5,-40(s0)
    3654:	0067d783          	lhu	a5,6(a5)
D:/projects/mechanical_arm/Firmware/ArmMainControler/libraries/sdk/Peripheral/ch32v30x_spi.c:88
  tmpreg |= (uint16_t)((uint32_t)SPI_InitStruct->SPI_Direction | SPI_InitStruct->SPI_Mode |
    3658:	8fd9                	or	a5,a5,a4
    365a:	01079713          	slli	a4,a5,0x10
    365e:	8341                	srli	a4,a4,0x10
D:/projects/mechanical_arm/Firmware/ArmMainControler/libraries/sdk/Peripheral/ch32v30x_spi.c:90
                  SPI_InitStruct->SPI_CPHA | SPI_InitStruct->SPI_NSS |  
    3660:	fd842783          	lw	a5,-40(s0)
    3664:	0087d783          	lhu	a5,8(a5)
D:/projects/mechanical_arm/Firmware/ArmMainControler/libraries/sdk/Peripheral/ch32v30x_spi.c:88
  tmpreg |= (uint16_t)((uint32_t)SPI_InitStruct->SPI_Direction | SPI_InitStruct->SPI_Mode |
    3668:	8fd9                	or	a5,a5,a4
    366a:	01079713          	slli	a4,a5,0x10
    366e:	8341                	srli	a4,a4,0x10
D:/projects/mechanical_arm/Firmware/ArmMainControler/libraries/sdk/Peripheral/ch32v30x_spi.c:90
                  SPI_InitStruct->SPI_CPHA | SPI_InitStruct->SPI_NSS |  
    3670:	fd842783          	lw	a5,-40(s0)
    3674:	00a7d783          	lhu	a5,10(a5)
D:/projects/mechanical_arm/Firmware/ArmMainControler/libraries/sdk/Peripheral/ch32v30x_spi.c:88
  tmpreg |= (uint16_t)((uint32_t)SPI_InitStruct->SPI_Direction | SPI_InitStruct->SPI_Mode |
    3678:	8fd9                	or	a5,a5,a4
    367a:	01079713          	slli	a4,a5,0x10
    367e:	8341                	srli	a4,a4,0x10
D:/projects/mechanical_arm/Firmware/ArmMainControler/libraries/sdk/Peripheral/ch32v30x_spi.c:91
                  SPI_InitStruct->SPI_BaudRatePrescaler | SPI_InitStruct->SPI_FirstBit);
    3680:	fd842783          	lw	a5,-40(s0)
    3684:	00c7d783          	lhu	a5,12(a5)
D:/projects/mechanical_arm/Firmware/ArmMainControler/libraries/sdk/Peripheral/ch32v30x_spi.c:88
  tmpreg |= (uint16_t)((uint32_t)SPI_InitStruct->SPI_Direction | SPI_InitStruct->SPI_Mode |
    3688:	8fd9                	or	a5,a5,a4
    368a:	01079713          	slli	a4,a5,0x10
    368e:	8341                	srli	a4,a4,0x10
D:/projects/mechanical_arm/Firmware/ArmMainControler/libraries/sdk/Peripheral/ch32v30x_spi.c:91
                  SPI_InitStruct->SPI_BaudRatePrescaler | SPI_InitStruct->SPI_FirstBit);
    3690:	fd842783          	lw	a5,-40(s0)
    3694:	00e7d783          	lhu	a5,14(a5)
D:/projects/mechanical_arm/Firmware/ArmMainControler/libraries/sdk/Peripheral/ch32v30x_spi.c:88
  tmpreg |= (uint16_t)((uint32_t)SPI_InitStruct->SPI_Direction | SPI_InitStruct->SPI_Mode |
    3698:	8fd9                	or	a5,a5,a4
    369a:	01079713          	slli	a4,a5,0x10
    369e:	8341                	srli	a4,a4,0x10
    36a0:	fee45783          	lhu	a5,-18(s0)
    36a4:	8fd9                	or	a5,a5,a4
    36a6:	fef41723          	sh	a5,-18(s0)
D:/projects/mechanical_arm/Firmware/ArmMainControler/libraries/sdk/Peripheral/ch32v30x_spi.c:93

  SPIx->CTLR1 = tmpreg;
    36aa:	fdc42783          	lw	a5,-36(s0)
    36ae:	fee45703          	lhu	a4,-18(s0)
    36b2:	00e79023          	sh	a4,0(a5)
D:/projects/mechanical_arm/Firmware/ArmMainControler/libraries/sdk/Peripheral/ch32v30x_spi.c:94
  SPIx->I2SCFGR &= SPI_Mode_Select;		
    36b6:	fdc42783          	lw	a5,-36(s0)
    36ba:	01c7d783          	lhu	a5,28(a5)
    36be:	01079713          	slli	a4,a5,0x10
    36c2:	8341                	srli	a4,a4,0x10
    36c4:	77fd                	lui	a5,0xfffff
    36c6:	7ff78793          	addi	a5,a5,2047 # fffff7ff <_eusrstack+0xdffef7ff>
    36ca:	8ff9                	and	a5,a5,a4
    36cc:	01079713          	slli	a4,a5,0x10
    36d0:	8341                	srli	a4,a4,0x10
    36d2:	fdc42783          	lw	a5,-36(s0)
    36d6:	00e79e23          	sh	a4,28(a5)
D:/projects/mechanical_arm/Firmware/ArmMainControler/libraries/sdk/Peripheral/ch32v30x_spi.c:95
  SPIx->CRCR = SPI_InitStruct->SPI_CRCPolynomial;
    36da:	fd842783          	lw	a5,-40(s0)
    36de:	0107d703          	lhu	a4,16(a5)
    36e2:	fdc42783          	lw	a5,-36(s0)
    36e6:	00e79823          	sh	a4,16(a5)
D:/projects/mechanical_arm/Firmware/ArmMainControler/libraries/sdk/Peripheral/ch32v30x_spi.c:96
}
    36ea:	0001                	nop
    36ec:	5432                	lw	s0,44(sp)
    36ee:	6145                	addi	sp,sp,48
    36f0:	8082                	ret

000036f2 <SPI_Cmd>:
SPI_Cmd():
D:/projects/mechanical_arm/Firmware/ArmMainControler/libraries/sdk/Peripheral/ch32v30x_spi.c:221
* Input          : SPIx: where x can be 1, 2 or 3 to select the SPI peripheral.
*                  NewState: ENABLE or DISABLE.
* Return         : None
*******************************************************************************/
void SPI_Cmd(SPI_TypeDef* SPIx, FunctionalState NewState)
{
    36f2:	1101                	addi	sp,sp,-32
    36f4:	ce22                	sw	s0,28(sp)
    36f6:	1000                	addi	s0,sp,32
    36f8:	fea42623          	sw	a0,-20(s0)
    36fc:	feb42423          	sw	a1,-24(s0)
D:/projects/mechanical_arm/Firmware/ArmMainControler/libraries/sdk/Peripheral/ch32v30x_spi.c:222
  if (NewState != DISABLE)
    3700:	fe842783          	lw	a5,-24(s0)
    3704:	c38d                	beqz	a5,3726 <SPI_Cmd+0x34>
D:/projects/mechanical_arm/Firmware/ArmMainControler/libraries/sdk/Peripheral/ch32v30x_spi.c:224
  {
    SPIx->CTLR1 |= CTLR1_SPE_Set;
    3706:	fec42783          	lw	a5,-20(s0)
    370a:	0007d783          	lhu	a5,0(a5)
    370e:	07c2                	slli	a5,a5,0x10
    3710:	83c1                	srli	a5,a5,0x10
    3712:	0407e793          	ori	a5,a5,64
    3716:	01079713          	slli	a4,a5,0x10
    371a:	8341                	srli	a4,a4,0x10
    371c:	fec42783          	lw	a5,-20(s0)
    3720:	00e79023          	sh	a4,0(a5)
D:/projects/mechanical_arm/Firmware/ArmMainControler/libraries/sdk/Peripheral/ch32v30x_spi.c:230
  }
  else
  {
    SPIx->CTLR1 &= CTLR1_SPE_Reset;
  }
}
    3724:	a005                	j	3744 <SPI_Cmd+0x52>
D:/projects/mechanical_arm/Firmware/ArmMainControler/libraries/sdk/Peripheral/ch32v30x_spi.c:228
    SPIx->CTLR1 &= CTLR1_SPE_Reset;
    3726:	fec42783          	lw	a5,-20(s0)
    372a:	0007d783          	lhu	a5,0(a5)
    372e:	07c2                	slli	a5,a5,0x10
    3730:	83c1                	srli	a5,a5,0x10
    3732:	fbf7f793          	andi	a5,a5,-65
    3736:	01079713          	slli	a4,a5,0x10
    373a:	8341                	srli	a4,a4,0x10
    373c:	fec42783          	lw	a5,-20(s0)
    3740:	00e79023          	sh	a4,0(a5)
D:/projects/mechanical_arm/Firmware/ArmMainControler/libraries/sdk/Peripheral/ch32v30x_spi.c:230
}
    3744:	0001                	nop
    3746:	4472                	lw	s0,28(sp)
    3748:	6105                	addi	sp,sp,32
    374a:	8082                	ret

0000374c <TIM_GetITStatus>:
TIM_GetITStatus():
D:/projects/mechanical_arm/Firmware/ArmMainControler/libraries/sdk/Peripheral/ch32v30x_tim.c:1887
*                    TIM_IT_Trigger: TIM Trigger Interrupt source.
*                    TIM_IT_Break: TIM Break Interrupt source.
* Return         : bitstatus: SET or RESET.
*******************************************************************************/
ITStatus TIM_GetITStatus(TIM_TypeDef* TIMx, uint16_t TIM_IT)
{
    374c:	7179                	addi	sp,sp,-48
    374e:	d622                	sw	s0,44(sp)
    3750:	1800                	addi	s0,sp,48
    3752:	fca42e23          	sw	a0,-36(s0)
    3756:	87ae                	mv	a5,a1
    3758:	fcf41d23          	sh	a5,-38(s0)
D:/projects/mechanical_arm/Firmware/ArmMainControler/libraries/sdk/Peripheral/ch32v30x_tim.c:1888
  ITStatus bitstatus = RESET;  
    375c:	fe042623          	sw	zero,-20(s0)
D:/projects/mechanical_arm/Firmware/ArmMainControler/libraries/sdk/Peripheral/ch32v30x_tim.c:1889
  uint16_t itstatus = 0x0, itenable = 0x0;
    3760:	fe041523          	sh	zero,-22(s0)
    3764:	fe041423          	sh	zero,-24(s0)
D:/projects/mechanical_arm/Firmware/ArmMainControler/libraries/sdk/Peripheral/ch32v30x_tim.c:1891
   
  itstatus = TIMx->INTFR & TIM_IT;
    3768:	fdc42783          	lw	a5,-36(s0)
    376c:	0107d783          	lhu	a5,16(a5)
    3770:	01079713          	slli	a4,a5,0x10
    3774:	8341                	srli	a4,a4,0x10
    3776:	fda45783          	lhu	a5,-38(s0)
    377a:	8ff9                	and	a5,a5,a4
    377c:	fef41523          	sh	a5,-22(s0)
D:/projects/mechanical_arm/Firmware/ArmMainControler/libraries/sdk/Peripheral/ch32v30x_tim.c:1893
  
  itenable = TIMx->DMAINTENR & TIM_IT;
    3780:	fdc42783          	lw	a5,-36(s0)
    3784:	00c7d783          	lhu	a5,12(a5)
    3788:	01079713          	slli	a4,a5,0x10
    378c:	8341                	srli	a4,a4,0x10
    378e:	fda45783          	lhu	a5,-38(s0)
    3792:	8ff9                	and	a5,a5,a4
    3794:	fef41423          	sh	a5,-24(s0)
D:/projects/mechanical_arm/Firmware/ArmMainControler/libraries/sdk/Peripheral/ch32v30x_tim.c:1894
  if ((itstatus != (uint16_t)RESET) && (itenable != (uint16_t)RESET))
    3798:	fea45783          	lhu	a5,-22(s0)
    379c:	cb81                	beqz	a5,37ac <TIM_GetITStatus+0x60>
D:/projects/mechanical_arm/Firmware/ArmMainControler/libraries/sdk/Peripheral/ch32v30x_tim.c:1894 (discriminator 1)
    379e:	fe845783          	lhu	a5,-24(s0)
    37a2:	c789                	beqz	a5,37ac <TIM_GetITStatus+0x60>
D:/projects/mechanical_arm/Firmware/ArmMainControler/libraries/sdk/Peripheral/ch32v30x_tim.c:1896
  {
    bitstatus = SET;
    37a4:	4785                	li	a5,1
    37a6:	fef42623          	sw	a5,-20(s0)
    37aa:	a019                	j	37b0 <TIM_GetITStatus+0x64>
D:/projects/mechanical_arm/Firmware/ArmMainControler/libraries/sdk/Peripheral/ch32v30x_tim.c:1900
  }
  else
  {
    bitstatus = RESET;
    37ac:	fe042623          	sw	zero,-20(s0)
D:/projects/mechanical_arm/Firmware/ArmMainControler/libraries/sdk/Peripheral/ch32v30x_tim.c:1903
  }
	
  return bitstatus;
    37b0:	fec42783          	lw	a5,-20(s0)
D:/projects/mechanical_arm/Firmware/ArmMainControler/libraries/sdk/Peripheral/ch32v30x_tim.c:1904
}
    37b4:	853e                	mv	a0,a5
    37b6:	5432                	lw	s0,44(sp)
    37b8:	6145                	addi	sp,sp,48
    37ba:	8082                	ret

000037bc <TIM_ClearITPendingBit>:
TIM_ClearITPendingBit():
D:/projects/mechanical_arm/Firmware/ArmMainControler/libraries/sdk/Peripheral/ch32v30x_tim.c:1922
*                    TIM_IT_Trigger: TIM Trigger Interrupt source.
*                    TIM_IT_Break: TIM Break Interrupt source.
* Return         : None
*******************************************************************************/
void TIM_ClearITPendingBit(TIM_TypeDef* TIMx, uint16_t TIM_IT)
{
    37bc:	1101                	addi	sp,sp,-32
    37be:	ce22                	sw	s0,28(sp)
    37c0:	1000                	addi	s0,sp,32
    37c2:	fea42623          	sw	a0,-20(s0)
    37c6:	87ae                	mv	a5,a1
    37c8:	fef41523          	sh	a5,-22(s0)
D:/projects/mechanical_arm/Firmware/ArmMainControler/libraries/sdk/Peripheral/ch32v30x_tim.c:1923
  TIMx->INTFR = (uint16_t)~TIM_IT;
    37cc:	fea45783          	lhu	a5,-22(s0)
    37d0:	fff7c793          	not	a5,a5
    37d4:	01079713          	slli	a4,a5,0x10
    37d8:	8341                	srli	a4,a4,0x10
    37da:	fec42783          	lw	a5,-20(s0)
    37de:	00e79823          	sh	a4,16(a5)
D:/projects/mechanical_arm/Firmware/ArmMainControler/libraries/sdk/Peripheral/ch32v30x_tim.c:1924
}
    37e2:	0001                	nop
    37e4:	4472                	lw	s0,28(sp)
    37e6:	6105                	addi	sp,sp,32
    37e8:	8082                	ret

000037ea <USART_Init>:
USART_Init():
D:/projects/mechanical_arm/Firmware/ArmMainControler/libraries/sdk/Peripheral/ch32v30x_usart.c:105
*                  USART_InitStruct: pointer to a USART_InitTypeDef structure
*      that contains the configuration information for the specified USART peripheral. 
* Return         : None
*******************************************************************************/
void USART_Init(USART_TypeDef* USARTx, USART_InitTypeDef* USART_InitStruct)
{
    37ea:	715d                	addi	sp,sp,-80
    37ec:	c686                	sw	ra,76(sp)
    37ee:	c4a2                	sw	s0,72(sp)
    37f0:	0880                	addi	s0,sp,80
    37f2:	faa42e23          	sw	a0,-68(s0)
    37f6:	fab42c23          	sw	a1,-72(s0)
D:/projects/mechanical_arm/Firmware/ArmMainControler/libraries/sdk/Peripheral/ch32v30x_usart.c:106
  uint32_t tmpreg = 0x00, apbclock = 0x00;
    37fa:	fe042623          	sw	zero,-20(s0)
    37fe:	fe042423          	sw	zero,-24(s0)
D:/projects/mechanical_arm/Firmware/ArmMainControler/libraries/sdk/Peripheral/ch32v30x_usart.c:107
  uint32_t integerdivider = 0x00;
    3802:	fe042223          	sw	zero,-28(s0)
D:/projects/mechanical_arm/Firmware/ArmMainControler/libraries/sdk/Peripheral/ch32v30x_usart.c:108
  uint32_t fractionaldivider = 0x00;
    3806:	fe042023          	sw	zero,-32(s0)
D:/projects/mechanical_arm/Firmware/ArmMainControler/libraries/sdk/Peripheral/ch32v30x_usart.c:109
  uint32_t usartxbase = 0;
    380a:	fc042e23          	sw	zero,-36(s0)
D:/projects/mechanical_arm/Firmware/ArmMainControler/libraries/sdk/Peripheral/ch32v30x_usart.c:116

  if (USART_InitStruct->USART_HardwareFlowControl != USART_HardwareFlowControl_None)
  {
  }

  usartxbase = (uint32_t)USARTx;
    380e:	fbc42783          	lw	a5,-68(s0)
    3812:	fcf42e23          	sw	a5,-36(s0)
D:/projects/mechanical_arm/Firmware/ArmMainControler/libraries/sdk/Peripheral/ch32v30x_usart.c:117
  tmpreg = USARTx->CTLR2;
    3816:	fbc42783          	lw	a5,-68(s0)
    381a:	0107d783          	lhu	a5,16(a5)
    381e:	07c2                	slli	a5,a5,0x10
    3820:	83c1                	srli	a5,a5,0x10
    3822:	fef42623          	sw	a5,-20(s0)
D:/projects/mechanical_arm/Firmware/ArmMainControler/libraries/sdk/Peripheral/ch32v30x_usart.c:118
  tmpreg &= CTLR2_STOP_CLEAR_Mask;
    3826:	fec42703          	lw	a4,-20(s0)
    382a:	67b5                	lui	a5,0xd
    382c:	17fd                	addi	a5,a5,-1
    382e:	8ff9                	and	a5,a5,a4
    3830:	fef42623          	sw	a5,-20(s0)
D:/projects/mechanical_arm/Firmware/ArmMainControler/libraries/sdk/Peripheral/ch32v30x_usart.c:119
  tmpreg |= (uint32_t)USART_InitStruct->USART_StopBits;  
    3834:	fb842783          	lw	a5,-72(s0)
    3838:	0067d783          	lhu	a5,6(a5) # d006 <_data_lma+0x2b8a>
    383c:	873e                	mv	a4,a5
    383e:	fec42783          	lw	a5,-20(s0)
    3842:	8fd9                	or	a5,a5,a4
    3844:	fef42623          	sw	a5,-20(s0)
D:/projects/mechanical_arm/Firmware/ArmMainControler/libraries/sdk/Peripheral/ch32v30x_usart.c:121
	
  USARTx->CTLR2 = (uint16_t)tmpreg;
    3848:	fec42783          	lw	a5,-20(s0)
    384c:	01079713          	slli	a4,a5,0x10
    3850:	8341                	srli	a4,a4,0x10
    3852:	fbc42783          	lw	a5,-68(s0)
    3856:	00e79823          	sh	a4,16(a5)
D:/projects/mechanical_arm/Firmware/ArmMainControler/libraries/sdk/Peripheral/ch32v30x_usart.c:122
  tmpreg = USARTx->CTLR1;
    385a:	fbc42783          	lw	a5,-68(s0)
    385e:	00c7d783          	lhu	a5,12(a5)
    3862:	07c2                	slli	a5,a5,0x10
    3864:	83c1                	srli	a5,a5,0x10
    3866:	fef42623          	sw	a5,-20(s0)
D:/projects/mechanical_arm/Firmware/ArmMainControler/libraries/sdk/Peripheral/ch32v30x_usart.c:123
  tmpreg &= CTLR1_CLEAR_Mask;
    386a:	fec42703          	lw	a4,-20(s0)
    386e:	67bd                	lui	a5,0xf
    3870:	9f378793          	addi	a5,a5,-1549 # e9f3 <_data_lma+0x4577>
    3874:	8ff9                	and	a5,a5,a4
    3876:	fef42623          	sw	a5,-20(s0)
D:/projects/mechanical_arm/Firmware/ArmMainControler/libraries/sdk/Peripheral/ch32v30x_usart.c:124
  tmpreg |= (uint32_t)USART_InitStruct->USART_WordLength | USART_InitStruct->USART_Parity |
    387a:	fb842783          	lw	a5,-72(s0)
    387e:	0047d703          	lhu	a4,4(a5)
    3882:	fb842783          	lw	a5,-72(s0)
    3886:	0087d783          	lhu	a5,8(a5)
    388a:	8fd9                	or	a5,a5,a4
    388c:	01079713          	slli	a4,a5,0x10
    3890:	8341                	srli	a4,a4,0x10
D:/projects/mechanical_arm/Firmware/ArmMainControler/libraries/sdk/Peripheral/ch32v30x_usart.c:125
            USART_InitStruct->USART_Mode;
    3892:	fb842783          	lw	a5,-72(s0)
    3896:	00a7d783          	lhu	a5,10(a5)
D:/projects/mechanical_arm/Firmware/ArmMainControler/libraries/sdk/Peripheral/ch32v30x_usart.c:124
  tmpreg |= (uint32_t)USART_InitStruct->USART_WordLength | USART_InitStruct->USART_Parity |
    389a:	8fd9                	or	a5,a5,a4
    389c:	07c2                	slli	a5,a5,0x10
    389e:	83c1                	srli	a5,a5,0x10
    38a0:	873e                	mv	a4,a5
    38a2:	fec42783          	lw	a5,-20(s0)
    38a6:	8fd9                	or	a5,a5,a4
    38a8:	fef42623          	sw	a5,-20(s0)
D:/projects/mechanical_arm/Firmware/ArmMainControler/libraries/sdk/Peripheral/ch32v30x_usart.c:126
  USARTx->CTLR1 = (uint16_t)tmpreg;
    38ac:	fec42783          	lw	a5,-20(s0)
    38b0:	01079713          	slli	a4,a5,0x10
    38b4:	8341                	srli	a4,a4,0x10
    38b6:	fbc42783          	lw	a5,-68(s0)
    38ba:	00e79623          	sh	a4,12(a5)
D:/projects/mechanical_arm/Firmware/ArmMainControler/libraries/sdk/Peripheral/ch32v30x_usart.c:128
 
  tmpreg = USARTx->CTLR3;
    38be:	fbc42783          	lw	a5,-68(s0)
    38c2:	0147d783          	lhu	a5,20(a5)
    38c6:	07c2                	slli	a5,a5,0x10
    38c8:	83c1                	srli	a5,a5,0x10
    38ca:	fef42623          	sw	a5,-20(s0)
D:/projects/mechanical_arm/Firmware/ArmMainControler/libraries/sdk/Peripheral/ch32v30x_usart.c:129
  tmpreg &= CTLR3_CLEAR_Mask;
    38ce:	fec42703          	lw	a4,-20(s0)
    38d2:	67c1                	lui	a5,0x10
    38d4:	cff78793          	addi	a5,a5,-769 # fcff <_data_lma+0x5883>
    38d8:	8ff9                	and	a5,a5,a4
    38da:	fef42623          	sw	a5,-20(s0)
D:/projects/mechanical_arm/Firmware/ArmMainControler/libraries/sdk/Peripheral/ch32v30x_usart.c:130
  tmpreg |= USART_InitStruct->USART_HardwareFlowControl;
    38de:	fb842783          	lw	a5,-72(s0)
    38e2:	00c7d783          	lhu	a5,12(a5)
    38e6:	873e                	mv	a4,a5
    38e8:	fec42783          	lw	a5,-20(s0)
    38ec:	8fd9                	or	a5,a5,a4
    38ee:	fef42623          	sw	a5,-20(s0)
D:/projects/mechanical_arm/Firmware/ArmMainControler/libraries/sdk/Peripheral/ch32v30x_usart.c:131
  USARTx->CTLR3 = (uint16_t)tmpreg;
    38f2:	fec42783          	lw	a5,-20(s0)
    38f6:	01079713          	slli	a4,a5,0x10
    38fa:	8341                	srli	a4,a4,0x10
    38fc:	fbc42783          	lw	a5,-68(s0)
    3900:	00e79a23          	sh	a4,20(a5)
D:/projects/mechanical_arm/Firmware/ArmMainControler/libraries/sdk/Peripheral/ch32v30x_usart.c:133

  RCC_GetClocksFreq(&RCC_ClocksStatus);
    3904:	fc840793          	addi	a5,s0,-56
    3908:	853e                	mv	a0,a5
    390a:	89dff0ef          	jal	ra,31a6 <RCC_GetClocksFreq>
D:/projects/mechanical_arm/Firmware/ArmMainControler/libraries/sdk/Peripheral/ch32v30x_usart.c:135
	
  if (usartxbase == USART1_BASE)
    390e:	fdc42703          	lw	a4,-36(s0)
    3912:	400147b7          	lui	a5,0x40014
    3916:	80078793          	addi	a5,a5,-2048 # 40013800 <_eusrstack+0x20003800>
    391a:	00f71763          	bne	a4,a5,3928 <USART_Init+0x13e>
D:/projects/mechanical_arm/Firmware/ArmMainControler/libraries/sdk/Peripheral/ch32v30x_usart.c:137
  {
    apbclock = RCC_ClocksStatus.PCLK2_Frequency;
    391e:	fd442783          	lw	a5,-44(s0)
    3922:	fef42423          	sw	a5,-24(s0)
    3926:	a029                	j	3930 <USART_Init+0x146>
D:/projects/mechanical_arm/Firmware/ArmMainControler/libraries/sdk/Peripheral/ch32v30x_usart.c:141
  }
  else
  {
    apbclock = RCC_ClocksStatus.PCLK1_Frequency;
    3928:	fd042783          	lw	a5,-48(s0)
    392c:	fef42423          	sw	a5,-24(s0)
D:/projects/mechanical_arm/Firmware/ArmMainControler/libraries/sdk/Peripheral/ch32v30x_usart.c:144
  }
  
  if ((USARTx->CTLR1 & CTLR1_OVER8_Set) != 0)
    3930:	fbc42783          	lw	a5,-68(s0)
    3934:	00c7d783          	lhu	a5,12(a5)
    3938:	07c2                	slli	a5,a5,0x10
    393a:	83c1                	srli	a5,a5,0x10
    393c:	07c2                	slli	a5,a5,0x10
    393e:	87c1                	srai	a5,a5,0x10
    3940:	0207d263          	bgez	a5,3964 <USART_Init+0x17a>
D:/projects/mechanical_arm/Firmware/ArmMainControler/libraries/sdk/Peripheral/ch32v30x_usart.c:146
  {
    integerdivider = ((25 * apbclock) / (2 * (USART_InitStruct->USART_BaudRate)));    
    3944:	fe842703          	lw	a4,-24(s0)
    3948:	87ba                	mv	a5,a4
    394a:	0786                	slli	a5,a5,0x1
    394c:	97ba                	add	a5,a5,a4
    394e:	078e                	slli	a5,a5,0x3
    3950:	973e                	add	a4,a4,a5
    3952:	fb842783          	lw	a5,-72(s0)
    3956:	439c                	lw	a5,0(a5)
    3958:	0786                	slli	a5,a5,0x1
    395a:	02f757b3          	divu	a5,a4,a5
    395e:	fef42223          	sw	a5,-28(s0)
    3962:	a005                	j	3982 <USART_Init+0x198>
D:/projects/mechanical_arm/Firmware/ArmMainControler/libraries/sdk/Peripheral/ch32v30x_usart.c:150
  }
  else 
  {
    integerdivider = ((25 * apbclock) / (4 * (USART_InitStruct->USART_BaudRate)));    
    3964:	fe842703          	lw	a4,-24(s0)
    3968:	87ba                	mv	a5,a4
    396a:	0786                	slli	a5,a5,0x1
    396c:	97ba                	add	a5,a5,a4
    396e:	078e                	slli	a5,a5,0x3
    3970:	973e                	add	a4,a4,a5
    3972:	fb842783          	lw	a5,-72(s0)
    3976:	439c                	lw	a5,0(a5)
    3978:	078a                	slli	a5,a5,0x2
    397a:	02f757b3          	divu	a5,a4,a5
    397e:	fef42223          	sw	a5,-28(s0)
D:/projects/mechanical_arm/Firmware/ArmMainControler/libraries/sdk/Peripheral/ch32v30x_usart.c:152
  }
  tmpreg = (integerdivider / 100) << 4;
    3982:	fe442703          	lw	a4,-28(s0)
    3986:	06400793          	li	a5,100
    398a:	02f757b3          	divu	a5,a4,a5
    398e:	0792                	slli	a5,a5,0x4
    3990:	fef42623          	sw	a5,-20(s0)
D:/projects/mechanical_arm/Firmware/ArmMainControler/libraries/sdk/Peripheral/ch32v30x_usart.c:154

  fractionaldivider = integerdivider - (100 * (tmpreg >> 4));
    3994:	fec42783          	lw	a5,-20(s0)
    3998:	0047d713          	srli	a4,a5,0x4
    399c:	06400793          	li	a5,100
    39a0:	02f707b3          	mul	a5,a4,a5
    39a4:	fe442703          	lw	a4,-28(s0)
    39a8:	40f707b3          	sub	a5,a4,a5
    39ac:	fef42023          	sw	a5,-32(s0)
D:/projects/mechanical_arm/Firmware/ArmMainControler/libraries/sdk/Peripheral/ch32v30x_usart.c:156

  if ((USARTx->CTLR1 & CTLR1_OVER8_Set) != 0)
    39b0:	fbc42783          	lw	a5,-68(s0)
    39b4:	00c7d783          	lhu	a5,12(a5)
    39b8:	07c2                	slli	a5,a5,0x10
    39ba:	83c1                	srli	a5,a5,0x10
    39bc:	07c2                	slli	a5,a5,0x10
    39be:	87c1                	srai	a5,a5,0x10
    39c0:	0207d263          	bgez	a5,39e4 <USART_Init+0x1fa>
D:/projects/mechanical_arm/Firmware/ArmMainControler/libraries/sdk/Peripheral/ch32v30x_usart.c:158
  {
    tmpreg |= ((((fractionaldivider * 8) + 50) / 100)) & ((uint8_t)0x07);
    39c4:	fe042783          	lw	a5,-32(s0)
    39c8:	078e                	slli	a5,a5,0x3
    39ca:	03278713          	addi	a4,a5,50
    39ce:	06400793          	li	a5,100
    39d2:	02f757b3          	divu	a5,a4,a5
    39d6:	8b9d                	andi	a5,a5,7
    39d8:	fec42703          	lw	a4,-20(s0)
    39dc:	8fd9                	or	a5,a5,a4
    39de:	fef42623          	sw	a5,-20(s0)
    39e2:	a005                	j	3a02 <USART_Init+0x218>
D:/projects/mechanical_arm/Firmware/ArmMainControler/libraries/sdk/Peripheral/ch32v30x_usart.c:162
  }
  else 
  {
    tmpreg |= ((((fractionaldivider * 16) + 50) / 100)) & ((uint8_t)0x0F);
    39e4:	fe042783          	lw	a5,-32(s0)
    39e8:	0792                	slli	a5,a5,0x4
    39ea:	03278713          	addi	a4,a5,50
    39ee:	06400793          	li	a5,100
    39f2:	02f757b3          	divu	a5,a4,a5
    39f6:	8bbd                	andi	a5,a5,15
    39f8:	fec42703          	lw	a4,-20(s0)
    39fc:	8fd9                	or	a5,a5,a4
    39fe:	fef42623          	sw	a5,-20(s0)
D:/projects/mechanical_arm/Firmware/ArmMainControler/libraries/sdk/Peripheral/ch32v30x_usart.c:165
  }
  
  USARTx->BRR = (uint16_t)tmpreg;
    3a02:	fec42783          	lw	a5,-20(s0)
    3a06:	01079713          	slli	a4,a5,0x10
    3a0a:	8341                	srli	a4,a4,0x10
    3a0c:	fbc42783          	lw	a5,-68(s0)
    3a10:	00e79423          	sh	a4,8(a5)
D:/projects/mechanical_arm/Firmware/ArmMainControler/libraries/sdk/Peripheral/ch32v30x_usart.c:166
}
    3a14:	0001                	nop
    3a16:	40b6                	lw	ra,76(sp)
    3a18:	4426                	lw	s0,72(sp)
    3a1a:	6161                	addi	sp,sp,80
    3a1c:	8082                	ret

00003a1e <USART_Cmd>:
USART_Cmd():
D:/projects/mechanical_arm/Firmware/ArmMainControler/libraries/sdk/Peripheral/ch32v30x_usart.c:229
* Input          : USARTx: where x can be 1, 2, 3 to select the USART peripheral.
*                  NewState: ENABLE or DISABLE.
* Return         : None
*******************************************************************************/
void USART_Cmd(USART_TypeDef* USARTx, FunctionalState NewState)
{
    3a1e:	1101                	addi	sp,sp,-32
    3a20:	ce22                	sw	s0,28(sp)
    3a22:	1000                	addi	s0,sp,32
    3a24:	fea42623          	sw	a0,-20(s0)
    3a28:	feb42423          	sw	a1,-24(s0)
D:/projects/mechanical_arm/Firmware/ArmMainControler/libraries/sdk/Peripheral/ch32v30x_usart.c:230
  if (NewState != DISABLE)
    3a2c:	fe842783          	lw	a5,-24(s0)
    3a30:	c395                	beqz	a5,3a54 <USART_Cmd+0x36>
D:/projects/mechanical_arm/Firmware/ArmMainControler/libraries/sdk/Peripheral/ch32v30x_usart.c:232
  {
    USARTx->CTLR1 |= CTLR1_UE_Set;
    3a32:	fec42783          	lw	a5,-20(s0)
    3a36:	00c7d783          	lhu	a5,12(a5)
    3a3a:	01079713          	slli	a4,a5,0x10
    3a3e:	8341                	srli	a4,a4,0x10
    3a40:	6789                	lui	a5,0x2
    3a42:	8fd9                	or	a5,a5,a4
    3a44:	01079713          	slli	a4,a5,0x10
    3a48:	8341                	srli	a4,a4,0x10
    3a4a:	fec42783          	lw	a5,-20(s0)
    3a4e:	00e79623          	sh	a4,12(a5) # 200c <clock_set_freq+0x254>
D:/projects/mechanical_arm/Firmware/ArmMainControler/libraries/sdk/Peripheral/ch32v30x_usart.c:238
  }
  else
  {
    USARTx->CTLR1 &= CTLR1_UE_Reset;
  }
}
    3a52:	a015                	j	3a76 <USART_Cmd+0x58>
D:/projects/mechanical_arm/Firmware/ArmMainControler/libraries/sdk/Peripheral/ch32v30x_usart.c:236
    USARTx->CTLR1 &= CTLR1_UE_Reset;
    3a54:	fec42783          	lw	a5,-20(s0)
    3a58:	00c7d783          	lhu	a5,12(a5)
    3a5c:	01079713          	slli	a4,a5,0x10
    3a60:	8341                	srli	a4,a4,0x10
    3a62:	77f9                	lui	a5,0xffffe
    3a64:	17fd                	addi	a5,a5,-1
    3a66:	8ff9                	and	a5,a5,a4
    3a68:	01079713          	slli	a4,a5,0x10
    3a6c:	8341                	srli	a4,a4,0x10
    3a6e:	fec42783          	lw	a5,-20(s0)
    3a72:	00e79623          	sh	a4,12(a5) # ffffe00c <_eusrstack+0xdffee00c>
D:/projects/mechanical_arm/Firmware/ArmMainControler/libraries/sdk/Peripheral/ch32v30x_usart.c:238
}
    3a76:	0001                	nop
    3a78:	4472                	lw	s0,28(sp)
    3a7a:	6105                	addi	sp,sp,32
    3a7c:	8082                	ret

00003a7e <USART_ITConfig>:
USART_ITConfig():
D:/projects/mechanical_arm/Firmware/ArmMainControler/libraries/sdk/Peripheral/ch32v30x_usart.c:257
*                    USART_IT_ERR:  Error interrupt.
*                  NewState: ENABLE or DISABLE.
* Return         : None
*******************************************************************************/
void USART_ITConfig(USART_TypeDef* USARTx, uint16_t USART_IT, FunctionalState NewState)
{
    3a7e:	7179                	addi	sp,sp,-48
    3a80:	d622                	sw	s0,44(sp)
    3a82:	1800                	addi	s0,sp,48
    3a84:	fca42e23          	sw	a0,-36(s0)
    3a88:	87ae                	mv	a5,a1
    3a8a:	fcc42a23          	sw	a2,-44(s0)
    3a8e:	fcf41d23          	sh	a5,-38(s0)
D:/projects/mechanical_arm/Firmware/ArmMainControler/libraries/sdk/Peripheral/ch32v30x_usart.c:258
  uint32_t usartreg = 0x00, itpos = 0x00, itmask = 0x00;
    3a92:	fe042423          	sw	zero,-24(s0)
    3a96:	fe042223          	sw	zero,-28(s0)
    3a9a:	fe042023          	sw	zero,-32(s0)
D:/projects/mechanical_arm/Firmware/ArmMainControler/libraries/sdk/Peripheral/ch32v30x_usart.c:259
  uint32_t usartxbase = 0x00;
    3a9e:	fe042623          	sw	zero,-20(s0)
D:/projects/mechanical_arm/Firmware/ArmMainControler/libraries/sdk/Peripheral/ch32v30x_usart.c:265

  if (USART_IT == USART_IT_CTS)
  {
  }   
  
  usartxbase = (uint32_t)USARTx;
    3aa2:	fdc42783          	lw	a5,-36(s0)
    3aa6:	fef42623          	sw	a5,-20(s0)
D:/projects/mechanical_arm/Firmware/ArmMainControler/libraries/sdk/Peripheral/ch32v30x_usart.c:266
  usartreg = (((uint8_t)USART_IT) >> 0x05);
    3aaa:	fda45783          	lhu	a5,-38(s0)
    3aae:	0ff7f793          	andi	a5,a5,255
    3ab2:	8395                	srli	a5,a5,0x5
    3ab4:	0ff7f793          	andi	a5,a5,255
    3ab8:	fef42423          	sw	a5,-24(s0)
D:/projects/mechanical_arm/Firmware/ArmMainControler/libraries/sdk/Peripheral/ch32v30x_usart.c:267
  itpos = USART_IT & IT_Mask;
    3abc:	fda45783          	lhu	a5,-38(s0)
    3ac0:	8bfd                	andi	a5,a5,31
    3ac2:	fef42223          	sw	a5,-28(s0)
D:/projects/mechanical_arm/Firmware/ArmMainControler/libraries/sdk/Peripheral/ch32v30x_usart.c:268
  itmask = (((uint32_t)0x01) << itpos);
    3ac6:	fe442783          	lw	a5,-28(s0)
    3aca:	4705                	li	a4,1
    3acc:	00f717b3          	sll	a5,a4,a5
    3ad0:	fef42023          	sw	a5,-32(s0)
D:/projects/mechanical_arm/Firmware/ArmMainControler/libraries/sdk/Peripheral/ch32v30x_usart.c:270
    
  if (usartreg == 0x01) 
    3ad4:	fe842703          	lw	a4,-24(s0)
    3ad8:	4785                	li	a5,1
    3ada:	00f71863          	bne	a4,a5,3aea <USART_ITConfig+0x6c>
D:/projects/mechanical_arm/Firmware/ArmMainControler/libraries/sdk/Peripheral/ch32v30x_usart.c:272
  {
    usartxbase += 0x0C;
    3ade:	fec42783          	lw	a5,-20(s0)
    3ae2:	07b1                	addi	a5,a5,12
    3ae4:	fef42623          	sw	a5,-20(s0)
    3ae8:	a00d                	j	3b0a <USART_ITConfig+0x8c>
D:/projects/mechanical_arm/Firmware/ArmMainControler/libraries/sdk/Peripheral/ch32v30x_usart.c:274
  }
  else if (usartreg == 0x02) 
    3aea:	fe842703          	lw	a4,-24(s0)
    3aee:	4789                	li	a5,2
    3af0:	00f71863          	bne	a4,a5,3b00 <USART_ITConfig+0x82>
D:/projects/mechanical_arm/Firmware/ArmMainControler/libraries/sdk/Peripheral/ch32v30x_usart.c:276
  {
    usartxbase += 0x10;
    3af4:	fec42783          	lw	a5,-20(s0)
    3af8:	07c1                	addi	a5,a5,16
    3afa:	fef42623          	sw	a5,-20(s0)
    3afe:	a031                	j	3b0a <USART_ITConfig+0x8c>
D:/projects/mechanical_arm/Firmware/ArmMainControler/libraries/sdk/Peripheral/ch32v30x_usart.c:280
  }
  else 
  {
    usartxbase += 0x14; 
    3b00:	fec42783          	lw	a5,-20(s0)
    3b04:	07d1                	addi	a5,a5,20
    3b06:	fef42623          	sw	a5,-20(s0)
D:/projects/mechanical_arm/Firmware/ArmMainControler/libraries/sdk/Peripheral/ch32v30x_usart.c:283
  }
	
  if (NewState != DISABLE)
    3b0a:	fd442783          	lw	a5,-44(s0)
    3b0e:	cb99                	beqz	a5,3b24 <USART_ITConfig+0xa6>
D:/projects/mechanical_arm/Firmware/ArmMainControler/libraries/sdk/Peripheral/ch32v30x_usart.c:285
  {
    *(__IO uint32_t*)usartxbase  |= itmask;
    3b10:	fec42783          	lw	a5,-20(s0)
    3b14:	4394                	lw	a3,0(a5)
    3b16:	fec42783          	lw	a5,-20(s0)
    3b1a:	fe042703          	lw	a4,-32(s0)
    3b1e:	8f55                	or	a4,a4,a3
    3b20:	c398                	sw	a4,0(a5)
D:/projects/mechanical_arm/Firmware/ArmMainControler/libraries/sdk/Peripheral/ch32v30x_usart.c:291
  }
  else
  {
    *(__IO uint32_t*)usartxbase &= ~itmask;
  }
}
    3b22:	a821                	j	3b3a <USART_ITConfig+0xbc>
D:/projects/mechanical_arm/Firmware/ArmMainControler/libraries/sdk/Peripheral/ch32v30x_usart.c:289
    *(__IO uint32_t*)usartxbase &= ~itmask;
    3b24:	fec42783          	lw	a5,-20(s0)
    3b28:	4394                	lw	a3,0(a5)
    3b2a:	fe042783          	lw	a5,-32(s0)
    3b2e:	fff7c713          	not	a4,a5
    3b32:	fec42783          	lw	a5,-20(s0)
    3b36:	8f75                	and	a4,a4,a3
    3b38:	c398                	sw	a4,0(a5)
D:/projects/mechanical_arm/Firmware/ArmMainControler/libraries/sdk/Peripheral/ch32v30x_usart.c:291
}
    3b3a:	0001                	nop
    3b3c:	5432                	lw	s0,44(sp)
    3b3e:	6145                	addi	sp,sp,48
    3b40:	8082                	ret

00003b42 <USART_SendData>:
USART_SendData():
D:/projects/mechanical_arm/Firmware/ArmMainControler/libraries/sdk/Peripheral/ch32v30x_usart.c:404
* Input          : USARTx: where x can be 1, 2, 3 to select the USART peripheral.
*                  Data: the data to transmit..
* Return         : None
*******************************************************************************/
void USART_SendData(USART_TypeDef* USARTx, uint16_t Data)
{
    3b42:	1101                	addi	sp,sp,-32
    3b44:	ce22                	sw	s0,28(sp)
    3b46:	1000                	addi	s0,sp,32
    3b48:	fea42623          	sw	a0,-20(s0)
    3b4c:	87ae                	mv	a5,a1
    3b4e:	fef41523          	sh	a5,-22(s0)
D:/projects/mechanical_arm/Firmware/ArmMainControler/libraries/sdk/Peripheral/ch32v30x_usart.c:405
  USARTx->DATAR = (Data & (uint16_t)0x01FF);
    3b52:	fea45783          	lhu	a5,-22(s0)
    3b56:	1ff7f793          	andi	a5,a5,511
    3b5a:	01079713          	slli	a4,a5,0x10
    3b5e:	8341                	srli	a4,a4,0x10
    3b60:	fec42783          	lw	a5,-20(s0)
    3b64:	00e79223          	sh	a4,4(a5)
D:/projects/mechanical_arm/Firmware/ArmMainControler/libraries/sdk/Peripheral/ch32v30x_usart.c:406
}
    3b68:	0001                	nop
    3b6a:	4472                	lw	s0,28(sp)
    3b6c:	6105                	addi	sp,sp,32
    3b6e:	8082                	ret

00003b70 <USART_GetFlagStatus>:
USART_GetFlagStatus():
D:/projects/mechanical_arm/Firmware/ArmMainControler/libraries/sdk/Peripheral/ch32v30x_usart.c:603
*                    USART_FLAG_FE: Framing Error flag.
*                    USART_FLAG_PE: Parity Error flag.
* Return         : bitstatus: SET or RESET.
*******************************************************************************/
FlagStatus USART_GetFlagStatus(USART_TypeDef* USARTx, uint16_t USART_FLAG)
{
    3b70:	7179                	addi	sp,sp,-48
    3b72:	d622                	sw	s0,44(sp)
    3b74:	1800                	addi	s0,sp,48
    3b76:	fca42e23          	sw	a0,-36(s0)
    3b7a:	87ae                	mv	a5,a1
    3b7c:	fcf41d23          	sh	a5,-38(s0)
D:/projects/mechanical_arm/Firmware/ArmMainControler/libraries/sdk/Peripheral/ch32v30x_usart.c:604
  FlagStatus bitstatus = RESET;
    3b80:	fe042623          	sw	zero,-20(s0)
D:/projects/mechanical_arm/Firmware/ArmMainControler/libraries/sdk/Peripheral/ch32v30x_usart.c:610

  if (USART_FLAG == USART_FLAG_CTS)
  {
  }  
  
  if ((USARTx->STATR & USART_FLAG) != (uint16_t)RESET)
    3b84:	fdc42783          	lw	a5,-36(s0)
    3b88:	0007d783          	lhu	a5,0(a5)
    3b8c:	01079713          	slli	a4,a5,0x10
    3b90:	8341                	srli	a4,a4,0x10
    3b92:	fda45783          	lhu	a5,-38(s0)
    3b96:	8ff9                	and	a5,a5,a4
    3b98:	07c2                	slli	a5,a5,0x10
    3b9a:	83c1                	srli	a5,a5,0x10
    3b9c:	c789                	beqz	a5,3ba6 <USART_GetFlagStatus+0x36>
D:/projects/mechanical_arm/Firmware/ArmMainControler/libraries/sdk/Peripheral/ch32v30x_usart.c:612
  {
    bitstatus = SET;
    3b9e:	4785                	li	a5,1
    3ba0:	fef42623          	sw	a5,-20(s0)
    3ba4:	a019                	j	3baa <USART_GetFlagStatus+0x3a>
D:/projects/mechanical_arm/Firmware/ArmMainControler/libraries/sdk/Peripheral/ch32v30x_usart.c:616
  }
  else
  {
    bitstatus = RESET;
    3ba6:	fe042623          	sw	zero,-20(s0)
D:/projects/mechanical_arm/Firmware/ArmMainControler/libraries/sdk/Peripheral/ch32v30x_usart.c:618
  }
  return bitstatus;
    3baa:	fec42783          	lw	a5,-20(s0)
D:/projects/mechanical_arm/Firmware/ArmMainControler/libraries/sdk/Peripheral/ch32v30x_usart.c:619
}
    3bae:	853e                	mv	a0,a5
    3bb0:	5432                	lw	s0,44(sp)
    3bb2:	6145                	addi	sp,sp,48
    3bb4:	8082                	ret

00003bb6 <USART_GetITStatus>:
USART_GetITStatus():
D:/projects/mechanical_arm/Firmware/ArmMainControler/libraries/sdk/Peripheral/ch32v30x_usart.c:660
*                    USART_IT_FE: Framing Error interrupt.
*                    USART_IT_PE: Parity Error interrupt.
* Return         : bitstatus: SET or RESET.
*******************************************************************************/
ITStatus USART_GetITStatus(USART_TypeDef* USARTx, uint16_t USART_IT)
{
    3bb6:	7179                	addi	sp,sp,-48
    3bb8:	d622                	sw	s0,44(sp)
    3bba:	1800                	addi	s0,sp,48
    3bbc:	fca42e23          	sw	a0,-36(s0)
    3bc0:	87ae                	mv	a5,a1
    3bc2:	fcf41d23          	sh	a5,-38(s0)
D:/projects/mechanical_arm/Firmware/ArmMainControler/libraries/sdk/Peripheral/ch32v30x_usart.c:661
  uint32_t bitpos = 0x00, itmask = 0x00, usartreg = 0x00;
    3bc6:	fe042223          	sw	zero,-28(s0)
    3bca:	fe042623          	sw	zero,-20(s0)
    3bce:	fe042023          	sw	zero,-32(s0)
D:/projects/mechanical_arm/Firmware/ArmMainControler/libraries/sdk/Peripheral/ch32v30x_usart.c:662
  ITStatus bitstatus = RESET;
    3bd2:	fe042423          	sw	zero,-24(s0)
D:/projects/mechanical_arm/Firmware/ArmMainControler/libraries/sdk/Peripheral/ch32v30x_usart.c:668

  if (USART_IT == USART_IT_CTS)
  {
  }   
  
  usartreg = (((uint8_t)USART_IT) >> 0x05);
    3bd6:	fda45783          	lhu	a5,-38(s0)
    3bda:	0ff7f793          	andi	a5,a5,255
    3bde:	8395                	srli	a5,a5,0x5
    3be0:	0ff7f793          	andi	a5,a5,255
    3be4:	fef42023          	sw	a5,-32(s0)
D:/projects/mechanical_arm/Firmware/ArmMainControler/libraries/sdk/Peripheral/ch32v30x_usart.c:669
  itmask = USART_IT & IT_Mask;
    3be8:	fda45783          	lhu	a5,-38(s0)
    3bec:	8bfd                	andi	a5,a5,31
    3bee:	fef42623          	sw	a5,-20(s0)
D:/projects/mechanical_arm/Firmware/ArmMainControler/libraries/sdk/Peripheral/ch32v30x_usart.c:670
  itmask = (uint32_t)0x01 << itmask;
    3bf2:	fec42783          	lw	a5,-20(s0)
    3bf6:	4705                	li	a4,1
    3bf8:	00f717b3          	sll	a5,a4,a5
    3bfc:	fef42623          	sw	a5,-20(s0)
D:/projects/mechanical_arm/Firmware/ArmMainControler/libraries/sdk/Peripheral/ch32v30x_usart.c:672
  
  if (usartreg == 0x01) 
    3c00:	fe042703          	lw	a4,-32(s0)
    3c04:	4785                	li	a5,1
    3c06:	00f71f63          	bne	a4,a5,3c24 <USART_GetITStatus+0x6e>
D:/projects/mechanical_arm/Firmware/ArmMainControler/libraries/sdk/Peripheral/ch32v30x_usart.c:674
  {
    itmask &= USARTx->CTLR1;
    3c0a:	fdc42783          	lw	a5,-36(s0)
    3c0e:	00c7d783          	lhu	a5,12(a5)
    3c12:	07c2                	slli	a5,a5,0x10
    3c14:	83c1                	srli	a5,a5,0x10
    3c16:	873e                	mv	a4,a5
    3c18:	fec42783          	lw	a5,-20(s0)
    3c1c:	8ff9                	and	a5,a5,a4
    3c1e:	fef42623          	sw	a5,-20(s0)
    3c22:	a83d                	j	3c60 <USART_GetITStatus+0xaa>
D:/projects/mechanical_arm/Firmware/ArmMainControler/libraries/sdk/Peripheral/ch32v30x_usart.c:676
  }
  else if (usartreg == 0x02) 
    3c24:	fe042703          	lw	a4,-32(s0)
    3c28:	4789                	li	a5,2
    3c2a:	00f71f63          	bne	a4,a5,3c48 <USART_GetITStatus+0x92>
D:/projects/mechanical_arm/Firmware/ArmMainControler/libraries/sdk/Peripheral/ch32v30x_usart.c:678
  {
    itmask &= USARTx->CTLR2;
    3c2e:	fdc42783          	lw	a5,-36(s0)
    3c32:	0107d783          	lhu	a5,16(a5)
    3c36:	07c2                	slli	a5,a5,0x10
    3c38:	83c1                	srli	a5,a5,0x10
    3c3a:	873e                	mv	a4,a5
    3c3c:	fec42783          	lw	a5,-20(s0)
    3c40:	8ff9                	and	a5,a5,a4
    3c42:	fef42623          	sw	a5,-20(s0)
    3c46:	a829                	j	3c60 <USART_GetITStatus+0xaa>
D:/projects/mechanical_arm/Firmware/ArmMainControler/libraries/sdk/Peripheral/ch32v30x_usart.c:682
  }
  else 
  {
    itmask &= USARTx->CTLR3;
    3c48:	fdc42783          	lw	a5,-36(s0)
    3c4c:	0147d783          	lhu	a5,20(a5)
    3c50:	07c2                	slli	a5,a5,0x10
    3c52:	83c1                	srli	a5,a5,0x10
    3c54:	873e                	mv	a4,a5
    3c56:	fec42783          	lw	a5,-20(s0)
    3c5a:	8ff9                	and	a5,a5,a4
    3c5c:	fef42623          	sw	a5,-20(s0)
D:/projects/mechanical_arm/Firmware/ArmMainControler/libraries/sdk/Peripheral/ch32v30x_usart.c:685
  }
  
  bitpos = USART_IT >> 0x08;
    3c60:	fda45783          	lhu	a5,-38(s0)
    3c64:	83a1                	srli	a5,a5,0x8
    3c66:	07c2                	slli	a5,a5,0x10
    3c68:	83c1                	srli	a5,a5,0x10
    3c6a:	fef42223          	sw	a5,-28(s0)
D:/projects/mechanical_arm/Firmware/ArmMainControler/libraries/sdk/Peripheral/ch32v30x_usart.c:686
  bitpos = (uint32_t)0x01 << bitpos;
    3c6e:	fe442783          	lw	a5,-28(s0)
    3c72:	4705                	li	a4,1
    3c74:	00f717b3          	sll	a5,a4,a5
    3c78:	fef42223          	sw	a5,-28(s0)
D:/projects/mechanical_arm/Firmware/ArmMainControler/libraries/sdk/Peripheral/ch32v30x_usart.c:687
  bitpos &= USARTx->STATR;
    3c7c:	fdc42783          	lw	a5,-36(s0)
    3c80:	0007d783          	lhu	a5,0(a5)
    3c84:	07c2                	slli	a5,a5,0x10
    3c86:	83c1                	srli	a5,a5,0x10
    3c88:	873e                	mv	a4,a5
    3c8a:	fe442783          	lw	a5,-28(s0)
    3c8e:	8ff9                	and	a5,a5,a4
    3c90:	fef42223          	sw	a5,-28(s0)
D:/projects/mechanical_arm/Firmware/ArmMainControler/libraries/sdk/Peripheral/ch32v30x_usart.c:689
	
  if ((itmask != (uint16_t)RESET)&&(bitpos != (uint16_t)RESET))
    3c94:	fec42783          	lw	a5,-20(s0)
    3c98:	cb81                	beqz	a5,3ca8 <USART_GetITStatus+0xf2>
D:/projects/mechanical_arm/Firmware/ArmMainControler/libraries/sdk/Peripheral/ch32v30x_usart.c:689 (discriminator 1)
    3c9a:	fe442783          	lw	a5,-28(s0)
    3c9e:	c789                	beqz	a5,3ca8 <USART_GetITStatus+0xf2>
D:/projects/mechanical_arm/Firmware/ArmMainControler/libraries/sdk/Peripheral/ch32v30x_usart.c:691
  {
    bitstatus = SET;
    3ca0:	4785                	li	a5,1
    3ca2:	fef42423          	sw	a5,-24(s0)
    3ca6:	a019                	j	3cac <USART_GetITStatus+0xf6>
D:/projects/mechanical_arm/Firmware/ArmMainControler/libraries/sdk/Peripheral/ch32v30x_usart.c:695
  }
  else
  {
    bitstatus = RESET;
    3ca8:	fe042423          	sw	zero,-24(s0)
D:/projects/mechanical_arm/Firmware/ArmMainControler/libraries/sdk/Peripheral/ch32v30x_usart.c:698
  }
  
  return bitstatus;  
    3cac:	fe842783          	lw	a5,-24(s0)
D:/projects/mechanical_arm/Firmware/ArmMainControler/libraries/sdk/Peripheral/ch32v30x_usart.c:699
}
    3cb0:	853e                	mv	a0,a5
    3cb2:	5432                	lw	s0,44(sp)
    3cb4:	6145                	addi	sp,sp,48
    3cb6:	8082                	ret

00003cb8 <USART_ClearITPendingBit>:
USART_ClearITPendingBit():
D:/projects/mechanical_arm/Firmware/ArmMainControler/libraries/sdk/Peripheral/ch32v30x_usart.c:713
*                    USART_IT_TC:   Transmission complete interrupt.
*                    USART_IT_RXNE: Receive Data register not empty interrupt.
* Return         : None
*******************************************************************************/
void USART_ClearITPendingBit(USART_TypeDef* USARTx, uint16_t USART_IT)
{
    3cb8:	7179                	addi	sp,sp,-48
    3cba:	d622                	sw	s0,44(sp)
    3cbc:	1800                	addi	s0,sp,48
    3cbe:	fca42e23          	sw	a0,-36(s0)
    3cc2:	87ae                	mv	a5,a1
    3cc4:	fcf41d23          	sh	a5,-38(s0)
D:/projects/mechanical_arm/Firmware/ArmMainControler/libraries/sdk/Peripheral/ch32v30x_usart.c:714
  uint16_t bitpos = 0x00, itmask = 0x00;
    3cc8:	fe041723          	sh	zero,-18(s0)
    3ccc:	fe041623          	sh	zero,-20(s0)
D:/projects/mechanical_arm/Firmware/ArmMainControler/libraries/sdk/Peripheral/ch32v30x_usart.c:720

  if (USART_IT == USART_IT_CTS)
  {
  }   
  
  bitpos = USART_IT >> 0x08;
    3cd0:	fda45783          	lhu	a5,-38(s0)
    3cd4:	83a1                	srli	a5,a5,0x8
    3cd6:	fef41723          	sh	a5,-18(s0)
D:/projects/mechanical_arm/Firmware/ArmMainControler/libraries/sdk/Peripheral/ch32v30x_usart.c:721
  itmask = ((uint16_t)0x01 << (uint16_t)bitpos);
    3cda:	fee45783          	lhu	a5,-18(s0)
    3cde:	4705                	li	a4,1
    3ce0:	00f717b3          	sll	a5,a4,a5
    3ce4:	fef41623          	sh	a5,-20(s0)
D:/projects/mechanical_arm/Firmware/ArmMainControler/libraries/sdk/Peripheral/ch32v30x_usart.c:722
  USARTx->STATR = (uint16_t)~itmask;
    3ce8:	fec45783          	lhu	a5,-20(s0)
    3cec:	fff7c793          	not	a5,a5
    3cf0:	01079713          	slli	a4,a5,0x10
    3cf4:	8341                	srli	a4,a4,0x10
    3cf6:	fdc42783          	lw	a5,-36(s0)
    3cfa:	00e79023          	sh	a4,0(a5)
D:/projects/mechanical_arm/Firmware/ArmMainControler/libraries/sdk/Peripheral/ch32v30x_usart.c:723
}
    3cfe:	0001                	nop
    3d00:	5432                	lw	s0,44(sp)
    3d02:	6145                	addi	sp,sp,48
    3d04:	8082                	ret

00003d06 <DevEP1_IN_Deal>:
DevEP1_IN_Deal():
D:/projects/mechanical_arm/Firmware/ArmMainControler/libraries/sdk/Peripheral/ch32v30x_usbotg_device.c:329
* Description    : Device endpoint1 IN.
* Input          : l: IN length(<64B)
* Return         : None
*******************************************************************************/
void DevEP1_IN_Deal( UINT8 l )
{
    3d06:	1101                	addi	sp,sp,-32
    3d08:	ce22                	sw	s0,28(sp)
    3d0a:	1000                	addi	s0,sp,32
    3d0c:	87aa                	mv	a5,a0
    3d0e:	fef407a3          	sb	a5,-17(s0)
D:/projects/mechanical_arm/Firmware/ArmMainControler/libraries/sdk/Peripheral/ch32v30x_usbotg_device.c:330
    USBOTG_FS->UEP1_TX_LEN = l;
    3d12:	500007b7          	lui	a5,0x50000
    3d16:	fef44703          	lbu	a4,-17(s0)
    3d1a:	0742                	slli	a4,a4,0x10
    3d1c:	8341                	srli	a4,a4,0x10
    3d1e:	02e79a23          	sh	a4,52(a5) # 50000034 <_eusrstack+0x2fff0034>
D:/projects/mechanical_arm/Firmware/ArmMainControler/libraries/sdk/Peripheral/ch32v30x_usbotg_device.c:331
    USBOTG_FS->UEP1_TX_CTRL = (USBOTG_FS->UEP1_TX_CTRL & ~USBHD_UEP_T_RES_MASK)| USBHD_UEP_T_RES_ACK;
    3d22:	500007b7          	lui	a5,0x50000
    3d26:	0367c783          	lbu	a5,54(a5) # 50000036 <_eusrstack+0x2fff0036>
    3d2a:	0ff7f713          	andi	a4,a5,255
    3d2e:	500007b7          	lui	a5,0x50000
    3d32:	9b71                	andi	a4,a4,-4
    3d34:	0ff77713          	andi	a4,a4,255
    3d38:	02e78b23          	sb	a4,54(a5) # 50000036 <_eusrstack+0x2fff0036>
D:/projects/mechanical_arm/Firmware/ArmMainControler/libraries/sdk/Peripheral/ch32v30x_usbotg_device.c:332
}
    3d3c:	0001                	nop
    3d3e:	4472                	lw	s0,28(sp)
    3d40:	6105                	addi	sp,sp,32
    3d42:	8082                	ret

00003d44 <DevEP2_IN_Deal>:
DevEP2_IN_Deal():
D:/projects/mechanical_arm/Firmware/ArmMainControler/libraries/sdk/Peripheral/ch32v30x_usbotg_device.c:341
* Description    : Device endpoint2 IN.
* Input          : l: IN length(<64B)
* Return         : None
*******************************************************************************/
void DevEP2_IN_Deal( UINT8 l )
{
    3d44:	1101                	addi	sp,sp,-32
    3d46:	ce22                	sw	s0,28(sp)
    3d48:	1000                	addi	s0,sp,32
    3d4a:	87aa                	mv	a5,a0
    3d4c:	fef407a3          	sb	a5,-17(s0)
D:/projects/mechanical_arm/Firmware/ArmMainControler/libraries/sdk/Peripheral/ch32v30x_usbotg_device.c:342
    USBOTG_FS->UEP2_TX_LEN = l;
    3d50:	500007b7          	lui	a5,0x50000
    3d54:	fef44703          	lbu	a4,-17(s0)
    3d58:	0742                	slli	a4,a4,0x10
    3d5a:	8341                	srli	a4,a4,0x10
    3d5c:	02e79c23          	sh	a4,56(a5) # 50000038 <_eusrstack+0x2fff0038>
D:/projects/mechanical_arm/Firmware/ArmMainControler/libraries/sdk/Peripheral/ch32v30x_usbotg_device.c:343
    USBOTG_FS->UEP2_TX_CTRL = (USBOTG_FS->UEP2_TX_CTRL & ~USBHD_UEP_T_RES_MASK)| USBHD_UEP_T_RES_ACK;
    3d60:	500007b7          	lui	a5,0x50000
    3d64:	03a7c783          	lbu	a5,58(a5) # 5000003a <_eusrstack+0x2fff003a>
    3d68:	0ff7f713          	andi	a4,a5,255
    3d6c:	500007b7          	lui	a5,0x50000
    3d70:	9b71                	andi	a4,a4,-4
    3d72:	0ff77713          	andi	a4,a4,255
    3d76:	02e78d23          	sb	a4,58(a5) # 5000003a <_eusrstack+0x2fff003a>
D:/projects/mechanical_arm/Firmware/ArmMainControler/libraries/sdk/Peripheral/ch32v30x_usbotg_device.c:344
}
    3d7a:	0001                	nop
    3d7c:	4472                	lw	s0,28(sp)
    3d7e:	6105                	addi	sp,sp,32
    3d80:	8082                	ret

00003d82 <DevEP1_OUT_Deal>:
DevEP1_OUT_Deal():
D:/projects/mechanical_arm/Firmware/ArmMainControler/libraries/sdk/Peripheral/ch32v30x_usbotg_device.c:353
* Description    : Deal device Endpoint 1 OUT.
* Input          : l: Data length.
* Return         : None
*******************************************************************************/
void DevEP1_OUT_Deal( UINT8 l )
{
    3d82:	7179                	addi	sp,sp,-48
    3d84:	d606                	sw	ra,44(sp)
    3d86:	d422                	sw	s0,40(sp)
    3d88:	1800                	addi	s0,sp,48
    3d8a:	87aa                	mv	a5,a0
    3d8c:	fcf40fa3          	sb	a5,-33(s0)
D:/projects/mechanical_arm/Firmware/ArmMainControler/libraries/sdk/Peripheral/ch32v30x_usbotg_device.c:356
    UINT8 i;

    for(i=0; i<l; i++)
    3d90:	fe0407a3          	sb	zero,-17(s0)
    3d94:	a815                	j	3dc8 <DevEP1_OUT_Deal+0x46>
D:/projects/mechanical_arm/Firmware/ArmMainControler/libraries/sdk/Peripheral/ch32v30x_usbotg_device.c:358 (discriminator 3)
    {
        pEP1_IN_DataBuf[i] = ~pEP1_OUT_DataBuf[i];
    3d96:	8701a703          	lw	a4,-1936(gp) # 20000290 <pEP1_RAM_Addr>
    3d9a:	fef44783          	lbu	a5,-17(s0)
    3d9e:	97ba                	add	a5,a5,a4
    3da0:	0007c703          	lbu	a4,0(a5)
    3da4:	8701a683          	lw	a3,-1936(gp) # 20000290 <pEP1_RAM_Addr>
    3da8:	fef44783          	lbu	a5,-17(s0)
    3dac:	04078793          	addi	a5,a5,64
    3db0:	97b6                	add	a5,a5,a3
    3db2:	fff74713          	not	a4,a4
    3db6:	0ff77713          	andi	a4,a4,255
    3dba:	00e78023          	sb	a4,0(a5)
D:/projects/mechanical_arm/Firmware/ArmMainControler/libraries/sdk/Peripheral/ch32v30x_usbotg_device.c:356 (discriminator 3)
    for(i=0; i<l; i++)
    3dbe:	fef44783          	lbu	a5,-17(s0)
    3dc2:	0785                	addi	a5,a5,1
    3dc4:	fef407a3          	sb	a5,-17(s0)
D:/projects/mechanical_arm/Firmware/ArmMainControler/libraries/sdk/Peripheral/ch32v30x_usbotg_device.c:356 (discriminator 1)
    3dc8:	fef44703          	lbu	a4,-17(s0)
    3dcc:	fdf44783          	lbu	a5,-33(s0)
    3dd0:	fcf763e3          	bltu	a4,a5,3d96 <DevEP1_OUT_Deal+0x14>
D:/projects/mechanical_arm/Firmware/ArmMainControler/libraries/sdk/Peripheral/ch32v30x_usbotg_device.c:361
    }

    DevEP1_IN_Deal( l );
    3dd4:	fdf44783          	lbu	a5,-33(s0)
    3dd8:	853e                	mv	a0,a5
    3dda:	f2dff0ef          	jal	ra,3d06 <DevEP1_IN_Deal>
D:/projects/mechanical_arm/Firmware/ArmMainControler/libraries/sdk/Peripheral/ch32v30x_usbotg_device.c:362
}
    3dde:	0001                	nop
    3de0:	50b2                	lw	ra,44(sp)
    3de2:	5422                	lw	s0,40(sp)
    3de4:	6145                	addi	sp,sp,48
    3de6:	8082                	ret

00003de8 <DevEP2_OUT_Deal>:
DevEP2_OUT_Deal():
D:/projects/mechanical_arm/Firmware/ArmMainControler/libraries/sdk/Peripheral/ch32v30x_usbotg_device.c:371
* Description    : Deal device Endpoint 2 OUT.
* Input          : l: Data length.
* Return         : None
*******************************************************************************/
void DevEP2_OUT_Deal( UINT8 l )
{
    3de8:	7179                	addi	sp,sp,-48
    3dea:	d606                	sw	ra,44(sp)
    3dec:	d422                	sw	s0,40(sp)
    3dee:	1800                	addi	s0,sp,48
    3df0:	87aa                	mv	a5,a0
    3df2:	fcf40fa3          	sb	a5,-33(s0)
D:/projects/mechanical_arm/Firmware/ArmMainControler/libraries/sdk/Peripheral/ch32v30x_usbotg_device.c:374
    UINT8 i;

    for(i=0; i<l; i++)
    3df6:	fe0407a3          	sb	zero,-17(s0)
    3dfa:	a815                	j	3e2e <DevEP2_OUT_Deal+0x46>
D:/projects/mechanical_arm/Firmware/ArmMainControler/libraries/sdk/Peripheral/ch32v30x_usbotg_device.c:376 (discriminator 3)
    {
        pEP2_IN_DataBuf[i] = ~pEP2_OUT_DataBuf[i];
    3dfc:	8741a703          	lw	a4,-1932(gp) # 20000294 <pEP2_RAM_Addr>
    3e00:	fef44783          	lbu	a5,-17(s0)
    3e04:	97ba                	add	a5,a5,a4
    3e06:	0007c703          	lbu	a4,0(a5)
    3e0a:	8741a683          	lw	a3,-1932(gp) # 20000294 <pEP2_RAM_Addr>
    3e0e:	fef44783          	lbu	a5,-17(s0)
    3e12:	04078793          	addi	a5,a5,64
    3e16:	97b6                	add	a5,a5,a3
    3e18:	fff74713          	not	a4,a4
    3e1c:	0ff77713          	andi	a4,a4,255
    3e20:	00e78023          	sb	a4,0(a5)
D:/projects/mechanical_arm/Firmware/ArmMainControler/libraries/sdk/Peripheral/ch32v30x_usbotg_device.c:374 (discriminator 3)
    for(i=0; i<l; i++)
    3e24:	fef44783          	lbu	a5,-17(s0)
    3e28:	0785                	addi	a5,a5,1
    3e2a:	fef407a3          	sb	a5,-17(s0)
D:/projects/mechanical_arm/Firmware/ArmMainControler/libraries/sdk/Peripheral/ch32v30x_usbotg_device.c:374 (discriminator 1)
    3e2e:	fef44703          	lbu	a4,-17(s0)
    3e32:	fdf44783          	lbu	a5,-33(s0)
    3e36:	fcf763e3          	bltu	a4,a5,3dfc <DevEP2_OUT_Deal+0x14>
D:/projects/mechanical_arm/Firmware/ArmMainControler/libraries/sdk/Peripheral/ch32v30x_usbotg_device.c:379
    }

    DevEP2_IN_Deal( l );
    3e3a:	fdf44783          	lbu	a5,-33(s0)
    3e3e:	853e                	mv	a0,a5
    3e40:	f05ff0ef          	jal	ra,3d44 <DevEP2_IN_Deal>
D:/projects/mechanical_arm/Firmware/ArmMainControler/libraries/sdk/Peripheral/ch32v30x_usbotg_device.c:380
}
    3e44:	0001                	nop
    3e46:	50b2                	lw	ra,44(sp)
    3e48:	5422                	lw	s0,40(sp)
    3e4a:	6145                	addi	sp,sp,48
    3e4c:	8082                	ret

00003e4e <OTG_FS_IRQHandler>:
OTG_FS_IRQHandler():
D:/projects/mechanical_arm/Firmware/ArmMainControler/libraries/sdk/Peripheral/ch32v30x_usbotg_device.c:389
* Description    : OTG_FS_IRQHandler OTG设备中断处理函数
* Input          : None
* Return         : None
*******************************************************************************/
void OTG_FS_IRQHandler( void )
{
    3e4e:	1101                	addi	sp,sp,-32
    3e50:	ce22                	sw	s0,28(sp)
    3e52:	1000                	addi	s0,sp,32
D:/projects/mechanical_arm/Firmware/ArmMainControler/libraries/sdk/Peripheral/ch32v30x_usbotg_device.c:391
    UINT8  len, chtype;
    UINT8  intflag, errflag = 0;
    3e54:	fe040723          	sb	zero,-18(s0)
D:/projects/mechanical_arm/Firmware/ArmMainControler/libraries/sdk/Peripheral/ch32v30x_usbotg_device.c:393

    intflag = USBOTG_FS->INT_FG;
    3e58:	500007b7          	lui	a5,0x50000
    3e5c:	0067c783          	lbu	a5,6(a5) # 50000006 <_eusrstack+0x2fff0006>
    3e60:	fef406a3          	sb	a5,-19(s0)
D:/projects/mechanical_arm/Firmware/ArmMainControler/libraries/sdk/Peripheral/ch32v30x_usbotg_device.c:395

    if( intflag & USBHD_UIF_TRANSFER )
    3e64:	fed44783          	lbu	a5,-19(s0)
    3e68:	8b89                	andi	a5,a5,2
    3e6a:	3c0781e3          	beqz	a5,4a2c <OTG_FS_IRQHandler+0xbde>
D:/projects/mechanical_arm/Firmware/ArmMainControler/libraries/sdk/Peripheral/ch32v30x_usbotg_device.c:397
    {
        switch ( USBOTG_FS->INT_ST & USBHD_UIS_TOKEN_MASK )
    3e6e:	500007b7          	lui	a5,0x50000
    3e72:	0077c783          	lbu	a5,7(a5) # 50000007 <_eusrstack+0x2fff0007>
    3e76:	0ff7f793          	andi	a5,a5,255
    3e7a:	0307f793          	andi	a5,a5,48
    3e7e:	4741                	li	a4,16
    3e80:	38e78be3          	beq	a5,a4,4a16 <OTG_FS_IRQHandler+0xbc8>
    3e84:	4741                	li	a4,16
    3e86:	00f74663          	blt	a4,a5,3e92 <OTG_FS_IRQHandler+0x44>
    3e8a:	20078ee3          	beqz	a5,48a6 <OTG_FS_IRQHandler+0xa58>
D:/projects/mechanical_arm/Firmware/ArmMainControler/libraries/sdk/Peripheral/ch32v30x_usbotg_device.c:878
            case USBHD_UIS_TOKEN_SOF:

                break;

            default :
                break;
    3e8e:	38d0006f          	j	4a1a <OTG_FS_IRQHandler+0xbcc>
    3e92:	02000713          	li	a4,32
    3e96:	04e786e3          	beq	a5,a4,46e2 <OTG_FS_IRQHandler+0x894>
    3e9a:	03000713          	li	a4,48
    3e9e:	36e79ee3          	bne	a5,a4,4a1a <OTG_FS_IRQHandler+0xbcc>
D:/projects/mechanical_arm/Firmware/ArmMainControler/libraries/sdk/Peripheral/ch32v30x_usbotg_device.c:411
                USBOTG_FS->UEP0_TX_CTRL = USBHD_UEP_T_TOG|USBHD_UEP_T_RES_NAK;
    3ea2:	500007b7          	lui	a5,0x50000
    3ea6:	4719                	li	a4,6
    3ea8:	02e78923          	sb	a4,50(a5) # 50000032 <_eusrstack+0x2fff0032>
D:/projects/mechanical_arm/Firmware/ArmMainControler/libraries/sdk/Peripheral/ch32v30x_usbotg_device.c:412
                USBOTG_FS->UEP0_RX_CTRL = USBHD_UEP_R_TOG|USBHD_UEP_R_RES_ACK;
    3eac:	500007b7          	lui	a5,0x50000
    3eb0:	4711                	li	a4,4
    3eb2:	02e789a3          	sb	a4,51(a5) # 50000033 <_eusrstack+0x2fff0033>
D:/projects/mechanical_arm/Firmware/ArmMainControler/libraries/sdk/Peripheral/ch32v30x_usbotg_device.c:413
                SetupReqLen  = pSetupReqPakHD->wLength;
    3eb6:	86c1a783          	lw	a5,-1940(gp) # 2000028c <pEP0_RAM_Addr>
    3eba:	0067c703          	lbu	a4,6(a5)
    3ebe:	0077c783          	lbu	a5,7(a5)
    3ec2:	07a2                	slli	a5,a5,0x8
    3ec4:	8fd9                	or	a5,a5,a4
    3ec6:	01079713          	slli	a4,a5,0x10
    3eca:	8341                	srli	a4,a4,0x10
    3ecc:	88e19123          	sh	a4,-1918(gp) # 200002a2 <SetupReqLen>
D:/projects/mechanical_arm/Firmware/ArmMainControler/libraries/sdk/Peripheral/ch32v30x_usbotg_device.c:414
                SetupReqCode = pSetupReqPakHD->bRequest;
    3ed0:	86c1a783          	lw	a5,-1940(gp) # 2000028c <pEP0_RAM_Addr>
    3ed4:	0017c703          	lbu	a4,1(a5)
    3ed8:	88e18023          	sb	a4,-1920(gp) # 200002a0 <SetupReqCode>
D:/projects/mechanical_arm/Firmware/ArmMainControler/libraries/sdk/Peripheral/ch32v30x_usbotg_device.c:415
                chtype = pSetupReqPakHD->bRequestType;
    3edc:	86c1a783          	lw	a5,-1940(gp) # 2000028c <pEP0_RAM_Addr>
    3ee0:	0007c783          	lbu	a5,0(a5)
    3ee4:	fef40623          	sb	a5,-20(s0)
D:/projects/mechanical_arm/Firmware/ArmMainControler/libraries/sdk/Peripheral/ch32v30x_usbotg_device.c:416
                len = 0;
    3ee8:	fe0407a3          	sb	zero,-17(s0)
D:/projects/mechanical_arm/Firmware/ArmMainControler/libraries/sdk/Peripheral/ch32v30x_usbotg_device.c:417
                errflag = 0;
    3eec:	fe040723          	sb	zero,-18(s0)
D:/projects/mechanical_arm/Firmware/ArmMainControler/libraries/sdk/Peripheral/ch32v30x_usbotg_device.c:419
                if ( ( pSetupReqPakHD->bRequestType & USB_REQ_TYP_MASK ) != USB_REQ_TYP_STANDARD )  //非标准请求
    3ef0:	86c1a783          	lw	a5,-1940(gp) # 2000028c <pEP0_RAM_Addr>
    3ef4:	0007c783          	lbu	a5,0(a5)
    3ef8:	0607f793          	andi	a5,a5,96
    3efc:	12078b63          	beqz	a5,4032 <OTG_FS_IRQHandler+0x1e4>
D:/projects/mechanical_arm/Firmware/ArmMainControler/libraries/sdk/Peripheral/ch32v30x_usbotg_device.c:422
                    if(SetupReqCode & 0x20)
    3f00:	8801c783          	lbu	a5,-1920(gp) # 200002a0 <SetupReqCode>
    3f04:	0ff7f793          	andi	a5,a5,255
    3f08:	0207f793          	andi	a5,a5,32
    3f0c:	c3d5                	beqz	a5,3fb0 <OTG_FS_IRQHandler+0x162>
D:/projects/mechanical_arm/Firmware/ArmMainControler/libraries/sdk/Peripheral/ch32v30x_usbotg_device.c:424
                        switch( SetupReqCode )
    3f0e:	8801c783          	lbu	a5,-1920(gp) # 200002a0 <SetupReqCode>
    3f12:	0ff7f793          	andi	a5,a5,255
    3f16:	02100713          	li	a4,33
    3f1a:	00e78b63          	beq	a5,a4,3f30 <OTG_FS_IRQHandler+0xe2>
    3f1e:	02200713          	li	a4,34
    3f22:	08e78963          	beq	a5,a4,3fb4 <OTG_FS_IRQHandler+0x166>
    3f26:	02000713          	li	a4,32
    3f2a:	08e78763          	beq	a5,a4,3fb8 <OTG_FS_IRQHandler+0x16a>
    3f2e:	a8ad                	j	3fa8 <OTG_FS_IRQHandler+0x15a>
D:/projects/mechanical_arm/Firmware/ArmMainControler/libraries/sdk/Peripheral/ch32v30x_usbotg_device.c:427
                                pDescr = LineCoding;
    3f30:	81018713          	addi	a4,gp,-2032 # 20000230 <LineCoding>
    3f34:	86e1ac23          	sw	a4,-1928(gp) # 20000298 <pDescr>
D:/projects/mechanical_arm/Firmware/ArmMainControler/libraries/sdk/Peripheral/ch32v30x_usbotg_device.c:428
                                len = sizeof(LineCoding);
    3f38:	479d                	li	a5,7
    3f3a:	fef407a3          	sb	a5,-17(s0)
D:/projects/mechanical_arm/Firmware/ArmMainControler/libraries/sdk/Peripheral/ch32v30x_usbotg_device.c:429
                                len = SetupReqLen >= DEFAULT_ENDP0_SIZE ? DEFAULT_ENDP0_SIZE : SetupReqLen;  // 本次传输长度
    3f3e:	8821d783          	lhu	a5,-1918(gp) # 200002a2 <SetupReqLen>
    3f42:	01079713          	slli	a4,a5,0x10
    3f46:	8341                	srli	a4,a4,0x10
    3f48:	479d                	li	a5,7
    3f4a:	00e7e963          	bltu	a5,a4,3f5c <OTG_FS_IRQHandler+0x10e>
D:/projects/mechanical_arm/Firmware/ArmMainControler/libraries/sdk/Peripheral/ch32v30x_usbotg_device.c:429 (discriminator 1)
    3f4e:	8821d783          	lhu	a5,-1918(gp) # 200002a2 <SetupReqLen>
    3f52:	07c2                	slli	a5,a5,0x10
    3f54:	83c1                	srli	a5,a5,0x10
    3f56:	0ff7f793          	andi	a5,a5,255
    3f5a:	a011                	j	3f5e <OTG_FS_IRQHandler+0x110>
D:/projects/mechanical_arm/Firmware/ArmMainControler/libraries/sdk/Peripheral/ch32v30x_usbotg_device.c:429 (discriminator 2)
    3f5c:	47a1                	li	a5,8
D:/projects/mechanical_arm/Firmware/ArmMainControler/libraries/sdk/Peripheral/ch32v30x_usbotg_device.c:429 (discriminator 4)
    3f5e:	fef407a3          	sb	a5,-17(s0)
D:/projects/mechanical_arm/Firmware/ArmMainControler/libraries/sdk/Peripheral/ch32v30x_usbotg_device.c:430 (discriminator 4)
                                memcpy(pEP0_DataBuf,pDescr,len);
    3f62:	86c1a703          	lw	a4,-1940(gp) # 2000028c <pEP0_RAM_Addr>
    3f66:	8781a783          	lw	a5,-1928(gp) # 20000298 <pDescr>
    3f6a:	fef44683          	lbu	a3,-17(s0)
    3f6e:	8636                	mv	a2,a3
    3f70:	85be                	mv	a1,a5
    3f72:	853a                	mv	a0,a4
    3f74:	692020ef          	jal	ra,6606 <memcpy>
D:/projects/mechanical_arm/Firmware/ArmMainControler/libraries/sdk/Peripheral/ch32v30x_usbotg_device.c:431 (discriminator 4)
                                SetupReqLen -= len;
    3f78:	8821d783          	lhu	a5,-1918(gp) # 200002a2 <SetupReqLen>
    3f7c:	01079713          	slli	a4,a5,0x10
    3f80:	8341                	srli	a4,a4,0x10
    3f82:	fef44783          	lbu	a5,-17(s0)
    3f86:	07c2                	slli	a5,a5,0x10
    3f88:	83c1                	srli	a5,a5,0x10
    3f8a:	40f707b3          	sub	a5,a4,a5
    3f8e:	01079713          	slli	a4,a5,0x10
    3f92:	8341                	srli	a4,a4,0x10
    3f94:	88e19123          	sh	a4,-1918(gp) # 200002a2 <SetupReqLen>
D:/projects/mechanical_arm/Firmware/ArmMainControler/libraries/sdk/Peripheral/ch32v30x_usbotg_device.c:432 (discriminator 4)
                                pDescr += len;
    3f98:	8781a703          	lw	a4,-1928(gp) # 20000298 <pDescr>
    3f9c:	fef44783          	lbu	a5,-17(s0)
    3fa0:	973e                	add	a4,a4,a5
    3fa2:	86e1ac23          	sw	a4,-1928(gp) # 20000298 <pDescr>
D:/projects/mechanical_arm/Firmware/ArmMainControler/libraries/sdk/Peripheral/ch32v30x_usbotg_device.c:433 (discriminator 4)
                            break;
    3fa6:	a811                	j	3fba <OTG_FS_IRQHandler+0x16c>
D:/projects/mechanical_arm/Firmware/ArmMainControler/libraries/sdk/Peripheral/ch32v30x_usbotg_device.c:442
                                errflag = 0xFF;
    3fa8:	57fd                	li	a5,-1
    3faa:	fef40723          	sb	a5,-18(s0)
    3fae:	a031                	j	3fba <OTG_FS_IRQHandler+0x16c>
D:/projects/mechanical_arm/Firmware/ArmMainControler/libraries/sdk/Peripheral/ch32v30x_usbotg_device.c:444
                    }
    3fb0:	0001                	nop
    3fb2:	a021                	j	3fba <OTG_FS_IRQHandler+0x16c>
D:/projects/mechanical_arm/Firmware/ArmMainControler/libraries/sdk/Peripheral/ch32v30x_usbotg_device.c:436
                            break;
    3fb4:	0001                	nop
    3fb6:	a011                	j	3fba <OTG_FS_IRQHandler+0x16c>
D:/projects/mechanical_arm/Firmware/ArmMainControler/libraries/sdk/Peripheral/ch32v30x_usbotg_device.c:439
                            break;
    3fb8:	0001                	nop
D:/projects/mechanical_arm/Firmware/ArmMainControler/libraries/sdk/Peripheral/ch32v30x_usbotg_device.c:461
                    if( errflag != 0xFF )
    3fba:	fee44703          	lbu	a4,-18(s0)
    3fbe:	0ff00793          	li	a5,255
    3fc2:	68f70363          	beq	a4,a5,4648 <OTG_FS_IRQHandler+0x7fa>
D:/projects/mechanical_arm/Firmware/ArmMainControler/libraries/sdk/Peripheral/ch32v30x_usbotg_device.c:463
                        if( SetupReqLen > len )
    3fc6:	fef44783          	lbu	a5,-17(s0)
    3fca:	01079713          	slli	a4,a5,0x10
    3fce:	8341                	srli	a4,a4,0x10
    3fd0:	8821d783          	lhu	a5,-1918(gp) # 200002a2 <SetupReqLen>
    3fd4:	07c2                	slli	a5,a5,0x10
    3fd6:	83c1                	srli	a5,a5,0x10
    3fd8:	00f77963          	bgeu	a4,a5,3fea <OTG_FS_IRQHandler+0x19c>
D:/projects/mechanical_arm/Firmware/ArmMainControler/libraries/sdk/Peripheral/ch32v30x_usbotg_device.c:465
                            SetupReqLen = len;
    3fdc:	fef44783          	lbu	a5,-17(s0)
    3fe0:	01079713          	slli	a4,a5,0x10
    3fe4:	8341                	srli	a4,a4,0x10
    3fe6:	88e19123          	sh	a4,-1918(gp) # 200002a2 <SetupReqLen>
D:/projects/mechanical_arm/Firmware/ArmMainControler/libraries/sdk/Peripheral/ch32v30x_usbotg_device.c:467
                        len = ( USBHD_Dev_SetupReqLen >= DevEP0SIZE ) ? DevEP0SIZE : USBHD_Dev_SetupReqLen;
    3fea:	87c1d783          	lhu	a5,-1924(gp) # 2000029c <USBHD_Dev_SetupReqLen>
    3fee:	01079713          	slli	a4,a5,0x10
    3ff2:	8341                	srli	a4,a4,0x10
    3ff4:	479d                	li	a5,7
    3ff6:	00e7e963          	bltu	a5,a4,4008 <OTG_FS_IRQHandler+0x1ba>
D:/projects/mechanical_arm/Firmware/ArmMainControler/libraries/sdk/Peripheral/ch32v30x_usbotg_device.c:467 (discriminator 1)
    3ffa:	87c1d783          	lhu	a5,-1924(gp) # 2000029c <USBHD_Dev_SetupReqLen>
    3ffe:	07c2                	slli	a5,a5,0x10
    4000:	83c1                	srli	a5,a5,0x10
    4002:	0ff7f793          	andi	a5,a5,255
    4006:	a011                	j	400a <OTG_FS_IRQHandler+0x1bc>
D:/projects/mechanical_arm/Firmware/ArmMainControler/libraries/sdk/Peripheral/ch32v30x_usbotg_device.c:467 (discriminator 2)
    4008:	47a1                	li	a5,8
D:/projects/mechanical_arm/Firmware/ArmMainControler/libraries/sdk/Peripheral/ch32v30x_usbotg_device.c:467 (discriminator 4)
    400a:	fef407a3          	sb	a5,-17(s0)
D:/projects/mechanical_arm/Firmware/ArmMainControler/libraries/sdk/Peripheral/ch32v30x_usbotg_device.c:468 (discriminator 4)
                        memcpy( EP0_DatabufHD, pDescr, len );
    400e:	8781a783          	lw	a5,-1928(gp) # 20000298 <pDescr>
    4012:	fef44703          	lbu	a4,-17(s0)
    4016:	863a                	mv	a2,a4
    4018:	85be                	mv	a1,a5
    401a:	86418513          	addi	a0,gp,-1948 # 20000284 <EP0_DatabufHD>
    401e:	5e8020ef          	jal	ra,6606 <memcpy>
D:/projects/mechanical_arm/Firmware/ArmMainControler/libraries/sdk/Peripheral/ch32v30x_usbotg_device.c:469 (discriminator 4)
                        pDescr += len;
    4022:	8781a703          	lw	a4,-1928(gp) # 20000298 <pDescr>
    4026:	fef44783          	lbu	a5,-17(s0)
    402a:	973e                	add	a4,a4,a5
    402c:	86e1ac23          	sw	a4,-1928(gp) # 20000298 <pDescr>
    4030:	ad21                	j	4648 <OTG_FS_IRQHandler+0x7fa>
D:/projects/mechanical_arm/Firmware/ArmMainControler/libraries/sdk/Peripheral/ch32v30x_usbotg_device.c:475
                    switch( SetupReqCode )
    4032:	8801c783          	lbu	a5,-1920(gp) # 200002a0 <SetupReqCode>
    4036:	0ff7f793          	andi	a5,a5,255
    403a:	472d                	li	a4,11
    403c:	5ef76b63          	bltu	a4,a5,4632 <OTG_FS_IRQHandler+0x7e4>
    4040:	00279713          	slli	a4,a5,0x2
    4044:	67a9                	lui	a5,0xa
    4046:	f1c78793          	addi	a5,a5,-228 # 9f1c <MyUSBQUADescHD+0xc>
    404a:	97ba                	add	a5,a5,a4
    404c:	439c                	lw	a5,0(a5)
    404e:	8782                	jr	a5
D:/projects/mechanical_arm/Firmware/ArmMainControler/libraries/sdk/Peripheral/ch32v30x_usbotg_device.c:479 (discriminator 1)
                            switch( ((pSetupReqPakHD->wValue)>>8) )
    4050:	86c1a783          	lw	a5,-1940(gp) # 2000028c <pEP0_RAM_Addr>
    4054:	0027c703          	lbu	a4,2(a5)
    4058:	0037c783          	lbu	a5,3(a5)
    405c:	07a2                	slli	a5,a5,0x8
    405e:	8fd9                	or	a5,a5,a4
    4060:	07c2                	slli	a5,a5,0x10
    4062:	83c1                	srli	a5,a5,0x10
    4064:	83a1                	srli	a5,a5,0x8
    4066:	07c2                	slli	a5,a5,0x10
    4068:	83c1                	srli	a5,a5,0x10
    406a:	02200713          	li	a4,34
    406e:	12f76563          	bltu	a4,a5,4198 <OTG_FS_IRQHandler+0x34a>
    4072:	00279713          	slli	a4,a5,0x2
    4076:	67a9                	lui	a5,0xa
    4078:	f4c78793          	addi	a5,a5,-180 # 9f4c <MyUSBQUADescHD+0x3c>
    407c:	97ba                	add	a5,a5,a4
    407e:	439c                	lw	a5,0(a5)
    4080:	8782                	jr	a5
D:/projects/mechanical_arm/Firmware/ArmMainControler/libraries/sdk/Peripheral/ch32v30x_usbotg_device.c:483
                                    pDescr = MyDevDescrHD;
    4082:	6729                	lui	a4,0xa
    4084:	e7070713          	addi	a4,a4,-400 # 9e70 <MyDevDescrHD>
    4088:	86e1ac23          	sw	a4,-1928(gp) # 20000298 <pDescr>
D:/projects/mechanical_arm/Firmware/ArmMainControler/libraries/sdk/Peripheral/ch32v30x_usbotg_device.c:484
                                    len = MyDevDescrHD[0];
    408c:	47c9                	li	a5,18
    408e:	fef407a3          	sb	a5,-17(s0)
D:/projects/mechanical_arm/Firmware/ArmMainControler/libraries/sdk/Peripheral/ch32v30x_usbotg_device.c:485
                                    break;
    4092:	a239                	j	41a0 <OTG_FS_IRQHandler+0x352>
D:/projects/mechanical_arm/Firmware/ArmMainControler/libraries/sdk/Peripheral/ch32v30x_usbotg_device.c:489
                                    pDescr = MyCfgDescrHD;
    4094:	6729                	lui	a4,0xa
    4096:	e8470713          	addi	a4,a4,-380 # 9e84 <MyCfgDescrHD>
    409a:	86e1ac23          	sw	a4,-1928(gp) # 20000298 <pDescr>
D:/projects/mechanical_arm/Firmware/ArmMainControler/libraries/sdk/Peripheral/ch32v30x_usbotg_device.c:490
                                    len = MyCfgDescrHD[2];
    409e:	04300793          	li	a5,67
    40a2:	fef407a3          	sb	a5,-17(s0)
D:/projects/mechanical_arm/Firmware/ArmMainControler/libraries/sdk/Peripheral/ch32v30x_usbotg_device.c:491
                                    break;
    40a6:	a8ed                	j	41a0 <OTG_FS_IRQHandler+0x352>
D:/projects/mechanical_arm/Firmware/ArmMainControler/libraries/sdk/Peripheral/ch32v30x_usbotg_device.c:495 (discriminator 2)
                                    switch( (pSetupReqPakHD->wValue)&0xff )
    40a8:	86c1a783          	lw	a5,-1940(gp) # 2000028c <pEP0_RAM_Addr>
    40ac:	0027c703          	lbu	a4,2(a5)
    40b0:	0037c783          	lbu	a5,3(a5)
    40b4:	07a2                	slli	a5,a5,0x8
    40b6:	8fd9                	or	a5,a5,a4
    40b8:	07c2                	slli	a5,a5,0x10
    40ba:	83c1                	srli	a5,a5,0x10
    40bc:	0ff7f793          	andi	a5,a5,255
    40c0:	4705                	li	a4,1
    40c2:	02e78663          	beq	a5,a4,40ee <OTG_FS_IRQHandler+0x2a0>
    40c6:	4705                	li	a4,1
    40c8:	00f74463          	blt	a4,a5,40d0 <OTG_FS_IRQHandler+0x282>
    40cc:	cb89                	beqz	a5,40de <OTG_FS_IRQHandler+0x290>
    40ce:	a899                	j	4124 <OTG_FS_IRQHandler+0x2d6>
    40d0:	4709                	li	a4,2
    40d2:	02e78763          	beq	a5,a4,4100 <OTG_FS_IRQHandler+0x2b2>
    40d6:	470d                	li	a4,3
    40d8:	02e78d63          	beq	a5,a4,4112 <OTG_FS_IRQHandler+0x2c4>
    40dc:	a0a1                	j	4124 <OTG_FS_IRQHandler+0x2d6>
D:/projects/mechanical_arm/Firmware/ArmMainControler/libraries/sdk/Peripheral/ch32v30x_usbotg_device.c:499
                                        pDescr = MyLangDescrHD;
    40de:	82418713          	addi	a4,gp,-2012 # 20000244 <MyLangDescrHD>
    40e2:	86e1ac23          	sw	a4,-1928(gp) # 20000298 <pDescr>
D:/projects/mechanical_arm/Firmware/ArmMainControler/libraries/sdk/Peripheral/ch32v30x_usbotg_device.c:500
                                        len = MyLangDescrHD[0];
    40e6:	4791                	li	a5,4
    40e8:	fef407a3          	sb	a5,-17(s0)
D:/projects/mechanical_arm/Firmware/ArmMainControler/libraries/sdk/Peripheral/ch32v30x_usbotg_device.c:501
                                            break;
    40ec:	a081                	j	412c <OTG_FS_IRQHandler+0x2de>
D:/projects/mechanical_arm/Firmware/ArmMainControler/libraries/sdk/Peripheral/ch32v30x_usbotg_device.c:505
                                            pDescr = MyManuInfoHD;
    40ee:	6729                	lui	a4,0xa
    40f0:	edc70713          	addi	a4,a4,-292 # 9edc <MyManuInfoHD>
    40f4:	86e1ac23          	sw	a4,-1928(gp) # 20000298 <pDescr>
D:/projects/mechanical_arm/Firmware/ArmMainControler/libraries/sdk/Peripheral/ch32v30x_usbotg_device.c:506
                                            len = MyManuInfoHD[0];
    40f8:	47b9                	li	a5,14
    40fa:	fef407a3          	sb	a5,-17(s0)
D:/projects/mechanical_arm/Firmware/ArmMainControler/libraries/sdk/Peripheral/ch32v30x_usbotg_device.c:507
                                            break;
    40fe:	a03d                	j	412c <OTG_FS_IRQHandler+0x2de>
D:/projects/mechanical_arm/Firmware/ArmMainControler/libraries/sdk/Peripheral/ch32v30x_usbotg_device.c:511
                                            pDescr = MyProdInfoHD;
    4100:	6729                	lui	a4,0xa
    4102:	eec70713          	addi	a4,a4,-276 # 9eec <MyProdInfoHD>
    4106:	86e1ac23          	sw	a4,-1928(gp) # 20000298 <pDescr>
D:/projects/mechanical_arm/Firmware/ArmMainControler/libraries/sdk/Peripheral/ch32v30x_usbotg_device.c:512
                                            len = MyProdInfoHD[0];
    410a:	47b1                	li	a5,12
    410c:	fef407a3          	sb	a5,-17(s0)
D:/projects/mechanical_arm/Firmware/ArmMainControler/libraries/sdk/Peripheral/ch32v30x_usbotg_device.c:513
                                            break;
    4110:	a831                	j	412c <OTG_FS_IRQHandler+0x2de>
D:/projects/mechanical_arm/Firmware/ArmMainControler/libraries/sdk/Peripheral/ch32v30x_usbotg_device.c:517
                                            pDescr = MySerNumInfoHD;
    4112:	6729                	lui	a4,0xa
    4114:	ef870713          	addi	a4,a4,-264 # 9ef8 <MySerNumInfoHD>
    4118:	86e1ac23          	sw	a4,-1928(gp) # 20000298 <pDescr>
D:/projects/mechanical_arm/Firmware/ArmMainControler/libraries/sdk/Peripheral/ch32v30x_usbotg_device.c:518
                                            len = sizeof( MySerNumInfoHD );
    411c:	47d9                	li	a5,22
    411e:	fef407a3          	sb	a5,-17(s0)
D:/projects/mechanical_arm/Firmware/ArmMainControler/libraries/sdk/Peripheral/ch32v30x_usbotg_device.c:519
                                            break;
    4122:	a029                	j	412c <OTG_FS_IRQHandler+0x2de>
D:/projects/mechanical_arm/Firmware/ArmMainControler/libraries/sdk/Peripheral/ch32v30x_usbotg_device.c:522
                                            errflag = 0xFF;
    4124:	57fd                	li	a5,-1
    4126:	fef40723          	sb	a5,-18(s0)
D:/projects/mechanical_arm/Firmware/ArmMainControler/libraries/sdk/Peripheral/ch32v30x_usbotg_device.c:523
                                            break;
    412a:	0001                	nop
D:/projects/mechanical_arm/Firmware/ArmMainControler/libraries/sdk/Peripheral/ch32v30x_usbotg_device.c:525
                                    break;
    412c:	a895                	j	41a0 <OTG_FS_IRQHandler+0x352>
D:/projects/mechanical_arm/Firmware/ArmMainControler/libraries/sdk/Peripheral/ch32v30x_usbotg_device.c:529
                                    pDescr = MyReportDescHD;
    412e:	6729                	lui	a4,0xa
    4130:	ec870713          	addi	a4,a4,-312 # 9ec8 <MyReportDescHD>
    4134:	86e1ac23          	sw	a4,-1928(gp) # 20000298 <pDescr>
D:/projects/mechanical_arm/Firmware/ArmMainControler/libraries/sdk/Peripheral/ch32v30x_usbotg_device.c:530
                                    len = sizeof( MyReportDescHD );
    4138:	47d1                	li	a5,20
    413a:	fef407a3          	sb	a5,-17(s0)
D:/projects/mechanical_arm/Firmware/ArmMainControler/libraries/sdk/Peripheral/ch32v30x_usbotg_device.c:531
                                    break;
    413e:	a08d                	j	41a0 <OTG_FS_IRQHandler+0x352>
D:/projects/mechanical_arm/Firmware/ArmMainControler/libraries/sdk/Peripheral/ch32v30x_usbotg_device.c:535
                                    pDescr = ( PUINT8 )&MyUSBQUADescHD[ 0 ];
    4140:	6729                	lui	a4,0xa
    4142:	f1070713          	addi	a4,a4,-240 # 9f10 <MyUSBQUADescHD>
    4146:	86e1ac23          	sw	a4,-1928(gp) # 20000298 <pDescr>
D:/projects/mechanical_arm/Firmware/ArmMainControler/libraries/sdk/Peripheral/ch32v30x_usbotg_device.c:536
                                    len = sizeof( MyUSBQUADescHD );
    414a:	47a9                	li	a5,10
    414c:	fef407a3          	sb	a5,-17(s0)
D:/projects/mechanical_arm/Firmware/ArmMainControler/libraries/sdk/Peripheral/ch32v30x_usbotg_device.c:537
                                    break;
    4150:	a881                	j	41a0 <OTG_FS_IRQHandler+0x352>
D:/projects/mechanical_arm/Firmware/ArmMainControler/libraries/sdk/Peripheral/ch32v30x_usbotg_device.c:542
                                    if( USBHD_Dev_Speed == 0x00 )
    4152:	80c1c783          	lbu	a5,-2036(gp) # 2000022c <USBHD_Dev_Speed>
    4156:	0ff7f793          	andi	a5,a5,255
    415a:	e79d                	bnez	a5,4188 <OTG_FS_IRQHandler+0x33a>
D:/projects/mechanical_arm/Firmware/ArmMainControler/libraries/sdk/Peripheral/ch32v30x_usbotg_device.c:545
                                      memcpy( &TAB_USB_FS_OSC_DESC[ 2 ], &MyCfgDescrHD[ 2 ], sizeof( MyCfgDescrHD ) - 2 );
    415c:	04100613          	li	a2,65
    4160:	67a9                	lui	a5,0xa
    4162:	e8678593          	addi	a1,a5,-378 # 9e86 <MyCfgDescrHD+0x2>
    4166:	200007b7          	lui	a5,0x20000
    416a:	01278513          	addi	a0,a5,18 # 20000012 <TAB_USB_FS_OSC_DESC+0x2>
    416e:	498020ef          	jal	ra,6606 <memcpy>
D:/projects/mechanical_arm/Firmware/ArmMainControler/libraries/sdk/Peripheral/ch32v30x_usbotg_device.c:546
                                      pDescr = ( PUINT8 )&TAB_USB_FS_OSC_DESC[ 0 ];
    4172:	20000737          	lui	a4,0x20000
    4176:	01070713          	addi	a4,a4,16 # 20000010 <TAB_USB_FS_OSC_DESC>
    417a:	86e1ac23          	sw	a4,-1928(gp) # 20000298 <pDescr>
D:/projects/mechanical_arm/Firmware/ArmMainControler/libraries/sdk/Peripheral/ch32v30x_usbotg_device.c:547
                                      len = sizeof( TAB_USB_FS_OSC_DESC );
    417e:	04300793          	li	a5,67
    4182:	fef407a3          	sb	a5,-17(s0)
D:/projects/mechanical_arm/Firmware/ArmMainControler/libraries/sdk/Peripheral/ch32v30x_usbotg_device.c:553
                                    break;
    4186:	a829                	j	41a0 <OTG_FS_IRQHandler+0x352>
D:/projects/mechanical_arm/Firmware/ArmMainControler/libraries/sdk/Peripheral/ch32v30x_usbotg_device.c:551
                                      errflag = 0xFF;
    4188:	57fd                	li	a5,-1
    418a:	fef40723          	sb	a5,-18(s0)
D:/projects/mechanical_arm/Firmware/ArmMainControler/libraries/sdk/Peripheral/ch32v30x_usbotg_device.c:553
                                    break;
    418e:	a809                	j	41a0 <OTG_FS_IRQHandler+0x352>
D:/projects/mechanical_arm/Firmware/ArmMainControler/libraries/sdk/Peripheral/ch32v30x_usbotg_device.c:558
                                    errflag = 0xFF;
    4190:	57fd                	li	a5,-1
    4192:	fef40723          	sb	a5,-18(s0)
D:/projects/mechanical_arm/Firmware/ArmMainControler/libraries/sdk/Peripheral/ch32v30x_usbotg_device.c:559
                                    break;
    4196:	a029                	j	41a0 <OTG_FS_IRQHandler+0x352>
D:/projects/mechanical_arm/Firmware/ArmMainControler/libraries/sdk/Peripheral/ch32v30x_usbotg_device.c:562
                                    errflag = 0xff;
    4198:	57fd                	li	a5,-1
    419a:	fef40723          	sb	a5,-18(s0)
D:/projects/mechanical_arm/Firmware/ArmMainControler/libraries/sdk/Peripheral/ch32v30x_usbotg_device.c:563
                                    break;
    419e:	0001                	nop
D:/projects/mechanical_arm/Firmware/ArmMainControler/libraries/sdk/Peripheral/ch32v30x_usbotg_device.c:567
                            if( SetupReqLen>len )   SetupReqLen = len;
    41a0:	fef44783          	lbu	a5,-17(s0)
    41a4:	01079713          	slli	a4,a5,0x10
    41a8:	8341                	srli	a4,a4,0x10
    41aa:	8821d783          	lhu	a5,-1918(gp) # 200002a2 <SetupReqLen>
    41ae:	07c2                	slli	a5,a5,0x10
    41b0:	83c1                	srli	a5,a5,0x10
    41b2:	00f77963          	bgeu	a4,a5,41c4 <OTG_FS_IRQHandler+0x376>
D:/projects/mechanical_arm/Firmware/ArmMainControler/libraries/sdk/Peripheral/ch32v30x_usbotg_device.c:567 (discriminator 1)
    41b6:	fef44783          	lbu	a5,-17(s0)
    41ba:	01079713          	slli	a4,a5,0x10
    41be:	8341                	srli	a4,a4,0x10
    41c0:	88e19123          	sh	a4,-1918(gp) # 200002a2 <SetupReqLen>
D:/projects/mechanical_arm/Firmware/ArmMainControler/libraries/sdk/Peripheral/ch32v30x_usbotg_device.c:568
                            len = (SetupReqLen >= DevEP0SIZE) ? DevEP0SIZE : SetupReqLen;
    41c4:	8821d783          	lhu	a5,-1918(gp) # 200002a2 <SetupReqLen>
    41c8:	01079713          	slli	a4,a5,0x10
    41cc:	8341                	srli	a4,a4,0x10
    41ce:	479d                	li	a5,7
    41d0:	00e7e963          	bltu	a5,a4,41e2 <OTG_FS_IRQHandler+0x394>
D:/projects/mechanical_arm/Firmware/ArmMainControler/libraries/sdk/Peripheral/ch32v30x_usbotg_device.c:568 (discriminator 1)
    41d4:	8821d783          	lhu	a5,-1918(gp) # 200002a2 <SetupReqLen>
    41d8:	07c2                	slli	a5,a5,0x10
    41da:	83c1                	srli	a5,a5,0x10
    41dc:	0ff7f793          	andi	a5,a5,255
    41e0:	a011                	j	41e4 <OTG_FS_IRQHandler+0x396>
D:/projects/mechanical_arm/Firmware/ArmMainControler/libraries/sdk/Peripheral/ch32v30x_usbotg_device.c:568 (discriminator 2)
    41e2:	47a1                	li	a5,8
D:/projects/mechanical_arm/Firmware/ArmMainControler/libraries/sdk/Peripheral/ch32v30x_usbotg_device.c:568 (discriminator 4)
    41e4:	fef407a3          	sb	a5,-17(s0)
D:/projects/mechanical_arm/Firmware/ArmMainControler/libraries/sdk/Peripheral/ch32v30x_usbotg_device.c:569 (discriminator 4)
                            memcpy( pEP0_DataBuf, pDescr, len );
    41e8:	86c1a703          	lw	a4,-1940(gp) # 2000028c <pEP0_RAM_Addr>
    41ec:	8781a783          	lw	a5,-1928(gp) # 20000298 <pDescr>
    41f0:	fef44683          	lbu	a3,-17(s0)
    41f4:	8636                	mv	a2,a3
    41f6:	85be                	mv	a1,a5
    41f8:	853a                	mv	a0,a4
    41fa:	40c020ef          	jal	ra,6606 <memcpy>
D:/projects/mechanical_arm/Firmware/ArmMainControler/libraries/sdk/Peripheral/ch32v30x_usbotg_device.c:570 (discriminator 4)
                            pDescr += len;
    41fe:	8781a703          	lw	a4,-1928(gp) # 20000298 <pDescr>
    4202:	fef44783          	lbu	a5,-17(s0)
    4206:	973e                	add	a4,a4,a5
    4208:	86e1ac23          	sw	a4,-1928(gp) # 20000298 <pDescr>
D:/projects/mechanical_arm/Firmware/ArmMainControler/libraries/sdk/Peripheral/ch32v30x_usbotg_device.c:572 (discriminator 4)
                            break;
    420c:	a935                	j	4648 <OTG_FS_IRQHandler+0x7fa>
D:/projects/mechanical_arm/Firmware/ArmMainControler/libraries/sdk/Peripheral/ch32v30x_usbotg_device.c:576
                            SetupReqLen = (pSetupReqPakHD->wValue)&0xff;
    420e:	86c1a783          	lw	a5,-1940(gp) # 2000028c <pEP0_RAM_Addr>
    4212:	0027c703          	lbu	a4,2(a5)
    4216:	0037c783          	lbu	a5,3(a5)
    421a:	07a2                	slli	a5,a5,0x8
    421c:	8fd9                	or	a5,a5,a4
    421e:	07c2                	slli	a5,a5,0x10
    4220:	83c1                	srli	a5,a5,0x10
    4222:	0ff7f793          	andi	a5,a5,255
    4226:	01079713          	slli	a4,a5,0x10
    422a:	8341                	srli	a4,a4,0x10
    422c:	88e19123          	sh	a4,-1918(gp) # 200002a2 <SetupReqLen>
D:/projects/mechanical_arm/Firmware/ArmMainControler/libraries/sdk/Peripheral/ch32v30x_usbotg_device.c:577
                            break;
    4230:	a921                	j	4648 <OTG_FS_IRQHandler+0x7fa>
D:/projects/mechanical_arm/Firmware/ArmMainControler/libraries/sdk/Peripheral/ch32v30x_usbotg_device.c:581
                            pEP0_DataBuf[0] = DevConfig;
    4232:	86c1a783          	lw	a5,-1940(gp) # 2000028c <pEP0_RAM_Addr>
    4236:	87f1c703          	lbu	a4,-1921(gp) # 2000029f <DevConfig>
    423a:	0ff77713          	andi	a4,a4,255
    423e:	00e78023          	sb	a4,0(a5)
D:/projects/mechanical_arm/Firmware/ArmMainControler/libraries/sdk/Peripheral/ch32v30x_usbotg_device.c:582
                            if ( SetupReqLen > 1 ) SetupReqLen = 1;
    4242:	8821d783          	lhu	a5,-1918(gp) # 200002a2 <SetupReqLen>
    4246:	01079713          	slli	a4,a5,0x10
    424a:	8341                	srli	a4,a4,0x10
    424c:	4785                	li	a5,1
    424e:	3ee7f663          	bgeu	a5,a4,463a <OTG_FS_IRQHandler+0x7ec>
D:/projects/mechanical_arm/Firmware/ArmMainControler/libraries/sdk/Peripheral/ch32v30x_usbotg_device.c:582 (discriminator 1)
    4252:	4705                	li	a4,1
    4254:	88e19123          	sh	a4,-1918(gp) # 200002a2 <SetupReqLen>
D:/projects/mechanical_arm/Firmware/ArmMainControler/libraries/sdk/Peripheral/ch32v30x_usbotg_device.c:583 (discriminator 1)
                            break;
    4258:	a6cd                	j	463a <OTG_FS_IRQHandler+0x7ec>
D:/projects/mechanical_arm/Firmware/ArmMainControler/libraries/sdk/Peripheral/ch32v30x_usbotg_device.c:587
                            DevConfig = (pSetupReqPakHD->wValue)&0xff;
    425a:	86c1a783          	lw	a5,-1940(gp) # 2000028c <pEP0_RAM_Addr>
    425e:	0027c703          	lbu	a4,2(a5)
    4262:	0037c783          	lbu	a5,3(a5)
    4266:	07a2                	slli	a5,a5,0x8
    4268:	8fd9                	or	a5,a5,a4
    426a:	07c2                	slli	a5,a5,0x10
    426c:	83c1                	srli	a5,a5,0x10
    426e:	0ff7f713          	andi	a4,a5,255
    4272:	86e18fa3          	sb	a4,-1921(gp) # 2000029f <DevConfig>
D:/projects/mechanical_arm/Firmware/ArmMainControler/libraries/sdk/Peripheral/ch32v30x_usbotg_device.c:588
                            break;
    4276:	aec9                	j	4648 <OTG_FS_IRQHandler+0x7fa>
D:/projects/mechanical_arm/Firmware/ArmMainControler/libraries/sdk/Peripheral/ch32v30x_usbotg_device.c:592
                            if ( ( pSetupReqPakHD->bRequestType & USB_REQ_RECIP_MASK ) == USB_REQ_RECIP_ENDP )
    4278:	86c1a783          	lw	a5,-1940(gp) # 2000028c <pEP0_RAM_Addr>
    427c:	0007c783          	lbu	a5,0(a5)
    4280:	01f7f713          	andi	a4,a5,31
    4284:	4789                	li	a5,2
    4286:	0cf71f63          	bne	a4,a5,4364 <OTG_FS_IRQHandler+0x516>
D:/projects/mechanical_arm/Firmware/ArmMainControler/libraries/sdk/Peripheral/ch32v30x_usbotg_device.c:595
                                switch( (pSetupReqPakHD->wIndex)&0xff )
    428a:	86c1a783          	lw	a5,-1940(gp) # 2000028c <pEP0_RAM_Addr>
    428e:	0047c703          	lbu	a4,4(a5)
    4292:	0057c783          	lbu	a5,5(a5)
    4296:	07a2                	slli	a5,a5,0x8
    4298:	8fd9                	or	a5,a5,a4
    429a:	07c2                	slli	a5,a5,0x10
    429c:	83c1                	srli	a5,a5,0x10
    429e:	0ff7f793          	andi	a5,a5,255
    42a2:	4709                	li	a4,2
    42a4:	04e78863          	beq	a5,a4,42f4 <OTG_FS_IRQHandler+0x4a6>
    42a8:	4709                	li	a4,2
    42aa:	00f74663          	blt	a4,a5,42b6 <OTG_FS_IRQHandler+0x468>
    42ae:	4705                	li	a4,1
    42b0:	08e78763          	beq	a5,a4,433e <OTG_FS_IRQHandler+0x4f0>
    42b4:	a05d                	j	435a <OTG_FS_IRQHandler+0x50c>
    42b6:	08100713          	li	a4,129
    42ba:	04e78b63          	beq	a5,a4,4310 <OTG_FS_IRQHandler+0x4c2>
    42be:	08200713          	li	a4,130
    42c2:	08e79c63          	bne	a5,a4,435a <OTG_FS_IRQHandler+0x50c>
D:/projects/mechanical_arm/Firmware/ArmMainControler/libraries/sdk/Peripheral/ch32v30x_usbotg_device.c:598
                                    USBOTG_FS->UEP2_TX_CTRL = (USBOTG_FS->UEP2_TX_CTRL & ~( USBHD_UEP_T_TOG|USBHD_UEP_T_RES_MASK )) | USBHD_UEP_T_RES_NAK;
    42c6:	500007b7          	lui	a5,0x50000
    42ca:	03a7c783          	lbu	a5,58(a5) # 5000003a <_eusrstack+0x2fff003a>
    42ce:	0ff7f793          	andi	a5,a5,255
    42d2:	07e2                	slli	a5,a5,0x18
    42d4:	87e1                	srai	a5,a5,0x18
    42d6:	9be1                	andi	a5,a5,-8
    42d8:	07e2                	slli	a5,a5,0x18
    42da:	87e1                	srai	a5,a5,0x18
    42dc:	0027e793          	ori	a5,a5,2
    42e0:	01879713          	slli	a4,a5,0x18
    42e4:	8761                	srai	a4,a4,0x18
    42e6:	500007b7          	lui	a5,0x50000
    42ea:	0ff77713          	andi	a4,a4,255
    42ee:	02e78d23          	sb	a4,58(a5) # 5000003a <_eusrstack+0x2fff003a>
D:/projects/mechanical_arm/Firmware/ArmMainControler/libraries/sdk/Peripheral/ch32v30x_usbotg_device.c:599
                                    break;
    42f2:	a8ad                	j	436c <OTG_FS_IRQHandler+0x51e>
D:/projects/mechanical_arm/Firmware/ArmMainControler/libraries/sdk/Peripheral/ch32v30x_usbotg_device.c:602
                                    USBOTG_FS->UEP2_RX_CTRL = (USBOTG_FS->UEP2_RX_CTRL & ~( USBHD_UEP_R_TOG|USBHD_UEP_R_RES_MASK )) | USBHD_UEP_R_RES_ACK;
    42f4:	500007b7          	lui	a5,0x50000
    42f8:	03b7c783          	lbu	a5,59(a5) # 5000003b <_eusrstack+0x2fff003b>
    42fc:	0ff7f713          	andi	a4,a5,255
    4300:	500007b7          	lui	a5,0x50000
    4304:	9b61                	andi	a4,a4,-8
    4306:	0ff77713          	andi	a4,a4,255
    430a:	02e78da3          	sb	a4,59(a5) # 5000003b <_eusrstack+0x2fff003b>
D:/projects/mechanical_arm/Firmware/ArmMainControler/libraries/sdk/Peripheral/ch32v30x_usbotg_device.c:603
                                    break;
    430e:	a8b9                	j	436c <OTG_FS_IRQHandler+0x51e>
D:/projects/mechanical_arm/Firmware/ArmMainControler/libraries/sdk/Peripheral/ch32v30x_usbotg_device.c:606
                                    USBOTG_FS->UEP1_TX_CTRL = (USBOTG_FS->UEP1_TX_CTRL & ~( USBHD_UEP_T_TOG|USBHD_UEP_T_RES_MASK )) | USBHD_UEP_T_RES_NAK;
    4310:	500007b7          	lui	a5,0x50000
    4314:	0367c783          	lbu	a5,54(a5) # 50000036 <_eusrstack+0x2fff0036>
    4318:	0ff7f793          	andi	a5,a5,255
    431c:	07e2                	slli	a5,a5,0x18
    431e:	87e1                	srai	a5,a5,0x18
    4320:	9be1                	andi	a5,a5,-8
    4322:	07e2                	slli	a5,a5,0x18
    4324:	87e1                	srai	a5,a5,0x18
    4326:	0027e793          	ori	a5,a5,2
    432a:	01879713          	slli	a4,a5,0x18
    432e:	8761                	srai	a4,a4,0x18
    4330:	500007b7          	lui	a5,0x50000
    4334:	0ff77713          	andi	a4,a4,255
    4338:	02e78b23          	sb	a4,54(a5) # 50000036 <_eusrstack+0x2fff0036>
D:/projects/mechanical_arm/Firmware/ArmMainControler/libraries/sdk/Peripheral/ch32v30x_usbotg_device.c:607
                                    break;
    433c:	a805                	j	436c <OTG_FS_IRQHandler+0x51e>
D:/projects/mechanical_arm/Firmware/ArmMainControler/libraries/sdk/Peripheral/ch32v30x_usbotg_device.c:610
                                    USBOTG_FS->UEP1_RX_CTRL = (USBOTG_FS->UEP1_RX_CTRL & ~( USBHD_UEP_R_TOG|USBHD_UEP_R_RES_MASK )) | USBHD_UEP_R_RES_ACK;
    433e:	500007b7          	lui	a5,0x50000
    4342:	0377c783          	lbu	a5,55(a5) # 50000037 <_eusrstack+0x2fff0037>
    4346:	0ff7f713          	andi	a4,a5,255
    434a:	500007b7          	lui	a5,0x50000
    434e:	9b61                	andi	a4,a4,-8
    4350:	0ff77713          	andi	a4,a4,255
    4354:	02e78ba3          	sb	a4,55(a5) # 50000037 <_eusrstack+0x2fff0037>
D:/projects/mechanical_arm/Firmware/ArmMainControler/libraries/sdk/Peripheral/ch32v30x_usbotg_device.c:611
                                    break;
    4358:	a811                	j	436c <OTG_FS_IRQHandler+0x51e>
D:/projects/mechanical_arm/Firmware/ArmMainControler/libraries/sdk/Peripheral/ch32v30x_usbotg_device.c:614
                                    errflag = 0xFF;
    435a:	57fd                	li	a5,-1
    435c:	fef40723          	sb	a5,-18(s0)
D:/projects/mechanical_arm/Firmware/ArmMainControler/libraries/sdk/Peripheral/ch32v30x_usbotg_device.c:615
                                    break;
    4360:	0001                	nop
    4362:	a029                	j	436c <OTG_FS_IRQHandler+0x51e>
D:/projects/mechanical_arm/Firmware/ArmMainControler/libraries/sdk/Peripheral/ch32v30x_usbotg_device.c:619
                            else    errflag = 0xFF;
    4364:	57fd                	li	a5,-1
    4366:	fef40723          	sb	a5,-18(s0)
D:/projects/mechanical_arm/Firmware/ArmMainControler/libraries/sdk/Peripheral/ch32v30x_usbotg_device.c:620
                            break;
    436a:	acf9                	j	4648 <OTG_FS_IRQHandler+0x7fa>
    436c:	acf1                	j	4648 <OTG_FS_IRQHandler+0x7fa>
D:/projects/mechanical_arm/Firmware/ArmMainControler/libraries/sdk/Peripheral/ch32v30x_usbotg_device.c:624
                            if( ( pMySetupReqPakHD->bRequestType & 0x1F ) == 0x00 )
    436e:	86418793          	addi	a5,gp,-1948 # 20000284 <EP0_DatabufHD>
    4372:	0007c783          	lbu	a5,0(a5)
    4376:	8bfd                	andi	a5,a5,31
    4378:	e3a1                	bnez	a5,43b8 <OTG_FS_IRQHandler+0x56a>
D:/projects/mechanical_arm/Firmware/ArmMainControler/libraries/sdk/Peripheral/ch32v30x_usbotg_device.c:627
                                if( pMySetupReqPakHD->wValue == 0x01 )
    437a:	86418793          	addi	a5,gp,-1948 # 20000284 <EP0_DatabufHD>
    437e:	0027c703          	lbu	a4,2(a5)
    4382:	0037c783          	lbu	a5,3(a5)
    4386:	07a2                	slli	a5,a5,0x8
    4388:	8fd9                	or	a5,a5,a4
    438a:	01079713          	slli	a4,a5,0x10
    438e:	8341                	srli	a4,a4,0x10
    4390:	4785                	li	a5,1
    4392:	00f71f63          	bne	a4,a5,43b0 <OTG_FS_IRQHandler+0x562>
D:/projects/mechanical_arm/Firmware/ArmMainControler/libraries/sdk/Peripheral/ch32v30x_usbotg_device.c:629
                                    if( MyCfgDescrHD[ 7 ] & 0x20 )
    4396:	0a000793          	li	a5,160
    439a:	0207f793          	andi	a5,a5,32
    439e:	c789                	beqz	a5,43a8 <OTG_FS_IRQHandler+0x55a>
D:/projects/mechanical_arm/Firmware/ArmMainControler/libraries/sdk/Peripheral/ch32v30x_usbotg_device.c:632
                                        USBHD_Dev_SleepStatus = 0x01;
    43a0:	4705                	li	a4,1
    43a2:	86e18f23          	sb	a4,-1922(gp) # 2000029e <USBHD_Dev_SleepStatus>
D:/projects/mechanical_arm/Firmware/ArmMainControler/libraries/sdk/Peripheral/ch32v30x_usbotg_device.c:690
                            break;
    43a6:	a44d                	j	4648 <OTG_FS_IRQHandler+0x7fa>
D:/projects/mechanical_arm/Firmware/ArmMainControler/libraries/sdk/Peripheral/ch32v30x_usbotg_device.c:636
                                        errflag = 0xFF;
    43a8:	57fd                	li	a5,-1
    43aa:	fef40723          	sb	a5,-18(s0)
D:/projects/mechanical_arm/Firmware/ArmMainControler/libraries/sdk/Peripheral/ch32v30x_usbotg_device.c:690
                            break;
    43ae:	ac69                	j	4648 <OTG_FS_IRQHandler+0x7fa>
D:/projects/mechanical_arm/Firmware/ArmMainControler/libraries/sdk/Peripheral/ch32v30x_usbotg_device.c:641
                                    errflag = 0xFF;
    43b0:	57fd                	li	a5,-1
    43b2:	fef40723          	sb	a5,-18(s0)
D:/projects/mechanical_arm/Firmware/ArmMainControler/libraries/sdk/Peripheral/ch32v30x_usbotg_device.c:690
                            break;
    43b6:	ac49                	j	4648 <OTG_FS_IRQHandler+0x7fa>
D:/projects/mechanical_arm/Firmware/ArmMainControler/libraries/sdk/Peripheral/ch32v30x_usbotg_device.c:644
                            else if( ( pMySetupReqPakHD->bRequestType & 0x1F ) == 0x02 )
    43b8:	86418793          	addi	a5,gp,-1948 # 20000284 <EP0_DatabufHD>
    43bc:	0007c783          	lbu	a5,0(a5)
    43c0:	01f7f713          	andi	a4,a5,31
    43c4:	4789                	li	a5,2
    43c6:	10f71c63          	bne	a4,a5,44de <OTG_FS_IRQHandler+0x690>
D:/projects/mechanical_arm/Firmware/ArmMainControler/libraries/sdk/Peripheral/ch32v30x_usbotg_device.c:647
                                if( pMySetupReqPakHD->wValue == 0x00 )
    43ca:	86418793          	addi	a5,gp,-1948 # 20000284 <EP0_DatabufHD>
    43ce:	0027c703          	lbu	a4,2(a5)
    43d2:	0037c783          	lbu	a5,3(a5)
    43d6:	07a2                	slli	a5,a5,0x8
    43d8:	8fd9                	or	a5,a5,a4
    43da:	07c2                	slli	a5,a5,0x10
    43dc:	83c1                	srli	a5,a5,0x10
    43de:	efe5                	bnez	a5,44d6 <OTG_FS_IRQHandler+0x688>
D:/projects/mechanical_arm/Firmware/ArmMainControler/libraries/sdk/Peripheral/ch32v30x_usbotg_device.c:650
                                    switch( ( pMySetupReqPakHD->wIndex ) & 0xff )
    43e0:	86418793          	addi	a5,gp,-1948 # 20000284 <EP0_DatabufHD>
    43e4:	0047c703          	lbu	a4,4(a5)
    43e8:	0057c783          	lbu	a5,5(a5)
    43ec:	07a2                	slli	a5,a5,0x8
    43ee:	8fd9                	or	a5,a5,a4
    43f0:	07c2                	slli	a5,a5,0x10
    43f2:	83c1                	srli	a5,a5,0x10
    43f4:	0ff7f793          	andi	a5,a5,255
    43f8:	4709                	li	a4,2
    43fa:	04e78763          	beq	a5,a4,4448 <OTG_FS_IRQHandler+0x5fa>
    43fe:	4709                	li	a4,2
    4400:	00f74663          	blt	a4,a5,440c <OTG_FS_IRQHandler+0x5be>
    4404:	4705                	li	a4,1
    4406:	08e78d63          	beq	a5,a4,44a0 <OTG_FS_IRQHandler+0x652>
    440a:	a0c9                	j	44cc <OTG_FS_IRQHandler+0x67e>
    440c:	08100713          	li	a4,129
    4410:	06e78263          	beq	a5,a4,4474 <OTG_FS_IRQHandler+0x626>
    4414:	08200713          	li	a4,130
    4418:	0ae79a63          	bne	a5,a4,44cc <OTG_FS_IRQHandler+0x67e>
D:/projects/mechanical_arm/Firmware/ArmMainControler/libraries/sdk/Peripheral/ch32v30x_usbotg_device.c:654
                                            USBOTG_FS->UEP2_TX_CTRL = ( USBOTG_FS->UEP2_TX_CTRL &= ~USBHD_UEP_T_RES_MASK ) | USBHD_UEP_T_RES_STALL;
    441c:	500007b7          	lui	a5,0x50000
    4420:	03a7c783          	lbu	a5,58(a5) # 5000003a <_eusrstack+0x2fff003a>
    4424:	0ff7f793          	andi	a5,a5,255
    4428:	50000737          	lui	a4,0x50000
    442c:	9bf1                	andi	a5,a5,-4
    442e:	0ff7f793          	andi	a5,a5,255
    4432:	02f70d23          	sb	a5,58(a4) # 5000003a <_eusrstack+0x2fff003a>
    4436:	50000737          	lui	a4,0x50000
    443a:	0037e793          	ori	a5,a5,3
    443e:	0ff7f793          	andi	a5,a5,255
    4442:	02f70d23          	sb	a5,58(a4) # 5000003a <_eusrstack+0x2fff003a>
D:/projects/mechanical_arm/Firmware/ArmMainControler/libraries/sdk/Peripheral/ch32v30x_usbotg_device.c:656
                                            break;
    4446:	a045                	j	44e6 <OTG_FS_IRQHandler+0x698>
D:/projects/mechanical_arm/Firmware/ArmMainControler/libraries/sdk/Peripheral/ch32v30x_usbotg_device.c:660
                                            USBOTG_FS->UEP2_RX_CTRL = ( USBOTG_FS->UEP2_RX_CTRL &= ~USBHD_UEP_R_RES_MASK ) | USBHD_UEP_R_RES_STALL;
    4448:	500007b7          	lui	a5,0x50000
    444c:	03b7c783          	lbu	a5,59(a5) # 5000003b <_eusrstack+0x2fff003b>
    4450:	0ff7f793          	andi	a5,a5,255
    4454:	50000737          	lui	a4,0x50000
    4458:	9bf1                	andi	a5,a5,-4
    445a:	0ff7f793          	andi	a5,a5,255
    445e:	02f70da3          	sb	a5,59(a4) # 5000003b <_eusrstack+0x2fff003b>
    4462:	50000737          	lui	a4,0x50000
    4466:	0037e793          	ori	a5,a5,3
    446a:	0ff7f793          	andi	a5,a5,255
    446e:	02f70da3          	sb	a5,59(a4) # 5000003b <_eusrstack+0x2fff003b>
D:/projects/mechanical_arm/Firmware/ArmMainControler/libraries/sdk/Peripheral/ch32v30x_usbotg_device.c:662
                                            break;
    4472:	a895                	j	44e6 <OTG_FS_IRQHandler+0x698>
D:/projects/mechanical_arm/Firmware/ArmMainControler/libraries/sdk/Peripheral/ch32v30x_usbotg_device.c:666
                                            USBOTG_FS->UEP1_TX_CTRL = ( USBOTG_FS->UEP1_TX_CTRL &= ~USBHD_UEP_T_RES_MASK ) | USBHD_UEP_T_RES_STALL;
    4474:	500007b7          	lui	a5,0x50000
    4478:	0367c783          	lbu	a5,54(a5) # 50000036 <_eusrstack+0x2fff0036>
    447c:	0ff7f793          	andi	a5,a5,255
    4480:	50000737          	lui	a4,0x50000
    4484:	9bf1                	andi	a5,a5,-4
    4486:	0ff7f793          	andi	a5,a5,255
    448a:	02f70b23          	sb	a5,54(a4) # 50000036 <_eusrstack+0x2fff0036>
    448e:	50000737          	lui	a4,0x50000
    4492:	0037e793          	ori	a5,a5,3
    4496:	0ff7f793          	andi	a5,a5,255
    449a:	02f70b23          	sb	a5,54(a4) # 50000036 <_eusrstack+0x2fff0036>
D:/projects/mechanical_arm/Firmware/ArmMainControler/libraries/sdk/Peripheral/ch32v30x_usbotg_device.c:668
                                            break;
    449e:	a0a1                	j	44e6 <OTG_FS_IRQHandler+0x698>
D:/projects/mechanical_arm/Firmware/ArmMainControler/libraries/sdk/Peripheral/ch32v30x_usbotg_device.c:672
                                            USBOTG_FS->UEP1_RX_CTRL = ( USBOTG_FS->UEP1_RX_CTRL &= ~USBHD_UEP_R_RES_MASK ) | USBHD_UEP_R_RES_STALL;
    44a0:	500007b7          	lui	a5,0x50000
    44a4:	0377c783          	lbu	a5,55(a5) # 50000037 <_eusrstack+0x2fff0037>
    44a8:	0ff7f793          	andi	a5,a5,255
    44ac:	50000737          	lui	a4,0x50000
    44b0:	9bf1                	andi	a5,a5,-4
    44b2:	0ff7f793          	andi	a5,a5,255
    44b6:	02f70ba3          	sb	a5,55(a4) # 50000037 <_eusrstack+0x2fff0037>
    44ba:	50000737          	lui	a4,0x50000
    44be:	0037e793          	ori	a5,a5,3
    44c2:	0ff7f793          	andi	a5,a5,255
    44c6:	02f70ba3          	sb	a5,55(a4) # 50000037 <_eusrstack+0x2fff0037>
D:/projects/mechanical_arm/Firmware/ArmMainControler/libraries/sdk/Peripheral/ch32v30x_usbotg_device.c:674
                                            break;
    44ca:	a831                	j	44e6 <OTG_FS_IRQHandler+0x698>
D:/projects/mechanical_arm/Firmware/ArmMainControler/libraries/sdk/Peripheral/ch32v30x_usbotg_device.c:677
                                            errflag = 0xFF;
    44cc:	57fd                	li	a5,-1
    44ce:	fef40723          	sb	a5,-18(s0)
D:/projects/mechanical_arm/Firmware/ArmMainControler/libraries/sdk/Peripheral/ch32v30x_usbotg_device.c:678
                                            break;
    44d2:	0001                	nop
    44d4:	a809                	j	44e6 <OTG_FS_IRQHandler+0x698>
D:/projects/mechanical_arm/Firmware/ArmMainControler/libraries/sdk/Peripheral/ch32v30x_usbotg_device.c:683
                                    errflag = 0xFF;
    44d6:	57fd                	li	a5,-1
    44d8:	fef40723          	sb	a5,-18(s0)
D:/projects/mechanical_arm/Firmware/ArmMainControler/libraries/sdk/Peripheral/ch32v30x_usbotg_device.c:690
                            break;
    44dc:	a2b5                	j	4648 <OTG_FS_IRQHandler+0x7fa>
D:/projects/mechanical_arm/Firmware/ArmMainControler/libraries/sdk/Peripheral/ch32v30x_usbotg_device.c:688
                                errflag = 0xFF;
    44de:	57fd                	li	a5,-1
    44e0:	fef40723          	sb	a5,-18(s0)
D:/projects/mechanical_arm/Firmware/ArmMainControler/libraries/sdk/Peripheral/ch32v30x_usbotg_device.c:690
                            break;
    44e4:	a295                	j	4648 <OTG_FS_IRQHandler+0x7fa>
D:/projects/mechanical_arm/Firmware/ArmMainControler/libraries/sdk/Peripheral/ch32v30x_usbotg_device.c:690 (discriminator 4)
    44e6:	a28d                	j	4648 <OTG_FS_IRQHandler+0x7fa>
D:/projects/mechanical_arm/Firmware/ArmMainControler/libraries/sdk/Peripheral/ch32v30x_usbotg_device.c:694
                            pEP0_DataBuf[0] = 0x00;
    44e8:	86c1a783          	lw	a5,-1940(gp) # 2000028c <pEP0_RAM_Addr>
    44ec:	00078023          	sb	zero,0(a5)
D:/projects/mechanical_arm/Firmware/ArmMainControler/libraries/sdk/Peripheral/ch32v30x_usbotg_device.c:695
                            if ( SetupReqLen > 1 ) SetupReqLen = 1;
    44f0:	8821d783          	lhu	a5,-1918(gp) # 200002a2 <SetupReqLen>
    44f4:	01079713          	slli	a4,a5,0x10
    44f8:	8341                	srli	a4,a4,0x10
    44fa:	4785                	li	a5,1
    44fc:	14e7f163          	bgeu	a5,a4,463e <OTG_FS_IRQHandler+0x7f0>
D:/projects/mechanical_arm/Firmware/ArmMainControler/libraries/sdk/Peripheral/ch32v30x_usbotg_device.c:695 (discriminator 1)
    4500:	4705                	li	a4,1
    4502:	88e19123          	sh	a4,-1918(gp) # 200002a2 <SetupReqLen>
D:/projects/mechanical_arm/Firmware/ArmMainControler/libraries/sdk/Peripheral/ch32v30x_usbotg_device.c:696 (discriminator 1)
                            break;
    4506:	aa25                	j	463e <OTG_FS_IRQHandler+0x7f0>
D:/projects/mechanical_arm/Firmware/ArmMainControler/libraries/sdk/Peripheral/ch32v30x_usbotg_device.c:700
                            EP0_DatabufHD[ 0 ] = 0x00;
    4508:	86018223          	sb	zero,-1948(gp) # 20000284 <EP0_DatabufHD>
D:/projects/mechanical_arm/Firmware/ArmMainControler/libraries/sdk/Peripheral/ch32v30x_usbotg_device.c:701
                            if( USBHD_Dev_SetupReqLen > 1 )
    450c:	87c1d783          	lhu	a5,-1924(gp) # 2000029c <USBHD_Dev_SetupReqLen>
    4510:	01079713          	slli	a4,a5,0x10
    4514:	8341                	srli	a4,a4,0x10
    4516:	4785                	li	a5,1
    4518:	12e7f563          	bgeu	a5,a4,4642 <OTG_FS_IRQHandler+0x7f4>
D:/projects/mechanical_arm/Firmware/ArmMainControler/libraries/sdk/Peripheral/ch32v30x_usbotg_device.c:703
                                USBHD_Dev_SetupReqLen = 1;
    451c:	4705                	li	a4,1
    451e:	86e19e23          	sh	a4,-1924(gp) # 2000029c <USBHD_Dev_SetupReqLen>
D:/projects/mechanical_arm/Firmware/ArmMainControler/libraries/sdk/Peripheral/ch32v30x_usbotg_device.c:705
                            break;
    4522:	a205                	j	4642 <OTG_FS_IRQHandler+0x7f4>
D:/projects/mechanical_arm/Firmware/ArmMainControler/libraries/sdk/Peripheral/ch32v30x_usbotg_device.c:709
                            EP0_DatabufHD[ 0 ] = 0x00;
    4524:	86018223          	sb	zero,-1948(gp) # 20000284 <EP0_DatabufHD>
D:/projects/mechanical_arm/Firmware/ArmMainControler/libraries/sdk/Peripheral/ch32v30x_usbotg_device.c:710
                            EP0_DatabufHD[ 1 ] = 0x00;
    4528:	86418793          	addi	a5,gp,-1948 # 20000284 <EP0_DatabufHD>
    452c:	000780a3          	sb	zero,1(a5)
D:/projects/mechanical_arm/Firmware/ArmMainControler/libraries/sdk/Peripheral/ch32v30x_usbotg_device.c:711
                            if( pMySetupReqPakHD->wIndex == 0x81 )
    4530:	86418793          	addi	a5,gp,-1948 # 20000284 <EP0_DatabufHD>
    4534:	0047c703          	lbu	a4,4(a5)
    4538:	0057c783          	lbu	a5,5(a5)
    453c:	07a2                	slli	a5,a5,0x8
    453e:	8fd9                	or	a5,a5,a4
    4540:	01079713          	slli	a4,a5,0x10
    4544:	8341                	srli	a4,a4,0x10
    4546:	08100793          	li	a5,129
    454a:	02f71163          	bne	a4,a5,456c <OTG_FS_IRQHandler+0x71e>
D:/projects/mechanical_arm/Firmware/ArmMainControler/libraries/sdk/Peripheral/ch32v30x_usbotg_device.c:713
                                if( ( USBOTG_FS->UEP1_TX_CTRL & USBHD_UEP_T_RES_MASK ) == USBHD_UEP_T_RES_STALL )
    454e:	500007b7          	lui	a5,0x50000
    4552:	0367c783          	lbu	a5,54(a5) # 50000036 <_eusrstack+0x2fff0036>
    4556:	0ff7f793          	andi	a5,a5,255
    455a:	0037f713          	andi	a4,a5,3
    455e:	478d                	li	a5,3
    4560:	0af71d63          	bne	a4,a5,461a <OTG_FS_IRQHandler+0x7cc>
D:/projects/mechanical_arm/Firmware/ArmMainControler/libraries/sdk/Peripheral/ch32v30x_usbotg_device.c:715
                                    EP0_DatabufHD[ 0 ] = 0x01;
    4564:	4705                	li	a4,1
    4566:	86e18223          	sb	a4,-1948(gp) # 20000284 <EP0_DatabufHD>
    456a:	a845                	j	461a <OTG_FS_IRQHandler+0x7cc>
D:/projects/mechanical_arm/Firmware/ArmMainControler/libraries/sdk/Peripheral/ch32v30x_usbotg_device.c:718
                            else if( pMySetupReqPakHD->wIndex == 0x01 )
    456c:	86418793          	addi	a5,gp,-1948 # 20000284 <EP0_DatabufHD>
    4570:	0047c703          	lbu	a4,4(a5)
    4574:	0057c783          	lbu	a5,5(a5)
    4578:	07a2                	slli	a5,a5,0x8
    457a:	8fd9                	or	a5,a5,a4
    457c:	01079713          	slli	a4,a5,0x10
    4580:	8341                	srli	a4,a4,0x10
    4582:	4785                	li	a5,1
    4584:	02f71163          	bne	a4,a5,45a6 <OTG_FS_IRQHandler+0x758>
D:/projects/mechanical_arm/Firmware/ArmMainControler/libraries/sdk/Peripheral/ch32v30x_usbotg_device.c:720
                                if( ( USBOTG_FS->UEP1_RX_CTRL & USBHD_UEP_R_RES_MASK ) == USBHD_UEP_R_RES_STALL )
    4588:	500007b7          	lui	a5,0x50000
    458c:	0377c783          	lbu	a5,55(a5) # 50000037 <_eusrstack+0x2fff0037>
    4590:	0ff7f793          	andi	a5,a5,255
    4594:	0037f713          	andi	a4,a5,3
    4598:	478d                	li	a5,3
    459a:	08f71063          	bne	a4,a5,461a <OTG_FS_IRQHandler+0x7cc>
D:/projects/mechanical_arm/Firmware/ArmMainControler/libraries/sdk/Peripheral/ch32v30x_usbotg_device.c:722
                                    EP0_DatabufHD[ 0 ] = 0x01;
    459e:	4705                	li	a4,1
    45a0:	86e18223          	sb	a4,-1948(gp) # 20000284 <EP0_DatabufHD>
    45a4:	a89d                	j	461a <OTG_FS_IRQHandler+0x7cc>
D:/projects/mechanical_arm/Firmware/ArmMainControler/libraries/sdk/Peripheral/ch32v30x_usbotg_device.c:725
                            else if( pMySetupReqPakHD->wIndex == 0x82 )
    45a6:	86418793          	addi	a5,gp,-1948 # 20000284 <EP0_DatabufHD>
    45aa:	0047c703          	lbu	a4,4(a5)
    45ae:	0057c783          	lbu	a5,5(a5)
    45b2:	07a2                	slli	a5,a5,0x8
    45b4:	8fd9                	or	a5,a5,a4
    45b6:	01079713          	slli	a4,a5,0x10
    45ba:	8341                	srli	a4,a4,0x10
    45bc:	08200793          	li	a5,130
    45c0:	02f71163          	bne	a4,a5,45e2 <OTG_FS_IRQHandler+0x794>
D:/projects/mechanical_arm/Firmware/ArmMainControler/libraries/sdk/Peripheral/ch32v30x_usbotg_device.c:727
                                if( ( USBOTG_FS->UEP2_TX_CTRL & USBHD_UEP_T_RES_MASK ) == USBHD_UEP_T_RES_STALL )
    45c4:	500007b7          	lui	a5,0x50000
    45c8:	03a7c783          	lbu	a5,58(a5) # 5000003a <_eusrstack+0x2fff003a>
    45cc:	0ff7f793          	andi	a5,a5,255
    45d0:	0037f713          	andi	a4,a5,3
    45d4:	478d                	li	a5,3
    45d6:	04f71263          	bne	a4,a5,461a <OTG_FS_IRQHandler+0x7cc>
D:/projects/mechanical_arm/Firmware/ArmMainControler/libraries/sdk/Peripheral/ch32v30x_usbotg_device.c:729
                                    EP0_DatabufHD[ 0 ] = 0x01;
    45da:	4705                	li	a4,1
    45dc:	86e18223          	sb	a4,-1948(gp) # 20000284 <EP0_DatabufHD>
    45e0:	a82d                	j	461a <OTG_FS_IRQHandler+0x7cc>
D:/projects/mechanical_arm/Firmware/ArmMainControler/libraries/sdk/Peripheral/ch32v30x_usbotg_device.c:732
                            else if( pMySetupReqPakHD->wIndex == 0x02 )
    45e2:	86418793          	addi	a5,gp,-1948 # 20000284 <EP0_DatabufHD>
    45e6:	0047c703          	lbu	a4,4(a5)
    45ea:	0057c783          	lbu	a5,5(a5)
    45ee:	07a2                	slli	a5,a5,0x8
    45f0:	8fd9                	or	a5,a5,a4
    45f2:	01079713          	slli	a4,a5,0x10
    45f6:	8341                	srli	a4,a4,0x10
    45f8:	4789                	li	a5,2
    45fa:	02f71063          	bne	a4,a5,461a <OTG_FS_IRQHandler+0x7cc>
D:/projects/mechanical_arm/Firmware/ArmMainControler/libraries/sdk/Peripheral/ch32v30x_usbotg_device.c:734
                                if( ( USBOTG_FS->UEP2_RX_CTRL & USBHD_UEP_R_RES_MASK ) == USBHD_UEP_R_RES_STALL )
    45fe:	500007b7          	lui	a5,0x50000
    4602:	03b7c783          	lbu	a5,59(a5) # 5000003b <_eusrstack+0x2fff003b>
    4606:	0ff7f793          	andi	a5,a5,255
    460a:	0037f713          	andi	a4,a5,3
    460e:	478d                	li	a5,3
    4610:	00f71563          	bne	a4,a5,461a <OTG_FS_IRQHandler+0x7cc>
D:/projects/mechanical_arm/Firmware/ArmMainControler/libraries/sdk/Peripheral/ch32v30x_usbotg_device.c:736
                                    EP0_DatabufHD[ 0 ] = 0x01;
    4614:	4705                	li	a4,1
    4616:	86e18223          	sb	a4,-1948(gp) # 20000284 <EP0_DatabufHD>
D:/projects/mechanical_arm/Firmware/ArmMainControler/libraries/sdk/Peripheral/ch32v30x_usbotg_device.c:739
                            if( USBHD_Dev_SetupReqLen > 2 )
    461a:	87c1d783          	lhu	a5,-1924(gp) # 2000029c <USBHD_Dev_SetupReqLen>
    461e:	01079713          	slli	a4,a5,0x10
    4622:	8341                	srli	a4,a4,0x10
    4624:	4789                	li	a5,2
    4626:	02e7f063          	bgeu	a5,a4,4646 <OTG_FS_IRQHandler+0x7f8>
D:/projects/mechanical_arm/Firmware/ArmMainControler/libraries/sdk/Peripheral/ch32v30x_usbotg_device.c:741
                                USBHD_Dev_SetupReqLen = 2;
    462a:	4709                	li	a4,2
    462c:	86e19e23          	sh	a4,-1924(gp) # 2000029c <USBHD_Dev_SetupReqLen>
D:/projects/mechanical_arm/Firmware/ArmMainControler/libraries/sdk/Peripheral/ch32v30x_usbotg_device.c:743
                            break;
    4630:	a819                	j	4646 <OTG_FS_IRQHandler+0x7f8>
D:/projects/mechanical_arm/Firmware/ArmMainControler/libraries/sdk/Peripheral/ch32v30x_usbotg_device.c:746
                            errflag = 0xFF;
    4632:	57fd                	li	a5,-1
    4634:	fef40723          	sb	a5,-18(s0)
D:/projects/mechanical_arm/Firmware/ArmMainControler/libraries/sdk/Peripheral/ch32v30x_usbotg_device.c:747
                            break;
    4638:	a801                	j	4648 <OTG_FS_IRQHandler+0x7fa>
D:/projects/mechanical_arm/Firmware/ArmMainControler/libraries/sdk/Peripheral/ch32v30x_usbotg_device.c:583
                            break;
    463a:	0001                	nop
    463c:	a031                	j	4648 <OTG_FS_IRQHandler+0x7fa>
D:/projects/mechanical_arm/Firmware/ArmMainControler/libraries/sdk/Peripheral/ch32v30x_usbotg_device.c:696
                            break;
    463e:	0001                	nop
    4640:	a021                	j	4648 <OTG_FS_IRQHandler+0x7fa>
D:/projects/mechanical_arm/Firmware/ArmMainControler/libraries/sdk/Peripheral/ch32v30x_usbotg_device.c:705
                            break;
    4642:	0001                	nop
    4644:	a011                	j	4648 <OTG_FS_IRQHandler+0x7fa>
D:/projects/mechanical_arm/Firmware/ArmMainControler/libraries/sdk/Peripheral/ch32v30x_usbotg_device.c:743
                            break;
    4646:	0001                	nop
D:/projects/mechanical_arm/Firmware/ArmMainControler/libraries/sdk/Peripheral/ch32v30x_usbotg_device.c:750
                if( errflag == 0xff)
    4648:	fee44703          	lbu	a4,-18(s0)
    464c:	0ff00793          	li	a5,255
    4650:	00f71d63          	bne	a4,a5,466a <OTG_FS_IRQHandler+0x81c>
D:/projects/mechanical_arm/Firmware/ArmMainControler/libraries/sdk/Peripheral/ch32v30x_usbotg_device.c:753
                    USBOTG_FS->UEP0_TX_CTRL = USBHD_UEP_T_TOG|USBHD_UEP_T_RES_STALL;
    4654:	500007b7          	lui	a5,0x50000
    4658:	471d                	li	a4,7
    465a:	02e78923          	sb	a4,50(a5) # 50000032 <_eusrstack+0x2fff0032>
D:/projects/mechanical_arm/Firmware/ArmMainControler/libraries/sdk/Peripheral/ch32v30x_usbotg_device.c:754
                    USBOTG_FS->UEP0_RX_CTRL = USBHD_UEP_R_TOG|USBHD_UEP_R_RES_STALL;
    465e:	500007b7          	lui	a5,0x50000
    4662:	471d                	li	a4,7
    4664:	02e789a3          	sb	a4,51(a5) # 50000033 <_eusrstack+0x2fff0033>
D:/projects/mechanical_arm/Firmware/ArmMainControler/libraries/sdk/Peripheral/ch32v30x_usbotg_device.c:769
                break;
    4668:	ae65                	j	4a20 <OTG_FS_IRQHandler+0xbd2>
D:/projects/mechanical_arm/Firmware/ArmMainControler/libraries/sdk/Peripheral/ch32v30x_usbotg_device.c:758
                    if( chtype & 0x80 )
    466a:	fec40783          	lb	a5,-20(s0)
    466e:	0407d563          	bgez	a5,46b8 <OTG_FS_IRQHandler+0x86a>
D:/projects/mechanical_arm/Firmware/ArmMainControler/libraries/sdk/Peripheral/ch32v30x_usbotg_device.c:760
                        len = (SetupReqLen>DevEP0SIZE) ? DevEP0SIZE : SetupReqLen;
    4672:	8821d783          	lhu	a5,-1918(gp) # 200002a2 <SetupReqLen>
    4676:	01079713          	slli	a4,a5,0x10
    467a:	8341                	srli	a4,a4,0x10
    467c:	47a1                	li	a5,8
    467e:	00e7e963          	bltu	a5,a4,4690 <OTG_FS_IRQHandler+0x842>
D:/projects/mechanical_arm/Firmware/ArmMainControler/libraries/sdk/Peripheral/ch32v30x_usbotg_device.c:760 (discriminator 1)
    4682:	8821d783          	lhu	a5,-1918(gp) # 200002a2 <SetupReqLen>
    4686:	07c2                	slli	a5,a5,0x10
    4688:	83c1                	srli	a5,a5,0x10
    468a:	0ff7f793          	andi	a5,a5,255
    468e:	a011                	j	4692 <OTG_FS_IRQHandler+0x844>
D:/projects/mechanical_arm/Firmware/ArmMainControler/libraries/sdk/Peripheral/ch32v30x_usbotg_device.c:760 (discriminator 2)
    4690:	47a1                	li	a5,8
D:/projects/mechanical_arm/Firmware/ArmMainControler/libraries/sdk/Peripheral/ch32v30x_usbotg_device.c:760 (discriminator 4)
    4692:	fef407a3          	sb	a5,-17(s0)
D:/projects/mechanical_arm/Firmware/ArmMainControler/libraries/sdk/Peripheral/ch32v30x_usbotg_device.c:761 (discriminator 4)
                        SetupReqLen -= len;
    4696:	8821d783          	lhu	a5,-1918(gp) # 200002a2 <SetupReqLen>
    469a:	01079713          	slli	a4,a5,0x10
    469e:	8341                	srli	a4,a4,0x10
    46a0:	fef44783          	lbu	a5,-17(s0)
    46a4:	07c2                	slli	a5,a5,0x10
    46a6:	83c1                	srli	a5,a5,0x10
    46a8:	40f707b3          	sub	a5,a4,a5
    46ac:	01079713          	slli	a4,a5,0x10
    46b0:	8341                	srli	a4,a4,0x10
    46b2:	88e19123          	sh	a4,-1918(gp) # 200002a2 <SetupReqLen>
    46b6:	a019                	j	46bc <OTG_FS_IRQHandler+0x86e>
D:/projects/mechanical_arm/Firmware/ArmMainControler/libraries/sdk/Peripheral/ch32v30x_usbotg_device.c:763
                    else  len = 0;
    46b8:	fe0407a3          	sb	zero,-17(s0)
D:/projects/mechanical_arm/Firmware/ArmMainControler/libraries/sdk/Peripheral/ch32v30x_usbotg_device.c:765
                    USBOTG_FS->UEP0_TX_LEN  = len;
    46bc:	500007b7          	lui	a5,0x50000
    46c0:	fef44703          	lbu	a4,-17(s0)
    46c4:	0742                	slli	a4,a4,0x10
    46c6:	8341                	srli	a4,a4,0x10
    46c8:	02e79823          	sh	a4,48(a5) # 50000030 <_eusrstack+0x2fff0030>
D:/projects/mechanical_arm/Firmware/ArmMainControler/libraries/sdk/Peripheral/ch32v30x_usbotg_device.c:766
                    USBOTG_FS->UEP0_TX_CTRL = USBHD_UEP_T_TOG|USBHD_UEP_T_RES_ACK;
    46cc:	500007b7          	lui	a5,0x50000
    46d0:	4711                	li	a4,4
    46d2:	02e78923          	sb	a4,50(a5) # 50000032 <_eusrstack+0x2fff0032>
D:/projects/mechanical_arm/Firmware/ArmMainControler/libraries/sdk/Peripheral/ch32v30x_usbotg_device.c:767
                    USBOTG_FS->UEP0_RX_CTRL = USBHD_UEP_R_TOG|USBHD_UEP_R_RES_ACK;
    46d6:	500007b7          	lui	a5,0x50000
    46da:	4711                	li	a4,4
    46dc:	02e789a3          	sb	a4,51(a5) # 50000033 <_eusrstack+0x2fff0033>
D:/projects/mechanical_arm/Firmware/ArmMainControler/libraries/sdk/Peripheral/ch32v30x_usbotg_device.c:769
                break;
    46e0:	a681                	j	4a20 <OTG_FS_IRQHandler+0xbd2>
D:/projects/mechanical_arm/Firmware/ArmMainControler/libraries/sdk/Peripheral/ch32v30x_usbotg_device.c:772
                switch ( USBOTG_FS->INT_ST & ( USBHD_UIS_TOKEN_MASK | USBHD_UIS_ENDP_MASK ) )
    46e2:	500007b7          	lui	a5,0x50000
    46e6:	0077c783          	lbu	a5,7(a5) # 50000007 <_eusrstack+0x2fff0007>
    46ea:	0ff7f793          	andi	a5,a5,255
    46ee:	03f7f793          	andi	a5,a5,63
    46f2:	02100713          	li	a4,33
    46f6:	12e78563          	beq	a5,a4,4820 <OTG_FS_IRQHandler+0x9d2>
    46fa:	02200713          	li	a4,34
    46fe:	14e78d63          	beq	a5,a4,4858 <OTG_FS_IRQHandler+0xa0a>
    4702:	02000713          	li	a4,32
    4706:	18e79e63          	bne	a5,a4,48a2 <OTG_FS_IRQHandler+0xa54>
D:/projects/mechanical_arm/Firmware/ArmMainControler/libraries/sdk/Peripheral/ch32v30x_usbotg_device.c:775 (discriminator 6)
                        switch( SetupReqCode )
    470a:	8801c783          	lbu	a5,-1920(gp) # 200002a0 <SetupReqCode>
    470e:	0ff7f793          	andi	a5,a5,255
    4712:	4715                	li	a4,5
    4714:	0ae78063          	beq	a5,a4,47b4 <OTG_FS_IRQHandler+0x966>
    4718:	4719                	li	a4,6
    471a:	0ee79463          	bne	a5,a4,4802 <OTG_FS_IRQHandler+0x9b4>
D:/projects/mechanical_arm/Firmware/ArmMainControler/libraries/sdk/Peripheral/ch32v30x_usbotg_device.c:778
                                    len = SetupReqLen >= DevEP0SIZE ? DevEP0SIZE : SetupReqLen;
    471e:	8821d783          	lhu	a5,-1918(gp) # 200002a2 <SetupReqLen>
    4722:	01079713          	slli	a4,a5,0x10
    4726:	8341                	srli	a4,a4,0x10
    4728:	479d                	li	a5,7
    472a:	00e7e963          	bltu	a5,a4,473c <OTG_FS_IRQHandler+0x8ee>
D:/projects/mechanical_arm/Firmware/ArmMainControler/libraries/sdk/Peripheral/ch32v30x_usbotg_device.c:778 (discriminator 1)
    472e:	8821d783          	lhu	a5,-1918(gp) # 200002a2 <SetupReqLen>
    4732:	07c2                	slli	a5,a5,0x10
    4734:	83c1                	srli	a5,a5,0x10
    4736:	0ff7f793          	andi	a5,a5,255
    473a:	a011                	j	473e <OTG_FS_IRQHandler+0x8f0>
D:/projects/mechanical_arm/Firmware/ArmMainControler/libraries/sdk/Peripheral/ch32v30x_usbotg_device.c:778 (discriminator 2)
    473c:	47a1                	li	a5,8
D:/projects/mechanical_arm/Firmware/ArmMainControler/libraries/sdk/Peripheral/ch32v30x_usbotg_device.c:778 (discriminator 4)
    473e:	fef407a3          	sb	a5,-17(s0)
D:/projects/mechanical_arm/Firmware/ArmMainControler/libraries/sdk/Peripheral/ch32v30x_usbotg_device.c:779 (discriminator 4)
                                    memcpy( pEP0_DataBuf, pDescr, len );
    4742:	86c1a703          	lw	a4,-1940(gp) # 2000028c <pEP0_RAM_Addr>
    4746:	8781a783          	lw	a5,-1928(gp) # 20000298 <pDescr>
    474a:	fef44683          	lbu	a3,-17(s0)
    474e:	8636                	mv	a2,a3
    4750:	85be                	mv	a1,a5
    4752:	853a                	mv	a0,a4
    4754:	6b3010ef          	jal	ra,6606 <memcpy>
D:/projects/mechanical_arm/Firmware/ArmMainControler/libraries/sdk/Peripheral/ch32v30x_usbotg_device.c:780 (discriminator 4)
                                    SetupReqLen -= len;
    4758:	8821d783          	lhu	a5,-1918(gp) # 200002a2 <SetupReqLen>
    475c:	01079713          	slli	a4,a5,0x10
    4760:	8341                	srli	a4,a4,0x10
    4762:	fef44783          	lbu	a5,-17(s0)
    4766:	07c2                	slli	a5,a5,0x10
    4768:	83c1                	srli	a5,a5,0x10
    476a:	40f707b3          	sub	a5,a4,a5
    476e:	01079713          	slli	a4,a5,0x10
    4772:	8341                	srli	a4,a4,0x10
    4774:	88e19123          	sh	a4,-1918(gp) # 200002a2 <SetupReqLen>
D:/projects/mechanical_arm/Firmware/ArmMainControler/libraries/sdk/Peripheral/ch32v30x_usbotg_device.c:781 (discriminator 4)
                                    pDescr += len;
    4778:	8781a703          	lw	a4,-1928(gp) # 20000298 <pDescr>
    477c:	fef44783          	lbu	a5,-17(s0)
    4780:	973e                	add	a4,a4,a5
    4782:	86e1ac23          	sw	a4,-1928(gp) # 20000298 <pDescr>
D:/projects/mechanical_arm/Firmware/ArmMainControler/libraries/sdk/Peripheral/ch32v30x_usbotg_device.c:782 (discriminator 4)
                                    USBOTG_FS->UEP0_TX_LEN   = len;
    4786:	500007b7          	lui	a5,0x50000
    478a:	fef44703          	lbu	a4,-17(s0)
    478e:	0742                	slli	a4,a4,0x10
    4790:	8341                	srli	a4,a4,0x10
    4792:	02e79823          	sh	a4,48(a5) # 50000030 <_eusrstack+0x2fff0030>
D:/projects/mechanical_arm/Firmware/ArmMainControler/libraries/sdk/Peripheral/ch32v30x_usbotg_device.c:783 (discriminator 4)
                                    USBOTG_FS->UEP0_TX_CTRL ^= USBHD_UEP_T_TOG;
    4796:	500007b7          	lui	a5,0x50000
    479a:	0327c783          	lbu	a5,50(a5) # 50000032 <_eusrstack+0x2fff0032>
    479e:	0ff7f713          	andi	a4,a5,255
    47a2:	500007b7          	lui	a5,0x50000
    47a6:	00474713          	xori	a4,a4,4
    47aa:	0ff77713          	andi	a4,a4,255
    47ae:	02e78923          	sb	a4,50(a5) # 50000032 <_eusrstack+0x2fff0032>
D:/projects/mechanical_arm/Firmware/ArmMainControler/libraries/sdk/Peripheral/ch32v30x_usbotg_device.c:784 (discriminator 4)
                                    break;
    47b2:	a0b5                	j	481e <OTG_FS_IRQHandler+0x9d0>
D:/projects/mechanical_arm/Firmware/ArmMainControler/libraries/sdk/Peripheral/ch32v30x_usbotg_device.c:787
                                    USBOTG_FS->DEV_ADDR = (USBOTG_FS->DEV_ADDR&USBHD_UDA_GP_BIT) | SetupReqLen;
    47b4:	500007b7          	lui	a5,0x50000
    47b8:	0037c783          	lbu	a5,3(a5) # 50000003 <_eusrstack+0x2fff0003>
    47bc:	0ff7f793          	andi	a5,a5,255
    47c0:	07e2                	slli	a5,a5,0x18
    47c2:	87e1                	srai	a5,a5,0x18
    47c4:	f807f793          	andi	a5,a5,-128
    47c8:	01879713          	slli	a4,a5,0x18
    47cc:	8761                	srai	a4,a4,0x18
    47ce:	8821d783          	lhu	a5,-1918(gp) # 200002a2 <SetupReqLen>
    47d2:	07c2                	slli	a5,a5,0x10
    47d4:	83c1                	srli	a5,a5,0x10
    47d6:	07e2                	slli	a5,a5,0x18
    47d8:	87e1                	srai	a5,a5,0x18
    47da:	8fd9                	or	a5,a5,a4
    47dc:	01879713          	slli	a4,a5,0x18
    47e0:	8761                	srai	a4,a4,0x18
    47e2:	500007b7          	lui	a5,0x50000
    47e6:	0ff77713          	andi	a4,a4,255
    47ea:	00e781a3          	sb	a4,3(a5) # 50000003 <_eusrstack+0x2fff0003>
D:/projects/mechanical_arm/Firmware/ArmMainControler/libraries/sdk/Peripheral/ch32v30x_usbotg_device.c:788
                                    USBOTG_FS->UEP0_TX_CTRL = USBHD_UEP_T_RES_NAK;
    47ee:	500007b7          	lui	a5,0x50000
    47f2:	4709                	li	a4,2
    47f4:	02e78923          	sb	a4,50(a5) # 50000032 <_eusrstack+0x2fff0032>
D:/projects/mechanical_arm/Firmware/ArmMainControler/libraries/sdk/Peripheral/ch32v30x_usbotg_device.c:789
                                    USBOTG_FS->UEP0_RX_CTRL = USBHD_UEP_R_RES_ACK;
    47f8:	500007b7          	lui	a5,0x50000
    47fc:	020789a3          	sb	zero,51(a5) # 50000033 <_eusrstack+0x2fff0033>
D:/projects/mechanical_arm/Firmware/ArmMainControler/libraries/sdk/Peripheral/ch32v30x_usbotg_device.c:790
                                    break;
    4800:	a839                	j	481e <OTG_FS_IRQHandler+0x9d0>
D:/projects/mechanical_arm/Firmware/ArmMainControler/libraries/sdk/Peripheral/ch32v30x_usbotg_device.c:793
                                    USBOTG_FS->UEP0_TX_LEN = 0;
    4802:	500007b7          	lui	a5,0x50000
    4806:	02079823          	sh	zero,48(a5) # 50000030 <_eusrstack+0x2fff0030>
D:/projects/mechanical_arm/Firmware/ArmMainControler/libraries/sdk/Peripheral/ch32v30x_usbotg_device.c:794
                                    USBOTG_FS->UEP0_TX_CTRL = USBHD_UEP_T_RES_NAK;
    480a:	500007b7          	lui	a5,0x50000
    480e:	4709                	li	a4,2
    4810:	02e78923          	sb	a4,50(a5) # 50000032 <_eusrstack+0x2fff0032>
D:/projects/mechanical_arm/Firmware/ArmMainControler/libraries/sdk/Peripheral/ch32v30x_usbotg_device.c:795
                                    USBOTG_FS->UEP0_RX_CTRL = USBHD_UEP_R_RES_ACK;
    4814:	500007b7          	lui	a5,0x50000
    4818:	020789a3          	sb	zero,51(a5) # 50000033 <_eusrstack+0x2fff0033>
D:/projects/mechanical_arm/Firmware/ArmMainControler/libraries/sdk/Peripheral/ch32v30x_usbotg_device.c:796
                                    break;
    481c:	0001                	nop
D:/projects/mechanical_arm/Firmware/ArmMainControler/libraries/sdk/Peripheral/ch32v30x_usbotg_device.c:799
                        break;
    481e:	a059                	j	48a4 <OTG_FS_IRQHandler+0xa56>
D:/projects/mechanical_arm/Firmware/ArmMainControler/libraries/sdk/Peripheral/ch32v30x_usbotg_device.c:802
                    USBOTG_FS->UEP1_TX_CTRL  = (USBHD_UEP1_TX_CTRL & ~USBHD_UEP_T_RES_MASK) | USBHD_UEP_T_RES_ACK;
    4820:	500007b7          	lui	a5,0x50000
    4824:	0367c783          	lbu	a5,54(a5) # 50000036 <_eusrstack+0x2fff0036>
    4828:	0ff7f713          	andi	a4,a5,255
    482c:	500007b7          	lui	a5,0x50000
    4830:	9b71                	andi	a4,a4,-4
    4832:	0ff77713          	andi	a4,a4,255
    4836:	02e78b23          	sb	a4,54(a5) # 50000036 <_eusrstack+0x2fff0036>
D:/projects/mechanical_arm/Firmware/ArmMainControler/libraries/sdk/Peripheral/ch32v30x_usbotg_device.c:803
                    USBOTG_FS->UEP1_TX_CTRL ^= USBHD_UEP_T_TOG;
    483a:	500007b7          	lui	a5,0x50000
    483e:	0367c783          	lbu	a5,54(a5) # 50000036 <_eusrstack+0x2fff0036>
    4842:	0ff7f713          	andi	a4,a5,255
    4846:	500007b7          	lui	a5,0x50000
    484a:	00474713          	xori	a4,a4,4
    484e:	0ff77713          	andi	a4,a4,255
    4852:	02e78b23          	sb	a4,54(a5) # 50000036 <_eusrstack+0x2fff0036>
D:/projects/mechanical_arm/Firmware/ArmMainControler/libraries/sdk/Peripheral/ch32v30x_usbotg_device.c:804
                    break;
    4856:	a0b9                	j	48a4 <OTG_FS_IRQHandler+0xa56>
D:/projects/mechanical_arm/Firmware/ArmMainControler/libraries/sdk/Peripheral/ch32v30x_usbotg_device.c:807
                    USBOTG_FS->UEP2_TX_CTRL ^= USBHD_UEP_T_TOG;
    4858:	500007b7          	lui	a5,0x50000
    485c:	03a7c783          	lbu	a5,58(a5) # 5000003a <_eusrstack+0x2fff003a>
    4860:	0ff7f713          	andi	a4,a5,255
    4864:	500007b7          	lui	a5,0x50000
    4868:	00474713          	xori	a4,a4,4
    486c:	0ff77713          	andi	a4,a4,255
    4870:	02e78d23          	sb	a4,58(a5) # 5000003a <_eusrstack+0x2fff003a>
D:/projects/mechanical_arm/Firmware/ArmMainControler/libraries/sdk/Peripheral/ch32v30x_usbotg_device.c:808
                    USBOTG_FS->UEP2_TX_CTRL = (USBOTG_FS->UEP2_TX_CTRL & ~USBHD_UEP_T_RES_MASK) | USBHD_UEP_T_RES_NAK;
    4874:	500007b7          	lui	a5,0x50000
    4878:	03a7c783          	lbu	a5,58(a5) # 5000003a <_eusrstack+0x2fff003a>
    487c:	0ff7f793          	andi	a5,a5,255
    4880:	07e2                	slli	a5,a5,0x18
    4882:	87e1                	srai	a5,a5,0x18
    4884:	9bf1                	andi	a5,a5,-4
    4886:	07e2                	slli	a5,a5,0x18
    4888:	87e1                	srai	a5,a5,0x18
    488a:	0027e793          	ori	a5,a5,2
    488e:	01879713          	slli	a4,a5,0x18
    4892:	8761                	srai	a4,a4,0x18
    4894:	500007b7          	lui	a5,0x50000
    4898:	0ff77713          	andi	a4,a4,255
    489c:	02e78d23          	sb	a4,58(a5) # 5000003a <_eusrstack+0x2fff003a>
D:/projects/mechanical_arm/Firmware/ArmMainControler/libraries/sdk/Peripheral/ch32v30x_usbotg_device.c:809
                    break;
    48a0:	a011                	j	48a4 <OTG_FS_IRQHandler+0xa56>
D:/projects/mechanical_arm/Firmware/ArmMainControler/libraries/sdk/Peripheral/ch32v30x_usbotg_device.c:813
                    break;
    48a2:	0001                	nop
D:/projects/mechanical_arm/Firmware/ArmMainControler/libraries/sdk/Peripheral/ch32v30x_usbotg_device.c:816
                break;
    48a4:	aab5                	j	4a20 <OTG_FS_IRQHandler+0xbd2>
D:/projects/mechanical_arm/Firmware/ArmMainControler/libraries/sdk/Peripheral/ch32v30x_usbotg_device.c:820
                switch ( USBOTG_FS->INT_ST & ( USBHD_UIS_TOKEN_MASK | USBHD_UIS_ENDP_MASK ) )
    48a6:	500007b7          	lui	a5,0x50000
    48aa:	0077c783          	lbu	a5,7(a5) # 50000007 <_eusrstack+0x2fff0007>
    48ae:	0ff7f793          	andi	a5,a5,255
    48b2:	03f7f793          	andi	a5,a5,63
    48b6:	4705                	li	a4,1
    48b8:	0ce78763          	beq	a5,a4,4986 <OTG_FS_IRQHandler+0xb38>
    48bc:	4709                	li	a4,2
    48be:	10e78663          	beq	a5,a4,49ca <OTG_FS_IRQHandler+0xb7c>
    48c2:	14079e63          	bnez	a5,4a1e <OTG_FS_IRQHandler+0xbd0>
D:/projects/mechanical_arm/Firmware/ArmMainControler/libraries/sdk/Peripheral/ch32v30x_usbotg_device.c:823 (discriminator 7)
                        switch( SetupReqCode )
    48c6:	8801c783          	lbu	a5,-1920(gp) # 200002a0 <SetupReqCode>
    48ca:	0ff7f793          	andi	a5,a5,255
    48ce:	873e                	mv	a4,a5
    48d0:	02000793          	li	a5,32
    48d4:	0af71363          	bne	a4,a5,497a <OTG_FS_IRQHandler+0xb2c>
D:/projects/mechanical_arm/Firmware/ArmMainControler/libraries/sdk/Peripheral/ch32v30x_usbotg_device.c:826
                                if((((LINECODINGST *)pEP0_DataBuf)->dataRat[0] || ((LINECODINGST *)pEP0_DataBuf)->dataRat[1] ||
    48d8:	86c1a783          	lw	a5,-1940(gp) # 2000028c <pEP0_RAM_Addr>
    48dc:	0007c783          	lbu	a5,0(a5)
    48e0:	e385                	bnez	a5,4900 <OTG_FS_IRQHandler+0xab2>
D:/projects/mechanical_arm/Firmware/ArmMainControler/libraries/sdk/Peripheral/ch32v30x_usbotg_device.c:826 (discriminator 1)
    48e2:	86c1a783          	lw	a5,-1940(gp) # 2000028c <pEP0_RAM_Addr>
    48e6:	0017c783          	lbu	a5,1(a5)
    48ea:	eb99                	bnez	a5,4900 <OTG_FS_IRQHandler+0xab2>
D:/projects/mechanical_arm/Firmware/ArmMainControler/libraries/sdk/Peripheral/ch32v30x_usbotg_device.c:827 (discriminator 2)
                                  ((LINECODINGST *)pEP0_DataBuf)->dataRat[2] || ((LINECODINGST *)pEP0_DataBuf)->dataRat[3]))
    48ec:	86c1a783          	lw	a5,-1940(gp) # 2000028c <pEP0_RAM_Addr>
    48f0:	0027c783          	lbu	a5,2(a5)
D:/projects/mechanical_arm/Firmware/ArmMainControler/libraries/sdk/Peripheral/ch32v30x_usbotg_device.c:826 (discriminator 2)
                                if((((LINECODINGST *)pEP0_DataBuf)->dataRat[0] || ((LINECODINGST *)pEP0_DataBuf)->dataRat[1] ||
    48f4:	e791                	bnez	a5,4900 <OTG_FS_IRQHandler+0xab2>
D:/projects/mechanical_arm/Firmware/ArmMainControler/libraries/sdk/Peripheral/ch32v30x_usbotg_device.c:827
                                  ((LINECODINGST *)pEP0_DataBuf)->dataRat[2] || ((LINECODINGST *)pEP0_DataBuf)->dataRat[3]))
    48f6:	86c1a783          	lw	a5,-1940(gp) # 2000028c <pEP0_RAM_Addr>
    48fa:	0037c783          	lbu	a5,3(a5)
    48fe:	cf9d                	beqz	a5,493c <OTG_FS_IRQHandler+0xaee>
D:/projects/mechanical_arm/Firmware/ArmMainControler/libraries/sdk/Peripheral/ch32v30x_usbotg_device.c:831
                                            (((LINECODINGST *)pEP0_DataBuf)->dataRat[3] <<24) |
    4900:	86c1a783          	lw	a5,-1940(gp) # 2000028c <pEP0_RAM_Addr>
    4904:	0037c783          	lbu	a5,3(a5)
    4908:	01879713          	slli	a4,a5,0x18
D:/projects/mechanical_arm/Firmware/ArmMainControler/libraries/sdk/Peripheral/ch32v30x_usbotg_device.c:832
                                            (((LINECODINGST *)pEP0_DataBuf)->dataRat[2] <<16) |
    490c:	86c1a783          	lw	a5,-1940(gp) # 2000028c <pEP0_RAM_Addr>
    4910:	0027c783          	lbu	a5,2(a5)
    4914:	07c2                	slli	a5,a5,0x10
D:/projects/mechanical_arm/Firmware/ArmMainControler/libraries/sdk/Peripheral/ch32v30x_usbotg_device.c:831
                                            (((LINECODINGST *)pEP0_DataBuf)->dataRat[3] <<24) |
    4916:	8f5d                	or	a4,a4,a5
D:/projects/mechanical_arm/Firmware/ArmMainControler/libraries/sdk/Peripheral/ch32v30x_usbotg_device.c:833
                                            (((LINECODINGST *)pEP0_DataBuf)->dataRat[1] <<8) |
    4918:	86c1a783          	lw	a5,-1940(gp) # 2000028c <pEP0_RAM_Addr>
    491c:	0017c783          	lbu	a5,1(a5)
    4920:	07a2                	slli	a5,a5,0x8
D:/projects/mechanical_arm/Firmware/ArmMainControler/libraries/sdk/Peripheral/ch32v30x_usbotg_device.c:832
                                            (((LINECODINGST *)pEP0_DataBuf)->dataRat[2] <<16) |
    4922:	8fd9                	or	a5,a5,a4
D:/projects/mechanical_arm/Firmware/ArmMainControler/libraries/sdk/Peripheral/ch32v30x_usbotg_device.c:834
                                            (((LINECODINGST *)pEP0_DataBuf)->dataRat[0]));
    4924:	86c1a703          	lw	a4,-1940(gp) # 2000028c <pEP0_RAM_Addr>
    4928:	00074703          	lbu	a4,0(a4)
D:/projects/mechanical_arm/Firmware/ArmMainControler/libraries/sdk/Peripheral/ch32v30x_usbotg_device.c:830
                                    printf( "\nBaud Rate = %d",
    492c:	8fd9                	or	a5,a5,a4
    492e:	85be                	mv	a1,a5
    4930:	67a5                	lui	a5,0x9
    4932:	7fc78513          	addi	a0,a5,2044 # 97fc <_sbrk+0x12a>
    4936:	77c020ef          	jal	ra,70b2 <iprintf>
D:/projects/mechanical_arm/Firmware/ArmMainControler/libraries/sdk/Peripheral/ch32v30x_usbotg_device.c:843
                               break;
    493a:	a83d                	j	4978 <OTG_FS_IRQHandler+0xb2a>
D:/projects/mechanical_arm/Firmware/ArmMainControler/libraries/sdk/Peripheral/ch32v30x_usbotg_device.c:838
                                    printf( "\ndataBit = %d",  ((LINECODINGST *)pEP0_DataBuf)->dataBit);
    493c:	86c1a783          	lw	a5,-1940(gp) # 2000028c <pEP0_RAM_Addr>
    4940:	0067c783          	lbu	a5,6(a5)
    4944:	85be                	mv	a1,a5
    4946:	67a9                	lui	a5,0xa
    4948:	80c78513          	addi	a0,a5,-2036 # 980c <_sbrk+0x13a>
    494c:	766020ef          	jal	ra,70b2 <iprintf>
D:/projects/mechanical_arm/Firmware/ArmMainControler/libraries/sdk/Peripheral/ch32v30x_usbotg_device.c:839
                                    printf( "\nstopBit = %d",  ((LINECODINGST *)pEP0_DataBuf)->stopBit);
    4950:	86c1a783          	lw	a5,-1940(gp) # 2000028c <pEP0_RAM_Addr>
    4954:	0047c783          	lbu	a5,4(a5)
    4958:	85be                	mv	a1,a5
    495a:	67a9                	lui	a5,0xa
    495c:	81c78513          	addi	a0,a5,-2020 # 981c <_sbrk+0x14a>
    4960:	752020ef          	jal	ra,70b2 <iprintf>
D:/projects/mechanical_arm/Firmware/ArmMainControler/libraries/sdk/Peripheral/ch32v30x_usbotg_device.c:840
                                    printf( "\nparityType = %d",  ((LINECODINGST *)pEP0_DataBuf)->parityType);
    4964:	86c1a783          	lw	a5,-1940(gp) # 2000028c <pEP0_RAM_Addr>
    4968:	0057c783          	lbu	a5,5(a5)
    496c:	85be                	mv	a1,a5
    496e:	67a9                	lui	a5,0xa
    4970:	82c78513          	addi	a0,a5,-2004 # 982c <_sbrk+0x15a>
    4974:	73e020ef          	jal	ra,70b2 <iprintf>
D:/projects/mechanical_arm/Firmware/ArmMainControler/libraries/sdk/Peripheral/ch32v30x_usbotg_device.c:843
                               break;
    4978:	0001                	nop
D:/projects/mechanical_arm/Firmware/ArmMainControler/libraries/sdk/Peripheral/ch32v30x_usbotg_device.c:847
                    len = USBOTG_FS->RX_LEN;
    497a:	500007b7          	lui	a5,0x50000
    497e:	479c                	lw	a5,8(a5)
    4980:	fef407a3          	sb	a5,-17(s0)
D:/projects/mechanical_arm/Firmware/ArmMainControler/libraries/sdk/Peripheral/ch32v30x_usbotg_device.c:848
                    break;
    4984:	a841                	j	4a14 <OTG_FS_IRQHandler+0xbc6>
D:/projects/mechanical_arm/Firmware/ArmMainControler/libraries/sdk/Peripheral/ch32v30x_usbotg_device.c:851
                        if ( USBOTG_FS->INT_ST & USBHD_UIS_TOG_OK )
    4986:	500007b7          	lui	a5,0x50000
    498a:	0077c783          	lbu	a5,7(a5) # 50000007 <_eusrstack+0x2fff0007>
    498e:	0ff7f793          	andi	a5,a5,255
    4992:	0407f793          	andi	a5,a5,64
    4996:	cfa5                	beqz	a5,4a0e <OTG_FS_IRQHandler+0xbc0>
D:/projects/mechanical_arm/Firmware/ArmMainControler/libraries/sdk/Peripheral/ch32v30x_usbotg_device.c:853
                            USBOTG_FS->UEP1_RX_CTRL ^= USBHD_UEP_R_TOG;
    4998:	500007b7          	lui	a5,0x50000
    499c:	0377c783          	lbu	a5,55(a5) # 50000037 <_eusrstack+0x2fff0037>
    49a0:	0ff7f713          	andi	a4,a5,255
    49a4:	500007b7          	lui	a5,0x50000
    49a8:	00474713          	xori	a4,a4,4
    49ac:	0ff77713          	andi	a4,a4,255
    49b0:	02e78ba3          	sb	a4,55(a5) # 50000037 <_eusrstack+0x2fff0037>
D:/projects/mechanical_arm/Firmware/ArmMainControler/libraries/sdk/Peripheral/ch32v30x_usbotg_device.c:854
                            len = USBOTG_FS->RX_LEN;
    49b4:	500007b7          	lui	a5,0x50000
    49b8:	479c                	lw	a5,8(a5)
    49ba:	fef407a3          	sb	a5,-17(s0)
D:/projects/mechanical_arm/Firmware/ArmMainControler/libraries/sdk/Peripheral/ch32v30x_usbotg_device.c:856
                            DevEP1_OUT_Deal( len );
    49be:	fef44783          	lbu	a5,-17(s0)
    49c2:	853e                	mv	a0,a5
    49c4:	bbeff0ef          	jal	ra,3d82 <DevEP1_OUT_Deal>
D:/projects/mechanical_arm/Firmware/ArmMainControler/libraries/sdk/Peripheral/ch32v30x_usbotg_device.c:858
                        break;
    49c8:	a099                	j	4a0e <OTG_FS_IRQHandler+0xbc0>
D:/projects/mechanical_arm/Firmware/ArmMainControler/libraries/sdk/Peripheral/ch32v30x_usbotg_device.c:861
                        if ( USBOTG_FS->INT_ST & USBHD_UIS_TOG_OK )
    49ca:	500007b7          	lui	a5,0x50000
    49ce:	0077c783          	lbu	a5,7(a5) # 50000007 <_eusrstack+0x2fff0007>
    49d2:	0ff7f793          	andi	a5,a5,255
    49d6:	0407f793          	andi	a5,a5,64
    49da:	cf85                	beqz	a5,4a12 <OTG_FS_IRQHandler+0xbc4>
D:/projects/mechanical_arm/Firmware/ArmMainControler/libraries/sdk/Peripheral/ch32v30x_usbotg_device.c:863
                            USBOTG_FS->UEP2_RX_CTRL ^= USBHD_UEP_R_TOG;
    49dc:	500007b7          	lui	a5,0x50000
    49e0:	03b7c783          	lbu	a5,59(a5) # 5000003b <_eusrstack+0x2fff003b>
    49e4:	0ff7f713          	andi	a4,a5,255
    49e8:	500007b7          	lui	a5,0x50000
    49ec:	00474713          	xori	a4,a4,4
    49f0:	0ff77713          	andi	a4,a4,255
    49f4:	02e78da3          	sb	a4,59(a5) # 5000003b <_eusrstack+0x2fff003b>
D:/projects/mechanical_arm/Firmware/ArmMainControler/libraries/sdk/Peripheral/ch32v30x_usbotg_device.c:864
                            len = USBOTG_FS->RX_LEN;
    49f8:	500007b7          	lui	a5,0x50000
    49fc:	479c                	lw	a5,8(a5)
    49fe:	fef407a3          	sb	a5,-17(s0)
D:/projects/mechanical_arm/Firmware/ArmMainControler/libraries/sdk/Peripheral/ch32v30x_usbotg_device.c:866
                            DevEP2_OUT_Deal( len );
    4a02:	fef44783          	lbu	a5,-17(s0)
    4a06:	853e                	mv	a0,a5
    4a08:	be0ff0ef          	jal	ra,3de8 <DevEP2_OUT_Deal>
D:/projects/mechanical_arm/Firmware/ArmMainControler/libraries/sdk/Peripheral/ch32v30x_usbotg_device.c:868
                        break;
    4a0c:	a019                	j	4a12 <OTG_FS_IRQHandler+0xbc4>
D:/projects/mechanical_arm/Firmware/ArmMainControler/libraries/sdk/Peripheral/ch32v30x_usbotg_device.c:858
                        break;
    4a0e:	0001                	nop
    4a10:	a039                	j	4a1e <OTG_FS_IRQHandler+0xbd0>
D:/projects/mechanical_arm/Firmware/ArmMainControler/libraries/sdk/Peripheral/ch32v30x_usbotg_device.c:868
                        break;
    4a12:	0001                	nop
D:/projects/mechanical_arm/Firmware/ArmMainControler/libraries/sdk/Peripheral/ch32v30x_usbotg_device.c:871
                break;
    4a14:	a029                	j	4a1e <OTG_FS_IRQHandler+0xbd0>
D:/projects/mechanical_arm/Firmware/ArmMainControler/libraries/sdk/Peripheral/ch32v30x_usbotg_device.c:875
                break;
    4a16:	0001                	nop
    4a18:	a021                	j	4a20 <OTG_FS_IRQHandler+0xbd2>
D:/projects/mechanical_arm/Firmware/ArmMainControler/libraries/sdk/Peripheral/ch32v30x_usbotg_device.c:878
                break;
    4a1a:	0001                	nop
    4a1c:	a011                	j	4a20 <OTG_FS_IRQHandler+0xbd2>
D:/projects/mechanical_arm/Firmware/ArmMainControler/libraries/sdk/Peripheral/ch32v30x_usbotg_device.c:871
                break;
    4a1e:	0001                	nop
D:/projects/mechanical_arm/Firmware/ArmMainControler/libraries/sdk/Peripheral/ch32v30x_usbotg_device.c:882

        }

        USBOTG_FS->INT_FG = USBHD_UIF_TRANSFER;
    4a20:	500007b7          	lui	a5,0x50000
    4a24:	4709                	li	a4,2
    4a26:	00e78323          	sb	a4,6(a5) # 50000006 <_eusrstack+0x2fff0006>
D:/projects/mechanical_arm/Firmware/ArmMainControler/libraries/sdk/Peripheral/ch32v30x_usbotg_device.c:908
    }
    else
    {
        USBOTG_FS->INT_FG = intflag;
    }
}
    4a2a:	a079                	j	4ab8 <OTG_FS_IRQHandler+0xc6a>
D:/projects/mechanical_arm/Firmware/ArmMainControler/libraries/sdk/Peripheral/ch32v30x_usbotg_device.c:884
    else if( intflag & USBHD_UIF_BUS_RST )
    4a2c:	fed44783          	lbu	a5,-19(s0)
    4a30:	8b85                	andi	a5,a5,1
    4a32:	cfb9                	beqz	a5,4a90 <OTG_FS_IRQHandler+0xc42>
D:/projects/mechanical_arm/Firmware/ArmMainControler/libraries/sdk/Peripheral/ch32v30x_usbotg_device.c:886
        USBOTG_FS->DEV_ADDR = 0;
    4a34:	500007b7          	lui	a5,0x50000
    4a38:	000781a3          	sb	zero,3(a5) # 50000003 <_eusrstack+0x2fff0003>
D:/projects/mechanical_arm/Firmware/ArmMainControler/libraries/sdk/Peripheral/ch32v30x_usbotg_device.c:888
        USBOTG_FS->UEP0_RX_CTRL = USBHD_UEP_R_RES_ACK;
    4a3c:	500007b7          	lui	a5,0x50000
    4a40:	020789a3          	sb	zero,51(a5) # 50000033 <_eusrstack+0x2fff0033>
D:/projects/mechanical_arm/Firmware/ArmMainControler/libraries/sdk/Peripheral/ch32v30x_usbotg_device.c:889
        USBOTG_FS->UEP1_RX_CTRL = USBHD_UEP_R_RES_ACK;
    4a44:	500007b7          	lui	a5,0x50000
    4a48:	02078ba3          	sb	zero,55(a5) # 50000037 <_eusrstack+0x2fff0037>
D:/projects/mechanical_arm/Firmware/ArmMainControler/libraries/sdk/Peripheral/ch32v30x_usbotg_device.c:890
        USBOTG_FS->UEP2_RX_CTRL = USBHD_UEP_R_RES_ACK;
    4a4c:	500007b7          	lui	a5,0x50000
    4a50:	02078da3          	sb	zero,59(a5) # 5000003b <_eusrstack+0x2fff003b>
D:/projects/mechanical_arm/Firmware/ArmMainControler/libraries/sdk/Peripheral/ch32v30x_usbotg_device.c:892
        USBOTG_FS->UEP0_TX_CTRL = USBHD_UEP_T_RES_NAK;
    4a54:	500007b7          	lui	a5,0x50000
    4a58:	4709                	li	a4,2
    4a5a:	02e78923          	sb	a4,50(a5) # 50000032 <_eusrstack+0x2fff0032>
D:/projects/mechanical_arm/Firmware/ArmMainControler/libraries/sdk/Peripheral/ch32v30x_usbotg_device.c:893
        USBOTG_FS->UEP1_TX_CTRL = USBHD_UEP_T_RES_NAK;
    4a5e:	500007b7          	lui	a5,0x50000
    4a62:	4709                	li	a4,2
    4a64:	02e78b23          	sb	a4,54(a5) # 50000036 <_eusrstack+0x2fff0036>
D:/projects/mechanical_arm/Firmware/ArmMainControler/libraries/sdk/Peripheral/ch32v30x_usbotg_device.c:894
        USBOTG_FS->UEP2_TX_CTRL = USBHD_UEP_T_RES_NAK;
    4a68:	500007b7          	lui	a5,0x50000
    4a6c:	4709                	li	a4,2
    4a6e:	02e78d23          	sb	a4,58(a5) # 5000003a <_eusrstack+0x2fff003a>
D:/projects/mechanical_arm/Firmware/ArmMainControler/libraries/sdk/Peripheral/ch32v30x_usbotg_device.c:896
        USBOTG_FS->INT_FG |= USBHD_UIF_BUS_RST;
    4a72:	500007b7          	lui	a5,0x50000
    4a76:	0067c783          	lbu	a5,6(a5) # 50000006 <_eusrstack+0x2fff0006>
    4a7a:	0ff7f713          	andi	a4,a5,255
    4a7e:	500007b7          	lui	a5,0x50000
    4a82:	00176713          	ori	a4,a4,1
    4a86:	0ff77713          	andi	a4,a4,255
    4a8a:	00e78323          	sb	a4,6(a5) # 50000006 <_eusrstack+0x2fff0006>
D:/projects/mechanical_arm/Firmware/ArmMainControler/libraries/sdk/Peripheral/ch32v30x_usbotg_device.c:908
}
    4a8e:	a02d                	j	4ab8 <OTG_FS_IRQHandler+0xc6a>
D:/projects/mechanical_arm/Firmware/ArmMainControler/libraries/sdk/Peripheral/ch32v30x_usbotg_device.c:898
    else if( intflag & USBHD_UIF_SUSPEND )
    4a90:	fed44783          	lbu	a5,-19(s0)
    4a94:	8b91                	andi	a5,a5,4
    4a96:	cb99                	beqz	a5,4aac <OTG_FS_IRQHandler+0xc5e>
D:/projects/mechanical_arm/Firmware/ArmMainControler/libraries/sdk/Peripheral/ch32v30x_usbotg_device.c:900
        if ( USBOTG_FS->MIS_ST & USBHD_UMS_SUSPEND ) {;}
    4a98:	500007b7          	lui	a5,0x50000
    4a9c:	0057c783          	lbu	a5,5(a5) # 50000005 <_eusrstack+0x2fff0005>
D:/projects/mechanical_arm/Firmware/ArmMainControler/libraries/sdk/Peripheral/ch32v30x_usbotg_device.c:902
        USBOTG_FS->INT_FG = USBHD_UIF_SUSPEND;
    4aa0:	500007b7          	lui	a5,0x50000
    4aa4:	4711                	li	a4,4
    4aa6:	00e78323          	sb	a4,6(a5) # 50000006 <_eusrstack+0x2fff0006>
D:/projects/mechanical_arm/Firmware/ArmMainControler/libraries/sdk/Peripheral/ch32v30x_usbotg_device.c:908
}
    4aaa:	a039                	j	4ab8 <OTG_FS_IRQHandler+0xc6a>
D:/projects/mechanical_arm/Firmware/ArmMainControler/libraries/sdk/Peripheral/ch32v30x_usbotg_device.c:906
        USBOTG_FS->INT_FG = intflag;
    4aac:	500007b7          	lui	a5,0x50000
    4ab0:	fed44703          	lbu	a4,-19(s0)
    4ab4:	00e78323          	sb	a4,6(a5) # 50000006 <_eusrstack+0x2fff0006>
D:/projects/mechanical_arm/Firmware/ArmMainControler/libraries/sdk/Peripheral/ch32v30x_usbotg_device.c:908
}
    4ab8:	0001                	nop
    4aba:	4472                	lw	s0,28(sp)
    4abc:	6105                	addi	sp,sp,32
    4abe:	30200073          	mret

00004ac2 <__adddf3>:
__adddf3():
    4ac2:	00100837          	lui	a6,0x100
    4ac6:	1101                	addi	sp,sp,-32
    4ac8:	187d                	addi	a6,a6,-1
    4aca:	00b87733          	and	a4,a6,a1
    4ace:	ca26                	sw	s1,20(sp)
    4ad0:	00d87833          	and	a6,a6,a3
    4ad4:	0145d493          	srli	s1,a1,0x14
    4ad8:	0146d313          	srli	t1,a3,0x14
    4adc:	00371e13          	slli	t3,a4,0x3
    4ae0:	c64e                	sw	s3,12(sp)
    4ae2:	01d55713          	srli	a4,a0,0x1d
    4ae6:	080e                	slli	a6,a6,0x3
    4ae8:	01d65793          	srli	a5,a2,0x1d
    4aec:	7ff4f493          	andi	s1,s1,2047
    4af0:	7ff37313          	andi	t1,t1,2047
    4af4:	ce06                	sw	ra,28(sp)
    4af6:	cc22                	sw	s0,24(sp)
    4af8:	c84a                	sw	s2,16(sp)
    4afa:	01f5d993          	srli	s3,a1,0x1f
    4afe:	01f6de93          	srli	t4,a3,0x1f
    4b02:	01c76733          	or	a4,a4,t3
    4b06:	00351f13          	slli	t5,a0,0x3
    4b0a:	0107e833          	or	a6,a5,a6
    4b0e:	00361f93          	slli	t6,a2,0x3
    4b12:	40648e33          	sub	t3,s1,t1
    4b16:	19d98063          	beq	s3,t4,4c96 <__adddf3+0x1d4>
    4b1a:	13c05663          	blez	t3,4c46 <__adddf3+0x184>
    4b1e:	1c030463          	beqz	t1,4ce6 <__adddf3+0x224>
    4b22:	008006b7          	lui	a3,0x800
    4b26:	7ff00793          	li	a5,2047
    4b2a:	00d86833          	or	a6,a6,a3
    4b2e:	36f48f63          	beq	s1,a5,4eac <__adddf3+0x3ea>
    4b32:	03800793          	li	a5,56
    4b36:	35c7c063          	blt	a5,t3,4e76 <__adddf3+0x3b4>
    4b3a:	47fd                	li	a5,31
    4b3c:	47c7cd63          	blt	a5,t3,4fb6 <__adddf3+0x4f4>
    4b40:	02000513          	li	a0,32
    4b44:	41c50533          	sub	a0,a0,t3
    4b48:	01cfd7b3          	srl	a5,t6,t3
    4b4c:	00a816b3          	sll	a3,a6,a0
    4b50:	00af9933          	sll	s2,t6,a0
    4b54:	8edd                	or	a3,a3,a5
    4b56:	01203933          	snez	s2,s2
    4b5a:	01c857b3          	srl	a5,a6,t3
    4b5e:	0126e933          	or	s2,a3,s2
    4b62:	8f1d                	sub	a4,a4,a5
    4b64:	412f0933          	sub	s2,t5,s2
    4b68:	012f37b3          	sltu	a5,t5,s2
    4b6c:	40f70633          	sub	a2,a4,a5
    4b70:	00861793          	slli	a5,a2,0x8
    4b74:	2407d463          	bgez	a5,4dbc <__adddf3+0x2fa>
    4b78:	00800737          	lui	a4,0x800
    4b7c:	177d                	addi	a4,a4,-1
    4b7e:	00e67433          	and	s0,a2,a4
    4b82:	2c040c63          	beqz	s0,4e5a <__adddf3+0x398>
    4b86:	8522                	mv	a0,s0
    4b88:	209010ef          	jal	ra,6590 <__clzsi2>
    4b8c:	ff850713          	addi	a4,a0,-8 # 7ff8 <_dtoa_r+0xbe0>
    4b90:	02000793          	li	a5,32
    4b94:	8f99                	sub	a5,a5,a4
    4b96:	00f957b3          	srl	a5,s2,a5
    4b9a:	00e41633          	sll	a2,s0,a4
    4b9e:	8fd1                	or	a5,a5,a2
    4ba0:	00e91933          	sll	s2,s2,a4
    4ba4:	2a974163          	blt	a4,s1,4e46 <__adddf3+0x384>
    4ba8:	40970533          	sub	a0,a4,s1
    4bac:	00150613          	addi	a2,a0,1
    4bb0:	477d                	li	a4,31
    4bb2:	38c74d63          	blt	a4,a2,4f4c <__adddf3+0x48a>
    4bb6:	02000713          	li	a4,32
    4bba:	8f11                	sub	a4,a4,a2
    4bbc:	00c956b3          	srl	a3,s2,a2
    4bc0:	00e91933          	sll	s2,s2,a4
    4bc4:	00e79733          	sll	a4,a5,a4
    4bc8:	8f55                	or	a4,a4,a3
    4bca:	01203933          	snez	s2,s2
    4bce:	01276933          	or	s2,a4,s2
    4bd2:	00c7d633          	srl	a2,a5,a2
    4bd6:	4481                	li	s1,0
    4bd8:	00797793          	andi	a5,s2,7
    4bdc:	cf81                	beqz	a5,4bf4 <__adddf3+0x132>
    4bde:	00f97713          	andi	a4,s2,15
    4be2:	4791                	li	a5,4
    4be4:	00f70863          	beq	a4,a5,4bf4 <__adddf3+0x132>
    4be8:	00490713          	addi	a4,s2,4
    4bec:	01273933          	sltu	s2,a4,s2
    4bf0:	964a                	add	a2,a2,s2
    4bf2:	893a                	mv	s2,a4
    4bf4:	00861793          	slli	a5,a2,0x8
    4bf8:	1c07d663          	bgez	a5,4dc4 <__adddf3+0x302>
    4bfc:	00148513          	addi	a0,s1,1
    4c00:	7ff00793          	li	a5,2047
    4c04:	85ce                	mv	a1,s3
    4c06:	20f50463          	beq	a0,a5,4e0e <__adddf3+0x34c>
    4c0a:	ff8007b7          	lui	a5,0xff800
    4c0e:	17fd                	addi	a5,a5,-1
    4c10:	8ff1                	and	a5,a5,a2
    4c12:	01d79893          	slli	a7,a5,0x1d
    4c16:	00395913          	srli	s2,s2,0x3
    4c1a:	07a6                	slli	a5,a5,0x9
    4c1c:	0128e8b3          	or	a7,a7,s2
    4c20:	83b1                	srli	a5,a5,0xc
    4c22:	7ff57513          	andi	a0,a0,2047
    4c26:	00c79693          	slli	a3,a5,0xc
    4c2a:	0552                	slli	a0,a0,0x14
    4c2c:	40f2                	lw	ra,28(sp)
    4c2e:	4462                	lw	s0,24(sp)
    4c30:	82b1                	srli	a3,a3,0xc
    4c32:	05fe                	slli	a1,a1,0x1f
    4c34:	8ec9                	or	a3,a3,a0
    4c36:	8ecd                	or	a3,a3,a1
    4c38:	44d2                	lw	s1,20(sp)
    4c3a:	4942                	lw	s2,16(sp)
    4c3c:	49b2                	lw	s3,12(sp)
    4c3e:	8546                	mv	a0,a7
    4c40:	85b6                	mv	a1,a3
    4c42:	6105                	addi	sp,sp,32
    4c44:	8082                	ret
    4c46:	0a0e1e63          	bnez	t3,4d02 <__adddf3+0x240>
    4c4a:	00148313          	addi	t1,s1,1
    4c4e:	7fe37313          	andi	t1,t1,2046
    4c52:	22031763          	bnez	t1,4e80 <__adddf3+0x3be>
    4c56:	01e767b3          	or	a5,a4,t5
    4c5a:	01f868b3          	or	a7,a6,t6
    4c5e:	1a049d63          	bnez	s1,4e18 <__adddf3+0x356>
    4c62:	40078763          	beqz	a5,5070 <__adddf3+0x5ae>
    4c66:	44088663          	beqz	a7,50b2 <__adddf3+0x5f0>
    4c6a:	41ff0933          	sub	s2,t5,t6
    4c6e:	410707b3          	sub	a5,a4,a6
    4c72:	012f3633          	sltu	a2,t5,s2
    4c76:	40c78633          	sub	a2,a5,a2
    4c7a:	00861793          	slli	a5,a2,0x8
    4c7e:	4c07d663          	bgez	a5,514a <__adddf3+0x688>
    4c82:	41ef8933          	sub	s2,t6,t5
    4c86:	40e807b3          	sub	a5,a6,a4
    4c8a:	012fb633          	sltu	a2,t6,s2
    4c8e:	40c78633          	sub	a2,a5,a2
    4c92:	89f6                	mv	s3,t4
    4c94:	b791                	j	4bd8 <__adddf3+0x116>
    4c96:	0fc05063          	blez	t3,4d76 <__adddf3+0x2b4>
    4c9a:	0c030063          	beqz	t1,4d5a <__adddf3+0x298>
    4c9e:	008006b7          	lui	a3,0x800
    4ca2:	7ff00793          	li	a5,2047
    4ca6:	00d86833          	or	a6,a6,a3
    4caa:	3af48a63          	beq	s1,a5,505e <__adddf3+0x59c>
    4cae:	03800793          	li	a5,56
    4cb2:	13c7cb63          	blt	a5,t3,4de8 <__adddf3+0x326>
    4cb6:	47fd                	li	a5,31
    4cb8:	35c7df63          	bge	a5,t3,5016 <__adddf3+0x554>
    4cbc:	fe0e0913          	addi	s2,t3,-32
    4cc0:	02000793          	li	a5,32
    4cc4:	012856b3          	srl	a3,a6,s2
    4cc8:	00fe0a63          	beq	t3,a5,4cdc <__adddf3+0x21a>
    4ccc:	04000913          	li	s2,64
    4cd0:	41c90933          	sub	s2,s2,t3
    4cd4:	01281933          	sll	s2,a6,s2
    4cd8:	012fefb3          	or	t6,t6,s2
    4cdc:	01f03933          	snez	s2,t6
    4ce0:	00d96933          	or	s2,s2,a3
    4ce4:	a231                	j	4df0 <__adddf3+0x32e>
    4ce6:	01f867b3          	or	a5,a6,t6
    4cea:	1c078a63          	beqz	a5,4ebe <__adddf3+0x3fc>
    4cee:	fffe0793          	addi	a5,t3,-1
    4cf2:	38078c63          	beqz	a5,508a <__adddf3+0x5c8>
    4cf6:	7ff00693          	li	a3,2047
    4cfa:	1ade0963          	beq	t3,a3,4eac <__adddf3+0x3ea>
    4cfe:	8e3e                	mv	t3,a5
    4d00:	bd0d                	j	4b32 <__adddf3+0x70>
    4d02:	409305b3          	sub	a1,t1,s1
    4d06:	22049163          	bnez	s1,4f28 <__adddf3+0x466>
    4d0a:	01e767b3          	or	a5,a4,t5
    4d0e:	32078763          	beqz	a5,503c <__adddf3+0x57a>
    4d12:	fff58793          	addi	a5,a1,-1
    4d16:	44078163          	beqz	a5,5158 <__adddf3+0x696>
    4d1a:	7ff00693          	li	a3,2047
    4d1e:	20d58c63          	beq	a1,a3,4f36 <__adddf3+0x474>
    4d22:	85be                	mv	a1,a5
    4d24:	03800793          	li	a5,56
    4d28:	2ab7cc63          	blt	a5,a1,4fe0 <__adddf3+0x51e>
    4d2c:	47fd                	li	a5,31
    4d2e:	3cb7cf63          	blt	a5,a1,510c <__adddf3+0x64a>
    4d32:	02000793          	li	a5,32
    4d36:	8f8d                	sub	a5,a5,a1
    4d38:	00f71933          	sll	s2,a4,a5
    4d3c:	00bf56b3          	srl	a3,t5,a1
    4d40:	00ff17b3          	sll	a5,t5,a5
    4d44:	00d96933          	or	s2,s2,a3
    4d48:	00f037b3          	snez	a5,a5
    4d4c:	00b75733          	srl	a4,a4,a1
    4d50:	00f96933          	or	s2,s2,a5
    4d54:	40e80833          	sub	a6,a6,a4
    4d58:	ac41                	j	4fe8 <__adddf3+0x526>
    4d5a:	01f867b3          	or	a5,a6,t6
    4d5e:	34078063          	beqz	a5,509e <__adddf3+0x5dc>
    4d62:	fffe0793          	addi	a5,t3,-1
    4d66:	20078a63          	beqz	a5,4f7a <__adddf3+0x4b8>
    4d6a:	7ff00693          	li	a3,2047
    4d6e:	2ede0863          	beq	t3,a3,505e <__adddf3+0x59c>
    4d72:	8e3e                	mv	t3,a5
    4d74:	bf2d                	j	4cae <__adddf3+0x1ec>
    4d76:	140e1e63          	bnez	t3,4ed2 <__adddf3+0x410>
    4d7a:	00148693          	addi	a3,s1,1
    4d7e:	7fe6f793          	andi	a5,a3,2046
    4d82:	34079163          	bnez	a5,50c4 <__adddf3+0x602>
    4d86:	01e767b3          	or	a5,a4,t5
    4d8a:	2c049563          	bnez	s1,5054 <__adddf3+0x592>
    4d8e:	3e078063          	beqz	a5,516e <__adddf3+0x6ac>
    4d92:	01f867b3          	or	a5,a6,t6
    4d96:	30078e63          	beqz	a5,50b2 <__adddf3+0x5f0>
    4d9a:	01ff0933          	add	s2,t5,t6
    4d9e:	010707b3          	add	a5,a4,a6
    4da2:	01e93f33          	sltu	t5,s2,t5
    4da6:	01e78633          	add	a2,a5,t5
    4daa:	00861793          	slli	a5,a2,0x8
    4dae:	0007d763          	bgez	a5,4dbc <__adddf3+0x2fa>
    4db2:	ff8007b7          	lui	a5,0xff800
    4db6:	17fd                	addi	a5,a5,-1
    4db8:	8e7d                	and	a2,a2,a5
    4dba:	4485                	li	s1,1
    4dbc:	00797793          	andi	a5,s2,7
    4dc0:	e0079fe3          	bnez	a5,4bde <__adddf3+0x11c>
    4dc4:	01d61793          	slli	a5,a2,0x1d
    4dc8:	00395893          	srli	a7,s2,0x3
    4dcc:	00f8e8b3          	or	a7,a7,a5
    4dd0:	00365793          	srli	a5,a2,0x3
    4dd4:	7ff00713          	li	a4,2047
    4dd8:	04e48d63          	beq	s1,a4,4e32 <__adddf3+0x370>
    4ddc:	07b2                	slli	a5,a5,0xc
    4dde:	83b1                	srli	a5,a5,0xc
    4de0:	7ff4f513          	andi	a0,s1,2047
    4de4:	85ce                	mv	a1,s3
    4de6:	b581                	j	4c26 <__adddf3+0x164>
    4de8:	01f86933          	or	s2,a6,t6
    4dec:	01203933          	snez	s2,s2
    4df0:	997a                	add	s2,s2,t5
    4df2:	01e937b3          	sltu	a5,s2,t5
    4df6:	00e78633          	add	a2,a5,a4
    4dfa:	00861793          	slli	a5,a2,0x8
    4dfe:	fa07dfe3          	bgez	a5,4dbc <__adddf3+0x2fa>
    4e02:	0485                	addi	s1,s1,1
    4e04:	7ff00793          	li	a5,2047
    4e08:	18f49663          	bne	s1,a5,4f94 <__adddf3+0x4d2>
    4e0c:	85ce                	mv	a1,s3
    4e0e:	7ff00513          	li	a0,2047
    4e12:	4781                	li	a5,0
    4e14:	4881                	li	a7,0
    4e16:	bd01                	j	4c26 <__adddf3+0x164>
    4e18:	ebc1                	bnez	a5,4ea8 <__adddf3+0x3e6>
    4e1a:	3a088463          	beqz	a7,51c2 <__adddf3+0x700>
    4e1e:	00361693          	slli	a3,a2,0x3
    4e22:	01d81793          	slli	a5,a6,0x1d
    4e26:	828d                	srli	a3,a3,0x3
    4e28:	00d7e8b3          	or	a7,a5,a3
    4e2c:	89f6                	mv	s3,t4
    4e2e:	00385793          	srli	a5,a6,0x3
    4e32:	00f8e7b3          	or	a5,a7,a5
    4e36:	dbf9                	beqz	a5,4e0c <__adddf3+0x34a>
    4e38:	4581                	li	a1,0
    4e3a:	7ff00513          	li	a0,2047
    4e3e:	000807b7          	lui	a5,0x80
    4e42:	4881                	li	a7,0
    4e44:	b3cd                	j	4c26 <__adddf3+0x164>
    4e46:	ff800637          	lui	a2,0xff800
    4e4a:	167d                	addi	a2,a2,-1
    4e4c:	8e7d                	and	a2,a2,a5
    4e4e:	00797793          	andi	a5,s2,7
    4e52:	8c99                	sub	s1,s1,a4
    4e54:	d80795e3          	bnez	a5,4bde <__adddf3+0x11c>
    4e58:	b7b5                	j	4dc4 <__adddf3+0x302>
    4e5a:	854a                	mv	a0,s2
    4e5c:	734010ef          	jal	ra,6590 <__clzsi2>
    4e60:	01850713          	addi	a4,a0,24
    4e64:	47fd                	li	a5,31
    4e66:	d2e7d5e3          	bge	a5,a4,4b90 <__adddf3+0xce>
    4e6a:	ff850613          	addi	a2,a0,-8
    4e6e:	00c917b3          	sll	a5,s2,a2
    4e72:	4901                	li	s2,0
    4e74:	bb05                	j	4ba4 <__adddf3+0xe2>
    4e76:	01f86933          	or	s2,a6,t6
    4e7a:	01203933          	snez	s2,s2
    4e7e:	b1dd                	j	4b64 <__adddf3+0xa2>
    4e80:	41ff0933          	sub	s2,t5,t6
    4e84:	41070633          	sub	a2,a4,a6
    4e88:	012f3433          	sltu	s0,t5,s2
    4e8c:	40860433          	sub	s0,a2,s0
    4e90:	00841793          	slli	a5,s0,0x8
    4e94:	2407cd63          	bltz	a5,50ee <__adddf3+0x62c>
    4e98:	008968b3          	or	a7,s2,s0
    4e9c:	ce0893e3          	bnez	a7,4b82 <__adddf3+0xc0>
    4ea0:	4781                	li	a5,0
    4ea2:	4981                	li	s3,0
    4ea4:	4481                	li	s1,0
    4ea6:	bf1d                	j	4ddc <__adddf3+0x31a>
    4ea8:	f80898e3          	bnez	a7,4e38 <__adddf3+0x376>
    4eac:	050e                	slli	a0,a0,0x3
    4eae:	01d71793          	slli	a5,a4,0x1d
    4eb2:	810d                	srli	a0,a0,0x3
    4eb4:	00a7e8b3          	or	a7,a5,a0
    4eb8:	00375793          	srli	a5,a4,0x3
    4ebc:	bf9d                	j	4e32 <__adddf3+0x370>
    4ebe:	050e                	slli	a0,a0,0x3
    4ec0:	01d71793          	slli	a5,a4,0x1d
    4ec4:	810d                	srli	a0,a0,0x3
    4ec6:	00a7e8b3          	or	a7,a5,a0
    4eca:	84f2                	mv	s1,t3
    4ecc:	00375793          	srli	a5,a4,0x3
    4ed0:	b711                	j	4dd4 <__adddf3+0x312>
    4ed2:	40930533          	sub	a0,t1,s1
    4ed6:	12048263          	beqz	s1,4ffa <__adddf3+0x538>
    4eda:	008006b7          	lui	a3,0x800
    4ede:	7ff00793          	li	a5,2047
    4ee2:	8f55                	or	a4,a4,a3
    4ee4:	2ef30d63          	beq	t1,a5,51de <__adddf3+0x71c>
    4ee8:	03800793          	li	a5,56
    4eec:	20a7cb63          	blt	a5,a0,5102 <__adddf3+0x640>
    4ef0:	47fd                	li	a5,31
    4ef2:	2aa7c363          	blt	a5,a0,5198 <__adddf3+0x6d6>
    4ef6:	02000793          	li	a5,32
    4efa:	8f89                	sub	a5,a5,a0
    4efc:	00f71933          	sll	s2,a4,a5
    4f00:	00af56b3          	srl	a3,t5,a0
    4f04:	00ff17b3          	sll	a5,t5,a5
    4f08:	00d96933          	or	s2,s2,a3
    4f0c:	00f037b3          	snez	a5,a5
    4f10:	00a75733          	srl	a4,a4,a0
    4f14:	00f96933          	or	s2,s2,a5
    4f18:	983a                	add	a6,a6,a4
    4f1a:	997e                	add	s2,s2,t6
    4f1c:	01f937b3          	sltu	a5,s2,t6
    4f20:	01078633          	add	a2,a5,a6
    4f24:	849a                	mv	s1,t1
    4f26:	bdd1                	j	4dfa <__adddf3+0x338>
    4f28:	008006b7          	lui	a3,0x800
    4f2c:	7ff00793          	li	a5,2047
    4f30:	8f55                	or	a4,a4,a3
    4f32:	def319e3          	bne	t1,a5,4d24 <__adddf3+0x262>
    4f36:	00361793          	slli	a5,a2,0x3
    4f3a:	838d                	srli	a5,a5,0x3
    4f3c:	01d81893          	slli	a7,a6,0x1d
    4f40:	0117e8b3          	or	a7,a5,a7
    4f44:	89f6                	mv	s3,t4
    4f46:	00385793          	srli	a5,a6,0x3
    4f4a:	b5e5                	j	4e32 <__adddf3+0x370>
    4f4c:	fe150713          	addi	a4,a0,-31
    4f50:	02000693          	li	a3,32
    4f54:	00e7d733          	srl	a4,a5,a4
    4f58:	00d60a63          	beq	a2,a3,4f6c <__adddf3+0x4aa>
    4f5c:	04000693          	li	a3,64
    4f60:	40c68633          	sub	a2,a3,a2
    4f64:	00c79633          	sll	a2,a5,a2
    4f68:	00c96933          	or	s2,s2,a2
    4f6c:	01203933          	snez	s2,s2
    4f70:	00e96933          	or	s2,s2,a4
    4f74:	4601                	li	a2,0
    4f76:	4481                	li	s1,0
    4f78:	b591                	j	4dbc <__adddf3+0x2fa>
    4f7a:	01ff0933          	add	s2,t5,t6
    4f7e:	010707b3          	add	a5,a4,a6
    4f82:	01e93633          	sltu	a2,s2,t5
    4f86:	963e                	add	a2,a2,a5
    4f88:	00861793          	slli	a5,a2,0x8
    4f8c:	4485                	li	s1,1
    4f8e:	e207d7e3          	bgez	a5,4dbc <__adddf3+0x2fa>
    4f92:	4489                	li	s1,2
    4f94:	ff8007b7          	lui	a5,0xff800
    4f98:	17fd                	addi	a5,a5,-1
    4f9a:	8ff1                	and	a5,a5,a2
    4f9c:	00195713          	srli	a4,s2,0x1
    4fa0:	00197913          	andi	s2,s2,1
    4fa4:	01276933          	or	s2,a4,s2
    4fa8:	01f79893          	slli	a7,a5,0x1f
    4fac:	0128e933          	or	s2,a7,s2
    4fb0:	0017d613          	srli	a2,a5,0x1
    4fb4:	b115                	j	4bd8 <__adddf3+0x116>
    4fb6:	fe0e0913          	addi	s2,t3,-32
    4fba:	02000793          	li	a5,32
    4fbe:	012856b3          	srl	a3,a6,s2
    4fc2:	00fe0a63          	beq	t3,a5,4fd6 <__adddf3+0x514>
    4fc6:	04000913          	li	s2,64
    4fca:	41c90933          	sub	s2,s2,t3
    4fce:	01281933          	sll	s2,a6,s2
    4fd2:	012fefb3          	or	t6,t6,s2
    4fd6:	01f03933          	snez	s2,t6
    4fda:	00d96933          	or	s2,s2,a3
    4fde:	b659                	j	4b64 <__adddf3+0xa2>
    4fe0:	01e76933          	or	s2,a4,t5
    4fe4:	01203933          	snez	s2,s2
    4fe8:	412f8933          	sub	s2,t6,s2
    4fec:	012fb7b3          	sltu	a5,t6,s2
    4ff0:	40f80633          	sub	a2,a6,a5
    4ff4:	849a                	mv	s1,t1
    4ff6:	89f6                	mv	s3,t4
    4ff8:	bea5                	j	4b70 <__adddf3+0xae>
    4ffa:	01e767b3          	or	a5,a4,t5
    4ffe:	18078263          	beqz	a5,5182 <__adddf3+0x6c0>
    5002:	fff50793          	addi	a5,a0,-1
    5006:	1c078463          	beqz	a5,51ce <__adddf3+0x70c>
    500a:	7ff00693          	li	a3,2047
    500e:	12d50463          	beq	a0,a3,5136 <__adddf3+0x674>
    5012:	853e                	mv	a0,a5
    5014:	bdd1                	j	4ee8 <__adddf3+0x426>
    5016:	02000793          	li	a5,32
    501a:	41c787b3          	sub	a5,a5,t3
    501e:	00f816b3          	sll	a3,a6,a5
    5022:	00ff9933          	sll	s2,t6,a5
    5026:	01cfd633          	srl	a2,t6,t3
    502a:	8ed1                	or	a3,a3,a2
    502c:	01203933          	snez	s2,s2
    5030:	01c857b3          	srl	a5,a6,t3
    5034:	0126e933          	or	s2,a3,s2
    5038:	973e                	add	a4,a4,a5
    503a:	bb5d                	j	4df0 <__adddf3+0x32e>
    503c:	00361793          	slli	a5,a2,0x3
    5040:	838d                	srli	a5,a5,0x3
    5042:	01d81893          	slli	a7,a6,0x1d
    5046:	0117e8b3          	or	a7,a5,a7
    504a:	84ae                	mv	s1,a1
    504c:	00385793          	srli	a5,a6,0x3
    5050:	89f6                	mv	s3,t4
    5052:	b349                	j	4dd4 <__adddf3+0x312>
    5054:	c3ed                	beqz	a5,5136 <__adddf3+0x674>
    5056:	01f86933          	or	s2,a6,t6
    505a:	dc091fe3          	bnez	s2,4e38 <__adddf3+0x376>
    505e:	050e                	slli	a0,a0,0x3
    5060:	01d71793          	slli	a5,a4,0x1d
    5064:	810d                	srli	a0,a0,0x3
    5066:	00f568b3          	or	a7,a0,a5
    506a:	00375793          	srli	a5,a4,0x3
    506e:	b3d1                	j	4e32 <__adddf3+0x370>
    5070:	0e088163          	beqz	a7,5152 <__adddf3+0x690>
    5074:	00361693          	slli	a3,a2,0x3
    5078:	01d81793          	slli	a5,a6,0x1d
    507c:	828d                	srli	a3,a3,0x3
    507e:	00d7e8b3          	or	a7,a5,a3
    5082:	89f6                	mv	s3,t4
    5084:	00385793          	srli	a5,a6,0x3
    5088:	bb91                	j	4ddc <__adddf3+0x31a>
    508a:	41ff0933          	sub	s2,t5,t6
    508e:	410707b3          	sub	a5,a4,a6
    5092:	012f3f33          	sltu	t5,t5,s2
    5096:	41e78633          	sub	a2,a5,t5
    509a:	4485                	li	s1,1
    509c:	bcd1                	j	4b70 <__adddf3+0xae>
    509e:	050e                	slli	a0,a0,0x3
    50a0:	01d71793          	slli	a5,a4,0x1d
    50a4:	810d                	srli	a0,a0,0x3
    50a6:	00f568b3          	or	a7,a0,a5
    50aa:	84f2                	mv	s1,t3
    50ac:	00375793          	srli	a5,a4,0x3
    50b0:	b315                	j	4dd4 <__adddf3+0x312>
    50b2:	050e                	slli	a0,a0,0x3
    50b4:	01d71793          	slli	a5,a4,0x1d
    50b8:	810d                	srli	a0,a0,0x3
    50ba:	00a7e8b3          	or	a7,a5,a0
    50be:	00375793          	srli	a5,a4,0x3
    50c2:	bb29                	j	4ddc <__adddf3+0x31a>
    50c4:	7ff00793          	li	a5,2047
    50c8:	d4f682e3          	beq	a3,a5,4e0c <__adddf3+0x34a>
    50cc:	01ff0933          	add	s2,t5,t6
    50d0:	01e93633          	sltu	a2,s2,t5
    50d4:	010707b3          	add	a5,a4,a6
    50d8:	97b2                	add	a5,a5,a2
    50da:	01f79893          	slli	a7,a5,0x1f
    50de:	00195913          	srli	s2,s2,0x1
    50e2:	0128e933          	or	s2,a7,s2
    50e6:	0017d613          	srli	a2,a5,0x1
    50ea:	84b6                	mv	s1,a3
    50ec:	b9c1                	j	4dbc <__adddf3+0x2fa>
    50ee:	41ef8933          	sub	s2,t6,t5
    50f2:	40e80733          	sub	a4,a6,a4
    50f6:	012fb633          	sltu	a2,t6,s2
    50fa:	40c70433          	sub	s0,a4,a2
    50fe:	89f6                	mv	s3,t4
    5100:	b449                	j	4b82 <__adddf3+0xc0>
    5102:	01e76933          	or	s2,a4,t5
    5106:	01203933          	snez	s2,s2
    510a:	bd01                	j	4f1a <__adddf3+0x458>
    510c:	fe058793          	addi	a5,a1,-32
    5110:	02000693          	li	a3,32
    5114:	00f757b3          	srl	a5,a4,a5
    5118:	00d58a63          	beq	a1,a3,512c <__adddf3+0x66a>
    511c:	04000693          	li	a3,64
    5120:	40b685b3          	sub	a1,a3,a1
    5124:	00b71733          	sll	a4,a4,a1
    5128:	00ef6f33          	or	t5,t5,a4
    512c:	01e03933          	snez	s2,t5
    5130:	00f96933          	or	s2,s2,a5
    5134:	bd55                	j	4fe8 <__adddf3+0x526>
    5136:	00361793          	slli	a5,a2,0x3
    513a:	838d                	srli	a5,a5,0x3
    513c:	01d81893          	slli	a7,a6,0x1d
    5140:	0117e8b3          	or	a7,a5,a7
    5144:	00385793          	srli	a5,a6,0x3
    5148:	b1ed                	j	4e32 <__adddf3+0x370>
    514a:	00c968b3          	or	a7,s2,a2
    514e:	c60897e3          	bnez	a7,4dbc <__adddf3+0x2fa>
    5152:	4781                	li	a5,0
    5154:	4981                	li	s3,0
    5156:	b159                	j	4ddc <__adddf3+0x31a>
    5158:	41ef8933          	sub	s2,t6,t5
    515c:	40e807b3          	sub	a5,a6,a4
    5160:	012fb633          	sltu	a2,t6,s2
    5164:	40c78633          	sub	a2,a5,a2
    5168:	89f6                	mv	s3,t4
    516a:	4485                	li	s1,1
    516c:	b411                	j	4b70 <__adddf3+0xae>
    516e:	00361693          	slli	a3,a2,0x3
    5172:	01d81793          	slli	a5,a6,0x1d
    5176:	828d                	srli	a3,a3,0x3
    5178:	00d7e8b3          	or	a7,a5,a3
    517c:	00385793          	srli	a5,a6,0x3
    5180:	b9b1                	j	4ddc <__adddf3+0x31a>
    5182:	00361693          	slli	a3,a2,0x3
    5186:	01d81793          	slli	a5,a6,0x1d
    518a:	828d                	srli	a3,a3,0x3
    518c:	00d7e8b3          	or	a7,a5,a3
    5190:	84aa                	mv	s1,a0
    5192:	00385793          	srli	a5,a6,0x3
    5196:	b93d                	j	4dd4 <__adddf3+0x312>
    5198:	fe050793          	addi	a5,a0,-32
    519c:	02000693          	li	a3,32
    51a0:	00f757b3          	srl	a5,a4,a5
    51a4:	00d50a63          	beq	a0,a3,51b8 <__adddf3+0x6f6>
    51a8:	04000693          	li	a3,64
    51ac:	40a68533          	sub	a0,a3,a0
    51b0:	00a71733          	sll	a4,a4,a0
    51b4:	00ef6f33          	or	t5,t5,a4
    51b8:	01e03933          	snez	s2,t5
    51bc:	00f96933          	or	s2,s2,a5
    51c0:	bba9                	j	4f1a <__adddf3+0x458>
    51c2:	4581                	li	a1,0
    51c4:	7ff00513          	li	a0,2047
    51c8:	000807b7          	lui	a5,0x80
    51cc:	bca9                	j	4c26 <__adddf3+0x164>
    51ce:	01ff0933          	add	s2,t5,t6
    51d2:	010707b3          	add	a5,a4,a6
    51d6:	01f93633          	sltu	a2,s2,t6
    51da:	963e                	add	a2,a2,a5
    51dc:	b375                	j	4f88 <__adddf3+0x4c6>
    51de:	00361693          	slli	a3,a2,0x3
    51e2:	01d81793          	slli	a5,a6,0x1d
    51e6:	828d                	srli	a3,a3,0x3
    51e8:	00d7e8b3          	or	a7,a5,a3
    51ec:	00385793          	srli	a5,a6,0x3
    51f0:	b189                	j	4e32 <__adddf3+0x370>

000051f2 <__divdf3>:
__divdf3():
    51f2:	7139                	addi	sp,sp,-64
    51f4:	0145d793          	srli	a5,a1,0x14
    51f8:	dc22                	sw	s0,56(sp)
    51fa:	d84a                	sw	s2,48(sp)
    51fc:	d256                	sw	s5,36(sp)
    51fe:	892a                	mv	s2,a0
    5200:	00c59413          	slli	s0,a1,0xc
    5204:	de06                	sw	ra,60(sp)
    5206:	da26                	sw	s1,52(sp)
    5208:	d64e                	sw	s3,44(sp)
    520a:	d452                	sw	s4,40(sp)
    520c:	d05a                	sw	s6,32(sp)
    520e:	ce5e                	sw	s7,28(sp)
    5210:	7ff7f513          	andi	a0,a5,2047
    5214:	8031                	srli	s0,s0,0xc
    5216:	01f5da93          	srli	s5,a1,0x1f
    521a:	10050b63          	beqz	a0,5330 <__divdf3+0x13e>
    521e:	7ff00793          	li	a5,2047
    5222:	14f50b63          	beq	a0,a5,5378 <__divdf3+0x186>
    5226:	01d95a13          	srli	s4,s2,0x1d
    522a:	040e                	slli	s0,s0,0x3
    522c:	008a6433          	or	s0,s4,s0
    5230:	00800a37          	lui	s4,0x800
    5234:	01446a33          	or	s4,s0,s4
    5238:	00391b13          	slli	s6,s2,0x3
    523c:	c0150493          	addi	s1,a0,-1023
    5240:	4401                	li	s0,0
    5242:	4b81                	li	s7,0
    5244:	0146d813          	srli	a6,a3,0x14
    5248:	00c69913          	slli	s2,a3,0xc
    524c:	7ff87813          	andi	a6,a6,2047
    5250:	88b2                	mv	a7,a2
    5252:	00c95913          	srli	s2,s2,0xc
    5256:	01f6d993          	srli	s3,a3,0x1f
    525a:	08080e63          	beqz	a6,52f6 <__divdf3+0x104>
    525e:	7ff00793          	li	a5,2047
    5262:	04f80063          	beq	a6,a5,52a2 <__divdf3+0xb0>
    5266:	01d65713          	srli	a4,a2,0x1d
    526a:	090e                	slli	s2,s2,0x3
    526c:	01276933          	or	s2,a4,s2
    5270:	c0180813          	addi	a6,a6,-1023 # ffc01 <_data_lma+0xf5785>
    5274:	008007b7          	lui	a5,0x800
    5278:	00f96733          	or	a4,s2,a5
    527c:	00361893          	slli	a7,a2,0x3
    5280:	410484b3          	sub	s1,s1,a6
    5284:	4581                	li	a1,0
    5286:	47bd                	li	a5,15
    5288:	013ac833          	xor	a6,s5,s3
    528c:	1a87e463          	bltu	a5,s0,5434 <__divdf3+0x242>
    5290:	00005797          	auipc	a5,0x5
    5294:	d4878793          	addi	a5,a5,-696 # 9fd8 <MyUSBQUADescHD+0xc8>
    5298:	040a                	slli	s0,s0,0x2
    529a:	943e                	add	s0,s0,a5
    529c:	4010                	lw	a2,0(s0)
    529e:	963e                	add	a2,a2,a5
    52a0:	8602                	jr	a2
    52a2:	00c96733          	or	a4,s2,a2
    52a6:	80148493          	addi	s1,s1,-2047
    52aa:	10071263          	bnez	a4,53ae <__divdf3+0x1bc>
    52ae:	00246413          	ori	s0,s0,2
    52b2:	4881                	li	a7,0
    52b4:	4589                	li	a1,2
    52b6:	bfc1                	j	5286 <__divdf3+0x94>
    52b8:	7ff00613          	li	a2,2047
    52bc:	4781                	li	a5,0
    52be:	4701                	li	a4,0
    52c0:	07b2                	slli	a5,a5,0xc
    52c2:	50f2                	lw	ra,60(sp)
    52c4:	5462                	lw	s0,56(sp)
    52c6:	0652                	slli	a2,a2,0x14
    52c8:	83b1                	srli	a5,a5,0xc
    52ca:	087e                	slli	a6,a6,0x1f
    52cc:	8fd1                	or	a5,a5,a2
    52ce:	0107e7b3          	or	a5,a5,a6
    52d2:	54d2                	lw	s1,52(sp)
    52d4:	5942                	lw	s2,48(sp)
    52d6:	59b2                	lw	s3,44(sp)
    52d8:	5a22                	lw	s4,40(sp)
    52da:	5a92                	lw	s5,36(sp)
    52dc:	5b02                	lw	s6,32(sp)
    52de:	4bf2                	lw	s7,28(sp)
    52e0:	853a                	mv	a0,a4
    52e2:	85be                	mv	a1,a5
    52e4:	6121                	addi	sp,sp,64
    52e6:	8082                	ret
    52e8:	4801                	li	a6,0
    52ea:	7ff00613          	li	a2,2047
    52ee:	000807b7          	lui	a5,0x80
    52f2:	4701                	li	a4,0
    52f4:	b7f1                	j	52c0 <__divdf3+0xce>
    52f6:	00c96733          	or	a4,s2,a2
    52fa:	c74d                	beqz	a4,53a4 <__divdf3+0x1b2>
    52fc:	30090863          	beqz	s2,560c <__divdf3+0x41a>
    5300:	854a                	mv	a0,s2
    5302:	c432                	sw	a2,8(sp)
    5304:	28c010ef          	jal	ra,6590 <__clzsi2>
    5308:	4622                	lw	a2,8(sp)
    530a:	ff550713          	addi	a4,a0,-11
    530e:	47f5                	li	a5,29
    5310:	ff850693          	addi	a3,a0,-8
    5314:	8f99                	sub	a5,a5,a4
    5316:	00d91933          	sll	s2,s2,a3
    531a:	00f657b3          	srl	a5,a2,a5
    531e:	0127e733          	or	a4,a5,s2
    5322:	00d618b3          	sll	a7,a2,a3
    5326:	9526                	add	a0,a0,s1
    5328:	3f350493          	addi	s1,a0,1011
    532c:	4581                	li	a1,0
    532e:	bfa1                	j	5286 <__divdf3+0x94>
    5330:	01246a33          	or	s4,s0,s2
    5334:	060a0363          	beqz	s4,539a <__divdf3+0x1a8>
    5338:	c636                	sw	a3,12(sp)
    533a:	c432                	sw	a2,8(sp)
    533c:	2a040663          	beqz	s0,55e8 <__divdf3+0x3f6>
    5340:	8522                	mv	a0,s0
    5342:	24e010ef          	jal	ra,6590 <__clzsi2>
    5346:	4622                	lw	a2,8(sp)
    5348:	46b2                	lw	a3,12(sp)
    534a:	84aa                	mv	s1,a0
    534c:	ff550713          	addi	a4,a0,-11
    5350:	4a75                	li	s4,29
    5352:	ff848b13          	addi	s6,s1,-8
    5356:	40ea0a33          	sub	s4,s4,a4
    535a:	01641433          	sll	s0,s0,s6
    535e:	01495a33          	srl	s4,s2,s4
    5362:	008a6a33          	or	s4,s4,s0
    5366:	01691b33          	sll	s6,s2,s6
    536a:	c0d00513          	li	a0,-1011
    536e:	409504b3          	sub	s1,a0,s1
    5372:	4401                	li	s0,0
    5374:	4b81                	li	s7,0
    5376:	b5f9                	j	5244 <__divdf3+0x52>
    5378:	01246a33          	or	s4,s0,s2
    537c:	000a1863          	bnez	s4,538c <__divdf3+0x19a>
    5380:	4421                	li	s0,8
    5382:	4b01                	li	s6,0
    5384:	7ff00493          	li	s1,2047
    5388:	4b89                	li	s7,2
    538a:	bd6d                	j	5244 <__divdf3+0x52>
    538c:	8a22                	mv	s4,s0
    538e:	8b4a                	mv	s6,s2
    5390:	4431                	li	s0,12
    5392:	7ff00493          	li	s1,2047
    5396:	4b8d                	li	s7,3
    5398:	b575                	j	5244 <__divdf3+0x52>
    539a:	4411                	li	s0,4
    539c:	4b01                	li	s6,0
    539e:	4481                	li	s1,0
    53a0:	4b85                	li	s7,1
    53a2:	b54d                	j	5244 <__divdf3+0x52>
    53a4:	00146413          	ori	s0,s0,1
    53a8:	4881                	li	a7,0
    53aa:	4585                	li	a1,1
    53ac:	bde9                	j	5286 <__divdf3+0x94>
    53ae:	00346413          	ori	s0,s0,3
    53b2:	874a                	mv	a4,s2
    53b4:	458d                	li	a1,3
    53b6:	bdc1                	j	5286 <__divdf3+0x94>
    53b8:	2e050a63          	beqz	a0,56ac <__divdf3+0x4ba>
    53bc:	4785                	li	a5,1
    53be:	8f89                	sub	a5,a5,a0
    53c0:	03800693          	li	a3,56
    53c4:	32f6dd63          	bge	a3,a5,56fe <__divdf3+0x50c>
    53c8:	4601                	li	a2,0
    53ca:	4781                	li	a5,0
    53cc:	4701                	li	a4,0
    53ce:	bdcd                	j	52c0 <__divdf3+0xce>
    53d0:	86ce                	mv	a3,s3
    53d2:	4789                	li	a5,2
    53d4:	3af58d63          	beq	a1,a5,578e <__divdf3+0x59c>
    53d8:	478d                	li	a5,3
    53da:	f0f587e3          	beq	a1,a5,52e8 <__divdf3+0xf6>
    53de:	4785                	li	a5,1
    53e0:	8836                	mv	a6,a3
    53e2:	fef583e3          	beq	a1,a5,53c8 <__divdf3+0x1d6>
    53e6:	3ff48513          	addi	a0,s1,1023
    53ea:	fca057e3          	blez	a0,53b8 <__divdf3+0x1c6>
    53ee:	0078f793          	andi	a5,a7,7
    53f2:	28079663          	bnez	a5,567e <__divdf3+0x48c>
    53f6:	0038d693          	srli	a3,a7,0x3
    53fa:	00771793          	slli	a5,a4,0x7
    53fe:	0007d863          	bgez	a5,540e <__divdf3+0x21c>
    5402:	ff0007b7          	lui	a5,0xff000
    5406:	17fd                	addi	a5,a5,-1
    5408:	8f7d                	and	a4,a4,a5
    540a:	40048513          	addi	a0,s1,1024
    540e:	7fe00793          	li	a5,2046
    5412:	eaa7c3e3          	blt	a5,a0,52b8 <__divdf3+0xc6>
    5416:	01d71613          	slli	a2,a4,0x1d
    541a:	00971793          	slli	a5,a4,0x9
    541e:	83b1                	srli	a5,a5,0xc
    5420:	00d66733          	or	a4,a2,a3
    5424:	7ff57613          	andi	a2,a0,2047
    5428:	bd61                	j	52c0 <__divdf3+0xce>
    542a:	86d6                	mv	a3,s5
    542c:	8752                	mv	a4,s4
    542e:	88da                	mv	a7,s6
    5430:	85de                	mv	a1,s7
    5432:	b745                	j	53d2 <__divdf3+0x1e0>
    5434:	23476163          	bltu	a4,s4,5656 <__divdf3+0x464>
    5438:	20ea0d63          	beq	s4,a4,5652 <__divdf3+0x460>
    543c:	86da                	mv	a3,s6
    543e:	14fd                	addi	s1,s1,-1
    5440:	8452                	mv	s0,s4
    5442:	4b01                	li	s6,0
    5444:	00871793          	slli	a5,a4,0x8
    5448:	0188d313          	srli	t1,a7,0x18
    544c:	00f36333          	or	t1,t1,a5
    5450:	01035e93          	srli	t4,t1,0x10
    5454:	03d457b3          	divu	a5,s0,t4
    5458:	01031f13          	slli	t5,t1,0x10
    545c:	010f5f13          	srli	t5,t5,0x10
    5460:	0106d593          	srli	a1,a3,0x10
    5464:	00889e13          	slli	t3,a7,0x8
    5468:	03d47433          	remu	s0,s0,t4
    546c:	02ff0733          	mul	a4,t5,a5
    5470:	0442                	slli	s0,s0,0x10
    5472:	8dc1                	or	a1,a1,s0
    5474:	00e5fb63          	bgeu	a1,a4,548a <__divdf3+0x298>
    5478:	959a                	add	a1,a1,t1
    547a:	fff78613          	addi	a2,a5,-1 # feffffff <_eusrstack+0xdefeffff>
    547e:	2665ee63          	bltu	a1,t1,56fa <__divdf3+0x508>
    5482:	26e5fc63          	bgeu	a1,a4,56fa <__divdf3+0x508>
    5486:	17f9                	addi	a5,a5,-2
    5488:	959a                	add	a1,a1,t1
    548a:	8d99                	sub	a1,a1,a4
    548c:	03d5d733          	divu	a4,a1,t4
    5490:	06c2                	slli	a3,a3,0x10
    5492:	82c1                	srli	a3,a3,0x10
    5494:	03d5f5b3          	remu	a1,a1,t4
    5498:	02ef0633          	mul	a2,t5,a4
    549c:	05c2                	slli	a1,a1,0x10
    549e:	8dd5                	or	a1,a1,a3
    54a0:	00c5fb63          	bgeu	a1,a2,54b6 <__divdf3+0x2c4>
    54a4:	959a                	add	a1,a1,t1
    54a6:	fff70693          	addi	a3,a4,-1 # 7fffff <_data_lma+0x7f5b83>
    54aa:	2465e663          	bltu	a1,t1,56f6 <__divdf3+0x504>
    54ae:	24c5f463          	bgeu	a1,a2,56f6 <__divdf3+0x504>
    54b2:	1779                	addi	a4,a4,-2
    54b4:	959a                	add	a1,a1,t1
    54b6:	07c2                	slli	a5,a5,0x10
    54b8:	6441                	lui	s0,0x10
    54ba:	8f5d                	or	a4,a4,a5
    54bc:	fff40793          	addi	a5,s0,-1 # ffff <_data_lma+0x5b83>
    54c0:	00f77533          	and	a0,a4,a5
    54c4:	01075893          	srli	a7,a4,0x10
    54c8:	010e5f93          	srli	t6,t3,0x10
    54cc:	00fe77b3          	and	a5,t3,a5
    54d0:	02f502b3          	mul	t0,a0,a5
    54d4:	40c586b3          	sub	a3,a1,a2
    54d8:	02f883b3          	mul	t2,a7,a5
    54dc:	0102d593          	srli	a1,t0,0x10
    54e0:	02af8633          	mul	a2,t6,a0
    54e4:	961e                	add	a2,a2,t2
    54e6:	962e                	add	a2,a2,a1
    54e8:	03f88533          	mul	a0,a7,t6
    54ec:	00767363          	bgeu	a2,t2,54f2 <__divdf3+0x300>
    54f0:	9522                	add	a0,a0,s0
    54f2:	68c1                	lui	a7,0x10
    54f4:	18fd                	addi	a7,a7,-1
    54f6:	01065593          	srli	a1,a2,0x10
    54fa:	01167633          	and	a2,a2,a7
    54fe:	0642                	slli	a2,a2,0x10
    5500:	0112f8b3          	and	a7,t0,a7
    5504:	95aa                	add	a1,a1,a0
    5506:	9646                	add	a2,a2,a7
    5508:	12b6e663          	bltu	a3,a1,5634 <__divdf3+0x442>
    550c:	12b68263          	beq	a3,a1,5630 <__divdf3+0x43e>
    5510:	40cb0633          	sub	a2,s6,a2
    5514:	8e8d                	sub	a3,a3,a1
    5516:	00cb3b33          	sltu	s6,s6,a2
    551a:	41668b33          	sub	s6,a3,s6
    551e:	3ff48513          	addi	a0,s1,1023
    5522:	17630c63          	beq	t1,s6,569a <__divdf3+0x4a8>
    5526:	03db58b3          	divu	a7,s6,t4
    552a:	01065593          	srli	a1,a2,0x10
    552e:	03db7b33          	remu	s6,s6,t4
    5532:	031f06b3          	mul	a3,t5,a7
    5536:	0b42                	slli	s6,s6,0x10
    5538:	0165eb33          	or	s6,a1,s6
    553c:	00db7b63          	bgeu	s6,a3,5552 <__divdf3+0x360>
    5540:	9b1a                	add	s6,s6,t1
    5542:	fff88593          	addi	a1,a7,-1 # ffff <_data_lma+0x5b83>
    5546:	206b6d63          	bltu	s6,t1,5760 <__divdf3+0x56e>
    554a:	20db7b63          	bgeu	s6,a3,5760 <__divdf3+0x56e>
    554e:	18f9                	addi	a7,a7,-2
    5550:	9b1a                	add	s6,s6,t1
    5552:	40db0b33          	sub	s6,s6,a3
    5556:	03db56b3          	divu	a3,s6,t4
    555a:	0642                	slli	a2,a2,0x10
    555c:	8241                	srli	a2,a2,0x10
    555e:	03db7b33          	remu	s6,s6,t4
    5562:	02df0f33          	mul	t5,t5,a3
    5566:	0b42                	slli	s6,s6,0x10
    5568:	01666633          	or	a2,a2,s6
    556c:	01e67b63          	bgeu	a2,t5,5582 <__divdf3+0x390>
    5570:	961a                	add	a2,a2,t1
    5572:	fff68593          	addi	a1,a3,-1 # 7fffff <_data_lma+0x7f5b83>
    5576:	1e666763          	bltu	a2,t1,5764 <__divdf3+0x572>
    557a:	1fe67563          	bgeu	a2,t5,5764 <__divdf3+0x572>
    557e:	16f9                	addi	a3,a3,-2
    5580:	961a                	add	a2,a2,t1
    5582:	08c2                	slli	a7,a7,0x10
    5584:	00d8e8b3          	or	a7,a7,a3
    5588:	01089593          	slli	a1,a7,0x10
    558c:	0108d293          	srli	t0,a7,0x10
    5590:	81c1                	srli	a1,a1,0x10
    5592:	02f58eb3          	mul	t4,a1,a5
    5596:	41e60633          	sub	a2,a2,t5
    559a:	02bf85b3          	mul	a1,t6,a1
    559e:	010ed693          	srli	a3,t4,0x10
    55a2:	02f287b3          	mul	a5,t0,a5
    55a6:	95be                	add	a1,a1,a5
    55a8:	96ae                	add	a3,a3,a1
    55aa:	025f8fb3          	mul	t6,t6,t0
    55ae:	00f6f463          	bgeu	a3,a5,55b6 <__divdf3+0x3c4>
    55b2:	67c1                	lui	a5,0x10
    55b4:	9fbe                	add	t6,t6,a5
    55b6:	65c1                	lui	a1,0x10
    55b8:	15fd                	addi	a1,a1,-1
    55ba:	0106d793          	srli	a5,a3,0x10
    55be:	8eed                	and	a3,a3,a1
    55c0:	06c2                	slli	a3,a3,0x10
    55c2:	00befeb3          	and	t4,t4,a1
    55c6:	9fbe                	add	t6,t6,a5
    55c8:	96f6                	add	a3,a3,t4
    55ca:	09f67f63          	bgeu	a2,t6,5668 <__divdf3+0x476>
    55ce:	961a                	add	a2,a2,t1
    55d0:	fff88793          	addi	a5,a7,-1
    55d4:	1a666963          	bltu	a2,t1,5786 <__divdf3+0x594>
    55d8:	19f66863          	bltu	a2,t6,5768 <__divdf3+0x576>
    55dc:	1bf60f63          	beq	a2,t6,579a <__divdf3+0x5a8>
    55e0:	88be                	mv	a7,a5
    55e2:	0018e893          	ori	a7,a7,1
    55e6:	b511                	j	53ea <__divdf3+0x1f8>
    55e8:	854a                	mv	a0,s2
    55ea:	7a7000ef          	jal	ra,6590 <__clzsi2>
    55ee:	01550713          	addi	a4,a0,21
    55f2:	45f1                	li	a1,28
    55f4:	02050493          	addi	s1,a0,32
    55f8:	4622                	lw	a2,8(sp)
    55fa:	46b2                	lw	a3,12(sp)
    55fc:	d4e5dae3          	bge	a1,a4,5350 <__divdf3+0x15e>
    5600:	ff850413          	addi	s0,a0,-8
    5604:	00891a33          	sll	s4,s2,s0
    5608:	4b01                	li	s6,0
    560a:	b385                	j	536a <__divdf3+0x178>
    560c:	8532                	mv	a0,a2
    560e:	c432                	sw	a2,8(sp)
    5610:	781000ef          	jal	ra,6590 <__clzsi2>
    5614:	01550713          	addi	a4,a0,21
    5618:	46f1                	li	a3,28
    561a:	87aa                	mv	a5,a0
    561c:	4622                	lw	a2,8(sp)
    561e:	02050513          	addi	a0,a0,32
    5622:	cee6d6e3          	bge	a3,a4,530e <__divdf3+0x11c>
    5626:	17e1                	addi	a5,a5,-8
    5628:	00f61733          	sll	a4,a2,a5
    562c:	4881                	li	a7,0
    562e:	b9e5                	j	5326 <__divdf3+0x134>
    5630:	eecb70e3          	bgeu	s6,a2,5510 <__divdf3+0x31e>
    5634:	9b72                	add	s6,s6,t3
    5636:	01cb3533          	sltu	a0,s6,t3
    563a:	951a                	add	a0,a0,t1
    563c:	96aa                	add	a3,a3,a0
    563e:	fff70513          	addi	a0,a4,-1
    5642:	02d37863          	bgeu	t1,a3,5672 <__divdf3+0x480>
    5646:	10b6e663          	bltu	a3,a1,5752 <__divdf3+0x560>
    564a:	10d58263          	beq	a1,a3,574e <__divdf3+0x55c>
    564e:	872a                	mv	a4,a0
    5650:	b5c1                	j	5510 <__divdf3+0x31e>
    5652:	df1b65e3          	bltu	s6,a7,543c <__divdf3+0x24a>
    5656:	001b5593          	srli	a1,s6,0x1
    565a:	01fa1693          	slli	a3,s4,0x1f
    565e:	001a5413          	srli	s0,s4,0x1
    5662:	8ecd                	or	a3,a3,a1
    5664:	0b7e                	slli	s6,s6,0x1f
    5666:	bbf9                	j	5444 <__divdf3+0x252>
    5668:	f7f61de3          	bne	a2,t6,55e2 <__divdf3+0x3f0>
    566c:	d6068fe3          	beqz	a3,53ea <__divdf3+0x1f8>
    5670:	bfb9                	j	55ce <__divdf3+0x3dc>
    5672:	fcd31ee3          	bne	t1,a3,564e <__divdf3+0x45c>
    5676:	fdcb78e3          	bgeu	s6,t3,5646 <__divdf3+0x454>
    567a:	872a                	mv	a4,a0
    567c:	bd51                	j	5510 <__divdf3+0x31e>
    567e:	00f8f793          	andi	a5,a7,15
    5682:	4691                	li	a3,4
    5684:	d6d789e3          	beq	a5,a3,53f6 <__divdf3+0x204>
    5688:	ffc8b793          	sltiu	a5,a7,-4
    568c:	00488693          	addi	a3,a7,4
    5690:	0017c793          	xori	a5,a5,1
    5694:	828d                	srli	a3,a3,0x3
    5696:	973e                	add	a4,a4,a5
    5698:	b38d                	j	53fa <__divdf3+0x208>
    569a:	4681                	li	a3,0
    569c:	4785                	li	a5,1
    569e:	fea04ce3          	bgtz	a0,5696 <__divdf3+0x4a4>
    56a2:	58fd                	li	a7,-1
    56a4:	d0051ce3          	bnez	a0,53bc <__divdf3+0x1ca>
    56a8:	c0100493          	li	s1,-1023
    56ac:	4785                	li	a5,1
    56ae:	41e48513          	addi	a0,s1,1054
    56b2:	00a716b3          	sll	a3,a4,a0
    56b6:	00f8d633          	srl	a2,a7,a5
    56ba:	00a89533          	sll	a0,a7,a0
    56be:	8ed1                	or	a3,a3,a2
    56c0:	00a03533          	snez	a0,a0
    56c4:	8ec9                	or	a3,a3,a0
    56c6:	0076f613          	andi	a2,a3,7
    56ca:	00f75733          	srl	a4,a4,a5
    56ce:	ce01                	beqz	a2,56e6 <__divdf3+0x4f4>
    56d0:	00f6f793          	andi	a5,a3,15
    56d4:	4611                	li	a2,4
    56d6:	00c78863          	beq	a5,a2,56e6 <__divdf3+0x4f4>
    56da:	00468793          	addi	a5,a3,4
    56de:	00d7b6b3          	sltu	a3,a5,a3
    56e2:	9736                	add	a4,a4,a3
    56e4:	86be                	mv	a3,a5
    56e6:	00871793          	slli	a5,a4,0x8
    56ea:	0407d863          	bgez	a5,573a <__divdf3+0x548>
    56ee:	4605                	li	a2,1
    56f0:	4781                	li	a5,0
    56f2:	4701                	li	a4,0
    56f4:	b6f1                	j	52c0 <__divdf3+0xce>
    56f6:	8736                	mv	a4,a3
    56f8:	bb7d                	j	54b6 <__divdf3+0x2c4>
    56fa:	87b2                	mv	a5,a2
    56fc:	b379                	j	548a <__divdf3+0x298>
    56fe:	46fd                	li	a3,31
    5700:	faf6d7e3          	bge	a3,a5,56ae <__divdf3+0x4bc>
    5704:	5605                	li	a2,-31
    5706:	8e09                	sub	a2,a2,a0
    5708:	02000693          	li	a3,32
    570c:	00c75633          	srl	a2,a4,a2
    5710:	00d78863          	beq	a5,a3,5720 <__divdf3+0x52e>
    5714:	43e48793          	addi	a5,s1,1086
    5718:	00f717b3          	sll	a5,a4,a5
    571c:	00f8e8b3          	or	a7,a7,a5
    5720:	011036b3          	snez	a3,a7
    5724:	8ed1                	or	a3,a3,a2
    5726:	0076f613          	andi	a2,a3,7
    572a:	4781                	li	a5,0
    572c:	ce01                	beqz	a2,5744 <__divdf3+0x552>
    572e:	00f6f793          	andi	a5,a3,15
    5732:	4611                	li	a2,4
    5734:	4701                	li	a4,0
    5736:	fac792e3          	bne	a5,a2,56da <__divdf3+0x4e8>
    573a:	00971793          	slli	a5,a4,0x9
    573e:	01d71613          	slli	a2,a4,0x1d
    5742:	83b1                	srli	a5,a5,0xc
    5744:	0036d713          	srli	a4,a3,0x3
    5748:	8f51                	or	a4,a4,a2
    574a:	4601                	li	a2,0
    574c:	be95                	j	52c0 <__divdf3+0xce>
    574e:	f0cb70e3          	bgeu	s6,a2,564e <__divdf3+0x45c>
    5752:	9b72                	add	s6,s6,t3
    5754:	01cb3533          	sltu	a0,s6,t3
    5758:	951a                	add	a0,a0,t1
    575a:	1779                	addi	a4,a4,-2
    575c:	96aa                	add	a3,a3,a0
    575e:	bb4d                	j	5510 <__divdf3+0x31e>
    5760:	88ae                	mv	a7,a1
    5762:	bbc5                	j	5552 <__divdf3+0x360>
    5764:	86ae                	mv	a3,a1
    5766:	bd31                	j	5582 <__divdf3+0x390>
    5768:	001e1793          	slli	a5,t3,0x1
    576c:	01c7be33          	sltu	t3,a5,t3
    5770:	9372                	add	t1,t1,t3
    5772:	961a                	add	a2,a2,t1
    5774:	18f9                	addi	a7,a7,-2
    5776:	8e3e                	mv	t3,a5
    5778:	e7f615e3          	bne	a2,t6,55e2 <__divdf3+0x3f0>
    577c:	c6de07e3          	beq	t3,a3,53ea <__divdf3+0x1f8>
    5780:	0018e893          	ori	a7,a7,1
    5784:	b19d                	j	53ea <__divdf3+0x1f8>
    5786:	88be                	mv	a7,a5
    5788:	fff60ae3          	beq	a2,t6,577c <__divdf3+0x58a>
    578c:	bd99                	j	55e2 <__divdf3+0x3f0>
    578e:	8836                	mv	a6,a3
    5790:	7ff00613          	li	a2,2047
    5794:	4781                	li	a5,0
    5796:	4701                	li	a4,0
    5798:	b625                	j	52c0 <__divdf3+0xce>
    579a:	fcde67e3          	bltu	t3,a3,5768 <__divdf3+0x576>
    579e:	88be                	mv	a7,a5
    57a0:	fede10e3          	bne	t3,a3,5780 <__divdf3+0x58e>
    57a4:	b199                	j	53ea <__divdf3+0x1f8>

000057a6 <__eqdf2>:
__eqdf2():
    57a6:	0145d713          	srli	a4,a1,0x14
    57aa:	001007b7          	lui	a5,0x100
    57ae:	17fd                	addi	a5,a5,-1
    57b0:	0146d813          	srli	a6,a3,0x14
    57b4:	7ff77713          	andi	a4,a4,2047
    57b8:	7ff00893          	li	a7,2047
    57bc:	00b7fe33          	and	t3,a5,a1
    57c0:	8eaa                	mv	t4,a0
    57c2:	8ff5                	and	a5,a5,a3
    57c4:	81fd                	srli	a1,a1,0x1f
    57c6:	8f32                	mv	t5,a2
    57c8:	7ff87813          	andi	a6,a6,2047
    57cc:	82fd                	srli	a3,a3,0x1f
    57ce:	01170b63          	beq	a4,a7,57e4 <__eqdf2+0x3e>
    57d2:	4305                	li	t1,1
    57d4:	01180663          	beq	a6,a7,57e0 <__eqdf2+0x3a>
    57d8:	01071463          	bne	a4,a6,57e0 <__eqdf2+0x3a>
    57dc:	00fe0d63          	beq	t3,a5,57f6 <__eqdf2+0x50>
    57e0:	851a                	mv	a0,t1
    57e2:	8082                	ret
    57e4:	00ae68b3          	or	a7,t3,a0
    57e8:	4305                	li	t1,1
    57ea:	fe089be3          	bnez	a7,57e0 <__eqdf2+0x3a>
    57ee:	fee819e3          	bne	a6,a4,57e0 <__eqdf2+0x3a>
    57f2:	8fd1                	or	a5,a5,a2
    57f4:	f7f5                	bnez	a5,57e0 <__eqdf2+0x3a>
    57f6:	4305                	li	t1,1
    57f8:	ffee94e3          	bne	t4,t5,57e0 <__eqdf2+0x3a>
    57fc:	4301                	li	t1,0
    57fe:	fed581e3          	beq	a1,a3,57e0 <__eqdf2+0x3a>
    5802:	4305                	li	t1,1
    5804:	ff71                	bnez	a4,57e0 <__eqdf2+0x3a>
    5806:	00ae6533          	or	a0,t3,a0
    580a:	00a03333          	snez	t1,a0
    580e:	bfc9                	j	57e0 <__eqdf2+0x3a>

00005810 <__ledf2>:
__ltdf2():
    5810:	0145d713          	srli	a4,a1,0x14
    5814:	001007b7          	lui	a5,0x100
    5818:	17fd                	addi	a5,a5,-1
    581a:	0146d813          	srli	a6,a3,0x14
    581e:	7ff77713          	andi	a4,a4,2047
    5822:	7ff00893          	li	a7,2047
    5826:	00b7fe33          	and	t3,a5,a1
    582a:	8eaa                	mv	t4,a0
    582c:	8ff5                	and	a5,a5,a3
    582e:	81fd                	srli	a1,a1,0x1f
    5830:	8f32                	mv	t5,a2
    5832:	7ff87813          	andi	a6,a6,2047
    5836:	82fd                	srli	a3,a3,0x1f
    5838:	03170e63          	beq	a4,a7,5874 <__ledf2+0x64>
    583c:	01180d63          	beq	a6,a7,5856 <__ledf2+0x46>
    5840:	e329                	bnez	a4,5882 <__ledf2+0x72>
    5842:	00ae68b3          	or	a7,t3,a0
    5846:	00081f63          	bnez	a6,5864 <__ledf2+0x54>
    584a:	8e5d                	or	a2,a2,a5
    584c:	ee01                	bnez	a2,5864 <__ledf2+0x54>
    584e:	4301                	li	t1,0
    5850:	04088c63          	beqz	a7,58a8 <__ledf2+0x98>
    5854:	a821                	j	586c <__ledf2+0x5c>
    5856:	00c7e8b3          	or	a7,a5,a2
    585a:	4309                	li	t1,2
    585c:	04089663          	bnez	a7,58a8 <__ledf2+0x98>
    5860:	d36d                	beqz	a4,5842 <__ledf2+0x32>
    5862:	a005                	j	5882 <__ledf2+0x72>
    5864:	04088463          	beqz	a7,58ac <__ledf2+0x9c>
    5868:	02d58563          	beq	a1,a3,5892 <__ledf2+0x82>
    586c:	4305                	li	t1,1
    586e:	cd8d                	beqz	a1,58a8 <__ledf2+0x98>
    5870:	537d                	li	t1,-1
    5872:	a81d                	j	58a8 <__ledf2+0x98>
    5874:	00ae68b3          	or	a7,t3,a0
    5878:	4309                	li	t1,2
    587a:	02089763          	bnez	a7,58a8 <__ledf2+0x98>
    587e:	02e80a63          	beq	a6,a4,58b2 <__ledf2+0xa2>
    5882:	00081463          	bnez	a6,588a <__ledf2+0x7a>
    5886:	8e5d                	or	a2,a2,a5
    5888:	d275                	beqz	a2,586c <__ledf2+0x5c>
    588a:	fed591e3          	bne	a1,a3,586c <__ledf2+0x5c>
    588e:	fce84fe3          	blt	a6,a4,586c <__ledf2+0x5c>
    5892:	01074963          	blt	a4,a6,58a4 <__ledf2+0x94>
    5896:	fdc7ebe3          	bltu	a5,t3,586c <__ledf2+0x5c>
    589a:	00fe0f63          	beq	t3,a5,58b8 <__ledf2+0xa8>
    589e:	4301                	li	t1,0
    58a0:	00fe7463          	bgeu	t3,a5,58a8 <__ledf2+0x98>
    58a4:	d5f1                	beqz	a1,5870 <__ledf2+0x60>
    58a6:	4305                	li	t1,1
    58a8:	851a                	mv	a0,t1
    58aa:	8082                	ret
    58ac:	feed                	bnez	a3,58a6 <__ledf2+0x96>
    58ae:	537d                	li	t1,-1
    58b0:	bfe5                	j	58a8 <__ledf2+0x98>
    58b2:	8e5d                	or	a2,a2,a5
    58b4:	da79                	beqz	a2,588a <__ledf2+0x7a>
    58b6:	bfcd                	j	58a8 <__ledf2+0x98>
    58b8:	fbdf6ae3          	bltu	t5,t4,586c <__ledf2+0x5c>
    58bc:	4301                	li	t1,0
    58be:	ffeef5e3          	bgeu	t4,t5,58a8 <__ledf2+0x98>
    58c2:	f1f5                	bnez	a1,58a6 <__ledf2+0x96>
    58c4:	b775                	j	5870 <__ledf2+0x60>

000058c6 <__muldf3>:
__muldf3():
    58c6:	7139                	addi	sp,sp,-64
    58c8:	d84a                	sw	s2,48(sp)
    58ca:	0145d913          	srli	s2,a1,0x14
    58ce:	d64e                	sw	s3,44(sp)
    58d0:	d452                	sw	s4,40(sp)
    58d2:	d256                	sw	s5,36(sp)
    58d4:	00c59993          	slli	s3,a1,0xc
    58d8:	de06                	sw	ra,60(sp)
    58da:	dc22                	sw	s0,56(sp)
    58dc:	da26                	sw	s1,52(sp)
    58de:	d05a                	sw	s6,32(sp)
    58e0:	ce5e                	sw	s7,28(sp)
    58e2:	7ff97913          	andi	s2,s2,2047
    58e6:	8a2a                	mv	s4,a0
    58e8:	00c9d993          	srli	s3,s3,0xc
    58ec:	01f5da93          	srli	s5,a1,0x1f
    58f0:	0e090d63          	beqz	s2,59ea <__muldf3+0x124>
    58f4:	7ff00793          	li	a5,2047
    58f8:	18f90663          	beq	s2,a5,5a84 <__muldf3+0x1be>
    58fc:	01d55413          	srli	s0,a0,0x1d
    5900:	098e                	slli	s3,s3,0x3
    5902:	013469b3          	or	s3,s0,s3
    5906:	00800437          	lui	s0,0x800
    590a:	0089e433          	or	s0,s3,s0
    590e:	00351493          	slli	s1,a0,0x3
    5912:	c0190913          	addi	s2,s2,-1023
    5916:	4981                	li	s3,0
    5918:	4b81                	li	s7,0
    591a:	0146d713          	srli	a4,a3,0x14
    591e:	00c69a13          	slli	s4,a3,0xc
    5922:	7ff77713          	andi	a4,a4,2047
    5926:	85b2                	mv	a1,a2
    5928:	00ca5a13          	srli	s4,s4,0xc
    592c:	01f6db13          	srli	s6,a3,0x1f
    5930:	10070b63          	beqz	a4,5a46 <__muldf3+0x180>
    5934:	7ff00793          	li	a5,2047
    5938:	04f70363          	beq	a4,a5,597e <__muldf3+0xb8>
    593c:	01d65793          	srli	a5,a2,0x1d
    5940:	0a0e                	slli	s4,s4,0x3
    5942:	0147ea33          	or	s4,a5,s4
    5946:	c0170713          	addi	a4,a4,-1023
    594a:	008007b7          	lui	a5,0x800
    594e:	00fa67b3          	or	a5,s4,a5
    5952:	00361593          	slli	a1,a2,0x3
    5956:	993a                	add	s2,s2,a4
    5958:	4881                	li	a7,0
    595a:	016ac733          	xor	a4,s5,s6
    595e:	46bd                	li	a3,15
    5960:	853a                	mv	a0,a4
    5962:	00190813          	addi	a6,s2,1
    5966:	1736e863          	bltu	a3,s3,5ad6 <__muldf3+0x210>
    596a:	00004617          	auipc	a2,0x4
    596e:	6ae60613          	addi	a2,a2,1710 # a018 <MyUSBQUADescHD+0x108>
    5972:	098a                	slli	s3,s3,0x2
    5974:	99b2                	add	s3,s3,a2
    5976:	0009a683          	lw	a3,0(s3)
    597a:	96b2                	add	a3,a3,a2
    597c:	8682                	jr	a3
    597e:	00ca67b3          	or	a5,s4,a2
    5982:	7ff90913          	addi	s2,s2,2047
    5986:	12079963          	bnez	a5,5ab8 <__muldf3+0x1f2>
    598a:	0029e993          	ori	s3,s3,2
    598e:	4581                	li	a1,0
    5990:	4889                	li	a7,2
    5992:	b7e1                	j	595a <__muldf3+0x94>
    5994:	4701                	li	a4,0
    5996:	7ff00793          	li	a5,2047
    599a:	00080437          	lui	s0,0x80
    599e:	4481                	li	s1,0
    59a0:	0432                	slli	s0,s0,0xc
    59a2:	07d2                	slli	a5,a5,0x14
    59a4:	8031                	srli	s0,s0,0xc
    59a6:	077e                	slli	a4,a4,0x1f
    59a8:	8c5d                	or	s0,s0,a5
    59aa:	8c59                	or	s0,s0,a4
    59ac:	85a2                	mv	a1,s0
    59ae:	50f2                	lw	ra,60(sp)
    59b0:	5462                	lw	s0,56(sp)
    59b2:	8526                	mv	a0,s1
    59b4:	5942                	lw	s2,48(sp)
    59b6:	54d2                	lw	s1,52(sp)
    59b8:	59b2                	lw	s3,44(sp)
    59ba:	5a22                	lw	s4,40(sp)
    59bc:	5a92                	lw	s5,36(sp)
    59be:	5b02                	lw	s6,32(sp)
    59c0:	4bf2                	lw	s7,28(sp)
    59c2:	6121                	addi	sp,sp,64
    59c4:	8082                	ret
    59c6:	855a                	mv	a0,s6
    59c8:	843e                	mv	s0,a5
    59ca:	84ae                	mv	s1,a1
    59cc:	8bc6                	mv	s7,a7
    59ce:	4789                	li	a5,2
    59d0:	0efb8d63          	beq	s7,a5,5aca <__muldf3+0x204>
    59d4:	478d                	li	a5,3
    59d6:	fafb8fe3          	beq	s7,a5,5994 <__muldf3+0xce>
    59da:	4785                	li	a5,1
    59dc:	872a                	mv	a4,a0
    59de:	38fb9e63          	bne	s7,a5,5d7a <__muldf3+0x4b4>
    59e2:	4781                	li	a5,0
    59e4:	4401                	li	s0,0
    59e6:	4481                	li	s1,0
    59e8:	bf65                	j	59a0 <__muldf3+0xda>
    59ea:	00a9e433          	or	s0,s3,a0
    59ee:	c061                	beqz	s0,5aae <__muldf3+0x1e8>
    59f0:	c636                	sw	a3,12(sp)
    59f2:	c432                	sw	a2,8(sp)
    59f4:	2a098c63          	beqz	s3,5cac <__muldf3+0x3e6>
    59f8:	854e                	mv	a0,s3
    59fa:	397000ef          	jal	ra,6590 <__clzsi2>
    59fe:	4622                	lw	a2,8(sp)
    5a00:	46b2                	lw	a3,12(sp)
    5a02:	87aa                	mv	a5,a0
    5a04:	ff550713          	addi	a4,a0,-11
    5a08:	4475                	li	s0,29
    5a0a:	ff878493          	addi	s1,a5,-8 # 7ffff8 <_data_lma+0x7f5b7c>
    5a0e:	8c19                	sub	s0,s0,a4
    5a10:	009999b3          	sll	s3,s3,s1
    5a14:	008a5433          	srl	s0,s4,s0
    5a18:	01346433          	or	s0,s0,s3
    5a1c:	009a14b3          	sll	s1,s4,s1
    5a20:	0146d713          	srli	a4,a3,0x14
    5a24:	c0d00913          	li	s2,-1011
    5a28:	00c69a13          	slli	s4,a3,0xc
    5a2c:	7ff77713          	andi	a4,a4,2047
    5a30:	40f90933          	sub	s2,s2,a5
    5a34:	4981                	li	s3,0
    5a36:	4b81                	li	s7,0
    5a38:	85b2                	mv	a1,a2
    5a3a:	00ca5a13          	srli	s4,s4,0xc
    5a3e:	01f6db13          	srli	s6,a3,0x1f
    5a42:	ee0719e3          	bnez	a4,5934 <__muldf3+0x6e>
    5a46:	00ca67b3          	or	a5,s4,a2
    5a4a:	c7b1                	beqz	a5,5a96 <__muldf3+0x1d0>
    5a4c:	220a0f63          	beqz	s4,5c8a <__muldf3+0x3c4>
    5a50:	8552                	mv	a0,s4
    5a52:	c432                	sw	a2,8(sp)
    5a54:	33d000ef          	jal	ra,6590 <__clzsi2>
    5a58:	4622                	lw	a2,8(sp)
    5a5a:	872a                	mv	a4,a0
    5a5c:	ff550693          	addi	a3,a0,-11
    5a60:	47f5                	li	a5,29
    5a62:	ff870593          	addi	a1,a4,-8
    5a66:	8f95                	sub	a5,a5,a3
    5a68:	00ba1a33          	sll	s4,s4,a1
    5a6c:	00f657b3          	srl	a5,a2,a5
    5a70:	0147e7b3          	or	a5,a5,s4
    5a74:	00b615b3          	sll	a1,a2,a1
    5a78:	40e90933          	sub	s2,s2,a4
    5a7c:	c0d90913          	addi	s2,s2,-1011
    5a80:	4881                	li	a7,0
    5a82:	bde1                	j	595a <__muldf3+0x94>
    5a84:	00a9e433          	or	s0,s3,a0
    5a88:	ec01                	bnez	s0,5aa0 <__muldf3+0x1da>
    5a8a:	49a1                	li	s3,8
    5a8c:	4481                	li	s1,0
    5a8e:	7ff00913          	li	s2,2047
    5a92:	4b89                	li	s7,2
    5a94:	b559                	j	591a <__muldf3+0x54>
    5a96:	0019e993          	ori	s3,s3,1
    5a9a:	4581                	li	a1,0
    5a9c:	4885                	li	a7,1
    5a9e:	bd75                	j	595a <__muldf3+0x94>
    5aa0:	844e                	mv	s0,s3
    5aa2:	84aa                	mv	s1,a0
    5aa4:	49b1                	li	s3,12
    5aa6:	7ff00913          	li	s2,2047
    5aaa:	4b8d                	li	s7,3
    5aac:	b5bd                	j	591a <__muldf3+0x54>
    5aae:	4991                	li	s3,4
    5ab0:	4481                	li	s1,0
    5ab2:	4901                	li	s2,0
    5ab4:	4b85                	li	s7,1
    5ab6:	b595                	j	591a <__muldf3+0x54>
    5ab8:	0039e993          	ori	s3,s3,3
    5abc:	87d2                	mv	a5,s4
    5abe:	488d                	li	a7,3
    5ac0:	bd69                	j	595a <__muldf3+0x94>
    5ac2:	4789                	li	a5,2
    5ac4:	8556                	mv	a0,s5
    5ac6:	f0fb97e3          	bne	s7,a5,59d4 <__muldf3+0x10e>
    5aca:	872a                	mv	a4,a0
    5acc:	7ff00793          	li	a5,2047
    5ad0:	4401                	li	s0,0
    5ad2:	4481                	li	s1,0
    5ad4:	b5f1                	j	59a0 <__muldf3+0xda>
    5ad6:	6ec1                	lui	t4,0x10
    5ad8:	fffe8613          	addi	a2,t4,-1 # ffff <_data_lma+0x5b83>
    5adc:	0104d693          	srli	a3,s1,0x10
    5ae0:	0105de13          	srli	t3,a1,0x10
    5ae4:	8cf1                	and	s1,s1,a2
    5ae6:	8df1                	and	a1,a1,a2
    5ae8:	02958633          	mul	a2,a1,s1
    5aec:	02b68333          	mul	t1,a3,a1
    5af0:	01065893          	srli	a7,a2,0x10
    5af4:	029e0533          	mul	a0,t3,s1
    5af8:	951a                	add	a0,a0,t1
    5afa:	98aa                	add	a7,a7,a0
    5afc:	03c682b3          	mul	t0,a3,t3
    5b00:	0068f363          	bgeu	a7,t1,5b06 <__muldf3+0x240>
    5b04:	92f6                	add	t0,t0,t4
    5b06:	6fc1                	lui	t6,0x10
    5b08:	ffff8313          	addi	t1,t6,-1 # ffff <_data_lma+0x5b83>
    5b0c:	0067f533          	and	a0,a5,t1
    5b10:	0107d393          	srli	t2,a5,0x10
    5b14:	0068f7b3          	and	a5,a7,t1
    5b18:	07c2                	slli	a5,a5,0x10
    5b1a:	00667333          	and	t1,a2,t1
    5b1e:	933e                	add	t1,t1,a5
    5b20:	02950633          	mul	a2,a0,s1
    5b24:	0108d893          	srli	a7,a7,0x10
    5b28:	02a687b3          	mul	a5,a3,a0
    5b2c:	01065f13          	srli	t5,a2,0x10
    5b30:	029384b3          	mul	s1,t2,s1
    5b34:	94be                	add	s1,s1,a5
    5b36:	94fa                	add	s1,s1,t5
    5b38:	02768eb3          	mul	t4,a3,t2
    5b3c:	00f4f363          	bgeu	s1,a5,5b42 <__muldf3+0x27c>
    5b40:	9efe                	add	t4,t4,t6
    5b42:	6a41                	lui	s4,0x10
    5b44:	fffa0793          	addi	a5,s4,-1 # ffff <_data_lma+0x5b83>
    5b48:	01045f93          	srli	t6,s0,0x10
    5b4c:	00f476b3          	and	a3,s0,a5
    5b50:	00f4f9b3          	and	s3,s1,a5
    5b54:	8e7d                	and	a2,a2,a5
    5b56:	80c1                	srli	s1,s1,0x10
    5b58:	02d58433          	mul	s0,a1,a3
    5b5c:	09c2                	slli	s3,s3,0x10
    5b5e:	01d48f33          	add	t5,s1,t4
    5b62:	99b2                	add	s3,s3,a2
    5b64:	98ce                	add	a7,a7,s3
    5b66:	02de07b3          	mul	a5,t3,a3
    5b6a:	01045e93          	srli	t4,s0,0x10
    5b6e:	02bf85b3          	mul	a1,t6,a1
    5b72:	97ae                	add	a5,a5,a1
    5b74:	9ebe                	add	t4,t4,a5
    5b76:	03fe0e33          	mul	t3,t3,t6
    5b7a:	00bef363          	bgeu	t4,a1,5b80 <__muldf3+0x2ba>
    5b7e:	9e52                	add	t3,t3,s4
    5b80:	67c1                	lui	a5,0x10
    5b82:	fff78593          	addi	a1,a5,-1 # ffff <_data_lma+0x5b83>
    5b86:	00bef633          	and	a2,t4,a1
    5b8a:	8c6d                	and	s0,s0,a1
    5b8c:	0642                	slli	a2,a2,0x10
    5b8e:	9622                	add	a2,a2,s0
    5b90:	010ede93          	srli	t4,t4,0x10
    5b94:	02d505b3          	mul	a1,a0,a3
    5b98:	9e76                	add	t3,t3,t4
    5b9a:	02af8533          	mul	a0,t6,a0
    5b9e:	0105d413          	srli	s0,a1,0x10
    5ba2:	02d386b3          	mul	a3,t2,a3
    5ba6:	96aa                	add	a3,a3,a0
    5ba8:	96a2                	add	a3,a3,s0
    5baa:	03f38fb3          	mul	t6,t2,t6
    5bae:	00a6f363          	bgeu	a3,a0,5bb4 <__muldf3+0x2ee>
    5bb2:	9fbe                	add	t6,t6,a5
    5bb4:	6541                	lui	a0,0x10
    5bb6:	157d                	addi	a0,a0,-1
    5bb8:	00a6f7b3          	and	a5,a3,a0
    5bbc:	07c2                	slli	a5,a5,0x10
    5bbe:	8d6d                	and	a0,a0,a1
    5bc0:	97aa                	add	a5,a5,a0
    5bc2:	005885b3          	add	a1,a7,t0
    5bc6:	0135b9b3          	sltu	s3,a1,s3
    5bca:	97fa                	add	a5,a5,t5
    5bcc:	95b2                	add	a1,a1,a2
    5bce:	01378433          	add	s0,a5,s3
    5bd2:	00c5b633          	sltu	a2,a1,a2
    5bd6:	01c40eb3          	add	t4,s0,t3
    5bda:	00ce8533          	add	a0,t4,a2
    5bde:	01343433          	sltu	s0,s0,s3
    5be2:	01e7b7b3          	sltu	a5,a5,t5
    5be6:	8fc1                	or	a5,a5,s0
    5be8:	01cebe33          	sltu	t3,t4,t3
    5bec:	0106d413          	srli	s0,a3,0x10
    5bf0:	00c53633          	sltu	a2,a0,a2
    5bf4:	943e                	add	s0,s0,a5
    5bf6:	00ce6633          	or	a2,t3,a2
    5bfa:	00959493          	slli	s1,a1,0x9
    5bfe:	9432                	add	s0,s0,a2
    5c00:	947e                	add	s0,s0,t6
    5c02:	0064e4b3          	or	s1,s1,t1
    5c06:	0426                	slli	s0,s0,0x9
    5c08:	01755693          	srli	a3,a0,0x17
    5c0c:	009034b3          	snez	s1,s1
    5c10:	81dd                	srli	a1,a1,0x17
    5c12:	00951793          	slli	a5,a0,0x9
    5c16:	8ccd                	or	s1,s1,a1
    5c18:	8c55                	or	s0,s0,a3
    5c1a:	8cdd                	or	s1,s1,a5
    5c1c:	00741793          	slli	a5,s0,0x7
    5c20:	0007db63          	bgez	a5,5c36 <__muldf3+0x370>
    5c24:	0014d793          	srli	a5,s1,0x1
    5c28:	8885                	andi	s1,s1,1
    5c2a:	01f41693          	slli	a3,s0,0x1f
    5c2e:	8cdd                	or	s1,s1,a5
    5c30:	8cd5                	or	s1,s1,a3
    5c32:	8005                	srli	s0,s0,0x1
    5c34:	8942                	mv	s2,a6
    5c36:	3ff90793          	addi	a5,s2,1023
    5c3a:	08f05963          	blez	a5,5ccc <__muldf3+0x406>
    5c3e:	0074f693          	andi	a3,s1,7
    5c42:	ce81                	beqz	a3,5c5a <__muldf3+0x394>
    5c44:	00f4f693          	andi	a3,s1,15
    5c48:	4611                	li	a2,4
    5c4a:	00c68863          	beq	a3,a2,5c5a <__muldf3+0x394>
    5c4e:	00448693          	addi	a3,s1,4
    5c52:	0096b4b3          	sltu	s1,a3,s1
    5c56:	9426                	add	s0,s0,s1
    5c58:	84b6                	mv	s1,a3
    5c5a:	00741693          	slli	a3,s0,0x7
    5c5e:	0006d863          	bgez	a3,5c6e <__muldf3+0x3a8>
    5c62:	ff0007b7          	lui	a5,0xff000
    5c66:	17fd                	addi	a5,a5,-1
    5c68:	8c7d                	and	s0,s0,a5
    5c6a:	40090793          	addi	a5,s2,1024
    5c6e:	7fe00693          	li	a3,2046
    5c72:	0ef6cf63          	blt	a3,a5,5d70 <__muldf3+0x4aa>
    5c76:	0034d693          	srli	a3,s1,0x3
    5c7a:	01d41493          	slli	s1,s0,0x1d
    5c7e:	0426                	slli	s0,s0,0x9
    5c80:	8cd5                	or	s1,s1,a3
    5c82:	8031                	srli	s0,s0,0xc
    5c84:	7ff7f793          	andi	a5,a5,2047
    5c88:	bb21                	j	59a0 <__muldf3+0xda>
    5c8a:	8532                	mv	a0,a2
    5c8c:	c432                	sw	a2,8(sp)
    5c8e:	103000ef          	jal	ra,6590 <__clzsi2>
    5c92:	01550693          	addi	a3,a0,21 # 10015 <_data_lma+0x5b99>
    5c96:	47f1                	li	a5,28
    5c98:	02050713          	addi	a4,a0,32
    5c9c:	4622                	lw	a2,8(sp)
    5c9e:	dcd7d1e3          	bge	a5,a3,5a60 <__muldf3+0x19a>
    5ca2:	1561                	addi	a0,a0,-8
    5ca4:	00a617b3          	sll	a5,a2,a0
    5ca8:	4581                	li	a1,0
    5caa:	b3f9                	j	5a78 <__muldf3+0x1b2>
    5cac:	0e5000ef          	jal	ra,6590 <__clzsi2>
    5cb0:	01550713          	addi	a4,a0,21
    5cb4:	45f1                	li	a1,28
    5cb6:	02050793          	addi	a5,a0,32
    5cba:	4622                	lw	a2,8(sp)
    5cbc:	46b2                	lw	a3,12(sp)
    5cbe:	d4e5d5e3          	bge	a1,a4,5a08 <__muldf3+0x142>
    5cc2:	1561                	addi	a0,a0,-8
    5cc4:	00aa1433          	sll	s0,s4,a0
    5cc8:	4481                	li	s1,0
    5cca:	bb99                	j	5a20 <__muldf3+0x15a>
    5ccc:	4685                	li	a3,1
    5cce:	8e9d                	sub	a3,a3,a5
    5cd0:	e7b1                	bnez	a5,5d1c <__muldf3+0x456>
    5cd2:	41e90913          	addi	s2,s2,1054
    5cd6:	012497b3          	sll	a5,s1,s2
    5cda:	00d4d4b3          	srl	s1,s1,a3
    5cde:	01241933          	sll	s2,s0,s2
    5ce2:	00f037b3          	snez	a5,a5
    5ce6:	009964b3          	or	s1,s2,s1
    5cea:	8cdd                	or	s1,s1,a5
    5cec:	0074f793          	andi	a5,s1,7
    5cf0:	00d456b3          	srl	a3,s0,a3
    5cf4:	cf81                	beqz	a5,5d0c <__muldf3+0x446>
    5cf6:	00f4f793          	andi	a5,s1,15
    5cfa:	4611                	li	a2,4
    5cfc:	00c78863          	beq	a5,a2,5d0c <__muldf3+0x446>
    5d00:	00448793          	addi	a5,s1,4
    5d04:	0097b4b3          	sltu	s1,a5,s1
    5d08:	96a6                	add	a3,a3,s1
    5d0a:	84be                	mv	s1,a5
    5d0c:	00869793          	slli	a5,a3,0x8
    5d10:	0407d863          	bgez	a5,5d60 <__muldf3+0x49a>
    5d14:	4785                	li	a5,1
    5d16:	4401                	li	s0,0
    5d18:	4481                	li	s1,0
    5d1a:	b159                	j	59a0 <__muldf3+0xda>
    5d1c:	03800613          	li	a2,56
    5d20:	ccd641e3          	blt	a2,a3,59e2 <__muldf3+0x11c>
    5d24:	467d                	li	a2,31
    5d26:	fad656e3          	bge	a2,a3,5cd2 <__muldf3+0x40c>
    5d2a:	5605                	li	a2,-31
    5d2c:	40f607b3          	sub	a5,a2,a5
    5d30:	02000593          	li	a1,32
    5d34:	00f45633          	srl	a2,s0,a5
    5d38:	00b68763          	beq	a3,a1,5d46 <__muldf3+0x480>
    5d3c:	43e90913          	addi	s2,s2,1086
    5d40:	012417b3          	sll	a5,s0,s2
    5d44:	8cdd                	or	s1,s1,a5
    5d46:	009034b3          	snez	s1,s1
    5d4a:	8cd1                	or	s1,s1,a2
    5d4c:	0074f693          	andi	a3,s1,7
    5d50:	4401                	li	s0,0
    5d52:	ca99                	beqz	a3,5d68 <__muldf3+0x4a2>
    5d54:	00f4f793          	andi	a5,s1,15
    5d58:	4611                	li	a2,4
    5d5a:	4681                	li	a3,0
    5d5c:	fac792e3          	bne	a5,a2,5d00 <__muldf3+0x43a>
    5d60:	00969413          	slli	s0,a3,0x9
    5d64:	8031                	srli	s0,s0,0xc
    5d66:	06f6                	slli	a3,a3,0x1d
    5d68:	808d                	srli	s1,s1,0x3
    5d6a:	8cd5                	or	s1,s1,a3
    5d6c:	4781                	li	a5,0
    5d6e:	b90d                	j	59a0 <__muldf3+0xda>
    5d70:	7ff00793          	li	a5,2047
    5d74:	4401                	li	s0,0
    5d76:	4481                	li	s1,0
    5d78:	b125                	j	59a0 <__muldf3+0xda>
    5d7a:	8942                	mv	s2,a6
    5d7c:	bd6d                	j	5c36 <__muldf3+0x370>

00005d7e <__subdf3>:
__subdf3():
    5d7e:	00100737          	lui	a4,0x100
    5d82:	177d                	addi	a4,a4,-1
    5d84:	1101                	addi	sp,sp,-32
    5d86:	00b77333          	and	t1,a4,a1
    5d8a:	0146d893          	srli	a7,a3,0x14
    5d8e:	8f75                	and	a4,a4,a3
    5d90:	01d65e93          	srli	t4,a2,0x1d
    5d94:	cc22                	sw	s0,24(sp)
    5d96:	ca26                	sw	s1,20(sp)
    5d98:	030e                	slli	t1,t1,0x3
    5d9a:	0145d493          	srli	s1,a1,0x14
    5d9e:	01d55793          	srli	a5,a0,0x1d
    5da2:	070e                	slli	a4,a4,0x3
    5da4:	ce06                	sw	ra,28(sp)
    5da6:	c84a                	sw	s2,16(sp)
    5da8:	c64e                	sw	s3,12(sp)
    5daa:	7ff8f893          	andi	a7,a7,2047
    5dae:	7ff00e13          	li	t3,2047
    5db2:	00eee733          	or	a4,t4,a4
    5db6:	7ff4f493          	andi	s1,s1,2047
    5dba:	01f5d413          	srli	s0,a1,0x1f
    5dbe:	0067e333          	or	t1,a5,t1
    5dc2:	00351f13          	slli	t5,a0,0x3
    5dc6:	82fd                	srli	a3,a3,0x1f
    5dc8:	00361e93          	slli	t4,a2,0x3
    5dcc:	17c88f63          	beq	a7,t3,5f4a <__subdf3+0x1cc>
    5dd0:	0016c693          	xori	a3,a3,1
    5dd4:	411485b3          	sub	a1,s1,a7
    5dd8:	12d40463          	beq	s0,a3,5f00 <__subdf3+0x182>
    5ddc:	18b05063          	blez	a1,5f5c <__subdf3+0x1de>
    5de0:	1a088a63          	beqz	a7,5f94 <__subdf3+0x216>
    5de4:	008007b7          	lui	a5,0x800
    5de8:	8f5d                	or	a4,a4,a5
    5dea:	57c48f63          	beq	s1,t3,6368 <__subdf3+0x5ea>
    5dee:	03800793          	li	a5,56
    5df2:	34b7c263          	blt	a5,a1,6136 <__subdf3+0x3b8>
    5df6:	47fd                	li	a5,31
    5df8:	48b7c363          	blt	a5,a1,627e <__subdf3+0x500>
    5dfc:	02000793          	li	a5,32
    5e00:	8f8d                	sub	a5,a5,a1
    5e02:	00bed9b3          	srl	s3,t4,a1
    5e06:	00f71833          	sll	a6,a4,a5
    5e0a:	00fe9eb3          	sll	t4,t4,a5
    5e0e:	01386833          	or	a6,a6,s3
    5e12:	00b75733          	srl	a4,a4,a1
    5e16:	01d039b3          	snez	s3,t4
    5e1a:	01386833          	or	a6,a6,s3
    5e1e:	40e30333          	sub	t1,t1,a4
    5e22:	410f09b3          	sub	s3,t5,a6
    5e26:	013f37b3          	sltu	a5,t5,s3
    5e2a:	40f30633          	sub	a2,t1,a5
    5e2e:	00861793          	slli	a5,a2,0x8
    5e32:	2407d263          	bgez	a5,6076 <__subdf3+0x2f8>
    5e36:	00800937          	lui	s2,0x800
    5e3a:	197d                	addi	s2,s2,-1
    5e3c:	01267933          	and	s2,a2,s2
    5e40:	2c090e63          	beqz	s2,611c <__subdf3+0x39e>
    5e44:	854a                	mv	a0,s2
    5e46:	27a9                	jal	6590 <__clzsi2>
    5e48:	ff850713          	addi	a4,a0,-8
    5e4c:	02000793          	li	a5,32
    5e50:	8f99                	sub	a5,a5,a4
    5e52:	00f9d7b3          	srl	a5,s3,a5
    5e56:	00e91633          	sll	a2,s2,a4
    5e5a:	8fd1                	or	a5,a5,a2
    5e5c:	00e999b3          	sll	s3,s3,a4
    5e60:	2a974463          	blt	a4,s1,6108 <__subdf3+0x38a>
    5e64:	8f05                	sub	a4,a4,s1
    5e66:	00170613          	addi	a2,a4,1 # 100001 <_data_lma+0xf5b85>
    5e6a:	46fd                	li	a3,31
    5e6c:	3ac6c463          	blt	a3,a2,6214 <__subdf3+0x496>
    5e70:	02000713          	li	a4,32
    5e74:	8f11                	sub	a4,a4,a2
    5e76:	00c9d6b3          	srl	a3,s3,a2
    5e7a:	00e99833          	sll	a6,s3,a4
    5e7e:	00e79733          	sll	a4,a5,a4
    5e82:	8f55                	or	a4,a4,a3
    5e84:	01003833          	snez	a6,a6
    5e88:	010769b3          	or	s3,a4,a6
    5e8c:	00c7d633          	srl	a2,a5,a2
    5e90:	4481                	li	s1,0
    5e92:	0079f793          	andi	a5,s3,7
    5e96:	cf81                	beqz	a5,5eae <__subdf3+0x130>
    5e98:	00f9f693          	andi	a3,s3,15
    5e9c:	4791                	li	a5,4
    5e9e:	00f68863          	beq	a3,a5,5eae <__subdf3+0x130>
    5ea2:	00498693          	addi	a3,s3,4
    5ea6:	0136b833          	sltu	a6,a3,s3
    5eaa:	9642                	add	a2,a2,a6
    5eac:	89b6                	mv	s3,a3
    5eae:	00861793          	slli	a5,a2,0x8
    5eb2:	1c07d663          	bgez	a5,607e <__subdf3+0x300>
    5eb6:	00148713          	addi	a4,s1,1
    5eba:	7ff00793          	li	a5,2047
    5ebe:	8805                	andi	s0,s0,1
    5ec0:	20f70663          	beq	a4,a5,60cc <__subdf3+0x34e>
    5ec4:	ff8007b7          	lui	a5,0xff800
    5ec8:	17fd                	addi	a5,a5,-1
    5eca:	8ff1                	and	a5,a5,a2
    5ecc:	01d79813          	slli	a6,a5,0x1d
    5ed0:	0039d993          	srli	s3,s3,0x3
    5ed4:	07a6                	slli	a5,a5,0x9
    5ed6:	01386833          	or	a6,a6,s3
    5eda:	83b1                	srli	a5,a5,0xc
    5edc:	7ff77713          	andi	a4,a4,2047
    5ee0:	00c79693          	slli	a3,a5,0xc
    5ee4:	0752                	slli	a4,a4,0x14
    5ee6:	82b1                	srli	a3,a3,0xc
    5ee8:	047e                	slli	s0,s0,0x1f
    5eea:	8ed9                	or	a3,a3,a4
    5eec:	8ec1                	or	a3,a3,s0
    5eee:	40f2                	lw	ra,28(sp)
    5ef0:	4462                	lw	s0,24(sp)
    5ef2:	44d2                	lw	s1,20(sp)
    5ef4:	4942                	lw	s2,16(sp)
    5ef6:	49b2                	lw	s3,12(sp)
    5ef8:	8542                	mv	a0,a6
    5efa:	85b6                	mv	a1,a3
    5efc:	6105                	addi	sp,sp,32
    5efe:	8082                	ret
    5f00:	0ab05663          	blez	a1,5fac <__subdf3+0x22e>
    5f04:	12088a63          	beqz	a7,6038 <__subdf3+0x2ba>
    5f08:	008007b7          	lui	a5,0x800
    5f0c:	8f5d                	or	a4,a4,a5
    5f0e:	2dc48663          	beq	s1,t3,61da <__subdf3+0x45c>
    5f12:	03800793          	li	a5,56
    5f16:	18b7c763          	blt	a5,a1,60a4 <__subdf3+0x326>
    5f1a:	47fd                	li	a5,31
    5f1c:	3cb7d163          	bge	a5,a1,62de <__subdf3+0x560>
    5f20:	fe058813          	addi	a6,a1,-32 # ffe0 <_data_lma+0x5b64>
    5f24:	02000793          	li	a5,32
    5f28:	010759b3          	srl	s3,a4,a6
    5f2c:	00f58a63          	beq	a1,a5,5f40 <__subdf3+0x1c2>
    5f30:	04000793          	li	a5,64
    5f34:	40b785b3          	sub	a1,a5,a1
    5f38:	00b71733          	sll	a4,a4,a1
    5f3c:	00eeeeb3          	or	t4,t4,a4
    5f40:	01d03833          	snez	a6,t4
    5f44:	01386833          	or	a6,a6,s3
    5f48:	a295                	j	60ac <__subdf3+0x32e>
    5f4a:	01d767b3          	or	a5,a4,t4
    5f4e:	80148593          	addi	a1,s1,-2047
    5f52:	e399                	bnez	a5,5f58 <__subdf3+0x1da>
    5f54:	0016c693          	xori	a3,a3,1
    5f58:	04d40a63          	beq	s0,a3,5fac <__subdf3+0x22e>
    5f5c:	e1d1                	bnez	a1,5fe0 <__subdf3+0x262>
    5f5e:	00148793          	addi	a5,s1,1
    5f62:	7fe7f793          	andi	a5,a5,2046
    5f66:	1e079863          	bnez	a5,6156 <__subdf3+0x3d8>
    5f6a:	01e367b3          	or	a5,t1,t5
    5f6e:	01d76833          	or	a6,a4,t4
    5f72:	16049263          	bnez	s1,60d6 <__subdf3+0x358>
    5f76:	3c078163          	beqz	a5,6338 <__subdf3+0x5ba>
    5f7a:	42081563          	bnez	a6,63a4 <__subdf3+0x626>
    5f7e:	00351813          	slli	a6,a0,0x3
    5f82:	01d31693          	slli	a3,t1,0x1d
    5f86:	00385813          	srli	a6,a6,0x3
    5f8a:	0106e833          	or	a6,a3,a6
    5f8e:	00335793          	srli	a5,t1,0x3
    5f92:	a219                	j	6098 <__subdf3+0x31a>
    5f94:	01d767b3          	or	a5,a4,t4
    5f98:	1a078463          	beqz	a5,6140 <__subdf3+0x3c2>
    5f9c:	fff58793          	addi	a5,a1,-1
    5fa0:	3a078a63          	beqz	a5,6354 <__subdf3+0x5d6>
    5fa4:	23c58b63          	beq	a1,t3,61da <__subdf3+0x45c>
    5fa8:	85be                	mv	a1,a5
    5faa:	b591                	j	5dee <__subdf3+0x70>
    5fac:	1c059863          	bnez	a1,617c <__subdf3+0x3fe>
    5fb0:	00148693          	addi	a3,s1,1
    5fb4:	7fe6f793          	andi	a5,a3,2046
    5fb8:	efc1                	bnez	a5,6050 <__subdf3+0x2d2>
    5fba:	01e367b3          	or	a5,t1,t5
    5fbe:	34049f63          	bnez	s1,631c <__subdf3+0x59e>
    5fc2:	44078c63          	beqz	a5,641a <__subdf3+0x69c>
    5fc6:	01d767b3          	or	a5,a4,t4
    5fca:	46079363          	bnez	a5,6430 <__subdf3+0x6b2>
    5fce:	050e                	slli	a0,a0,0x3
    5fd0:	01d31813          	slli	a6,t1,0x1d
    5fd4:	810d                	srli	a0,a0,0x3
    5fd6:	00a86833          	or	a6,a6,a0
    5fda:	00335793          	srli	a5,t1,0x3
    5fde:	a86d                	j	6098 <__subdf3+0x31a>
    5fe0:	409885b3          	sub	a1,a7,s1
    5fe4:	20049663          	bnez	s1,61f0 <__subdf3+0x472>
    5fe8:	01e367b3          	or	a5,t1,t5
    5fec:	30078c63          	beqz	a5,6304 <__subdf3+0x586>
    5ff0:	fff58793          	addi	a5,a1,-1
    5ff4:	40078863          	beqz	a5,6404 <__subdf3+0x686>
    5ff8:	7ff00513          	li	a0,2047
    5ffc:	20a58263          	beq	a1,a0,6200 <__subdf3+0x482>
    6000:	85be                	mv	a1,a5
    6002:	03800793          	li	a5,56
    6006:	2ab7c163          	blt	a5,a1,62a8 <__subdf3+0x52a>
    600a:	47fd                	li	a5,31
    600c:	3cb7c763          	blt	a5,a1,63da <__subdf3+0x65c>
    6010:	02000793          	li	a5,32
    6014:	8f8d                	sub	a5,a5,a1
    6016:	00f31833          	sll	a6,t1,a5
    601a:	00bf5633          	srl	a2,t5,a1
    601e:	00ff17b3          	sll	a5,t5,a5
    6022:	00c86833          	or	a6,a6,a2
    6026:	00f039b3          	snez	s3,a5
    602a:	00b35333          	srl	t1,t1,a1
    602e:	01386833          	or	a6,a6,s3
    6032:	40670733          	sub	a4,a4,t1
    6036:	acad                	j	62b0 <__subdf3+0x532>
    6038:	01d767b3          	or	a5,a4,t4
    603c:	10078263          	beqz	a5,6140 <__subdf3+0x3c2>
    6040:	fff58793          	addi	a5,a1,-1
    6044:	1e078e63          	beqz	a5,6240 <__subdf3+0x4c2>
    6048:	2dc58f63          	beq	a1,t3,6326 <__subdf3+0x5a8>
    604c:	85be                	mv	a1,a5
    604e:	b5d1                	j	5f12 <__subdf3+0x194>
    6050:	7ff00793          	li	a5,2047
    6054:	06f68b63          	beq	a3,a5,60ca <__subdf3+0x34c>
    6058:	9efa                	add	t4,t4,t5
    605a:	01eeb633          	sltu	a2,t4,t5
    605e:	00e307b3          	add	a5,t1,a4
    6062:	97b2                	add	a5,a5,a2
    6064:	01f79813          	slli	a6,a5,0x1f
    6068:	001ede93          	srli	t4,t4,0x1
    606c:	01d869b3          	or	s3,a6,t4
    6070:	0017d613          	srli	a2,a5,0x1
    6074:	84b6                	mv	s1,a3
    6076:	0079f793          	andi	a5,s3,7
    607a:	e0079fe3          	bnez	a5,5e98 <__subdf3+0x11a>
    607e:	01d61793          	slli	a5,a2,0x1d
    6082:	0039d813          	srli	a6,s3,0x3
    6086:	00f86833          	or	a6,a6,a5
    608a:	85a6                	mv	a1,s1
    608c:	00365793          	srli	a5,a2,0x3
    6090:	7ff00713          	li	a4,2047
    6094:	06e58063          	beq	a1,a4,60f4 <__subdf3+0x376>
    6098:	07b2                	slli	a5,a5,0xc
    609a:	83b1                	srli	a5,a5,0xc
    609c:	7ff5f713          	andi	a4,a1,2047
    60a0:	8805                	andi	s0,s0,1
    60a2:	bd3d                	j	5ee0 <__subdf3+0x162>
    60a4:	01d76733          	or	a4,a4,t4
    60a8:	00e03833          	snez	a6,a4
    60ac:	01e809b3          	add	s3,a6,t5
    60b0:	01e9b7b3          	sltu	a5,s3,t5
    60b4:	00678633          	add	a2,a5,t1
    60b8:	00861793          	slli	a5,a2,0x8
    60bc:	fa07dde3          	bgez	a5,6076 <__subdf3+0x2f8>
    60c0:	0485                	addi	s1,s1,1
    60c2:	7ff00793          	li	a5,2047
    60c6:	18f49b63          	bne	s1,a5,625c <__subdf3+0x4de>
    60ca:	8805                	andi	s0,s0,1
    60cc:	7ff00713          	li	a4,2047
    60d0:	4781                	li	a5,0
    60d2:	4801                	li	a6,0
    60d4:	b531                	j	5ee0 <__subdf3+0x162>
    60d6:	10079063          	bnez	a5,61d6 <__subdf3+0x458>
    60da:	3c080063          	beqz	a6,649a <__subdf3+0x71c>
    60de:	00361813          	slli	a6,a2,0x3
    60e2:	01d71793          	slli	a5,a4,0x1d
    60e6:	00385813          	srli	a6,a6,0x3
    60ea:	00f86833          	or	a6,a6,a5
    60ee:	8436                	mv	s0,a3
    60f0:	00375793          	srli	a5,a4,0x3
    60f4:	00f867b3          	or	a5,a6,a5
    60f8:	dbe9                	beqz	a5,60ca <__subdf3+0x34c>
    60fa:	4401                	li	s0,0
    60fc:	7ff00713          	li	a4,2047
    6100:	000807b7          	lui	a5,0x80
    6104:	4801                	li	a6,0
    6106:	bbe9                	j	5ee0 <__subdf3+0x162>
    6108:	ff800637          	lui	a2,0xff800
    610c:	167d                	addi	a2,a2,-1
    610e:	8e7d                	and	a2,a2,a5
    6110:	0079f793          	andi	a5,s3,7
    6114:	8c99                	sub	s1,s1,a4
    6116:	d80791e3          	bnez	a5,5e98 <__subdf3+0x11a>
    611a:	b795                	j	607e <__subdf3+0x300>
    611c:	854e                	mv	a0,s3
    611e:	298d                	jal	6590 <__clzsi2>
    6120:	01850713          	addi	a4,a0,24
    6124:	47fd                	li	a5,31
    6126:	d2e7d3e3          	bge	a5,a4,5e4c <__subdf3+0xce>
    612a:	ff850613          	addi	a2,a0,-8
    612e:	00c997b3          	sll	a5,s3,a2
    6132:	4981                	li	s3,0
    6134:	b335                	j	5e60 <__subdf3+0xe2>
    6136:	01d76833          	or	a6,a4,t4
    613a:	01003833          	snez	a6,a6
    613e:	b1d5                	j	5e22 <__subdf3+0xa4>
    6140:	00351813          	slli	a6,a0,0x3
    6144:	01d31793          	slli	a5,t1,0x1d
    6148:	00385813          	srli	a6,a6,0x3
    614c:	00f86833          	or	a6,a6,a5
    6150:	00335793          	srli	a5,t1,0x3
    6154:	bf35                	j	6090 <__subdf3+0x312>
    6156:	41df09b3          	sub	s3,t5,t4
    615a:	40e30933          	sub	s2,t1,a4
    615e:	013f3633          	sltu	a2,t5,s3
    6162:	40c90933          	sub	s2,s2,a2
    6166:	00891793          	slli	a5,s2,0x8
    616a:	2007ca63          	bltz	a5,637e <__subdf3+0x600>
    616e:	0129e833          	or	a6,s3,s2
    6172:	cc0817e3          	bnez	a6,5e40 <__subdf3+0xc2>
    6176:	4781                	li	a5,0
    6178:	4401                	li	s0,0
    617a:	bf39                	j	6098 <__subdf3+0x31a>
    617c:	409885b3          	sub	a1,a7,s1
    6180:	14048163          	beqz	s1,62c2 <__subdf3+0x544>
    6184:	008006b7          	lui	a3,0x800
    6188:	7ff00793          	li	a5,2047
    618c:	00d36333          	or	t1,t1,a3
    6190:	20f88163          	beq	a7,a5,6392 <__subdf3+0x614>
    6194:	03800793          	li	a5,56
    6198:	22b7cc63          	blt	a5,a1,63d0 <__subdf3+0x652>
    619c:	47fd                	li	a5,31
    619e:	2cb7c963          	blt	a5,a1,6470 <__subdf3+0x6f2>
    61a2:	02000793          	li	a5,32
    61a6:	8f8d                	sub	a5,a5,a1
    61a8:	00f31833          	sll	a6,t1,a5
    61ac:	00bf56b3          	srl	a3,t5,a1
    61b0:	00ff17b3          	sll	a5,t5,a5
    61b4:	00d86833          	or	a6,a6,a3
    61b8:	00f039b3          	snez	s3,a5
    61bc:	00b35333          	srl	t1,t1,a1
    61c0:	01386833          	or	a6,a6,s3
    61c4:	971a                	add	a4,a4,t1
    61c6:	01d809b3          	add	s3,a6,t4
    61ca:	01d9b7b3          	sltu	a5,s3,t4
    61ce:	00e78633          	add	a2,a5,a4
    61d2:	84c6                	mv	s1,a7
    61d4:	b5d5                	j	60b8 <__subdf3+0x33a>
    61d6:	f20812e3          	bnez	a6,60fa <__subdf3+0x37c>
    61da:	00351813          	slli	a6,a0,0x3
    61de:	01d31793          	slli	a5,t1,0x1d
    61e2:	00385813          	srli	a6,a6,0x3
    61e6:	00f86833          	or	a6,a6,a5
    61ea:	00335793          	srli	a5,t1,0x3
    61ee:	b719                	j	60f4 <__subdf3+0x376>
    61f0:	00800537          	lui	a0,0x800
    61f4:	7ff00793          	li	a5,2047
    61f8:	00a36333          	or	t1,t1,a0
    61fc:	e0f893e3          	bne	a7,a5,6002 <__subdf3+0x284>
    6200:	060e                	slli	a2,a2,0x3
    6202:	01d71813          	slli	a6,a4,0x1d
    6206:	820d                	srli	a2,a2,0x3
    6208:	00c86833          	or	a6,a6,a2
    620c:	00375793          	srli	a5,a4,0x3
    6210:	8436                	mv	s0,a3
    6212:	b5cd                	j	60f4 <__subdf3+0x376>
    6214:	1705                	addi	a4,a4,-31
    6216:	02000693          	li	a3,32
    621a:	00e7d733          	srl	a4,a5,a4
    621e:	00d60a63          	beq	a2,a3,6232 <__subdf3+0x4b4>
    6222:	04000693          	li	a3,64
    6226:	40c68633          	sub	a2,a3,a2
    622a:	00c79633          	sll	a2,a5,a2
    622e:	00c9e9b3          	or	s3,s3,a2
    6232:	01303833          	snez	a6,s3
    6236:	00e869b3          	or	s3,a6,a4
    623a:	4601                	li	a2,0
    623c:	4481                	li	s1,0
    623e:	bd25                	j	6076 <__subdf3+0x2f8>
    6240:	01df09b3          	add	s3,t5,t4
    6244:	00e307b3          	add	a5,t1,a4
    6248:	01e9bf33          	sltu	t5,s3,t5
    624c:	01e78633          	add	a2,a5,t5
    6250:	00861793          	slli	a5,a2,0x8
    6254:	4485                	li	s1,1
    6256:	e207d0e3          	bgez	a5,6076 <__subdf3+0x2f8>
    625a:	4489                	li	s1,2
    625c:	ff8007b7          	lui	a5,0xff800
    6260:	17fd                	addi	a5,a5,-1
    6262:	8ff1                	and	a5,a5,a2
    6264:	0019d713          	srli	a4,s3,0x1
    6268:	0019f813          	andi	a6,s3,1
    626c:	01076833          	or	a6,a4,a6
    6270:	01f79993          	slli	s3,a5,0x1f
    6274:	0109e9b3          	or	s3,s3,a6
    6278:	0017d613          	srli	a2,a5,0x1
    627c:	b919                	j	5e92 <__subdf3+0x114>
    627e:	fe058813          	addi	a6,a1,-32
    6282:	02000793          	li	a5,32
    6286:	010759b3          	srl	s3,a4,a6
    628a:	00f58a63          	beq	a1,a5,629e <__subdf3+0x520>
    628e:	04000793          	li	a5,64
    6292:	40b785b3          	sub	a1,a5,a1
    6296:	00b71733          	sll	a4,a4,a1
    629a:	00eeeeb3          	or	t4,t4,a4
    629e:	01d03833          	snez	a6,t4
    62a2:	01386833          	or	a6,a6,s3
    62a6:	beb5                	j	5e22 <__subdf3+0xa4>
    62a8:	01e36333          	or	t1,t1,t5
    62ac:	00603833          	snez	a6,t1
    62b0:	410e89b3          	sub	s3,t4,a6
    62b4:	013eb7b3          	sltu	a5,t4,s3
    62b8:	40f70633          	sub	a2,a4,a5
    62bc:	84c6                	mv	s1,a7
    62be:	8436                	mv	s0,a3
    62c0:	b6bd                	j	5e2e <__subdf3+0xb0>
    62c2:	01e367b3          	or	a5,t1,t5
    62c6:	18078763          	beqz	a5,6454 <__subdf3+0x6d6>
    62ca:	fff58793          	addi	a5,a1,-1
    62ce:	1c078c63          	beqz	a5,64a6 <__subdf3+0x728>
    62d2:	7ff00693          	li	a3,2047
    62d6:	0ad58e63          	beq	a1,a3,6392 <__subdf3+0x614>
    62da:	85be                	mv	a1,a5
    62dc:	bd65                	j	6194 <__subdf3+0x416>
    62de:	02000793          	li	a5,32
    62e2:	8f8d                	sub	a5,a5,a1
    62e4:	00bed9b3          	srl	s3,t4,a1
    62e8:	00f71833          	sll	a6,a4,a5
    62ec:	00fe9eb3          	sll	t4,t4,a5
    62f0:	01386833          	or	a6,a6,s3
    62f4:	00b75733          	srl	a4,a4,a1
    62f8:	01d039b3          	snez	s3,t4
    62fc:	01386833          	or	a6,a6,s3
    6300:	933a                	add	t1,t1,a4
    6302:	b36d                	j	60ac <__subdf3+0x32e>
    6304:	00361813          	slli	a6,a2,0x3
    6308:	01d71793          	slli	a5,a4,0x1d
    630c:	00385813          	srli	a6,a6,0x3
    6310:	0107e833          	or	a6,a5,a6
    6314:	8436                	mv	s0,a3
    6316:	00375793          	srli	a5,a4,0x3
    631a:	bb9d                	j	6090 <__subdf3+0x312>
    631c:	cbbd                	beqz	a5,6392 <__subdf3+0x614>
    631e:	01d76733          	or	a4,a4,t4
    6322:	dc071ce3          	bnez	a4,60fa <__subdf3+0x37c>
    6326:	050e                	slli	a0,a0,0x3
    6328:	01d31813          	slli	a6,t1,0x1d
    632c:	810d                	srli	a0,a0,0x3
    632e:	00a86833          	or	a6,a6,a0
    6332:	00335793          	srli	a5,t1,0x3
    6336:	bb7d                	j	60f4 <__subdf3+0x376>
    6338:	e2080fe3          	beqz	a6,6176 <__subdf3+0x3f8>
    633c:	00361813          	slli	a6,a2,0x3
    6340:	01d71793          	slli	a5,a4,0x1d
    6344:	00385813          	srli	a6,a6,0x3
    6348:	00f86833          	or	a6,a6,a5
    634c:	8436                	mv	s0,a3
    634e:	00375793          	srli	a5,a4,0x3
    6352:	b399                	j	6098 <__subdf3+0x31a>
    6354:	41df09b3          	sub	s3,t5,t4
    6358:	40e307b3          	sub	a5,t1,a4
    635c:	013f3f33          	sltu	t5,t5,s3
    6360:	41e78633          	sub	a2,a5,t5
    6364:	4485                	li	s1,1
    6366:	b4e1                	j	5e2e <__subdf3+0xb0>
    6368:	00351813          	slli	a6,a0,0x3
    636c:	01d31693          	slli	a3,t1,0x1d
    6370:	00385813          	srli	a6,a6,0x3
    6374:	0106e833          	or	a6,a3,a6
    6378:	00335793          	srli	a5,t1,0x3
    637c:	bba5                	j	60f4 <__subdf3+0x376>
    637e:	41ee89b3          	sub	s3,t4,t5
    6382:	40670633          	sub	a2,a4,t1
    6386:	013eb933          	sltu	s2,t4,s3
    638a:	41260933          	sub	s2,a2,s2
    638e:	8436                	mv	s0,a3
    6390:	bc45                	j	5e40 <__subdf3+0xc2>
    6392:	060e                	slli	a2,a2,0x3
    6394:	01d71813          	slli	a6,a4,0x1d
    6398:	820d                	srli	a2,a2,0x3
    639a:	00c86833          	or	a6,a6,a2
    639e:	00375793          	srli	a5,a4,0x3
    63a2:	bb89                	j	60f4 <__subdf3+0x376>
    63a4:	41df09b3          	sub	s3,t5,t4
    63a8:	40e307b3          	sub	a5,t1,a4
    63ac:	013f3633          	sltu	a2,t5,s3
    63b0:	40c78633          	sub	a2,a5,a2
    63b4:	00861793          	slli	a5,a2,0x8
    63b8:	0a07d763          	bgez	a5,6466 <__subdf3+0x6e8>
    63bc:	41ee89b3          	sub	s3,t4,t5
    63c0:	406707b3          	sub	a5,a4,t1
    63c4:	013ebeb3          	sltu	t4,t4,s3
    63c8:	41d78633          	sub	a2,a5,t4
    63cc:	8436                	mv	s0,a3
    63ce:	b4d1                	j	5e92 <__subdf3+0x114>
    63d0:	01e36333          	or	t1,t1,t5
    63d4:	00603833          	snez	a6,t1
    63d8:	b3fd                	j	61c6 <__subdf3+0x448>
    63da:	fe058813          	addi	a6,a1,-32
    63de:	02000793          	li	a5,32
    63e2:	010359b3          	srl	s3,t1,a6
    63e6:	00f58a63          	beq	a1,a5,63fa <__subdf3+0x67c>
    63ea:	04000793          	li	a5,64
    63ee:	40b785b3          	sub	a1,a5,a1
    63f2:	00b31333          	sll	t1,t1,a1
    63f6:	006f6f33          	or	t5,t5,t1
    63fa:	01e03833          	snez	a6,t5
    63fe:	01386833          	or	a6,a6,s3
    6402:	b57d                	j	62b0 <__subdf3+0x532>
    6404:	41ee89b3          	sub	s3,t4,t5
    6408:	406707b3          	sub	a5,a4,t1
    640c:	013ebeb3          	sltu	t4,t4,s3
    6410:	41d78633          	sub	a2,a5,t4
    6414:	8436                	mv	s0,a3
    6416:	4485                	li	s1,1
    6418:	bc19                	j	5e2e <__subdf3+0xb0>
    641a:	00361813          	slli	a6,a2,0x3
    641e:	01d71793          	slli	a5,a4,0x1d
    6422:	00385813          	srli	a6,a6,0x3
    6426:	00f86833          	or	a6,a6,a5
    642a:	00375793          	srli	a5,a4,0x3
    642e:	b1ad                	j	6098 <__subdf3+0x31a>
    6430:	01df09b3          	add	s3,t5,t4
    6434:	00e307b3          	add	a5,t1,a4
    6438:	01e9bf33          	sltu	t5,s3,t5
    643c:	01e78633          	add	a2,a5,t5
    6440:	00861793          	slli	a5,a2,0x8
    6444:	c207d9e3          	bgez	a5,6076 <__subdf3+0x2f8>
    6448:	ff8007b7          	lui	a5,0xff800
    644c:	17fd                	addi	a5,a5,-1
    644e:	8e7d                	and	a2,a2,a5
    6450:	4485                	li	s1,1
    6452:	b115                	j	6076 <__subdf3+0x2f8>
    6454:	060e                	slli	a2,a2,0x3
    6456:	01d71813          	slli	a6,a4,0x1d
    645a:	820d                	srli	a2,a2,0x3
    645c:	00c86833          	or	a6,a6,a2
    6460:	00375793          	srli	a5,a4,0x3
    6464:	b135                	j	6090 <__subdf3+0x312>
    6466:	00c9e833          	or	a6,s3,a2
    646a:	d00806e3          	beqz	a6,6176 <__subdf3+0x3f8>
    646e:	b121                	j	6076 <__subdf3+0x2f8>
    6470:	fe058813          	addi	a6,a1,-32
    6474:	02000793          	li	a5,32
    6478:	010359b3          	srl	s3,t1,a6
    647c:	00f58a63          	beq	a1,a5,6490 <__subdf3+0x712>
    6480:	04000793          	li	a5,64
    6484:	40b785b3          	sub	a1,a5,a1
    6488:	00b31333          	sll	t1,t1,a1
    648c:	006f6f33          	or	t5,t5,t1
    6490:	01e03833          	snez	a6,t5
    6494:	01386833          	or	a6,a6,s3
    6498:	b33d                	j	61c6 <__subdf3+0x448>
    649a:	4401                	li	s0,0
    649c:	7ff00713          	li	a4,2047
    64a0:	000807b7          	lui	a5,0x80
    64a4:	bc35                	j	5ee0 <__subdf3+0x162>
    64a6:	01df09b3          	add	s3,t5,t4
    64aa:	00e307b3          	add	a5,t1,a4
    64ae:	01d9beb3          	sltu	t4,s3,t4
    64b2:	01d78633          	add	a2,a5,t4
    64b6:	bb69                	j	6250 <__subdf3+0x4d2>

000064b8 <__fixdfsi>:
__fixdfsi():
    64b8:	0145d793          	srli	a5,a1,0x14
    64bc:	001006b7          	lui	a3,0x100
    64c0:	fff68713          	addi	a4,a3,-1 # fffff <_data_lma+0xf5b83>
    64c4:	7ff7f793          	andi	a5,a5,2047
    64c8:	3fe00613          	li	a2,1022
    64cc:	8f6d                	and	a4,a4,a1
    64ce:	81fd                	srli	a1,a1,0x1f
    64d0:	00f65c63          	bge	a2,a5,64e8 <__fixdfsi+0x30>
    64d4:	41d00613          	li	a2,1053
    64d8:	00f65a63          	bge	a2,a5,64ec <__fixdfsi+0x34>
    64dc:	80000537          	lui	a0,0x80000
    64e0:	fff54513          	not	a0,a0
    64e4:	952e                	add	a0,a0,a1
    64e6:	8082                	ret
    64e8:	4501                	li	a0,0
    64ea:	8082                	ret
    64ec:	43300613          	li	a2,1075
    64f0:	8e1d                	sub	a2,a2,a5
    64f2:	487d                	li	a6,31
    64f4:	8f55                	or	a4,a4,a3
    64f6:	00c85d63          	bge	a6,a2,6510 <__fixdfsi+0x58>
    64fa:	41300693          	li	a3,1043
    64fe:	40f687b3          	sub	a5,a3,a5
    6502:	00f757b3          	srl	a5,a4,a5
    6506:	40f00533          	neg	a0,a5
    650a:	f1e5                	bnez	a1,64ea <__fixdfsi+0x32>
    650c:	853e                	mv	a0,a5
    650e:	8082                	ret
    6510:	bed78793          	addi	a5,a5,-1043 # 7fbed <_data_lma+0x75771>
    6514:	00f717b3          	sll	a5,a4,a5
    6518:	00c55533          	srl	a0,a0,a2
    651c:	8fc9                	or	a5,a5,a0
    651e:	b7e5                	j	6506 <__fixdfsi+0x4e>

00006520 <__floatsidf>:
__floatsidf():
    6520:	1141                	addi	sp,sp,-16
    6522:	c606                	sw	ra,12(sp)
    6524:	c422                	sw	s0,8(sp)
    6526:	c226                	sw	s1,4(sp)
    6528:	cd05                	beqz	a0,6560 <__floatsidf+0x40>
    652a:	41f55793          	srai	a5,a0,0x1f
    652e:	00a7c4b3          	xor	s1,a5,a0
    6532:	8c9d                	sub	s1,s1,a5
    6534:	842a                	mv	s0,a0
    6536:	8526                	mv	a0,s1
    6538:	28a1                	jal	6590 <__clzsi2>
    653a:	41e00693          	li	a3,1054
    653e:	8e89                	sub	a3,a3,a0
    6540:	47a9                	li	a5,10
    6542:	807d                	srli	s0,s0,0x1f
    6544:	7ff6f693          	andi	a3,a3,2047
    6548:	02a7cd63          	blt	a5,a0,6582 <__floatsidf+0x62>
    654c:	472d                	li	a4,11
    654e:	8f09                	sub	a4,a4,a0
    6550:	00e4d7b3          	srl	a5,s1,a4
    6554:	0555                	addi	a0,a0,21
    6556:	07b2                	slli	a5,a5,0xc
    6558:	00a494b3          	sll	s1,s1,a0
    655c:	83b1                	srli	a5,a5,0xc
    655e:	a029                	j	6568 <__floatsidf+0x48>
    6560:	4401                	li	s0,0
    6562:	4681                	li	a3,0
    6564:	4781                	li	a5,0
    6566:	4481                	li	s1,0
    6568:	07b2                	slli	a5,a5,0xc
    656a:	06d2                	slli	a3,a3,0x14
    656c:	83b1                	srli	a5,a5,0xc
    656e:	047e                	slli	s0,s0,0x1f
    6570:	8fd5                	or	a5,a5,a3
    6572:	8fc1                	or	a5,a5,s0
    6574:	40b2                	lw	ra,12(sp)
    6576:	4422                	lw	s0,8(sp)
    6578:	8526                	mv	a0,s1
    657a:	85be                	mv	a1,a5
    657c:	4492                	lw	s1,4(sp)
    657e:	0141                	addi	sp,sp,16
    6580:	8082                	ret
    6582:	1555                	addi	a0,a0,-11
    6584:	00a497b3          	sll	a5,s1,a0
    6588:	07b2                	slli	a5,a5,0xc
    658a:	83b1                	srli	a5,a5,0xc
    658c:	4481                	li	s1,0
    658e:	bfe9                	j	6568 <__floatsidf+0x48>

00006590 <__clzsi2>:
__clzsi2():
    6590:	67c1                	lui	a5,0x10
    6592:	02f57e63          	bgeu	a0,a5,65ce <__clzsi2+0x3e>
    6596:	0ff00793          	li	a5,255
    659a:	02000713          	li	a4,32
    659e:	00a7ec63          	bltu	a5,a0,65b6 <__clzsi2+0x26>
    65a2:	00004797          	auipc	a5,0x4
    65a6:	ab678793          	addi	a5,a5,-1354 # a058 <__clz_tab>
    65aa:	97aa                	add	a5,a5,a0
    65ac:	0007c503          	lbu	a0,0(a5)
    65b0:	40a70533          	sub	a0,a4,a0
    65b4:	8082                	ret
    65b6:	8121                	srli	a0,a0,0x8
    65b8:	00004797          	auipc	a5,0x4
    65bc:	aa078793          	addi	a5,a5,-1376 # a058 <__clz_tab>
    65c0:	97aa                	add	a5,a5,a0
    65c2:	0007c503          	lbu	a0,0(a5)
    65c6:	4761                	li	a4,24
    65c8:	40a70533          	sub	a0,a4,a0
    65cc:	8082                	ret
    65ce:	010007b7          	lui	a5,0x1000
    65d2:	00f56e63          	bltu	a0,a5,65ee <__clzsi2+0x5e>
    65d6:	8161                	srli	a0,a0,0x18
    65d8:	00004797          	auipc	a5,0x4
    65dc:	a8078793          	addi	a5,a5,-1408 # a058 <__clz_tab>
    65e0:	97aa                	add	a5,a5,a0
    65e2:	0007c503          	lbu	a0,0(a5)
    65e6:	4721                	li	a4,8
    65e8:	40a70533          	sub	a0,a4,a0
    65ec:	8082                	ret
    65ee:	8141                	srli	a0,a0,0x10
    65f0:	00004797          	auipc	a5,0x4
    65f4:	a6878793          	addi	a5,a5,-1432 # a058 <__clz_tab>
    65f8:	97aa                	add	a5,a5,a0
    65fa:	0007c503          	lbu	a0,0(a5)
    65fe:	4741                	li	a4,16
    6600:	40a70533          	sub	a0,a4,a0
    6604:	8082                	ret

00006606 <memcpy>:
memcpy():
    6606:	00a5c7b3          	xor	a5,a1,a0
    660a:	8b8d                	andi	a5,a5,3
    660c:	00c50733          	add	a4,a0,a2
    6610:	e781                	bnez	a5,6618 <memcpy+0x12>
    6612:	478d                	li	a5,3
    6614:	00c7ee63          	bltu	a5,a2,6630 <memcpy+0x2a>
    6618:	87aa                	mv	a5,a0
    661a:	0ae57063          	bgeu	a0,a4,66ba <memcpy+0xb4>
    661e:	0005c683          	lbu	a3,0(a1)
    6622:	0785                	addi	a5,a5,1
    6624:	0585                	addi	a1,a1,1
    6626:	fed78fa3          	sb	a3,-1(a5)
    662a:	fee7eae3          	bltu	a5,a4,661e <memcpy+0x18>
    662e:	8082                	ret
    6630:	00357693          	andi	a3,a0,3
    6634:	87aa                	mv	a5,a0
    6636:	ca91                	beqz	a3,664a <memcpy+0x44>
    6638:	0005c683          	lbu	a3,0(a1)
    663c:	0785                	addi	a5,a5,1
    663e:	0585                	addi	a1,a1,1
    6640:	fed78fa3          	sb	a3,-1(a5)
    6644:	0037f693          	andi	a3,a5,3
    6648:	b7fd                	j	6636 <memcpy+0x30>
    664a:	ffc77693          	andi	a3,a4,-4
    664e:	fe068613          	addi	a2,a3,-32
    6652:	06c7f063          	bgeu	a5,a2,66b2 <memcpy+0xac>
    6656:	0005a383          	lw	t2,0(a1)
    665a:	0045a283          	lw	t0,4(a1)
    665e:	0085af83          	lw	t6,8(a1)
    6662:	00c5af03          	lw	t5,12(a1)
    6666:	0105ae83          	lw	t4,16(a1)
    666a:	0145ae03          	lw	t3,20(a1)
    666e:	0185a303          	lw	t1,24(a1)
    6672:	01c5a883          	lw	a7,28(a1)
    6676:	02458593          	addi	a1,a1,36
    667a:	0077a023          	sw	t2,0(a5)
    667e:	ffc5a803          	lw	a6,-4(a1)
    6682:	0057a223          	sw	t0,4(a5)
    6686:	01f7a423          	sw	t6,8(a5)
    668a:	01e7a623          	sw	t5,12(a5)
    668e:	01d7a823          	sw	t4,16(a5)
    6692:	01c7aa23          	sw	t3,20(a5)
    6696:	0067ac23          	sw	t1,24(a5)
    669a:	0117ae23          	sw	a7,28(a5)
    669e:	02478793          	addi	a5,a5,36
    66a2:	ff07ae23          	sw	a6,-4(a5)
    66a6:	b775                	j	6652 <memcpy+0x4c>
    66a8:	4190                	lw	a2,0(a1)
    66aa:	0791                	addi	a5,a5,4
    66ac:	0591                	addi	a1,a1,4
    66ae:	fec7ae23          	sw	a2,-4(a5)
    66b2:	fed7ebe3          	bltu	a5,a3,66a8 <memcpy+0xa2>
    66b6:	f6e7e4e3          	bltu	a5,a4,661e <memcpy+0x18>
    66ba:	8082                	ret

000066bc <__cvt>:
__cvt():
    66bc:	7179                	addi	sp,sp,-48
    66be:	d422                	sw	s0,40(sp)
    66c0:	d04a                	sw	s2,32(sp)
    66c2:	cc52                	sw	s4,24(sp)
    66c4:	ca56                	sw	s5,20(sp)
    66c6:	c85a                	sw	s6,16(sp)
    66c8:	d606                	sw	ra,44(sp)
    66ca:	d226                	sw	s1,36(sp)
    66cc:	ce4e                	sw	s3,28(sp)
    66ce:	8a3a                	mv	s4,a4
    66d0:	8aae                	mv	s5,a1
    66d2:	8432                	mv	s0,a2
    66d4:	8936                	mv	s2,a3
    66d6:	8b42                	mv	s6,a6
    66d8:	4701                	li	a4,0
    66da:	00065863          	bgez	a2,66ea <__cvt+0x2e>
    66de:	80000737          	lui	a4,0x80000
    66e2:	00c74433          	xor	s0,a4,a2
    66e6:	02d00713          	li	a4,45
    66ea:	00e78023          	sb	a4,0(a5)
    66ee:	fdf8f493          	andi	s1,a7,-33
    66f2:	04600793          	li	a5,70
    66f6:	468d                	li	a3,3
    66f8:	00f48863          	beq	s1,a5,6708 <__cvt+0x4c>
    66fc:	04500793          	li	a5,69
    6700:	4689                	li	a3,2
    6702:	00f49363          	bne	s1,a5,6708 <__cvt+0x4c>
    6706:	0905                	addi	s2,s2,1
    6708:	87da                	mv	a5,s6
    670a:	00c10893          	addi	a7,sp,12
    670e:	00810813          	addi	a6,sp,8
    6712:	874a                	mv	a4,s2
    6714:	85d6                	mv	a1,s5
    6716:	8622                	mv	a2,s0
    6718:	501000ef          	jal	ra,7418 <_dtoa_r>
    671c:	04700793          	li	a5,71
    6720:	89aa                	mv	s3,a0
    6722:	00f49663          	bne	s1,a5,672e <__cvt+0x72>
    6726:	001a7a13          	andi	s4,s4,1
    672a:	040a0a63          	beqz	s4,677e <__cvt+0xc2>
    672e:	04600793          	li	a5,70
    6732:	01298a33          	add	s4,s3,s2
    6736:	02f49763          	bne	s1,a5,6764 <__cvt+0xa8>
    673a:	0009c703          	lbu	a4,0(s3)
    673e:	03000793          	li	a5,48
    6742:	00f71e63          	bne	a4,a5,675e <__cvt+0xa2>
    6746:	4601                	li	a2,0
    6748:	4681                	li	a3,0
    674a:	8556                	mv	a0,s5
    674c:	85a2                	mv	a1,s0
    674e:	858ff0ef          	jal	ra,57a6 <__eqdf2>
    6752:	c511                	beqz	a0,675e <__cvt+0xa2>
    6754:	4785                	li	a5,1
    6756:	41278933          	sub	s2,a5,s2
    675a:	012b2023          	sw	s2,0(s6)
    675e:	000b2783          	lw	a5,0(s6)
    6762:	9a3e                	add	s4,s4,a5
    6764:	4601                	li	a2,0
    6766:	4681                	li	a3,0
    6768:	8556                	mv	a0,s5
    676a:	85a2                	mv	a1,s0
    676c:	83aff0ef          	jal	ra,57a6 <__eqdf2>
    6770:	e111                	bnez	a0,6774 <__cvt+0xb8>
    6772:	c652                	sw	s4,12(sp)
    6774:	03000713          	li	a4,48
    6778:	47b2                	lw	a5,12(sp)
    677a:	0347e263          	bltu	a5,s4,679e <__cvt+0xe2>
    677e:	47b2                	lw	a5,12(sp)
    6780:	5742                	lw	a4,48(sp)
    6782:	50b2                	lw	ra,44(sp)
    6784:	5422                	lw	s0,40(sp)
    6786:	413787b3          	sub	a5,a5,s3
    678a:	c31c                	sw	a5,0(a4)
    678c:	854e                	mv	a0,s3
    678e:	5492                	lw	s1,36(sp)
    6790:	5902                	lw	s2,32(sp)
    6792:	49f2                	lw	s3,28(sp)
    6794:	4a62                	lw	s4,24(sp)
    6796:	4ad2                	lw	s5,20(sp)
    6798:	4b42                	lw	s6,16(sp)
    679a:	6145                	addi	sp,sp,48
    679c:	8082                	ret
    679e:	00178693          	addi	a3,a5,1
    67a2:	c636                	sw	a3,12(sp)
    67a4:	00e78023          	sb	a4,0(a5)
    67a8:	bfc1                	j	6778 <__cvt+0xbc>

000067aa <__exponent>:
__exponent():
    67aa:	00c50023          	sb	a2,0(a0) # 80000000 <_eusrstack+0x5fff0000>
    67ae:	00250713          	addi	a4,a0,2
    67b2:	02b00793          	li	a5,43
    67b6:	0005d663          	bgez	a1,67c2 <__exponent+0x18>
    67ba:	40b005b3          	neg	a1,a1
    67be:	02d00793          	li	a5,45
    67c2:	00f500a3          	sb	a5,1(a0)
    67c6:	47a5                	li	a5,9
    67c8:	04b7da63          	bge	a5,a1,681c <__exponent+0x72>
    67cc:	1141                	addi	sp,sp,-16
    67ce:	00f10793          	addi	a5,sp,15
    67d2:	88be                	mv	a7,a5
    67d4:	4829                	li	a6,10
    67d6:	06300313          	li	t1,99
    67da:	0305e6b3          	rem	a3,a1,a6
    67de:	fff78613          	addi	a2,a5,-1
    67e2:	03068693          	addi	a3,a3,48
    67e6:	fed78fa3          	sb	a3,-1(a5)
    67ea:	0305c6b3          	div	a3,a1,a6
    67ee:	00b34d63          	blt	t1,a1,6808 <__exponent+0x5e>
    67f2:	03068693          	addi	a3,a3,48
    67f6:	17f9                	addi	a5,a5,-2
    67f8:	fed60fa3          	sb	a3,-1(a2) # ff7fffff <_eusrstack+0xdf7effff>
    67fc:	0117e963          	bltu	a5,a7,680e <__exponent+0x64>
    6800:	40a70533          	sub	a0,a4,a0
    6804:	0141                	addi	sp,sp,16
    6806:	8082                	ret
    6808:	87b2                	mv	a5,a2
    680a:	85b6                	mv	a1,a3
    680c:	b7f9                	j	67da <__exponent+0x30>
    680e:	0785                	addi	a5,a5,1
    6810:	fff7c683          	lbu	a3,-1(a5)
    6814:	0705                	addi	a4,a4,1
    6816:	fed70fa3          	sb	a3,-1(a4) # 7fffffff <_eusrstack+0x5ffeffff>
    681a:	b7cd                	j	67fc <__exponent+0x52>
    681c:	03000793          	li	a5,48
    6820:	00450713          	addi	a4,a0,4
    6824:	03058593          	addi	a1,a1,48
    6828:	00f50123          	sb	a5,2(a0)
    682c:	00b501a3          	sb	a1,3(a0)
    6830:	40a70533          	sub	a0,a4,a0
    6834:	8082                	ret

00006836 <_printf_float>:
_printf_float():
    6836:	7119                	addi	sp,sp,-128
    6838:	ce3a                	sw	a4,28(sp)
    683a:	de86                	sw	ra,124(sp)
    683c:	dca2                	sw	s0,120(sp)
    683e:	daa6                	sw	s1,116(sp)
    6840:	842e                	mv	s0,a1
    6842:	d8ca                	sw	s2,112(sp)
    6844:	d6ce                	sw	s3,108(sp)
    6846:	d4d2                	sw	s4,104(sp)
    6848:	89b6                	mv	s3,a3
    684a:	d0da                	sw	s6,96(sp)
    684c:	cede                	sw	s7,92(sp)
    684e:	cce2                	sw	s8,88(sp)
    6850:	8932                	mv	s2,a2
    6852:	d2d6                	sw	s5,100(sp)
    6854:	cae6                	sw	s9,84(sp)
    6856:	c8ea                	sw	s10,80(sp)
    6858:	c6ee                	sw	s11,76(sp)
    685a:	84aa                	mv	s1,a0
    685c:	3b3010ef          	jal	ra,840e <_localeconv_r>
    6860:	00052b83          	lw	s7,0(a0)
    6864:	855e                	mv	a0,s7
    6866:	08f000ef          	jal	ra,70f4 <strlen>
    686a:	00042b03          	lw	s6,0(s0) # 80000 <_data_lma+0x75b84>
    686e:	4772                	lw	a4,28(sp)
    6870:	dc02                	sw	zero,56(sp)
    6872:	100b7693          	andi	a3,s6,256
    6876:	8c2a                	mv	s8,a0
    6878:	01844a03          	lbu	s4,24(s0)
    687c:	431c                	lw	a5,0(a4)
    687e:	caf1                	beqz	a3,6952 <_printf_float+0x11c>
    6880:	00478693          	addi	a3,a5,4
    6884:	c314                	sw	a3,0(a4)
    6886:	439c                	lw	a5,0(a5)
    6888:	1008                	addi	a0,sp,32
    688a:	4398                	lw	a4,0(a5)
    688c:	d03a                	sw	a4,32(sp)
    688e:	43d8                	lw	a4,4(a5)
    6890:	d23a                	sw	a4,36(sp)
    6892:	4798                	lw	a4,8(a5)
    6894:	d43a                	sw	a4,40(sp)
    6896:	47dc                	lw	a5,12(a5)
    6898:	d63e                	sw	a5,44(sp)
    689a:	3df020ef          	jal	ra,9478 <__trunctfdf2>
    689e:	c428                	sw	a0,72(s0)
    68a0:	c46c                	sw	a1,76(s0)
    68a2:	04c42c83          	lw	s9,76(s0)
    68a6:	00004717          	auipc	a4,0x4
    68aa:	8b270713          	addi	a4,a4,-1870 # a158 <__clz_tab+0x100>
    68ae:	04842a83          	lw	s5,72(s0)
    68b2:	00072d03          	lw	s10,0(a4)
    68b6:	00472d83          	lw	s11,4(a4)
    68ba:	001c9793          	slli	a5,s9,0x1
    68be:	8385                	srli	a5,a5,0x1
    68c0:	866a                	mv	a2,s10
    68c2:	86ee                	mv	a3,s11
    68c4:	8556                	mv	a0,s5
    68c6:	85be                	mv	a1,a5
    68c8:	ce3e                	sw	a5,28(sp)
    68ca:	30b020ef          	jal	ra,93d4 <__unorddf2>
    68ce:	ed41                	bnez	a0,6966 <_printf_float+0x130>
    68d0:	47f2                	lw	a5,28(sp)
    68d2:	866a                	mv	a2,s10
    68d4:	86ee                	mv	a3,s11
    68d6:	8556                	mv	a0,s5
    68d8:	85be                	mv	a1,a5
    68da:	f37fe0ef          	jal	ra,5810 <__ledf2>
    68de:	08a05463          	blez	a0,6966 <_printf_float+0x130>
    68e2:	4601                	li	a2,0
    68e4:	4681                	li	a3,0
    68e6:	8556                	mv	a0,s5
    68e8:	85e6                	mv	a1,s9
    68ea:	f27fe0ef          	jal	ra,5810 <__ledf2>
    68ee:	00055663          	bgez	a0,68fa <_printf_float+0xc4>
    68f2:	02d00793          	li	a5,45
    68f6:	04f401a3          	sb	a5,67(s0)
    68fa:	04700793          	li	a5,71
    68fe:	00004a97          	auipc	s5,0x4
    6902:	862a8a93          	addi	s5,s5,-1950 # a160 <__clz_tab+0x108>
    6906:	0147f663          	bgeu	a5,s4,6912 <_printf_float+0xdc>
    690a:	00004a97          	auipc	s5,0x4
    690e:	85aa8a93          	addi	s5,s5,-1958 # a164 <__clz_tab+0x10c>
    6912:	ffbb7b13          	andi	s6,s6,-5
    6916:	478d                	li	a5,3
    6918:	01642023          	sw	s6,0(s0)
    691c:	c81c                	sw	a5,16(s0)
    691e:	4b01                	li	s6,0
    6920:	874e                	mv	a4,s3
    6922:	86ca                	mv	a3,s2
    6924:	1870                	addi	a2,sp,60
    6926:	85a2                	mv	a1,s0
    6928:	8526                	mv	a0,s1
    692a:	2ec1                	jal	6cfa <_printf_common>
    692c:	5cfd                	li	s9,-1
    692e:	15951e63          	bne	a0,s9,6a8a <_printf_float+0x254>
    6932:	557d                	li	a0,-1
    6934:	50f6                	lw	ra,124(sp)
    6936:	5466                	lw	s0,120(sp)
    6938:	54d6                	lw	s1,116(sp)
    693a:	5946                	lw	s2,112(sp)
    693c:	59b6                	lw	s3,108(sp)
    693e:	5a26                	lw	s4,104(sp)
    6940:	5a96                	lw	s5,100(sp)
    6942:	5b06                	lw	s6,96(sp)
    6944:	4bf6                	lw	s7,92(sp)
    6946:	4c66                	lw	s8,88(sp)
    6948:	4cd6                	lw	s9,84(sp)
    694a:	4d46                	lw	s10,80(sp)
    694c:	4db6                	lw	s11,76(sp)
    694e:	6109                	addi	sp,sp,128
    6950:	8082                	ret
    6952:	079d                	addi	a5,a5,7
    6954:	9be1                	andi	a5,a5,-8
    6956:	00878693          	addi	a3,a5,8
    695a:	c314                	sw	a3,0(a4)
    695c:	4398                	lw	a4,0(a5)
    695e:	43dc                	lw	a5,4(a5)
    6960:	c438                	sw	a4,72(s0)
    6962:	c47c                	sw	a5,76(s0)
    6964:	bf3d                	j	68a2 <_printf_float+0x6c>
    6966:	8656                	mv	a2,s5
    6968:	86e6                	mv	a3,s9
    696a:	8556                	mv	a0,s5
    696c:	85e6                	mv	a1,s9
    696e:	267020ef          	jal	ra,93d4 <__unorddf2>
    6972:	cd11                	beqz	a0,698e <_printf_float+0x158>
    6974:	04700793          	li	a5,71
    6978:	00003a97          	auipc	s5,0x3
    697c:	7f0a8a93          	addi	s5,s5,2032 # a168 <__clz_tab+0x110>
    6980:	f947f9e3          	bgeu	a5,s4,6912 <_printf_float+0xdc>
    6984:	00003a97          	auipc	s5,0x3
    6988:	7e8a8a93          	addi	s5,s5,2024 # a16c <__clz_tab+0x114>
    698c:	b759                	j	6912 <_printf_float+0xdc>
    698e:	405c                	lw	a5,4(s0)
    6990:	577d                	li	a4,-1
    6992:	0dfa7d13          	andi	s10,s4,223
    6996:	08e79563          	bne	a5,a4,6a20 <_printf_float+0x1ea>
    699a:	4799                	li	a5,6
    699c:	c05c                	sw	a5,4(s0)
    699e:	4054                	lw	a3,4(s0)
    69a0:	400b6713          	ori	a4,s6,1024
    69a4:	183c                	addi	a5,sp,56
    69a6:	85d6                	mv	a1,s5
    69a8:	c03e                	sw	a5,0(sp)
    69aa:	c018                	sw	a4,0(s0)
    69ac:	03310793          	addi	a5,sp,51
    69b0:	c202                	sw	zero,4(sp)
    69b2:	88d2                	mv	a7,s4
    69b4:	03410813          	addi	a6,sp,52
    69b8:	8666                	mv	a2,s9
    69ba:	8526                	mv	a0,s1
    69bc:	d01ff0ef          	jal	ra,66bc <__cvt>
    69c0:	04700793          	li	a5,71
    69c4:	8aaa                	mv	s5,a0
    69c6:	55d2                	lw	a1,52(sp)
    69c8:	00fd1b63          	bne	s10,a5,69de <_printf_float+0x1a8>
    69cc:	57f5                	li	a5,-3
    69ce:	00f5c563          	blt	a1,a5,69d8 <_printf_float+0x1a2>
    69d2:	405c                	lw	a5,4(s0)
    69d4:	08b7d863          	bge	a5,a1,6a64 <_printf_float+0x22e>
    69d8:	1a79                	addi	s4,s4,-2
    69da:	0ffa7a13          	andi	s4,s4,255
    69de:	06500793          	li	a5,101
    69e2:	0547e663          	bltu	a5,s4,6a2e <_printf_float+0x1f8>
    69e6:	15fd                	addi	a1,a1,-1
    69e8:	8652                	mv	a2,s4
    69ea:	05040513          	addi	a0,s0,80
    69ee:	da2e                	sw	a1,52(sp)
    69f0:	dbbff0ef          	jal	ra,67aa <__exponent>
    69f4:	5762                	lw	a4,56(sp)
    69f6:	4685                	li	a3,1
    69f8:	8b2a                	mv	s6,a0
    69fa:	00a707b3          	add	a5,a4,a0
    69fe:	c81c                	sw	a5,16(s0)
    6a00:	00e6c563          	blt	a3,a4,6a0a <_printf_float+0x1d4>
    6a04:	4018                	lw	a4,0(s0)
    6a06:	8b05                	andi	a4,a4,1
    6a08:	c319                	beqz	a4,6a0e <_printf_float+0x1d8>
    6a0a:	0785                	addi	a5,a5,1
    6a0c:	c81c                	sw	a5,16(s0)
    6a0e:	03314783          	lbu	a5,51(sp)
    6a12:	f00787e3          	beqz	a5,6920 <_printf_float+0xea>
    6a16:	02d00793          	li	a5,45
    6a1a:	04f401a3          	sb	a5,67(s0)
    6a1e:	b709                	j	6920 <_printf_float+0xea>
    6a20:	04700713          	li	a4,71
    6a24:	f6ed1de3          	bne	s10,a4,699e <_printf_float+0x168>
    6a28:	fbbd                	bnez	a5,699e <_printf_float+0x168>
    6a2a:	4785                	li	a5,1
    6a2c:	bf85                	j	699c <_printf_float+0x166>
    6a2e:	06600793          	li	a5,102
    6a32:	02fa1b63          	bne	s4,a5,6a68 <_printf_float+0x232>
    6a36:	405c                	lw	a5,4(s0)
    6a38:	00b05b63          	blez	a1,6a4e <_printf_float+0x218>
    6a3c:	c80c                	sw	a1,16(s0)
    6a3e:	e781                	bnez	a5,6a46 <_printf_float+0x210>
    6a40:	4018                	lw	a4,0(s0)
    6a42:	8b05                	andi	a4,a4,1
    6a44:	cf09                	beqz	a4,6a5e <_printf_float+0x228>
    6a46:	0785                	addi	a5,a5,1
    6a48:	97ae                	add	a5,a5,a1
    6a4a:	c81c                	sw	a5,16(s0)
    6a4c:	a809                	j	6a5e <_printf_float+0x228>
    6a4e:	e789                	bnez	a5,6a58 <_printf_float+0x222>
    6a50:	4018                	lw	a4,0(s0)
    6a52:	4685                	li	a3,1
    6a54:	8b05                	andi	a4,a4,1
    6a56:	c319                	beqz	a4,6a5c <_printf_float+0x226>
    6a58:	00278693          	addi	a3,a5,2
    6a5c:	c814                	sw	a3,16(s0)
    6a5e:	cc2c                	sw	a1,88(s0)
    6a60:	4b01                	li	s6,0
    6a62:	b775                	j	6a0e <_printf_float+0x1d8>
    6a64:	06700a13          	li	s4,103
    6a68:	57e2                	lw	a5,56(sp)
    6a6a:	00f5c963          	blt	a1,a5,6a7c <_printf_float+0x246>
    6a6e:	401c                	lw	a5,0(s0)
    6a70:	c80c                	sw	a1,16(s0)
    6a72:	8b85                	andi	a5,a5,1
    6a74:	d7ed                	beqz	a5,6a5e <_printf_float+0x228>
    6a76:	00158793          	addi	a5,a1,1
    6a7a:	bfc1                	j	6a4a <_printf_float+0x214>
    6a7c:	4705                	li	a4,1
    6a7e:	00b04463          	bgtz	a1,6a86 <_printf_float+0x250>
    6a82:	4709                	li	a4,2
    6a84:	8f0d                	sub	a4,a4,a1
    6a86:	97ba                	add	a5,a5,a4
    6a88:	b7c9                	j	6a4a <_printf_float+0x214>
    6a8a:	401c                	lw	a5,0(s0)
    6a8c:	4007f713          	andi	a4,a5,1024
    6a90:	e315                	bnez	a4,6ab4 <_printf_float+0x27e>
    6a92:	4814                	lw	a3,16(s0)
    6a94:	8656                	mv	a2,s5
    6a96:	85ca                	mv	a1,s2
    6a98:	8526                	mv	a0,s1
    6a9a:	9982                	jalr	s3
    6a9c:	e9950be3          	beq	a0,s9,6932 <_printf_float+0xfc>
    6aa0:	401c                	lw	a5,0(s0)
    6aa2:	8b89                	andi	a5,a5,2
    6aa4:	24079663          	bnez	a5,6cf0 <_printf_float+0x4ba>
    6aa8:	57f2                	lw	a5,60(sp)
    6aaa:	4448                	lw	a0,12(s0)
    6aac:	e8f554e3          	bge	a0,a5,6934 <_printf_float+0xfe>
    6ab0:	853e                	mv	a0,a5
    6ab2:	b549                	j	6934 <_printf_float+0xfe>
    6ab4:	06500713          	li	a4,101
    6ab8:	19477b63          	bgeu	a4,s4,6c4e <_printf_float+0x418>
    6abc:	4428                	lw	a0,72(s0)
    6abe:	446c                	lw	a1,76(s0)
    6ac0:	4601                	li	a2,0
    6ac2:	4681                	li	a3,0
    6ac4:	ce3fe0ef          	jal	ra,57a6 <__eqdf2>
    6ac8:	e939                	bnez	a0,6b1e <_printf_float+0x2e8>
    6aca:	4685                	li	a3,1
    6acc:	00003617          	auipc	a2,0x3
    6ad0:	6a460613          	addi	a2,a2,1700 # a170 <__clz_tab+0x118>
    6ad4:	85ca                	mv	a1,s2
    6ad6:	8526                	mv	a0,s1
    6ad8:	9982                	jalr	s3
    6ada:	e5950ce3          	beq	a0,s9,6932 <_printf_float+0xfc>
    6ade:	5752                	lw	a4,52(sp)
    6ae0:	57e2                	lw	a5,56(sp)
    6ae2:	00f74563          	blt	a4,a5,6aec <_printf_float+0x2b6>
    6ae6:	401c                	lw	a5,0(s0)
    6ae8:	8b85                	andi	a5,a5,1
    6aea:	dbdd                	beqz	a5,6aa0 <_printf_float+0x26a>
    6aec:	86e2                	mv	a3,s8
    6aee:	865e                	mv	a2,s7
    6af0:	85ca                	mv	a1,s2
    6af2:	8526                	mv	a0,s1
    6af4:	9982                	jalr	s3
    6af6:	57fd                	li	a5,-1
    6af8:	e2f50de3          	beq	a0,a5,6932 <_printf_float+0xfc>
    6afc:	4a01                	li	s4,0
    6afe:	01a40a93          	addi	s5,s0,26
    6b02:	5b7d                	li	s6,-1
    6b04:	57e2                	lw	a5,56(sp)
    6b06:	17fd                	addi	a5,a5,-1
    6b08:	f8fa5ce3          	bge	s4,a5,6aa0 <_printf_float+0x26a>
    6b0c:	4685                	li	a3,1
    6b0e:	8656                	mv	a2,s5
    6b10:	85ca                	mv	a1,s2
    6b12:	8526                	mv	a0,s1
    6b14:	9982                	jalr	s3
    6b16:	e1650ee3          	beq	a0,s6,6932 <_printf_float+0xfc>
    6b1a:	0a05                	addi	s4,s4,1
    6b1c:	b7e5                	j	6b04 <_printf_float+0x2ce>
    6b1e:	57d2                	lw	a5,52(sp)
    6b20:	06f04663          	bgtz	a5,6b8c <_printf_float+0x356>
    6b24:	4685                	li	a3,1
    6b26:	00003617          	auipc	a2,0x3
    6b2a:	64a60613          	addi	a2,a2,1610 # a170 <__clz_tab+0x118>
    6b2e:	85ca                	mv	a1,s2
    6b30:	8526                	mv	a0,s1
    6b32:	9982                	jalr	s3
    6b34:	df950fe3          	beq	a0,s9,6932 <_printf_float+0xfc>
    6b38:	57d2                	lw	a5,52(sp)
    6b3a:	5762                	lw	a4,56(sp)
    6b3c:	8fd9                	or	a5,a5,a4
    6b3e:	e781                	bnez	a5,6b46 <_printf_float+0x310>
    6b40:	401c                	lw	a5,0(s0)
    6b42:	8b85                	andi	a5,a5,1
    6b44:	dfb1                	beqz	a5,6aa0 <_printf_float+0x26a>
    6b46:	86e2                	mv	a3,s8
    6b48:	865e                	mv	a2,s7
    6b4a:	85ca                	mv	a1,s2
    6b4c:	8526                	mv	a0,s1
    6b4e:	9982                	jalr	s3
    6b50:	57fd                	li	a5,-1
    6b52:	def500e3          	beq	a0,a5,6932 <_printf_float+0xfc>
    6b56:	4a01                	li	s4,0
    6b58:	01a40b13          	addi	s6,s0,26
    6b5c:	5bfd                	li	s7,-1
    6b5e:	57d2                	lw	a5,52(sp)
    6b60:	40f007b3          	neg	a5,a5
    6b64:	00fa4b63          	blt	s4,a5,6b7a <_printf_float+0x344>
    6b68:	56e2                	lw	a3,56(sp)
    6b6a:	8656                	mv	a2,s5
    6b6c:	85ca                	mv	a1,s2
    6b6e:	8526                	mv	a0,s1
    6b70:	9982                	jalr	s3
    6b72:	57fd                	li	a5,-1
    6b74:	f2f516e3          	bne	a0,a5,6aa0 <_printf_float+0x26a>
    6b78:	bb6d                	j	6932 <_printf_float+0xfc>
    6b7a:	4685                	li	a3,1
    6b7c:	865a                	mv	a2,s6
    6b7e:	85ca                	mv	a1,s2
    6b80:	8526                	mv	a0,s1
    6b82:	9982                	jalr	s3
    6b84:	db7507e3          	beq	a0,s7,6932 <_printf_float+0xfc>
    6b88:	0a05                	addi	s4,s4,1
    6b8a:	bfd1                	j	6b5e <_printf_float+0x328>
    6b8c:	4c3c                	lw	a5,88(s0)
    6b8e:	5a62                	lw	s4,56(sp)
    6b90:	0147d363          	bge	a5,s4,6b96 <_printf_float+0x360>
    6b94:	8a3e                	mv	s4,a5
    6b96:	01405a63          	blez	s4,6baa <_printf_float+0x374>
    6b9a:	86d2                	mv	a3,s4
    6b9c:	8656                	mv	a2,s5
    6b9e:	85ca                	mv	a1,s2
    6ba0:	8526                	mv	a0,s1
    6ba2:	9982                	jalr	s3
    6ba4:	57fd                	li	a5,-1
    6ba6:	d8f506e3          	beq	a0,a5,6932 <_printf_float+0xfc>
    6baa:	4c81                	li	s9,0
    6bac:	01a40d13          	addi	s10,s0,26
    6bb0:	5dfd                	li	s11,-1
    6bb2:	a809                	j	6bc4 <_printf_float+0x38e>
    6bb4:	4685                	li	a3,1
    6bb6:	866a                	mv	a2,s10
    6bb8:	85ca                	mv	a1,s2
    6bba:	8526                	mv	a0,s1
    6bbc:	9982                	jalr	s3
    6bbe:	d7b50ae3          	beq	a0,s11,6932 <_printf_float+0xfc>
    6bc2:	0c85                	addi	s9,s9,1
    6bc4:	05842b03          	lw	s6,88(s0)
    6bc8:	87d2                	mv	a5,s4
    6bca:	000a5363          	bgez	s4,6bd0 <_printf_float+0x39a>
    6bce:	4781                	li	a5,0
    6bd0:	40fb07b3          	sub	a5,s6,a5
    6bd4:	fefcc0e3          	blt	s9,a5,6bb4 <_printf_float+0x37e>
    6bd8:	5752                	lw	a4,52(sp)
    6bda:	57e2                	lw	a5,56(sp)
    6bdc:	02f74d63          	blt	a4,a5,6c16 <_printf_float+0x3e0>
    6be0:	401c                	lw	a5,0(s0)
    6be2:	8b85                	andi	a5,a5,1
    6be4:	eb8d                	bnez	a5,6c16 <_printf_float+0x3e0>
    6be6:	57e2                	lw	a5,56(sp)
    6be8:	5752                	lw	a4,52(sp)
    6bea:	40e78a33          	sub	s4,a5,a4
    6bee:	00eb4463          	blt	s6,a4,6bf6 <_printf_float+0x3c0>
    6bf2:	41678a33          	sub	s4,a5,s6
    6bf6:	01405b63          	blez	s4,6c0c <_printf_float+0x3d6>
    6bfa:	86d2                	mv	a3,s4
    6bfc:	016a8633          	add	a2,s5,s6
    6c00:	85ca                	mv	a1,s2
    6c02:	8526                	mv	a0,s1
    6c04:	9982                	jalr	s3
    6c06:	57fd                	li	a5,-1
    6c08:	d2f505e3          	beq	a0,a5,6932 <_printf_float+0xfc>
    6c0c:	4a81                	li	s5,0
    6c0e:	01a40b13          	addi	s6,s0,26
    6c12:	5bfd                	li	s7,-1
    6c14:	a015                	j	6c38 <_printf_float+0x402>
    6c16:	86e2                	mv	a3,s8
    6c18:	865e                	mv	a2,s7
    6c1a:	85ca                	mv	a1,s2
    6c1c:	8526                	mv	a0,s1
    6c1e:	9982                	jalr	s3
    6c20:	57fd                	li	a5,-1
    6c22:	fcf512e3          	bne	a0,a5,6be6 <_printf_float+0x3b0>
    6c26:	b331                	j	6932 <_printf_float+0xfc>
    6c28:	4685                	li	a3,1
    6c2a:	865a                	mv	a2,s6
    6c2c:	85ca                	mv	a1,s2
    6c2e:	8526                	mv	a0,s1
    6c30:	9982                	jalr	s3
    6c32:	d17500e3          	beq	a0,s7,6932 <_printf_float+0xfc>
    6c36:	0a85                	addi	s5,s5,1
    6c38:	5752                	lw	a4,52(sp)
    6c3a:	57e2                	lw	a5,56(sp)
    6c3c:	8f99                	sub	a5,a5,a4
    6c3e:	8752                	mv	a4,s4
    6c40:	000a5363          	bgez	s4,6c46 <_printf_float+0x410>
    6c44:	4701                	li	a4,0
    6c46:	8f99                	sub	a5,a5,a4
    6c48:	fefac0e3          	blt	s5,a5,6c28 <_printf_float+0x3f2>
    6c4c:	bd91                	j	6aa0 <_printf_float+0x26a>
    6c4e:	56e2                	lw	a3,56(sp)
    6c50:	4705                	li	a4,1
    6c52:	00d74463          	blt	a4,a3,6c5a <_printf_float+0x424>
    6c56:	8b85                	andi	a5,a5,1
    6c58:	c7b5                	beqz	a5,6cc4 <_printf_float+0x48e>
    6c5a:	4685                	li	a3,1
    6c5c:	8656                	mv	a2,s5
    6c5e:	85ca                	mv	a1,s2
    6c60:	8526                	mv	a0,s1
    6c62:	9982                	jalr	s3
    6c64:	5a7d                	li	s4,-1
    6c66:	cd4506e3          	beq	a0,s4,6932 <_printf_float+0xfc>
    6c6a:	86e2                	mv	a3,s8
    6c6c:	865e                	mv	a2,s7
    6c6e:	85ca                	mv	a1,s2
    6c70:	8526                	mv	a0,s1
    6c72:	9982                	jalr	s3
    6c74:	cb450fe3          	beq	a0,s4,6932 <_printf_float+0xfc>
    6c78:	4428                	lw	a0,72(s0)
    6c7a:	446c                	lw	a1,76(s0)
    6c7c:	4601                	li	a2,0
    6c7e:	4681                	li	a3,0
    6c80:	b27fe0ef          	jal	ra,57a6 <__eqdf2>
    6c84:	c91d                	beqz	a0,6cba <_printf_float+0x484>
    6c86:	56e2                	lw	a3,56(sp)
    6c88:	001a8613          	addi	a2,s5,1
    6c8c:	85ca                	mv	a1,s2
    6c8e:	16fd                	addi	a3,a3,-1
    6c90:	8526                	mv	a0,s1
    6c92:	9982                	jalr	s3
    6c94:	c9450fe3          	beq	a0,s4,6932 <_printf_float+0xfc>
    6c98:	86da                	mv	a3,s6
    6c9a:	05040613          	addi	a2,s0,80
    6c9e:	b5f9                	j	6b6c <_printf_float+0x336>
    6ca0:	4685                	li	a3,1
    6ca2:	8656                	mv	a2,s5
    6ca4:	85ca                	mv	a1,s2
    6ca6:	8526                	mv	a0,s1
    6ca8:	9982                	jalr	s3
    6caa:	c97504e3          	beq	a0,s7,6932 <_printf_float+0xfc>
    6cae:	0a05                	addi	s4,s4,1
    6cb0:	57e2                	lw	a5,56(sp)
    6cb2:	17fd                	addi	a5,a5,-1
    6cb4:	fefa46e3          	blt	s4,a5,6ca0 <_printf_float+0x46a>
    6cb8:	b7c5                	j	6c98 <_printf_float+0x462>
    6cba:	4a01                	li	s4,0
    6cbc:	01a40a93          	addi	s5,s0,26
    6cc0:	5bfd                	li	s7,-1
    6cc2:	b7fd                	j	6cb0 <_printf_float+0x47a>
    6cc4:	4685                	li	a3,1
    6cc6:	8656                	mv	a2,s5
    6cc8:	85ca                	mv	a1,s2
    6cca:	8526                	mv	a0,s1
    6ccc:	9982                	jalr	s3
    6cce:	fd9515e3          	bne	a0,s9,6c98 <_printf_float+0x462>
    6cd2:	b185                	j	6932 <_printf_float+0xfc>
    6cd4:	4685                	li	a3,1
    6cd6:	8656                	mv	a2,s5
    6cd8:	85ca                	mv	a1,s2
    6cda:	8526                	mv	a0,s1
    6cdc:	9982                	jalr	s3
    6cde:	c5650ae3          	beq	a0,s6,6932 <_printf_float+0xfc>
    6ce2:	0a05                	addi	s4,s4,1
    6ce4:	445c                	lw	a5,12(s0)
    6ce6:	5772                	lw	a4,60(sp)
    6ce8:	8f99                	sub	a5,a5,a4
    6cea:	fefa45e3          	blt	s4,a5,6cd4 <_printf_float+0x49e>
    6cee:	bb6d                	j	6aa8 <_printf_float+0x272>
    6cf0:	4a01                	li	s4,0
    6cf2:	01940a93          	addi	s5,s0,25
    6cf6:	5b7d                	li	s6,-1
    6cf8:	b7f5                	j	6ce4 <_printf_float+0x4ae>

00006cfa <_printf_common>:
_printf_common():
    6cfa:	7179                	addi	sp,sp,-48
    6cfc:	ca56                	sw	s5,20(sp)
    6cfe:	499c                	lw	a5,16(a1)
    6d00:	8aba                	mv	s5,a4
    6d02:	4598                	lw	a4,8(a1)
    6d04:	d422                	sw	s0,40(sp)
    6d06:	d226                	sw	s1,36(sp)
    6d08:	ce4e                	sw	s3,28(sp)
    6d0a:	cc52                	sw	s4,24(sp)
    6d0c:	d606                	sw	ra,44(sp)
    6d0e:	d04a                	sw	s2,32(sp)
    6d10:	c85a                	sw	s6,16(sp)
    6d12:	c65e                	sw	s7,12(sp)
    6d14:	89aa                	mv	s3,a0
    6d16:	842e                	mv	s0,a1
    6d18:	84b2                	mv	s1,a2
    6d1a:	8a36                	mv	s4,a3
    6d1c:	00e7d363          	bge	a5,a4,6d22 <_printf_common+0x28>
    6d20:	87ba                	mv	a5,a4
    6d22:	c09c                	sw	a5,0(s1)
    6d24:	04344703          	lbu	a4,67(s0)
    6d28:	c319                	beqz	a4,6d2e <_printf_common+0x34>
    6d2a:	0785                	addi	a5,a5,1
    6d2c:	c09c                	sw	a5,0(s1)
    6d2e:	401c                	lw	a5,0(s0)
    6d30:	0207f793          	andi	a5,a5,32
    6d34:	c781                	beqz	a5,6d3c <_printf_common+0x42>
    6d36:	409c                	lw	a5,0(s1)
    6d38:	0789                	addi	a5,a5,2
    6d3a:	c09c                	sw	a5,0(s1)
    6d3c:	00042903          	lw	s2,0(s0)
    6d40:	00697913          	andi	s2,s2,6
    6d44:	00091a63          	bnez	s2,6d58 <_printf_common+0x5e>
    6d48:	01940b13          	addi	s6,s0,25
    6d4c:	5bfd                	li	s7,-1
    6d4e:	445c                	lw	a5,12(s0)
    6d50:	4098                	lw	a4,0(s1)
    6d52:	8f99                	sub	a5,a5,a4
    6d54:	04f94c63          	blt	s2,a5,6dac <_printf_common+0xb2>
    6d58:	401c                	lw	a5,0(s0)
    6d5a:	04344683          	lbu	a3,67(s0)
    6d5e:	0207f793          	andi	a5,a5,32
    6d62:	00d036b3          	snez	a3,a3
    6d66:	eba5                	bnez	a5,6dd6 <_printf_common+0xdc>
    6d68:	04340613          	addi	a2,s0,67
    6d6c:	85d2                	mv	a1,s4
    6d6e:	854e                	mv	a0,s3
    6d70:	9a82                	jalr	s5
    6d72:	57fd                	li	a5,-1
    6d74:	04f50363          	beq	a0,a5,6dba <_printf_common+0xc0>
    6d78:	401c                	lw	a5,0(s0)
    6d7a:	4611                	li	a2,4
    6d7c:	4098                	lw	a4,0(s1)
    6d7e:	8b99                	andi	a5,a5,6
    6d80:	4454                	lw	a3,12(s0)
    6d82:	4481                	li	s1,0
    6d84:	00c79763          	bne	a5,a2,6d92 <_printf_common+0x98>
    6d88:	40e684b3          	sub	s1,a3,a4
    6d8c:	0004d363          	bgez	s1,6d92 <_printf_common+0x98>
    6d90:	4481                	li	s1,0
    6d92:	441c                	lw	a5,8(s0)
    6d94:	4818                	lw	a4,16(s0)
    6d96:	00f75463          	bge	a4,a5,6d9e <_printf_common+0xa4>
    6d9a:	8f99                	sub	a5,a5,a4
    6d9c:	94be                	add	s1,s1,a5
    6d9e:	4901                	li	s2,0
    6da0:	0469                	addi	s0,s0,26
    6da2:	5b7d                	li	s6,-1
    6da4:	05249863          	bne	s1,s2,6df4 <_printf_common+0xfa>
    6da8:	4501                	li	a0,0
    6daa:	a809                	j	6dbc <_printf_common+0xc2>
    6dac:	4685                	li	a3,1
    6dae:	865a                	mv	a2,s6
    6db0:	85d2                	mv	a1,s4
    6db2:	854e                	mv	a0,s3
    6db4:	9a82                	jalr	s5
    6db6:	01751e63          	bne	a0,s7,6dd2 <_printf_common+0xd8>
    6dba:	557d                	li	a0,-1
    6dbc:	50b2                	lw	ra,44(sp)
    6dbe:	5422                	lw	s0,40(sp)
    6dc0:	5492                	lw	s1,36(sp)
    6dc2:	5902                	lw	s2,32(sp)
    6dc4:	49f2                	lw	s3,28(sp)
    6dc6:	4a62                	lw	s4,24(sp)
    6dc8:	4ad2                	lw	s5,20(sp)
    6dca:	4b42                	lw	s6,16(sp)
    6dcc:	4bb2                	lw	s7,12(sp)
    6dce:	6145                	addi	sp,sp,48
    6dd0:	8082                	ret
    6dd2:	0905                	addi	s2,s2,1
    6dd4:	bfad                	j	6d4e <_printf_common+0x54>
    6dd6:	00d40733          	add	a4,s0,a3
    6dda:	03000613          	li	a2,48
    6dde:	04c701a3          	sb	a2,67(a4)
    6de2:	04544703          	lbu	a4,69(s0)
    6de6:	00168793          	addi	a5,a3,1
    6dea:	97a2                	add	a5,a5,s0
    6dec:	0689                	addi	a3,a3,2
    6dee:	04e781a3          	sb	a4,67(a5)
    6df2:	bf9d                	j	6d68 <_printf_common+0x6e>
    6df4:	4685                	li	a3,1
    6df6:	8622                	mv	a2,s0
    6df8:	85d2                	mv	a1,s4
    6dfa:	854e                	mv	a0,s3
    6dfc:	9a82                	jalr	s5
    6dfe:	fb650ee3          	beq	a0,s6,6dba <_printf_common+0xc0>
    6e02:	0905                	addi	s2,s2,1
    6e04:	b745                	j	6da4 <_printf_common+0xaa>

00006e06 <_printf_i>:
_printf_i():
    6e06:	7179                	addi	sp,sp,-48
    6e08:	d422                	sw	s0,40(sp)
    6e0a:	d226                	sw	s1,36(sp)
    6e0c:	d04a                	sw	s2,32(sp)
    6e0e:	ce4e                	sw	s3,28(sp)
    6e10:	d606                	sw	ra,44(sp)
    6e12:	cc52                	sw	s4,24(sp)
    6e14:	ca56                	sw	s5,20(sp)
    6e16:	c85a                	sw	s6,16(sp)
    6e18:	89b6                	mv	s3,a3
    6e1a:	0185c683          	lbu	a3,24(a1)
    6e1e:	06900793          	li	a5,105
    6e22:	8932                	mv	s2,a2
    6e24:	84aa                	mv	s1,a0
    6e26:	842e                	mv	s0,a1
    6e28:	04358613          	addi	a2,a1,67
    6e2c:	02f68d63          	beq	a3,a5,6e66 <_printf_i+0x60>
    6e30:	06d7e263          	bltu	a5,a3,6e94 <_printf_i+0x8e>
    6e34:	05800793          	li	a5,88
    6e38:	18f68963          	beq	a3,a5,6fca <_printf_i+0x1c4>
    6e3c:	00d7ed63          	bltu	a5,a3,6e56 <_printf_i+0x50>
    6e40:	22068263          	beqz	a3,7064 <_printf_i+0x25e>
    6e44:	04300793          	li	a5,67
    6e48:	0af68f63          	beq	a3,a5,6f06 <_printf_i+0x100>
    6e4c:	04240a93          	addi	s5,s0,66
    6e50:	04d40123          	sb	a3,66(s0)
    6e54:	a0d1                	j	6f18 <_printf_i+0x112>
    6e56:	06300793          	li	a5,99
    6e5a:	0af68663          	beq	a3,a5,6f06 <_printf_i+0x100>
    6e5e:	06400793          	li	a5,100
    6e62:	fef695e3          	bne	a3,a5,6e4c <_printf_i+0x46>
    6e66:	401c                	lw	a5,0(s0)
    6e68:	4308                	lw	a0,0(a4)
    6e6a:	0807f693          	andi	a3,a5,128
    6e6e:	00450593          	addi	a1,a0,4
    6e72:	c6cd                	beqz	a3,6f1c <_printf_i+0x116>
    6e74:	411c                	lw	a5,0(a0)
    6e76:	c30c                	sw	a1,0(a4)
    6e78:	0007d863          	bgez	a5,6e88 <_printf_i+0x82>
    6e7c:	02d00713          	li	a4,45
    6e80:	40f007b3          	neg	a5,a5
    6e84:	04e401a3          	sb	a4,67(s0)
    6e88:	00003697          	auipc	a3,0x3
    6e8c:	2ec68693          	addi	a3,a3,748 # a174 <__clz_tab+0x11c>
    6e90:	4729                	li	a4,10
    6e92:	a875                	j	6f4e <_printf_i+0x148>
    6e94:	07000793          	li	a5,112
    6e98:	16f68563          	beq	a3,a5,7002 <_printf_i+0x1fc>
    6e9c:	02d7e563          	bltu	a5,a3,6ec6 <_printf_i+0xc0>
    6ea0:	06e00793          	li	a5,110
    6ea4:	18f68c63          	beq	a3,a5,703c <_printf_i+0x236>
    6ea8:	06f00793          	li	a5,111
    6eac:	faf690e3          	bne	a3,a5,6e4c <_printf_i+0x46>
    6eb0:	400c                	lw	a1,0(s0)
    6eb2:	431c                	lw	a5,0(a4)
    6eb4:	0805f813          	andi	a6,a1,128
    6eb8:	00478513          	addi	a0,a5,4
    6ebc:	06080863          	beqz	a6,6f2c <_printf_i+0x126>
    6ec0:	c308                	sw	a0,0(a4)
    6ec2:	439c                	lw	a5,0(a5)
    6ec4:	a895                	j	6f38 <_printf_i+0x132>
    6ec6:	07500793          	li	a5,117
    6eca:	fef683e3          	beq	a3,a5,6eb0 <_printf_i+0xaa>
    6ece:	07800793          	li	a5,120
    6ed2:	12f68c63          	beq	a3,a5,700a <_printf_i+0x204>
    6ed6:	07300793          	li	a5,115
    6eda:	f6f699e3          	bne	a3,a5,6e4c <_printf_i+0x46>
    6ede:	431c                	lw	a5,0(a4)
    6ee0:	41d0                	lw	a2,4(a1)
    6ee2:	4581                	li	a1,0
    6ee4:	00478693          	addi	a3,a5,4
    6ee8:	c314                	sw	a3,0(a4)
    6eea:	0007aa83          	lw	s5,0(a5)
    6eee:	8556                	mv	a0,s5
    6ef0:	63e010ef          	jal	ra,852e <memchr>
    6ef4:	c501                	beqz	a0,6efc <_printf_i+0xf6>
    6ef6:	41550533          	sub	a0,a0,s5
    6efa:	c048                	sw	a0,4(s0)
    6efc:	405c                	lw	a5,4(s0)
    6efe:	c81c                	sw	a5,16(s0)
    6f00:	040401a3          	sb	zero,67(s0)
    6f04:	a871                	j	6fa0 <_printf_i+0x19a>
    6f06:	431c                	lw	a5,0(a4)
    6f08:	04240a93          	addi	s5,s0,66
    6f0c:	00478693          	addi	a3,a5,4
    6f10:	439c                	lw	a5,0(a5)
    6f12:	c314                	sw	a3,0(a4)
    6f14:	04f40123          	sb	a5,66(s0)
    6f18:	4785                	li	a5,1
    6f1a:	b7d5                	j	6efe <_printf_i+0xf8>
    6f1c:	0407f693          	andi	a3,a5,64
    6f20:	411c                	lw	a5,0(a0)
    6f22:	c30c                	sw	a1,0(a4)
    6f24:	dab1                	beqz	a3,6e78 <_printf_i+0x72>
    6f26:	07c2                	slli	a5,a5,0x10
    6f28:	87c1                	srai	a5,a5,0x10
    6f2a:	b7b9                	j	6e78 <_printf_i+0x72>
    6f2c:	0405f593          	andi	a1,a1,64
    6f30:	c308                	sw	a0,0(a4)
    6f32:	d9c1                	beqz	a1,6ec2 <_printf_i+0xbc>
    6f34:	0007d783          	lhu	a5,0(a5)
    6f38:	06f00713          	li	a4,111
    6f3c:	0ee68863          	beq	a3,a4,702c <_printf_i+0x226>
    6f40:	00003697          	auipc	a3,0x3
    6f44:	23468693          	addi	a3,a3,564 # a174 <__clz_tab+0x11c>
    6f48:	4729                	li	a4,10
    6f4a:	040401a3          	sb	zero,67(s0)
    6f4e:	404c                	lw	a1,4(s0)
    6f50:	c40c                	sw	a1,8(s0)
    6f52:	0005c563          	bltz	a1,6f5c <_printf_i+0x156>
    6f56:	4008                	lw	a0,0(s0)
    6f58:	996d                	andi	a0,a0,-5
    6f5a:	c008                	sw	a0,0(s0)
    6f5c:	e399                	bnez	a5,6f62 <_printf_i+0x15c>
    6f5e:	8ab2                	mv	s5,a2
    6f60:	cd91                	beqz	a1,6f7c <_printf_i+0x176>
    6f62:	8ab2                	mv	s5,a2
    6f64:	02e7f5b3          	remu	a1,a5,a4
    6f68:	1afd                	addi	s5,s5,-1
    6f6a:	95b6                	add	a1,a1,a3
    6f6c:	0005c583          	lbu	a1,0(a1)
    6f70:	00ba8023          	sb	a1,0(s5)
    6f74:	02e7d5b3          	divu	a1,a5,a4
    6f78:	0ce7f063          	bgeu	a5,a4,7038 <_printf_i+0x232>
    6f7c:	47a1                	li	a5,8
    6f7e:	00f71e63          	bne	a4,a5,6f9a <_printf_i+0x194>
    6f82:	401c                	lw	a5,0(s0)
    6f84:	8b85                	andi	a5,a5,1
    6f86:	cb91                	beqz	a5,6f9a <_printf_i+0x194>
    6f88:	4058                	lw	a4,4(s0)
    6f8a:	481c                	lw	a5,16(s0)
    6f8c:	00e7c763          	blt	a5,a4,6f9a <_printf_i+0x194>
    6f90:	03000793          	li	a5,48
    6f94:	fefa8fa3          	sb	a5,-1(s5)
    6f98:	1afd                	addi	s5,s5,-1
    6f9a:	41560633          	sub	a2,a2,s5
    6f9e:	c810                	sw	a2,16(s0)
    6fa0:	874e                	mv	a4,s3
    6fa2:	86ca                	mv	a3,s2
    6fa4:	0070                	addi	a2,sp,12
    6fa6:	85a2                	mv	a1,s0
    6fa8:	8526                	mv	a0,s1
    6faa:	d51ff0ef          	jal	ra,6cfa <_printf_common>
    6fae:	5a7d                	li	s4,-1
    6fb0:	0b451e63          	bne	a0,s4,706c <_printf_i+0x266>
    6fb4:	557d                	li	a0,-1
    6fb6:	50b2                	lw	ra,44(sp)
    6fb8:	5422                	lw	s0,40(sp)
    6fba:	5492                	lw	s1,36(sp)
    6fbc:	5902                	lw	s2,32(sp)
    6fbe:	49f2                	lw	s3,28(sp)
    6fc0:	4a62                	lw	s4,24(sp)
    6fc2:	4ad2                	lw	s5,20(sp)
    6fc4:	4b42                	lw	s6,16(sp)
    6fc6:	6145                	addi	sp,sp,48
    6fc8:	8082                	ret
    6fca:	04d582a3          	sb	a3,69(a1)
    6fce:	00003697          	auipc	a3,0x3
    6fd2:	1a668693          	addi	a3,a3,422 # a174 <__clz_tab+0x11c>
    6fd6:	400c                	lw	a1,0(s0)
    6fd8:	4308                	lw	a0,0(a4)
    6fda:	0805f813          	andi	a6,a1,128
    6fde:	411c                	lw	a5,0(a0)
    6fe0:	0511                	addi	a0,a0,4
    6fe2:	02080d63          	beqz	a6,701c <_printf_i+0x216>
    6fe6:	c308                	sw	a0,0(a4)
    6fe8:	0015f713          	andi	a4,a1,1
    6fec:	c701                	beqz	a4,6ff4 <_printf_i+0x1ee>
    6fee:	0205e593          	ori	a1,a1,32
    6ff2:	c00c                	sw	a1,0(s0)
    6ff4:	4741                	li	a4,16
    6ff6:	fbb1                	bnez	a5,6f4a <_printf_i+0x144>
    6ff8:	400c                	lw	a1,0(s0)
    6ffa:	fdf5f593          	andi	a1,a1,-33
    6ffe:	c00c                	sw	a1,0(s0)
    7000:	b7a9                	j	6f4a <_printf_i+0x144>
    7002:	419c                	lw	a5,0(a1)
    7004:	0207e793          	ori	a5,a5,32
    7008:	c19c                	sw	a5,0(a1)
    700a:	07800793          	li	a5,120
    700e:	04f402a3          	sb	a5,69(s0)
    7012:	00003697          	auipc	a3,0x3
    7016:	17668693          	addi	a3,a3,374 # a188 <__clz_tab+0x130>
    701a:	bf75                	j	6fd6 <_printf_i+0x1d0>
    701c:	0405f813          	andi	a6,a1,64
    7020:	c308                	sw	a0,0(a4)
    7022:	fc0803e3          	beqz	a6,6fe8 <_printf_i+0x1e2>
    7026:	07c2                	slli	a5,a5,0x10
    7028:	83c1                	srli	a5,a5,0x10
    702a:	bf7d                	j	6fe8 <_printf_i+0x1e2>
    702c:	00003697          	auipc	a3,0x3
    7030:	14868693          	addi	a3,a3,328 # a174 <__clz_tab+0x11c>
    7034:	4721                	li	a4,8
    7036:	bf11                	j	6f4a <_printf_i+0x144>
    7038:	87ae                	mv	a5,a1
    703a:	b72d                	j	6f64 <_printf_i+0x15e>
    703c:	4194                	lw	a3,0(a1)
    703e:	431c                	lw	a5,0(a4)
    7040:	49cc                	lw	a1,20(a1)
    7042:	0806f813          	andi	a6,a3,128
    7046:	00478513          	addi	a0,a5,4
    704a:	00080663          	beqz	a6,7056 <_printf_i+0x250>
    704e:	c308                	sw	a0,0(a4)
    7050:	439c                	lw	a5,0(a5)
    7052:	c38c                	sw	a1,0(a5)
    7054:	a801                	j	7064 <_printf_i+0x25e>
    7056:	c308                	sw	a0,0(a4)
    7058:	0406f693          	andi	a3,a3,64
    705c:	439c                	lw	a5,0(a5)
    705e:	daf5                	beqz	a3,7052 <_printf_i+0x24c>
    7060:	00b79023          	sh	a1,0(a5)
    7064:	00042823          	sw	zero,16(s0)
    7068:	8ab2                	mv	s5,a2
    706a:	bf1d                	j	6fa0 <_printf_i+0x19a>
    706c:	4814                	lw	a3,16(s0)
    706e:	8656                	mv	a2,s5
    7070:	85ca                	mv	a1,s2
    7072:	8526                	mv	a0,s1
    7074:	9982                	jalr	s3
    7076:	f3450fe3          	beq	a0,s4,6fb4 <_printf_i+0x1ae>
    707a:	401c                	lw	a5,0(s0)
    707c:	8b89                	andi	a5,a5,2
    707e:	e78d                	bnez	a5,70a8 <_printf_i+0x2a2>
    7080:	47b2                	lw	a5,12(sp)
    7082:	4448                	lw	a0,12(s0)
    7084:	f2f559e3          	bge	a0,a5,6fb6 <_printf_i+0x1b0>
    7088:	853e                	mv	a0,a5
    708a:	b735                	j	6fb6 <_printf_i+0x1b0>
    708c:	4685                	li	a3,1
    708e:	8656                	mv	a2,s5
    7090:	85ca                	mv	a1,s2
    7092:	8526                	mv	a0,s1
    7094:	9982                	jalr	s3
    7096:	f1650fe3          	beq	a0,s6,6fb4 <_printf_i+0x1ae>
    709a:	0a05                	addi	s4,s4,1
    709c:	445c                	lw	a5,12(s0)
    709e:	4732                	lw	a4,12(sp)
    70a0:	8f99                	sub	a5,a5,a4
    70a2:	fefa45e3          	blt	s4,a5,708c <_printf_i+0x286>
    70a6:	bfe9                	j	7080 <_printf_i+0x27a>
    70a8:	4a01                	li	s4,0
    70aa:	01940a93          	addi	s5,s0,25
    70ae:	5b7d                	li	s6,-1
    70b0:	b7f5                	j	709c <_printf_i+0x296>

000070b2 <iprintf>:
printf():
    70b2:	7139                	addi	sp,sp,-64
    70b4:	da3e                	sw	a5,52(sp)
    70b6:	d22e                	sw	a1,36(sp)
    70b8:	d432                	sw	a2,40(sp)
    70ba:	d636                	sw	a3,44(sp)
    70bc:	d83a                	sw	a4,48(sp)
    70be:	dc42                	sw	a6,56(sp)
    70c0:	de46                	sw	a7,60(sp)
    70c2:	81818793          	addi	a5,gp,-2024 # 20000238 <_impure_ptr>
    70c6:	cc22                	sw	s0,24(sp)
    70c8:	4380                	lw	s0,0(a5)
    70ca:	ca26                	sw	s1,20(sp)
    70cc:	ce06                	sw	ra,28(sp)
    70ce:	84aa                	mv	s1,a0
    70d0:	c411                	beqz	s0,70dc <iprintf+0x2a>
    70d2:	4c1c                	lw	a5,24(s0)
    70d4:	e781                	bnez	a5,70dc <iprintf+0x2a>
    70d6:	8522                	mv	a0,s0
    70d8:	1be010ef          	jal	ra,8296 <__sinit>
    70dc:	440c                	lw	a1,8(s0)
    70de:	1054                	addi	a3,sp,36
    70e0:	8626                	mv	a2,s1
    70e2:	8522                	mv	a0,s0
    70e4:	c636                	sw	a3,12(sp)
    70e6:	561010ef          	jal	ra,8e46 <_vfiprintf_r>
    70ea:	40f2                	lw	ra,28(sp)
    70ec:	4462                	lw	s0,24(sp)
    70ee:	44d2                	lw	s1,20(sp)
    70f0:	6121                	addi	sp,sp,64
    70f2:	8082                	ret

000070f4 <strlen>:
strlen():
    70f4:	87aa                	mv	a5,a0
    70f6:	0785                	addi	a5,a5,1
    70f8:	fff7c703          	lbu	a4,-1(a5)
    70fc:	ff6d                	bnez	a4,70f6 <strlen+0x2>
    70fe:	40a78533          	sub	a0,a5,a0
    7102:	157d                	addi	a0,a0,-1
    7104:	8082                	ret

00007106 <__swbuf_r>:
__swbuf_r():
    7106:	1101                	addi	sp,sp,-32
    7108:	cc22                	sw	s0,24(sp)
    710a:	ca26                	sw	s1,20(sp)
    710c:	c84a                	sw	s2,16(sp)
    710e:	ce06                	sw	ra,28(sp)
    7110:	c64e                	sw	s3,12(sp)
    7112:	84aa                	mv	s1,a0
    7114:	892e                	mv	s2,a1
    7116:	8432                	mv	s0,a2
    7118:	c509                	beqz	a0,7122 <__swbuf_r+0x1c>
    711a:	4d1c                	lw	a5,24(a0)
    711c:	e399                	bnez	a5,7122 <__swbuf_r+0x1c>
    711e:	178010ef          	jal	ra,8296 <__sinit>
    7122:	00003797          	auipc	a5,0x3
    7126:	0f678793          	addi	a5,a5,246 # a218 <__sf_fake_stdin>
    712a:	06f41b63          	bne	s0,a5,71a0 <__swbuf_r+0x9a>
    712e:	40c0                	lw	s0,4(s1)
    7130:	4c1c                	lw	a5,24(s0)
    7132:	c41c                	sw	a5,8(s0)
    7134:	00c45783          	lhu	a5,12(s0)
    7138:	8ba1                	andi	a5,a5,8
    713a:	c3d9                	beqz	a5,71c0 <__swbuf_r+0xba>
    713c:	481c                	lw	a5,16(s0)
    713e:	c3c9                	beqz	a5,71c0 <__swbuf_r+0xba>
    7140:	481c                	lw	a5,16(s0)
    7142:	4008                	lw	a0,0(s0)
    7144:	0ff97993          	andi	s3,s2,255
    7148:	0ff97913          	andi	s2,s2,255
    714c:	8d1d                	sub	a0,a0,a5
    714e:	485c                	lw	a5,20(s0)
    7150:	00f54763          	blt	a0,a5,715e <__swbuf_r+0x58>
    7154:	85a2                	mv	a1,s0
    7156:	8526                	mv	a0,s1
    7158:	01c010ef          	jal	ra,8174 <_fflush_r>
    715c:	e535                	bnez	a0,71c8 <__swbuf_r+0xc2>
    715e:	441c                	lw	a5,8(s0)
    7160:	0505                	addi	a0,a0,1
    7162:	17fd                	addi	a5,a5,-1
    7164:	c41c                	sw	a5,8(s0)
    7166:	401c                	lw	a5,0(s0)
    7168:	00178713          	addi	a4,a5,1
    716c:	c018                	sw	a4,0(s0)
    716e:	01378023          	sb	s3,0(a5)
    7172:	485c                	lw	a5,20(s0)
    7174:	00a78963          	beq	a5,a0,7186 <__swbuf_r+0x80>
    7178:	00c45783          	lhu	a5,12(s0)
    717c:	8b85                	andi	a5,a5,1
    717e:	cb89                	beqz	a5,7190 <__swbuf_r+0x8a>
    7180:	47a9                	li	a5,10
    7182:	00f91763          	bne	s2,a5,7190 <__swbuf_r+0x8a>
    7186:	85a2                	mv	a1,s0
    7188:	8526                	mv	a0,s1
    718a:	7eb000ef          	jal	ra,8174 <_fflush_r>
    718e:	ed0d                	bnez	a0,71c8 <__swbuf_r+0xc2>
    7190:	40f2                	lw	ra,28(sp)
    7192:	4462                	lw	s0,24(sp)
    7194:	854a                	mv	a0,s2
    7196:	44d2                	lw	s1,20(sp)
    7198:	4942                	lw	s2,16(sp)
    719a:	49b2                	lw	s3,12(sp)
    719c:	6105                	addi	sp,sp,32
    719e:	8082                	ret
    71a0:	00003797          	auipc	a5,0x3
    71a4:	09878793          	addi	a5,a5,152 # a238 <__sf_fake_stdout>
    71a8:	00f41463          	bne	s0,a5,71b0 <__swbuf_r+0xaa>
    71ac:	4480                	lw	s0,8(s1)
    71ae:	b749                	j	7130 <__swbuf_r+0x2a>
    71b0:	00003797          	auipc	a5,0x3
    71b4:	04878793          	addi	a5,a5,72 # a1f8 <__sf_fake_stderr>
    71b8:	f6f41ce3          	bne	s0,a5,7130 <__swbuf_r+0x2a>
    71bc:	44c0                	lw	s0,12(s1)
    71be:	bf8d                	j	7130 <__swbuf_r+0x2a>
    71c0:	85a2                	mv	a1,s0
    71c2:	8526                	mv	a0,s1
    71c4:	2021                	jal	71cc <__swsetup_r>
    71c6:	dd2d                	beqz	a0,7140 <__swbuf_r+0x3a>
    71c8:	597d                	li	s2,-1
    71ca:	b7d9                	j	7190 <__swbuf_r+0x8a>

000071cc <__swsetup_r>:
__swsetup_r():
    71cc:	1141                	addi	sp,sp,-16
    71ce:	81818793          	addi	a5,gp,-2024 # 20000238 <_impure_ptr>
    71d2:	c226                	sw	s1,4(sp)
    71d4:	4384                	lw	s1,0(a5)
    71d6:	c422                	sw	s0,8(sp)
    71d8:	c04a                	sw	s2,0(sp)
    71da:	c606                	sw	ra,12(sp)
    71dc:	892a                	mv	s2,a0
    71de:	842e                	mv	s0,a1
    71e0:	c491                	beqz	s1,71ec <__swsetup_r+0x20>
    71e2:	4c9c                	lw	a5,24(s1)
    71e4:	e781                	bnez	a5,71ec <__swsetup_r+0x20>
    71e6:	8526                	mv	a0,s1
    71e8:	0ae010ef          	jal	ra,8296 <__sinit>
    71ec:	00003797          	auipc	a5,0x3
    71f0:	02c78793          	addi	a5,a5,44 # a218 <__sf_fake_stdin>
    71f4:	02f41c63          	bne	s0,a5,722c <__swsetup_r+0x60>
    71f8:	40c0                	lw	s0,4(s1)
    71fa:	00c41703          	lh	a4,12(s0)
    71fe:	01071793          	slli	a5,a4,0x10
    7202:	83c1                	srli	a5,a5,0x10
    7204:	0087f693          	andi	a3,a5,8
    7208:	eebd                	bnez	a3,7286 <__swsetup_r+0xba>
    720a:	0107f693          	andi	a3,a5,16
    720e:	ee9d                	bnez	a3,724c <__swsetup_r+0x80>
    7210:	47a5                	li	a5,9
    7212:	00f92023          	sw	a5,0(s2) # 800000 <_data_lma+0x7f5b84>
    7216:	04076713          	ori	a4,a4,64
    721a:	00e41623          	sh	a4,12(s0)
    721e:	557d                	li	a0,-1
    7220:	40b2                	lw	ra,12(sp)
    7222:	4422                	lw	s0,8(sp)
    7224:	4492                	lw	s1,4(sp)
    7226:	4902                	lw	s2,0(sp)
    7228:	0141                	addi	sp,sp,16
    722a:	8082                	ret
    722c:	00003797          	auipc	a5,0x3
    7230:	00c78793          	addi	a5,a5,12 # a238 <__sf_fake_stdout>
    7234:	00f41463          	bne	s0,a5,723c <__swsetup_r+0x70>
    7238:	4480                	lw	s0,8(s1)
    723a:	b7c1                	j	71fa <__swsetup_r+0x2e>
    723c:	00003797          	auipc	a5,0x3
    7240:	fbc78793          	addi	a5,a5,-68 # a1f8 <__sf_fake_stderr>
    7244:	faf41be3          	bne	s0,a5,71fa <__swsetup_r+0x2e>
    7248:	44c0                	lw	s0,12(s1)
    724a:	bf45                	j	71fa <__swsetup_r+0x2e>
    724c:	8b91                	andi	a5,a5,4
    724e:	c795                	beqz	a5,727a <__swsetup_r+0xae>
    7250:	584c                	lw	a1,52(s0)
    7252:	c991                	beqz	a1,7266 <__swsetup_r+0x9a>
    7254:	04440793          	addi	a5,s0,68
    7258:	00f58563          	beq	a1,a5,7262 <__swsetup_r+0x96>
    725c:	854a                	mv	a0,s2
    725e:	209010ef          	jal	ra,8c66 <_free_r>
    7262:	02042a23          	sw	zero,52(s0)
    7266:	00c45783          	lhu	a5,12(s0)
    726a:	00042223          	sw	zero,4(s0)
    726e:	fdb7f793          	andi	a5,a5,-37
    7272:	00f41623          	sh	a5,12(s0)
    7276:	481c                	lw	a5,16(s0)
    7278:	c01c                	sw	a5,0(s0)
    727a:	00c45783          	lhu	a5,12(s0)
    727e:	0087e793          	ori	a5,a5,8
    7282:	00f41623          	sh	a5,12(s0)
    7286:	481c                	lw	a5,16(s0)
    7288:	ef89                	bnez	a5,72a2 <__swsetup_r+0xd6>
    728a:	00c45783          	lhu	a5,12(s0)
    728e:	20000713          	li	a4,512
    7292:	2807f793          	andi	a5,a5,640
    7296:	00e78663          	beq	a5,a4,72a2 <__swsetup_r+0xd6>
    729a:	85a2                	mv	a1,s0
    729c:	854a                	mv	a0,s2
    729e:	1e2010ef          	jal	ra,8480 <__smakebuf_r>
    72a2:	00c45783          	lhu	a5,12(s0)
    72a6:	0017f713          	andi	a4,a5,1
    72aa:	c705                	beqz	a4,72d2 <__swsetup_r+0x106>
    72ac:	485c                	lw	a5,20(s0)
    72ae:	00042423          	sw	zero,8(s0)
    72b2:	40f007b3          	neg	a5,a5
    72b6:	cc1c                	sw	a5,24(s0)
    72b8:	481c                	lw	a5,16(s0)
    72ba:	4501                	li	a0,0
    72bc:	f3b5                	bnez	a5,7220 <__swsetup_r+0x54>
    72be:	00c41783          	lh	a5,12(s0)
    72c2:	0807f713          	andi	a4,a5,128
    72c6:	df29                	beqz	a4,7220 <__swsetup_r+0x54>
    72c8:	0407e793          	ori	a5,a5,64
    72cc:	00f41623          	sh	a5,12(s0)
    72d0:	b7b9                	j	721e <__swsetup_r+0x52>
    72d2:	8b89                	andi	a5,a5,2
    72d4:	4701                	li	a4,0
    72d6:	e391                	bnez	a5,72da <__swsetup_r+0x10e>
    72d8:	4858                	lw	a4,20(s0)
    72da:	c418                	sw	a4,8(s0)
    72dc:	bff1                	j	72b8 <__swsetup_r+0xec>

000072de <quorem>:
quorem():
    72de:	1101                	addi	sp,sp,-32
    72e0:	cc22                	sw	s0,24(sp)
    72e2:	491c                	lw	a5,16(a0)
    72e4:	4980                	lw	s0,16(a1)
    72e6:	ce06                	sw	ra,28(sp)
    72e8:	ca26                	sw	s1,20(sp)
    72ea:	c84a                	sw	s2,16(sp)
    72ec:	c64e                	sw	s3,12(sp)
    72ee:	c452                	sw	s4,8(sp)
    72f0:	c256                	sw	s5,4(sp)
    72f2:	1287c163          	blt	a5,s0,7414 <quorem+0x136>
    72f6:	147d                	addi	s0,s0,-1
    72f8:	00241813          	slli	a6,s0,0x2
    72fc:	01458993          	addi	s3,a1,20
    7300:	01098a33          	add	s4,s3,a6
    7304:	01450913          	addi	s2,a0,20
    7308:	984a                	add	a6,a6,s2
    730a:	000a2783          	lw	a5,0(s4)
    730e:	00082703          	lw	a4,0(a6)
    7312:	0785                	addi	a5,a5,1
    7314:	02f754b3          	divu	s1,a4,a5
    7318:	06f76663          	bltu	a4,a5,7384 <quorem+0xa6>
    731c:	68c1                	lui	a7,0x10
    731e:	834e                	mv	t1,s3
    7320:	8e4a                	mv	t3,s2
    7322:	4e81                	li	t4,0
    7324:	4f01                	li	t5,0
    7326:	18fd                	addi	a7,a7,-1
    7328:	0311                	addi	t1,t1,4
    732a:	ffc32603          	lw	a2,-4(t1)
    732e:	0e11                	addi	t3,t3,4
    7330:	01167733          	and	a4,a2,a7
    7334:	8241                	srli	a2,a2,0x10
    7336:	02970733          	mul	a4,a4,s1
    733a:	02960633          	mul	a2,a2,s1
    733e:	9776                	add	a4,a4,t4
    7340:	01075693          	srli	a3,a4,0x10
    7344:	011777b3          	and	a5,a4,a7
    7348:	40ff07b3          	sub	a5,t5,a5
    734c:	9636                	add	a2,a2,a3
    734e:	ffce2683          	lw	a3,-4(t3)
    7352:	01065e93          	srli	t4,a2,0x10
    7356:	01167633          	and	a2,a2,a7
    735a:	0116f733          	and	a4,a3,a7
    735e:	97ba                	add	a5,a5,a4
    7360:	82c1                	srli	a3,a3,0x10
    7362:	4107d713          	srai	a4,a5,0x10
    7366:	8e91                	sub	a3,a3,a2
    7368:	96ba                	add	a3,a3,a4
    736a:	4106df13          	srai	t5,a3,0x10
    736e:	0117f7b3          	and	a5,a5,a7
    7372:	06c2                	slli	a3,a3,0x10
    7374:	8fd5                	or	a5,a5,a3
    7376:	fefe2e23          	sw	a5,-4(t3)
    737a:	fa6a77e3          	bgeu	s4,t1,7328 <quorem+0x4a>
    737e:	00082783          	lw	a5,0(a6)
    7382:	cbbd                	beqz	a5,73f8 <quorem+0x11a>
    7384:	8aaa                	mv	s5,a0
    7386:	6c2010ef          	jal	ra,8a48 <__mcmp>
    738a:	04054963          	bltz	a0,73dc <quorem+0xfe>
    738e:	6641                	lui	a2,0x10
    7390:	0485                	addi	s1,s1,1
    7392:	85ca                	mv	a1,s2
    7394:	4501                	li	a0,0
    7396:	167d                	addi	a2,a2,-1
    7398:	0991                	addi	s3,s3,4
    739a:	ffc9a803          	lw	a6,-4(s3)
    739e:	4198                	lw	a4,0(a1)
    73a0:	0591                	addi	a1,a1,4
    73a2:	00c876b3          	and	a3,a6,a2
    73a6:	8d15                	sub	a0,a0,a3
    73a8:	00c776b3          	and	a3,a4,a2
    73ac:	96aa                	add	a3,a3,a0
    73ae:	01075793          	srli	a5,a4,0x10
    73b2:	01085813          	srli	a6,a6,0x10
    73b6:	4106d713          	srai	a4,a3,0x10
    73ba:	410787b3          	sub	a5,a5,a6
    73be:	97ba                	add	a5,a5,a4
    73c0:	4107d513          	srai	a0,a5,0x10
    73c4:	8ef1                	and	a3,a3,a2
    73c6:	07c2                	slli	a5,a5,0x10
    73c8:	8fd5                	or	a5,a5,a3
    73ca:	fef5ae23          	sw	a5,-4(a1)
    73ce:	fd3a75e3          	bgeu	s4,s3,7398 <quorem+0xba>
    73d2:	00241793          	slli	a5,s0,0x2
    73d6:	97ca                	add	a5,a5,s2
    73d8:	4398                	lw	a4,0(a5)
    73da:	c71d                	beqz	a4,7408 <quorem+0x12a>
    73dc:	8526                	mv	a0,s1
    73de:	40f2                	lw	ra,28(sp)
    73e0:	4462                	lw	s0,24(sp)
    73e2:	44d2                	lw	s1,20(sp)
    73e4:	4942                	lw	s2,16(sp)
    73e6:	49b2                	lw	s3,12(sp)
    73e8:	4a22                	lw	s4,8(sp)
    73ea:	4a92                	lw	s5,4(sp)
    73ec:	6105                	addi	sp,sp,32
    73ee:	8082                	ret
    73f0:	00082783          	lw	a5,0(a6)
    73f4:	e789                	bnez	a5,73fe <quorem+0x120>
    73f6:	147d                	addi	s0,s0,-1
    73f8:	1871                	addi	a6,a6,-4
    73fa:	ff096be3          	bltu	s2,a6,73f0 <quorem+0x112>
    73fe:	c900                	sw	s0,16(a0)
    7400:	b751                	j	7384 <quorem+0xa6>
    7402:	4398                	lw	a4,0(a5)
    7404:	e709                	bnez	a4,740e <quorem+0x130>
    7406:	147d                	addi	s0,s0,-1
    7408:	17f1                	addi	a5,a5,-4
    740a:	fef96ce3          	bltu	s2,a5,7402 <quorem+0x124>
    740e:	008aa823          	sw	s0,16(s5)
    7412:	b7e9                	j	73dc <quorem+0xfe>
    7414:	4501                	li	a0,0
    7416:	b7e1                	j	73de <quorem+0x100>

00007418 <_dtoa_r>:
_dtoa_r():
    7418:	7175                	addi	sp,sp,-144
    741a:	d83e                	sw	a5,48(sp)
    741c:	515c                	lw	a5,36(a0)
    741e:	c522                	sw	s0,136(sp)
    7420:	c326                	sw	s1,132(sp)
    7422:	c14a                	sw	s2,128(sp)
    7424:	dece                	sw	s3,124(sp)
    7426:	dcd2                	sw	s4,120(sp)
    7428:	d4e2                	sw	s8,104(sp)
    742a:	c706                	sw	ra,140(sp)
    742c:	dad6                	sw	s5,116(sp)
    742e:	d8da                	sw	s6,112(sp)
    7430:	d6de                	sw	s7,108(sp)
    7432:	d2e6                	sw	s9,100(sp)
    7434:	d0ea                	sw	s10,96(sp)
    7436:	ceee                	sw	s11,92(sp)
    7438:	c236                	sw	a3,4(sp)
    743a:	c63a                	sw	a4,12(sp)
    743c:	ca46                	sw	a7,20(sp)
    743e:	84aa                	mv	s1,a0
    7440:	842e                	mv	s0,a1
    7442:	8932                	mv	s2,a2
    7444:	89c2                	mv	s3,a6
    7446:	8a2e                	mv	s4,a1
    7448:	8c32                	mv	s8,a2
    744a:	ef89                	bnez	a5,7464 <_dtoa_r+0x4c>
    744c:	4541                	li	a0,16
    744e:	0d4010ef          	jal	ra,8522 <malloc>
    7452:	d0c8                	sw	a0,36(s1)
    7454:	00052223          	sw	zero,4(a0)
    7458:	00052423          	sw	zero,8(a0)
    745c:	00052023          	sw	zero,0(a0)
    7460:	00052623          	sw	zero,12(a0)
    7464:	50dc                	lw	a5,36(s1)
    7466:	438c                	lw	a1,0(a5)
    7468:	cd89                	beqz	a1,7482 <_dtoa_r+0x6a>
    746a:	43d8                	lw	a4,4(a5)
    746c:	4785                	li	a5,1
    746e:	8526                	mv	a0,s1
    7470:	00e797b3          	sll	a5,a5,a4
    7474:	c59c                	sw	a5,8(a1)
    7476:	c1d8                	sw	a4,4(a1)
    7478:	158010ef          	jal	ra,85d0 <_Bfree>
    747c:	50dc                	lw	a5,36(s1)
    747e:	0007a023          	sw	zero,0(a5)
    7482:	04095363          	bgez	s2,74c8 <_dtoa_r+0xb0>
    7486:	4785                	li	a5,1
    7488:	00191c13          	slli	s8,s2,0x1
    748c:	00f9a023          	sw	a5,0(s3)
    7490:	001c5c13          	srli	s8,s8,0x1
    7494:	7ff007b7          	lui	a5,0x7ff00
    7498:	00fc7733          	and	a4,s8,a5
    749c:	06f71463          	bne	a4,a5,7504 <_dtoa_r+0xec>
    74a0:	5742                	lw	a4,48(sp)
    74a2:	6789                	lui	a5,0x2
    74a4:	0c32                	slli	s8,s8,0xc
    74a6:	70f78793          	addi	a5,a5,1807 # 270f <EXTI15_10_IRQHandler+0x51>
    74aa:	00cc5c13          	srli	s8,s8,0xc
    74ae:	c31c                	sw	a5,0(a4)
    74b0:	008c6c33          	or	s8,s8,s0
    74b4:	320c05e3          	beqz	s8,7fde <_dtoa_r+0xbc6>
    74b8:	47d2                	lw	a5,20(sp)
    74ba:	eb91                	bnez	a5,74ce <_dtoa_r+0xb6>
    74bc:	00003797          	auipc	a5,0x3
    74c0:	d3878793          	addi	a5,a5,-712 # a1f4 <__clz_tab+0x19c>
    74c4:	c03e                	sw	a5,0(sp)
    74c6:	a839                	j	74e4 <_dtoa_r+0xcc>
    74c8:	0009a023          	sw	zero,0(s3)
    74cc:	b7e1                	j	7494 <_dtoa_r+0x7c>
    74ce:	00003797          	auipc	a5,0x3
    74d2:	d2678793          	addi	a5,a5,-730 # a1f4 <__clz_tab+0x19c>
    74d6:	c03e                	sw	a5,0(sp)
    74d8:	00003797          	auipc	a5,0x3
    74dc:	d1f78793          	addi	a5,a5,-737 # a1f7 <__clz_tab+0x19f>
    74e0:	4752                	lw	a4,20(sp)
    74e2:	c31c                	sw	a5,0(a4)
    74e4:	40ba                	lw	ra,140(sp)
    74e6:	442a                	lw	s0,136(sp)
    74e8:	4502                	lw	a0,0(sp)
    74ea:	449a                	lw	s1,132(sp)
    74ec:	490a                	lw	s2,128(sp)
    74ee:	59f6                	lw	s3,124(sp)
    74f0:	5a66                	lw	s4,120(sp)
    74f2:	5ad6                	lw	s5,116(sp)
    74f4:	5b46                	lw	s6,112(sp)
    74f6:	5bb6                	lw	s7,108(sp)
    74f8:	5c26                	lw	s8,104(sp)
    74fa:	5c96                	lw	s9,100(sp)
    74fc:	5d06                	lw	s10,96(sp)
    74fe:	4df6                	lw	s11,92(sp)
    7500:	6149                	addi	sp,sp,144
    7502:	8082                	ret
    7504:	4601                	li	a2,0
    7506:	4681                	li	a3,0
    7508:	8522                	mv	a0,s0
    750a:	85e2                	mv	a1,s8
    750c:	ce22                	sw	s0,28(sp)
    750e:	d462                	sw	s8,40(sp)
    7510:	a96fe0ef          	jal	ra,57a6 <__eqdf2>
    7514:	e105                	bnez	a0,7534 <_dtoa_r+0x11c>
    7516:	5742                	lw	a4,48(sp)
    7518:	4785                	li	a5,1
    751a:	c31c                	sw	a5,0(a4)
    751c:	00003797          	auipc	a5,0x3
    7520:	c5478793          	addi	a5,a5,-940 # a170 <__clz_tab+0x118>
    7524:	c03e                	sw	a5,0(sp)
    7526:	47d2                	lw	a5,20(sp)
    7528:	dfd5                	beqz	a5,74e4 <_dtoa_r+0xcc>
    752a:	00003797          	auipc	a5,0x3
    752e:	c4778793          	addi	a5,a5,-953 # a171 <__clz_tab+0x119>
    7532:	b77d                	j	74e0 <_dtoa_r+0xc8>
    7534:	00b8                	addi	a4,sp,72
    7536:	00f4                	addi	a3,sp,76
    7538:	8662                	mv	a2,s8
    753a:	85a2                	mv	a1,s0
    753c:	8526                	mv	a0,s1
    753e:	014c5913          	srli	s2,s8,0x14
    7542:	62a010ef          	jal	ra,8b6c <__d2b>
    7546:	7ff97913          	andi	s2,s2,2047
    754a:	89aa                	mv	s3,a0
    754c:	4aa6                	lw	s5,72(sp)
    754e:	10090d63          	beqz	s2,7668 <_dtoa_r+0x250>
    7552:	57a2                	lw	a5,40(sp)
    7554:	4572                	lw	a0,28(sp)
    7556:	c0190913          	addi	s2,s2,-1023
    755a:	00c79593          	slli	a1,a5,0xc
    755e:	81b1                	srli	a1,a1,0xc
    7560:	3ff007b7          	lui	a5,0x3ff00
    7564:	8ddd                	or	a1,a1,a5
    7566:	dc02                	sw	zero,56(sp)
    7568:	00003797          	auipc	a5,0x3
    756c:	c3878793          	addi	a5,a5,-968 # a1a0 <__clz_tab+0x148>
    7570:	4390                	lw	a2,0(a5)
    7572:	43d4                	lw	a3,4(a5)
    7574:	80bfe0ef          	jal	ra,5d7e <__subdf3>
    7578:	00003797          	auipc	a5,0x3
    757c:	c3078793          	addi	a5,a5,-976 # a1a8 <__clz_tab+0x150>
    7580:	4390                	lw	a2,0(a5)
    7582:	43d4                	lw	a3,4(a5)
    7584:	b42fe0ef          	jal	ra,58c6 <__muldf3>
    7588:	00003797          	auipc	a5,0x3
    758c:	c2878793          	addi	a5,a5,-984 # a1b0 <__clz_tab+0x158>
    7590:	4390                	lw	a2,0(a5)
    7592:	43d4                	lw	a3,4(a5)
    7594:	d2efd0ef          	jal	ra,4ac2 <__adddf3>
    7598:	8b2a                	mv	s6,a0
    759a:	854a                	mv	a0,s2
    759c:	8bae                	mv	s7,a1
    759e:	f83fe0ef          	jal	ra,6520 <__floatsidf>
    75a2:	00003797          	auipc	a5,0x3
    75a6:	c1678793          	addi	a5,a5,-1002 # a1b8 <__clz_tab+0x160>
    75aa:	4390                	lw	a2,0(a5)
    75ac:	43d4                	lw	a3,4(a5)
    75ae:	b18fe0ef          	jal	ra,58c6 <__muldf3>
    75b2:	862a                	mv	a2,a0
    75b4:	86ae                	mv	a3,a1
    75b6:	855a                	mv	a0,s6
    75b8:	85de                	mv	a1,s7
    75ba:	d08fd0ef          	jal	ra,4ac2 <__adddf3>
    75be:	8b2a                	mv	s6,a0
    75c0:	8bae                	mv	s7,a1
    75c2:	ef7fe0ef          	jal	ra,64b8 <__fixdfsi>
    75c6:	842a                	mv	s0,a0
    75c8:	4601                	li	a2,0
    75ca:	4681                	li	a3,0
    75cc:	855a                	mv	a0,s6
    75ce:	85de                	mv	a1,s7
    75d0:	a40fe0ef          	jal	ra,5810 <__ledf2>
    75d4:	00055b63          	bgez	a0,75ea <_dtoa_r+0x1d2>
    75d8:	8522                	mv	a0,s0
    75da:	f47fe0ef          	jal	ra,6520 <__floatsidf>
    75de:	865a                	mv	a2,s6
    75e0:	86de                	mv	a3,s7
    75e2:	9c4fe0ef          	jal	ra,57a6 <__eqdf2>
    75e6:	c111                	beqz	a0,75ea <_dtoa_r+0x1d2>
    75e8:	147d                	addi	s0,s0,-1
    75ea:	4705                	li	a4,1
    75ec:	47d9                	li	a5,22
    75ee:	d63a                	sw	a4,44(sp)
    75f0:	0287e363          	bltu	a5,s0,7616 <_dtoa_r+0x1fe>
    75f4:	00341713          	slli	a4,s0,0x3
    75f8:	00003797          	auipc	a5,0x3
    75fc:	c8878793          	addi	a5,a5,-888 # a280 <__mprec_tens>
    7600:	97ba                	add	a5,a5,a4
    7602:	4390                	lw	a2,0(a5)
    7604:	43d4                	lw	a3,4(a5)
    7606:	4572                	lw	a0,28(sp)
    7608:	55a2                	lw	a1,40(sp)
    760a:	a06fe0ef          	jal	ra,5810 <__ledf2>
    760e:	00055363          	bgez	a0,7614 <_dtoa_r+0x1fc>
    7612:	147d                	addi	s0,s0,-1
    7614:	d602                	sw	zero,44(sp)
    7616:	412a8933          	sub	s2,s5,s2
    761a:	fff90b93          	addi	s7,s2,-1
    761e:	4b01                	li	s6,0
    7620:	000bd663          	bgez	s7,762c <_dtoa_r+0x214>
    7624:	4b05                	li	s6,1
    7626:	412b0b33          	sub	s6,s6,s2
    762a:	4b81                	li	s7,0
    762c:	06044e63          	bltz	s0,76a8 <_dtoa_r+0x290>
    7630:	9ba2                	add	s7,s7,s0
    7632:	cc22                	sw	s0,24(sp)
    7634:	4a81                	li	s5,0
    7636:	4712                	lw	a4,4(sp)
    7638:	47a5                	li	a5,9
    763a:	14e7e563          	bltu	a5,a4,7784 <_dtoa_r+0x36c>
    763e:	4795                	li	a5,5
    7640:	4c85                	li	s9,1
    7642:	00e7d663          	bge	a5,a4,764e <_dtoa_r+0x236>
    7646:	ffc70793          	addi	a5,a4,-4
    764a:	c23e                	sw	a5,4(sp)
    764c:	4c81                	li	s9,0
    764e:	4712                	lw	a4,4(sp)
    7650:	478d                	li	a5,3
    7652:	10f70e63          	beq	a4,a5,776e <_dtoa_r+0x356>
    7656:	04e7cf63          	blt	a5,a4,76b4 <_dtoa_r+0x29c>
    765a:	4789                	li	a5,2
    765c:	c802                	sw	zero,16(sp)
    765e:	06f70d63          	beq	a4,a5,76d8 <_dtoa_r+0x2c0>
    7662:	4785                	li	a5,1
    7664:	c83e                	sw	a5,16(sp)
    7666:	a08d                	j	76c8 <_dtoa_r+0x2b0>
    7668:	4936                	lw	s2,76(sp)
    766a:	02000793          	li	a5,32
    766e:	9956                	add	s2,s2,s5
    7670:	43290713          	addi	a4,s2,1074
    7674:	02e7d563          	bge	a5,a4,769e <_dtoa_r+0x286>
    7678:	04000513          	li	a0,64
    767c:	8d19                	sub	a0,a0,a4
    767e:	41290793          	addi	a5,s2,1042
    7682:	00ac1533          	sll	a0,s8,a0
    7686:	00f45433          	srl	s0,s0,a5
    768a:	8d41                	or	a0,a0,s0
    768c:	585010ef          	jal	ra,9410 <__floatunsidf>
    7690:	fe1007b7          	lui	a5,0xfe100
    7694:	95be                	add	a1,a1,a5
    7696:	4785                	li	a5,1
    7698:	197d                	addi	s2,s2,-1
    769a:	dc3e                	sw	a5,56(sp)
    769c:	b5f1                	j	7568 <_dtoa_r+0x150>
    769e:	40e78533          	sub	a0,a5,a4
    76a2:	00a41533          	sll	a0,s0,a0
    76a6:	b7dd                	j	768c <_dtoa_r+0x274>
    76a8:	408b0b33          	sub	s6,s6,s0
    76ac:	40800ab3          	neg	s5,s0
    76b0:	cc02                	sw	zero,24(sp)
    76b2:	b751                	j	7636 <_dtoa_r+0x21e>
    76b4:	4712                	lw	a4,4(sp)
    76b6:	4791                	li	a5,4
    76b8:	00f70e63          	beq	a4,a5,76d4 <_dtoa_r+0x2bc>
    76bc:	4705                	li	a4,1
    76be:	c83a                	sw	a4,16(sp)
    76c0:	4712                	lw	a4,4(sp)
    76c2:	4795                	li	a5,5
    76c4:	0af70663          	beq	a4,a5,7770 <_dtoa_r+0x358>
    76c8:	57fd                	li	a5,-1
    76ca:	c43e                	sw	a5,8(sp)
    76cc:	5dfd                	li	s11,-1
    76ce:	47c9                	li	a5,18
    76d0:	c602                	sw	zero,12(sp)
    76d2:	a819                	j	76e8 <_dtoa_r+0x2d0>
    76d4:	4785                	li	a5,1
    76d6:	c83e                	sw	a5,16(sp)
    76d8:	47b2                	lw	a5,12(sp)
    76da:	0af04863          	bgtz	a5,778a <_dtoa_r+0x372>
    76de:	4785                	li	a5,1
    76e0:	4705                	li	a4,1
    76e2:	c43e                	sw	a5,8(sp)
    76e4:	4d85                	li	s11,1
    76e6:	c63a                	sw	a4,12(sp)
    76e8:	0244a903          	lw	s2,36(s1)
    76ec:	4711                	li	a4,4
    76ee:	00092223          	sw	zero,4(s2)
    76f2:	01470693          	addi	a3,a4,20
    76f6:	00492583          	lw	a1,4(s2)
    76fa:	08d7fc63          	bgeu	a5,a3,7792 <_dtoa_r+0x37a>
    76fe:	8526                	mv	a0,s1
    7700:	649000ef          	jal	ra,8548 <_Balloc>
    7704:	50dc                	lw	a5,36(s1)
    7706:	00a92023          	sw	a0,0(s2)
    770a:	439c                	lw	a5,0(a5)
    770c:	c03e                	sw	a5,0(sp)
    770e:	47b9                	li	a5,14
    7710:	1db7e663          	bltu	a5,s11,78dc <_dtoa_r+0x4c4>
    7714:	1c0c8463          	beqz	s9,78dc <_dtoa_r+0x4c4>
    7718:	0a805e63          	blez	s0,77d4 <_dtoa_r+0x3bc>
    771c:	00f47793          	andi	a5,s0,15
    7720:	00379713          	slli	a4,a5,0x3
    7724:	40445c93          	srai	s9,s0,0x4
    7728:	00003797          	auipc	a5,0x3
    772c:	b5878793          	addi	a5,a5,-1192 # a280 <__mprec_tens>
    7730:	97ba                	add	a5,a5,a4
    7732:	010cf693          	andi	a3,s9,16
    7736:	4398                	lw	a4,0(a5)
    7738:	4909                	li	s2,2
    773a:	43dc                	lw	a5,4(a5)
    773c:	c685                	beqz	a3,7764 <_dtoa_r+0x34c>
    773e:	00003697          	auipc	a3,0x3
    7742:	b1a68693          	addi	a3,a3,-1254 # a258 <__mprec_bigtens>
    7746:	5290                	lw	a2,32(a3)
    7748:	4572                	lw	a0,28(sp)
    774a:	52d4                	lw	a3,36(a3)
    774c:	55a2                	lw	a1,40(sp)
    774e:	d03a                	sw	a4,32(sp)
    7750:	d23e                	sw	a5,36(sp)
    7752:	aa1fd0ef          	jal	ra,51f2 <__divdf3>
    7756:	5702                	lw	a4,32(sp)
    7758:	5792                	lw	a5,36(sp)
    775a:	00fcfc93          	andi	s9,s9,15
    775e:	8a2a                	mv	s4,a0
    7760:	8c2e                	mv	s8,a1
    7762:	490d                	li	s2,3
    7764:	00003d17          	auipc	s10,0x3
    7768:	af4d0d13          	addi	s10,s10,-1292 # a258 <__mprec_bigtens>
    776c:	a889                	j	77be <_dtoa_r+0x3a6>
    776e:	c802                	sw	zero,16(sp)
    7770:	47b2                	lw	a5,12(sp)
    7772:	97a2                	add	a5,a5,s0
    7774:	c43e                	sw	a5,8(sp)
    7776:	00178d93          	addi	s11,a5,1
    777a:	87ee                	mv	a5,s11
    777c:	f7b046e3          	bgtz	s11,76e8 <_dtoa_r+0x2d0>
    7780:	4785                	li	a5,1
    7782:	b79d                	j	76e8 <_dtoa_r+0x2d0>
    7784:	4c85                	li	s9,1
    7786:	c202                	sw	zero,4(sp)
    7788:	bde9                	j	7662 <_dtoa_r+0x24a>
    778a:	47b2                	lw	a5,12(sp)
    778c:	c43e                	sw	a5,8(sp)
    778e:	8dbe                	mv	s11,a5
    7790:	bfa1                	j	76e8 <_dtoa_r+0x2d0>
    7792:	0585                	addi	a1,a1,1
    7794:	00b92223          	sw	a1,4(s2)
    7798:	0706                	slli	a4,a4,0x1
    779a:	bfa1                	j	76f2 <_dtoa_r+0x2da>
    779c:	001cf693          	andi	a3,s9,1
    77a0:	ce81                	beqz	a3,77b8 <_dtoa_r+0x3a0>
    77a2:	000d2603          	lw	a2,0(s10)
    77a6:	004d2683          	lw	a3,4(s10)
    77aa:	853a                	mv	a0,a4
    77ac:	85be                	mv	a1,a5
    77ae:	918fe0ef          	jal	ra,58c6 <__muldf3>
    77b2:	0905                	addi	s2,s2,1
    77b4:	872a                	mv	a4,a0
    77b6:	87ae                	mv	a5,a1
    77b8:	401cdc93          	srai	s9,s9,0x1
    77bc:	0d21                	addi	s10,s10,8
    77be:	fc0c9fe3          	bnez	s9,779c <_dtoa_r+0x384>
    77c2:	863a                	mv	a2,a4
    77c4:	86be                	mv	a3,a5
    77c6:	8552                	mv	a0,s4
    77c8:	85e2                	mv	a1,s8
    77ca:	a29fd0ef          	jal	ra,51f2 <__divdf3>
    77ce:	8a2a                	mv	s4,a0
    77d0:	8c2e                	mv	s8,a1
    77d2:	a081                	j	7812 <_dtoa_r+0x3fa>
    77d4:	4909                	li	s2,2
    77d6:	cc15                	beqz	s0,7812 <_dtoa_r+0x3fa>
    77d8:	40800cb3          	neg	s9,s0
    77dc:	00fcf793          	andi	a5,s9,15
    77e0:	00379713          	slli	a4,a5,0x3
    77e4:	00003797          	auipc	a5,0x3
    77e8:	a9c78793          	addi	a5,a5,-1380 # a280 <__mprec_tens>
    77ec:	97ba                	add	a5,a5,a4
    77ee:	4390                	lw	a2,0(a5)
    77f0:	43d4                	lw	a3,4(a5)
    77f2:	4572                	lw	a0,28(sp)
    77f4:	55a2                	lw	a1,40(sp)
    77f6:	404cdc93          	srai	s9,s9,0x4
    77fa:	00003d17          	auipc	s10,0x3
    77fe:	a5ed0d13          	addi	s10,s10,-1442 # a258 <__mprec_bigtens>
    7802:	8c4fe0ef          	jal	ra,58c6 <__muldf3>
    7806:	8a2a                	mv	s4,a0
    7808:	8c2e                	mv	s8,a1
    780a:	4781                	li	a5,0
    780c:	120c9c63          	bnez	s9,7944 <_dtoa_r+0x52c>
    7810:	ffdd                	bnez	a5,77ce <_dtoa_r+0x3b6>
    7812:	57b2                	lw	a5,44(sp)
    7814:	14078763          	beqz	a5,7962 <_dtoa_r+0x54a>
    7818:	00003717          	auipc	a4,0x3
    781c:	9a870713          	addi	a4,a4,-1624 # a1c0 <__clz_tab+0x168>
    7820:	4310                	lw	a2,0(a4)
    7822:	4354                	lw	a3,4(a4)
    7824:	8552                	mv	a0,s4
    7826:	85e2                	mv	a1,s8
    7828:	d052                	sw	s4,32(sp)
    782a:	fe7fd0ef          	jal	ra,5810 <__ledf2>
    782e:	12055a63          	bgez	a0,7962 <_dtoa_r+0x54a>
    7832:	120d8b63          	beqz	s11,7968 <_dtoa_r+0x550>
    7836:	47a2                	lw	a5,8(sp)
    7838:	0af05063          	blez	a5,78d8 <_dtoa_r+0x4c0>
    783c:	00003717          	auipc	a4,0x3
    7840:	98c70713          	addi	a4,a4,-1652 # a1c8 <__clz_tab+0x170>
    7844:	5782                	lw	a5,32(sp)
    7846:	4310                	lw	a2,0(a4)
    7848:	4354                	lw	a3,4(a4)
    784a:	853e                	mv	a0,a5
    784c:	85e2                	mv	a1,s8
    784e:	878fe0ef          	jal	ra,58c6 <__muldf3>
    7852:	47a2                	lw	a5,8(sp)
    7854:	fff40d13          	addi	s10,s0,-1
    7858:	8a2a                	mv	s4,a0
    785a:	8c2e                	mv	s8,a1
    785c:	0905                	addi	s2,s2,1
    785e:	8762                	mv	a4,s8
    7860:	854a                	mv	a0,s2
    7862:	de3e                	sw	a5,60(sp)
    7864:	da52                	sw	s4,52(sp)
    7866:	8cba                	mv	s9,a4
    7868:	d03a                	sw	a4,32(sp)
    786a:	cb7fe0ef          	jal	ra,6520 <__floatsidf>
    786e:	5852                	lw	a6,52(sp)
    7870:	5702                	lw	a4,32(sp)
    7872:	fcc00937          	lui	s2,0xfcc00
    7876:	8642                	mv	a2,a6
    7878:	86ba                	mv	a3,a4
    787a:	84cfe0ef          	jal	ra,58c6 <__muldf3>
    787e:	00003697          	auipc	a3,0x3
    7882:	95268693          	addi	a3,a3,-1710 # a1d0 <__clz_tab+0x178>
    7886:	4290                	lw	a2,0(a3)
    7888:	42d4                	lw	a3,4(a3)
    788a:	8c52                	mv	s8,s4
    788c:	a36fd0ef          	jal	ra,4ac2 <__adddf3>
    7890:	57f2                	lw	a5,60(sp)
    7892:	8a2a                	mv	s4,a0
    7894:	992e                	add	s2,s2,a1
    7896:	efe1                	bnez	a5,796e <_dtoa_r+0x556>
    7898:	00003797          	auipc	a5,0x3
    789c:	94078793          	addi	a5,a5,-1728 # a1d8 <__clz_tab+0x180>
    78a0:	5852                	lw	a6,52(sp)
    78a2:	5702                	lw	a4,32(sp)
    78a4:	4390                	lw	a2,0(a5)
    78a6:	43d4                	lw	a3,4(a5)
    78a8:	8542                	mv	a0,a6
    78aa:	85ba                	mv	a1,a4
    78ac:	cd2fe0ef          	jal	ra,5d7e <__subdf3>
    78b0:	8652                	mv	a2,s4
    78b2:	86ca                	mv	a3,s2
    78b4:	8c2a                	mv	s8,a0
    78b6:	8cae                	mv	s9,a1
    78b8:	26f010ef          	jal	ra,9326 <__gedf2>
    78bc:	54a04a63          	bgtz	a0,7e10 <_dtoa_r+0x9f8>
    78c0:	800007b7          	lui	a5,0x80000
    78c4:	0127c7b3          	xor	a5,a5,s2
    78c8:	8652                	mv	a2,s4
    78ca:	86be                	mv	a3,a5
    78cc:	8562                	mv	a0,s8
    78ce:	85e6                	mv	a1,s9
    78d0:	f41fd0ef          	jal	ra,5810 <__ledf2>
    78d4:	52054b63          	bltz	a0,7e0a <_dtoa_r+0x9f2>
    78d8:	4a72                	lw	s4,28(sp)
    78da:	5c22                	lw	s8,40(sp)
    78dc:	47b6                	lw	a5,76(sp)
    78de:	3007c763          	bltz	a5,7bec <_dtoa_r+0x7d4>
    78e2:	4739                	li	a4,14
    78e4:	30874463          	blt	a4,s0,7bec <_dtoa_r+0x7d4>
    78e8:	00341713          	slli	a4,s0,0x3
    78ec:	00003797          	auipc	a5,0x3
    78f0:	99478793          	addi	a5,a5,-1644 # a280 <__mprec_tens>
    78f4:	97ba                	add	a5,a5,a4
    78f6:	0007ab03          	lw	s6,0(a5)
    78fa:	0047ab83          	lw	s7,4(a5)
    78fe:	47b2                	lw	a5,12(sp)
    7900:	2007d263          	bgez	a5,7b04 <_dtoa_r+0x6ec>
    7904:	21b04063          	bgtz	s11,7b04 <_dtoa_r+0x6ec>
    7908:	500d9163          	bnez	s11,7e0a <_dtoa_r+0x9f2>
    790c:	00003797          	auipc	a5,0x3
    7910:	8cc78793          	addi	a5,a5,-1844 # a1d8 <__clz_tab+0x180>
    7914:	4390                	lw	a2,0(a5)
    7916:	43d4                	lw	a3,4(a5)
    7918:	855a                	mv	a0,s6
    791a:	85de                	mv	a1,s7
    791c:	fabfd0ef          	jal	ra,58c6 <__muldf3>
    7920:	8652                	mv	a2,s4
    7922:	86e2                	mv	a3,s8
    7924:	203010ef          	jal	ra,9326 <__gedf2>
    7928:	4a81                	li	s5,0
    792a:	4901                	li	s2,0
    792c:	4a055763          	bgez	a0,7dda <_dtoa_r+0x9c2>
    7930:	4782                	lw	a5,0(sp)
    7932:	4702                	lw	a4,0(sp)
    7934:	0405                	addi	s0,s0,1
    7936:	00178a13          	addi	s4,a5,1
    793a:	03100793          	li	a5,49
    793e:	00f70023          	sb	a5,0(a4)
    7942:	a145                	j	7de2 <_dtoa_r+0x9ca>
    7944:	001cf713          	andi	a4,s9,1
    7948:	cb09                	beqz	a4,795a <_dtoa_r+0x542>
    794a:	000d2603          	lw	a2,0(s10)
    794e:	004d2683          	lw	a3,4(s10)
    7952:	0905                	addi	s2,s2,1
    7954:	f73fd0ef          	jal	ra,58c6 <__muldf3>
    7958:	4785                	li	a5,1
    795a:	401cdc93          	srai	s9,s9,0x1
    795e:	0d21                	addi	s10,s10,8
    7960:	b575                	j	780c <_dtoa_r+0x3f4>
    7962:	8d22                	mv	s10,s0
    7964:	87ee                	mv	a5,s11
    7966:	bde5                	j	785e <_dtoa_r+0x446>
    7968:	8d22                	mv	s10,s0
    796a:	4781                	li	a5,0
    796c:	bdcd                	j	785e <_dtoa_r+0x446>
    796e:	fff78693          	addi	a3,a5,-1
    7972:	00369613          	slli	a2,a3,0x3
    7976:	00003697          	auipc	a3,0x3
    797a:	90a68693          	addi	a3,a3,-1782 # a280 <__mprec_tens>
    797e:	96b2                	add	a3,a3,a2
    7980:	4288                	lw	a0,0(a3)
    7982:	42cc                	lw	a1,4(a3)
    7984:	4682                	lw	a3,0(sp)
    7986:	97b6                	add	a5,a5,a3
    7988:	da3e                	sw	a5,52(sp)
    798a:	47c2                	lw	a5,16(sp)
    798c:	c3e9                	beqz	a5,7a4e <_dtoa_r+0x636>
    798e:	00003797          	auipc	a5,0x3
    7992:	85278793          	addi	a5,a5,-1966 # a1e0 <__clz_tab+0x188>
    7996:	862a                	mv	a2,a0
    7998:	86ae                	mv	a3,a1
    799a:	4388                	lw	a0,0(a5)
    799c:	43cc                	lw	a1,4(a5)
    799e:	de4a                	sw	s2,60(sp)
    79a0:	d052                	sw	s4,32(sp)
    79a2:	851fd0ef          	jal	ra,51f2 <__divdf3>
    79a6:	5802                	lw	a6,32(sp)
    79a8:	5772                	lw	a4,60(sp)
    79aa:	00003917          	auipc	s2,0x3
    79ae:	81e90913          	addi	s2,s2,-2018 # a1c8 <__clz_tab+0x170>
    79b2:	8642                	mv	a2,a6
    79b4:	86ba                	mv	a3,a4
    79b6:	bc8fe0ef          	jal	ra,5d7e <__subdf3>
    79ba:	4a02                	lw	s4,0(sp)
    79bc:	d02a                	sw	a0,32(sp)
    79be:	d22e                	sw	a1,36(sp)
    79c0:	85e6                	mv	a1,s9
    79c2:	8562                	mv	a0,s8
    79c4:	af5fe0ef          	jal	ra,64b8 <__fixdfsi>
    79c8:	de2a                	sw	a0,60(sp)
    79ca:	b57fe0ef          	jal	ra,6520 <__floatsidf>
    79ce:	862a                	mv	a2,a0
    79d0:	86ae                	mv	a3,a1
    79d2:	8562                	mv	a0,s8
    79d4:	85e6                	mv	a1,s9
    79d6:	ba8fe0ef          	jal	ra,5d7e <__subdf3>
    79da:	57f2                	lw	a5,60(sp)
    79dc:	8c2a                	mv	s8,a0
    79de:	8cae                	mv	s9,a1
    79e0:	862a                	mv	a2,a0
    79e2:	86ae                	mv	a3,a1
    79e4:	5502                	lw	a0,32(sp)
    79e6:	5592                	lw	a1,36(sp)
    79e8:	0a05                	addi	s4,s4,1
    79ea:	03078793          	addi	a5,a5,48
    79ee:	fefa0fa3          	sb	a5,-1(s4)
    79f2:	135010ef          	jal	ra,9326 <__gedf2>
    79f6:	0ea04863          	bgtz	a0,7ae6 <_dtoa_r+0x6ce>
    79fa:	00002797          	auipc	a5,0x2
    79fe:	7c678793          	addi	a5,a5,1990 # a1c0 <__clz_tab+0x168>
    7a02:	4388                	lw	a0,0(a5)
    7a04:	43cc                	lw	a1,4(a5)
    7a06:	8662                	mv	a2,s8
    7a08:	86e6                	mv	a3,s9
    7a0a:	b74fe0ef          	jal	ra,5d7e <__subdf3>
    7a0e:	862a                	mv	a2,a0
    7a10:	86ae                	mv	a3,a1
    7a12:	5502                	lw	a0,32(sp)
    7a14:	5592                	lw	a1,36(sp)
    7a16:	111010ef          	jal	ra,9326 <__gedf2>
    7a1a:	18a04263          	bgtz	a0,7b9e <_dtoa_r+0x786>
    7a1e:	57d2                	lw	a5,52(sp)
    7a20:	eafa0ce3          	beq	s4,a5,78d8 <_dtoa_r+0x4c0>
    7a24:	00092603          	lw	a2,0(s2)
    7a28:	00492683          	lw	a3,4(s2)
    7a2c:	5502                	lw	a0,32(sp)
    7a2e:	5592                	lw	a1,36(sp)
    7a30:	e97fd0ef          	jal	ra,58c6 <__muldf3>
    7a34:	00092603          	lw	a2,0(s2)
    7a38:	00492683          	lw	a3,4(s2)
    7a3c:	d02a                	sw	a0,32(sp)
    7a3e:	d22e                	sw	a1,36(sp)
    7a40:	8562                	mv	a0,s8
    7a42:	85e6                	mv	a1,s9
    7a44:	e83fd0ef          	jal	ra,58c6 <__muldf3>
    7a48:	8c2a                	mv	s8,a0
    7a4a:	8cae                	mv	s9,a1
    7a4c:	bf95                	j	79c0 <_dtoa_r+0x5a8>
    7a4e:	8652                	mv	a2,s4
    7a50:	86ca                	mv	a3,s2
    7a52:	e75fd0ef          	jal	ra,58c6 <__muldf3>
    7a56:	5a52                	lw	s4,52(sp)
    7a58:	4902                	lw	s2,0(sp)
    7a5a:	d02a                	sw	a0,32(sp)
    7a5c:	d22e                	sw	a1,36(sp)
    7a5e:	85e6                	mv	a1,s9
    7a60:	8562                	mv	a0,s8
    7a62:	a57fe0ef          	jal	ra,64b8 <__fixdfsi>
    7a66:	de2a                	sw	a0,60(sp)
    7a68:	ab9fe0ef          	jal	ra,6520 <__floatsidf>
    7a6c:	862a                	mv	a2,a0
    7a6e:	86ae                	mv	a3,a1
    7a70:	8562                	mv	a0,s8
    7a72:	85e6                	mv	a1,s9
    7a74:	b0afe0ef          	jal	ra,5d7e <__subdf3>
    7a78:	5772                	lw	a4,60(sp)
    7a7a:	57d2                	lw	a5,52(sp)
    7a7c:	0905                	addi	s2,s2,1
    7a7e:	03070713          	addi	a4,a4,48
    7a82:	fee90fa3          	sb	a4,-1(s2)
    7a86:	8c2a                	mv	s8,a0
    7a88:	8cae                	mv	s9,a1
    7a8a:	06f91263          	bne	s2,a5,7aee <_dtoa_r+0x6d6>
    7a8e:	00002917          	auipc	s2,0x2
    7a92:	75290913          	addi	s2,s2,1874 # a1e0 <__clz_tab+0x188>
    7a96:	00092603          	lw	a2,0(s2)
    7a9a:	00492683          	lw	a3,4(s2)
    7a9e:	5502                	lw	a0,32(sp)
    7aa0:	5592                	lw	a1,36(sp)
    7aa2:	820fd0ef          	jal	ra,4ac2 <__adddf3>
    7aa6:	862a                	mv	a2,a0
    7aa8:	86ae                	mv	a3,a1
    7aaa:	8562                	mv	a0,s8
    7aac:	85e6                	mv	a1,s9
    7aae:	079010ef          	jal	ra,9326 <__gedf2>
    7ab2:	0ea04663          	bgtz	a0,7b9e <_dtoa_r+0x786>
    7ab6:	5602                	lw	a2,32(sp)
    7ab8:	5692                	lw	a3,36(sp)
    7aba:	00092503          	lw	a0,0(s2)
    7abe:	00492583          	lw	a1,4(s2)
    7ac2:	abcfe0ef          	jal	ra,5d7e <__subdf3>
    7ac6:	862a                	mv	a2,a0
    7ac8:	86ae                	mv	a3,a1
    7aca:	8562                	mv	a0,s8
    7acc:	85e6                	mv	a1,s9
    7ace:	d43fd0ef          	jal	ra,5810 <__ledf2>
    7ad2:	03000793          	li	a5,48
    7ad6:	e00551e3          	bgez	a0,78d8 <_dtoa_r+0x4c0>
    7ada:	fffa4703          	lbu	a4,-1(s4)
    7ade:	fffa0693          	addi	a3,s4,-1
    7ae2:	00f70463          	beq	a4,a5,7aea <_dtoa_r+0x6d2>
    7ae6:	846a                	mv	s0,s10
    7ae8:	a859                	j	7b7e <_dtoa_r+0x766>
    7aea:	8a36                	mv	s4,a3
    7aec:	b7fd                	j	7ada <_dtoa_r+0x6c2>
    7aee:	00002797          	auipc	a5,0x2
    7af2:	6da78793          	addi	a5,a5,1754 # a1c8 <__clz_tab+0x170>
    7af6:	4390                	lw	a2,0(a5)
    7af8:	43d4                	lw	a3,4(a5)
    7afa:	dcdfd0ef          	jal	ra,58c6 <__muldf3>
    7afe:	8c2a                	mv	s8,a0
    7b00:	8cae                	mv	s9,a1
    7b02:	bfb1                	j	7a5e <_dtoa_r+0x646>
    7b04:	87e2                	mv	a5,s8
    7b06:	8cbe                	mv	s9,a5
    7b08:	4782                	lw	a5,0(sp)
    7b0a:	8c52                	mv	s8,s4
    7b0c:	00002a97          	auipc	s5,0x2
    7b10:	6bca8a93          	addi	s5,s5,1724 # a1c8 <__clz_tab+0x170>
    7b14:	00178913          	addi	s2,a5,1
    7b18:	9dbe                	add	s11,s11,a5
    7b1a:	865a                	mv	a2,s6
    7b1c:	86de                	mv	a3,s7
    7b1e:	8562                	mv	a0,s8
    7b20:	85e6                	mv	a1,s9
    7b22:	ed0fd0ef          	jal	ra,51f2 <__divdf3>
    7b26:	993fe0ef          	jal	ra,64b8 <__fixdfsi>
    7b2a:	8d2a                	mv	s10,a0
    7b2c:	9f5fe0ef          	jal	ra,6520 <__floatsidf>
    7b30:	865a                	mv	a2,s6
    7b32:	86de                	mv	a3,s7
    7b34:	d93fd0ef          	jal	ra,58c6 <__muldf3>
    7b38:	862a                	mv	a2,a0
    7b3a:	86ae                	mv	a3,a1
    7b3c:	8562                	mv	a0,s8
    7b3e:	85e6                	mv	a1,s9
    7b40:	a3efe0ef          	jal	ra,5d7e <__subdf3>
    7b44:	030d0793          	addi	a5,s10,48
    7b48:	fef90fa3          	sb	a5,-1(s2)
    7b4c:	862a                	mv	a2,a0
    7b4e:	86ae                	mv	a3,a1
    7b50:	8a4a                	mv	s4,s2
    7b52:	072d9e63          	bne	s11,s2,7bce <_dtoa_r+0x7b6>
    7b56:	f6dfc0ef          	jal	ra,4ac2 <__adddf3>
    7b5a:	865a                	mv	a2,s6
    7b5c:	86de                	mv	a3,s7
    7b5e:	8c2a                	mv	s8,a0
    7b60:	8cae                	mv	s9,a1
    7b62:	7c4010ef          	jal	ra,9326 <__gedf2>
    7b66:	02a04b63          	bgtz	a0,7b9c <_dtoa_r+0x784>
    7b6a:	865a                	mv	a2,s6
    7b6c:	86de                	mv	a3,s7
    7b6e:	8562                	mv	a0,s8
    7b70:	85e6                	mv	a1,s9
    7b72:	c35fd0ef          	jal	ra,57a6 <__eqdf2>
    7b76:	e501                	bnez	a0,7b7e <_dtoa_r+0x766>
    7b78:	001d7793          	andi	a5,s10,1
    7b7c:	e385                	bnez	a5,7b9c <_dtoa_r+0x784>
    7b7e:	85ce                	mv	a1,s3
    7b80:	8526                	mv	a0,s1
    7b82:	24f000ef          	jal	ra,85d0 <_Bfree>
    7b86:	57c2                	lw	a5,48(sp)
    7b88:	000a0023          	sb	zero,0(s4)
    7b8c:	0405                	addi	s0,s0,1
    7b8e:	c380                	sw	s0,0(a5)
    7b90:	47d2                	lw	a5,20(sp)
    7b92:	940789e3          	beqz	a5,74e4 <_dtoa_r+0xcc>
    7b96:	0147a023          	sw	s4,0(a5)
    7b9a:	b2a9                	j	74e4 <_dtoa_r+0xcc>
    7b9c:	8d22                	mv	s10,s0
    7b9e:	03900713          	li	a4,57
    7ba2:	fffa4683          	lbu	a3,-1(s4)
    7ba6:	fffa0793          	addi	a5,s4,-1
    7baa:	00e69a63          	bne	a3,a4,7bbe <_dtoa_r+0x7a6>
    7bae:	4682                	lw	a3,0(sp)
    7bb0:	00f69d63          	bne	a3,a5,7bca <_dtoa_r+0x7b2>
    7bb4:	03000713          	li	a4,48
    7bb8:	0d05                	addi	s10,s10,1
    7bba:	00e68023          	sb	a4,0(a3)
    7bbe:	0007c703          	lbu	a4,0(a5)
    7bc2:	0705                	addi	a4,a4,1
    7bc4:	00e78023          	sb	a4,0(a5)
    7bc8:	bf39                	j	7ae6 <_dtoa_r+0x6ce>
    7bca:	8a3e                	mv	s4,a5
    7bcc:	bfd9                	j	7ba2 <_dtoa_r+0x78a>
    7bce:	000aa603          	lw	a2,0(s5)
    7bd2:	004aa683          	lw	a3,4(s5)
    7bd6:	0905                	addi	s2,s2,1
    7bd8:	ceffd0ef          	jal	ra,58c6 <__muldf3>
    7bdc:	4601                	li	a2,0
    7bde:	4681                	li	a3,0
    7be0:	8c2a                	mv	s8,a0
    7be2:	8cae                	mv	s9,a1
    7be4:	bc3fd0ef          	jal	ra,57a6 <__eqdf2>
    7be8:	f90d                	bnez	a0,7b1a <_dtoa_r+0x702>
    7bea:	bf51                	j	7b7e <_dtoa_r+0x766>
    7bec:	4742                	lw	a4,16(sp)
    7bee:	10070063          	beqz	a4,7cee <_dtoa_r+0x8d6>
    7bf2:	4692                	lw	a3,4(sp)
    7bf4:	4705                	li	a4,1
    7bf6:	0cd74563          	blt	a4,a3,7cc0 <_dtoa_r+0x8a8>
    7bfa:	5762                	lw	a4,56(sp)
    7bfc:	43378793          	addi	a5,a5,1075
    7c00:	e709                	bnez	a4,7c0a <_dtoa_r+0x7f2>
    7c02:	4726                	lw	a4,72(sp)
    7c04:	03600793          	li	a5,54
    7c08:	8f99                	sub	a5,a5,a4
    7c0a:	8d56                	mv	s10,s5
    7c0c:	8cda                	mv	s9,s6
    7c0e:	4585                	li	a1,1
    7c10:	8526                	mv	a0,s1
    7c12:	9b3e                	add	s6,s6,a5
    7c14:	9bbe                	add	s7,s7,a5
    7c16:	347000ef          	jal	ra,875c <__i2b>
    7c1a:	892a                	mv	s2,a0
    7c1c:	01905e63          	blez	s9,7c38 <_dtoa_r+0x820>
    7c20:	01705c63          	blez	s7,7c38 <_dtoa_r+0x820>
    7c24:	87e6                	mv	a5,s9
    7c26:	019bd363          	bge	s7,s9,7c2c <_dtoa_r+0x814>
    7c2a:	87de                	mv	a5,s7
    7c2c:	40fb0b33          	sub	s6,s6,a5
    7c30:	40fc8cb3          	sub	s9,s9,a5
    7c34:	40fb8bb3          	sub	s7,s7,a5
    7c38:	040a8063          	beqz	s5,7c78 <_dtoa_r+0x860>
    7c3c:	47c2                	lw	a5,16(sp)
    7c3e:	cfc5                	beqz	a5,7cf6 <_dtoa_r+0x8de>
    7c40:	03a05463          	blez	s10,7c68 <_dtoa_r+0x850>
    7c44:	85ca                	mv	a1,s2
    7c46:	866a                	mv	a2,s10
    7c48:	8526                	mv	a0,s1
    7c4a:	473000ef          	jal	ra,88bc <__pow5mult>
    7c4e:	864e                	mv	a2,s3
    7c50:	85aa                	mv	a1,a0
    7c52:	892a                	mv	s2,a0
    7c54:	8526                	mv	a0,s1
    7c56:	323000ef          	jal	ra,8778 <__multiply>
    7c5a:	ce2a                	sw	a0,28(sp)
    7c5c:	85ce                	mv	a1,s3
    7c5e:	8526                	mv	a0,s1
    7c60:	171000ef          	jal	ra,85d0 <_Bfree>
    7c64:	47f2                	lw	a5,28(sp)
    7c66:	89be                	mv	s3,a5
    7c68:	41aa8633          	sub	a2,s5,s10
    7c6c:	c611                	beqz	a2,7c78 <_dtoa_r+0x860>
    7c6e:	85ce                	mv	a1,s3
    7c70:	8526                	mv	a0,s1
    7c72:	44b000ef          	jal	ra,88bc <__pow5mult>
    7c76:	89aa                	mv	s3,a0
    7c78:	4585                	li	a1,1
    7c7a:	8526                	mv	a0,s1
    7c7c:	2e1000ef          	jal	ra,875c <__i2b>
    7c80:	47e2                	lw	a5,24(sp)
    7c82:	8aaa                	mv	s5,a0
    7c84:	06f05b63          	blez	a5,7cfa <_dtoa_r+0x8e2>
    7c88:	863e                	mv	a2,a5
    7c8a:	85aa                	mv	a1,a0
    7c8c:	8526                	mv	a0,s1
    7c8e:	42f000ef          	jal	ra,88bc <__pow5mult>
    7c92:	4712                	lw	a4,4(sp)
    7c94:	4785                	li	a5,1
    7c96:	8aaa                	mv	s5,a0
    7c98:	4d01                	li	s10,0
    7c9a:	06e7c863          	blt	a5,a4,7d0a <_dtoa_r+0x8f2>
    7c9e:	4d01                	li	s10,0
    7ca0:	060a1263          	bnez	s4,7d04 <_dtoa_r+0x8ec>
    7ca4:	00cc1793          	slli	a5,s8,0xc
    7ca8:	8d52                	mv	s10,s4
    7caa:	efa9                	bnez	a5,7d04 <_dtoa_r+0x8ec>
    7cac:	7ff005b7          	lui	a1,0x7ff00
    7cb0:	00bc7c33          	and	s8,s8,a1
    7cb4:	040c0863          	beqz	s8,7d04 <_dtoa_r+0x8ec>
    7cb8:	0b05                	addi	s6,s6,1
    7cba:	0b85                	addi	s7,s7,1
    7cbc:	4d05                	li	s10,1
    7cbe:	a099                	j	7d04 <_dtoa_r+0x8ec>
    7cc0:	fffd8d13          	addi	s10,s11,-1
    7cc4:	01aaca63          	blt	s5,s10,7cd8 <_dtoa_r+0x8c0>
    7cc8:	41aa8d33          	sub	s10,s5,s10
    7ccc:	000dde63          	bgez	s11,7ce8 <_dtoa_r+0x8d0>
    7cd0:	41bb0cb3          	sub	s9,s6,s11
    7cd4:	4781                	li	a5,0
    7cd6:	bf25                	j	7c0e <_dtoa_r+0x7f6>
    7cd8:	47e2                	lw	a5,24(sp)
    7cda:	415d0ab3          	sub	s5,s10,s5
    7cde:	97d6                	add	a5,a5,s5
    7ce0:	cc3e                	sw	a5,24(sp)
    7ce2:	8aea                	mv	s5,s10
    7ce4:	4d01                	li	s10,0
    7ce6:	b7dd                	j	7ccc <_dtoa_r+0x8b4>
    7ce8:	8cda                	mv	s9,s6
    7cea:	87ee                	mv	a5,s11
    7cec:	b70d                	j	7c0e <_dtoa_r+0x7f6>
    7cee:	8d56                	mv	s10,s5
    7cf0:	8cda                	mv	s9,s6
    7cf2:	4901                	li	s2,0
    7cf4:	b725                	j	7c1c <_dtoa_r+0x804>
    7cf6:	8656                	mv	a2,s5
    7cf8:	bf9d                	j	7c6e <_dtoa_r+0x856>
    7cfa:	4712                	lw	a4,4(sp)
    7cfc:	4785                	li	a5,1
    7cfe:	4d01                	li	s10,0
    7d00:	f8e7dfe3          	bge	a5,a4,7c9e <_dtoa_r+0x886>
    7d04:	47e2                	lw	a5,24(sp)
    7d06:	4505                	li	a0,1
    7d08:	cf89                	beqz	a5,7d22 <_dtoa_r+0x90a>
    7d0a:	010aa783          	lw	a5,16(s5)
    7d0e:	078d                	addi	a5,a5,3
    7d10:	078a                	slli	a5,a5,0x2
    7d12:	97d6                	add	a5,a5,s5
    7d14:	43c8                	lw	a0,4(a5)
    7d16:	197000ef          	jal	ra,86ac <__hi0bits>
    7d1a:	02000793          	li	a5,32
    7d1e:	40a78533          	sub	a0,a5,a0
    7d22:	955e                	add	a0,a0,s7
    7d24:	897d                	andi	a0,a0,31
    7d26:	c151                	beqz	a0,7daa <_dtoa_r+0x992>
    7d28:	02000793          	li	a5,32
    7d2c:	8f89                	sub	a5,a5,a0
    7d2e:	4711                	li	a4,4
    7d30:	06f75a63          	bge	a4,a5,7da4 <_dtoa_r+0x98c>
    7d34:	47f1                	li	a5,28
    7d36:	40a78533          	sub	a0,a5,a0
    7d3a:	9b2a                	add	s6,s6,a0
    7d3c:	9caa                	add	s9,s9,a0
    7d3e:	9baa                	add	s7,s7,a0
    7d40:	01605863          	blez	s6,7d50 <_dtoa_r+0x938>
    7d44:	85ce                	mv	a1,s3
    7d46:	865a                	mv	a2,s6
    7d48:	8526                	mv	a0,s1
    7d4a:	431000ef          	jal	ra,897a <__lshift>
    7d4e:	89aa                	mv	s3,a0
    7d50:	01705863          	blez	s7,7d60 <_dtoa_r+0x948>
    7d54:	85d6                	mv	a1,s5
    7d56:	865e                	mv	a2,s7
    7d58:	8526                	mv	a0,s1
    7d5a:	421000ef          	jal	ra,897a <__lshift>
    7d5e:	8aaa                	mv	s5,a0
    7d60:	57b2                	lw	a5,44(sp)
    7d62:	c7b1                	beqz	a5,7dae <_dtoa_r+0x996>
    7d64:	85d6                	mv	a1,s5
    7d66:	854e                	mv	a0,s3
    7d68:	4e1000ef          	jal	ra,8a48 <__mcmp>
    7d6c:	04055163          	bgez	a0,7dae <_dtoa_r+0x996>
    7d70:	85ce                	mv	a1,s3
    7d72:	4681                	li	a3,0
    7d74:	4629                	li	a2,10
    7d76:	8526                	mv	a0,s1
    7d78:	09d000ef          	jal	ra,8614 <__multadd>
    7d7c:	47c2                	lw	a5,16(sp)
    7d7e:	147d                	addi	s0,s0,-1
    7d80:	89aa                	mv	s3,a0
    7d82:	26078c63          	beqz	a5,7ffa <_dtoa_r+0xbe2>
    7d86:	85ca                	mv	a1,s2
    7d88:	4681                	li	a3,0
    7d8a:	4629                	li	a2,10
    7d8c:	8526                	mv	a0,s1
    7d8e:	087000ef          	jal	ra,8614 <__multadd>
    7d92:	47a2                	lw	a5,8(sp)
    7d94:	892a                	mv	s2,a0
    7d96:	08f04563          	bgtz	a5,7e20 <_dtoa_r+0xa08>
    7d9a:	4712                	lw	a4,4(sp)
    7d9c:	4789                	li	a5,2
    7d9e:	08e7d163          	bge	a5,a4,7e20 <_dtoa_r+0xa08>
    7da2:	a829                	j	7dbc <_dtoa_r+0x9a4>
    7da4:	f8e78ee3          	beq	a5,a4,7d40 <_dtoa_r+0x928>
    7da8:	853e                	mv	a0,a5
    7daa:	0571                	addi	a0,a0,28
    7dac:	b779                	j	7d3a <_dtoa_r+0x922>
    7dae:	07b04563          	bgtz	s11,7e18 <_dtoa_r+0xa00>
    7db2:	4712                	lw	a4,4(sp)
    7db4:	4789                	li	a5,2
    7db6:	06e7d163          	bge	a5,a4,7e18 <_dtoa_r+0xa00>
    7dba:	c46e                	sw	s11,8(sp)
    7dbc:	47a2                	lw	a5,8(sp)
    7dbe:	ef91                	bnez	a5,7dda <_dtoa_r+0x9c2>
    7dc0:	85d6                	mv	a1,s5
    7dc2:	4681                	li	a3,0
    7dc4:	4615                	li	a2,5
    7dc6:	8526                	mv	a0,s1
    7dc8:	04d000ef          	jal	ra,8614 <__multadd>
    7dcc:	8aaa                	mv	s5,a0
    7dce:	85aa                	mv	a1,a0
    7dd0:	854e                	mv	a0,s3
    7dd2:	477000ef          	jal	ra,8a48 <__mcmp>
    7dd6:	b4a04de3          	bgtz	a0,7930 <_dtoa_r+0x518>
    7dda:	47b2                	lw	a5,12(sp)
    7ddc:	4a02                	lw	s4,0(sp)
    7dde:	fff7c413          	not	s0,a5
    7de2:	4b01                	li	s6,0
    7de4:	85d6                	mv	a1,s5
    7de6:	8526                	mv	a0,s1
    7de8:	7e8000ef          	jal	ra,85d0 <_Bfree>
    7dec:	d80909e3          	beqz	s2,7b7e <_dtoa_r+0x766>
    7df0:	000b0863          	beqz	s6,7e00 <_dtoa_r+0x9e8>
    7df4:	012b0663          	beq	s6,s2,7e00 <_dtoa_r+0x9e8>
    7df8:	85da                	mv	a1,s6
    7dfa:	8526                	mv	a0,s1
    7dfc:	7d4000ef          	jal	ra,85d0 <_Bfree>
    7e00:	85ca                	mv	a1,s2
    7e02:	8526                	mv	a0,s1
    7e04:	7cc000ef          	jal	ra,85d0 <_Bfree>
    7e08:	bb9d                	j	7b7e <_dtoa_r+0x766>
    7e0a:	4a81                	li	s5,0
    7e0c:	4901                	li	s2,0
    7e0e:	b7f1                	j	7dda <_dtoa_r+0x9c2>
    7e10:	846a                	mv	s0,s10
    7e12:	4a81                	li	s5,0
    7e14:	4901                	li	s2,0
    7e16:	be29                	j	7930 <_dtoa_r+0x518>
    7e18:	47c2                	lw	a5,16(sp)
    7e1a:	c46e                	sw	s11,8(sp)
    7e1c:	1e078663          	beqz	a5,8008 <_dtoa_r+0xbf0>
    7e20:	01905863          	blez	s9,7e30 <_dtoa_r+0xa18>
    7e24:	85ca                	mv	a1,s2
    7e26:	8666                	mv	a2,s9
    7e28:	8526                	mv	a0,s1
    7e2a:	351000ef          	jal	ra,897a <__lshift>
    7e2e:	892a                	mv	s2,a0
    7e30:	854a                	mv	a0,s2
    7e32:	020d0663          	beqz	s10,7e5e <_dtoa_r+0xa46>
    7e36:	00492583          	lw	a1,4(s2)
    7e3a:	8526                	mv	a0,s1
    7e3c:	70c000ef          	jal	ra,8548 <_Balloc>
    7e40:	01092603          	lw	a2,16(s2)
    7e44:	8b2a                	mv	s6,a0
    7e46:	00c90593          	addi	a1,s2,12
    7e4a:	0609                	addi	a2,a2,2
    7e4c:	060a                	slli	a2,a2,0x2
    7e4e:	0531                	addi	a0,a0,12
    7e50:	fb6fe0ef          	jal	ra,6606 <memcpy>
    7e54:	4605                	li	a2,1
    7e56:	85da                	mv	a1,s6
    7e58:	8526                	mv	a0,s1
    7e5a:	321000ef          	jal	ra,897a <__lshift>
    7e5e:	4782                	lw	a5,0(sp)
    7e60:	4722                	lw	a4,8(sp)
    7e62:	8b4a                	mv	s6,s2
    7e64:	00178c13          	addi	s8,a5,1
    7e68:	97ba                	add	a5,a5,a4
    7e6a:	c63e                	sw	a5,12(sp)
    7e6c:	001a7793          	andi	a5,s4,1
    7e70:	892a                	mv	s2,a0
    7e72:	c43e                	sw	a5,8(sp)
    7e74:	85d6                	mv	a1,s5
    7e76:	854e                	mv	a0,s3
    7e78:	c66ff0ef          	jal	ra,72de <quorem>
    7e7c:	85da                	mv	a1,s6
    7e7e:	8d2a                	mv	s10,a0
    7e80:	03050d93          	addi	s11,a0,48
    7e84:	854e                	mv	a0,s3
    7e86:	3c3000ef          	jal	ra,8a48 <__mcmp>
    7e8a:	864a                	mv	a2,s2
    7e8c:	8baa                	mv	s7,a0
    7e8e:	85d6                	mv	a1,s5
    7e90:	8526                	mv	a0,s1
    7e92:	3e9000ef          	jal	ra,8a7a <__mdiff>
    7e96:	4550                	lw	a2,12(a0)
    7e98:	fffc0c93          	addi	s9,s8,-1
    7e9c:	8a2a                	mv	s4,a0
    7e9e:	4705                	li	a4,1
    7ea0:	e611                	bnez	a2,7eac <_dtoa_r+0xa94>
    7ea2:	85aa                	mv	a1,a0
    7ea4:	854e                	mv	a0,s3
    7ea6:	3a3000ef          	jal	ra,8a48 <__mcmp>
    7eaa:	872a                	mv	a4,a0
    7eac:	85d2                	mv	a1,s4
    7eae:	8526                	mv	a0,s1
    7eb0:	c83a                	sw	a4,16(sp)
    7eb2:	71e000ef          	jal	ra,85d0 <_Bfree>
    7eb6:	4792                	lw	a5,4(sp)
    7eb8:	4742                	lw	a4,16(sp)
    7eba:	8a62                	mv	s4,s8
    7ebc:	00e7e6b3          	or	a3,a5,a4
    7ec0:	47a2                	lw	a5,8(sp)
    7ec2:	8edd                	or	a3,a3,a5
    7ec4:	ee81                	bnez	a3,7edc <_dtoa_r+0xac4>
    7ec6:	03900713          	li	a4,57
    7eca:	04ed8863          	beq	s11,a4,7f1a <_dtoa_r+0xb02>
    7ece:	01705463          	blez	s7,7ed6 <_dtoa_r+0xabe>
    7ed2:	031d0d93          	addi	s11,s10,49
    7ed6:	01bc8023          	sb	s11,0(s9)
    7eda:	b729                	j	7de4 <_dtoa_r+0x9cc>
    7edc:	000bca63          	bltz	s7,7ef0 <_dtoa_r+0xad8>
    7ee0:	4792                	lw	a5,4(sp)
    7ee2:	0177ebb3          	or	s7,a5,s7
    7ee6:	47a2                	lw	a5,8(sp)
    7ee8:	00fbebb3          	or	s7,s7,a5
    7eec:	040b9563          	bnez	s7,7f36 <_dtoa_r+0xb1e>
    7ef0:	fee053e3          	blez	a4,7ed6 <_dtoa_r+0xabe>
    7ef4:	85ce                	mv	a1,s3
    7ef6:	4605                	li	a2,1
    7ef8:	8526                	mv	a0,s1
    7efa:	281000ef          	jal	ra,897a <__lshift>
    7efe:	85d6                	mv	a1,s5
    7f00:	89aa                	mv	s3,a0
    7f02:	347000ef          	jal	ra,8a48 <__mcmp>
    7f06:	00a04663          	bgtz	a0,7f12 <_dtoa_r+0xafa>
    7f0a:	f571                	bnez	a0,7ed6 <_dtoa_r+0xabe>
    7f0c:	001df713          	andi	a4,s11,1
    7f10:	d379                	beqz	a4,7ed6 <_dtoa_r+0xabe>
    7f12:	03900713          	li	a4,57
    7f16:	faed9ee3          	bne	s11,a4,7ed2 <_dtoa_r+0xaba>
    7f1a:	03900793          	li	a5,57
    7f1e:	00fc8023          	sb	a5,0(s9)
    7f22:	03900693          	li	a3,57
    7f26:	fffa4783          	lbu	a5,-1(s4)
    7f2a:	fffa0713          	addi	a4,s4,-1
    7f2e:	08d78c63          	beq	a5,a3,7fc6 <_dtoa_r+0xbae>
    7f32:	0785                	addi	a5,a5,1
    7f34:	a045                	j	7fd4 <_dtoa_r+0xbbc>
    7f36:	00e05b63          	blez	a4,7f4c <_dtoa_r+0xb34>
    7f3a:	03900713          	li	a4,57
    7f3e:	fced8ee3          	beq	s11,a4,7f1a <_dtoa_r+0xb02>
    7f42:	001d8793          	addi	a5,s11,1
    7f46:	00fc8023          	sb	a5,0(s9)
    7f4a:	bd69                	j	7de4 <_dtoa_r+0x9cc>
    7f4c:	47b2                	lw	a5,12(sp)
    7f4e:	ffbc0fa3          	sb	s11,-1(s8)
    7f52:	05878163          	beq	a5,s8,7f94 <_dtoa_r+0xb7c>
    7f56:	85ce                	mv	a1,s3
    7f58:	4681                	li	a3,0
    7f5a:	4629                	li	a2,10
    7f5c:	8526                	mv	a0,s1
    7f5e:	6b6000ef          	jal	ra,8614 <__multadd>
    7f62:	89aa                	mv	s3,a0
    7f64:	4681                	li	a3,0
    7f66:	4629                	li	a2,10
    7f68:	85da                	mv	a1,s6
    7f6a:	8526                	mv	a0,s1
    7f6c:	012b1863          	bne	s6,s2,7f7c <_dtoa_r+0xb64>
    7f70:	6a4000ef          	jal	ra,8614 <__multadd>
    7f74:	8b2a                	mv	s6,a0
    7f76:	892a                	mv	s2,a0
    7f78:	0c05                	addi	s8,s8,1
    7f7a:	bded                	j	7e74 <_dtoa_r+0xa5c>
    7f7c:	698000ef          	jal	ra,8614 <__multadd>
    7f80:	85ca                	mv	a1,s2
    7f82:	8b2a                	mv	s6,a0
    7f84:	4681                	li	a3,0
    7f86:	4629                	li	a2,10
    7f88:	8526                	mv	a0,s1
    7f8a:	68a000ef          	jal	ra,8614 <__multadd>
    7f8e:	892a                	mv	s2,a0
    7f90:	b7e5                	j	7f78 <_dtoa_r+0xb60>
    7f92:	4b01                	li	s6,0
    7f94:	85ce                	mv	a1,s3
    7f96:	4605                	li	a2,1
    7f98:	8526                	mv	a0,s1
    7f9a:	1e1000ef          	jal	ra,897a <__lshift>
    7f9e:	85d6                	mv	a1,s5
    7fa0:	89aa                	mv	s3,a0
    7fa2:	2a7000ef          	jal	ra,8a48 <__mcmp>
    7fa6:	f6a04ee3          	bgtz	a0,7f22 <_dtoa_r+0xb0a>
    7faa:	e501                	bnez	a0,7fb2 <_dtoa_r+0xb9a>
    7fac:	001df793          	andi	a5,s11,1
    7fb0:	fbad                	bnez	a5,7f22 <_dtoa_r+0xb0a>
    7fb2:	03000793          	li	a5,48
    7fb6:	fffa4703          	lbu	a4,-1(s4)
    7fba:	fffa0693          	addi	a3,s4,-1
    7fbe:	e2f713e3          	bne	a4,a5,7de4 <_dtoa_r+0x9cc>
    7fc2:	8a36                	mv	s4,a3
    7fc4:	bfcd                	j	7fb6 <_dtoa_r+0xb9e>
    7fc6:	4782                	lw	a5,0(sp)
    7fc8:	00e79963          	bne	a5,a4,7fda <_dtoa_r+0xbc2>
    7fcc:	4702                	lw	a4,0(sp)
    7fce:	0405                	addi	s0,s0,1
    7fd0:	03100793          	li	a5,49
    7fd4:	00f70023          	sb	a5,0(a4)
    7fd8:	b531                	j	7de4 <_dtoa_r+0x9cc>
    7fda:	8a3a                	mv	s4,a4
    7fdc:	b7a9                	j	7f26 <_dtoa_r+0xb0e>
    7fde:	4752                	lw	a4,20(sp)
    7fe0:	00002797          	auipc	a5,0x2
    7fe4:	20878793          	addi	a5,a5,520 # a1e8 <__clz_tab+0x190>
    7fe8:	c03e                	sw	a5,0(sp)
    7fea:	00002797          	auipc	a5,0x2
    7fee:	20678793          	addi	a5,a5,518 # a1f0 <__clz_tab+0x198>
    7ff2:	ce071763          	bnez	a4,74e0 <_dtoa_r+0xc8>
    7ff6:	ceeff06f          	j	74e4 <_dtoa_r+0xcc>
    7ffa:	47a2                	lw	a5,8(sp)
    7ffc:	00f04663          	bgtz	a5,8008 <_dtoa_r+0xbf0>
    8000:	4712                	lw	a4,4(sp)
    8002:	4789                	li	a5,2
    8004:	dae7cce3          	blt	a5,a4,7dbc <_dtoa_r+0x9a4>
    8008:	4a02                	lw	s4,0(sp)
    800a:	85d6                	mv	a1,s5
    800c:	854e                	mv	a0,s3
    800e:	ad0ff0ef          	jal	ra,72de <quorem>
    8012:	4782                	lw	a5,0(sp)
    8014:	0a05                	addi	s4,s4,1
    8016:	03050d93          	addi	s11,a0,48
    801a:	40fa0733          	sub	a4,s4,a5
    801e:	47a2                	lw	a5,8(sp)
    8020:	ffba0fa3          	sb	s11,-1(s4)
    8024:	f6f757e3          	bge	a4,a5,7f92 <_dtoa_r+0xb7a>
    8028:	85ce                	mv	a1,s3
    802a:	4681                	li	a3,0
    802c:	4629                	li	a2,10
    802e:	8526                	mv	a0,s1
    8030:	23d5                	jal	8614 <__multadd>
    8032:	89aa                	mv	s3,a0
    8034:	bfd9                	j	800a <_dtoa_r+0xbf2>

00008036 <__sflush_r>:
__sflush_r():
    8036:	00c5d783          	lhu	a5,12(a1) # 7ff0000c <_eusrstack+0x5fef000c>
    803a:	1101                	addi	sp,sp,-32
    803c:	cc22                	sw	s0,24(sp)
    803e:	ca26                	sw	s1,20(sp)
    8040:	ce06                	sw	ra,28(sp)
    8042:	c84a                	sw	s2,16(sp)
    8044:	c64e                	sw	s3,12(sp)
    8046:	0087f713          	andi	a4,a5,8
    804a:	84aa                	mv	s1,a0
    804c:	842e                	mv	s0,a1
    804e:	ef79                	bnez	a4,812c <__sflush_r+0xf6>
    8050:	41d8                	lw	a4,4(a1)
    8052:	00e04d63          	bgtz	a4,806c <__sflush_r+0x36>
    8056:	41b8                	lw	a4,64(a1)
    8058:	00e04a63          	bgtz	a4,806c <__sflush_r+0x36>
    805c:	4501                	li	a0,0
    805e:	40f2                	lw	ra,28(sp)
    8060:	4462                	lw	s0,24(sp)
    8062:	44d2                	lw	s1,20(sp)
    8064:	4942                	lw	s2,16(sp)
    8066:	49b2                	lw	s3,12(sp)
    8068:	6105                	addi	sp,sp,32
    806a:	8082                	ret
    806c:	5458                	lw	a4,44(s0)
    806e:	d77d                	beqz	a4,805c <__sflush_r+0x26>
    8070:	0004a903          	lw	s2,0(s1)
    8074:	01379693          	slli	a3,a5,0x13
    8078:	0004a023          	sw	zero,0(s1)
    807c:	0606de63          	bgez	a3,80f8 <__sflush_r+0xc2>
    8080:	4870                	lw	a2,84(s0)
    8082:	00c45783          	lhu	a5,12(s0)
    8086:	8b91                	andi	a5,a5,4
    8088:	c799                	beqz	a5,8096 <__sflush_r+0x60>
    808a:	405c                	lw	a5,4(s0)
    808c:	8e1d                	sub	a2,a2,a5
    808e:	585c                	lw	a5,52(s0)
    8090:	c399                	beqz	a5,8096 <__sflush_r+0x60>
    8092:	403c                	lw	a5,64(s0)
    8094:	8e1d                	sub	a2,a2,a5
    8096:	545c                	lw	a5,44(s0)
    8098:	500c                	lw	a1,32(s0)
    809a:	4681                	li	a3,0
    809c:	8526                	mv	a0,s1
    809e:	9782                	jalr	a5
    80a0:	57fd                	li	a5,-1
    80a2:	00c45703          	lhu	a4,12(s0)
    80a6:	00f51d63          	bne	a0,a5,80c0 <__sflush_r+0x8a>
    80aa:	4094                	lw	a3,0(s1)
    80ac:	47f5                	li	a5,29
    80ae:	06d7e963          	bltu	a5,a3,8120 <__sflush_r+0xea>
    80b2:	204007b7          	lui	a5,0x20400
    80b6:	0785                	addi	a5,a5,1
    80b8:	00d7d7b3          	srl	a5,a5,a3
    80bc:	8b85                	andi	a5,a5,1
    80be:	c3ad                	beqz	a5,8120 <__sflush_r+0xea>
    80c0:	481c                	lw	a5,16(s0)
    80c2:	00042223          	sw	zero,4(s0)
    80c6:	c01c                	sw	a5,0(s0)
    80c8:	01371793          	slli	a5,a4,0x13
    80cc:	0007d863          	bgez	a5,80dc <__sflush_r+0xa6>
    80d0:	57fd                	li	a5,-1
    80d2:	00f51463          	bne	a0,a5,80da <__sflush_r+0xa4>
    80d6:	409c                	lw	a5,0(s1)
    80d8:	e391                	bnez	a5,80dc <__sflush_r+0xa6>
    80da:	c868                	sw	a0,84(s0)
    80dc:	584c                	lw	a1,52(s0)
    80de:	0124a023          	sw	s2,0(s1)
    80e2:	ddad                	beqz	a1,805c <__sflush_r+0x26>
    80e4:	04440793          	addi	a5,s0,68
    80e8:	00f58563          	beq	a1,a5,80f2 <__sflush_r+0xbc>
    80ec:	8526                	mv	a0,s1
    80ee:	379000ef          	jal	ra,8c66 <_free_r>
    80f2:	02042a23          	sw	zero,52(s0)
    80f6:	b79d                	j	805c <__sflush_r+0x26>
    80f8:	500c                	lw	a1,32(s0)
    80fa:	4601                	li	a2,0
    80fc:	4685                	li	a3,1
    80fe:	8526                	mv	a0,s1
    8100:	9702                	jalr	a4
    8102:	57fd                	li	a5,-1
    8104:	862a                	mv	a2,a0
    8106:	f6f51ee3          	bne	a0,a5,8082 <__sflush_r+0x4c>
    810a:	409c                	lw	a5,0(s1)
    810c:	dbbd                	beqz	a5,8082 <__sflush_r+0x4c>
    810e:	4775                	li	a4,29
    8110:	00e78563          	beq	a5,a4,811a <__sflush_r+0xe4>
    8114:	4759                	li	a4,22
    8116:	04e79463          	bne	a5,a4,815e <__sflush_r+0x128>
    811a:	0124a023          	sw	s2,0(s1)
    811e:	bf3d                	j	805c <__sflush_r+0x26>
    8120:	04076713          	ori	a4,a4,64
    8124:	00e41623          	sh	a4,12(s0)
    8128:	557d                	li	a0,-1
    812a:	bf15                	j	805e <__sflush_r+0x28>
    812c:	0105a983          	lw	s3,16(a1)
    8130:	f20986e3          	beqz	s3,805c <__sflush_r+0x26>
    8134:	0005a903          	lw	s2,0(a1)
    8138:	8b8d                	andi	a5,a5,3
    813a:	0135a023          	sw	s3,0(a1)
    813e:	41390933          	sub	s2,s2,s3
    8142:	4701                	li	a4,0
    8144:	e391                	bnez	a5,8148 <__sflush_r+0x112>
    8146:	49d8                	lw	a4,20(a1)
    8148:	c418                	sw	a4,8(s0)
    814a:	f12059e3          	blez	s2,805c <__sflush_r+0x26>
    814e:	541c                	lw	a5,40(s0)
    8150:	500c                	lw	a1,32(s0)
    8152:	86ca                	mv	a3,s2
    8154:	864e                	mv	a2,s3
    8156:	8526                	mv	a0,s1
    8158:	9782                	jalr	a5
    815a:	00a04963          	bgtz	a0,816c <__sflush_r+0x136>
    815e:	00c45783          	lhu	a5,12(s0)
    8162:	0407e793          	ori	a5,a5,64
    8166:	00f41623          	sh	a5,12(s0)
    816a:	bf7d                	j	8128 <__sflush_r+0xf2>
    816c:	99aa                	add	s3,s3,a0
    816e:	40a90933          	sub	s2,s2,a0
    8172:	bfe1                	j	814a <__sflush_r+0x114>

00008174 <_fflush_r>:
_fflush_r():
    8174:	499c                	lw	a5,16(a1)
    8176:	c3a5                	beqz	a5,81d6 <_fflush_r+0x62>
    8178:	1101                	addi	sp,sp,-32
    817a:	cc22                	sw	s0,24(sp)
    817c:	ce06                	sw	ra,28(sp)
    817e:	842a                	mv	s0,a0
    8180:	c511                	beqz	a0,818c <_fflush_r+0x18>
    8182:	4d1c                	lw	a5,24(a0)
    8184:	e781                	bnez	a5,818c <_fflush_r+0x18>
    8186:	c62e                	sw	a1,12(sp)
    8188:	2239                	jal	8296 <__sinit>
    818a:	45b2                	lw	a1,12(sp)
    818c:	00002797          	auipc	a5,0x2
    8190:	08c78793          	addi	a5,a5,140 # a218 <__sf_fake_stdin>
    8194:	00f59c63          	bne	a1,a5,81ac <_fflush_r+0x38>
    8198:	404c                	lw	a1,4(s0)
    819a:	00c59783          	lh	a5,12(a1)
    819e:	c79d                	beqz	a5,81cc <_fflush_r+0x58>
    81a0:	8522                	mv	a0,s0
    81a2:	4462                	lw	s0,24(sp)
    81a4:	40f2                	lw	ra,28(sp)
    81a6:	6105                	addi	sp,sp,32
    81a8:	e8fff06f          	j	8036 <__sflush_r>
    81ac:	00002797          	auipc	a5,0x2
    81b0:	08c78793          	addi	a5,a5,140 # a238 <__sf_fake_stdout>
    81b4:	00f59463          	bne	a1,a5,81bc <_fflush_r+0x48>
    81b8:	440c                	lw	a1,8(s0)
    81ba:	b7c5                	j	819a <_fflush_r+0x26>
    81bc:	00002797          	auipc	a5,0x2
    81c0:	03c78793          	addi	a5,a5,60 # a1f8 <__sf_fake_stderr>
    81c4:	fcf59be3          	bne	a1,a5,819a <_fflush_r+0x26>
    81c8:	444c                	lw	a1,12(s0)
    81ca:	bfc1                	j	819a <_fflush_r+0x26>
    81cc:	40f2                	lw	ra,28(sp)
    81ce:	4462                	lw	s0,24(sp)
    81d0:	4501                	li	a0,0
    81d2:	6105                	addi	sp,sp,32
    81d4:	8082                	ret
    81d6:	4501                	li	a0,0
    81d8:	8082                	ret

000081da <std>:
std():
    81da:	1141                	addi	sp,sp,-16
    81dc:	c422                	sw	s0,8(sp)
    81de:	c606                	sw	ra,12(sp)
    81e0:	842a                	mv	s0,a0
    81e2:	00b51623          	sh	a1,12(a0)
    81e6:	00c51723          	sh	a2,14(a0)
    81ea:	00052023          	sw	zero,0(a0)
    81ee:	00052223          	sw	zero,4(a0)
    81f2:	00052423          	sw	zero,8(a0)
    81f6:	06052223          	sw	zero,100(a0)
    81fa:	00052823          	sw	zero,16(a0)
    81fe:	00052a23          	sw	zero,20(a0)
    8202:	00052c23          	sw	zero,24(a0)
    8206:	4621                	li	a2,8
    8208:	4581                	li	a1,0
    820a:	05c50513          	addi	a0,a0,92
    820e:	806f80ef          	jal	ra,214 <memset>
    8212:	00001797          	auipc	a5,0x1
    8216:	efc78793          	addi	a5,a5,-260 # 910e <__sread>
    821a:	d05c                	sw	a5,36(s0)
    821c:	00001797          	auipc	a5,0x1
    8220:	f2278793          	addi	a5,a5,-222 # 913e <__swrite>
    8224:	d41c                	sw	a5,40(s0)
    8226:	00001797          	auipc	a5,0x1
    822a:	f6678793          	addi	a5,a5,-154 # 918c <__sseek>
    822e:	d45c                	sw	a5,44(s0)
    8230:	00001797          	auipc	a5,0x1
    8234:	f9278793          	addi	a5,a5,-110 # 91c2 <__sclose>
    8238:	d000                	sw	s0,32(s0)
    823a:	d81c                	sw	a5,48(s0)
    823c:	40b2                	lw	ra,12(sp)
    823e:	4422                	lw	s0,8(sp)
    8240:	0141                	addi	sp,sp,16
    8242:	8082                	ret

00008244 <_cleanup_r>:
_cleanup_r():
    8244:	00000597          	auipc	a1,0x0
    8248:	f3058593          	addi	a1,a1,-208 # 8174 <_fflush_r>
    824c:	aa99                	j	83a2 <_fwalk_reent>

0000824e <__sfmoreglue>:
__sfmoreglue():
    824e:	1141                	addi	sp,sp,-16
    8250:	c226                	sw	s1,4(sp)
    8252:	06800613          	li	a2,104
    8256:	fff58493          	addi	s1,a1,-1
    825a:	02c484b3          	mul	s1,s1,a2
    825e:	c04a                	sw	s2,0(sp)
    8260:	892e                	mv	s2,a1
    8262:	c422                	sw	s0,8(sp)
    8264:	c606                	sw	ra,12(sp)
    8266:	07448593          	addi	a1,s1,116
    826a:	2a1000ef          	jal	ra,8d0a <_malloc_r>
    826e:	842a                	mv	s0,a0
    8270:	cd01                	beqz	a0,8288 <__sfmoreglue+0x3a>
    8272:	00052023          	sw	zero,0(a0)
    8276:	01252223          	sw	s2,4(a0)
    827a:	0531                	addi	a0,a0,12
    827c:	c408                	sw	a0,8(s0)
    827e:	06848613          	addi	a2,s1,104
    8282:	4581                	li	a1,0
    8284:	f91f70ef          	jal	ra,214 <memset>
    8288:	8522                	mv	a0,s0
    828a:	40b2                	lw	ra,12(sp)
    828c:	4422                	lw	s0,8(sp)
    828e:	4492                	lw	s1,4(sp)
    8290:	4902                	lw	s2,0(sp)
    8292:	0141                	addi	sp,sp,16
    8294:	8082                	ret

00008296 <__sinit>:
__sinit():
    8296:	4d1c                	lw	a5,24(a0)
    8298:	e7a5                	bnez	a5,8300 <__sinit+0x6a>
    829a:	1141                	addi	sp,sp,-16
    829c:	c606                	sw	ra,12(sp)
    829e:	c422                	sw	s0,8(sp)
    82a0:	00000797          	auipc	a5,0x0
    82a4:	fa478793          	addi	a5,a5,-92 # 8244 <_cleanup_r>
    82a8:	d51c                	sw	a5,40(a0)
    82aa:	82818793          	addi	a5,gp,-2008 # 20000248 <_global_impure_ptr>
    82ae:	439c                	lw	a5,0(a5)
    82b0:	04052423          	sw	zero,72(a0)
    82b4:	04052623          	sw	zero,76(a0)
    82b8:	04052823          	sw	zero,80(a0)
    82bc:	00f51463          	bne	a0,a5,82c4 <__sinit+0x2e>
    82c0:	4785                	li	a5,1
    82c2:	cd1c                	sw	a5,24(a0)
    82c4:	842a                	mv	s0,a0
    82c6:	2835                	jal	8302 <__sfp>
    82c8:	c048                	sw	a0,4(s0)
    82ca:	8522                	mv	a0,s0
    82cc:	281d                	jal	8302 <__sfp>
    82ce:	c408                	sw	a0,8(s0)
    82d0:	8522                	mv	a0,s0
    82d2:	2805                	jal	8302 <__sfp>
    82d4:	c448                	sw	a0,12(s0)
    82d6:	4048                	lw	a0,4(s0)
    82d8:	4601                	li	a2,0
    82da:	4591                	li	a1,4
    82dc:	effff0ef          	jal	ra,81da <std>
    82e0:	4408                	lw	a0,8(s0)
    82e2:	4605                	li	a2,1
    82e4:	45a5                	li	a1,9
    82e6:	ef5ff0ef          	jal	ra,81da <std>
    82ea:	4448                	lw	a0,12(s0)
    82ec:	4609                	li	a2,2
    82ee:	45c9                	li	a1,18
    82f0:	eebff0ef          	jal	ra,81da <std>
    82f4:	4785                	li	a5,1
    82f6:	cc1c                	sw	a5,24(s0)
    82f8:	40b2                	lw	ra,12(sp)
    82fa:	4422                	lw	s0,8(sp)
    82fc:	0141                	addi	sp,sp,16
    82fe:	8082                	ret
    8300:	8082                	ret

00008302 <__sfp>:
__sfp():
    8302:	1141                	addi	sp,sp,-16
    8304:	82818793          	addi	a5,gp,-2008 # 20000248 <_global_impure_ptr>
    8308:	c226                	sw	s1,4(sp)
    830a:	4384                	lw	s1,0(a5)
    830c:	c04a                	sw	s2,0(sp)
    830e:	c606                	sw	ra,12(sp)
    8310:	4c9c                	lw	a5,24(s1)
    8312:	c422                	sw	s0,8(sp)
    8314:	892a                	mv	s2,a0
    8316:	e781                	bnez	a5,831e <__sfp+0x1c>
    8318:	8526                	mv	a0,s1
    831a:	f7dff0ef          	jal	ra,8296 <__sinit>
    831e:	04848493          	addi	s1,s1,72
    8322:	4480                	lw	s0,8(s1)
    8324:	40dc                	lw	a5,4(s1)
    8326:	17fd                	addi	a5,a5,-1
    8328:	0007d663          	bgez	a5,8334 <__sfp+0x32>
    832c:	409c                	lw	a5,0(s1)
    832e:	cfb9                	beqz	a5,838c <__sfp+0x8a>
    8330:	4084                	lw	s1,0(s1)
    8332:	bfc5                	j	8322 <__sfp+0x20>
    8334:	00c41703          	lh	a4,12(s0)
    8338:	e739                	bnez	a4,8386 <__sfp+0x84>
    833a:	77c1                	lui	a5,0xffff0
    833c:	0785                	addi	a5,a5,1
    833e:	06042223          	sw	zero,100(s0)
    8342:	00042023          	sw	zero,0(s0)
    8346:	00042223          	sw	zero,4(s0)
    834a:	00042423          	sw	zero,8(s0)
    834e:	c45c                	sw	a5,12(s0)
    8350:	00042823          	sw	zero,16(s0)
    8354:	00042a23          	sw	zero,20(s0)
    8358:	00042c23          	sw	zero,24(s0)
    835c:	4621                	li	a2,8
    835e:	4581                	li	a1,0
    8360:	05c40513          	addi	a0,s0,92
    8364:	eb1f70ef          	jal	ra,214 <memset>
    8368:	02042a23          	sw	zero,52(s0)
    836c:	02042c23          	sw	zero,56(s0)
    8370:	04042423          	sw	zero,72(s0)
    8374:	04042623          	sw	zero,76(s0)
    8378:	8522                	mv	a0,s0
    837a:	40b2                	lw	ra,12(sp)
    837c:	4422                	lw	s0,8(sp)
    837e:	4492                	lw	s1,4(sp)
    8380:	4902                	lw	s2,0(sp)
    8382:	0141                	addi	sp,sp,16
    8384:	8082                	ret
    8386:	06840413          	addi	s0,s0,104
    838a:	bf71                	j	8326 <__sfp+0x24>
    838c:	4591                	li	a1,4
    838e:	854a                	mv	a0,s2
    8390:	ebfff0ef          	jal	ra,824e <__sfmoreglue>
    8394:	c088                	sw	a0,0(s1)
    8396:	fd49                	bnez	a0,8330 <__sfp+0x2e>
    8398:	47b1                	li	a5,12
    839a:	00f92023          	sw	a5,0(s2)
    839e:	4401                	li	s0,0
    83a0:	bfe1                	j	8378 <__sfp+0x76>

000083a2 <_fwalk_reent>:
_fwalk_reent():
    83a2:	7179                	addi	sp,sp,-48
    83a4:	d422                	sw	s0,40(sp)
    83a6:	d04a                	sw	s2,32(sp)
    83a8:	cc52                	sw	s4,24(sp)
    83aa:	ca56                	sw	s5,20(sp)
    83ac:	c85a                	sw	s6,16(sp)
    83ae:	c65e                	sw	s7,12(sp)
    83b0:	d606                	sw	ra,44(sp)
    83b2:	d226                	sw	s1,36(sp)
    83b4:	ce4e                	sw	s3,28(sp)
    83b6:	8a2a                	mv	s4,a0
    83b8:	8aae                	mv	s5,a1
    83ba:	04850413          	addi	s0,a0,72
    83be:	4901                	li	s2,0
    83c0:	4b05                	li	s6,1
    83c2:	5bfd                	li	s7,-1
    83c4:	ec09                	bnez	s0,83de <_fwalk_reent+0x3c>
    83c6:	50b2                	lw	ra,44(sp)
    83c8:	5422                	lw	s0,40(sp)
    83ca:	854a                	mv	a0,s2
    83cc:	5492                	lw	s1,36(sp)
    83ce:	5902                	lw	s2,32(sp)
    83d0:	49f2                	lw	s3,28(sp)
    83d2:	4a62                	lw	s4,24(sp)
    83d4:	4ad2                	lw	s5,20(sp)
    83d6:	4b42                	lw	s6,16(sp)
    83d8:	4bb2                	lw	s7,12(sp)
    83da:	6145                	addi	sp,sp,48
    83dc:	8082                	ret
    83de:	4404                	lw	s1,8(s0)
    83e0:	00442983          	lw	s3,4(s0)
    83e4:	19fd                	addi	s3,s3,-1
    83e6:	0009d463          	bgez	s3,83ee <_fwalk_reent+0x4c>
    83ea:	4000                	lw	s0,0(s0)
    83ec:	bfe1                	j	83c4 <_fwalk_reent+0x22>
    83ee:	00c4d783          	lhu	a5,12(s1)
    83f2:	00fb7b63          	bgeu	s6,a5,8408 <_fwalk_reent+0x66>
    83f6:	00e49783          	lh	a5,14(s1)
    83fa:	01778763          	beq	a5,s7,8408 <_fwalk_reent+0x66>
    83fe:	85a6                	mv	a1,s1
    8400:	8552                	mv	a0,s4
    8402:	9a82                	jalr	s5
    8404:	00a96933          	or	s2,s2,a0
    8408:	06848493          	addi	s1,s1,104
    840c:	bfe1                	j	83e4 <_fwalk_reent+0x42>

0000840e <_localeconv_r>:
_localeconv_r():
    840e:	81818793          	addi	a5,gp,-2024 # 20000238 <_impure_ptr>
    8412:	439c                	lw	a5,0(a5)
    8414:	5388                	lw	a0,32(a5)
    8416:	e509                	bnez	a0,8420 <_localeconv_r+0x12>
    8418:	1fff8517          	auipc	a0,0x1fff8
    841c:	c9c50513          	addi	a0,a0,-868 # 200000b4 <__global_locale>
    8420:	0f050513          	addi	a0,a0,240
    8424:	8082                	ret

00008426 <__swhatbuf_r>:
__swhatbuf_r():
    8426:	7119                	addi	sp,sp,-128
    8428:	daa6                	sw	s1,116(sp)
    842a:	84ae                	mv	s1,a1
    842c:	00e59583          	lh	a1,14(a1)
    8430:	dca2                	sw	s0,120(sp)
    8432:	de86                	sw	ra,124(sp)
    8434:	8432                	mv	s0,a2
    8436:	0005dc63          	bgez	a1,844e <__swhatbuf_r+0x28>
    843a:	00c4d783          	lhu	a5,12(s1)
    843e:	0006a023          	sw	zero,0(a3)
    8442:	0807f793          	andi	a5,a5,128
    8446:	e785                	bnez	a5,846e <__swhatbuf_r+0x48>
    8448:	40000793          	li	a5,1024
    844c:	a01d                	j	8472 <__swhatbuf_r+0x4c>
    844e:	0830                	addi	a2,sp,24
    8450:	c636                	sw	a3,12(sp)
    8452:	5cd000ef          	jal	ra,921e <_fstat_r>
    8456:	46b2                	lw	a3,12(sp)
    8458:	fe0541e3          	bltz	a0,843a <__swhatbuf_r+0x14>
    845c:	4772                	lw	a4,28(sp)
    845e:	67bd                	lui	a5,0xf
    8460:	8ff9                	and	a5,a5,a4
    8462:	7779                	lui	a4,0xffffe
    8464:	97ba                	add	a5,a5,a4
    8466:	0017b793          	seqz	a5,a5
    846a:	c29c                	sw	a5,0(a3)
    846c:	bff1                	j	8448 <__swhatbuf_r+0x22>
    846e:	04000793          	li	a5,64
    8472:	c01c                	sw	a5,0(s0)
    8474:	50f6                	lw	ra,124(sp)
    8476:	5466                	lw	s0,120(sp)
    8478:	54d6                	lw	s1,116(sp)
    847a:	4501                	li	a0,0
    847c:	6109                	addi	sp,sp,128
    847e:	8082                	ret

00008480 <__smakebuf_r>:
__smakebuf_r():
    8480:	00c5d783          	lhu	a5,12(a1)
    8484:	1101                	addi	sp,sp,-32
    8486:	cc22                	sw	s0,24(sp)
    8488:	ce06                	sw	ra,28(sp)
    848a:	ca26                	sw	s1,20(sp)
    848c:	c84a                	sw	s2,16(sp)
    848e:	8b89                	andi	a5,a5,2
    8490:	842e                	mv	s0,a1
    8492:	cf89                	beqz	a5,84ac <__smakebuf_r+0x2c>
    8494:	04740793          	addi	a5,s0,71
    8498:	c01c                	sw	a5,0(s0)
    849a:	c81c                	sw	a5,16(s0)
    849c:	4785                	li	a5,1
    849e:	c85c                	sw	a5,20(s0)
    84a0:	40f2                	lw	ra,28(sp)
    84a2:	4462                	lw	s0,24(sp)
    84a4:	44d2                	lw	s1,20(sp)
    84a6:	4942                	lw	s2,16(sp)
    84a8:	6105                	addi	sp,sp,32
    84aa:	8082                	ret
    84ac:	0074                	addi	a3,sp,12
    84ae:	0030                	addi	a2,sp,8
    84b0:	84aa                	mv	s1,a0
    84b2:	f75ff0ef          	jal	ra,8426 <__swhatbuf_r>
    84b6:	45a2                	lw	a1,8(sp)
    84b8:	892a                	mv	s2,a0
    84ba:	8526                	mv	a0,s1
    84bc:	04f000ef          	jal	ra,8d0a <_malloc_r>
    84c0:	ed01                	bnez	a0,84d8 <__smakebuf_r+0x58>
    84c2:	00c41783          	lh	a5,12(s0)
    84c6:	2007f713          	andi	a4,a5,512
    84ca:	fb79                	bnez	a4,84a0 <__smakebuf_r+0x20>
    84cc:	9bf1                	andi	a5,a5,-4
    84ce:	0027e793          	ori	a5,a5,2
    84d2:	00f41623          	sh	a5,12(s0)
    84d6:	bf7d                	j	8494 <__smakebuf_r+0x14>
    84d8:	00000797          	auipc	a5,0x0
    84dc:	d6c78793          	addi	a5,a5,-660 # 8244 <_cleanup_r>
    84e0:	d49c                	sw	a5,40(s1)
    84e2:	00c45783          	lhu	a5,12(s0)
    84e6:	c008                	sw	a0,0(s0)
    84e8:	c808                	sw	a0,16(s0)
    84ea:	0807e793          	ori	a5,a5,128
    84ee:	00f41623          	sh	a5,12(s0)
    84f2:	47a2                	lw	a5,8(sp)
    84f4:	c85c                	sw	a5,20(s0)
    84f6:	47b2                	lw	a5,12(sp)
    84f8:	cf91                	beqz	a5,8514 <__smakebuf_r+0x94>
    84fa:	00e41583          	lh	a1,14(s0)
    84fe:	8526                	mv	a0,s1
    8500:	549000ef          	jal	ra,9248 <_isatty_r>
    8504:	c901                	beqz	a0,8514 <__smakebuf_r+0x94>
    8506:	00c45783          	lhu	a5,12(s0)
    850a:	9bf1                	andi	a5,a5,-4
    850c:	0017e793          	ori	a5,a5,1
    8510:	00f41623          	sh	a5,12(s0)
    8514:	00c45783          	lhu	a5,12(s0)
    8518:	00f96933          	or	s2,s2,a5
    851c:	01241623          	sh	s2,12(s0)
    8520:	b741                	j	84a0 <__smakebuf_r+0x20>

00008522 <malloc>:
malloc():
    8522:	81818793          	addi	a5,gp,-2024 # 20000238 <_impure_ptr>
    8526:	85aa                	mv	a1,a0
    8528:	4388                	lw	a0,0(a5)
    852a:	7e00006f          	j	8d0a <_malloc_r>

0000852e <memchr>:
memchr():
    852e:	0ff5f593          	andi	a1,a1,255
    8532:	962a                	add	a2,a2,a0
    8534:	00c51463          	bne	a0,a2,853c <memchr+0xe>
    8538:	4501                	li	a0,0
    853a:	8082                	ret
    853c:	00054783          	lbu	a5,0(a0)
    8540:	feb78de3          	beq	a5,a1,853a <memchr+0xc>
    8544:	0505                	addi	a0,a0,1
    8546:	b7fd                	j	8534 <memchr+0x6>

00008548 <_Balloc>:
_Balloc():
    8548:	515c                	lw	a5,36(a0)
    854a:	1141                	addi	sp,sp,-16
    854c:	c422                	sw	s0,8(sp)
    854e:	c04a                	sw	s2,0(sp)
    8550:	c606                	sw	ra,12(sp)
    8552:	c226                	sw	s1,4(sp)
    8554:	842a                	mv	s0,a0
    8556:	892e                	mv	s2,a1
    8558:	ef89                	bnez	a5,8572 <_Balloc+0x2a>
    855a:	4541                	li	a0,16
    855c:	fc7ff0ef          	jal	ra,8522 <malloc>
    8560:	d048                	sw	a0,36(s0)
    8562:	00052223          	sw	zero,4(a0)
    8566:	00052423          	sw	zero,8(a0)
    856a:	00052023          	sw	zero,0(a0)
    856e:	00052623          	sw	zero,12(a0)
    8572:	5044                	lw	s1,36(s0)
    8574:	44dc                	lw	a5,12(s1)
    8576:	c795                	beqz	a5,85a2 <_Balloc+0x5a>
    8578:	5058                	lw	a4,36(s0)
    857a:	00291793          	slli	a5,s2,0x2
    857e:	4758                	lw	a4,12(a4)
    8580:	97ba                	add	a5,a5,a4
    8582:	4388                	lw	a0,0(a5)
    8584:	ed1d                	bnez	a0,85c2 <_Balloc+0x7a>
    8586:	4485                	li	s1,1
    8588:	012494b3          	sll	s1,s1,s2
    858c:	00548613          	addi	a2,s1,5
    8590:	060a                	slli	a2,a2,0x2
    8592:	4585                	li	a1,1
    8594:	8522                	mv	a0,s0
    8596:	256d                	jal	8c40 <_calloc_r>
    8598:	cd11                	beqz	a0,85b4 <_Balloc+0x6c>
    859a:	01252223          	sw	s2,4(a0)
    859e:	c504                	sw	s1,8(a0)
    85a0:	a01d                	j	85c6 <_Balloc+0x7e>
    85a2:	02100613          	li	a2,33
    85a6:	4591                	li	a1,4
    85a8:	8522                	mv	a0,s0
    85aa:	2d59                	jal	8c40 <_calloc_r>
    85ac:	505c                	lw	a5,36(s0)
    85ae:	c4c8                	sw	a0,12(s1)
    85b0:	47dc                	lw	a5,12(a5)
    85b2:	f3f9                	bnez	a5,8578 <_Balloc+0x30>
    85b4:	4501                	li	a0,0
    85b6:	40b2                	lw	ra,12(sp)
    85b8:	4422                	lw	s0,8(sp)
    85ba:	4492                	lw	s1,4(sp)
    85bc:	4902                	lw	s2,0(sp)
    85be:	0141                	addi	sp,sp,16
    85c0:	8082                	ret
    85c2:	4118                	lw	a4,0(a0)
    85c4:	c398                	sw	a4,0(a5)
    85c6:	00052823          	sw	zero,16(a0)
    85ca:	00052623          	sw	zero,12(a0)
    85ce:	b7e5                	j	85b6 <_Balloc+0x6e>

000085d0 <_Bfree>:
_Bfree():
    85d0:	515c                	lw	a5,36(a0)
    85d2:	1101                	addi	sp,sp,-32
    85d4:	cc22                	sw	s0,24(sp)
    85d6:	ce06                	sw	ra,28(sp)
    85d8:	842a                	mv	s0,a0
    85da:	ef99                	bnez	a5,85f8 <_Bfree+0x28>
    85dc:	4541                	li	a0,16
    85de:	c62e                	sw	a1,12(sp)
    85e0:	f43ff0ef          	jal	ra,8522 <malloc>
    85e4:	45b2                	lw	a1,12(sp)
    85e6:	d048                	sw	a0,36(s0)
    85e8:	00052223          	sw	zero,4(a0)
    85ec:	00052423          	sw	zero,8(a0)
    85f0:	00052023          	sw	zero,0(a0)
    85f4:	00052623          	sw	zero,12(a0)
    85f8:	c991                	beqz	a1,860c <_Bfree+0x3c>
    85fa:	5054                	lw	a3,36(s0)
    85fc:	41dc                	lw	a5,4(a1)
    85fe:	00279713          	slli	a4,a5,0x2
    8602:	46dc                	lw	a5,12(a3)
    8604:	97ba                	add	a5,a5,a4
    8606:	4398                	lw	a4,0(a5)
    8608:	c198                	sw	a4,0(a1)
    860a:	c38c                	sw	a1,0(a5)
    860c:	40f2                	lw	ra,28(sp)
    860e:	4462                	lw	s0,24(sp)
    8610:	6105                	addi	sp,sp,32
    8612:	8082                	ret

00008614 <__multadd>:
__multadd():
    8614:	7179                	addi	sp,sp,-48
    8616:	ce4e                	sw	s3,28(sp)
    8618:	89aa                	mv	s3,a0
    861a:	6541                	lui	a0,0x10
    861c:	d422                	sw	s0,40(sp)
    861e:	d226                	sw	s1,36(sp)
    8620:	842e                	mv	s0,a1
    8622:	4984                	lw	s1,16(a1)
    8624:	d606                	sw	ra,44(sp)
    8626:	d04a                	sw	s2,32(sp)
    8628:	05d1                	addi	a1,a1,20
    862a:	4801                	li	a6,0
    862c:	157d                	addi	a0,a0,-1
    862e:	419c                	lw	a5,0(a1)
    8630:	0591                	addi	a1,a1,4
    8632:	0805                	addi	a6,a6,1
    8634:	00a7f733          	and	a4,a5,a0
    8638:	02c70733          	mul	a4,a4,a2
    863c:	83c1                	srli	a5,a5,0x10
    863e:	02c787b3          	mul	a5,a5,a2
    8642:	9736                	add	a4,a4,a3
    8644:	01075693          	srli	a3,a4,0x10
    8648:	8f69                	and	a4,a4,a0
    864a:	97b6                	add	a5,a5,a3
    864c:	0107d693          	srli	a3,a5,0x10
    8650:	07c2                	slli	a5,a5,0x10
    8652:	97ba                	add	a5,a5,a4
    8654:	fef5ae23          	sw	a5,-4(a1)
    8658:	fc984be3          	blt	a6,s1,862e <__multadd+0x1a>
    865c:	c2a1                	beqz	a3,869c <__multadd+0x88>
    865e:	441c                	lw	a5,8(s0)
    8660:	02f4c763          	blt	s1,a5,868e <__multadd+0x7a>
    8664:	404c                	lw	a1,4(s0)
    8666:	854e                	mv	a0,s3
    8668:	c636                	sw	a3,12(sp)
    866a:	0585                	addi	a1,a1,1
    866c:	eddff0ef          	jal	ra,8548 <_Balloc>
    8670:	4810                	lw	a2,16(s0)
    8672:	00c40593          	addi	a1,s0,12
    8676:	892a                	mv	s2,a0
    8678:	0609                	addi	a2,a2,2
    867a:	060a                	slli	a2,a2,0x2
    867c:	0531                	addi	a0,a0,12
    867e:	f89fd0ef          	jal	ra,6606 <memcpy>
    8682:	85a2                	mv	a1,s0
    8684:	854e                	mv	a0,s3
    8686:	f4bff0ef          	jal	ra,85d0 <_Bfree>
    868a:	46b2                	lw	a3,12(sp)
    868c:	844a                	mv	s0,s2
    868e:	00448793          	addi	a5,s1,4
    8692:	078a                	slli	a5,a5,0x2
    8694:	97a2                	add	a5,a5,s0
    8696:	c3d4                	sw	a3,4(a5)
    8698:	0485                	addi	s1,s1,1
    869a:	c804                	sw	s1,16(s0)
    869c:	8522                	mv	a0,s0
    869e:	50b2                	lw	ra,44(sp)
    86a0:	5422                	lw	s0,40(sp)
    86a2:	5492                	lw	s1,36(sp)
    86a4:	5902                	lw	s2,32(sp)
    86a6:	49f2                	lw	s3,28(sp)
    86a8:	6145                	addi	sp,sp,48
    86aa:	8082                	ret

000086ac <__hi0bits>:
__hi0bits():
    86ac:	7741                	lui	a4,0xffff0
    86ae:	8f69                	and	a4,a4,a0
    86b0:	87aa                	mv	a5,a0
    86b2:	4501                	li	a0,0
    86b4:	e319                	bnez	a4,86ba <__hi0bits+0xe>
    86b6:	07c2                	slli	a5,a5,0x10
    86b8:	4541                	li	a0,16
    86ba:	ff000737          	lui	a4,0xff000
    86be:	8f7d                	and	a4,a4,a5
    86c0:	e319                	bnez	a4,86c6 <__hi0bits+0x1a>
    86c2:	0521                	addi	a0,a0,8
    86c4:	07a2                	slli	a5,a5,0x8
    86c6:	f0000737          	lui	a4,0xf0000
    86ca:	8f7d                	and	a4,a4,a5
    86cc:	e319                	bnez	a4,86d2 <__hi0bits+0x26>
    86ce:	0511                	addi	a0,a0,4
    86d0:	0792                	slli	a5,a5,0x4
    86d2:	c0000737          	lui	a4,0xc0000
    86d6:	8f7d                	and	a4,a4,a5
    86d8:	e319                	bnez	a4,86de <__hi0bits+0x32>
    86da:	0509                	addi	a0,a0,2
    86dc:	078a                	slli	a5,a5,0x2
    86de:	0007c963          	bltz	a5,86f0 <__hi0bits+0x44>
    86e2:	00179713          	slli	a4,a5,0x1
    86e6:	0505                	addi	a0,a0,1
    86e8:	00074463          	bltz	a4,86f0 <__hi0bits+0x44>
    86ec:	02000513          	li	a0,32
    86f0:	8082                	ret

000086f2 <__lo0bits>:
__lo0bits():
    86f2:	411c                	lw	a5,0(a0)
    86f4:	0077f713          	andi	a4,a5,7
    86f8:	c30d                	beqz	a4,871a <__lo0bits+0x28>
    86fa:	0017f693          	andi	a3,a5,1
    86fe:	4701                	li	a4,0
    8700:	e699                	bnez	a3,870e <__lo0bits+0x1c>
    8702:	0027f713          	andi	a4,a5,2
    8706:	c711                	beqz	a4,8712 <__lo0bits+0x20>
    8708:	8385                	srli	a5,a5,0x1
    870a:	c11c                	sw	a5,0(a0)
    870c:	4705                	li	a4,1
    870e:	853a                	mv	a0,a4
    8710:	8082                	ret
    8712:	8389                	srli	a5,a5,0x2
    8714:	c11c                	sw	a5,0(a0)
    8716:	4709                	li	a4,2
    8718:	bfdd                	j	870e <__lo0bits+0x1c>
    871a:	01079693          	slli	a3,a5,0x10
    871e:	82c1                	srli	a3,a3,0x10
    8720:	4701                	li	a4,0
    8722:	e299                	bnez	a3,8728 <__lo0bits+0x36>
    8724:	83c1                	srli	a5,a5,0x10
    8726:	4741                	li	a4,16
    8728:	0ff7f693          	andi	a3,a5,255
    872c:	e299                	bnez	a3,8732 <__lo0bits+0x40>
    872e:	0721                	addi	a4,a4,8
    8730:	83a1                	srli	a5,a5,0x8
    8732:	00f7f693          	andi	a3,a5,15
    8736:	e299                	bnez	a3,873c <__lo0bits+0x4a>
    8738:	0711                	addi	a4,a4,4
    873a:	8391                	srli	a5,a5,0x4
    873c:	0037f693          	andi	a3,a5,3
    8740:	e299                	bnez	a3,8746 <__lo0bits+0x54>
    8742:	0709                	addi	a4,a4,2
    8744:	8389                	srli	a5,a5,0x2
    8746:	0017f693          	andi	a3,a5,1
    874a:	e681                	bnez	a3,8752 <__lo0bits+0x60>
    874c:	8385                	srli	a5,a5,0x1
    874e:	0705                	addi	a4,a4,1
    8750:	c399                	beqz	a5,8756 <__lo0bits+0x64>
    8752:	c11c                	sw	a5,0(a0)
    8754:	bf6d                	j	870e <__lo0bits+0x1c>
    8756:	02000713          	li	a4,32
    875a:	bf55                	j	870e <__lo0bits+0x1c>

0000875c <__i2b>:
__i2b():
    875c:	1141                	addi	sp,sp,-16
    875e:	c422                	sw	s0,8(sp)
    8760:	842e                	mv	s0,a1
    8762:	4585                	li	a1,1
    8764:	c606                	sw	ra,12(sp)
    8766:	de3ff0ef          	jal	ra,8548 <_Balloc>
    876a:	c940                	sw	s0,20(a0)
    876c:	40b2                	lw	ra,12(sp)
    876e:	4422                	lw	s0,8(sp)
    8770:	4705                	li	a4,1
    8772:	c918                	sw	a4,16(a0)
    8774:	0141                	addi	sp,sp,16
    8776:	8082                	ret

00008778 <__multiply>:
__multiply():
    8778:	4998                	lw	a4,16(a1)
    877a:	4a1c                	lw	a5,16(a2)
    877c:	7179                	addi	sp,sp,-48
    877e:	d226                	sw	s1,36(sp)
    8780:	d606                	sw	ra,44(sp)
    8782:	d422                	sw	s0,40(sp)
    8784:	d04a                	sw	s2,32(sp)
    8786:	ce4e                	sw	s3,28(sp)
    8788:	84ae                	mv	s1,a1
    878a:	00f75463          	bge	a4,a5,8792 <__multiply+0x1a>
    878e:	84b2                	mv	s1,a2
    8790:	862e                	mv	a2,a1
    8792:	0104a983          	lw	s3,16(s1)
    8796:	01062903          	lw	s2,16(a2) # 10010 <_data_lma+0x5b94>
    879a:	449c                	lw	a5,8(s1)
    879c:	40cc                	lw	a1,4(s1)
    879e:	01298433          	add	s0,s3,s2
    87a2:	0087d363          	bge	a5,s0,87a8 <__multiply+0x30>
    87a6:	0585                	addi	a1,a1,1
    87a8:	c632                	sw	a2,12(sp)
    87aa:	d9fff0ef          	jal	ra,8548 <_Balloc>
    87ae:	4632                	lw	a2,12(sp)
    87b0:	01450813          	addi	a6,a0,20 # 10014 <_data_lma+0x5b98>
    87b4:	00241313          	slli	t1,s0,0x2
    87b8:	9342                	add	t1,t1,a6
    87ba:	87c2                	mv	a5,a6
    87bc:	0267ed63          	bltu	a5,t1,87f6 <__multiply+0x7e>
    87c0:	01448593          	addi	a1,s1,20
    87c4:	00299893          	slli	a7,s3,0x2
    87c8:	0651                	addi	a2,a2,20
    87ca:	00291e13          	slli	t3,s2,0x2
    87ce:	66c1                	lui	a3,0x10
    87d0:	98ae                	add	a7,a7,a1
    87d2:	9e32                	add	t3,t3,a2
    87d4:	16fd                	addi	a3,a3,-1
    87d6:	03c66463          	bltu	a2,t3,87fe <__multiply+0x86>
    87da:	00805663          	blez	s0,87e6 <__multiply+0x6e>
    87de:	1371                	addi	t1,t1,-4
    87e0:	00032783          	lw	a5,0(t1)
    87e4:	cbf1                	beqz	a5,88b8 <__multiply+0x140>
    87e6:	c900                	sw	s0,16(a0)
    87e8:	50b2                	lw	ra,44(sp)
    87ea:	5422                	lw	s0,40(sp)
    87ec:	5492                	lw	s1,36(sp)
    87ee:	5902                	lw	s2,32(sp)
    87f0:	49f2                	lw	s3,28(sp)
    87f2:	6145                	addi	sp,sp,48
    87f4:	8082                	ret
    87f6:	0007a023          	sw	zero,0(a5)
    87fa:	0791                	addi	a5,a5,4
    87fc:	b7c1                	j	87bc <__multiply+0x44>
    87fe:	00062f83          	lw	t6,0(a2)
    8802:	00dfffb3          	and	t6,t6,a3
    8806:	040f8a63          	beqz	t6,885a <__multiply+0xe2>
    880a:	8f42                	mv	t5,a6
    880c:	82ae                	mv	t0,a1
    880e:	4481                	li	s1,0
    8810:	0002a703          	lw	a4,0(t0)
    8814:	000f2383          	lw	t2,0(t5)
    8818:	0f11                	addi	t5,t5,4
    881a:	00d77eb3          	and	t4,a4,a3
    881e:	03fe8eb3          	mul	t4,t4,t6
    8822:	00d3f7b3          	and	a5,t2,a3
    8826:	0103d393          	srli	t2,t2,0x10
    882a:	0291                	addi	t0,t0,4
    882c:	9ebe                	add	t4,t4,a5
    882e:	01075793          	srli	a5,a4,0x10
    8832:	03f787b3          	mul	a5,a5,t6
    8836:	9ea6                	add	t4,t4,s1
    8838:	010ed713          	srli	a4,t4,0x10
    883c:	00defeb3          	and	t4,t4,a3
    8840:	979e                	add	a5,a5,t2
    8842:	97ba                	add	a5,a5,a4
    8844:	0107d493          	srli	s1,a5,0x10
    8848:	07c2                	slli	a5,a5,0x10
    884a:	01d7e7b3          	or	a5,a5,t4
    884e:	feff2e23          	sw	a5,-4(t5)
    8852:	fb12efe3          	bltu	t0,a7,8810 <__multiply+0x98>
    8856:	009f2023          	sw	s1,0(t5)
    885a:	00265283          	lhu	t0,2(a2)
    885e:	04028a63          	beqz	t0,88b2 <__multiply+0x13a>
    8862:	00082783          	lw	a5,0(a6)
    8866:	8ec2                	mv	t4,a6
    8868:	8f2e                	mv	t5,a1
    886a:	4f81                	li	t6,0
    886c:	000f2703          	lw	a4,0(t5)
    8870:	002ed383          	lhu	t2,2(t4)
    8874:	8ff5                	and	a5,a5,a3
    8876:	8f75                	and	a4,a4,a3
    8878:	02570733          	mul	a4,a4,t0
    887c:	0e91                	addi	t4,t4,4
    887e:	0f11                	addi	t5,t5,4
    8880:	971e                	add	a4,a4,t2
    8882:	977e                	add	a4,a4,t6
    8884:	01071f93          	slli	t6,a4,0x10
    8888:	00ffe7b3          	or	a5,t6,a5
    888c:	fefeae23          	sw	a5,-4(t4)
    8890:	ffef5783          	lhu	a5,-2(t5)
    8894:	000eaf83          	lw	t6,0(t4)
    8898:	8341                	srli	a4,a4,0x10
    889a:	025787b3          	mul	a5,a5,t0
    889e:	00dfffb3          	and	t6,t6,a3
    88a2:	97fe                	add	a5,a5,t6
    88a4:	97ba                	add	a5,a5,a4
    88a6:	0107df93          	srli	t6,a5,0x10
    88aa:	fd1f61e3          	bltu	t5,a7,886c <__multiply+0xf4>
    88ae:	00fea023          	sw	a5,0(t4)
    88b2:	0611                	addi	a2,a2,4
    88b4:	0811                	addi	a6,a6,4
    88b6:	b705                	j	87d6 <__multiply+0x5e>
    88b8:	147d                	addi	s0,s0,-1
    88ba:	b705                	j	87da <__multiply+0x62>

000088bc <__pow5mult>:
__pow5mult():
    88bc:	1101                	addi	sp,sp,-32
    88be:	ca26                	sw	s1,20(sp)
    88c0:	c84a                	sw	s2,16(sp)
    88c2:	c64e                	sw	s3,12(sp)
    88c4:	ce06                	sw	ra,28(sp)
    88c6:	cc22                	sw	s0,24(sp)
    88c8:	c452                	sw	s4,8(sp)
    88ca:	00367793          	andi	a5,a2,3
    88ce:	892a                	mv	s2,a0
    88d0:	84b2                	mv	s1,a2
    88d2:	89ae                	mv	s3,a1
    88d4:	cf89                	beqz	a5,88ee <__pow5mult+0x32>
    88d6:	17fd                	addi	a5,a5,-1
    88d8:	00002717          	auipc	a4,0x2
    88dc:	a7070713          	addi	a4,a4,-1424 # a348 <p05.3319>
    88e0:	078a                	slli	a5,a5,0x2
    88e2:	97ba                	add	a5,a5,a4
    88e4:	4390                	lw	a2,0(a5)
    88e6:	4681                	li	a3,0
    88e8:	d2dff0ef          	jal	ra,8614 <__multadd>
    88ec:	89aa                	mv	s3,a0
    88ee:	8489                	srai	s1,s1,0x2
    88f0:	cca5                	beqz	s1,8968 <__pow5mult+0xac>
    88f2:	02492783          	lw	a5,36(s2)
    88f6:	ef91                	bnez	a5,8912 <__pow5mult+0x56>
    88f8:	4541                	li	a0,16
    88fa:	c29ff0ef          	jal	ra,8522 <malloc>
    88fe:	02a92223          	sw	a0,36(s2)
    8902:	00052223          	sw	zero,4(a0)
    8906:	00052423          	sw	zero,8(a0)
    890a:	00052023          	sw	zero,0(a0)
    890e:	00052623          	sw	zero,12(a0)
    8912:	02492a03          	lw	s4,36(s2)
    8916:	008a2403          	lw	s0,8(s4)
    891a:	e819                	bnez	s0,8930 <__pow5mult+0x74>
    891c:	27100593          	li	a1,625
    8920:	854a                	mv	a0,s2
    8922:	e3bff0ef          	jal	ra,875c <__i2b>
    8926:	00aa2423          	sw	a0,8(s4)
    892a:	842a                	mv	s0,a0
    892c:	00052023          	sw	zero,0(a0)
    8930:	0014f793          	andi	a5,s1,1
    8934:	cf81                	beqz	a5,894c <__pow5mult+0x90>
    8936:	85ce                	mv	a1,s3
    8938:	8622                	mv	a2,s0
    893a:	854a                	mv	a0,s2
    893c:	e3dff0ef          	jal	ra,8778 <__multiply>
    8940:	8a2a                	mv	s4,a0
    8942:	85ce                	mv	a1,s3
    8944:	854a                	mv	a0,s2
    8946:	c8bff0ef          	jal	ra,85d0 <_Bfree>
    894a:	89d2                	mv	s3,s4
    894c:	8485                	srai	s1,s1,0x1
    894e:	cc89                	beqz	s1,8968 <__pow5mult+0xac>
    8950:	4008                	lw	a0,0(s0)
    8952:	e909                	bnez	a0,8964 <__pow5mult+0xa8>
    8954:	8622                	mv	a2,s0
    8956:	85a2                	mv	a1,s0
    8958:	854a                	mv	a0,s2
    895a:	e1fff0ef          	jal	ra,8778 <__multiply>
    895e:	c008                	sw	a0,0(s0)
    8960:	00052023          	sw	zero,0(a0)
    8964:	842a                	mv	s0,a0
    8966:	b7e9                	j	8930 <__pow5mult+0x74>
    8968:	40f2                	lw	ra,28(sp)
    896a:	4462                	lw	s0,24(sp)
    896c:	854e                	mv	a0,s3
    896e:	44d2                	lw	s1,20(sp)
    8970:	4942                	lw	s2,16(sp)
    8972:	49b2                	lw	s3,12(sp)
    8974:	4a22                	lw	s4,8(sp)
    8976:	6105                	addi	sp,sp,32
    8978:	8082                	ret

0000897a <__lshift>:
__lshift():
    897a:	7179                	addi	sp,sp,-48
    897c:	d226                	sw	s1,36(sp)
    897e:	84ae                	mv	s1,a1
    8980:	ce4e                	sw	s3,28(sp)
    8982:	0104a983          	lw	s3,16(s1)
    8986:	d422                	sw	s0,40(sp)
    8988:	41cc                	lw	a1,4(a1)
    898a:	40565413          	srai	s0,a2,0x5
    898e:	449c                	lw	a5,8(s1)
    8990:	99a2                	add	s3,s3,s0
    8992:	d04a                	sw	s2,32(sp)
    8994:	ca56                	sw	s5,20(sp)
    8996:	d606                	sw	ra,44(sp)
    8998:	cc52                	sw	s4,24(sp)
    899a:	8aaa                	mv	s5,a0
    899c:	00198913          	addi	s2,s3,1
    89a0:	0927c463          	blt	a5,s2,8a28 <__lshift+0xae>
    89a4:	8556                	mv	a0,s5
    89a6:	c632                	sw	a2,12(sp)
    89a8:	ba1ff0ef          	jal	ra,8548 <_Balloc>
    89ac:	4632                	lw	a2,12(sp)
    89ae:	01450793          	addi	a5,a0,20
    89b2:	8a2a                	mv	s4,a0
    89b4:	86be                	mv	a3,a5
    89b6:	4701                	li	a4,0
    89b8:	0691                	addi	a3,a3,4
    89ba:	06874a63          	blt	a4,s0,8a2e <__lshift+0xb4>
    89be:	00045363          	bgez	s0,89c4 <__lshift+0x4a>
    89c2:	4401                	li	s0,0
    89c4:	4894                	lw	a3,16(s1)
    89c6:	040a                	slli	s0,s0,0x2
    89c8:	00878733          	add	a4,a5,s0
    89cc:	068a                	slli	a3,a3,0x2
    89ce:	01448793          	addi	a5,s1,20
    89d2:	8a7d                	andi	a2,a2,31
    89d4:	96be                	add	a3,a3,a5
    89d6:	c225                	beqz	a2,8a36 <__lshift+0xbc>
    89d8:	02000813          	li	a6,32
    89dc:	40c80833          	sub	a6,a6,a2
    89e0:	4581                	li	a1,0
    89e2:	4388                	lw	a0,0(a5)
    89e4:	0711                	addi	a4,a4,4
    89e6:	0791                	addi	a5,a5,4
    89e8:	00c51533          	sll	a0,a0,a2
    89ec:	8dc9                	or	a1,a1,a0
    89ee:	feb72e23          	sw	a1,-4(a4)
    89f2:	ffc7a583          	lw	a1,-4(a5)
    89f6:	0105d5b3          	srl	a1,a1,a6
    89fa:	fed7e4e3          	bltu	a5,a3,89e2 <__lshift+0x68>
    89fe:	c30c                	sw	a1,0(a4)
    8a00:	c199                	beqz	a1,8a06 <__lshift+0x8c>
    8a02:	00298913          	addi	s2,s3,2
    8a06:	197d                	addi	s2,s2,-1
    8a08:	012a2823          	sw	s2,16(s4)
    8a0c:	8556                	mv	a0,s5
    8a0e:	85a6                	mv	a1,s1
    8a10:	bc1ff0ef          	jal	ra,85d0 <_Bfree>
    8a14:	50b2                	lw	ra,44(sp)
    8a16:	5422                	lw	s0,40(sp)
    8a18:	8552                	mv	a0,s4
    8a1a:	5492                	lw	s1,36(sp)
    8a1c:	5902                	lw	s2,32(sp)
    8a1e:	49f2                	lw	s3,28(sp)
    8a20:	4a62                	lw	s4,24(sp)
    8a22:	4ad2                	lw	s5,20(sp)
    8a24:	6145                	addi	sp,sp,48
    8a26:	8082                	ret
    8a28:	0585                	addi	a1,a1,1
    8a2a:	0786                	slli	a5,a5,0x1
    8a2c:	bf95                	j	89a0 <__lshift+0x26>
    8a2e:	fe06ae23          	sw	zero,-4(a3) # fffc <_data_lma+0x5b80>
    8a32:	0705                	addi	a4,a4,1
    8a34:	b751                	j	89b8 <__lshift+0x3e>
    8a36:	0791                	addi	a5,a5,4
    8a38:	ffc7a603          	lw	a2,-4(a5)
    8a3c:	0711                	addi	a4,a4,4
    8a3e:	fec72e23          	sw	a2,-4(a4)
    8a42:	fed7eae3          	bltu	a5,a3,8a36 <__lshift+0xbc>
    8a46:	b7c1                	j	8a06 <__lshift+0x8c>

00008a48 <__mcmp>:
__mcmp():
    8a48:	491c                	lw	a5,16(a0)
    8a4a:	4998                	lw	a4,16(a1)
    8a4c:	8f99                	sub	a5,a5,a4
    8a4e:	e38d                	bnez	a5,8a70 <__mcmp+0x28>
    8a50:	070a                	slli	a4,a4,0x2
    8a52:	0551                	addi	a0,a0,20
    8a54:	05d1                	addi	a1,a1,20
    8a56:	00e506b3          	add	a3,a0,a4
    8a5a:	95ba                	add	a1,a1,a4
    8a5c:	16f1                	addi	a3,a3,-4
    8a5e:	15f1                	addi	a1,a1,-4
    8a60:	4290                	lw	a2,0(a3)
    8a62:	4198                	lw	a4,0(a1)
    8a64:	00e60863          	beq	a2,a4,8a74 <__mcmp+0x2c>
    8a68:	57fd                	li	a5,-1
    8a6a:	00e66363          	bltu	a2,a4,8a70 <__mcmp+0x28>
    8a6e:	4785                	li	a5,1
    8a70:	853e                	mv	a0,a5
    8a72:	8082                	ret
    8a74:	fed564e3          	bltu	a0,a3,8a5c <__mcmp+0x14>
    8a78:	bfe5                	j	8a70 <__mcmp+0x28>

00008a7a <__mdiff>:
__mdiff():
    8a7a:	1101                	addi	sp,sp,-32
    8a7c:	ca26                	sw	s1,20(sp)
    8a7e:	84ae                	mv	s1,a1
    8a80:	c64e                	sw	s3,12(sp)
    8a82:	85b2                	mv	a1,a2
    8a84:	89aa                	mv	s3,a0
    8a86:	8526                	mv	a0,s1
    8a88:	cc22                	sw	s0,24(sp)
    8a8a:	ce06                	sw	ra,28(sp)
    8a8c:	c84a                	sw	s2,16(sp)
    8a8e:	8432                	mv	s0,a2
    8a90:	fb9ff0ef          	jal	ra,8a48 <__mcmp>
    8a94:	e105                	bnez	a0,8ab4 <__mdiff+0x3a>
    8a96:	4581                	li	a1,0
    8a98:	854e                	mv	a0,s3
    8a9a:	aafff0ef          	jal	ra,8548 <_Balloc>
    8a9e:	4785                	li	a5,1
    8aa0:	c91c                	sw	a5,16(a0)
    8aa2:	00052a23          	sw	zero,20(a0)
    8aa6:	40f2                	lw	ra,28(sp)
    8aa8:	4462                	lw	s0,24(sp)
    8aaa:	44d2                	lw	s1,20(sp)
    8aac:	4942                	lw	s2,16(sp)
    8aae:	49b2                	lw	s3,12(sp)
    8ab0:	6105                	addi	sp,sp,32
    8ab2:	8082                	ret
    8ab4:	4905                	li	s2,1
    8ab6:	00054663          	bltz	a0,8ac2 <__mdiff+0x48>
    8aba:	87a2                	mv	a5,s0
    8abc:	4901                	li	s2,0
    8abe:	8426                	mv	s0,s1
    8ac0:	84be                	mv	s1,a5
    8ac2:	404c                	lw	a1,4(s0)
    8ac4:	854e                	mv	a0,s3
    8ac6:	a83ff0ef          	jal	ra,8548 <_Balloc>
    8aca:	01042303          	lw	t1,16(s0)
    8ace:	0104a883          	lw	a7,16(s1)
    8ad2:	01440613          	addi	a2,s0,20
    8ad6:	00231e13          	slli	t3,t1,0x2
    8ada:	01448813          	addi	a6,s1,20
    8ade:	088a                	slli	a7,a7,0x2
    8ae0:	6ec1                	lui	t4,0x10
    8ae2:	01252623          	sw	s2,12(a0)
    8ae6:	9e32                	add	t3,t3,a2
    8ae8:	98c2                	add	a7,a7,a6
    8aea:	01450693          	addi	a3,a0,20
    8aee:	4f01                	li	t5,0
    8af0:	1efd                	addi	t4,t4,-1
    8af2:	4218                	lw	a4,0(a2)
    8af4:	00082f83          	lw	t6,0(a6)
    8af8:	0691                	addi	a3,a3,4
    8afa:	01d775b3          	and	a1,a4,t4
    8afe:	01dff7b3          	and	a5,t6,t4
    8b02:	95fa                	add	a1,a1,t5
    8b04:	8d9d                	sub	a1,a1,a5
    8b06:	010fdf93          	srli	t6,t6,0x10
    8b0a:	01075793          	srli	a5,a4,0x10
    8b0e:	41f787b3          	sub	a5,a5,t6
    8b12:	4105d713          	srai	a4,a1,0x10
    8b16:	97ba                	add	a5,a5,a4
    8b18:	4107df13          	srai	t5,a5,0x10
    8b1c:	01d5f5b3          	and	a1,a1,t4
    8b20:	07c2                	slli	a5,a5,0x10
    8b22:	8fcd                	or	a5,a5,a1
    8b24:	0811                	addi	a6,a6,4
    8b26:	fef6ae23          	sw	a5,-4(a3)
    8b2a:	0611                	addi	a2,a2,4
    8b2c:	fd1863e3          	bltu	a6,a7,8af2 <__mdiff+0x78>
    8b30:	65c1                	lui	a1,0x10
    8b32:	15fd                	addi	a1,a1,-1
    8b34:	01c66863          	bltu	a2,t3,8b44 <__mdiff+0xca>
    8b38:	16f1                	addi	a3,a3,-4
    8b3a:	429c                	lw	a5,0(a3)
    8b3c:	c795                	beqz	a5,8b68 <__mdiff+0xee>
    8b3e:	00652823          	sw	t1,16(a0)
    8b42:	b795                	j	8aa6 <__mdiff+0x2c>
    8b44:	421c                	lw	a5,0(a2)
    8b46:	0691                	addi	a3,a3,4
    8b48:	0611                	addi	a2,a2,4
    8b4a:	00b7f733          	and	a4,a5,a1
    8b4e:	977a                	add	a4,a4,t5
    8b50:	41075813          	srai	a6,a4,0x10
    8b54:	83c1                	srli	a5,a5,0x10
    8b56:	97c2                	add	a5,a5,a6
    8b58:	4107df13          	srai	t5,a5,0x10
    8b5c:	8f6d                	and	a4,a4,a1
    8b5e:	07c2                	slli	a5,a5,0x10
    8b60:	8fd9                	or	a5,a5,a4
    8b62:	fef6ae23          	sw	a5,-4(a3)
    8b66:	b7f9                	j	8b34 <__mdiff+0xba>
    8b68:	137d                	addi	t1,t1,-1
    8b6a:	b7f9                	j	8b38 <__mdiff+0xbe>

00008b6c <__d2b>:
__d2b():
    8b6c:	7179                	addi	sp,sp,-48
    8b6e:	d422                	sw	s0,40(sp)
    8b70:	842e                	mv	s0,a1
    8b72:	4585                	li	a1,1
    8b74:	d226                	sw	s1,36(sp)
    8b76:	d04a                	sw	s2,32(sp)
    8b78:	84b2                	mv	s1,a2
    8b7a:	ce4e                	sw	s3,28(sp)
    8b7c:	cc52                	sw	s4,24(sp)
    8b7e:	893a                	mv	s2,a4
    8b80:	d606                	sw	ra,44(sp)
    8b82:	8a36                	mv	s4,a3
    8b84:	9c5ff0ef          	jal	ra,8548 <_Balloc>
    8b88:	00100737          	lui	a4,0x100
    8b8c:	fff70793          	addi	a5,a4,-1 # fffff <_data_lma+0xf5b83>
    8b90:	8fe5                	and	a5,a5,s1
    8b92:	80d1                	srli	s1,s1,0x14
    8b94:	7ff4f493          	andi	s1,s1,2047
    8b98:	89aa                	mv	s3,a0
    8b9a:	e0b5                	bnez	s1,8bfe <__d2b+0x92>
    8b9c:	c63e                	sw	a5,12(sp)
    8b9e:	c42d                	beqz	s0,8c08 <__d2b+0x9c>
    8ba0:	0028                	addi	a0,sp,8
    8ba2:	c422                	sw	s0,8(sp)
    8ba4:	b4fff0ef          	jal	ra,86f2 <__lo0bits>
    8ba8:	46a2                	lw	a3,8(sp)
    8baa:	cd21                	beqz	a0,8c02 <__d2b+0x96>
    8bac:	4732                	lw	a4,12(sp)
    8bae:	02000793          	li	a5,32
    8bb2:	8f89                	sub	a5,a5,a0
    8bb4:	00f717b3          	sll	a5,a4,a5
    8bb8:	8fd5                	or	a5,a5,a3
    8bba:	00a75733          	srl	a4,a4,a0
    8bbe:	00f9aa23          	sw	a5,20(s3)
    8bc2:	c63a                	sw	a4,12(sp)
    8bc4:	4432                	lw	s0,12(sp)
    8bc6:	0089ac23          	sw	s0,24(s3)
    8bca:	00803433          	snez	s0,s0
    8bce:	0405                	addi	s0,s0,1
    8bd0:	0089a823          	sw	s0,16(s3)
    8bd4:	c4b9                	beqz	s1,8c22 <__d2b+0xb6>
    8bd6:	bcd48493          	addi	s1,s1,-1075
    8bda:	94aa                	add	s1,s1,a0
    8bdc:	03500793          	li	a5,53
    8be0:	009a2023          	sw	s1,0(s4)
    8be4:	40a78533          	sub	a0,a5,a0
    8be8:	00a92023          	sw	a0,0(s2)
    8bec:	50b2                	lw	ra,44(sp)
    8bee:	5422                	lw	s0,40(sp)
    8bf0:	854e                	mv	a0,s3
    8bf2:	5492                	lw	s1,36(sp)
    8bf4:	5902                	lw	s2,32(sp)
    8bf6:	49f2                	lw	s3,28(sp)
    8bf8:	4a62                	lw	s4,24(sp)
    8bfa:	6145                	addi	sp,sp,48
    8bfc:	8082                	ret
    8bfe:	8fd9                	or	a5,a5,a4
    8c00:	bf71                	j	8b9c <__d2b+0x30>
    8c02:	00d9aa23          	sw	a3,20(s3)
    8c06:	bf7d                	j	8bc4 <__d2b+0x58>
    8c08:	0068                	addi	a0,sp,12
    8c0a:	ae9ff0ef          	jal	ra,86f2 <__lo0bits>
    8c0e:	47b2                	lw	a5,12(sp)
    8c10:	02050513          	addi	a0,a0,32
    8c14:	4405                	li	s0,1
    8c16:	00f9aa23          	sw	a5,20(s3)
    8c1a:	4785                	li	a5,1
    8c1c:	00f9a823          	sw	a5,16(s3)
    8c20:	bf55                	j	8bd4 <__d2b+0x68>
    8c22:	00241793          	slli	a5,s0,0x2
    8c26:	bce50513          	addi	a0,a0,-1074
    8c2a:	97ce                	add	a5,a5,s3
    8c2c:	00aa2023          	sw	a0,0(s4)
    8c30:	4b88                	lw	a0,16(a5)
    8c32:	0416                	slli	s0,s0,0x5
    8c34:	a79ff0ef          	jal	ra,86ac <__hi0bits>
    8c38:	8c09                	sub	s0,s0,a0
    8c3a:	00892023          	sw	s0,0(s2)
    8c3e:	b77d                	j	8bec <__d2b+0x80>

00008c40 <_calloc_r>:
_calloc_r():
    8c40:	02c58633          	mul	a2,a1,a2
    8c44:	1101                	addi	sp,sp,-32
    8c46:	cc22                	sw	s0,24(sp)
    8c48:	ce06                	sw	ra,28(sp)
    8c4a:	85b2                	mv	a1,a2
    8c4c:	c632                	sw	a2,12(sp)
    8c4e:	2875                	jal	8d0a <_malloc_r>
    8c50:	842a                	mv	s0,a0
    8c52:	c509                	beqz	a0,8c5c <_calloc_r+0x1c>
    8c54:	4632                	lw	a2,12(sp)
    8c56:	4581                	li	a1,0
    8c58:	dbcf70ef          	jal	ra,214 <memset>
    8c5c:	8522                	mv	a0,s0
    8c5e:	40f2                	lw	ra,28(sp)
    8c60:	4462                	lw	s0,24(sp)
    8c62:	6105                	addi	sp,sp,32
    8c64:	8082                	ret

00008c66 <_free_r>:
_free_r():
    8c66:	c1cd                	beqz	a1,8d08 <_free_r+0xa2>
    8c68:	ffc5a783          	lw	a5,-4(a1) # fffc <_data_lma+0x5b80>
    8c6c:	1141                	addi	sp,sp,-16
    8c6e:	c422                	sw	s0,8(sp)
    8c70:	c606                	sw	ra,12(sp)
    8c72:	c226                	sw	s1,4(sp)
    8c74:	ffc58413          	addi	s0,a1,-4
    8c78:	0007d363          	bgez	a5,8c7e <_free_r+0x18>
    8c7c:	943e                	add	s0,s0,a5
    8c7e:	84aa                	mv	s1,a0
    8c80:	2d99                	jal	92d6 <__malloc_lock>
    8c82:	88418793          	addi	a5,gp,-1916 # 200002a4 <__malloc_free_list>
    8c86:	439c                	lw	a5,0(a5)
    8c88:	eb99                	bnez	a5,8c9e <_free_r+0x38>
    8c8a:	00042223          	sw	zero,4(s0)
    8c8e:	8881a223          	sw	s0,-1916(gp) # 200002a4 <__malloc_free_list>
    8c92:	4422                	lw	s0,8(sp)
    8c94:	40b2                	lw	ra,12(sp)
    8c96:	8526                	mv	a0,s1
    8c98:	4492                	lw	s1,4(sp)
    8c9a:	0141                	addi	sp,sp,16
    8c9c:	ad35                	j	92d8 <__malloc_unlock>
    8c9e:	00f47e63          	bgeu	s0,a5,8cba <_free_r+0x54>
    8ca2:	4014                	lw	a3,0(s0)
    8ca4:	00d40733          	add	a4,s0,a3
    8ca8:	00e79663          	bne	a5,a4,8cb4 <_free_r+0x4e>
    8cac:	4398                	lw	a4,0(a5)
    8cae:	43dc                	lw	a5,4(a5)
    8cb0:	9736                	add	a4,a4,a3
    8cb2:	c018                	sw	a4,0(s0)
    8cb4:	c05c                	sw	a5,4(s0)
    8cb6:	bfe1                	j	8c8e <_free_r+0x28>
    8cb8:	87ba                	mv	a5,a4
    8cba:	43d8                	lw	a4,4(a5)
    8cbc:	c319                	beqz	a4,8cc2 <_free_r+0x5c>
    8cbe:	fee47de3          	bgeu	s0,a4,8cb8 <_free_r+0x52>
    8cc2:	4394                	lw	a3,0(a5)
    8cc4:	00d78633          	add	a2,a5,a3
    8cc8:	00861f63          	bne	a2,s0,8ce6 <_free_r+0x80>
    8ccc:	4010                	lw	a2,0(s0)
    8cce:	96b2                	add	a3,a3,a2
    8cd0:	c394                	sw	a3,0(a5)
    8cd2:	00d78633          	add	a2,a5,a3
    8cd6:	fac71ee3          	bne	a4,a2,8c92 <_free_r+0x2c>
    8cda:	4310                	lw	a2,0(a4)
    8cdc:	4358                	lw	a4,4(a4)
    8cde:	96b2                	add	a3,a3,a2
    8ce0:	c394                	sw	a3,0(a5)
    8ce2:	c3d8                	sw	a4,4(a5)
    8ce4:	b77d                	j	8c92 <_free_r+0x2c>
    8ce6:	00c47563          	bgeu	s0,a2,8cf0 <_free_r+0x8a>
    8cea:	47b1                	li	a5,12
    8cec:	c09c                	sw	a5,0(s1)
    8cee:	b755                	j	8c92 <_free_r+0x2c>
    8cf0:	4010                	lw	a2,0(s0)
    8cf2:	00c406b3          	add	a3,s0,a2
    8cf6:	00d71663          	bne	a4,a3,8d02 <_free_r+0x9c>
    8cfa:	4314                	lw	a3,0(a4)
    8cfc:	4358                	lw	a4,4(a4)
    8cfe:	96b2                	add	a3,a3,a2
    8d00:	c014                	sw	a3,0(s0)
    8d02:	c058                	sw	a4,4(s0)
    8d04:	c3c0                	sw	s0,4(a5)
    8d06:	b771                	j	8c92 <_free_r+0x2c>
    8d08:	8082                	ret

00008d0a <_malloc_r>:
_malloc_r():
    8d0a:	1101                	addi	sp,sp,-32
    8d0c:	ca26                	sw	s1,20(sp)
    8d0e:	00358493          	addi	s1,a1,3
    8d12:	98f1                	andi	s1,s1,-4
    8d14:	ce06                	sw	ra,28(sp)
    8d16:	cc22                	sw	s0,24(sp)
    8d18:	c84a                	sw	s2,16(sp)
    8d1a:	c64e                	sw	s3,12(sp)
    8d1c:	04a1                	addi	s1,s1,8
    8d1e:	47b1                	li	a5,12
    8d20:	04f4f163          	bgeu	s1,a5,8d62 <_malloc_r+0x58>
    8d24:	44b1                	li	s1,12
    8d26:	04b4e063          	bltu	s1,a1,8d66 <_malloc_r+0x5c>
    8d2a:	892a                	mv	s2,a0
    8d2c:	236d                	jal	92d6 <__malloc_lock>
    8d2e:	88418793          	addi	a5,gp,-1916 # 200002a4 <__malloc_free_list>
    8d32:	4398                	lw	a4,0(a5)
    8d34:	843a                	mv	s0,a4
    8d36:	e031                	bnez	s0,8d7a <_malloc_r+0x70>
    8d38:	88818793          	addi	a5,gp,-1912 # 200002a8 <__malloc_sbrk_start>
    8d3c:	439c                	lw	a5,0(a5)
    8d3e:	e791                	bnez	a5,8d4a <_malloc_r+0x40>
    8d40:	4581                	li	a1,0
    8d42:	854a                	mv	a0,s2
    8d44:	264d                	jal	90e6 <_sbrk_r>
    8d46:	88a1a423          	sw	a0,-1912(gp) # 200002a8 <__malloc_sbrk_start>
    8d4a:	85a6                	mv	a1,s1
    8d4c:	854a                	mv	a0,s2
    8d4e:	2e61                	jal	90e6 <_sbrk_r>
    8d50:	59fd                	li	s3,-1
    8d52:	07351763          	bne	a0,s3,8dc0 <_malloc_r+0xb6>
    8d56:	47b1                	li	a5,12
    8d58:	00f92023          	sw	a5,0(s2)
    8d5c:	854a                	mv	a0,s2
    8d5e:	2bad                	jal	92d8 <__malloc_unlock>
    8d60:	a029                	j	8d6a <_malloc_r+0x60>
    8d62:	fc04d2e3          	bgez	s1,8d26 <_malloc_r+0x1c>
    8d66:	47b1                	li	a5,12
    8d68:	c11c                	sw	a5,0(a0)
    8d6a:	4501                	li	a0,0
    8d6c:	40f2                	lw	ra,28(sp)
    8d6e:	4462                	lw	s0,24(sp)
    8d70:	44d2                	lw	s1,20(sp)
    8d72:	4942                	lw	s2,16(sp)
    8d74:	49b2                	lw	s3,12(sp)
    8d76:	6105                	addi	sp,sp,32
    8d78:	8082                	ret
    8d7a:	401c                	lw	a5,0(s0)
    8d7c:	8f85                	sub	a5,a5,s1
    8d7e:	0207ce63          	bltz	a5,8dba <_malloc_r+0xb0>
    8d82:	46ad                	li	a3,11
    8d84:	00f6f663          	bgeu	a3,a5,8d90 <_malloc_r+0x86>
    8d88:	c01c                	sw	a5,0(s0)
    8d8a:	943e                	add	s0,s0,a5
    8d8c:	c004                	sw	s1,0(s0)
    8d8e:	a031                	j	8d9a <_malloc_r+0x90>
    8d90:	405c                	lw	a5,4(s0)
    8d92:	02871263          	bne	a4,s0,8db6 <_malloc_r+0xac>
    8d96:	88f1a223          	sw	a5,-1916(gp) # 200002a4 <__malloc_free_list>
    8d9a:	854a                	mv	a0,s2
    8d9c:	2b35                	jal	92d8 <__malloc_unlock>
    8d9e:	00b40513          	addi	a0,s0,11
    8da2:	00440793          	addi	a5,s0,4
    8da6:	9961                	andi	a0,a0,-8
    8da8:	40f50733          	sub	a4,a0,a5
    8dac:	d361                	beqz	a4,8d6c <_malloc_r+0x62>
    8dae:	943a                	add	s0,s0,a4
    8db0:	8f89                	sub	a5,a5,a0
    8db2:	c01c                	sw	a5,0(s0)
    8db4:	bf65                	j	8d6c <_malloc_r+0x62>
    8db6:	c35c                	sw	a5,4(a4)
    8db8:	b7cd                	j	8d9a <_malloc_r+0x90>
    8dba:	8722                	mv	a4,s0
    8dbc:	4040                	lw	s0,4(s0)
    8dbe:	bfa5                	j	8d36 <_malloc_r+0x2c>
    8dc0:	00350413          	addi	s0,a0,3
    8dc4:	9871                	andi	s0,s0,-4
    8dc6:	fc8503e3          	beq	a0,s0,8d8c <_malloc_r+0x82>
    8dca:	40a405b3          	sub	a1,s0,a0
    8dce:	854a                	mv	a0,s2
    8dd0:	2e19                	jal	90e6 <_sbrk_r>
    8dd2:	fb351de3          	bne	a0,s3,8d8c <_malloc_r+0x82>
    8dd6:	b741                	j	8d56 <_malloc_r+0x4c>

00008dd8 <__sfputc_r>:
__sfputc_r():
    8dd8:	461c                	lw	a5,8(a2)
    8dda:	17fd                	addi	a5,a5,-1
    8ddc:	c61c                	sw	a5,8(a2)
    8dde:	0007da63          	bgez	a5,8df2 <__sfputc_r+0x1a>
    8de2:	4e18                	lw	a4,24(a2)
    8de4:	00e7c563          	blt	a5,a4,8dee <__sfputc_r+0x16>
    8de8:	47a9                	li	a5,10
    8dea:	00f59463          	bne	a1,a5,8df2 <__sfputc_r+0x1a>
    8dee:	b18fe06f          	j	7106 <__swbuf_r>
    8df2:	421c                	lw	a5,0(a2)
    8df4:	852e                	mv	a0,a1
    8df6:	00178713          	addi	a4,a5,1
    8dfa:	c218                	sw	a4,0(a2)
    8dfc:	00b78023          	sb	a1,0(a5)
    8e00:	8082                	ret

00008e02 <__sfputs_r>:
__sfputs_r():
    8e02:	1101                	addi	sp,sp,-32
    8e04:	cc22                	sw	s0,24(sp)
    8e06:	ca26                	sw	s1,20(sp)
    8e08:	c84a                	sw	s2,16(sp)
    8e0a:	c64e                	sw	s3,12(sp)
    8e0c:	c452                	sw	s4,8(sp)
    8e0e:	ce06                	sw	ra,28(sp)
    8e10:	892a                	mv	s2,a0
    8e12:	89ae                	mv	s3,a1
    8e14:	8432                	mv	s0,a2
    8e16:	00d604b3          	add	s1,a2,a3
    8e1a:	5a7d                	li	s4,-1
    8e1c:	00941463          	bne	s0,s1,8e24 <__sfputs_r+0x22>
    8e20:	4501                	li	a0,0
    8e22:	a811                	j	8e36 <__sfputs_r+0x34>
    8e24:	00044583          	lbu	a1,0(s0)
    8e28:	864e                	mv	a2,s3
    8e2a:	854a                	mv	a0,s2
    8e2c:	fadff0ef          	jal	ra,8dd8 <__sfputc_r>
    8e30:	0405                	addi	s0,s0,1
    8e32:	ff4515e3          	bne	a0,s4,8e1c <__sfputs_r+0x1a>
    8e36:	40f2                	lw	ra,28(sp)
    8e38:	4462                	lw	s0,24(sp)
    8e3a:	44d2                	lw	s1,20(sp)
    8e3c:	4942                	lw	s2,16(sp)
    8e3e:	49b2                	lw	s3,12(sp)
    8e40:	4a22                	lw	s4,8(sp)
    8e42:	6105                	addi	sp,sp,32
    8e44:	8082                	ret

00008e46 <_vfiprintf_r>:
_vfiprintf_r():
    8e46:	7135                	addi	sp,sp,-160
    8e48:	cd22                	sw	s0,152(sp)
    8e4a:	cb26                	sw	s1,148(sp)
    8e4c:	c94a                	sw	s2,144(sp)
    8e4e:	c74e                	sw	s3,140(sp)
    8e50:	cf06                	sw	ra,156(sp)
    8e52:	c552                	sw	s4,136(sp)
    8e54:	c356                	sw	s5,132(sp)
    8e56:	c15a                	sw	s6,128(sp)
    8e58:	dede                	sw	s7,124(sp)
    8e5a:	dce2                	sw	s8,120(sp)
    8e5c:	dae6                	sw	s9,116(sp)
    8e5e:	89aa                	mv	s3,a0
    8e60:	84ae                	mv	s1,a1
    8e62:	8932                	mv	s2,a2
    8e64:	8436                	mv	s0,a3
    8e66:	c509                	beqz	a0,8e70 <_vfiprintf_r+0x2a>
    8e68:	4d1c                	lw	a5,24(a0)
    8e6a:	e399                	bnez	a5,8e70 <_vfiprintf_r+0x2a>
    8e6c:	c2aff0ef          	jal	ra,8296 <__sinit>
    8e70:	00001797          	auipc	a5,0x1
    8e74:	3a878793          	addi	a5,a5,936 # a218 <__sf_fake_stdin>
    8e78:	0cf49d63          	bne	s1,a5,8f52 <_vfiprintf_r+0x10c>
    8e7c:	0049a483          	lw	s1,4(s3)
    8e80:	00c4d783          	lhu	a5,12(s1)
    8e84:	8ba1                	andi	a5,a5,8
    8e86:	cbe5                	beqz	a5,8f76 <_vfiprintf_r+0x130>
    8e88:	489c                	lw	a5,16(s1)
    8e8a:	c7f5                	beqz	a5,8f76 <_vfiprintf_r+0x130>
    8e8c:	02000793          	li	a5,32
    8e90:	02f104a3          	sb	a5,41(sp)
    8e94:	03000793          	li	a5,48
    8e98:	d202                	sw	zero,36(sp)
    8e9a:	02f10523          	sb	a5,42(sp)
    8e9e:	c622                	sw	s0,12(sp)
    8ea0:	02500b93          	li	s7,37
    8ea4:	00001a97          	auipc	s5,0x1
    8ea8:	4b0a8a93          	addi	s5,s5,1200 # a354 <p05.3319+0xc>
    8eac:	4c05                	li	s8,1
    8eae:	4b29                	li	s6,10
    8eb0:	844a                	mv	s0,s2
    8eb2:	00044783          	lbu	a5,0(s0)
    8eb6:	c399                	beqz	a5,8ebc <_vfiprintf_r+0x76>
    8eb8:	0f779263          	bne	a5,s7,8f9c <_vfiprintf_r+0x156>
    8ebc:	41240cb3          	sub	s9,s0,s2
    8ec0:	000c8e63          	beqz	s9,8edc <_vfiprintf_r+0x96>
    8ec4:	86e6                	mv	a3,s9
    8ec6:	864a                	mv	a2,s2
    8ec8:	85a6                	mv	a1,s1
    8eca:	854e                	mv	a0,s3
    8ecc:	f37ff0ef          	jal	ra,8e02 <__sfputs_r>
    8ed0:	57fd                	li	a5,-1
    8ed2:	1ef50763          	beq	a0,a5,90c0 <_vfiprintf_r+0x27a>
    8ed6:	5692                	lw	a3,36(sp)
    8ed8:	96e6                	add	a3,a3,s9
    8eda:	d236                	sw	a3,36(sp)
    8edc:	00044783          	lbu	a5,0(s0)
    8ee0:	1e078063          	beqz	a5,90c0 <_vfiprintf_r+0x27a>
    8ee4:	57fd                	li	a5,-1
    8ee6:	00140913          	addi	s2,s0,1
    8eea:	c802                	sw	zero,16(sp)
    8eec:	ce02                	sw	zero,28(sp)
    8eee:	ca3e                	sw	a5,20(sp)
    8ef0:	cc02                	sw	zero,24(sp)
    8ef2:	040109a3          	sb	zero,83(sp)
    8ef6:	d482                	sw	zero,104(sp)
    8ef8:	00094583          	lbu	a1,0(s2)
    8efc:	4615                	li	a2,5
    8efe:	8556                	mv	a0,s5
    8f00:	e2eff0ef          	jal	ra,852e <memchr>
    8f04:	00190413          	addi	s0,s2,1
    8f08:	47c2                	lw	a5,16(sp)
    8f0a:	e959                	bnez	a0,8fa0 <_vfiprintf_r+0x15a>
    8f0c:	0107f713          	andi	a4,a5,16
    8f10:	c709                	beqz	a4,8f1a <_vfiprintf_r+0xd4>
    8f12:	02000713          	li	a4,32
    8f16:	04e109a3          	sb	a4,83(sp)
    8f1a:	0087f713          	andi	a4,a5,8
    8f1e:	c709                	beqz	a4,8f28 <_vfiprintf_r+0xe2>
    8f20:	02b00713          	li	a4,43
    8f24:	04e109a3          	sb	a4,83(sp)
    8f28:	00094683          	lbu	a3,0(s2)
    8f2c:	02a00713          	li	a4,42
    8f30:	08e68063          	beq	a3,a4,8fb0 <_vfiprintf_r+0x16a>
    8f34:	47f2                	lw	a5,28(sp)
    8f36:	844a                	mv	s0,s2
    8f38:	4681                	li	a3,0
    8f3a:	4625                	li	a2,9
    8f3c:	00044703          	lbu	a4,0(s0)
    8f40:	00140593          	addi	a1,s0,1
    8f44:	fd070713          	addi	a4,a4,-48
    8f48:	0ae67963          	bgeu	a2,a4,8ffa <_vfiprintf_r+0x1b4>
    8f4c:	cab5                	beqz	a3,8fc0 <_vfiprintf_r+0x17a>
    8f4e:	ce3e                	sw	a5,28(sp)
    8f50:	a885                	j	8fc0 <_vfiprintf_r+0x17a>
    8f52:	00001797          	auipc	a5,0x1
    8f56:	2e678793          	addi	a5,a5,742 # a238 <__sf_fake_stdout>
    8f5a:	00f49563          	bne	s1,a5,8f64 <_vfiprintf_r+0x11e>
    8f5e:	0089a483          	lw	s1,8(s3)
    8f62:	bf39                	j	8e80 <_vfiprintf_r+0x3a>
    8f64:	00001797          	auipc	a5,0x1
    8f68:	29478793          	addi	a5,a5,660 # a1f8 <__sf_fake_stderr>
    8f6c:	f0f49ae3          	bne	s1,a5,8e80 <_vfiprintf_r+0x3a>
    8f70:	00c9a483          	lw	s1,12(s3)
    8f74:	b731                	j	8e80 <_vfiprintf_r+0x3a>
    8f76:	85a6                	mv	a1,s1
    8f78:	854e                	mv	a0,s3
    8f7a:	a52fe0ef          	jal	ra,71cc <__swsetup_r>
    8f7e:	d519                	beqz	a0,8e8c <_vfiprintf_r+0x46>
    8f80:	557d                	li	a0,-1
    8f82:	40fa                	lw	ra,156(sp)
    8f84:	446a                	lw	s0,152(sp)
    8f86:	44da                	lw	s1,148(sp)
    8f88:	494a                	lw	s2,144(sp)
    8f8a:	49ba                	lw	s3,140(sp)
    8f8c:	4a2a                	lw	s4,136(sp)
    8f8e:	4a9a                	lw	s5,132(sp)
    8f90:	4b0a                	lw	s6,128(sp)
    8f92:	5bf6                	lw	s7,124(sp)
    8f94:	5c66                	lw	s8,120(sp)
    8f96:	5cd6                	lw	s9,116(sp)
    8f98:	610d                	addi	sp,sp,160
    8f9a:	8082                	ret
    8f9c:	0405                	addi	s0,s0,1
    8f9e:	bf11                	j	8eb2 <_vfiprintf_r+0x6c>
    8fa0:	41550533          	sub	a0,a0,s5
    8fa4:	00ac1533          	sll	a0,s8,a0
    8fa8:	8fc9                	or	a5,a5,a0
    8faa:	c83e                	sw	a5,16(sp)
    8fac:	8922                	mv	s2,s0
    8fae:	b7a9                	j	8ef8 <_vfiprintf_r+0xb2>
    8fb0:	4732                	lw	a4,12(sp)
    8fb2:	00470693          	addi	a3,a4,4
    8fb6:	4318                	lw	a4,0(a4)
    8fb8:	c636                	sw	a3,12(sp)
    8fba:	02074963          	bltz	a4,8fec <_vfiprintf_r+0x1a6>
    8fbe:	ce3a                	sw	a4,28(sp)
    8fc0:	00044703          	lbu	a4,0(s0)
    8fc4:	02e00793          	li	a5,46
    8fc8:	04f71f63          	bne	a4,a5,9026 <_vfiprintf_r+0x1e0>
    8fcc:	00144703          	lbu	a4,1(s0)
    8fd0:	02a00793          	li	a5,42
    8fd4:	02f71b63          	bne	a4,a5,900a <_vfiprintf_r+0x1c4>
    8fd8:	47b2                	lw	a5,12(sp)
    8fda:	0409                	addi	s0,s0,2
    8fdc:	00478713          	addi	a4,a5,4
    8fe0:	439c                	lw	a5,0(a5)
    8fe2:	c63a                	sw	a4,12(sp)
    8fe4:	0207c163          	bltz	a5,9006 <_vfiprintf_r+0x1c0>
    8fe8:	ca3e                	sw	a5,20(sp)
    8fea:	a835                	j	9026 <_vfiprintf_r+0x1e0>
    8fec:	40e00733          	neg	a4,a4
    8ff0:	0027e793          	ori	a5,a5,2
    8ff4:	ce3a                	sw	a4,28(sp)
    8ff6:	c83e                	sw	a5,16(sp)
    8ff8:	b7e1                	j	8fc0 <_vfiprintf_r+0x17a>
    8ffa:	036787b3          	mul	a5,a5,s6
    8ffe:	4685                	li	a3,1
    9000:	842e                	mv	s0,a1
    9002:	97ba                	add	a5,a5,a4
    9004:	bf25                	j	8f3c <_vfiprintf_r+0xf6>
    9006:	57fd                	li	a5,-1
    9008:	b7c5                	j	8fe8 <_vfiprintf_r+0x1a2>
    900a:	0405                	addi	s0,s0,1
    900c:	ca02                	sw	zero,20(sp)
    900e:	4681                	li	a3,0
    9010:	4781                	li	a5,0
    9012:	4625                	li	a2,9
    9014:	00044703          	lbu	a4,0(s0)
    9018:	00140593          	addi	a1,s0,1
    901c:	fd070713          	addi	a4,a4,-48
    9020:	06e67863          	bgeu	a2,a4,9090 <_vfiprintf_r+0x24a>
    9024:	f2f1                	bnez	a3,8fe8 <_vfiprintf_r+0x1a2>
    9026:	00044583          	lbu	a1,0(s0)
    902a:	460d                	li	a2,3
    902c:	00001517          	auipc	a0,0x1
    9030:	33050513          	addi	a0,a0,816 # a35c <p05.3319+0x14>
    9034:	cfaff0ef          	jal	ra,852e <memchr>
    9038:	cd11                	beqz	a0,9054 <_vfiprintf_r+0x20e>
    903a:	00001797          	auipc	a5,0x1
    903e:	32278793          	addi	a5,a5,802 # a35c <p05.3319+0x14>
    9042:	8d1d                	sub	a0,a0,a5
    9044:	04000793          	li	a5,64
    9048:	00a797b3          	sll	a5,a5,a0
    904c:	4542                	lw	a0,16(sp)
    904e:	0405                	addi	s0,s0,1
    9050:	8d5d                	or	a0,a0,a5
    9052:	c82a                	sw	a0,16(sp)
    9054:	00044583          	lbu	a1,0(s0)
    9058:	4619                	li	a2,6
    905a:	00001517          	auipc	a0,0x1
    905e:	30650513          	addi	a0,a0,774 # a360 <p05.3319+0x18>
    9062:	00140913          	addi	s2,s0,1
    9066:	02b10423          	sb	a1,40(sp)
    906a:	cc4ff0ef          	jal	ra,852e <memchr>
    906e:	c12d                	beqz	a0,90d0 <_vfiprintf_r+0x28a>
    9070:	ffffd797          	auipc	a5,0xffffd
    9074:	7c678793          	addi	a5,a5,1990 # 6836 <_printf_float>
    9078:	e795                	bnez	a5,90a4 <_vfiprintf_r+0x25e>
    907a:	4742                	lw	a4,16(sp)
    907c:	47b2                	lw	a5,12(sp)
    907e:	10077713          	andi	a4,a4,256
    9082:	cf09                	beqz	a4,909c <_vfiprintf_r+0x256>
    9084:	0791                	addi	a5,a5,4
    9086:	c63e                	sw	a5,12(sp)
    9088:	5792                	lw	a5,36(sp)
    908a:	97d2                	add	a5,a5,s4
    908c:	d23e                	sw	a5,36(sp)
    908e:	b50d                	j	8eb0 <_vfiprintf_r+0x6a>
    9090:	036787b3          	mul	a5,a5,s6
    9094:	4685                	li	a3,1
    9096:	842e                	mv	s0,a1
    9098:	97ba                	add	a5,a5,a4
    909a:	bfad                	j	9014 <_vfiprintf_r+0x1ce>
    909c:	079d                	addi	a5,a5,7
    909e:	9be1                	andi	a5,a5,-8
    90a0:	07a1                	addi	a5,a5,8
    90a2:	b7d5                	j	9086 <_vfiprintf_r+0x240>
    90a4:	0078                	addi	a4,sp,12
    90a6:	00000697          	auipc	a3,0x0
    90aa:	d5c68693          	addi	a3,a3,-676 # 8e02 <__sfputs_r>
    90ae:	8626                	mv	a2,s1
    90b0:	080c                	addi	a1,sp,16
    90b2:	854e                	mv	a0,s3
    90b4:	f82fd0ef          	jal	ra,6836 <_printf_float>
    90b8:	57fd                	li	a5,-1
    90ba:	8a2a                	mv	s4,a0
    90bc:	fcf516e3          	bne	a0,a5,9088 <_vfiprintf_r+0x242>
    90c0:	00c4d783          	lhu	a5,12(s1)
    90c4:	0407f793          	andi	a5,a5,64
    90c8:	ea079ce3          	bnez	a5,8f80 <_vfiprintf_r+0x13a>
    90cc:	5512                	lw	a0,36(sp)
    90ce:	bd55                	j	8f82 <_vfiprintf_r+0x13c>
    90d0:	0078                	addi	a4,sp,12
    90d2:	00000697          	auipc	a3,0x0
    90d6:	d3068693          	addi	a3,a3,-720 # 8e02 <__sfputs_r>
    90da:	8626                	mv	a2,s1
    90dc:	080c                	addi	a1,sp,16
    90de:	854e                	mv	a0,s3
    90e0:	d27fd0ef          	jal	ra,6e06 <_printf_i>
    90e4:	bfd1                	j	90b8 <_vfiprintf_r+0x272>

000090e6 <_sbrk_r>:
_sbrk_r():
    90e6:	1141                	addi	sp,sp,-16
    90e8:	c422                	sw	s0,8(sp)
    90ea:	842a                	mv	s0,a0
    90ec:	852e                	mv	a0,a1
    90ee:	8e01a023          	sw	zero,-1824(gp) # 20000300 <errno>
    90f2:	c606                	sw	ra,12(sp)
    90f4:	2bf9                	jal	96d2 <_sbrk>
    90f6:	57fd                	li	a5,-1
    90f8:	00f51763          	bne	a0,a5,9106 <_sbrk_r+0x20>
    90fc:	8e018793          	addi	a5,gp,-1824 # 20000300 <errno>
    9100:	439c                	lw	a5,0(a5)
    9102:	c391                	beqz	a5,9106 <_sbrk_r+0x20>
    9104:	c01c                	sw	a5,0(s0)
    9106:	40b2                	lw	ra,12(sp)
    9108:	4422                	lw	s0,8(sp)
    910a:	0141                	addi	sp,sp,16
    910c:	8082                	ret

0000910e <__sread>:
__sread():
    910e:	1141                	addi	sp,sp,-16
    9110:	c422                	sw	s0,8(sp)
    9112:	842e                	mv	s0,a1
    9114:	00e59583          	lh	a1,14(a1)
    9118:	c606                	sw	ra,12(sp)
    911a:	22c1                	jal	92da <_read_r>
    911c:	00054963          	bltz	a0,912e <__sread+0x20>
    9120:	487c                	lw	a5,84(s0)
    9122:	97aa                	add	a5,a5,a0
    9124:	c87c                	sw	a5,84(s0)
    9126:	40b2                	lw	ra,12(sp)
    9128:	4422                	lw	s0,8(sp)
    912a:	0141                	addi	sp,sp,16
    912c:	8082                	ret
    912e:	00c45783          	lhu	a5,12(s0)
    9132:	777d                	lui	a4,0xfffff
    9134:	177d                	addi	a4,a4,-1
    9136:	8ff9                	and	a5,a5,a4
    9138:	00f41623          	sh	a5,12(s0)
    913c:	b7ed                	j	9126 <__sread+0x18>

0000913e <__swrite>:
__swrite():
    913e:	00c5d783          	lhu	a5,12(a1)
    9142:	1101                	addi	sp,sp,-32
    9144:	cc22                	sw	s0,24(sp)
    9146:	ca26                	sw	s1,20(sp)
    9148:	c84a                	sw	s2,16(sp)
    914a:	c64e                	sw	s3,12(sp)
    914c:	ce06                	sw	ra,28(sp)
    914e:	1007f793          	andi	a5,a5,256
    9152:	84aa                	mv	s1,a0
    9154:	842e                	mv	s0,a1
    9156:	8932                	mv	s2,a2
    9158:	89b6                	mv	s3,a3
    915a:	c791                	beqz	a5,9166 <__swrite+0x28>
    915c:	00e59583          	lh	a1,14(a1)
    9160:	4689                	li	a3,2
    9162:	4601                	li	a2,0
    9164:	2231                	jal	9270 <_lseek_r>
    9166:	00c45783          	lhu	a5,12(s0)
    916a:	777d                	lui	a4,0xfffff
    916c:	177d                	addi	a4,a4,-1
    916e:	8ff9                	and	a5,a5,a4
    9170:	00f41623          	sh	a5,12(s0)
    9174:	00e41583          	lh	a1,14(s0)
    9178:	4462                	lw	s0,24(sp)
    917a:	40f2                	lw	ra,28(sp)
    917c:	86ce                	mv	a3,s3
    917e:	864a                	mv	a2,s2
    9180:	49b2                	lw	s3,12(sp)
    9182:	4942                	lw	s2,16(sp)
    9184:	8526                	mv	a0,s1
    9186:	44d2                	lw	s1,20(sp)
    9188:	6105                	addi	sp,sp,32
    918a:	a83d                	j	91c8 <_write_r>

0000918c <__sseek>:
__sseek():
    918c:	1141                	addi	sp,sp,-16
    918e:	c422                	sw	s0,8(sp)
    9190:	842e                	mv	s0,a1
    9192:	00e59583          	lh	a1,14(a1)
    9196:	c606                	sw	ra,12(sp)
    9198:	28e1                	jal	9270 <_lseek_r>
    919a:	57fd                	li	a5,-1
    919c:	00c45703          	lhu	a4,12(s0)
    91a0:	00f51b63          	bne	a0,a5,91b6 <__sseek+0x2a>
    91a4:	77fd                	lui	a5,0xfffff
    91a6:	17fd                	addi	a5,a5,-1
    91a8:	8ff9                	and	a5,a5,a4
    91aa:	00f41623          	sh	a5,12(s0)
    91ae:	40b2                	lw	ra,12(sp)
    91b0:	4422                	lw	s0,8(sp)
    91b2:	0141                	addi	sp,sp,16
    91b4:	8082                	ret
    91b6:	6785                	lui	a5,0x1
    91b8:	8fd9                	or	a5,a5,a4
    91ba:	00f41623          	sh	a5,12(s0)
    91be:	c868                	sw	a0,84(s0)
    91c0:	b7fd                	j	91ae <__sseek+0x22>

000091c2 <__sclose>:
__sclose():
    91c2:	00e59583          	lh	a1,14(a1)
    91c6:	a805                	j	91f6 <_close_r>

000091c8 <_write_r>:
_write_r():
    91c8:	1141                	addi	sp,sp,-16
    91ca:	c422                	sw	s0,8(sp)
    91cc:	842a                	mv	s0,a0
    91ce:	852e                	mv	a0,a1
    91d0:	85b2                	mv	a1,a2
    91d2:	8636                	mv	a2,a3
    91d4:	8e01a023          	sw	zero,-1824(gp) # 20000300 <errno>
    91d8:	c606                	sw	ra,12(sp)
    91da:	ec7f80ef          	jal	ra,20a0 <_write>
    91de:	57fd                	li	a5,-1
    91e0:	00f51763          	bne	a0,a5,91ee <_write_r+0x26>
    91e4:	8e018793          	addi	a5,gp,-1824 # 20000300 <errno>
    91e8:	439c                	lw	a5,0(a5)
    91ea:	c391                	beqz	a5,91ee <_write_r+0x26>
    91ec:	c01c                	sw	a5,0(s0)
    91ee:	40b2                	lw	ra,12(sp)
    91f0:	4422                	lw	s0,8(sp)
    91f2:	0141                	addi	sp,sp,16
    91f4:	8082                	ret

000091f6 <_close_r>:
_close_r():
    91f6:	1141                	addi	sp,sp,-16
    91f8:	c422                	sw	s0,8(sp)
    91fa:	842a                	mv	s0,a0
    91fc:	852e                	mv	a0,a1
    91fe:	8e01a023          	sw	zero,-1824(gp) # 20000300 <errno>
    9202:	c606                	sw	ra,12(sp)
    9204:	2949                	jal	9696 <_close>
    9206:	57fd                	li	a5,-1
    9208:	00f51763          	bne	a0,a5,9216 <_close_r+0x20>
    920c:	8e018793          	addi	a5,gp,-1824 # 20000300 <errno>
    9210:	439c                	lw	a5,0(a5)
    9212:	c391                	beqz	a5,9216 <_close_r+0x20>
    9214:	c01c                	sw	a5,0(s0)
    9216:	40b2                	lw	ra,12(sp)
    9218:	4422                	lw	s0,8(sp)
    921a:	0141                	addi	sp,sp,16
    921c:	8082                	ret

0000921e <_fstat_r>:
_fstat_r():
    921e:	1141                	addi	sp,sp,-16
    9220:	c422                	sw	s0,8(sp)
    9222:	842a                	mv	s0,a0
    9224:	852e                	mv	a0,a1
    9226:	85b2                	mv	a1,a2
    9228:	8e01a023          	sw	zero,-1824(gp) # 20000300 <errno>
    922c:	c606                	sw	ra,12(sp)
    922e:	2995                	jal	96a2 <_fstat>
    9230:	57fd                	li	a5,-1
    9232:	00f51763          	bne	a0,a5,9240 <_fstat_r+0x22>
    9236:	8e018793          	addi	a5,gp,-1824 # 20000300 <errno>
    923a:	439c                	lw	a5,0(a5)
    923c:	c391                	beqz	a5,9240 <_fstat_r+0x22>
    923e:	c01c                	sw	a5,0(s0)
    9240:	40b2                	lw	ra,12(sp)
    9242:	4422                	lw	s0,8(sp)
    9244:	0141                	addi	sp,sp,16
    9246:	8082                	ret

00009248 <_isatty_r>:
_isatty_r():
    9248:	1141                	addi	sp,sp,-16
    924a:	c422                	sw	s0,8(sp)
    924c:	842a                	mv	s0,a0
    924e:	852e                	mv	a0,a1
    9250:	8e01a023          	sw	zero,-1824(gp) # 20000300 <errno>
    9254:	c606                	sw	ra,12(sp)
    9256:	29a1                	jal	96ae <_isatty>
    9258:	57fd                	li	a5,-1
    925a:	00f51763          	bne	a0,a5,9268 <_isatty_r+0x20>
    925e:	8e018793          	addi	a5,gp,-1824 # 20000300 <errno>
    9262:	439c                	lw	a5,0(a5)
    9264:	c391                	beqz	a5,9268 <_isatty_r+0x20>
    9266:	c01c                	sw	a5,0(s0)
    9268:	40b2                	lw	ra,12(sp)
    926a:	4422                	lw	s0,8(sp)
    926c:	0141                	addi	sp,sp,16
    926e:	8082                	ret

00009270 <_lseek_r>:
_lseek_r():
    9270:	1141                	addi	sp,sp,-16
    9272:	c422                	sw	s0,8(sp)
    9274:	842a                	mv	s0,a0
    9276:	852e                	mv	a0,a1
    9278:	85b2                	mv	a1,a2
    927a:	8636                	mv	a2,a3
    927c:	8e01a023          	sw	zero,-1824(gp) # 20000300 <errno>
    9280:	c606                	sw	ra,12(sp)
    9282:	2925                	jal	96ba <_lseek>
    9284:	57fd                	li	a5,-1
    9286:	00f51763          	bne	a0,a5,9294 <_lseek_r+0x24>
    928a:	8e018793          	addi	a5,gp,-1824 # 20000300 <errno>
    928e:	439c                	lw	a5,0(a5)
    9290:	c391                	beqz	a5,9294 <_lseek_r+0x24>
    9292:	c01c                	sw	a5,0(s0)
    9294:	40b2                	lw	ra,12(sp)
    9296:	4422                	lw	s0,8(sp)
    9298:	0141                	addi	sp,sp,16
    929a:	8082                	ret

0000929c <__ascii_mbtowc>:
__ascii_mbtowc():
    929c:	e185                	bnez	a1,92bc <__ascii_mbtowc+0x20>
    929e:	1141                	addi	sp,sp,-16
    92a0:	006c                	addi	a1,sp,12
    92a2:	4501                	li	a0,0
    92a4:	ca11                	beqz	a2,92b8 <__ascii_mbtowc+0x1c>
    92a6:	5579                	li	a0,-2
    92a8:	ca81                	beqz	a3,92b8 <__ascii_mbtowc+0x1c>
    92aa:	00064783          	lbu	a5,0(a2)
    92ae:	c19c                	sw	a5,0(a1)
    92b0:	00064503          	lbu	a0,0(a2)
    92b4:	00a03533          	snez	a0,a0
    92b8:	0141                	addi	sp,sp,16
    92ba:	8082                	ret
    92bc:	4501                	li	a0,0
    92be:	ca19                	beqz	a2,92d4 <__ascii_mbtowc+0x38>
    92c0:	5579                	li	a0,-2
    92c2:	ca89                	beqz	a3,92d4 <__ascii_mbtowc+0x38>
    92c4:	00064783          	lbu	a5,0(a2)
    92c8:	c19c                	sw	a5,0(a1)
    92ca:	00064503          	lbu	a0,0(a2)
    92ce:	00a03533          	snez	a0,a0
    92d2:	8082                	ret
    92d4:	8082                	ret

000092d6 <__malloc_lock>:
__malloc_lock():
    92d6:	8082                	ret

000092d8 <__malloc_unlock>:
__malloc_unlock():
    92d8:	8082                	ret

000092da <_read_r>:
_read_r():
    92da:	1141                	addi	sp,sp,-16
    92dc:	c422                	sw	s0,8(sp)
    92de:	842a                	mv	s0,a0
    92e0:	852e                	mv	a0,a1
    92e2:	85b2                	mv	a1,a2
    92e4:	8636                	mv	a2,a3
    92e6:	8e01a023          	sw	zero,-1824(gp) # 20000300 <errno>
    92ea:	c606                	sw	ra,12(sp)
    92ec:	2ee9                	jal	96c6 <_read>
    92ee:	57fd                	li	a5,-1
    92f0:	00f51763          	bne	a0,a5,92fe <_read_r+0x24>
    92f4:	8e018793          	addi	a5,gp,-1824 # 20000300 <errno>
    92f8:	439c                	lw	a5,0(a5)
    92fa:	c391                	beqz	a5,92fe <_read_r+0x24>
    92fc:	c01c                	sw	a5,0(s0)
    92fe:	40b2                	lw	ra,12(sp)
    9300:	4422                	lw	s0,8(sp)
    9302:	0141                	addi	sp,sp,16
    9304:	8082                	ret

00009306 <__ascii_wctomb>:
__ascii_wctomb():
    9306:	cd91                	beqz	a1,9322 <__ascii_wctomb+0x1c>
    9308:	0ff00793          	li	a5,255
    930c:	00c7f763          	bgeu	a5,a2,931a <__ascii_wctomb+0x14>
    9310:	08a00793          	li	a5,138
    9314:	c11c                	sw	a5,0(a0)
    9316:	557d                	li	a0,-1
    9318:	8082                	ret
    931a:	00c58023          	sb	a2,0(a1)
    931e:	4505                	li	a0,1
    9320:	8082                	ret
    9322:	4501                	li	a0,0
    9324:	8082                	ret

00009326 <__gedf2>:
__gtdf2():
    9326:	0145d713          	srli	a4,a1,0x14
    932a:	001007b7          	lui	a5,0x100
    932e:	17fd                	addi	a5,a5,-1
    9330:	0146d813          	srli	a6,a3,0x14
    9334:	7ff77713          	andi	a4,a4,2047
    9338:	7ff00893          	li	a7,2047
    933c:	00b7f333          	and	t1,a5,a1
    9340:	8e2a                	mv	t3,a0
    9342:	8ff5                	and	a5,a5,a3
    9344:	81fd                	srli	a1,a1,0x1f
    9346:	8eb2                	mv	t4,a2
    9348:	7ff87813          	andi	a6,a6,2047
    934c:	82fd                	srli	a3,a3,0x1f
    934e:	03170863          	beq	a4,a7,937e <__gedf2+0x58>
    9352:	03180063          	beq	a6,a7,9372 <__gedf2+0x4c>
    9356:	eb0d                	bnez	a4,9388 <__gedf2+0x62>
    9358:	00a368b3          	or	a7,t1,a0
    935c:	00081463          	bnez	a6,9364 <__gedf2+0x3e>
    9360:	8e5d                	or	a2,a2,a5
    9362:	ca29                	beqz	a2,93b4 <__gedf2+0x8e>
    9364:	04088563          	beqz	a7,93ae <__gedf2+0x88>
    9368:	02d58863          	beq	a1,a3,9398 <__gedf2+0x72>
    936c:	4505                	li	a0,1
    936e:	ed95                	bnez	a1,93aa <__gedf2+0x84>
    9370:	8082                	ret
    9372:	00c7e8b3          	or	a7,a5,a2
    9376:	fe0880e3          	beqz	a7,9356 <__gedf2+0x30>
    937a:	5579                	li	a0,-2
    937c:	8082                	ret
    937e:	00a36533          	or	a0,t1,a0
    9382:	fd65                	bnez	a0,937a <__gedf2+0x54>
    9384:	02e80c63          	beq	a6,a4,93bc <__gedf2+0x96>
    9388:	00081463          	bnez	a6,9390 <__gedf2+0x6a>
    938c:	8e5d                	or	a2,a2,a5
    938e:	de79                	beqz	a2,936c <__gedf2+0x46>
    9390:	fcd59ee3          	bne	a1,a3,936c <__gedf2+0x46>
    9394:	fce84ce3          	blt	a6,a4,936c <__gedf2+0x46>
    9398:	01074863          	blt	a4,a6,93a8 <__gedf2+0x82>
    939c:	fc67e8e3          	bltu	a5,t1,936c <__gedf2+0x46>
    93a0:	02f30363          	beq	t1,a5,93c6 <__gedf2+0xa0>
    93a4:	00f37f63          	bgeu	t1,a5,93c2 <__gedf2+0x9c>
    93a8:	e581                	bnez	a1,93b0 <__gedf2+0x8a>
    93aa:	557d                	li	a0,-1
    93ac:	8082                	ret
    93ae:	def5                	beqz	a3,93aa <__gedf2+0x84>
    93b0:	4505                	li	a0,1
    93b2:	8082                	ret
    93b4:	4501                	li	a0,0
    93b6:	fa089be3          	bnez	a7,936c <__gedf2+0x46>
    93ba:	8082                	ret
    93bc:	8e5d                	or	a2,a2,a5
    93be:	da69                	beqz	a2,9390 <__gedf2+0x6a>
    93c0:	bf6d                	j	937a <__gedf2+0x54>
    93c2:	4501                	li	a0,0
    93c4:	8082                	ret
    93c6:	fbcee3e3          	bltu	t4,t3,936c <__gedf2+0x46>
    93ca:	4501                	li	a0,0
    93cc:	fbde72e3          	bgeu	t3,t4,9370 <__gedf2+0x4a>
    93d0:	f1e5                	bnez	a1,93b0 <__gedf2+0x8a>
    93d2:	bfe1                	j	93aa <__gedf2+0x84>

000093d4 <__unorddf2>:
__unorddf2():
    93d4:	0145d713          	srli	a4,a1,0x14
    93d8:	001007b7          	lui	a5,0x100
    93dc:	17fd                	addi	a5,a5,-1
    93de:	fff74713          	not	a4,a4
    93e2:	0146d813          	srli	a6,a3,0x14
    93e6:	8dfd                	and	a1,a1,a5
    93e8:	8ff5                	and	a5,a5,a3
    93ea:	01571693          	slli	a3,a4,0x15
    93ee:	7ff87813          	andi	a6,a6,2047
    93f2:	ca99                	beqz	a3,9408 <__unorddf2+0x34>
    93f4:	7ff00713          	li	a4,2047
    93f8:	4501                	li	a0,0
    93fa:	00e80363          	beq	a6,a4,9400 <__unorddf2+0x2c>
    93fe:	8082                	ret
    9400:	8fd1                	or	a5,a5,a2
    9402:	00f03533          	snez	a0,a5
    9406:	8082                	ret
    9408:	8dc9                	or	a1,a1,a0
    940a:	4505                	li	a0,1
    940c:	d5e5                	beqz	a1,93f4 <__unorddf2+0x20>
    940e:	8082                	ret

00009410 <__floatunsidf>:
__floatunsidf():
    9410:	cd1d                	beqz	a0,944e <__floatunsidf+0x3e>
    9412:	1141                	addi	sp,sp,-16
    9414:	c422                	sw	s0,8(sp)
    9416:	c606                	sw	ra,12(sp)
    9418:	842a                	mv	s0,a0
    941a:	976fd0ef          	jal	ra,6590 <__clzsi2>
    941e:	41e00693          	li	a3,1054
    9422:	8e89                	sub	a3,a3,a0
    9424:	47a9                	li	a5,10
    9426:	7ff6f693          	andi	a3,a3,2047
    942a:	02a7dc63          	bge	a5,a0,9462 <__floatunsidf+0x52>
    942e:	1555                	addi	a0,a0,-11
    9430:	00a417b3          	sll	a5,s0,a0
    9434:	07b2                	slli	a5,a5,0xc
    9436:	83b1                	srli	a5,a5,0xc
    9438:	4701                	li	a4,0
    943a:	40b2                	lw	ra,12(sp)
    943c:	4422                	lw	s0,8(sp)
    943e:	07b2                	slli	a5,a5,0xc
    9440:	06d2                	slli	a3,a3,0x14
    9442:	83b1                	srli	a5,a5,0xc
    9444:	8fd5                	or	a5,a5,a3
    9446:	853a                	mv	a0,a4
    9448:	85be                	mv	a1,a5
    944a:	0141                	addi	sp,sp,16
    944c:	8082                	ret
    944e:	4781                	li	a5,0
    9450:	4681                	li	a3,0
    9452:	07b2                	slli	a5,a5,0xc
    9454:	06d2                	slli	a3,a3,0x14
    9456:	83b1                	srli	a5,a5,0xc
    9458:	4701                	li	a4,0
    945a:	8fd5                	or	a5,a5,a3
    945c:	853a                	mv	a0,a4
    945e:	85be                	mv	a1,a5
    9460:	8082                	ret
    9462:	472d                	li	a4,11
    9464:	8f09                	sub	a4,a4,a0
    9466:	00e457b3          	srl	a5,s0,a4
    946a:	07b2                	slli	a5,a5,0xc
    946c:	01550713          	addi	a4,a0,21
    9470:	00e41733          	sll	a4,s0,a4
    9474:	83b1                	srli	a5,a5,0xc
    9476:	b7d1                	j	943a <__floatunsidf+0x2a>

00009478 <__trunctfdf2>:
__trunctfdf2():
    9478:	00c52803          	lw	a6,12(a0)
    947c:	4118                	lw	a4,0(a0)
    947e:	4154                	lw	a3,4(a0)
    9480:	450c                	lw	a1,8(a0)
    9482:	6521                	lui	a0,0x8
    9484:	fff50793          	addi	a5,a0,-1 # 7fff <_dtoa_r+0xbe7>
    9488:	01085613          	srli	a2,a6,0x10
    948c:	00359e13          	slli	t3,a1,0x3
    9490:	8e7d                	and	a2,a2,a5
    9492:	01d75893          	srli	a7,a4,0x1d
    9496:	01d6d793          	srli	a5,a3,0x1d
    949a:	01081313          	slli	t1,a6,0x10
    949e:	068e                	slli	a3,a3,0x3
    94a0:	1141                	addi	sp,sp,-16
    94a2:	01c7e7b3          	or	a5,a5,t3
    94a6:	0116e6b3          	or	a3,a3,a7
    94aa:	01035313          	srli	t1,t1,0x10
    94ae:	00371e13          	slli	t3,a4,0x3
    94b2:	00160893          	addi	a7,a2,1
    94b6:	1579                	addi	a0,a0,-2
    94b8:	81f5                	srli	a1,a1,0x1d
    94ba:	030e                	slli	t1,t1,0x3
    94bc:	c43e                	sw	a5,8(sp)
    94be:	c236                	sw	a3,4(sp)
    94c0:	c072                	sw	t3,0(sp)
    94c2:	00a8f533          	and	a0,a7,a0
    94c6:	01f85813          	srli	a6,a6,0x1f
    94ca:	0065e5b3          	or	a1,a1,t1
    94ce:	c905                	beqz	a0,94fe <__trunctfdf2+0x86>
    94d0:	7771                	lui	a4,0xffffc
    94d2:	40070713          	addi	a4,a4,1024 # ffffc400 <_eusrstack+0xdffec400>
    94d6:	963a                	add	a2,a2,a4
    94d8:	7fe00713          	li	a4,2046
    94dc:	04c75d63          	bge	a4,a2,9536 <__trunctfdf2+0xbe>
    94e0:	7ff00613          	li	a2,2047
    94e4:	4701                	li	a4,0
    94e6:	4781                	li	a5,0
    94e8:	0732                	slli	a4,a4,0xc
    94ea:	0652                	slli	a2,a2,0x14
    94ec:	8331                	srli	a4,a4,0xc
    94ee:	087e                	slli	a6,a6,0x1f
    94f0:	8f51                	or	a4,a4,a2
    94f2:	01076733          	or	a4,a4,a6
    94f6:	853e                	mv	a0,a5
    94f8:	85ba                	mv	a1,a4
    94fa:	0141                	addi	sp,sp,16
    94fc:	8082                	ret
    94fe:	8fd5                	or	a5,a5,a3
    9500:	8fcd                	or	a5,a5,a1
    9502:	01c7e7b3          	or	a5,a5,t3
    9506:	e205                	bnez	a2,9526 <__trunctfdf2+0xae>
    9508:	cbf1                	beqz	a5,95dc <__trunctfdf2+0x164>
    950a:	4781                	li	a5,0
    950c:	4695                	li	a3,5
    950e:	0036d593          	srli	a1,a3,0x3
    9512:	00979713          	slli	a4,a5,0x9
    9516:	01d79693          	slli	a3,a5,0x1d
    951a:	00b6e7b3          	or	a5,a3,a1
    951e:	8331                	srli	a4,a4,0xc
    9520:	7ff67613          	andi	a2,a2,2047
    9524:	b7d1                	j	94e8 <__trunctfdf2+0x70>
    9526:	dfcd                	beqz	a5,94e0 <__trunctfdf2+0x68>
    9528:	4801                	li	a6,0
    952a:	7ff00613          	li	a2,2047
    952e:	00080737          	lui	a4,0x80
    9532:	4781                	li	a5,0
    9534:	bf55                	j	94e8 <__trunctfdf2+0x70>
    9536:	0ac04663          	bgtz	a2,95e2 <__trunctfdf2+0x16a>
    953a:	fcc00793          	li	a5,-52
    953e:	0ef64f63          	blt	a2,a5,963c <__trunctfdf2+0x1c4>
    9542:	03d00793          	li	a5,61
    9546:	40c78633          	sub	a2,a5,a2
    954a:	40565793          	srai	a5,a2,0x5
    954e:	00080737          	lui	a4,0x80
    9552:	8dd9                	or	a1,a1,a4
    9554:	00279513          	slli	a0,a5,0x2
    9558:	870a                	mv	a4,sp
    955a:	4681                	li	a3,0
    955c:	c62e                	sw	a1,12(sp)
    955e:	00a108b3          	add	a7,sp,a0
    9562:	0711                	addi	a4,a4,4
    9564:	8a7d                	andi	a2,a2,31
    9566:	01c6e6b3          	or	a3,a3,t3
    956a:	01170963          	beq	a4,a7,957c <__trunctfdf2+0x104>
    956e:	00072e03          	lw	t3,0(a4) # 80000 <_data_lma+0x75b84>
    9572:	0711                	addi	a4,a4,4
    9574:	01c6e6b3          	or	a3,a3,t3
    9578:	ff171be3          	bne	a4,a7,956e <__trunctfdf2+0xf6>
    957c:	470d                	li	a4,3
    957e:	8f1d                	sub	a4,a4,a5
    9580:	ca79                	beqz	a2,9656 <__trunctfdf2+0x1de>
    9582:	01010893          	addi	a7,sp,16
    9586:	98aa                	add	a7,a7,a0
    9588:	ff08a883          	lw	a7,-16(a7) # fff0 <_data_lma+0x5b74>
    958c:	02000e13          	li	t3,32
    9590:	40ce0e33          	sub	t3,t3,a2
    9594:	01c898b3          	sll	a7,a7,t3
    9598:	0116e6b3          	or	a3,a3,a7
    959c:	cb75                	beqz	a4,9690 <__trunctfdf2+0x218>
    959e:	070a                	slli	a4,a4,0x2
    95a0:	950a                	add	a0,a0,sp
    95a2:	00e10eb3          	add	t4,sp,a4
    95a6:	888a                	mv	a7,sp
    95a8:	410c                	lw	a1,0(a0)
    95aa:	00452303          	lw	t1,4(a0)
    95ae:	0891                	addi	a7,a7,4
    95b0:	00c5d5b3          	srl	a1,a1,a2
    95b4:	01c31333          	sll	t1,t1,t3
    95b8:	0065e5b3          	or	a1,a1,t1
    95bc:	feb8ae23          	sw	a1,-4(a7)
    95c0:	0511                	addi	a0,a0,4
    95c2:	ff1e93e3          	bne	t4,a7,95a8 <__trunctfdf2+0x130>
    95c6:	4591                	li	a1,4
    95c8:	40f587b3          	sub	a5,a1,a5
    95cc:	45b2                	lw	a1,12(sp)
    95ce:	0808                	addi	a0,sp,16
    95d0:	972a                	add	a4,a4,a0
    95d2:	00c5d5b3          	srl	a1,a1,a2
    95d6:	feb72823          	sw	a1,-16(a4)
    95da:	a861                	j	9672 <__trunctfdf2+0x1fa>
    95dc:	4601                	li	a2,0
    95de:	4701                	li	a4,0
    95e0:	b721                	j	94e8 <__trunctfdf2+0x70>
    95e2:	00469713          	slli	a4,a3,0x4
    95e6:	00479513          	slli	a0,a5,0x4
    95ea:	01c76733          	or	a4,a4,t3
    95ee:	82f1                	srli	a3,a3,0x1c
    95f0:	83f1                	srli	a5,a5,0x1c
    95f2:	0592                	slli	a1,a1,0x4
    95f4:	00e03733          	snez	a4,a4
    95f8:	8ec9                	or	a3,a3,a0
    95fa:	8fcd                	or	a5,a5,a1
    95fc:	8ed9                	or	a3,a3,a4
    95fe:	0076f713          	andi	a4,a3,7
    9602:	c711                	beqz	a4,960e <__trunctfdf2+0x196>
    9604:	00f6f713          	andi	a4,a3,15
    9608:	4591                	li	a1,4
    960a:	02b71c63          	bne	a4,a1,9642 <__trunctfdf2+0x1ca>
    960e:	00800737          	lui	a4,0x800
    9612:	8f7d                	and	a4,a4,a5
    9614:	ee070de3          	beqz	a4,950e <__trunctfdf2+0x96>
    9618:	0605                	addi	a2,a2,1
    961a:	7ff00713          	li	a4,2047
    961e:	ece601e3          	beq	a2,a4,94e0 <__trunctfdf2+0x68>
    9622:	ff800737          	lui	a4,0xff800
    9626:	177d                	addi	a4,a4,-1
    9628:	8f7d                	and	a4,a4,a5
    962a:	01d71793          	slli	a5,a4,0x1d
    962e:	828d                	srli	a3,a3,0x3
    9630:	0726                	slli	a4,a4,0x9
    9632:	7ff67613          	andi	a2,a2,2047
    9636:	8fd5                	or	a5,a5,a3
    9638:	8331                	srli	a4,a4,0xc
    963a:	b57d                	j	94e8 <__trunctfdf2+0x70>
    963c:	4685                	li	a3,1
    963e:	4781                	li	a5,0
    9640:	4601                	li	a2,0
    9642:	ffc6b713          	sltiu	a4,a3,-4
    9646:	00174713          	xori	a4,a4,1
    964a:	97ba                	add	a5,a5,a4
    964c:	00800737          	lui	a4,0x800
    9650:	0691                	addi	a3,a3,4
    9652:	8f7d                	and	a4,a4,a5
    9654:	b7c1                	j	9614 <__trunctfdf2+0x19c>
    9656:	858a                	mv	a1,sp
    9658:	00a588b3          	add	a7,a1,a0
    965c:	0008a883          	lw	a7,0(a7)
    9660:	0591                	addi	a1,a1,4
    9662:	0605                	addi	a2,a2,1
    9664:	ff15ae23          	sw	a7,-4(a1)
    9668:	fec758e3          	bge	a4,a2,9658 <__trunctfdf2+0x1e0>
    966c:	4711                	li	a4,4
    966e:	40f707b3          	sub	a5,a4,a5
    9672:	078a                	slli	a5,a5,0x2
    9674:	978a                	add	a5,a5,sp
    9676:	0818                	addi	a4,sp,16
    9678:	0007a023          	sw	zero,0(a5) # 100000 <_data_lma+0xf5b84>
    967c:	0791                	addi	a5,a5,4
    967e:	fee79de3          	bne	a5,a4,9678 <__trunctfdf2+0x200>
    9682:	4702                	lw	a4,0(sp)
    9684:	00d036b3          	snez	a3,a3
    9688:	4792                	lw	a5,4(sp)
    968a:	8ed9                	or	a3,a3,a4
    968c:	4601                	li	a2,0
    968e:	bf85                	j	95fe <__trunctfdf2+0x186>
    9690:	4785                	li	a5,1
    9692:	4701                	li	a4,0
    9694:	bf2d                	j	95ce <__trunctfdf2+0x156>

00009696 <_close>:
_close():
    9696:	05800793          	li	a5,88
    969a:	8ef1a023          	sw	a5,-1824(gp) # 20000300 <errno>
    969e:	557d                	li	a0,-1
    96a0:	8082                	ret

000096a2 <_fstat>:
_fstat():
    96a2:	05800793          	li	a5,88
    96a6:	8ef1a023          	sw	a5,-1824(gp) # 20000300 <errno>
    96aa:	557d                	li	a0,-1
    96ac:	8082                	ret

000096ae <_isatty>:
_isatty():
    96ae:	05800793          	li	a5,88
    96b2:	8ef1a023          	sw	a5,-1824(gp) # 20000300 <errno>
    96b6:	4501                	li	a0,0
    96b8:	8082                	ret

000096ba <_lseek>:
_lseek():
    96ba:	05800793          	li	a5,88
    96be:	8ef1a023          	sw	a5,-1824(gp) # 20000300 <errno>
    96c2:	557d                	li	a0,-1
    96c4:	8082                	ret

000096c6 <_read>:
_read():
    96c6:	05800793          	li	a5,88
    96ca:	8ef1a023          	sw	a5,-1824(gp) # 20000300 <errno>
    96ce:	557d                	li	a0,-1
    96d0:	8082                	ret

000096d2 <_sbrk>:
_sbrk():
    96d2:	88c18793          	addi	a5,gp,-1908 # 200002ac <heap_end.1518>
    96d6:	439c                	lw	a5,0(a5)
    96d8:	c791                	beqz	a5,96e4 <_sbrk+0x12>
    96da:	953e                	add	a0,a0,a5
    96dc:	88a1a623          	sw	a0,-1908(gp) # 200002ac <heap_end.1518>
    96e0:	853e                	mv	a0,a5
    96e2:	8082                	ret
    96e4:	8e418793          	addi	a5,gp,-1820 # 20000304 <_ebss>
    96e8:	953e                	add	a0,a0,a5
    96ea:	88a1a623          	sw	a0,-1908(gp) # 200002ac <heap_end.1518>
    96ee:	853e                	mv	a0,a5
    96f0:	8082                	ret
    96f2:	0000                	unimp
    96f4:	3a44                	fld	fs1,176(a2)
    96f6:	6f72702f          	0x6f72702f
    96fa:	656a                	flw	fa0,152(sp)
    96fc:	2f737463          	bgeu	t1,s7,99e4 <tft_ascii+0x164>
    9700:	656d                	lui	a0,0x1b
    9702:	6e616863          	bltu	sp,t1,9df2 <tft_ascii+0x572>
    9706:	6369                	lui	t1,0x1a
    9708:	6c61                	lui	s8,0x18
    970a:	615f 6d72 462f      	0x462f6d72615f
    9710:	7269                	lui	tp,0xffffa
    9712:	776d                	lui	a4,0xffffb
    9714:	7261                	lui	tp,0xffff8
    9716:	2f65                	jal	9ece <MyReportDescHD+0x6>
    9718:	7241                	lui	tp,0xffff0
    971a:	4d6d                	li	s10,27
    971c:	6961                	lui	s2,0x18
    971e:	436e                	lw	t1,216(sp)
    9720:	72746e6f          	jal	t3,50646 <_data_lma+0x461ca>
    9724:	72656c6f          	jal	s8,5fe4a <_data_lma+0x559ce>
    9728:	62696c2f          	0x62696c2f
    972c:	6172                	flw	ft2,28(sp)
    972e:	6972                	flw	fs2,28(sp)
    9730:	7365                	lui	t1,0xffff9
    9732:	5f667a2f          	0x5f667a2f
    9736:	7264                	flw	fs1,100(a2)
    9738:	7669                	lui	a2,0xffffa
    973a:	7265                	lui	tp,0xffff9
    973c:	5f667a2f          	0x5f667a2f
    9740:	7264                	flw	fs1,100(a2)
    9742:	7669                	lui	a2,0xffffa
    9744:	7265                	lui	tp,0xffff9
    9746:	735f 6970 632e      	0x632e6970735f
    974c:	0000                	unimp
    974e:	0000                	unimp
    9750:	3a44                	fld	fs1,176(a2)
    9752:	6f72702f          	0x6f72702f
    9756:	656a                	flw	fa0,152(sp)
    9758:	2f737463          	bgeu	t1,s7,9a40 <tft_ascii+0x1c0>
    975c:	656d                	lui	a0,0x1b
    975e:	6e616863          	bltu	sp,t1,9e4e <tft_ascii+0x5ce>
    9762:	6369                	lui	t1,0x1a
    9764:	6c61                	lui	s8,0x18
    9766:	615f 6d72 462f      	0x462f6d72615f
    976c:	7269                	lui	tp,0xffffa
    976e:	776d                	lui	a4,0xffffb
    9770:	7261                	lui	tp,0xffff8
    9772:	2f65                	jal	9f2a <MyUSBQUADescHD+0x1a>
    9774:	7241                	lui	tp,0xffff0
    9776:	4d6d                	li	s10,27
    9778:	6961                	lui	s2,0x18
    977a:	436e                	lw	t1,216(sp)
    977c:	72746e6f          	jal	t3,506a2 <_data_lma+0x46226>
    9780:	72656c6f          	jal	s8,5fea6 <_data_lma+0x55a2a>
    9784:	62696c2f          	0x62696c2f
    9788:	6172                	flw	ft2,28(sp)
    978a:	6972                	flw	fs2,28(sp)
    978c:	7365                	lui	t1,0xffff9
    978e:	5f667a2f          	0x5f667a2f
    9792:	6564                	flw	fs1,76(a0)
    9794:	6976                	flw	fs2,92(sp)
    9796:	7a2f6563          	bltu	t5,sp,9f40 <MyUSBQUADescHD+0x30>
    979a:	5f66                	lw	t5,120(sp)
    979c:	6564                	flw	fs1,76(a0)
    979e:	6976                	flw	fs2,92(sp)
    97a0:	745f6563          	bltu	t5,t0,9eea <MyManuInfoHD+0xe>
    97a4:	7466                	flw	fs0,120(sp)
    97a6:	3831                	jal	8fc2 <_vfiprintf_r+0x17c>
    97a8:	2e30                	fld	fa2,88(a2)
    97aa:	00000063          	beqz	zero,97aa <_sbrk+0xd8>
    97ae:	3f80                	fld	fs0,56(a5)
    97b0:	0000                	unimp
    97b2:	4120                	lw	s0,64(a0)
    97b4:	7341                	lui	t1,0xffff0
    97b6:	74726573          	csrrsi	a0,0x747,4
    97ba:	6520                	flw	fs0,72(a0)
    97bc:	7272                	flw	ft4,60(sp)
    97be:	6920726f          	jal	tp,10e50 <_data_lma+0x69d4>
    97c2:	206e                	fld	ft0,216(sp)
    97c4:	7325                	lui	t1,0xfffe9
    97c6:	6c20                	flw	fs0,88(s0)
    97c8:	6e69                	lui	t3,0x1a
    97ca:	2065                	jal	9872 <uart_index+0x12>
    97cc:	6425                	lui	s0,0x9
    97ce:	0d2e                	slli	s10,s10,0xb
    97d0:	000a                	c.slli	zero,0x2
    97d2:	0000                	unimp
    97d4:	6f4c                	flw	fa1,28(a4)
    97d6:	656d2067          	0x656d2067
    97da:	67617373          	csrrci	t1,0x676,2
    97de:	2065                	jal	9886 <tft_ascii+0x6>
    97e0:	7266                	flw	ft4,120(sp)
    97e2:	25206d6f          	jal	s10,fa34 <_data_lma+0x55b8>
    97e6:	696c2073          	csrs	0x696,s8
    97ea:	656e                	flw	fa0,216(sp)
    97ec:	2520                	fld	fs0,72(a0)
    97ee:	2064                	fld	fs1,192(s0)
    97f0:	223a                	fld	ft4,392(sp)
    97f2:	7325                	lui	t1,0xfffe9
    97f4:	2e22                	fld	ft8,8(sp)
    97f6:	0a0d                	addi	s4,s4,3
    97f8:	0000                	unimp
    97fa:	0000                	unimp
    97fc:	420a                	lw	tp,128(sp)
    97fe:	7561                	lui	a0,0xffff8
    9800:	2064                	fld	fs1,192(s0)
    9802:	6152                	flw	ft2,20(sp)
    9804:	6574                	flw	fa3,76(a0)
    9806:	3d20                	fld	fs0,120(a0)
    9808:	2520                	fld	fs0,72(a0)
    980a:	0064                	addi	s1,sp,12
    980c:	640a                	flw	fs0,128(sp)
    980e:	7461                	lui	s0,0xffff8
    9810:	4261                	li	tp,24
    9812:	7469                	lui	s0,0xffffa
    9814:	3d20                	fld	fs0,120(a0)
    9816:	2520                	fld	fs0,72(a0)
    9818:	0064                	addi	s1,sp,12
    981a:	0000                	unimp
    981c:	730a                	flw	ft6,160(sp)
    981e:	6f74                	flw	fa3,92(a4)
    9820:	4270                	lw	a2,68(a2)
    9822:	7469                	lui	s0,0xffffa
    9824:	3d20                	fld	fs0,120(a0)
    9826:	2520                	fld	fs0,72(a0)
    9828:	0064                	addi	s1,sp,12
    982a:	0000                	unimp
    982c:	700a                	flw	ft0,160(sp)
    982e:	7261                	lui	tp,0xffff8
    9830:	7469                	lui	s0,0xffffa
    9832:	5479                	li	s0,-2
    9834:	7079                	c.lui	zero,0xffffe
    9836:	2065                	jal	98de <tft_ascii+0x5e>
    9838:	203d                	jal	9866 <uart_index+0x6>
    983a:	6425                	lui	s0,0x9
    983c:	0000                	unimp
	...

00009840 <gpio_group>:
    9840:	0800 4001 0c00 4001 1000 4001 1400 4001     ...@...@...@...@
    9850:	1800 4001                                   ...@

00009854 <spi_index>:
    9854:	3000 4001 3800 4000 3c00 4000               .0.@.8.@.<.@

00009860 <uart_index>:
    9860:	3800 4001 4400 4000 4800 4000 4c00 4000     .8.@.D.@.H.@.L.@
    9870:	5000 4000 1800 4000 1c00 4000 2000 4000     .P.@...@...@. .@

00009880 <tft_ascii>:
	...
    9890:	0000 0800 0808 0808 0808 0000 0808 0000     ................
    98a0:	4800 2424 0012 0000 0000 0000 0000 0000     .H$$............
    98b0:	0000 4800 4848 247e 2424 247e 2424 0000     ...HHH~$$$~$$$..
    98c0:	0000 3c10 5252 1c12 5030 5250 3c52 1010     ...<RR..0PPRR<..
    98d0:	0000 2200 1525 0d15 582a 5454 2252 0000     ..."%...*XTTR"..
    98e0:	0000 0c00 1212 0a12 2576 1929 6e91 0000     ........v%)..n..
    98f0:	0600 0404 0002 0000 0000 0000 0000 0000     ................
    9900:	4000 1020 0810 0808 0808 1008 2010 0040     .@ .......... @.
    9910:	0200 0804 1008 1010 1010 0810 0408 0002     ................
    9920:	0000 0000 0808 1c6b 6b1c 0808 0000 0000     ......k..k......
    9930:	0000 0000 1000 1010 10fe 1010 0000 0000     ................
	...
    994c:	0406 0204 0000 0000 0000 0000 007e 0000     ............~...
	...
    996c:	0606 0000 0000 2040 2020 1010 0808 0408     ......@   ......
    997c:	0204 0002 0000 1800 4224 4242 4242 4242     ........$BBBBBBB
    998c:	1824 0000 0000 1000 101c 1010 1010 1010     $...............
    999c:	7c10 0000 0000 3c00 4242 4042 1020 0408     .|.....<BBB@ ...
    99ac:	7e42 0000 0000 3c00 4242 2040 2018 4240     B~.....<BB@ . @B
    99bc:	3c42 0000 0000 2000 3030 2428 2224 20fe     B<..... 00($$". 
    99cc:	f820 0000 0000 7e00 0202 1e02 4022 4240      ......~...."@@B
    99dc:	1c22 0000 0000 1800 0224 3a02 4246 4242     ".......$..:FBBB
    99ec:	3844 0000 0000 7e00 2042 1020 0810 0808     D8.....~B  .....
    99fc:	0808 0000 0000 3c00 4242 2442 2418 4242     .......<BBB$.$BB
    9a0c:	3c42 0000 0000 1c00 4222 4242 5c62 4040     B<......"BBBb\@@
    9a1c:	1824 0000 0000 0000 0000 1818 0000 0000     $...............
    9a2c:	1818 0000 0000 0000 0000 0800 0000 0000     ................
    9a3c:	0800 0808 0000 4000 1020 0408 0402 1008     .......@ .......
    9a4c:	4020 0000 0000 0000 0000 007e 7e00 0000      @........~..~..
    9a5c:	0000 0000 0000 0200 0804 2010 2040 0810     ........... @ ..
    9a6c:	0204 0000 0000 3c00 4242 2046 1010 0010     .......<BBF ....
    9a7c:	1818 0000 0000 1c00 5a22 5555 5555 3a55     ........"ZUUUUU:
    9a8c:	3c42 0000 0000 0800 1808 1414 3c24 4222     B<..........$<"B
    9a9c:	e742 0000 0000 1f00 2222 1e22 4222 4242     B......."""."BBB
    9aac:	1f22 0000 0000 7c00 4242 0101 0101 4201     "......|BB.....B
    9abc:	1c22 0000 0000 1f00 4222 4242 4242 4242     "......."BBBBBBB
    9acc:	1f22 0000 0000 3f00 1242 1e12 1212 4202     "......?B......B
    9adc:	3f42 0000 0000 3f00 1242 1e12 1212 0202     B?.....?B.......
    9aec:	0702 0000 0000 3c00 2222 0101 7101 2221     .......<""...q!"
    9afc:	1c22 0000 0000 e700 4242 4242 427e 4242     ".......BBBB~BBB
    9b0c:	e742 0000 0000 3e00 0808 0808 0808 0808     B......>........
    9b1c:	3e08 0000 0000 7c00 1010 1010 1010 1010     .>.....|........
    9b2c:	1010 0f11 0000 7700 1222 0e0a 120a 2212     .......w"......"
    9b3c:	7722 0000 0000 0700 0202 0202 0202 0202     "w..............
    9b4c:	7f42 0000 0000 7700 3636 3636 2a36 2a2a     B......w66666***
    9b5c:	6b2a 0000 0000 e300 4646 4a4a 5252 6252     *k......FFJJRRRb
    9b6c:	4762 0000 0000 1c00 4122 4141 4141 4141     bG......"AAAAAAA
    9b7c:	1c22 0000 0000 3f00 4242 4242 023e 0202     "......?BBBB>...
    9b8c:	0702 0000 0000 1c00 4122 4141 4141 4d41     ........"AAAAAAM
    9b9c:	1c32 0060 0000 3f00 4242 3e42 1212 2222     2.`....?BBB>..""
    9bac:	c742 0000 0000 7c00 4242 0402 2018 4240     B......|BB... @B
    9bbc:	3e42 0000 0000 7f00 0849 0808 0808 0808     B>......I.......
    9bcc:	1c08 0000 0000 e700 4242 4242 4242 4242     ........BBBBBBBB
    9bdc:	3c42 0000 0000 e700 4242 2422 1424 1814     B<......BB"$$...
    9bec:	0808 0000 0000 6b00 2a2a 2a2a 362a 1414     .......k*****6..
    9bfc:	1414 0000 0000 e700 2442 1824 1818 2424     ........B$$...$$
    9c0c:	e742 0000 0000 7700 2222 1414 0808 0808     B......w""......
    9c1c:	1c08 0000 0000 7e00 2021 1010 0408 4204     .......~! .....B
    9c2c:	3f42 0000 7800 0808 0808 0808 0808 0808     B?...x..........
    9c3c:	0808 0078 0000 0402 0404 0808 1008 2010     ..x............ 
    9c4c:	2020 4040 1e00 1010 1010 1010 1010 1010       @@............
    9c5c:	1010 001e 1800 0024 0000 0000 0000 0000     ......$.........
	...
    9c7c:	0000 ff00 0600 0008 0000 0000 0000 0000     ................
	...
    9c94:	0000 1c00 3022 222c 6c32 0000 0000 0000     ...."0,"2l......
    9ca4:	0203 1a02 4226 4242 1a26 0000 0000 0000     ....&BBB&.......
    9cb4:	0000 3800 0244 0202 3844 0000 0000 0000     ...8D...D8......
    9cc4:	4060 7c40 4242 4242 dc62 0000 0000 0000     `@@|BBBBb.......
    9cd4:	0000 3c00 4242 027e 3c42 0000 0000 0000     ...<BB~.B<......
    9ce4:	4830 3e08 0808 0808 3e08 0000 0000 0000     0H.>.....>......
    9cf4:	0000 7c00 2222 021c 423c 3c42 0000 0000     ...|""..<BB<....
    9d04:	0203 3a02 4246 4242 e742 0000 0000 0c00     ...:FBBBB.......
    9d14:	000c 0e00 0808 0808 3e08 0000 0000 3000     .........>.....0
    9d24:	0030 3800 2020 2020 2020 1e22 0000 0000     0..8      ".....
    9d34:	0203 7202 0a12 120e 7722 0000 0000 0800     ...r...."w......
    9d44:	080e 0808 0808 0808 3e08 0000 0000 0000     .........>......
    9d54:	0000 7f00 9292 9292 b792 0000 0000 0000     ................
    9d64:	0000 3b00 4246 4242 e742 0000 0000 0000     ...;FBBBB.......
    9d74:	0000 3c00 4242 4242 3c42 0000 0000 0000     ...<BBBBB<......
    9d84:	0000 1b00 4226 4242 1a26 0702 0000 0000     ....&BBB&.......
    9d94:	0000 5800 4264 4242 5864 e040 0000 0000     ...XdBBBdX@.....
    9da4:	0000 7700 044c 0404 1f04 0000 0000 0000     ...wL...........
    9db4:	0000 7c00 0242 403c 3e42 0000 0000 0000     ...|B.<@B>......
    9dc4:	0800 3e08 0808 0808 3048 0000 0000 0000     ...>....H0......
    9dd4:	0000 6300 4242 4242 dc62 0000 0000 0000     ...cBBBBb.......
    9de4:	0000 7700 2222 1414 0808 0000 0000 0000     ...w""..........
    9df4:	0000 db00 5291 2a5a 2424 0000 0000 0000     .....RZ*$$......
    9e04:	0000 6e00 1824 1818 7624 0000 0000 0000     ...n$...$v......
    9e14:	0000 e700 2442 1824 0818 0608 0000 0000     ....B$$.........
    9e24:	0000 7e00 1022 0808 7e44 0000 c000 2020     ...~"...D~....  
    9e34:	2020 2020 2010 2020 2020 00c0 1010 1010         .     ......
    9e44:	1010 1010 1010 1010 1010 1010 0300 0404     ................
    9e54:	0404 0404 0408 0404 0404 0003 5a04 0020     .............Z .
	...

00009e70 <MyDevDescrHD>:
    9e70:	0112 0200 0002 0800 1a86 5722 0100 0201     .........."W....
    9e80:	0103 0000                                   ....

00009e84 <MyCfgDescrHD>:
    9e84:	0209 0043 0102 a000 0932 0004 0100 0202     ..C.....2.......
    9e94:	0001 2405 1000 0501 0124 0000 2404 0202     ...$....$....$..
    9ea4:	2405 0006 0701 8105 4003 ff00 0409 0001     .$.......@......
    9eb4:	0a02 0000 0700 0205 4002 0000 0507 0282     .........@......
    9ec4:	0040 0000                                   @...

00009ec8 <MyReportDescHD>:
    9ec8:	0314 0032 0030 0031 0037 002d 0032 002d     ..2.0.1.7.-.2.-.
    9ed8:	0032 0035                                   2.5.

00009edc <MyManuInfoHD>:
    9edc:	030e 0077 0063 0068 002e 0063 006e 0000     ..w.c.h...c.n...

00009eec <MyProdInfoHD>:
    9eec:	030c 0043 0048 0033 0030 0037               ..C.H.3.0.7.

00009ef8 <MySerNumInfoHD>:
    9ef8:	0316 0030 0031 0032 0033 0034 0035 0036     ..0.1.2.3.4.5.6.
    9f08:	0037 0038 0039 0000                         7.8.9...

00009f10 <MyUSBQUADescHD>:
    9f10:	060a 0200 00ff 40ff 0001 0000 4524 0000     .......@....$E..
    9f20:	4278 0000 4632 0000 436e 0000 4632 0000     xB..2F..nC..2F..
    9f30:	420e 0000 4050 0000 4632 0000 4232 0000     .B..P@..2F..2B..
    9f40:	425a 0000 44e8 0000 4508 0000 4198 0000     ZB...D...E...A..
    9f50:	4082 0000 4094 0000 40a8 0000 4198 0000     .@...@...@...A..
    9f60:	4198 0000 4140 0000 4152 0000 4198 0000     .A..@A..RA...A..
    9f70:	4198 0000 4198 0000 4198 0000 4198 0000     .A...A...A...A..
    9f80:	4198 0000 4198 0000 4190 0000 4198 0000     .A...A...A...A..
    9f90:	4198 0000 4198 0000 4198 0000 4198 0000     .A...A...A...A..
    9fa0:	4198 0000 4198 0000 4198 0000 4198 0000     .A...A...A...A..
    9fb0:	4198 0000 4198 0000 4198 0000 4198 0000     .A...A...A...A..
    9fc0:	4198 0000 4198 0000 4198 0000 4198 0000     .A...A...A...A..
    9fd0:	4198 0000 412e 0000 b45c ffff b2e0 ffff     .A...A..\.......
    9fe0:	b3f0 ffff b3f8 ffff b3f0 ffff b310 ffff     ................
    9ff0:	b3f0 ffff b3f8 ffff b2e0 ffff b2e0 ffff     ................
    a000:	b310 ffff b3f8 ffff b452 ffff b452 ffff     ........R...R...
    a010:	b452 ffff b310 ffff babe ffff b9b0 ffff     R...............
    a020:	b9b0 ffff b9ae ffff b9b6 ffff b9b6 ffff     ................
    a030:	b97c ffff b9ae ffff b9b6 ffff b97c ffff     |...........|...
    a040:	b9b6 ffff b9ae ffff baaa ffff baaa ffff     ................
    a050:	baaa ffff b97c ffff                         ....|...

0000a058 <__clz_tab>:
    a058:	0100 0202 0303 0303 0404 0404 0404 0404     ................
    a068:	0505 0505 0505 0505 0505 0505 0505 0505     ................
    a078:	0606 0606 0606 0606 0606 0606 0606 0606     ................
    a088:	0606 0606 0606 0606 0606 0606 0606 0606     ................
    a098:	0707 0707 0707 0707 0707 0707 0707 0707     ................
    a0a8:	0707 0707 0707 0707 0707 0707 0707 0707     ................
    a0b8:	0707 0707 0707 0707 0707 0707 0707 0707     ................
    a0c8:	0707 0707 0707 0707 0707 0707 0707 0707     ................
    a0d8:	0808 0808 0808 0808 0808 0808 0808 0808     ................
    a0e8:	0808 0808 0808 0808 0808 0808 0808 0808     ................
    a0f8:	0808 0808 0808 0808 0808 0808 0808 0808     ................
    a108:	0808 0808 0808 0808 0808 0808 0808 0808     ................
    a118:	0808 0808 0808 0808 0808 0808 0808 0808     ................
    a128:	0808 0808 0808 0808 0808 0808 0808 0808     ................
    a138:	0808 0808 0808 0808 0808 0808 0808 0808     ................
    a148:	0808 0808 0808 0808 0808 0808 0808 0808     ................
    a158:	ffff ffff ffff 7fef 4e49 0046 6e69 0066     ........INF.inf.
    a168:	414e 004e 616e 006e 0030 0000 3130 3332     NAN.nan.0...0123
    a178:	3534 3736 3938 4241 4443 4645 0000 0000     456789ABCDEF....
    a188:	3130 3332 3534 3736 3938 6261 6463 6665     0123456789abcdef
	...
    a1a4:	0000 3ff8 4361 636f 87a7 3fd2 c8b3 8b60     ...?aCoc...?..`.
    a1b4:	8a28 3fc6 79fb 509f 4413 3fd3 0000 0000     (..?.y.P.D.?....
    a1c4:	0000 3ff0 0000 0000 0000 4024 0000 0000     ...?......$@....
    a1d4:	0000 401c 0000 0000 0000 4014 0000 0000     ...@.......@....
    a1e4:	0000 3fe0 6e49 6966 696e 7974 0000 0000     ...?Infinity....
    a1f4:	614e 004e                                   NaN.

0000a1f8 <__sf_fake_stderr>:
	...

0000a218 <__sf_fake_stdin>:
	...

0000a238 <__sf_fake_stdout>:
	...

0000a258 <__mprec_bigtens>:
    a258:	8000 37e0 c379 4341 6e17 b505 b8b5 4693     ...7y.AC.n.....F
    a268:	f9f5 e93f 4f03 4d38 1d32 f930 7748 5a82     ..?..O8M2.0.Hw.Z
    a278:	bf3c 7f73 4fdd 7515                         <.s..O.u

0000a280 <__mprec_tens>:
    a280:	0000 0000 0000 3ff0 0000 0000 0000 4024     .......?......$@
    a290:	0000 0000 0000 4059 0000 0000 4000 408f     ......Y@.....@.@
    a2a0:	0000 0000 8800 40c3 0000 0000 6a00 40f8     .......@.....j.@
    a2b0:	0000 0000 8480 412e 0000 0000 12d0 4163     .......A......cA
    a2c0:	0000 0000 d784 4197 0000 0000 cd65 41cd     .......A....e..A
    a2d0:	0000 2000 a05f 4202 0000 e800 4876 4237     ... _..B....vH7B
    a2e0:	0000 a200 1a94 426d 0000 e540 309c 42a2     ......mB..@..0.B
    a2f0:	0000 1e90 bcc4 42d6 0000 2634 6bf5 430c     .......B..4&.k.C
    a300:	8000 37e0 c379 4341 a000 85d8 3457 4376     ...7y.AC....W4vC
    a310:	c800 674e c16d 43ab 3d00 6091 58e4 43e1     ..Ngm..C.=.`.X.C
    a320:	8c40 78b5 af1d 4415 ef50 d6e2 1ae4 444b     @..x...DP.....KD
    a330:	d592 064d f0cf 4480 4af6 c7e1 2d02 44b5     ..M....D.J...-.D
    a340:	9db4 79d9 7843 44ea                         ...yCx.D

0000a348 <p05.3319>:
    a348:	0005 0000 0019 0000 007d 0000 2d23 2b30     ........}...#-0+
    a358:	0020 0000 6c68 004c 6665 4567 4746 0000      ...hlL.efgEFG..
    a368:	0043 0000 4f50 4953 0058 0000 002e 0000     C...POSIX.......

0000a378 <_ctype_>:
    a378:	2000 2020 2020 2020 2020 2828 2828 2028     .         ((((( 
    a388:	2020 2020 2020 2020 2020 2020 2020 2020                     
    a398:	8820 1010 1010 1010 1010 1010 1010 1010      ...............
    a3a8:	0410 0404 0404 0404 0404 1004 1010 1010     ................
    a3b8:	1010 4141 4141 4141 0101 0101 0101 0101     ..AAAAAA........
    a3c8:	0101 0101 0101 0101 0101 0101 1010 1010     ................
    a3d8:	1010 4242 4242 4242 0202 0202 0202 0202     ..BBBBBB........
    a3e8:	0202 0202 0202 0202 0202 0202 1010 1010     ................
    a3f8:	0020 0000 0000 0000 0000 0000 0000 0000      ...............
	...
