
TcpClient.elf:     file format elf32-littleriscv
TcpClient.elf
architecture: riscv:rv32, flags 0x00000112:
EXEC_P, HAS_SYMS, D_PAGED
start address 0x00000000

Program Header:
    LOAD off    0x00001000 vaddr 0x00000000 paddr 0x00000000 align 2**12
         filesz 0x000085d4 memsz 0x000085d4 flags r-x
    LOAD off    0x0000a000 vaddr 0x20000000 paddr 0x000085d4 align 2**12
         filesz 0x00000068 memsz 0x0000c430 flags rw-
    LOAD off    0x0000a800 vaddr 0x2001f800 paddr 0x2001f800 align 2**12
         filesz 0x00000000 memsz 0x00000800 flags rw-

Sections:
Idx Name           Size      VMA       LMA       File off  Algn  Flags
  0 .init          00000038  00000000  00000000  00001000  2**1  CONTENTS, ALLOC, LOAD, READONLY, CODE
  1 .vector        000001c8  00000038  00000038  00001038  2**1  CONTENTS, ALLOC, LOAD, READONLY, CODE
  2 .text          000083d4  00000200  00000200  00001200  2**2  CONTENTS, ALLOC, LOAD, READONLY, CODE
  3 .fini          00000000  000085d4  000085d4  0000a068  2**0  CONTENTS, ALLOC, LOAD, CODE
  4 .dalign        00000000  20000000  20000000  0000a068  2**0  CONTENTS
  5 .dlalign       00000000  000085d4  000085d4  0000a068  2**0  CONTENTS
  6 .data          00000068  20000000  000085d4  0000a000  2**2  CONTENTS, ALLOC, LOAD, DATA
  7 .bss           0000c3c8  20000068  0000863c  0000a068  2**2  ALLOC
  8 .stack         00000800  2001f800  2001f800  0000a800  2**0  ALLOC
  9 .debug_info    0000ef10  00000000  00000000  0000a068  2**0  CONTENTS, READONLY, DEBUGGING
 10 .debug_abbrev  0000250d  00000000  00000000  00018f78  2**0  CONTENTS, READONLY, DEBUGGING
 11 .debug_aranges 00000c98  00000000  00000000  0001b488  2**3  CONTENTS, READONLY, DEBUGGING
 12 .debug_ranges  00000d30  00000000  00000000  0001c120  2**3  CONTENTS, READONLY, DEBUGGING
 13 .debug_line    0000e392  00000000  00000000  0001ce50  2**0  CONTENTS, READONLY, DEBUGGING
 14 .debug_str     00004544  00000000  00000000  0002b1e2  2**0  CONTENTS, READONLY, DEBUGGING
 15 .comment       00000033  00000000  00000000  0002f726  2**0  CONTENTS, READONLY
 16 .debug_frame   00001ba8  00000000  00000000  0002f75c  2**2  CONTENTS, READONLY, DEBUGGING
 17 .debug_loc     0000510d  00000000  00000000  00031304  2**0  CONTENTS, READONLY, DEBUGGING
SYMBOL TABLE:
00000000 l    d  .init	00000000 .init
00000038 l    d  .vector	00000000 .vector
00000200 l    d  .text	00000000 .text
000085d4 l    d  .fini	00000000 .fini
20000000 l    d  .dalign	00000000 .dalign
000085d4 l    d  .dlalign	00000000 .dlalign
20000000 l    d  .data	00000000 .data
20000068 l    d  .bss	00000000 .bss
2001f800 l    d  .stack	00000000 .stack
00000000 l    d  .debug_info	00000000 .debug_info
00000000 l    d  .debug_abbrev	00000000 .debug_abbrev
00000000 l    d  .debug_aranges	00000000 .debug_aranges
00000000 l    d  .debug_ranges	00000000 .debug_ranges
00000000 l    d  .debug_line	00000000 .debug_line
00000000 l    d  .debug_str	00000000 .debug_str
00000000 l    d  .comment	00000000 .comment
00000000 l    d  .debug_frame	00000000 .debug_frame
00000000 l    d  .debug_loc	00000000 .debug_loc
00000000 l    df *ABS*	00000000 ./Startup/startup_ch32v30x_D8C.o
00000038 l       .vector	00000000 _vector_base
00000000 l    df *ABS*	00000000 ch32v30x_it.c
00000000 l    df *ABS*	00000000 main.c
00000000 l    df *ABS*	00000000 system_ch32v30x.c
00000000 l    df *ABS*	00000000 ch32v30x_eth.c
00000000 l    df *ABS*	00000000 ch32v30x_flash.c
00000000 l    df *ABS*	00000000 ch32v30x_gpio.c
00000000 l    df *ABS*	00000000 ch32v30x_rcc.c
20000000 l     O .data	00000010 APBAHBPrescTable
20000028 l     O .data	00000004 ADCPrescTable
00000000 l    df *ABS*	00000000 ch32v30x_tim.c
00000000 l    df *ABS*	00000000 ch32v30x_usart.c
00000000 l    df *ABS*	00000000 debug.c
20000068 l     O .bss	00000002 p_ms
2000006a l     O .bss	00000001 p_us
00000000 l    df *ABS*	00000000 core_riscv.c
00000000 l    df *ABS*	00000000 eth_driver.c
00000000 l    df *ABS*	00000000 socket.c
00000000 l    df *ABS*	00000000 etharp.c
000024f2 l     F .text	0000017a find_entry
0000266c l     F .text	000000ac update_arp_entry
20000078 l     O .bss	00000001 etharp_cached_entry
00000000 l    df *ABS*	00000000 ethernetif.c
00002c3c l     F .text	000000a4 low_level_output
2000009c l     O .bss	00000001 MacRevcNull
00000000 l    df *ABS*	00000000 inet.c
00000000 l    df *ABS*	00000000 ip.c
200000c0 l     O .bss	00000002 ip_id.6659
00000000 l    df *ABS*	00000000 ip_addr.c
00000000 l    df *ABS*	00000000 ip_frag.c
200000c2 l     O .bss	00000002 ip_reass_pbufcount
200000c4 l     O .bss	00000004 reassdatagrams
00000000 l    df *ABS*	00000000 init.c
00000000 l    df *ABS*	00000000 mem.c
200000c8 l     O .bss	00000004 lfree
200000cc l     O .bss	00000004 ram
200000d0 l     O .bss	00000004 ram_end
00000000 l    df *ABS*	00000000 memp.c
200002f8 l     O .bss	00000020 memp_tab
00000000 l    df *ABS*	00000000 netif.c
200000dc l     O .bss	00000001 netifnum.6387
00000000 l    df *ABS*	00000000 pbuf.c
00000000 l    df *ABS*	00000000 raw.c
200000e0 l     O .bss	00000004 raw_pcbs
00000000 l    df *ABS*	00000000 tcp.c
000044c8 l     F .text	0000005c tcp_new_port
200000f4 l     O .bss	00000001 tcp_timer
20000038 l     O .data	00000004 iss.6791
2000003c l     O .data	00000002 port.6623
00000000 l    df *ABS*	00000000 tcp_in.c
00004f10 l     F .text	000000ce tcp_oos_insert_segment
00004fde l     F .text	000008c8 tcp_receive
000058a6 l     F .text	000000a2 tcp_parseopt.isra.0
20000318 l     O .bss	00000014 inseg
20000100 l     O .bss	00000004 ackno
20000104 l     O .bss	00000001 flags
20000108 l     O .bss	00000004 iphdr
2000010c l     O .bss	00000004 recv_data
20000110 l     O .bss	00000001 recv_flags
20000114 l     O .bss	00000004 seqno
2000011c l     O .bss	00000004 tcphdr
20000120 l     O .bss	00000002 tcplen
00000000 l    df *ABS*	00000000 tcp_out.c
000062fa l     F .text	000000cc tcp_output_set_header.isra.0.constprop.1
00000000 l    df *ABS*	00000000 udp.c
00000000 l    df *ABS*	00000000 ipcheck.c
00000000 l    df *ABS*	00000000 wchnet_dhcp.c
000074b0 l     F .text	0000000e dhcp_set_state
000074be l     F .text	00000020 dhcp_option
000074de l     F .text	00000012 dhcp_option_byte
000074f0 l     F .text	00000048 dhcp_option_long
00007538 l     F .text	00000034 dhcp_option_trailer
0000756c l     F .text	0000017e dhcp_create_request
000076ea l     F .text	00000020 dhcp_delete_request
20000040 l     O .data	00000004 xid.6638
00000000 l    df *ABS*	00000000 icmp.c
0000788e l     F .text	00000076 icmp_send_response.isra.0
00000000 l    df *ABS*	00000000 inet_chksum.c
00007b7c l     F .text	0000007e lwip_standard_chksum
00000000 l    df *ABS*	00000000 wchprintf.c
00000000 l    df *ABS*	00000000 memcpy.c
00007f94  w    F .text	00000004 printDouble
0000084a  w      .text	00000000 EXTI2_IRQHandler
00007cf2 g     F .text	00000014 inet_chksum
000005f4 g     F .text	0000007e WCHNET_HandleGlobalInt
00000892  w      .text	00000000 TIM8_TRG_COM_IRQHandler
000043c8 g     F .text	0000001e raw_bind
000036b0 g     F .text	000003d6 ip_reass
00000894  w      .text	00000000 TIM8_CC_IRQHandler
00004220 g     F .text	00000058 pbuf_realloc
20000022 g     O .data	00000002 srcport
00000c10 g     F .text	0000001a FLASH_Unlock
00004cac g     F .text	00000010 tcp_next_iss
0000463a g     F .text	00000040 tcp_update_rcv_ann_wnd
00000b9e g     F .text	00000010 ETH_FlushTransmitFIFO
0000104a g     F .text	0000001e RCC_AHBPeriphResetCmd
200000d8 g     O .bss	00000004 netif_list
000008b8  w      .text	00000000 UART8_IRQHandler
200000ac g     O .bss	00000004 WCHIPAddr
00006c0a g     F .text	00000104 tcp_rst
00007f98  w    F .text	0000033c print
200000a4 g     O .bss	00000004 TCPTimer
000028f2 g     F .text	000000d8 etharp_request
20000074 g     O .bss	00000004 tcppackt
000082d4  w    F .text	00000024 printf
20000810 g       .data	00000000 __global_pointer$
00000208 g     F .text	00000028 .hidden __riscv_save_8
0000473e g     F .text	00000006 tcp_err
20000054 g     O .data	00000004 ip_addr_any
00000870  w      .text	00000000 TIM1_CC_IRQHandler
00007bfa g     F .text	000000f8 inet_chksum_pseudo
00000978 g     F .text	000000d8 ETH_StructInit
00006802 g     F .text	00000016 tcp_send_ctrl
0000030c g     F .text	00000044 HardFault_Handler
000033f0 g     F .text	0000015a ip_output_if
00003ec8 g     F .text	00000014 memp_free
00007e9c  w    F .text	000000f4 printInt
2000c420 g     O .bss	00000004 DMAPTPRxDescToGet
00004096 g     F .text	0000004e pbuf_free
00000254 g     F .text	0000000c .hidden __riscv_restore_3
00002276 g     F .text	0000000e WCHNET_GetGlobalInt
00004732 g     F .text	00000006 tcp_recv
000008a4  w      .text	00000000 TIM6_IRQHandler
00001406 g     F .text	00000164 ETH_Init
00000836  w      .text	00000000 SysTick_Handler
00004294 g     F .text	0000001c pbuf_cat
00000fcc g     F .text	0000000a RCC_MCOConfig
0000083c  w      .text	00000000 PVD_IRQHandler
0000089a  w      .text	00000000 SDIO_IRQHandler
0000354a g     F .text	00000036 ip_output
000008ba  w      .text	00000000 TIM9_BRK_IRQHandler
00000240 g     F .text	00000020 .hidden __riscv_restore_10
000072f2 g     F .text	0000002e udp_sendto
20000070 g     O .bss	00000004 phydatatime
000008ce  w      .text	00000000 DMA2_Channel8_IRQHandler
00000308 g     F .text	00000004 NMI_Handler
00006e18 g     F .text	0000005e tcp_keepalive
0000084c  w      .text	00000000 EXTI3_IRQHandler
00001a16 g     F .text	000000ec WCHNET_Init
00002718 g     F .text	0000004a etharp_tmr
00000208 g     F .text	00000028 .hidden __riscv_save_11
00004cbc g     F .text	00000130 tcp_alloc
00002ce0 g     F .text	00000072 low_level_init
00008458 g     O .text	00000010 MemSize
0000721a g     F .text	000000d8 udp_sendto_if
0000472e g     F .text	00000004 tcp_arg
00002798 g     F .text	0000015a etharp_arp_input
200000e4 g     O .bss	00000004 tcp_active_pcbs
00001266 g     F .text	0000000c USART_GetFlagStatus
000008d0  w      .text	00000000 DMA2_Channel9_IRQHandler
20000124 g     O .bss	00000004 udp_pcbs
000008c8  w      .text	00000000 TIM10_CC_IRQHandler
2000034c g     O .bss	00000006 MACAddr
00002be4 g     F .text	00000058 ethernet_input
20000068 g       .bss	00000000 _sbss
00000800 g       *ABS*	00000000 __stack_size
0000428a g     F .text	0000000a pbuf_ref
000012c6 g     F .text	00000056 USART_Printf_Init
0000240a g     F .text	00000054 WCHNET_SocketSend
00004b60 g     F .text	00000030 tcp_recv_null
200000bc g     O .bss	00000004 current_netif
00004aae g     F .text	000000b2 tcp_close
2000032c g     O .bss	0000000c SelARP
0000467a g     F .text	00000044 tcp_recved
00000562 g     F .text	00000092 WCHNET_HandleSockInt
00000254 g     F .text	0000000c .hidden __riscv_restore_2
0000474e g     F .text	0000004c tcp_pcb_purge
2000005c g     O .data	00000007 tcp_persist_backoff
00000964 g     F .text	00000014 ETH_DeInit
0000834c g     F .text	000000b6 memcpy
00003c4a g     F .text	00000084 mem_free
200000f0 g     O .bss	00000004 tcp_ticks
200000ec g     O .bss	00000004 tcp_listen_pcbs
00006d0e g     F .text	00000034 tcp_rexmit_rto
00003580 g     F .text	0000004a ip_addr_isbroadcast
00007f90  w    F .text	00000004 printLongLongInt
2000c424 g     O .bss	00000004 DMARxDescToGet
00004dec g     F .text	00000010 tcp_new
00000846  w      .text	00000000 EXTI0_IRQHandler
0000087c  w      .text	00000000 I2C2_EV_IRQHandler
000008c6  w      .text	00000000 TIM10_TRG_COM_IRQHandler
00007428 g     F .text	0000003e IPCheckTmr
00001128 g     F .text	0000001c TIM_Cmd
000082f8 g     F .text	00000054 puts
00001b1e g     F .text	00000040 PhyDataLed_fun
200000a8 g     O .bss	00000004 WCHGWIPAddr
20000190 g     O .bss	00000018 DHCPCtrl
20000024 g     O .data	00000004 SystemCoreClock
00004488 g     F .text	00000010 raw_send
0000042e g     F .text	00000046 SET_MCO
00007d06 g     F .text	0000006a inet_chksum_pbuf
00007904 g     F .text	00000250 icmp_input
00000038 g       .init	00000000 _einit
200001a8 g     O .bss	000000d0 RxCtrl
0000115a g     F .text	0000000e TIM_ClearITPendingBit
00003fc0 g     F .text	0000005a netif_add
00000f90 g     F .text	0000001e RCC_APB2PeriphClockCmd
00000200 g     F .text	00000030 .hidden __riscv_save_12
000046e8 g     F .text	0000001e tcp_segs_free
0000224a g     F .text	0000002c WCHNET_QueryGlobalInt
0000085e  w      .text	00000000 ADC1_2_IRQHandler
00000d9a g     F .text	000000c2 GPIO_Init
00000834  w      .text	00000000 Break_Point_Handler
00003edc g     F .text	00000096 netif_set_ipaddr
00000240 g     F .text	00000020 .hidden __riscv_restore_11
00000880  w      .text	00000000 SPI1_IRQHandler
00001240 g     F .text	0000001c USART_Cmd
00002284 g     F .text	00000024 WCHNET_GetSocketInt
00006818 g     F .text	00000030 tcp_write
00000230 g     F .text	0000000c .hidden __riscv_save_1
0000083e  w      .text	00000000 TAMPER_IRQHandler
00001616 g     F .text	00000002 CH563TCPError
00000c38 g     F .text	0000000a FLASH_GetUserOptionByte
2000017c g     O .bss	00000014 WCHCfg
00000254 g     F .text	0000000c .hidden __riscv_restore_0
00000216 g     F .text	0000001a .hidden __riscv_save_7
00004524 g     F .text	00000116 tcp_bind
00007b68 g     F .text	00000014 icmp_time_exceeded
20000354 g     O .bss	00003b60 MACRxBuf
00000890  w      .text	00000000 TIM8_UP_IRQHandler
00003a86 g     F .text	00000176 ip_frag
00000fae g     F .text	0000001e RCC_APB1PeriphClockCmd
00001d9e g     F .text	000001ce WCHNET_SocketRecv
00000830  w      .text	00000000 Ecall_M_Mode_Handler
2001f800 g       .stack	00000000 _heap_end
200002c4 g     O .bss	00000032 dhcp_host_name
0000440a g     F .text	0000007e raw_sendto
0000024a g     F .text	00000016 .hidden __riscv_restore_5
20003eb4 g     O .bss	00000001 SocketId
000008aa  w      .text	00000000 DMA2_Channel2_IRQHandler
00000f72 g     F .text	0000001e RCC_AHBPeriphClockCmd
00000856  w      .text	00000000 DMA1_Channel4_IRQHandler
000042c4 g     F .text	0000009c pbuf_copy
00006d42 g     F .text	00000078 tcp_rexmit
000022a8 g     F .text	0000002a CH563IPSetSocketRecvInit
00001654 g     F .text	00000004 LwipTCPPollCallBack
2000c428 g     O .bss	00000004 DMATxDescToSet
00000c2a g     F .text	0000000e FLASH_Lock
2000001c g     O .data	00000004 IPMask
000008bc  w      .text	00000000 TIM9_UP_IRQHandler
0000024a g     F .text	00000016 .hidden __riscv_restore_6
00000888  w      .text	00000000 USART3_IRQHandler
00000840  w      .text	00000000 RTC_IRQHandler
200000f8 g     O .bss	00000004 tcp_tmp_pcb
2000c430 g       .bss	00000000 _ebss
20003eb8 g     O .bss	00000640 MyBuf
200044f8 g     O .bss	00001214 Mem_Heap_Memory
0000085c  w      .text	00000000 DMA1_Channel7_IRQHandler
20000084 g     O .bss	00000004 DHCPcoarseTimer
00000864  w      .text	00000000 CAN1_RX1_IRQHandler
0000156a g     F .text	000000ac Ethernet_Configuration
00001272 g     F .text	00000026 Delay_Init
00003c10 g     F .text	0000003a mem_init
000008a2  w      .text	00000000 UART5_IRQHandler
00000fd6 g     F .text	0000002e RCC_GetFlagStatus
000068b4 g     F .text	00000356 tcp_output
00000e5c g     F .text	00000004 GPIO_SetBits
00000876  w      .text	00000000 TIM4_IRQHandler
20000118 g     O .bss	00000004 tcp_input_pcb
00004360 g     F .text	00000068 raw_input
00006848 g     F .text	0000006c tcp_send_empty_ack
00000208 g     F .text	00000028 .hidden __riscv_save_9
00006dba g     F .text	0000005e tcp_rexmit_fast
000008a8  w      .text	00000000 DMA2_Channel1_IRQHandler
2000570c g     O .bss	00002b53 Memp_Memory
00000be6 g     F .text	0000001e ETH_DMAITConfig
000030e4 g     F .text	0000000a ntohl
00000b90 g     F .text	0000000e ETH_SoftwareReset
00000216 g     F .text	0000001a .hidden __riscv_save_4
0000401a g     F .text	00000006 netif_set_default
000019ca g     F .text	0000004c WCHSocketInit
00000aa8 g     F .text	00000052 ETH_WritePHYRegister
000073b0 g     F .text	00000006 udp_recv
20000090 g     O .bss	00000001 DataLED
00000878  w      .text	00000000 I2C1_EV_IRQHandler
0000748a g     F .text	00000026 IPConflictHandle
000040e4 g     F .text	0000013c pbuf_alloc
000073f4 g     F .text	00000034 SelIPARPSend
00002146 g     F .text	00000062 WCHScokedIntHandle
000019ac g     F .text	0000001e MemShortCopy
00000e64 g     F .text	0000010e RCC_GetClocksFreq
0000085a  w      .text	00000000 DMA1_Channel6_IRQHandler
000004d8 g     F .text	0000008a WCHNET_CreatTcpSocket
000008a0  w      .text	00000000 UART4_IRQHandler
000008ae  w      .text	00000000 DMA2_Channel4_IRQHandler
20000058 g     O .data	00000004 ip_addr_broadcast
000035ca g     F .text	000000e6 ip_reass_tmr
00001168 g     F .text	000000d8 USART_Init
20000034 g     O .data	00000004 memp_sizes
00000874  w      .text	00000000 TIM3_IRQHandler
00000844  w      .text	00000000 RCC_IRQHandler
20008260 g     O .bss	00000020 DMATxDscrTab
00000230 g     F .text	0000000c .hidden __riscv_save_3
00007332 g     F .text	0000007e udp_connect
0000086e  w      .text	00000000 TIM1_TRG_COM_IRQHandler
200000b8 g     O .bss	00000004 current_header
00008548 g     O .text	00000010 ErrTable
00000850  w      .text	00000000 DMA1_Channel1_IRQHandler
00003f72 g     F .text	0000004e netif_set_addr
0000770a g     F .text	00000184 dhcp_arp_reply
00000000 g       .init	00000000 _start
000008cc  w      .text	00000000 DMA2_Channel7_IRQHandler
200000b0 g     O .bss	00000004 WCHIPMask
00003eac g     F .text	0000001c memp_malloc
00006e76 g     F .text	000000d0 tcp_zero_window_probe
00000c62 g     F .text	0000002a FLASH_WaitForLastOperation
00007dbc  w    F .text	000000e0 prints
20000080 g     O .bss	00000004 DHCPTestTimer
0000088a  w      .text	00000000 EXTI15_10_IRQHandler
00001144 g     F .text	00000016 TIM_ITConfig
00000672 g     F .text	00000050 Config_Flash_SRAM
2000012c g     O .bss	0000000c KeepLiveCfg
00001bc6 g     F .text	000001b0 WCHNET_SocketCreat
2000028c g     O .bss	00000038 WCHNetIf
200000e8 g     O .bss	00000004 tcp_bound_pcbs
000030c0 g     F .text	00000024 htonl
000046be g     F .text	0000002a tcp_seg_free
000021a8 g     F .text	000000a2 LwipRemoveTcpPcb
00002fb0 g     F .text	000000f4 LwIPPeriodicHandle
00000e60 g     F .text	00000004 GPIO_ResetBits
0000136e g     F .text	00000006 __get_MCAUSE
000013d6 g     F .text	00000030 mac_send
000008a6  w      .text	00000000 TIM7_IRQHandler
00004e2a g     F .text	000000e6 tcp_connect
00003d94 g     F .text	000000cc mem_malloc
0000139a g     F .text	0000003c ETH_TxPkt_ChainMode
20000000 g       .dalign	00000000 _data_vma
0000089c  w      .text	00000000 TIM5_IRQHandler
00000c8c g     F .text	0000010e FLASH_ProgramOptionByteData
00000b40 g     F .text	00000050 ETH_DMARxDescChainInit
00000a50 g     F .text	00000058 ETH_ReadPHYRegister
00000868  w      .text	00000000 EXTI9_5_IRQHandler
000063c6 g     F .text	0000043c tcp_enqueue
00004dfc g     F .text	0000002e tcp_eff_send_mss
00001b6a g     F .text	0000005c WCHFindCorrectTCBPcb
00000208 g     F .text	00000028 .hidden __riscv_save_10
00001004 g     F .text	00000010 RCC_PREDIV2Config
00001816 g     F .text	0000013a WCHSocketTCPReceive
0000024a g     F .text	00000016 .hidden __riscv_restore_4
00001374 g     F .text	00000006 __get_MTVAL
00000240 g     F .text	00000020 .hidden __riscv_restore_8
00001368 g     F .text	00000006 __get_MEPC
00000216 g     F .text	0000001a .hidden __riscv_save_6
000043e6 g     F .text	0000001e raw_connect
00000882  w      .text	00000000 SPI2_IRQHandler
20000010 g     O .data	00000004 DESIP
00000260 g     F .text	000000a8 memset
00000240 g     F .text	00000020 .hidden __riscv_restore_9
0000024a g     F .text	00000016 .hidden __riscv_restore_7
000006c2 g     F .text	00000072 main
000003ba g     F .text	0000001c Ethernet_LED_DATASET
20000098 g     O .bss	00000004 LocalTime
20000030 g     O .data	00000004 memp_num
000008c2  w      .text	00000000 TIM10_BRK_IRQHandler
20000014 g     O .data	00000004 GWIPAddr
000003d6 g     F .text	00000012 mStopIfError
000008c0  w      .text	00000000 TIM9_CC_IRQHandler
00007b54 g     F .text	00000014 icmp_dest_unreach
00001658 g     F .text	000000c2 SocketIPRAWReceive
00004738 g     F .text	00000006 tcp_sent
00004020 g     F .text	00000008 netif_is_up
000008b0  w      .text	00000000 DMA2_Channel5_IRQHandler
000030b2 g     F .text	0000000e ntohs
20000094 g     O .bss	00000004 IPFragTimer
00004498 g     F .text	00000030 raw_new
00002d84 g     F .text	00000188 ethernetif_input
00000858  w      .text	00000000 DMA1_Channel5_IRQHandler
0000084e  w      .text	00000000 EXTI4_IRQHandler
00001298 g     F .text	0000002e Delay_Ms
00000862  w      .text	00000000 USB_LP_CAN1_RX0_IRQHandler
20000338 g     O .bss	00000014 DNSInf
0000207a g     F .text	000000cc SocketUdpSend
000003e8 g     F .text	00000046 WCHNET_LibInit
00007180 g     F .text	0000009a udp_bind
00004bf2 g     F .text	00000022 tcp_tmr
000029ca g     F .text	000000e0 etharp_query
000022d2 g     F .text	00000028 WCHNET_MainTask
00003bfc g     F .text	00000014 lwip_init
00002aaa g     F .text	0000013a etharp_output
00000734 g     F .text	000000f8 SystemInit
00000896  w      .text	00000000 RNG_IRQHandler
20008280 g     O .bss	000000a0 DMARxDscrTab
00007d70  w    F .text	0000004c printchar
000022fa g     F .text	00000110 SocketTcpSend
00000860  w      .text	00000000 USB_HP_CAN1_TX_IRQHandler
00004278 g     F .text	00000012 pbuf_clen
00000000 g       .init	00000000 _sinit
00001992 g     F .text	0000001a ErrorEncode
00007320 g     F .text	00000012 udp_send
00000854  w      .text	00000000 DMA1_Channel3_IRQHandler
00004404 g     F .text	00000006 raw_recv
00000898  w      .text	00000000 FSMC_IRQHandler
00008448 g     O .text	00000010 MemNum
0000086c  w      .text	00000000 TIM1_UP_IRQHandler
0000479a g     F .text	00000270 tcp_slowtmr
20000018 g     O .data	00000004 IPAddr
0000083a  w      .text	00000000 WWDG_IRQHandler
000008d4  w      .text	00000000 DMA2_Channel11_IRQHandler
00000bae g     F .text	00000038 ETH_Start
00000832  w      .text	00000000 Ecall_U_Mode_Handler
00002d52 g     F .text	00000032 ethernetif_init
000008ca  w      .text	00000000 DMA2_Channel6_IRQHandler
00000350 g     F .text	00000014 TIM2_IRQHandler
20020000 g       .stack	00000000 _eusrstack
00000230 g     F .text	0000000c .hidden __riscv_save_2
00000838  w      .text	00000000 SW_Handler
00001d76 g     F .text	00000028 tcp_recved_socket
20008320 g     O .bss	00000be0 MACTxBuf
0000245e g     F .text	00000006 WCHNET_GetPHYStatus
000073da g     F .text	0000001a IPCheckParaInit
0000086a  w      .text	00000000 TIM1_BRK_IRQHandler
0000125c g     F .text	0000000a USART_SendData
200000fc g     O .bss	00000004 tcp_tw_pcbs
000008d2  w      .text	00000000 DMA2_Channel10_IRQHandler
00000848  w      .text	00000000 EXTI1_IRQHandler
00006f46 g     F .text	0000023a udp_input
00000216 g     F .text	0000001a .hidden __riscv_save_5
20000088 g     O .bss	00000004 DHCPfineTimer
0000131c g     F .text	0000004c _write
20000068 g       .data	00000000 _edata
2000c430 g       .bss	00000000 _end
000030a4 g     F .text	0000000e htons
2000008c g     O .bss	00000004 DNSTimer
20000128 g     O .bss	00000004 ArpCheckTime
00001068 g     F .text	000000c0 TIM_TimeBaseInit
000030ee g     F .text	0000004c ip_route
0000088c  w      .text	00000000 RTCAlarm_IRQHandler
000085d4 g       .dlalign	00000000 _data_lma
000008c4  w      .text	00000000 TIM10_UP_IRQHandler
000008be  w      .text	00000000 TIM9_TRG_COM_IRQHandler
000008b6  w      .text	00000000 UART7_IRQHandler
00004028 g     F .text	0000006e pbuf_header
00003cce g     F .text	000000c6 mem_realloc
200000d4 g     O .bss	00000004 netif_default
00004a3c g     F .text	00000072 tcp_pcb_remove
00000886  w      .text	00000000 USART2_IRQHandler
000008b4  w      .text	00000000 UART6_IRQHandler
000042b0 g     F .text	00000014 pbuf_chain
20008f00 g     O .bss	00000140 Mem_ArpTable
2000007c g     O .bss	00000004 ARPTimer
20000020 g     O .data	00000002 desport
00004c14 g     F .text	00000098 tcp_abandon
2000002c g     O .data	00000004 arp_table
0000171a g     F .text	000000fc SocketUdpReceive
00001950 g     F .text	00000042 LwipTcpConnectedCallBack
20009040 g     O .bss	000001e0 SocketInf
00003e60 g     F .text	0000004c memp_init
00004b90 g     F .text	00000062 tcp_fasttmr
00001f92 g     F .text	000000e8 SocketIPRawSend
0000087e  w      .text	00000000 I2C2_ER_IRQHandler
2000006c g     O .bss	00000004 phydata
00000852  w      .text	00000000 DMA1_Channel2_IRQHandler
00001026 g     F .text	00000024 RCC_PLL3Cmd
00002762 g     F .text	00000036 etharp_ip_input
0000023c g     F .text	00000024 .hidden __riscv_restore_12
0000088e  w      .text	00000000 TIM8_BRK_IRQHandler
000008d6  w      .text	00000000 handle_reset
00000866  w      .text	00000000 CAN1_SCE_IRQHandler
20009220 g     O .bss	00003200 SocketRecvBuf
00000230 g     F .text	0000000c .hidden __riscv_save_0
00000842  w      .text	00000000 FLASH_IRQHandler
000024d0 g     F .text	00000004 QueryPingEnable
00004706 g     F .text	00000028 tcp_seg_copy
00000474 g     F .text	00000064 TIM2_Init
00000884  w      .text	00000000 USART1_IRQHandler
00002f0c g     F .text	000000a4 SetupNetif
00004744 g     F .text	0000000a tcp_poll
000008b2  w      .text	00000000 OTG_FS_IRQHandler
00000364 g     F .text	00000056 Ethernet_LED_Configuration
0000089e  w      .text	00000000 SPI3_IRQHandler
000073b6 g     F .text	00000024 udp_new
00007466 g     F .text	00000024 ArpCheck
0000087a  w      .text	00000000 I2C1_ER_IRQHandler
00000c04 g     F .text	0000000c ETH_GetCurrentTxBufferAddress
20000044 g     O .data	00000006 ethbroadcast
00008598 g     O .text	00000014 tcp_backoff
00001b5e g     F .text	0000000c WCHNET_TimeIsr
00000254 g     F .text	0000000c .hidden __riscv_restore_1
20000138 g     O .bss	00000044 NetInf
200000b4 g     O .bss	00000004 WCHMACAddr
00001618 g     F .text	0000003c LwipTCPSendCallBack
200000a0 g     O .bss	00000004 SuccessPackets
000024ea g     F .text	00000008 LwipArpCheck
00002464 g     F .text	0000006c WCHNET_SocketConnect
00000c42 g     F .text	00000020 FLASH_GetBank1Status
2000c42c g     O .bss	00000004 DMAPTPTxDescToSet
00005948 g     F .text	000009b2 tcp_input
00004a0a g     F .text	00000032 RemoveTimeWaiTCP
0000313a g     F .text	000002b6 ip_input
0000137a g     F .text	00000020 WCH_GetMac
00001f6c g     F .text	00000026 WCHNET_SocketRecvLen
20000278 g     O .bss	00000014 TXCtrl
2000004c g     O .data	00000006 ethzero
00001014 g     F .text	00000012 RCC_PLL3Config
00001b02 g     F .text	0000001c WCHNET_ConfigLIB
000024d4 g     F .text	00000016 LwipUnreachPort
000008ac  w      .text	00000000 DMA2_Channel3_IRQHandler
00000afa g     F .text	00000046 ETH_DMATxDescChainInit



Disassembly of section .init:

00000000 <_sinit>:
_start():
D:/projects/mechanical_arm/ch32v307/EVT/EXAM/SRC/Startup/startup_ch32v30x_D8C.S:15

	.section	.init,"ax",@progbits
	.global	_start
	.align	1
_start:
	j	handle_reset
   0:	0d70006f          	j	8d6 <handle_reset>
   4:	00000013          	nop
   8:	00000013          	nop
   c:	00000013          	nop
  10:	00000013          	nop
  14:	00000013          	nop
  18:	00000013          	nop
  1c:	00000013          	nop
  20:	00000013          	nop
  24:	00000013          	nop
  28:	00000013          	nop
  2c:	00000013          	nop
  30:	00000013          	nop
  34:	00100073          	ebreak

Disassembly of section .vector:

00000038 <_vector_base>:
	...
_vector_base():
  40:	0308                	addi	a0,sp,384
  42:	0000                	unimp
  44:	030c                	addi	a1,sp,384
  46:	0000                	unimp
  48:	0000                	unimp
  4a:	0000                	unimp
  4c:	0830                	addi	a2,sp,24
	...
  56:	0000                	unimp
  58:	0832                	slli	a6,a6,0xc
  5a:	0000                	unimp
  5c:	0834                	addi	a3,sp,24
	...
  66:	0000                	unimp
  68:	0836                	slli	a6,a6,0xd
  6a:	0000                	unimp
  6c:	0000                	unimp
  6e:	0000                	unimp
  70:	0838                	addi	a4,sp,24
  72:	0000                	unimp
  74:	0000                	unimp
  76:	0000                	unimp
  78:	083a                	slli	a6,a6,0xe
  7a:	0000                	unimp
  7c:	083c                	addi	a5,sp,24
  7e:	0000                	unimp
  80:	083e                	slli	a6,a6,0xf
  82:	0000                	unimp
  84:	0840                	addi	s0,sp,20
  86:	0000                	unimp
  88:	0842                	slli	a6,a6,0x10
  8a:	0000                	unimp
  8c:	0844                	addi	s1,sp,20
  8e:	0000                	unimp
  90:	0846                	slli	a6,a6,0x11
  92:	0000                	unimp
  94:	0848                	addi	a0,sp,20
  96:	0000                	unimp
  98:	084a                	slli	a6,a6,0x12
  9a:	0000                	unimp
  9c:	084c                	addi	a1,sp,20
  9e:	0000                	unimp
  a0:	084e                	slli	a6,a6,0x13
  a2:	0000                	unimp
  a4:	0850                	addi	a2,sp,20
  a6:	0000                	unimp
  a8:	0852                	slli	a6,a6,0x14
  aa:	0000                	unimp
  ac:	0854                	addi	a3,sp,20
  ae:	0000                	unimp
  b0:	0856                	slli	a6,a6,0x15
  b2:	0000                	unimp
  b4:	0858                	addi	a4,sp,20
  b6:	0000                	unimp
  b8:	085a                	slli	a6,a6,0x16
  ba:	0000                	unimp
  bc:	085c                	addi	a5,sp,20
  be:	0000                	unimp
  c0:	085e                	slli	a6,a6,0x17
  c2:	0000                	unimp
  c4:	0860                	addi	s0,sp,28
  c6:	0000                	unimp
  c8:	0862                	slli	a6,a6,0x18
  ca:	0000                	unimp
  cc:	0864                	addi	s1,sp,28
  ce:	0000                	unimp
  d0:	0866                	slli	a6,a6,0x19
  d2:	0000                	unimp
  d4:	0868                	addi	a0,sp,28
  d6:	0000                	unimp
  d8:	086a                	slli	a6,a6,0x1a
  da:	0000                	unimp
  dc:	086c                	addi	a1,sp,28
  de:	0000                	unimp
  e0:	086e                	slli	a6,a6,0x1b
  e2:	0000                	unimp
  e4:	0870                	addi	a2,sp,28
  e6:	0000                	unimp
  e8:	0350                	addi	a2,sp,388
  ea:	0000                	unimp
  ec:	0874                	addi	a3,sp,28
  ee:	0000                	unimp
  f0:	0876                	slli	a6,a6,0x1d
  f2:	0000                	unimp
  f4:	0878                	addi	a4,sp,28
  f6:	0000                	unimp
  f8:	087a                	slli	a6,a6,0x1e
  fa:	0000                	unimp
  fc:	087c                	addi	a5,sp,28
  fe:	0000                	unimp
 100:	087e                	slli	a6,a6,0x1f
 102:	0000                	unimp
 104:	0880                	addi	s0,sp,80
 106:	0000                	unimp
 108:	0882                	c.slli64	a7
 10a:	0000                	unimp
 10c:	0884                	addi	s1,sp,80
 10e:	0000                	unimp
 110:	0886                	slli	a7,a7,0x1
 112:	0000                	unimp
 114:	0888                	addi	a0,sp,80
 116:	0000                	unimp
 118:	088a                	slli	a7,a7,0x2
 11a:	0000                	unimp
 11c:	088c                	addi	a1,sp,80
 11e:	0000                	unimp
 120:	0000                	unimp
 122:	0000                	unimp
 124:	088e                	slli	a7,a7,0x3
 126:	0000                	unimp
 128:	0890                	addi	a2,sp,80
 12a:	0000                	unimp
 12c:	0892                	slli	a7,a7,0x4
 12e:	0000                	unimp
 130:	0894                	addi	a3,sp,80
 132:	0000                	unimp
 134:	0896                	slli	a7,a7,0x5
 136:	0000                	unimp
 138:	0898                	addi	a4,sp,80
 13a:	0000                	unimp
 13c:	089a                	slli	a7,a7,0x6
 13e:	0000                	unimp
 140:	089c                	addi	a5,sp,80
 142:	0000                	unimp
 144:	089e                	slli	a7,a7,0x7
 146:	0000                	unimp
 148:	08a0                	addi	s0,sp,88
 14a:	0000                	unimp
 14c:	08a2                	slli	a7,a7,0x8
 14e:	0000                	unimp
 150:	08a4                	addi	s1,sp,88
 152:	0000                	unimp
 154:	08a6                	slli	a7,a7,0x9
 156:	0000                	unimp
 158:	08a8                	addi	a0,sp,88
 15a:	0000                	unimp
 15c:	08aa                	slli	a7,a7,0xa
 15e:	0000                	unimp
 160:	08ac                	addi	a1,sp,88
 162:	0000                	unimp
 164:	08ae                	slli	a7,a7,0xb
 166:	0000                	unimp
 168:	08b0                	addi	a2,sp,88
	...
 182:	0000                	unimp
 184:	08b2                	slli	a7,a7,0xc
	...
 192:	0000                	unimp
 194:	08b4                	addi	a3,sp,88
 196:	0000                	unimp
 198:	08b6                	slli	a7,a7,0xd
 19a:	0000                	unimp
 19c:	08b8                	addi	a4,sp,88
 19e:	0000                	unimp
 1a0:	08ba                	slli	a7,a7,0xe
 1a2:	0000                	unimp
 1a4:	08bc                	addi	a5,sp,88
 1a6:	0000                	unimp
 1a8:	08be                	slli	a7,a7,0xf
 1aa:	0000                	unimp
 1ac:	08c0                	addi	s0,sp,84
 1ae:	0000                	unimp
 1b0:	08c2                	slli	a7,a7,0x10
 1b2:	0000                	unimp
 1b4:	08c4                	addi	s1,sp,84
 1b6:	0000                	unimp
 1b8:	08c6                	slli	a7,a7,0x11
 1ba:	0000                	unimp
 1bc:	08c8                	addi	a0,sp,84
 1be:	0000                	unimp
 1c0:	08ca                	slli	a7,a7,0x12
 1c2:	0000                	unimp
 1c4:	08cc                	addi	a1,sp,84
 1c6:	0000                	unimp
 1c8:	08ce                	slli	a7,a7,0x13
 1ca:	0000                	unimp
 1cc:	08d0                	addi	a2,sp,84
 1ce:	0000                	unimp
 1d0:	08d2                	slli	a7,a7,0x14
 1d2:	0000                	unimp
 1d4:	08d4                	addi	a3,sp,84
	...

Disassembly of section .text:

00000200 <__riscv_save_12>:
__riscv_save_12():
     200:	7139                	addi	sp,sp,-64
     202:	4301                	li	t1,0
     204:	c66e                	sw	s11,12(sp)
     206:	a019                	j	20c <__riscv_save_10+0x4>

00000208 <__riscv_save_10>:
     208:	7139                	addi	sp,sp,-64
     20a:	5341                	li	t1,-16
     20c:	c86a                	sw	s10,16(sp)
     20e:	ca66                	sw	s9,20(sp)
     210:	cc62                	sw	s8,24(sp)
     212:	ce5e                	sw	s7,28(sp)
     214:	a019                	j	21a <__riscv_save_4+0x4>

00000216 <__riscv_save_4>:
     216:	7139                	addi	sp,sp,-64
     218:	5301                	li	t1,-32
     21a:	d05a                	sw	s6,32(sp)
     21c:	d256                	sw	s5,36(sp)
     21e:	d452                	sw	s4,40(sp)
     220:	d64e                	sw	s3,44(sp)
     222:	d84a                	sw	s2,48(sp)
     224:	da26                	sw	s1,52(sp)
     226:	dc22                	sw	s0,56(sp)
     228:	de06                	sw	ra,60(sp)
     22a:	40610133          	sub	sp,sp,t1
     22e:	8282                	jr	t0

00000230 <__riscv_save_0>:
__riscv_save_1():
     230:	1141                	addi	sp,sp,-16
     232:	c04a                	sw	s2,0(sp)
     234:	c226                	sw	s1,4(sp)
     236:	c422                	sw	s0,8(sp)
     238:	c606                	sw	ra,12(sp)
     23a:	8282                	jr	t0

0000023c <__riscv_restore_12>:
__riscv_restore_12():
     23c:	4db2                	lw	s11,12(sp)
     23e:	0141                	addi	sp,sp,16

00000240 <__riscv_restore_10>:
     240:	4d02                	lw	s10,0(sp)
     242:	4c92                	lw	s9,4(sp)
     244:	4c22                	lw	s8,8(sp)
     246:	4bb2                	lw	s7,12(sp)
     248:	0141                	addi	sp,sp,16

0000024a <__riscv_restore_4>:
     24a:	4b02                	lw	s6,0(sp)
     24c:	4a92                	lw	s5,4(sp)
     24e:	4a22                	lw	s4,8(sp)
     250:	49b2                	lw	s3,12(sp)
     252:	0141                	addi	sp,sp,16

00000254 <__riscv_restore_0>:
     254:	4902                	lw	s2,0(sp)
     256:	4492                	lw	s1,4(sp)
     258:	4422                	lw	s0,8(sp)
     25a:	40b2                	lw	ra,12(sp)
     25c:	0141                	addi	sp,sp,16
     25e:	8082                	ret

00000260 <memset>:
memset():
     260:	433d                	li	t1,15
     262:	872a                	mv	a4,a0
     264:	02c37363          	bgeu	t1,a2,28a <memset+0x2a>
     268:	00f77793          	andi	a5,a4,15
     26c:	efbd                	bnez	a5,2ea <memset+0x8a>
     26e:	e5ad                	bnez	a1,2d8 <memset+0x78>
     270:	ff067693          	andi	a3,a2,-16
     274:	8a3d                	andi	a2,a2,15
     276:	96ba                	add	a3,a3,a4
     278:	c30c                	sw	a1,0(a4)
     27a:	c34c                	sw	a1,4(a4)
     27c:	c70c                	sw	a1,8(a4)
     27e:	c74c                	sw	a1,12(a4)
     280:	0741                	addi	a4,a4,16
     282:	fed76be3          	bltu	a4,a3,278 <memset+0x18>
     286:	e211                	bnez	a2,28a <memset+0x2a>
     288:	8082                	ret
     28a:	40c306b3          	sub	a3,t1,a2
     28e:	068a                	slli	a3,a3,0x2
     290:	00000297          	auipc	t0,0x0
     294:	9696                	add	a3,a3,t0
     296:	00a68067          	jr	10(a3)
     29a:	00b70723          	sb	a1,14(a4)
     29e:	00b706a3          	sb	a1,13(a4)
     2a2:	00b70623          	sb	a1,12(a4)
     2a6:	00b705a3          	sb	a1,11(a4)
     2aa:	00b70523          	sb	a1,10(a4)
     2ae:	00b704a3          	sb	a1,9(a4)
     2b2:	00b70423          	sb	a1,8(a4)
     2b6:	00b703a3          	sb	a1,7(a4)
     2ba:	00b70323          	sb	a1,6(a4)
     2be:	00b702a3          	sb	a1,5(a4)
     2c2:	00b70223          	sb	a1,4(a4)
     2c6:	00b701a3          	sb	a1,3(a4)
     2ca:	00b70123          	sb	a1,2(a4)
     2ce:	00b700a3          	sb	a1,1(a4)
     2d2:	00b70023          	sb	a1,0(a4)
     2d6:	8082                	ret
     2d8:	0ff5f593          	andi	a1,a1,255
     2dc:	00859693          	slli	a3,a1,0x8
     2e0:	8dd5                	or	a1,a1,a3
     2e2:	01059693          	slli	a3,a1,0x10
     2e6:	8dd5                	or	a1,a1,a3
     2e8:	b761                	j	270 <memset+0x10>
     2ea:	00279693          	slli	a3,a5,0x2
     2ee:	00000297          	auipc	t0,0x0
     2f2:	9696                	add	a3,a3,t0
     2f4:	8286                	mv	t0,ra
     2f6:	fa8680e7          	jalr	-88(a3)
     2fa:	8096                	mv	ra,t0
     2fc:	17c1                	addi	a5,a5,-16
     2fe:	8f1d                	sub	a4,a4,a5
     300:	963e                	add	a2,a2,a5
     302:	f8c374e3          	bgeu	t1,a2,28a <memset+0x2a>
     306:	b7a5                	j	26e <memset+0xe>

00000308 <NMI_Handler>:
NMI_Handler():
D:\projects\mechanical_arm\ch32v307\EVT\EXAM\ETH\TcpClient\obj/../User/ch32v30x_it.c:28
 *
 * @return  none
 */
void NMI_Handler(void)
{
}
     308:	30200073          	mret

0000030c <HardFault_Handler>:
HardFault_Handler():
D:\projects\mechanical_arm\ch32v307\EVT\EXAM\ETH\TcpClient\obj/../User/ch32v30x_it.c:39
 *
 * @return  none
 */
void HardFault_Handler(void)
{
    printf("HardFault_Handler\r\n");
     30c:	00008537          	lui	a0,0x8
     310:	40450513          	addi	a0,a0,1028 # 8404 <memcpy+0xb8>
     314:	7e5070ef          	jal	ra,82f8 <puts>
D:\projects\mechanical_arm\ch32v307\EVT\EXAM\ETH\TcpClient\obj/../User/ch32v30x_it.c:41

    printf("mepc  :%08x\r\n", __get_MEPC());
     318:	050010ef          	jal	ra,1368 <__get_MEPC>
     31c:	85aa                	mv	a1,a0
     31e:	00008537          	lui	a0,0x8
     322:	41850513          	addi	a0,a0,1048 # 8418 <memcpy+0xcc>
     326:	7af070ef          	jal	ra,82d4 <printf>
D:\projects\mechanical_arm\ch32v307\EVT\EXAM\ETH\TcpClient\obj/../User/ch32v30x_it.c:42
    printf("mcause:%08x\r\n", __get_MCAUSE());
     32a:	044010ef          	jal	ra,136e <__get_MCAUSE>
     32e:	85aa                	mv	a1,a0
     330:	00008537          	lui	a0,0x8
     334:	42850513          	addi	a0,a0,1064 # 8428 <memcpy+0xdc>
     338:	79d070ef          	jal	ra,82d4 <printf>
D:\projects\mechanical_arm\ch32v307\EVT\EXAM\ETH\TcpClient\obj/../User/ch32v30x_it.c:43
    printf("mtval :%08x\r\n", __get_MTVAL());
     33c:	038010ef          	jal	ra,1374 <__get_MTVAL>
     340:	85aa                	mv	a1,a0
     342:	00008537          	lui	a0,0x8
     346:	43850513          	addi	a0,a0,1080 # 8438 <memcpy+0xec>
     34a:	78b070ef          	jal	ra,82d4 <printf>
D:\projects\mechanical_arm\ch32v307\EVT\EXAM\ETH\TcpClient\obj/../User/ch32v30x_it.c:45 (discriminator 1)
    while(1)
        ;
     34e:	a001                	j	34e <HardFault_Handler+0x42>

00000350 <TIM2_IRQHandler>:
TIM2_IRQHandler():
D:\projects\mechanical_arm\ch32v307\EVT\EXAM\ETH\TcpClient\obj/../User/ch32v30x_it.c:69
 *
 * @return  none
 */
void TIM2_IRQHandler(void)
{
    WCHNET_TimeIsr(WCHNETTIMERPERIOD);
     350:	4529                	li	a0,10
     352:	00d010ef          	jal	ra,1b5e <WCHNET_TimeIsr>
D:\projects\mechanical_arm\ch32v307\EVT\EXAM\ETH\TcpClient\obj/../User/ch32v30x_it.c:70
    TIM_ClearITPendingBit(TIM2, TIM_IT_Update);
     356:	4585                	li	a1,1
     358:	40000537          	lui	a0,0x40000
     35c:	5ff000ef          	jal	ra,115a <TIM_ClearITPendingBit>
D:\projects\mechanical_arm\ch32v307\EVT\EXAM\ETH\TcpClient\obj/../User/ch32v30x_it.c:71
}
     360:	30200073          	mret

00000364 <Ethernet_LED_Configuration>:
Ethernet_LED_Configuration():
D:\projects\mechanical_arm\ch32v307\EVT\EXAM\ETH\TcpClient\obj/../User/main.c:76
 * @brief   set eth data and link led pin
 *
 * @return  none
 */
void Ethernet_LED_Configuration(void)
{
     364:	1101                	addi	sp,sp,-32
D:\projects\mechanical_arm\ch32v307\EVT\EXAM\ETH\TcpClient\obj/../User/main.c:79
    GPIO_InitTypeDef  GPIO={0};

    RCC_APB2PeriphClockCmd(RCC_APB2Periph_GPIOE,ENABLE);
     366:	4585                	li	a1,1
     368:	04000513          	li	a0,64
D:\projects\mechanical_arm\ch32v307\EVT\EXAM\ETH\TcpClient\obj/../User/main.c:76
{
     36c:	ce06                	sw	ra,28(sp)
     36e:	cc22                	sw	s0,24(sp)
D:\projects\mechanical_arm\ch32v307\EVT\EXAM\ETH\TcpClient\obj/../User/main.c:77
    GPIO_InitTypeDef  GPIO={0};
     370:	c202                	sw	zero,4(sp)
     372:	c402                	sw	zero,8(sp)
     374:	c602                	sw	zero,12(sp)
D:\projects\mechanical_arm\ch32v307\EVT\EXAM\ETH\TcpClient\obj/../User/main.c:79
    RCC_APB2PeriphClockCmd(RCC_APB2Periph_GPIOE,ENABLE);
     376:	41b000ef          	jal	ra,f90 <RCC_APB2PeriphClockCmd>
D:\projects\mechanical_arm\ch32v307\EVT\EXAM\ETH\TcpClient\obj/../User/main.c:80
    GPIO.GPIO_Pin = GPIO_Pin_11|GPIO_Pin_12;
     37a:	6789                	lui	a5,0x2
     37c:	80078793          	addi	a5,a5,-2048 # 1800 <SocketUdpReceive+0xe6>
D:\projects\mechanical_arm\ch32v307\EVT\EXAM\ETH\TcpClient\obj/../User/main.c:83
    GPIO.GPIO_Mode = GPIO_Mode_Out_PP;
    GPIO.GPIO_Speed = GPIO_Speed_50MHz;
    GPIO_Init(GPIOE,&GPIO);
     380:	40012437          	lui	s0,0x40012
D:\projects\mechanical_arm\ch32v307\EVT\EXAM\ETH\TcpClient\obj/../User/main.c:80
    GPIO.GPIO_Pin = GPIO_Pin_11|GPIO_Pin_12;
     384:	00f11223          	sh	a5,4(sp)
D:\projects\mechanical_arm\ch32v307\EVT\EXAM\ETH\TcpClient\obj/../User/main.c:81
    GPIO.GPIO_Mode = GPIO_Mode_Out_PP;
     388:	47c1                	li	a5,16
     38a:	c63e                	sw	a5,12(sp)
D:\projects\mechanical_arm\ch32v307\EVT\EXAM\ETH\TcpClient\obj/../User/main.c:83
    GPIO_Init(GPIOE,&GPIO);
     38c:	004c                	addi	a1,sp,4
D:\projects\mechanical_arm\ch32v307\EVT\EXAM\ETH\TcpClient\obj/../User/main.c:82
    GPIO.GPIO_Speed = GPIO_Speed_50MHz;
     38e:	478d                	li	a5,3
D:\projects\mechanical_arm\ch32v307\EVT\EXAM\ETH\TcpClient\obj/../User/main.c:83
    GPIO_Init(GPIOE,&GPIO);
     390:	80040513          	addi	a0,s0,-2048 # 40011800 <_eusrstack+0x1fff1800>
D:\projects\mechanical_arm\ch32v307\EVT\EXAM\ETH\TcpClient\obj/../User/main.c:82
    GPIO.GPIO_Speed = GPIO_Speed_50MHz;
     394:	c43e                	sw	a5,8(sp)
D:\projects\mechanical_arm\ch32v307\EVT\EXAM\ETH\TcpClient\obj/../User/main.c:83
    GPIO_Init(GPIOE,&GPIO);
     396:	205000ef          	jal	ra,d9a <GPIO_Init>
Ethernet_LED_LINKSET():
D:\projects\mechanical_arm\ch32v307\EVT\EXAM\ETH\TcpClient\obj/../User/main.c:99
 * @return  none
 */
void Ethernet_LED_LINKSET(u8 setbit)
{
     if(setbit){
         GPIO_SetBits(GPIOE, GPIO_Pin_11);
     39a:	6585                	lui	a1,0x1
     39c:	80040513          	addi	a0,s0,-2048
     3a0:	80058593          	addi	a1,a1,-2048 # 800 <__stack_size>
     3a4:	2b9000ef          	jal	ra,e5c <GPIO_SetBits>
Ethernet_LED_DATASET():
D:\projects\mechanical_arm\ch32v307\EVT\EXAM\ETH\TcpClient\obj/../User/main.c:117
 * @return  none
 */
void Ethernet_LED_DATASET(u8 setbit)
{
     if(setbit){
         GPIO_SetBits(GPIOE, GPIO_Pin_12);
     3a8:	80040513          	addi	a0,s0,-2048
     3ac:	6585                	lui	a1,0x1
     3ae:	2af000ef          	jal	ra,e5c <GPIO_SetBits>
Ethernet_LED_Configuration():
D:\projects\mechanical_arm\ch32v307\EVT\EXAM\ETH\TcpClient\obj/../User/main.c:86
}
     3b2:	40f2                	lw	ra,28(sp)
     3b4:	4462                	lw	s0,24(sp)
     3b6:	6105                	addi	sp,sp,32
     3b8:	8082                	ret

000003ba <Ethernet_LED_DATASET>:
Ethernet_LED_DATASET():
D:\projects\mechanical_arm\ch32v307\EVT\EXAM\ETH\TcpClient\obj/../User/main.c:117
         GPIO_SetBits(GPIOE, GPIO_Pin_12);
     3ba:	6585                	lui	a1,0x1
D:\projects\mechanical_arm\ch32v307\EVT\EXAM\ETH\TcpClient\obj/../User/main.c:116
     if(setbit){
     3bc:	c519                	beqz	a0,3ca <Ethernet_LED_DATASET+0x10>
D:\projects\mechanical_arm\ch32v307\EVT\EXAM\ETH\TcpClient\obj/../User/main.c:117
         GPIO_SetBits(GPIOE, GPIO_Pin_12);
     3be:	40012537          	lui	a0,0x40012
     3c2:	80050513          	addi	a0,a0,-2048 # 40011800 <_eusrstack+0x1fff1800>
     3c6:	2970006f          	j	e5c <GPIO_SetBits>
D:\projects\mechanical_arm\ch32v307\EVT\EXAM\ETH\TcpClient\obj/../User/main.c:120
     }
     else {
         GPIO_ResetBits(GPIOE, GPIO_Pin_12);
     3ca:	40012537          	lui	a0,0x40012
     3ce:	80050513          	addi	a0,a0,-2048 # 40011800 <_eusrstack+0x1fff1800>
     3d2:	28f0006f          	j	e60 <GPIO_ResetBits>

000003d6 <mStopIfError>:
mStopIfError():
D:\projects\mechanical_arm\ch32v307\EVT\EXAM\ETH\TcpClient\obj/../User/main.c:132
 * @brief   check if error.
 *
 * @return  none
 */
void mStopIfError(u8 iError)
{
     3d6:	85aa                	mv	a1,a0
D:\projects\mechanical_arm\ch32v307\EVT\EXAM\ETH\TcpClient\obj/../User/main.c:133
    if (iError == WCHNET_ERR_SUCCESS) return;                                   /* 操作成功 */
     3d8:	c519                	beqz	a0,3e6 <mStopIfError+0x10>
D:\projects\mechanical_arm\ch32v307\EVT\EXAM\ETH\TcpClient\obj/../User/main.c:134
    printf("Error: %02X\r\n", (u16)iError);                                    /* 显示错误 */
     3da:	00008537          	lui	a0,0x8
     3de:	51050513          	addi	a0,a0,1296 # 8510 <MemSize+0xb8>
     3e2:	6f30706f          	j	82d4 <printf>
D:\projects\mechanical_arm\ch32v307\EVT\EXAM\ETH\TcpClient\obj/../User/main.c:135
}
     3e6:	8082                	ret

000003e8 <WCHNET_LibInit>:
WCHNET_LibInit():
D:\projects\mechanical_arm\ch32v307\EVT\EXAM\ETH\TcpClient\obj/../User/main.c:146
 * @brief   Initializes NET.
 *
 * @return  command status
 */
u8 WCHNET_LibInit(const u8 *ip,const u8 *gwip,const u8 *mask,const u8 *macaddr)
{
     3e8:	7139                	addi	sp,sp,-64
D:\projects\mechanical_arm\ch32v307\EVT\EXAM\ETH\TcpClient\obj/../User/main.c:150
    u8 i;
    struct _WCH_CFG  cfg;

    cfg.RxBufSize = RX_BUF_SIZE;
     3ea:	5f000793          	li	a5,1520
     3ee:	ce3e                	sw	a5,28(sp)
D:\projects\mechanical_arm\ch32v307\EVT\EXAM\ETH\TcpClient\obj/../User/main.c:151
    cfg.TCPMss   = WCHNET_TCP_MSS;
     3f0:	32000793          	li	a5,800
     3f4:	d03e                	sw	a5,32(sp)
D:\projects\mechanical_arm\ch32v307\EVT\EXAM\ETH\TcpClient\obj/../User/main.c:152
    cfg.HeapSize = WCH_MEM_HEAP_SIZE;
     3f6:	6785                	lui	a5,0x1
     3f8:	1f878793          	addi	a5,a5,504 # 11f8 <USART_Init+0x90>
     3fc:	d23e                	sw	a5,36(sp)
D:\projects\mechanical_arm\ch32v307\EVT\EXAM\ETH\TcpClient\obj/../User/main.c:153
    cfg.ARPTableNum = WCHNET_NUM_ARP_TABLE;
     3fe:	47a9                	li	a5,10
D:\projects\mechanical_arm\ch32v307\EVT\EXAM\ETH\TcpClient\obj/../User/main.c:146
{
     400:	dc22                	sw	s0,56(sp)
D:\projects\mechanical_arm\ch32v307\EVT\EXAM\ETH\TcpClient\obj/../User/main.c:153
    cfg.ARPTableNum = WCHNET_NUM_ARP_TABLE;
     402:	d43e                	sw	a5,40(sp)
D:\projects\mechanical_arm\ch32v307\EVT\EXAM\ETH\TcpClient\obj/../User/main.c:146
{
     404:	842a                	mv	s0,a0
D:\projects\mechanical_arm\ch32v307\EVT\EXAM\ETH\TcpClient\obj/../User/main.c:154
    cfg.MiscConfig0 = WCHNET_MISC_CONFIG0;
     406:	02b00793          	li	a5,43
D:\projects\mechanical_arm\ch32v307\EVT\EXAM\ETH\TcpClient\obj/../User/main.c:155
    WCHNET_ConfigLIB(&cfg);
     40a:	0868                	addi	a0,sp,28
D:\projects\mechanical_arm\ch32v307\EVT\EXAM\ETH\TcpClient\obj/../User/main.c:146
{
     40c:	de06                	sw	ra,60(sp)
     40e:	c62e                	sw	a1,12(sp)
     410:	c432                	sw	a2,8(sp)
     412:	c236                	sw	a3,4(sp)
D:\projects\mechanical_arm\ch32v307\EVT\EXAM\ETH\TcpClient\obj/../User/main.c:154
    cfg.MiscConfig0 = WCHNET_MISC_CONFIG0;
     414:	d63e                	sw	a5,44(sp)
D:\projects\mechanical_arm\ch32v307\EVT\EXAM\ETH\TcpClient\obj/../User/main.c:155
    WCHNET_ConfigLIB(&cfg);
     416:	6ec010ef          	jal	ra,1b02 <WCHNET_ConfigLIB>
D:\projects\mechanical_arm\ch32v307\EVT\EXAM\ETH\TcpClient\obj/../User/main.c:156
    i = WCHNET_Init(ip,gwip,mask,macaddr);
     41a:	4692                	lw	a3,4(sp)
     41c:	4622                	lw	a2,8(sp)
     41e:	45b2                	lw	a1,12(sp)
     420:	8522                	mv	a0,s0
     422:	5f4010ef          	jal	ra,1a16 <WCHNET_Init>
D:\projects\mechanical_arm\ch32v307\EVT\EXAM\ETH\TcpClient\obj/../User/main.c:158
    return (i);
}
     426:	50f2                	lw	ra,60(sp)
     428:	5462                	lw	s0,56(sp)
     42a:	6121                	addi	sp,sp,64
     42c:	8082                	ret

0000042e <SET_MCO>:
SET_MCO():
D:\projects\mechanical_arm\ch32v307\EVT\EXAM\ETH\TcpClient\obj/../User/main.c:168
 * @brief   Set ETH Clock.
 *
 * @return  none
 */
void SET_MCO(void)
{
     42e:	1141                	addi	sp,sp,-16
D:\projects\mechanical_arm\ch32v307\EVT\EXAM\ETH\TcpClient\obj/../User/main.c:170

    RCC_PLL3Cmd(DISABLE);
     430:	4501                	li	a0,0
D:\projects\mechanical_arm\ch32v307\EVT\EXAM\ETH\TcpClient\obj/../User/main.c:168
{
     432:	c606                	sw	ra,12(sp)
D:\projects\mechanical_arm\ch32v307\EVT\EXAM\ETH\TcpClient\obj/../User/main.c:170
    RCC_PLL3Cmd(DISABLE);
     434:	3f3000ef          	jal	ra,1026 <RCC_PLL3Cmd>
D:\projects\mechanical_arm\ch32v307\EVT\EXAM\ETH\TcpClient\obj/../User/main.c:171
    RCC_PREDIV2Config(RCC_PREDIV2_Div2);
     438:	4541                	li	a0,16
     43a:	3cb000ef          	jal	ra,1004 <RCC_PREDIV2Config>
D:\projects\mechanical_arm\ch32v307\EVT\EXAM\ETH\TcpClient\obj/../User/main.c:172
    RCC_PLL3Config(RCC_PLL3Mul_15);
     43e:	6535                	lui	a0,0xd
     440:	3d5000ef          	jal	ra,1014 <RCC_PLL3Config>
D:\projects\mechanical_arm\ch32v307\EVT\EXAM\ETH\TcpClient\obj/../User/main.c:173
    RCC_MCOConfig(RCC_MCO_PLL3CLK);
     444:	452d                	li	a0,11
     446:	387000ef          	jal	ra,fcc <RCC_MCOConfig>
D:\projects\mechanical_arm\ch32v307\EVT\EXAM\ETH\TcpClient\obj/../User/main.c:174
    RCC_PLL3Cmd(ENABLE);
     44a:	4505                	li	a0,1
     44c:	3db000ef          	jal	ra,1026 <RCC_PLL3Cmd>
D:\projects\mechanical_arm\ch32v307\EVT\EXAM\ETH\TcpClient\obj/../User/main.c:175
    Delay_Ms(100);
     450:	06400513          	li	a0,100
D:\projects\mechanical_arm\ch32v307\EVT\EXAM\ETH\TcpClient\obj/../User/main.c:178
    while(RESET == RCC_GetFlagStatus(RCC_FLAG_PLL3RDY))
    {
        Delay_Ms(500);
     454:	645000ef          	jal	ra,1298 <Delay_Ms>
D:\projects\mechanical_arm\ch32v307\EVT\EXAM\ETH\TcpClient\obj/../User/main.c:176
    while(RESET == RCC_GetFlagStatus(RCC_FLAG_PLL3RDY))
     458:	03d00513          	li	a0,61
     45c:	37b000ef          	jal	ra,fd6 <RCC_GetFlagStatus>
     460:	c519                	beqz	a0,46e <SET_MCO+0x40>
D:\projects\mechanical_arm\ch32v307\EVT\EXAM\ETH\TcpClient\obj/../User/main.c:181
    }
    RCC_AHBPeriphClockCmd(RCC_APB2Periph_AFIO,ENABLE);
}
     462:	40b2                	lw	ra,12(sp)
D:\projects\mechanical_arm\ch32v307\EVT\EXAM\ETH\TcpClient\obj/../User/main.c:180
    RCC_AHBPeriphClockCmd(RCC_APB2Periph_AFIO,ENABLE);
     464:	4585                	li	a1,1
     466:	4505                	li	a0,1
D:\projects\mechanical_arm\ch32v307\EVT\EXAM\ETH\TcpClient\obj/../User/main.c:181
}
     468:	0141                	addi	sp,sp,16
D:\projects\mechanical_arm\ch32v307\EVT\EXAM\ETH\TcpClient\obj/../User/main.c:180
    RCC_AHBPeriphClockCmd(RCC_APB2Periph_AFIO,ENABLE);
     46a:	3090006f          	j	f72 <RCC_AHBPeriphClockCmd>
D:\projects\mechanical_arm\ch32v307\EVT\EXAM\ETH\TcpClient\obj/../User/main.c:178
        Delay_Ms(500);
     46e:	1f400513          	li	a0,500
     472:	b7cd                	j	454 <SET_MCO+0x26>

00000474 <TIM2_Init>:
TIM2_Init():
D:\projects\mechanical_arm\ch32v307\EVT\EXAM\ETH\TcpClient\obj/../User/main.c:191
 * @brief   Initializes TIM2.
 *
 * @return  none
 */
void TIM2_Init( void )
{
     474:	1101                	addi	sp,sp,-32
D:\projects\mechanical_arm\ch32v307\EVT\EXAM\ETH\TcpClient\obj/../User/main.c:194
    TIM_TimeBaseInitTypeDef  TIM_TimeBaseStructure={0};

    RCC_APB1PeriphClockCmd(RCC_APB1Periph_TIM2, ENABLE);
     476:	4585                	li	a1,1
     478:	4505                	li	a0,1
D:\projects\mechanical_arm\ch32v307\EVT\EXAM\ETH\TcpClient\obj/../User/main.c:191
{
     47a:	ce06                	sw	ra,28(sp)
D:\projects\mechanical_arm\ch32v307\EVT\EXAM\ETH\TcpClient\obj/../User/main.c:192
    TIM_TimeBaseInitTypeDef  TIM_TimeBaseStructure={0};
     47c:	c202                	sw	zero,4(sp)
     47e:	c402                	sw	zero,8(sp)
     480:	00011623          	sh	zero,12(sp)
D:\projects\mechanical_arm\ch32v307\EVT\EXAM\ETH\TcpClient\obj/../User/main.c:194
    RCC_APB1PeriphClockCmd(RCC_APB1Periph_TIM2, ENABLE);
     484:	32b000ef          	jal	ra,fae <RCC_APB1PeriphClockCmd>
D:\projects\mechanical_arm\ch32v307\EVT\EXAM\ETH\TcpClient\obj/../User/main.c:197

    TIM_TimeBaseStructure.TIM_Period = 200-1;
    TIM_TimeBaseStructure.TIM_Prescaler =7200-1;
     488:	6789                	lui	a5,0x2
     48a:	c1f78793          	addi	a5,a5,-993 # 1c1f <WCHNET_SocketCreat+0x59>
     48e:	c23e                	sw	a5,4(sp)
D:\projects\mechanical_arm\ch32v307\EVT\EXAM\ETH\TcpClient\obj/../User/main.c:200
    TIM_TimeBaseStructure.TIM_ClockDivision = 0;
    TIM_TimeBaseStructure.TIM_CounterMode = TIM_CounterMode_Up;
    TIM_TimeBaseInit(TIM2, &TIM_TimeBaseStructure);
     490:	004c                	addi	a1,sp,4
D:\projects\mechanical_arm\ch32v307\EVT\EXAM\ETH\TcpClient\obj/../User/main.c:196
    TIM_TimeBaseStructure.TIM_Period = 200-1;
     492:	0c700793          	li	a5,199
D:\projects\mechanical_arm\ch32v307\EVT\EXAM\ETH\TcpClient\obj/../User/main.c:200
    TIM_TimeBaseInit(TIM2, &TIM_TimeBaseStructure);
     496:	40000537          	lui	a0,0x40000
D:\projects\mechanical_arm\ch32v307\EVT\EXAM\ETH\TcpClient\obj/../User/main.c:196
    TIM_TimeBaseStructure.TIM_Period = 200-1;
     49a:	c43e                	sw	a5,8(sp)
D:\projects\mechanical_arm\ch32v307\EVT\EXAM\ETH\TcpClient\obj/../User/main.c:200
    TIM_TimeBaseInit(TIM2, &TIM_TimeBaseStructure);
     49c:	3cd000ef          	jal	ra,1068 <TIM_TimeBaseInit>
D:\projects\mechanical_arm\ch32v307\EVT\EXAM\ETH\TcpClient\obj/../User/main.c:201
    TIM_ITConfig(TIM2, TIM_IT_Update ,ENABLE);
     4a0:	4605                	li	a2,1
     4a2:	4585                	li	a1,1
     4a4:	40000537          	lui	a0,0x40000
     4a8:	49d000ef          	jal	ra,1144 <TIM_ITConfig>
D:\projects\mechanical_arm\ch32v307\EVT\EXAM\ETH\TcpClient\obj/../User/main.c:203

    TIM_Cmd(TIM2, ENABLE);
     4ac:	4585                	li	a1,1
     4ae:	40000537          	lui	a0,0x40000
     4b2:	477000ef          	jal	ra,1128 <TIM_Cmd>
D:\projects\mechanical_arm\ch32v307\EVT\EXAM\ETH\TcpClient\obj/../User/main.c:204
    TIM_ClearITPendingBit(TIM2, TIM_IT_Update );
     4b6:	4585                	li	a1,1
     4b8:	40000537          	lui	a0,0x40000
     4bc:	49f000ef          	jal	ra,115a <TIM_ClearITPendingBit>
NVIC_SetPriority():
D:\projects\mechanical_arm\ch32v307\EVT\EXAM\SRC\Core/core_riscv.h:266
 *              bit6~bit4 - subpriority
 * @return  None
 */
RV_STATIC_INLINE void NVIC_SetPriority(IRQn_Type IRQn, uint8_t priority)
{
  NVIC->IPRIOR[(uint32_t)(IRQn)] = priority;
     4c0:	e000e7b7          	lui	a5,0xe000e
     4c4:	f8000713          	li	a4,-128
     4c8:	42e78623          	sb	a4,1068(a5) # e000e42c <_eusrstack+0xbffee42c>
TIM2_Init():
D:\projects\mechanical_arm\ch32v307\EVT\EXAM\ETH\TcpClient\obj/../User/main.c:207
    NVIC_SetPriority(TIM2_IRQn, 0x80);
    NVIC_EnableIRQ(TIM2_IRQn);
}
     4cc:	40f2                	lw	ra,28(sp)
NVIC_EnableIRQ():
D:\projects\mechanical_arm\ch32v307\EVT\EXAM\SRC\Core/core_riscv.h:163
  NVIC->IENR[((uint32_t)(IRQn) >> 5)] = (1 << ((uint32_t)(IRQn) & 0x1F));
     4ce:	6705                	lui	a4,0x1
     4d0:	10e7a223          	sw	a4,260(a5)
TIM2_Init():
D:\projects\mechanical_arm\ch32v307\EVT\EXAM\ETH\TcpClient\obj/../User/main.c:207
     4d4:	6105                	addi	sp,sp,32
     4d6:	8082                	ret

000004d8 <WCHNET_CreatTcpSocket>:
WCHNET_CreatTcpSocket():
D:\projects\mechanical_arm\ch32v307\EVT\EXAM\ETH\TcpClient\obj/../User/main.c:218
 * @brief   Creat Tcp Socket
 *
 * @return  none
 */
void WCHNET_CreatTcpSocket(void)
{
     4d8:	715d                	addi	sp,sp,-80
D:\projects\mechanical_arm\ch32v307\EVT\EXAM\ETH\TcpClient\obj/../User/main.c:222
   u8 i;
   SOCK_INF TmpSocketInf;                                                       /* 创建临时socket变量 */

   memset((void *)&TmpSocketInf,0,sizeof(SOCK_INF));                            /* 库内部会将此变量复制，所以最好将临时变量先全部清零 */
     4da:	03c00613          	li	a2,60
     4de:	4581                	li	a1,0
     4e0:	0048                	addi	a0,sp,4
D:\projects\mechanical_arm\ch32v307\EVT\EXAM\ETH\TcpClient\obj/../User/main.c:218
{
     4e2:	c686                	sw	ra,76(sp)
     4e4:	c4a2                	sw	s0,72(sp)
     4e6:	c2a6                	sw	s1,68(sp)
D:\projects\mechanical_arm\ch32v307\EVT\EXAM\ETH\TcpClient\obj/../User/main.c:222
   memset((void *)&TmpSocketInf,0,sizeof(SOCK_INF));                            /* 库内部会将此变量复制，所以最好将临时变量先全部清零 */
     4e8:	3ba5                	jal	260 <memset>
D:\projects\mechanical_arm\ch32v307\EVT\EXAM\ETH\TcpClient\obj/../User/main.c:223
   memcpy((void *)TmpSocketInf.IPAddr,DESIP,4);                                 /* 设置目的IP地址 */
     4ea:	200007b7          	lui	a5,0x20000
     4ee:	0107a783          	lw	a5,16(a5) # 20000010 <DESIP>
D:\projects\mechanical_arm\ch32v307\EVT\EXAM\ETH\TcpClient\obj/../User/main.c:227
   TmpSocketInf.DesPort  = desport;                                             /* 设置目的端口 */
   TmpSocketInf.SourPort = srcport++;                                           /* 设置源端口 */
   TmpSocketInf.ProtoType = PROTO_TYPE_TCP;                                     /* 设置socekt类型 */
   TmpSocketInf.RecvStartPoint = (u32)SocketRecvBuf[SocketId];                  /* 设置接收缓冲区的接收缓冲区 */
     4f2:	20004437          	lui	s0,0x20004
D:\projects\mechanical_arm\ch32v307\EVT\EXAM\ETH\TcpClient\obj/../User/main.c:229
   TmpSocketInf.RecvBufLen = RECE_BUF_LEN ;                                     /* 设置接收缓冲区的接收长度 */
   i = WCHNET_SocketCreat(&SocketId,&TmpSocketInf);                             /* 创建socket，将返回的socket索引保存在SocketId中 */
     4f6:	004c                	addi	a1,sp,4
D:\projects\mechanical_arm\ch32v307\EVT\EXAM\ETH\TcpClient\obj/../User/main.c:223
   memcpy((void *)TmpSocketInf.IPAddr,DESIP,4);                                 /* 设置目的IP地址 */
     4f8:	d83e                	sw	a5,48(sp)
D:\projects\mechanical_arm\ch32v307\EVT\EXAM\ETH\TcpClient\obj/../User/main.c:224
   TmpSocketInf.DesPort  = desport;                                             /* 设置目的端口 */
     4fa:	8101d783          	lhu	a5,-2032(gp) # 20000020 <desport>
D:\projects\mechanical_arm\ch32v307\EVT\EXAM\ETH\TcpClient\obj/../User/main.c:229
   i = WCHNET_SocketCreat(&SocketId,&TmpSocketInf);                             /* 创建socket，将返回的socket索引保存在SocketId中 */
     4fe:	eb440513          	addi	a0,s0,-332 # 20003eb4 <SocketId>
D:\projects\mechanical_arm\ch32v307\EVT\EXAM\ETH\TcpClient\obj/../User/main.c:224
   TmpSocketInf.DesPort  = desport;                                             /* 设置目的端口 */
     502:	d43e                	sw	a5,40(sp)
D:\projects\mechanical_arm\ch32v307\EVT\EXAM\ETH\TcpClient\obj/../User/main.c:225
   TmpSocketInf.SourPort = srcport++;                                           /* 设置源端口 */
     504:	81218793          	addi	a5,gp,-2030 # 20000022 <srcport>
     508:	0007d703          	lhu	a4,0(a5)
     50c:	00170693          	addi	a3,a4,1 # 1001 <RCC_GetFlagStatus+0x2b>
     510:	00d79023          	sh	a3,0(a5)
D:\projects\mechanical_arm\ch32v307\EVT\EXAM\ETH\TcpClient\obj/../User/main.c:226
   TmpSocketInf.ProtoType = PROTO_TYPE_TCP;                                     /* 设置socekt类型 */
     514:	478d                	li	a5,3
     516:	d03e                	sw	a5,32(sp)
D:\projects\mechanical_arm\ch32v307\EVT\EXAM\ETH\TcpClient\obj/../User/main.c:227
   TmpSocketInf.RecvStartPoint = (u32)SocketRecvBuf[SocketId];                  /* 设置接收缓冲区的接收缓冲区 */
     518:	eb444783          	lbu	a5,-332(s0)
     51c:	64000693          	li	a3,1600
D:\projects\mechanical_arm\ch32v307\EVT\EXAM\ETH\TcpClient\obj/../User/main.c:225
   TmpSocketInf.SourPort = srcport++;                                           /* 设置源端口 */
     520:	d63a                	sw	a4,44(sp)
D:\projects\mechanical_arm\ch32v307\EVT\EXAM\ETH\TcpClient\obj/../User/main.c:227
   TmpSocketInf.RecvStartPoint = (u32)SocketRecvBuf[SocketId];                  /* 设置接收缓冲区的接收缓冲区 */
     522:	02d787b3          	mul	a5,a5,a3
     526:	20009737          	lui	a4,0x20009
     52a:	22070713          	addi	a4,a4,544 # 20009220 <SocketRecvBuf>
D:\projects\mechanical_arm\ch32v307\EVT\EXAM\ETH\TcpClient\obj/../User/main.c:228
   TmpSocketInf.RecvBufLen = RECE_BUF_LEN ;                                     /* 设置接收缓冲区的接收长度 */
     52e:	c836                	sw	a3,16(sp)
D:\projects\mechanical_arm\ch32v307\EVT\EXAM\ETH\TcpClient\obj/../User/main.c:227
   TmpSocketInf.RecvStartPoint = (u32)SocketRecvBuf[SocketId];                  /* 设置接收缓冲区的接收缓冲区 */
     530:	97ba                	add	a5,a5,a4
     532:	c63e                	sw	a5,12(sp)
D:\projects\mechanical_arm\ch32v307\EVT\EXAM\ETH\TcpClient\obj/../User/main.c:229
   i = WCHNET_SocketCreat(&SocketId,&TmpSocketInf);                             /* 创建socket，将返回的socket索引保存在SocketId中 */
     534:	692010ef          	jal	ra,1bc6 <WCHNET_SocketCreat>
D:\projects\mechanical_arm\ch32v307\EVT\EXAM\ETH\TcpClient\obj/../User/main.c:230
   printf("WCHNET_SocketCreat %d\r\n",SocketId);
     538:	eb444583          	lbu	a1,-332(s0)
D:\projects\mechanical_arm\ch32v307\EVT\EXAM\ETH\TcpClient\obj/../User/main.c:229
   i = WCHNET_SocketCreat(&SocketId,&TmpSocketInf);                             /* 创建socket，将返回的socket索引保存在SocketId中 */
     53c:	84aa                	mv	s1,a0
D:\projects\mechanical_arm\ch32v307\EVT\EXAM\ETH\TcpClient\obj/../User/main.c:230
   printf("WCHNET_SocketCreat %d\r\n",SocketId);
     53e:	00008537          	lui	a0,0x8
     542:	46850513          	addi	a0,a0,1128 # 8468 <MemSize+0x10>
     546:	58f070ef          	jal	ra,82d4 <printf>
D:\projects\mechanical_arm\ch32v307\EVT\EXAM\ETH\TcpClient\obj/../User/main.c:231
   mStopIfError(i);                                                             /* 检查错误 */
     54a:	8526                	mv	a0,s1
     54c:	3569                	jal	3d6 <mStopIfError>
D:\projects\mechanical_arm\ch32v307\EVT\EXAM\ETH\TcpClient\obj/../User/main.c:232
   i = WCHNET_SocketConnect(SocketId);                                          /* TCP连接 */
     54e:	eb444503          	lbu	a0,-332(s0)
     552:	713010ef          	jal	ra,2464 <WCHNET_SocketConnect>
D:\projects\mechanical_arm\ch32v307\EVT\EXAM\ETH\TcpClient\obj/../User/main.c:233
   mStopIfError(i);                                                             /* 检查错误 */
     556:	3541                	jal	3d6 <mStopIfError>
D:\projects\mechanical_arm\ch32v307\EVT\EXAM\ETH\TcpClient\obj/../User/main.c:234
}
     558:	40b6                	lw	ra,76(sp)
     55a:	4426                	lw	s0,72(sp)
     55c:	4496                	lw	s1,68(sp)
     55e:	6161                	addi	sp,sp,80
     560:	8082                	ret

00000562 <WCHNET_HandleSockInt>:
WCHNET_HandleSockInt():
D:\projects\mechanical_arm\ch32v307\EVT\EXAM\ETH\TcpClient\obj/../User/main.c:244
 * @brief   Socket Interrupt Handle
 *
 * @return  none
 */
void WCHNET_HandleSockInt(u8 sockeid,u8 initstat)
{
     562:	1101                	addi	sp,sp,-32
     564:	cc22                	sw	s0,24(sp)
     566:	ce06                	sw	ra,28(sp)
     568:	ca26                	sw	s1,20(sp)
     56a:	c84a                	sw	s2,16(sp)
D:\projects\mechanical_arm\ch32v307\EVT\EXAM\ETH\TcpClient\obj/../User/main.c:247
    u32 len;

    if(initstat & SINT_STAT_RECV)                                               /* socket接收中断*/
     56c:	0045f793          	andi	a5,a1,4
D:\projects\mechanical_arm\ch32v307\EVT\EXAM\ETH\TcpClient\obj/../User/main.c:244
{
     570:	842e                	mv	s0,a1
D:\projects\mechanical_arm\ch32v307\EVT\EXAM\ETH\TcpClient\obj/../User/main.c:247
    if(initstat & SINT_STAT_RECV)                                               /* socket接收中断*/
     572:	cb9d                	beqz	a5,5a8 <WCHNET_HandleSockInt+0x46>
D:\projects\mechanical_arm\ch32v307\EVT\EXAM\ETH\TcpClient\obj/../User/main.c:249
    {
       len = WCHNET_SocketRecvLen(sockeid,NULL);                                /* 获取socket缓冲区数据长度  */
     574:	4581                	li	a1,0
     576:	84aa                	mv	s1,a0
     578:	1f5010ef          	jal	ra,1f6c <WCHNET_SocketRecvLen>
     57c:	85aa                	mv	a1,a0
     57e:	c62a                	sw	a0,12(sp)
D:\projects\mechanical_arm\ch32v307\EVT\EXAM\ETH\TcpClient\obj/../User/main.c:250
       printf("WCHNET_SocketRecvLen %d \r\n",len);
     580:	00008537          	lui	a0,0x8
     584:	4c050513          	addi	a0,a0,1216 # 84c0 <MemSize+0x68>
     588:	54d070ef          	jal	ra,82d4 <printf>
D:\projects\mechanical_arm\ch32v307\EVT\EXAM\ETH\TcpClient\obj/../User/main.c:251
       WCHNET_SocketRecv(sockeid,MyBuf,&len);                                   /* 获取socket缓冲区数据 */
     58c:	20004937          	lui	s2,0x20004
     590:	0070                	addi	a2,sp,12
     592:	eb890593          	addi	a1,s2,-328 # 20003eb8 <MyBuf>
     596:	8526                	mv	a0,s1
     598:	007010ef          	jal	ra,1d9e <WCHNET_SocketRecv>
D:\projects\mechanical_arm\ch32v307\EVT\EXAM\ETH\TcpClient\obj/../User/main.c:252
       WCHNET_SocketSend(sockeid,MyBuf,&len);                                   /* 演示回传数据 */
     59c:	0070                	addi	a2,sp,12
     59e:	eb890593          	addi	a1,s2,-328
     5a2:	8526                	mv	a0,s1
     5a4:	667010ef          	jal	ra,240a <WCHNET_SocketSend>
D:\projects\mechanical_arm\ch32v307\EVT\EXAM\ETH\TcpClient\obj/../User/main.c:255

    }
    if(initstat & SINT_STAT_CONNECT)                                            /* socket连接成功中断*/
     5a8:	00847793          	andi	a5,s0,8
     5ac:	c799                	beqz	a5,5ba <WCHNET_HandleSockInt+0x58>
D:\projects\mechanical_arm\ch32v307\EVT\EXAM\ETH\TcpClient\obj/../User/main.c:257
    {
        printf("TCP Connect Success\r\n");
     5ae:	00008537          	lui	a0,0x8
     5b2:	4dc50513          	addi	a0,a0,1244 # 84dc <MemSize+0x84>
     5b6:	543070ef          	jal	ra,82f8 <puts>
D:\projects\mechanical_arm\ch32v307\EVT\EXAM\ETH\TcpClient\obj/../User/main.c:259
    }
    if(initstat & SINT_STAT_DISCONNECT)                                         /* socket连接断开中断*/
     5ba:	01047793          	andi	a5,s0,16
     5be:	c799                	beqz	a5,5cc <WCHNET_HandleSockInt+0x6a>
D:\projects\mechanical_arm\ch32v307\EVT\EXAM\ETH\TcpClient\obj/../User/main.c:261
    {
        printf("TCP Disconnect\r\n");
     5c0:	00008537          	lui	a0,0x8
     5c4:	4f450513          	addi	a0,a0,1268 # 84f4 <MemSize+0x9c>
     5c8:	531070ef          	jal	ra,82f8 <puts>
D:\projects\mechanical_arm\ch32v307\EVT\EXAM\ETH\TcpClient\obj/../User/main.c:263
    }
    if(initstat & SINT_STAT_TIM_OUT)                                            /* socket连接超时中断*/
     5cc:	04047413          	andi	s0,s0,64
     5d0:	cc01                	beqz	s0,5e8 <WCHNET_HandleSockInt+0x86>
D:\projects\mechanical_arm\ch32v307\EVT\EXAM\ETH\TcpClient\obj/../User/main.c:265
    {
       printf("TCP Timout\r\n");                                                /* 延时200ms，重连*/
     5d2:	00008537          	lui	a0,0x8
     5d6:	50450513          	addi	a0,a0,1284 # 8504 <MemSize+0xac>
     5da:	51f070ef          	jal	ra,82f8 <puts>
D:\projects\mechanical_arm\ch32v307\EVT\EXAM\ETH\TcpClient\obj/../User/main.c:266
       Delay_Ms(200);
     5de:	0c800513          	li	a0,200
     5e2:	4b7000ef          	jal	ra,1298 <Delay_Ms>
D:\projects\mechanical_arm\ch32v307\EVT\EXAM\ETH\TcpClient\obj/../User/main.c:267
       WCHNET_CreatTcpSocket();
     5e6:	3dcd                	jal	4d8 <WCHNET_CreatTcpSocket>
D:\projects\mechanical_arm\ch32v307\EVT\EXAM\ETH\TcpClient\obj/../User/main.c:269
    }
}
     5e8:	40f2                	lw	ra,28(sp)
     5ea:	4462                	lw	s0,24(sp)
     5ec:	44d2                	lw	s1,20(sp)
     5ee:	4942                	lw	s2,16(sp)
     5f0:	6105                	addi	sp,sp,32
     5f2:	8082                	ret

000005f4 <WCHNET_HandleGlobalInt>:
WCHNET_HandleGlobalInt():
D:\projects\mechanical_arm\ch32v307\EVT\EXAM\ETH\TcpClient\obj/../User/main.c:280
 * @brief   Global Interrupt Handle
 *
 * @return  none
 */
void WCHNET_HandleGlobalInt(void)
{
     5f4:	1141                	addi	sp,sp,-16
     5f6:	c422                	sw	s0,8(sp)
     5f8:	c606                	sw	ra,12(sp)
     5fa:	c226                	sw	s1,4(sp)
     5fc:	c04a                	sw	s2,0(sp)
D:\projects\mechanical_arm\ch32v307\EVT\EXAM\ETH\TcpClient\obj/../User/main.c:285
    u8 initstat;
    u16 i;
    u8 socketinit;

    initstat = WCHNET_GetGlobalInt();                                           /* 获取全局中断标志*/
     5fe:	479010ef          	jal	ra,2276 <WCHNET_GetGlobalInt>
D:\projects\mechanical_arm\ch32v307\EVT\EXAM\ETH\TcpClient\obj/../User/main.c:286
    if(initstat & GINT_STAT_UNREACH)                                            /* 不可达中断 */
     602:	00157793          	andi	a5,a0,1
D:\projects\mechanical_arm\ch32v307\EVT\EXAM\ETH\TcpClient\obj/../User/main.c:285
    initstat = WCHNET_GetGlobalInt();                                           /* 获取全局中断标志*/
     606:	842a                	mv	s0,a0
D:\projects\mechanical_arm\ch32v307\EVT\EXAM\ETH\TcpClient\obj/../User/main.c:286
    if(initstat & GINT_STAT_UNREACH)                                            /* 不可达中断 */
     608:	c799                	beqz	a5,616 <WCHNET_HandleGlobalInt+0x22>
D:\projects\mechanical_arm\ch32v307\EVT\EXAM\ETH\TcpClient\obj/../User/main.c:288
    {
       printf("GINT_STAT_UNREACH\r\n");
     60a:	00008537          	lui	a0,0x8
     60e:	48050513          	addi	a0,a0,1152 # 8480 <MemSize+0x28>
     612:	4e7070ef          	jal	ra,82f8 <puts>
D:\projects\mechanical_arm\ch32v307\EVT\EXAM\ETH\TcpClient\obj/../User/main.c:290
    }
   if(initstat & GINT_STAT_IP_CONFLI)                                           /* IP冲突中断 */
     616:	00247793          	andi	a5,s0,2
     61a:	c799                	beqz	a5,628 <WCHNET_HandleGlobalInt+0x34>
D:\projects\mechanical_arm\ch32v307\EVT\EXAM\ETH\TcpClient\obj/../User/main.c:292
   {
       printf("GINT_STAT_IP_CONFLI\r\n");
     61c:	00008537          	lui	a0,0x8
     620:	49450513          	addi	a0,a0,1172 # 8494 <MemSize+0x3c>
     624:	4d5070ef          	jal	ra,82f8 <puts>
D:\projects\mechanical_arm\ch32v307\EVT\EXAM\ETH\TcpClient\obj/../User/main.c:294
   }
   if(initstat & GINT_STAT_PHY_CHANGE)                                          /* PHY状态变化中断 */
     628:	00447793          	andi	a5,s0,4
     62c:	cb99                	beqz	a5,642 <WCHNET_HandleGlobalInt+0x4e>
D:\projects\mechanical_arm\ch32v307\EVT\EXAM\ETH\TcpClient\obj/../User/main.c:296
   {
       i = WCHNET_GetPHYStatus();                                               /* 获取PHY连接状态*/
     62e:	631010ef          	jal	ra,245e <WCHNET_GetPHYStatus>
D:\projects\mechanical_arm\ch32v307\EVT\EXAM\ETH\TcpClient\obj/../User/main.c:297
       if(i&PHY_Linked_Status)
     632:	8911                	andi	a0,a0,4
     634:	c519                	beqz	a0,642 <WCHNET_HandleGlobalInt+0x4e>
D:\projects\mechanical_arm\ch32v307\EVT\EXAM\ETH\TcpClient\obj/../User/main.c:298
       printf("PHY Link Success\r\n");
     636:	00008537          	lui	a0,0x8
     63a:	4ac50513          	addi	a0,a0,1196 # 84ac <MemSize+0x54>
     63e:	4bb070ef          	jal	ra,82f8 <puts>
D:\projects\mechanical_arm\ch32v307\EVT\EXAM\ETH\TcpClient\obj/../User/main.c:300
   }
   if(initstat & GINT_STAT_SOCKET)
     642:	8841                	andi	s0,s0,16
     644:	c00d                	beqz	s0,666 <WCHNET_HandleGlobalInt+0x72>
D:\projects\mechanical_arm\ch32v307\EVT\EXAM\ETH\TcpClient\obj/../User/main.c:302
   {
       for(i = 0; i < WCHNET_MAX_SOCKET_NUM; i ++)
     646:	4401                	li	s0,0
     648:	4921                	li	s2,8
D:\projects\mechanical_arm\ch32v307\EVT\EXAM\ETH\TcpClient\obj/../User/main.c:304
       {
           socketinit = WCHNET_GetSocketInt(i);
     64a:	0ff47493          	andi	s1,s0,255
     64e:	8526                	mv	a0,s1
     650:	435010ef          	jal	ra,2284 <WCHNET_GetSocketInt>
     654:	85aa                	mv	a1,a0
D:\projects\mechanical_arm\ch32v307\EVT\EXAM\ETH\TcpClient\obj/../User/main.c:305
           if(socketinit)WCHNET_HandleSockInt(i,socketinit);
     656:	c119                	beqz	a0,65c <WCHNET_HandleGlobalInt+0x68>
     658:	8526                	mv	a0,s1
     65a:	3721                	jal	562 <WCHNET_HandleSockInt>
D:\projects\mechanical_arm\ch32v307\EVT\EXAM\ETH\TcpClient\obj/../User/main.c:302
       for(i = 0; i < WCHNET_MAX_SOCKET_NUM; i ++)
     65c:	0405                	addi	s0,s0,1
     65e:	0442                	slli	s0,s0,0x10
     660:	8041                	srli	s0,s0,0x10
     662:	ff2414e3          	bne	s0,s2,64a <WCHNET_HandleGlobalInt+0x56>
D:\projects\mechanical_arm\ch32v307\EVT\EXAM\ETH\TcpClient\obj/../User/main.c:308
       }
   }
}
     666:	40b2                	lw	ra,12(sp)
     668:	4422                	lw	s0,8(sp)
     66a:	4492                	lw	s1,4(sp)
     66c:	4902                	lw	s2,0(sp)
     66e:	0141                	addi	sp,sp,16
     670:	8082                	ret

00000672 <Config_Flash_SRAM>:
Config_Flash_SRAM():
D:\projects\mechanical_arm\ch32v307\EVT\EXAM\ETH\TcpClient\obj/../User/main.c:320
    FLASH_288_RAM_32
} FLASH_SRAM_DEFIN;

//note: this operation will take effect after reset
void Config_Flash_SRAM(FLASH_SRAM_DEFIN SetFlashSRAM)
{
     672:	1101                	addi	sp,sp,-32
     674:	cc22                	sw	s0,24(sp)
     676:	ce06                	sw	ra,28(sp)
     678:	842a                	mv	s0,a0
D:\projects\mechanical_arm\ch32v307\EVT\EXAM\ETH\TcpClient\obj/../User/main.c:321
    uint8_t UserByte = FLASH_GetUserOptionByte() & 0xff; //get user option byte
     67a:	2b7d                	jal	c38 <FLASH_GetUserOptionByte>
D:\projects\mechanical_arm\ch32v307\EVT\EXAM\ETH\TcpClient\obj/../User/main.c:323

    switch(SetFlashSRAM)
     67c:	4785                	li	a5,1
D:\projects\mechanical_arm\ch32v307\EVT\EXAM\ETH\TcpClient\obj/../User/main.c:330
    case 0:
        UserByte &= ~(0xc0); // SRAM_CODE_MODE = 00
        break;
    case 1:
        UserByte &= ~(0xc0); // SRAM_CODE_MODE = 00
        UserByte |= 0x7f;    // SRAM_CODE_MODE = 01
     67e:	07f00593          	li	a1,127
     682:	00f40b63          	beq	s0,a5,698 <Config_Flash_SRAM+0x26>
     686:	0ff57593          	andi	a1,a0,255
     68a:	c01d                	beqz	s0,6b0 <Config_Flash_SRAM+0x3e>
     68c:	4789                	li	a5,2
     68e:	02f40463          	beq	s0,a5,6b6 <Config_Flash_SRAM+0x44>
     692:	478d                	li	a5,3
     694:	02f40463          	beq	s0,a5,6bc <Config_Flash_SRAM+0x4a>
     698:	c62e                	sw	a1,12(sp)
D:\projects\mechanical_arm\ch32v307\EVT\EXAM\ETH\TcpClient\obj/../User/main.c:343
        break;
    default:
        break;
    }

    FLASH_Unlock();
     69a:	2b9d                	jal	c10 <FLASH_Unlock>
D:\projects\mechanical_arm\ch32v307\EVT\EXAM\ETH\TcpClient\obj/../User/main.c:344
    FLASH_ProgramOptionByteData(0x1ffff802, UserByte);
     69c:	45b2                	lw	a1,12(sp)
     69e:	20000537          	lui	a0,0x20000
     6a2:	80250513          	addi	a0,a0,-2046 # 1ffff802 <_data_lma+0x1fff722e>
     6a6:	23dd                	jal	c8c <FLASH_ProgramOptionByteData>
D:\projects\mechanical_arm\ch32v307\EVT\EXAM\ETH\TcpClient\obj/../User/main.c:346
    FLASH_Lock();
}
     6a8:	4462                	lw	s0,24(sp)
     6aa:	40f2                	lw	ra,28(sp)
     6ac:	6105                	addi	sp,sp,32
D:\projects\mechanical_arm\ch32v307\EVT\EXAM\ETH\TcpClient\obj/../User/main.c:345
    FLASH_Lock();
     6ae:	abb5                	j	c2a <FLASH_Lock>
D:\projects\mechanical_arm\ch32v307\EVT\EXAM\ETH\TcpClient\obj/../User/main.c:326
        UserByte &= ~(0xc0); // SRAM_CODE_MODE = 00
     6b0:	03f5f593          	andi	a1,a1,63
D:\projects\mechanical_arm\ch32v307\EVT\EXAM\ETH\TcpClient\obj/../User/main.c:327
        break;
     6b4:	b7d5                	j	698 <Config_Flash_SRAM+0x26>
D:\projects\mechanical_arm\ch32v307\EVT\EXAM\ETH\TcpClient\obj/../User/main.c:334
        UserByte |= 0xbf;    // SRAM_CODE_MODE = 10
     6b6:	0bf00593          	li	a1,191
     6ba:	bff9                	j	698 <Config_Flash_SRAM+0x26>
D:\projects\mechanical_arm\ch32v307\EVT\EXAM\ETH\TcpClient\obj/../User/main.c:337
        UserByte |= 0xff;    // SRAM_CODE_MODE = 11
     6bc:	0ff00593          	li	a1,255
     6c0:	bfe1                	j	698 <Config_Flash_SRAM+0x26>

000006c2 <main>:
main():
D:\projects\mechanical_arm\ch32v307\EVT\EXAM\ETH\TcpClient\obj/../User/main.c:356
 * @brief   Main program
 *
 * @return  none
 */
int main(void)
{
     6c2:	1141                	addi	sp,sp,-16
     6c4:	c606                	sw	ra,12(sp)
     6c6:	c422                	sw	s0,8(sp)
D:\projects\mechanical_arm\ch32v307\EVT\EXAM\ETH\TcpClient\obj/../User/main.c:359
    u8 i;

	Delay_Init();
     6c8:	3ab000ef          	jal	ra,1272 <Delay_Init>
D:\projects\mechanical_arm\ch32v307\EVT\EXAM\ETH\TcpClient\obj/../User/main.c:360
	USART_Printf_Init(115200);                                              /*串口打印初始化*/
     6cc:	6571                	lui	a0,0x1c
     6ce:	20050513          	addi	a0,a0,512 # 1c200 <_data_lma+0x13c2c>
     6d2:	3f5000ef          	jal	ra,12c6 <USART_Printf_Init>
D:\projects\mechanical_arm\ch32v307\EVT\EXAM\ETH\TcpClient\obj/../User/main.c:361
	printf("TcpClient Test\r\n");
     6d6:	00008537          	lui	a0,0x8
     6da:	52050513          	addi	a0,a0,1312 # 8520 <MemSize+0xc8>
     6de:	41b070ef          	jal	ra,82f8 <puts>
D:\projects\mechanical_arm\ch32v307\EVT\EXAM\ETH\TcpClient\obj/../User/main.c:362
	 Config_Flash_SRAM(FlASH_192_SRAM_128);
     6e2:	4501                	li	a0,0
     6e4:	3779                	jal	672 <Config_Flash_SRAM>
D:\projects\mechanical_arm\ch32v307\EVT\EXAM\ETH\TcpClient\obj/../User/main.c:363
    SET_MCO();
     6e6:	33a1                	jal	42e <SET_MCO>
D:\projects\mechanical_arm\ch32v307\EVT\EXAM\ETH\TcpClient\obj/../User/main.c:364
    TIM2_Init();
     6e8:	3371                	jal	474 <TIM2_Init>
D:\projects\mechanical_arm\ch32v307\EVT\EXAM\ETH\TcpClient\obj/../User/main.c:365
    WCH_GetMac(MACAddr);                                                     /*获取芯片Mac地址*/
     6ea:	b3c18513          	addi	a0,gp,-1220 # 2000034c <MACAddr>
     6ee:	48d000ef          	jal	ra,137a <WCH_GetMac>
D:\projects\mechanical_arm\ch32v307\EVT\EXAM\ETH\TcpClient\obj/../User/main.c:366
    i=WCHNET_LibInit(IPAddr,GWIPAddr,IPMask,MACAddr);                        /*以太网库初始化*/
     6f2:	b3c18693          	addi	a3,gp,-1220 # 2000034c <MACAddr>
     6f6:	80c18613          	addi	a2,gp,-2036 # 2000001c <IPMask>
     6fa:	80418593          	addi	a1,gp,-2044 # 20000014 <GWIPAddr>
     6fe:	80818513          	addi	a0,gp,-2040 # 20000018 <IPAddr>
     702:	31dd                	jal	3e8 <WCHNET_LibInit>
D:\projects\mechanical_arm\ch32v307\EVT\EXAM\ETH\TcpClient\obj/../User/main.c:368
    //mStopIfError(i);
    if(i==WCHNET_ERR_SUCCESS) printf("WCHNET_LibInit Success\r\n");
     704:	e519                	bnez	a0,712 <main+0x50>
D:\projects\mechanical_arm\ch32v307\EVT\EXAM\ETH\TcpClient\obj/../User/main.c:368 (discriminator 1)
     706:	00008537          	lui	a0,0x8
     70a:	53050513          	addi	a0,a0,1328 # 8530 <MemSize+0xd8>
     70e:	3eb070ef          	jal	ra,82f8 <puts>
D:\projects\mechanical_arm\ch32v307\EVT\EXAM\ETH\TcpClient\obj/../User/main.c:369
    while(!(WCHNET_GetPHYStatus()&PHY_LINK_SUCCESS))                         /*等待PHY连接成功*/
     712:	54d010ef          	jal	ra,245e <WCHNET_GetPHYStatus>
     716:	8911                	andi	a0,a0,4
     718:	c909                	beqz	a0,72a <main+0x68>
D:\projects\mechanical_arm\ch32v307\EVT\EXAM\ETH\TcpClient\obj/../User/main.c:373
     {
       Delay_Ms(100);
     }
    WCHNET_CreatTcpSocket();                                                 /*创建Tcp socket*/
     71a:	3b7d                	jal	4d8 <WCHNET_CreatTcpSocket>
D:\projects\mechanical_arm\ch32v307\EVT\EXAM\ETH\TcpClient\obj/../User/main.c:377

	while(1)
	{
	  WCHNET_MainTask();                                                     /*以太网库主任务函数，需要循环调用*/
     71c:	3b7010ef          	jal	ra,22d2 <WCHNET_MainTask>
D:\projects\mechanical_arm\ch32v307\EVT\EXAM\ETH\TcpClient\obj/../User/main.c:378
	  if(WCHNET_QueryGlobalInt())                                            /*查询以太网全局中断，如果有中断，调用全局中断处理函数*/
     720:	32b010ef          	jal	ra,224a <WCHNET_QueryGlobalInt>
     724:	dd65                	beqz	a0,71c <main+0x5a>
D:\projects\mechanical_arm\ch32v307\EVT\EXAM\ETH\TcpClient\obj/../User/main.c:380
	  {
         WCHNET_HandleGlobalInt();
     726:	35f9                	jal	5f4 <WCHNET_HandleGlobalInt>
     728:	bfd5                	j	71c <main+0x5a>
D:\projects\mechanical_arm\ch32v307\EVT\EXAM\ETH\TcpClient\obj/../User/main.c:371
       Delay_Ms(100);
     72a:	06400513          	li	a0,100
     72e:	36b000ef          	jal	ra,1298 <Delay_Ms>
     732:	b7c5                	j	712 <main+0x50>

00000734 <SystemInit>:
SystemInit():
D:\projects\mechanical_arm\ch32v307\EVT\EXAM\ETH\TcpClient\obj/../User/system_ch32v30x.c:87
 *
 * @return  none
 */
void SystemInit (void)
{
  RCC->CTLR |= (uint32_t)0x00000001;
     734:	400217b7          	lui	a5,0x40021
     738:	4398                	lw	a4,0(a5)
D:\projects\mechanical_arm\ch32v307\EVT\EXAM\ETH\TcpClient\obj/../User/system_ch32v30x.c:90

#ifdef CH32V30x_D8C
  RCC->CFGR0 &= (uint32_t)0xF8FF0000;
     73a:	f8ff06b7          	lui	a3,0xf8ff0
D:\projects\mechanical_arm\ch32v307\EVT\EXAM\ETH\TcpClient\obj/../User/system_ch32v30x.c:86
{
     73e:	1141                	addi	sp,sp,-16
D:\projects\mechanical_arm\ch32v307\EVT\EXAM\ETH\TcpClient\obj/../User/system_ch32v30x.c:87
  RCC->CTLR |= (uint32_t)0x00000001;
     740:	00176713          	ori	a4,a4,1
     744:	c398                	sw	a4,0(a5)
D:\projects\mechanical_arm\ch32v307\EVT\EXAM\ETH\TcpClient\obj/../User/system_ch32v30x.c:90
  RCC->CFGR0 &= (uint32_t)0xF8FF0000;
     746:	43d8                	lw	a4,4(a5)
SetSysClockTo144():
D:\projects\mechanical_arm\ch32v307\EVT\EXAM\ETH\TcpClient\obj/../User/system_ch32v30x.c:720
  RCC->CTLR |= ((uint32_t)RCC_HSEON);

  /* Wait till HSE is ready and if Time out is reached exit */
  do
  {
    HSEStatus = RCC->CTLR & RCC_HSERDY;
     748:	00020637          	lui	a2,0x20
SystemInit():
D:\projects\mechanical_arm\ch32v307\EVT\EXAM\ETH\TcpClient\obj/../User/system_ch32v30x.c:90
  RCC->CFGR0 &= (uint32_t)0xF8FF0000;
     74c:	8f75                	and	a4,a4,a3
     74e:	c3d8                	sw	a4,4(a5)
D:\projects\mechanical_arm\ch32v307\EVT\EXAM\ETH\TcpClient\obj/../User/system_ch32v30x.c:95
  RCC->CTLR &= (uint32_t)0xFEF6FFFF;
     750:	4398                	lw	a4,0(a5)
     752:	fef706b7          	lui	a3,0xfef70
     756:	16fd                	addi	a3,a3,-1
     758:	8f75                	and	a4,a4,a3
     75a:	c398                	sw	a4,0(a5)
D:\projects\mechanical_arm\ch32v307\EVT\EXAM\ETH\TcpClient\obj/../User/system_ch32v30x.c:96
  RCC->CTLR &= (uint32_t)0xFFFBFFFF;
     75c:	4398                	lw	a4,0(a5)
     75e:	fffc06b7          	lui	a3,0xfffc0
     762:	16fd                	addi	a3,a3,-1
     764:	8f75                	and	a4,a4,a3
     766:	c398                	sw	a4,0(a5)
D:\projects\mechanical_arm\ch32v307\EVT\EXAM\ETH\TcpClient\obj/../User/system_ch32v30x.c:97
  RCC->CFGR0 &= (uint32_t)0xFF80FFFF;
     768:	43d8                	lw	a4,4(a5)
     76a:	ff8106b7          	lui	a3,0xff810
     76e:	16fd                	addi	a3,a3,-1
     770:	8f75                	and	a4,a4,a3
     772:	c3d8                	sw	a4,4(a5)
D:\projects\mechanical_arm\ch32v307\EVT\EXAM\ETH\TcpClient\obj/../User/system_ch32v30x.c:100
  RCC->CTLR &= (uint32_t)0xEBFFFFFF;
     774:	4398                	lw	a4,0(a5)
     776:	ec0006b7          	lui	a3,0xec000
     77a:	16fd                	addi	a3,a3,-1
     77c:	8f75                	and	a4,a4,a3
     77e:	c398                	sw	a4,0(a5)
D:\projects\mechanical_arm\ch32v307\EVT\EXAM\ETH\TcpClient\obj/../User/system_ch32v30x.c:101
  RCC->INTR = 0x00FF0000;
     780:	00ff0737          	lui	a4,0xff0
     784:	c798                	sw	a4,8(a5)
D:\projects\mechanical_arm\ch32v307\EVT\EXAM\ETH\TcpClient\obj/../User/system_ch32v30x.c:102
  RCC->CFGR2 = 0x00000000;
     786:	0207a623          	sw	zero,44(a5) # 4002102c <_eusrstack+0x2000102c>
SetSysClockTo144():
D:\projects\mechanical_arm\ch32v307\EVT\EXAM\ETH\TcpClient\obj/../User/system_ch32v30x.c:713
  __IO uint32_t StartUpCounter = 0, HSEStatus = 0;
     78a:	c402                	sw	zero,8(sp)
     78c:	c602                	sw	zero,12(sp)
D:\projects\mechanical_arm\ch32v307\EVT\EXAM\ETH\TcpClient\obj/../User/system_ch32v30x.c:715
  RCC->CTLR |= ((uint32_t)RCC_HSEON);
     78e:	4398                	lw	a4,0(a5)
     790:	66c1                	lui	a3,0x10
     792:	8f55                	or	a4,a4,a3
     794:	c398                	sw	a4,0(a5)
D:\projects\mechanical_arm\ch32v307\EVT\EXAM\ETH\TcpClient\obj/../User/system_ch32v30x.c:720
    HSEStatus = RCC->CTLR & RCC_HSERDY;
     796:	400216b7          	lui	a3,0x40021
D:\projects\mechanical_arm\ch32v307\EVT\EXAM\ETH\TcpClient\obj/../User/system_ch32v30x.c:722
    StartUpCounter++;
  } while((HSEStatus == 0) && (StartUpCounter != HSE_STARTUP_TIMEOUT));
     79a:	6705                	lui	a4,0x1
D:\projects\mechanical_arm\ch32v307\EVT\EXAM\ETH\TcpClient\obj/../User/system_ch32v30x.c:720
    HSEStatus = RCC->CTLR & RCC_HSERDY;
     79c:	429c                	lw	a5,0(a3)
     79e:	8ff1                	and	a5,a5,a2
     7a0:	c63e                	sw	a5,12(sp)
D:\projects\mechanical_arm\ch32v307\EVT\EXAM\ETH\TcpClient\obj/../User/system_ch32v30x.c:721
    StartUpCounter++;
     7a2:	47a2                	lw	a5,8(sp)
     7a4:	0785                	addi	a5,a5,1
     7a6:	c43e                	sw	a5,8(sp)
D:\projects\mechanical_arm\ch32v307\EVT\EXAM\ETH\TcpClient\obj/../User/system_ch32v30x.c:722
  } while((HSEStatus == 0) && (StartUpCounter != HSE_STARTUP_TIMEOUT));
     7a8:	47b2                	lw	a5,12(sp)
     7aa:	e781                	bnez	a5,7b2 <SystemInit+0x7e>
     7ac:	47a2                	lw	a5,8(sp)
     7ae:	fee797e3          	bne	a5,a4,79c <SystemInit+0x68>
D:\projects\mechanical_arm\ch32v307\EVT\EXAM\ETH\TcpClient\obj/../User/system_ch32v30x.c:724

  if ((RCC->CTLR & RCC_HSERDY) != RESET)
     7b2:	400217b7          	lui	a5,0x40021
     7b6:	439c                	lw	a5,0(a5)
     7b8:	00e79713          	slli	a4,a5,0xe
     7bc:	06075663          	bgez	a4,828 <__stack_size+0x28>
D:\projects\mechanical_arm\ch32v307\EVT\EXAM\ETH\TcpClient\obj/../User/system_ch32v30x.c:726
  {
    HSEStatus = (uint32_t)0x01;
     7c0:	4785                	li	a5,1
     7c2:	c63e                	sw	a5,12(sp)
D:\projects\mechanical_arm\ch32v307\EVT\EXAM\ETH\TcpClient\obj/../User/system_ch32v30x.c:733
  else
  {
    HSEStatus = (uint32_t)0x00;
  }

  if (HSEStatus == (uint32_t)0x01)
     7c4:	4732                	lw	a4,12(sp)
     7c6:	4785                	li	a5,1
     7c8:	04f71e63          	bne	a4,a5,824 <__stack_size+0x24>
D:\projects\mechanical_arm\ch32v307\EVT\EXAM\ETH\TcpClient\obj/../User/system_ch32v30x.c:736
  {
    /* HCLK = SYSCLK */
    RCC->CFGR0 |= (uint32_t)RCC_HPRE_DIV1;
     7cc:	400217b7          	lui	a5,0x40021
     7d0:	43d8                	lw	a4,4(a5)
D:\projects\mechanical_arm\ch32v307\EVT\EXAM\ETH\TcpClient\obj/../User/system_ch32v30x.c:743
    RCC->CFGR0 |= (uint32_t)RCC_PPRE2_DIV1;
    /* PCLK1 = HCLK */
    RCC->CFGR0 |= (uint32_t)RCC_PPRE1_DIV2;

    /*  PLL configuration: PLLCLK = HSE * 18 = 144 MHz */
    RCC->CFGR0 &= (uint32_t)((uint32_t)~(RCC_PLLSRC | RCC_PLLXTPRE |
     7d2:	ffc106b7          	lui	a3,0xffc10
     7d6:	16fd                	addi	a3,a3,-1
D:\projects\mechanical_arm\ch32v307\EVT\EXAM\ETH\TcpClient\obj/../User/system_ch32v30x.c:736
    RCC->CFGR0 |= (uint32_t)RCC_HPRE_DIV1;
     7d8:	c3d8                	sw	a4,4(a5)
D:\projects\mechanical_arm\ch32v307\EVT\EXAM\ETH\TcpClient\obj/../User/system_ch32v30x.c:738
    RCC->CFGR0 |= (uint32_t)RCC_PPRE2_DIV1;
     7da:	43d8                	lw	a4,4(a5)
     7dc:	c3d8                	sw	a4,4(a5)
D:\projects\mechanical_arm\ch32v307\EVT\EXAM\ETH\TcpClient\obj/../User/system_ch32v30x.c:740
    RCC->CFGR0 |= (uint32_t)RCC_PPRE1_DIV2;
     7de:	43d8                	lw	a4,4(a5)
     7e0:	40076713          	ori	a4,a4,1024
     7e4:	c3d8                	sw	a4,4(a5)
D:\projects\mechanical_arm\ch32v307\EVT\EXAM\ETH\TcpClient\obj/../User/system_ch32v30x.c:743
    RCC->CFGR0 &= (uint32_t)((uint32_t)~(RCC_PLLSRC | RCC_PLLXTPRE |
     7e6:	43d8                	lw	a4,4(a5)
     7e8:	8f75                	and	a4,a4,a3
     7ea:	c3d8                	sw	a4,4(a5)
D:\projects\mechanical_arm\ch32v307\EVT\EXAM\ETH\TcpClient\obj/../User/system_ch32v30x.c:749
                                        RCC_PLLMULL));

#ifdef CH32V30x_D8
        RCC->CFGR0 |= (uint32_t)(RCC_PLLSRC_HSE | RCC_PLLXTPRE_HSE | RCC_PLLMULL18);
#else
        RCC->CFGR0 |= (uint32_t)(RCC_PLLSRC_HSE | RCC_PLLXTPRE_HSE | RCC_PLLMULL18_EXTEN);
     7ec:	43d8                	lw	a4,4(a5)
     7ee:	66c1                	lui	a3,0x10
     7f0:	8f55                	or	a4,a4,a3
     7f2:	c3d8                	sw	a4,4(a5)
D:\projects\mechanical_arm\ch32v307\EVT\EXAM\ETH\TcpClient\obj/../User/system_ch32v30x.c:753
#endif

    /* Enable PLL */
    RCC->CTLR |= RCC_PLLON;
     7f4:	4398                	lw	a4,0(a5)
     7f6:	010006b7          	lui	a3,0x1000
     7fa:	8f55                	or	a4,a4,a3
     7fc:	c398                	sw	a4,0(a5)
D:\projects\mechanical_arm\ch32v307\EVT\EXAM\ETH\TcpClient\obj/../User/system_ch32v30x.c:755
    /* Wait till PLL is ready */
    while((RCC->CTLR & RCC_PLLRDY) == 0)
     7fe:	4398                	lw	a4,0(a5)
     800:	00671693          	slli	a3,a4,0x6
     804:	fe06dde3          	bgez	a3,7fe <SystemInit+0xca>
D:\projects\mechanical_arm\ch32v307\EVT\EXAM\ETH\TcpClient\obj/../User/system_ch32v30x.c:759
    {
    }
    /* Select PLL as system clock source */
    RCC->CFGR0 &= (uint32_t)((uint32_t)~(RCC_SW));
     808:	43d8                	lw	a4,4(a5)
D:\projects\mechanical_arm\ch32v307\EVT\EXAM\ETH\TcpClient\obj/../User/system_ch32v30x.c:762
    RCC->CFGR0 |= (uint32_t)RCC_SW_PLL;
    /* Wait till PLL is used as system clock source */
    while ((RCC->CFGR0 & (uint32_t)RCC_SWS) != (uint32_t)0x08)
     80a:	400216b7          	lui	a3,0x40021
D:\projects\mechanical_arm\ch32v307\EVT\EXAM\ETH\TcpClient\obj/../User/system_ch32v30x.c:759
    RCC->CFGR0 &= (uint32_t)((uint32_t)~(RCC_SW));
     80e:	9b71                	andi	a4,a4,-4
     810:	c3d8                	sw	a4,4(a5)
D:\projects\mechanical_arm\ch32v307\EVT\EXAM\ETH\TcpClient\obj/../User/system_ch32v30x.c:760
    RCC->CFGR0 |= (uint32_t)RCC_SW_PLL;
     812:	43d8                	lw	a4,4(a5)
     814:	00276713          	ori	a4,a4,2
     818:	c3d8                	sw	a4,4(a5)
D:\projects\mechanical_arm\ch32v307\EVT\EXAM\ETH\TcpClient\obj/../User/system_ch32v30x.c:762
    while ((RCC->CFGR0 & (uint32_t)RCC_SWS) != (uint32_t)0x08)
     81a:	4721                	li	a4,8
     81c:	42dc                	lw	a5,4(a3)
     81e:	8bb1                	andi	a5,a5,12
     820:	fee79ee3          	bne	a5,a4,81c <__stack_size+0x1c>
SystemInit():
D:\projects\mechanical_arm\ch32v307\EVT\EXAM\ETH\TcpClient\obj/../User/system_ch32v30x.c:107
}
     824:	0141                	addi	sp,sp,16
     826:	8082                	ret
SetSysClockTo144():
D:\projects\mechanical_arm\ch32v307\EVT\EXAM\ETH\TcpClient\obj/../User/system_ch32v30x.c:730
    HSEStatus = (uint32_t)0x00;
     828:	c602                	sw	zero,12(sp)
     82a:	bf69                	j	7c4 <SystemInit+0x90>
SystemInit():
D:/projects/mechanical_arm/ch32v307/EVT/EXAM/SRC/Startup/startup_ch32v30x_D8C.S:228
    .weak   DMA2_Channel8_IRQHandler   /* DMA2 Channel 8 */
    .weak   DMA2_Channel9_IRQHandler   /* DMA2 Channel 9 */
    .weak   DMA2_Channel10_IRQHandler  /* DMA2 Channel 10 */
    .weak   DMA2_Channel11_IRQHandler  /* DMA2 Channel 11 */

NMI_Handler:  1:  j 1b
     82c:	a001                	j	82c <__stack_size+0x2c>
D:/projects/mechanical_arm/ch32v307/EVT/EXAM/SRC/Startup/startup_ch32v30x_D8C.S:229
HardFault_Handler:  1:  j 1b
     82e:	a001                	j	82e <__stack_size+0x2e>

00000830 <Ecall_M_Mode_Handler>:
Ecall_M_Mode_Handler():
D:/projects/mechanical_arm/ch32v307/EVT/EXAM/SRC/Startup/startup_ch32v30x_D8C.S:230
Ecall_M_Mode_Handler:  1:  j 1b
     830:	a001                	j	830 <Ecall_M_Mode_Handler>

00000832 <Ecall_U_Mode_Handler>:
Ecall_U_Mode_Handler():
D:/projects/mechanical_arm/ch32v307/EVT/EXAM/SRC/Startup/startup_ch32v30x_D8C.S:231
Ecall_U_Mode_Handler:  1:  j 1b
     832:	a001                	j	832 <Ecall_U_Mode_Handler>

00000834 <Break_Point_Handler>:
Break_Point_Handler():
D:/projects/mechanical_arm/ch32v307/EVT/EXAM/SRC/Startup/startup_ch32v30x_D8C.S:232
Break_Point_Handler:  1:  j 1b
     834:	a001                	j	834 <Break_Point_Handler>

00000836 <SysTick_Handler>:
SysTick_Handler():
D:/projects/mechanical_arm/ch32v307/EVT/EXAM/SRC/Startup/startup_ch32v30x_D8C.S:233
SysTick_Handler:  1:  j 1b
     836:	a001                	j	836 <SysTick_Handler>

00000838 <SW_Handler>:
SW_Handler():
D:/projects/mechanical_arm/ch32v307/EVT/EXAM/SRC/Startup/startup_ch32v30x_D8C.S:234
SW_Handler:  1:  j 1b
     838:	a001                	j	838 <SW_Handler>

0000083a <WWDG_IRQHandler>:
WWDG_IRQHandler():
D:/projects/mechanical_arm/ch32v307/EVT/EXAM/SRC/Startup/startup_ch32v30x_D8C.S:235
WWDG_IRQHandler:  1:  j 1b
     83a:	a001                	j	83a <WWDG_IRQHandler>

0000083c <PVD_IRQHandler>:
PVD_IRQHandler():
D:/projects/mechanical_arm/ch32v307/EVT/EXAM/SRC/Startup/startup_ch32v30x_D8C.S:236
PVD_IRQHandler:  1:  j 1b
     83c:	a001                	j	83c <PVD_IRQHandler>

0000083e <TAMPER_IRQHandler>:
TAMPER_IRQHandler():
D:/projects/mechanical_arm/ch32v307/EVT/EXAM/SRC/Startup/startup_ch32v30x_D8C.S:237
TAMPER_IRQHandler:  1:  j 1b
     83e:	a001                	j	83e <TAMPER_IRQHandler>

00000840 <RTC_IRQHandler>:
RTC_IRQHandler():
D:/projects/mechanical_arm/ch32v307/EVT/EXAM/SRC/Startup/startup_ch32v30x_D8C.S:238
RTC_IRQHandler:  1:  j 1b
     840:	a001                	j	840 <RTC_IRQHandler>

00000842 <FLASH_IRQHandler>:
FLASH_IRQHandler():
D:/projects/mechanical_arm/ch32v307/EVT/EXAM/SRC/Startup/startup_ch32v30x_D8C.S:239
FLASH_IRQHandler:  1:  j 1b
     842:	a001                	j	842 <FLASH_IRQHandler>

00000844 <RCC_IRQHandler>:
RCC_IRQHandler():
D:/projects/mechanical_arm/ch32v307/EVT/EXAM/SRC/Startup/startup_ch32v30x_D8C.S:240
RCC_IRQHandler:  1:  j 1b
     844:	a001                	j	844 <RCC_IRQHandler>

00000846 <EXTI0_IRQHandler>:
EXTI0_IRQHandler():
D:/projects/mechanical_arm/ch32v307/EVT/EXAM/SRC/Startup/startup_ch32v30x_D8C.S:241
EXTI0_IRQHandler:  1:  j 1b
     846:	a001                	j	846 <EXTI0_IRQHandler>

00000848 <EXTI1_IRQHandler>:
EXTI1_IRQHandler():
D:/projects/mechanical_arm/ch32v307/EVT/EXAM/SRC/Startup/startup_ch32v30x_D8C.S:242
EXTI1_IRQHandler:  1:  j 1b
     848:	a001                	j	848 <EXTI1_IRQHandler>

0000084a <EXTI2_IRQHandler>:
EXTI2_IRQHandler():
D:/projects/mechanical_arm/ch32v307/EVT/EXAM/SRC/Startup/startup_ch32v30x_D8C.S:243
EXTI2_IRQHandler:  1:  j 1b
     84a:	a001                	j	84a <EXTI2_IRQHandler>

0000084c <EXTI3_IRQHandler>:
EXTI3_IRQHandler():
D:/projects/mechanical_arm/ch32v307/EVT/EXAM/SRC/Startup/startup_ch32v30x_D8C.S:244
EXTI3_IRQHandler:  1:  j 1b
     84c:	a001                	j	84c <EXTI3_IRQHandler>

0000084e <EXTI4_IRQHandler>:
EXTI4_IRQHandler():
D:/projects/mechanical_arm/ch32v307/EVT/EXAM/SRC/Startup/startup_ch32v30x_D8C.S:245
EXTI4_IRQHandler:  1:  j 1b
     84e:	a001                	j	84e <EXTI4_IRQHandler>

00000850 <DMA1_Channel1_IRQHandler>:
DMA1_Channel1_IRQHandler():
D:/projects/mechanical_arm/ch32v307/EVT/EXAM/SRC/Startup/startup_ch32v30x_D8C.S:246
DMA1_Channel1_IRQHandler:  1:  j 1b
     850:	a001                	j	850 <DMA1_Channel1_IRQHandler>

00000852 <DMA1_Channel2_IRQHandler>:
DMA1_Channel2_IRQHandler():
D:/projects/mechanical_arm/ch32v307/EVT/EXAM/SRC/Startup/startup_ch32v30x_D8C.S:247
DMA1_Channel2_IRQHandler:  1:  j 1b
     852:	a001                	j	852 <DMA1_Channel2_IRQHandler>

00000854 <DMA1_Channel3_IRQHandler>:
DMA1_Channel3_IRQHandler():
D:/projects/mechanical_arm/ch32v307/EVT/EXAM/SRC/Startup/startup_ch32v30x_D8C.S:248
DMA1_Channel3_IRQHandler:  1:  j 1b
     854:	a001                	j	854 <DMA1_Channel3_IRQHandler>

00000856 <DMA1_Channel4_IRQHandler>:
DMA1_Channel4_IRQHandler():
D:/projects/mechanical_arm/ch32v307/EVT/EXAM/SRC/Startup/startup_ch32v30x_D8C.S:249
DMA1_Channel4_IRQHandler:  1:  j 1b
     856:	a001                	j	856 <DMA1_Channel4_IRQHandler>

00000858 <DMA1_Channel5_IRQHandler>:
DMA1_Channel5_IRQHandler():
D:/projects/mechanical_arm/ch32v307/EVT/EXAM/SRC/Startup/startup_ch32v30x_D8C.S:250
DMA1_Channel5_IRQHandler:  1:  j 1b
     858:	a001                	j	858 <DMA1_Channel5_IRQHandler>

0000085a <DMA1_Channel6_IRQHandler>:
DMA1_Channel6_IRQHandler():
D:/projects/mechanical_arm/ch32v307/EVT/EXAM/SRC/Startup/startup_ch32v30x_D8C.S:251
DMA1_Channel6_IRQHandler:  1:  j 1b
     85a:	a001                	j	85a <DMA1_Channel6_IRQHandler>

0000085c <DMA1_Channel7_IRQHandler>:
DMA1_Channel7_IRQHandler():
D:/projects/mechanical_arm/ch32v307/EVT/EXAM/SRC/Startup/startup_ch32v30x_D8C.S:252
DMA1_Channel7_IRQHandler:  1:  j 1b
     85c:	a001                	j	85c <DMA1_Channel7_IRQHandler>

0000085e <ADC1_2_IRQHandler>:
ADC1_2_IRQHandler():
D:/projects/mechanical_arm/ch32v307/EVT/EXAM/SRC/Startup/startup_ch32v30x_D8C.S:253
ADC1_2_IRQHandler:  1:  j 1b
     85e:	a001                	j	85e <ADC1_2_IRQHandler>

00000860 <USB_HP_CAN1_TX_IRQHandler>:
USB_HP_CAN1_TX_IRQHandler():
D:/projects/mechanical_arm/ch32v307/EVT/EXAM/SRC/Startup/startup_ch32v30x_D8C.S:254
USB_HP_CAN1_TX_IRQHandler:  1:  j 1b
     860:	a001                	j	860 <USB_HP_CAN1_TX_IRQHandler>

00000862 <USB_LP_CAN1_RX0_IRQHandler>:
USB_LP_CAN1_RX0_IRQHandler():
D:/projects/mechanical_arm/ch32v307/EVT/EXAM/SRC/Startup/startup_ch32v30x_D8C.S:255
USB_LP_CAN1_RX0_IRQHandler:  1:  j 1b
     862:	a001                	j	862 <USB_LP_CAN1_RX0_IRQHandler>

00000864 <CAN1_RX1_IRQHandler>:
CAN1_RX1_IRQHandler():
D:/projects/mechanical_arm/ch32v307/EVT/EXAM/SRC/Startup/startup_ch32v30x_D8C.S:256
CAN1_RX1_IRQHandler:  1:  j 1b
     864:	a001                	j	864 <CAN1_RX1_IRQHandler>

00000866 <CAN1_SCE_IRQHandler>:
CAN1_SCE_IRQHandler():
D:/projects/mechanical_arm/ch32v307/EVT/EXAM/SRC/Startup/startup_ch32v30x_D8C.S:257
CAN1_SCE_IRQHandler:  1:  j 1b
     866:	a001                	j	866 <CAN1_SCE_IRQHandler>

00000868 <EXTI9_5_IRQHandler>:
EXTI9_5_IRQHandler():
D:/projects/mechanical_arm/ch32v307/EVT/EXAM/SRC/Startup/startup_ch32v30x_D8C.S:258
EXTI9_5_IRQHandler:  1:  j 1b
     868:	a001                	j	868 <EXTI9_5_IRQHandler>

0000086a <TIM1_BRK_IRQHandler>:
TIM1_BRK_IRQHandler():
D:/projects/mechanical_arm/ch32v307/EVT/EXAM/SRC/Startup/startup_ch32v30x_D8C.S:259
TIM1_BRK_IRQHandler:  1:  j 1b
     86a:	a001                	j	86a <TIM1_BRK_IRQHandler>

0000086c <TIM1_UP_IRQHandler>:
TIM1_UP_IRQHandler():
D:/projects/mechanical_arm/ch32v307/EVT/EXAM/SRC/Startup/startup_ch32v30x_D8C.S:260
TIM1_UP_IRQHandler:  1:  j 1b
     86c:	a001                	j	86c <TIM1_UP_IRQHandler>

0000086e <TIM1_TRG_COM_IRQHandler>:
TIM1_TRG_COM_IRQHandler():
D:/projects/mechanical_arm/ch32v307/EVT/EXAM/SRC/Startup/startup_ch32v30x_D8C.S:261
TIM1_TRG_COM_IRQHandler:  1:  j 1b
     86e:	a001                	j	86e <TIM1_TRG_COM_IRQHandler>

00000870 <TIM1_CC_IRQHandler>:
TIM1_CC_IRQHandler():
D:/projects/mechanical_arm/ch32v307/EVT/EXAM/SRC/Startup/startup_ch32v30x_D8C.S:262
TIM1_CC_IRQHandler:  1:  j 1b
     870:	a001                	j	870 <TIM1_CC_IRQHandler>
D:/projects/mechanical_arm/ch32v307/EVT/EXAM/SRC/Startup/startup_ch32v30x_D8C.S:263
TIM2_IRQHandler:  1:  j 1b
     872:	a001                	j	872 <TIM1_CC_IRQHandler+0x2>

00000874 <TIM3_IRQHandler>:
TIM3_IRQHandler():
D:/projects/mechanical_arm/ch32v307/EVT/EXAM/SRC/Startup/startup_ch32v30x_D8C.S:264
TIM3_IRQHandler:  1:  j 1b
     874:	a001                	j	874 <TIM3_IRQHandler>

00000876 <TIM4_IRQHandler>:
TIM4_IRQHandler():
D:/projects/mechanical_arm/ch32v307/EVT/EXAM/SRC/Startup/startup_ch32v30x_D8C.S:265
TIM4_IRQHandler:  1:  j 1b
     876:	a001                	j	876 <TIM4_IRQHandler>

00000878 <I2C1_EV_IRQHandler>:
I2C1_EV_IRQHandler():
D:/projects/mechanical_arm/ch32v307/EVT/EXAM/SRC/Startup/startup_ch32v30x_D8C.S:266
I2C1_EV_IRQHandler:  1:  j 1b
     878:	a001                	j	878 <I2C1_EV_IRQHandler>

0000087a <I2C1_ER_IRQHandler>:
I2C1_ER_IRQHandler():
D:/projects/mechanical_arm/ch32v307/EVT/EXAM/SRC/Startup/startup_ch32v30x_D8C.S:267
I2C1_ER_IRQHandler:  1:  j 1b
     87a:	a001                	j	87a <I2C1_ER_IRQHandler>

0000087c <I2C2_EV_IRQHandler>:
I2C2_EV_IRQHandler():
D:/projects/mechanical_arm/ch32v307/EVT/EXAM/SRC/Startup/startup_ch32v30x_D8C.S:268
I2C2_EV_IRQHandler:  1:  j 1b
     87c:	a001                	j	87c <I2C2_EV_IRQHandler>

0000087e <I2C2_ER_IRQHandler>:
I2C2_ER_IRQHandler():
D:/projects/mechanical_arm/ch32v307/EVT/EXAM/SRC/Startup/startup_ch32v30x_D8C.S:269
I2C2_ER_IRQHandler:  1:  j 1b
     87e:	a001                	j	87e <I2C2_ER_IRQHandler>

00000880 <SPI1_IRQHandler>:
SPI1_IRQHandler():
D:/projects/mechanical_arm/ch32v307/EVT/EXAM/SRC/Startup/startup_ch32v30x_D8C.S:270
SPI1_IRQHandler:  1:  j 1b
     880:	a001                	j	880 <SPI1_IRQHandler>

00000882 <SPI2_IRQHandler>:
SPI2_IRQHandler():
D:/projects/mechanical_arm/ch32v307/EVT/EXAM/SRC/Startup/startup_ch32v30x_D8C.S:271
SPI2_IRQHandler:  1:  j 1b
     882:	a001                	j	882 <SPI2_IRQHandler>

00000884 <USART1_IRQHandler>:
USART1_IRQHandler():
D:/projects/mechanical_arm/ch32v307/EVT/EXAM/SRC/Startup/startup_ch32v30x_D8C.S:272
USART1_IRQHandler:  1:  j 1b
     884:	a001                	j	884 <USART1_IRQHandler>

00000886 <USART2_IRQHandler>:
USART2_IRQHandler():
D:/projects/mechanical_arm/ch32v307/EVT/EXAM/SRC/Startup/startup_ch32v30x_D8C.S:273
USART2_IRQHandler:  1:  j 1b
     886:	a001                	j	886 <USART2_IRQHandler>

00000888 <USART3_IRQHandler>:
USART3_IRQHandler():
D:/projects/mechanical_arm/ch32v307/EVT/EXAM/SRC/Startup/startup_ch32v30x_D8C.S:274
USART3_IRQHandler:  1:  j 1b
     888:	a001                	j	888 <USART3_IRQHandler>

0000088a <EXTI15_10_IRQHandler>:
EXTI15_10_IRQHandler():
D:/projects/mechanical_arm/ch32v307/EVT/EXAM/SRC/Startup/startup_ch32v30x_D8C.S:275
EXTI15_10_IRQHandler:  1:  j 1b
     88a:	a001                	j	88a <EXTI15_10_IRQHandler>

0000088c <RTCAlarm_IRQHandler>:
RTCAlarm_IRQHandler():
D:/projects/mechanical_arm/ch32v307/EVT/EXAM/SRC/Startup/startup_ch32v30x_D8C.S:276
RTCAlarm_IRQHandler:  1:  j 1b
     88c:	a001                	j	88c <RTCAlarm_IRQHandler>

0000088e <TIM8_BRK_IRQHandler>:
TIM8_BRK_IRQHandler():
D:/projects/mechanical_arm/ch32v307/EVT/EXAM/SRC/Startup/startup_ch32v30x_D8C.S:277
TIM8_BRK_IRQHandler:  1:  j 1b
     88e:	a001                	j	88e <TIM8_BRK_IRQHandler>

00000890 <TIM8_UP_IRQHandler>:
TIM8_UP_IRQHandler():
D:/projects/mechanical_arm/ch32v307/EVT/EXAM/SRC/Startup/startup_ch32v30x_D8C.S:278
TIM8_UP_IRQHandler:  1:  j 1b
     890:	a001                	j	890 <TIM8_UP_IRQHandler>

00000892 <TIM8_TRG_COM_IRQHandler>:
TIM8_TRG_COM_IRQHandler():
D:/projects/mechanical_arm/ch32v307/EVT/EXAM/SRC/Startup/startup_ch32v30x_D8C.S:279
TIM8_TRG_COM_IRQHandler:  1:  j 1b
     892:	a001                	j	892 <TIM8_TRG_COM_IRQHandler>

00000894 <TIM8_CC_IRQHandler>:
TIM8_CC_IRQHandler():
D:/projects/mechanical_arm/ch32v307/EVT/EXAM/SRC/Startup/startup_ch32v30x_D8C.S:280
TIM8_CC_IRQHandler:  1:  j 1b
     894:	a001                	j	894 <TIM8_CC_IRQHandler>

00000896 <RNG_IRQHandler>:
RNG_IRQHandler():
D:/projects/mechanical_arm/ch32v307/EVT/EXAM/SRC/Startup/startup_ch32v30x_D8C.S:281
RNG_IRQHandler:  1:  j 1b
     896:	a001                	j	896 <RNG_IRQHandler>

00000898 <FSMC_IRQHandler>:
FSMC_IRQHandler():
D:/projects/mechanical_arm/ch32v307/EVT/EXAM/SRC/Startup/startup_ch32v30x_D8C.S:282
FSMC_IRQHandler:  1:  j 1b
     898:	a001                	j	898 <FSMC_IRQHandler>

0000089a <SDIO_IRQHandler>:
SDIO_IRQHandler():
D:/projects/mechanical_arm/ch32v307/EVT/EXAM/SRC/Startup/startup_ch32v30x_D8C.S:283
SDIO_IRQHandler:  1:  j 1b
     89a:	a001                	j	89a <SDIO_IRQHandler>

0000089c <TIM5_IRQHandler>:
TIM5_IRQHandler():
D:/projects/mechanical_arm/ch32v307/EVT/EXAM/SRC/Startup/startup_ch32v30x_D8C.S:284
TIM5_IRQHandler:  1:  j 1b
     89c:	a001                	j	89c <TIM5_IRQHandler>

0000089e <SPI3_IRQHandler>:
SPI3_IRQHandler():
D:/projects/mechanical_arm/ch32v307/EVT/EXAM/SRC/Startup/startup_ch32v30x_D8C.S:285
SPI3_IRQHandler:  1:  j 1b
     89e:	a001                	j	89e <SPI3_IRQHandler>

000008a0 <UART4_IRQHandler>:
UART4_IRQHandler():
D:/projects/mechanical_arm/ch32v307/EVT/EXAM/SRC/Startup/startup_ch32v30x_D8C.S:286
UART4_IRQHandler:  1:  j 1b
     8a0:	a001                	j	8a0 <UART4_IRQHandler>

000008a2 <UART5_IRQHandler>:
UART5_IRQHandler():
D:/projects/mechanical_arm/ch32v307/EVT/EXAM/SRC/Startup/startup_ch32v30x_D8C.S:287
UART5_IRQHandler:  1:  j 1b
     8a2:	a001                	j	8a2 <UART5_IRQHandler>

000008a4 <TIM6_IRQHandler>:
TIM6_IRQHandler():
D:/projects/mechanical_arm/ch32v307/EVT/EXAM/SRC/Startup/startup_ch32v30x_D8C.S:288
TIM6_IRQHandler:  1:  j 1b
     8a4:	a001                	j	8a4 <TIM6_IRQHandler>

000008a6 <TIM7_IRQHandler>:
TIM7_IRQHandler():
D:/projects/mechanical_arm/ch32v307/EVT/EXAM/SRC/Startup/startup_ch32v30x_D8C.S:289
TIM7_IRQHandler:  1:  j 1b
     8a6:	a001                	j	8a6 <TIM7_IRQHandler>

000008a8 <DMA2_Channel1_IRQHandler>:
DMA2_Channel1_IRQHandler():
D:/projects/mechanical_arm/ch32v307/EVT/EXAM/SRC/Startup/startup_ch32v30x_D8C.S:290
DMA2_Channel1_IRQHandler:  1:  j 1b
     8a8:	a001                	j	8a8 <DMA2_Channel1_IRQHandler>

000008aa <DMA2_Channel2_IRQHandler>:
DMA2_Channel2_IRQHandler():
D:/projects/mechanical_arm/ch32v307/EVT/EXAM/SRC/Startup/startup_ch32v30x_D8C.S:291
DMA2_Channel2_IRQHandler:  1:  j 1b
     8aa:	a001                	j	8aa <DMA2_Channel2_IRQHandler>

000008ac <DMA2_Channel3_IRQHandler>:
DMA2_Channel3_IRQHandler():
D:/projects/mechanical_arm/ch32v307/EVT/EXAM/SRC/Startup/startup_ch32v30x_D8C.S:292
DMA2_Channel3_IRQHandler:  1:  j 1b
     8ac:	a001                	j	8ac <DMA2_Channel3_IRQHandler>

000008ae <DMA2_Channel4_IRQHandler>:
DMA2_Channel4_IRQHandler():
D:/projects/mechanical_arm/ch32v307/EVT/EXAM/SRC/Startup/startup_ch32v30x_D8C.S:293
DMA2_Channel4_IRQHandler:  1:  j 1b
     8ae:	a001                	j	8ae <DMA2_Channel4_IRQHandler>

000008b0 <DMA2_Channel5_IRQHandler>:
DMA2_Channel5_IRQHandler():
D:/projects/mechanical_arm/ch32v307/EVT/EXAM/SRC/Startup/startup_ch32v30x_D8C.S:294
DMA2_Channel5_IRQHandler:  1:  j 1b
     8b0:	a001                	j	8b0 <DMA2_Channel5_IRQHandler>

000008b2 <OTG_FS_IRQHandler>:
OTG_FS_IRQHandler():
D:/projects/mechanical_arm/ch32v307/EVT/EXAM/SRC/Startup/startup_ch32v30x_D8C.S:295
OTG_FS_IRQHandler:  1:  j 1b
     8b2:	a001                	j	8b2 <OTG_FS_IRQHandler>

000008b4 <UART6_IRQHandler>:
UART6_IRQHandler():
D:/projects/mechanical_arm/ch32v307/EVT/EXAM/SRC/Startup/startup_ch32v30x_D8C.S:296
UART6_IRQHandler:  1:  j 1b
     8b4:	a001                	j	8b4 <UART6_IRQHandler>

000008b6 <UART7_IRQHandler>:
UART7_IRQHandler():
D:/projects/mechanical_arm/ch32v307/EVT/EXAM/SRC/Startup/startup_ch32v30x_D8C.S:297
UART7_IRQHandler:  1:  j 1b
     8b6:	a001                	j	8b6 <UART7_IRQHandler>

000008b8 <UART8_IRQHandler>:
UART8_IRQHandler():
D:/projects/mechanical_arm/ch32v307/EVT/EXAM/SRC/Startup/startup_ch32v30x_D8C.S:298
UART8_IRQHandler:  1:  j 1b
     8b8:	a001                	j	8b8 <UART8_IRQHandler>

000008ba <TIM9_BRK_IRQHandler>:
TIM9_BRK_IRQHandler():
D:/projects/mechanical_arm/ch32v307/EVT/EXAM/SRC/Startup/startup_ch32v30x_D8C.S:299
TIM9_BRK_IRQHandler:  1:  j 1b
     8ba:	a001                	j	8ba <TIM9_BRK_IRQHandler>

000008bc <TIM9_UP_IRQHandler>:
TIM9_UP_IRQHandler():
D:/projects/mechanical_arm/ch32v307/EVT/EXAM/SRC/Startup/startup_ch32v30x_D8C.S:300
TIM9_UP_IRQHandler:  1:  j 1b
     8bc:	a001                	j	8bc <TIM9_UP_IRQHandler>

000008be <TIM9_TRG_COM_IRQHandler>:
TIM9_TRG_COM_IRQHandler():
D:/projects/mechanical_arm/ch32v307/EVT/EXAM/SRC/Startup/startup_ch32v30x_D8C.S:301
TIM9_TRG_COM_IRQHandler:  1:  j 1b
     8be:	a001                	j	8be <TIM9_TRG_COM_IRQHandler>

000008c0 <TIM9_CC_IRQHandler>:
TIM9_CC_IRQHandler():
D:/projects/mechanical_arm/ch32v307/EVT/EXAM/SRC/Startup/startup_ch32v30x_D8C.S:302
TIM9_CC_IRQHandler:  1:  j 1b
     8c0:	a001                	j	8c0 <TIM9_CC_IRQHandler>

000008c2 <TIM10_BRK_IRQHandler>:
TIM10_BRK_IRQHandler():
D:/projects/mechanical_arm/ch32v307/EVT/EXAM/SRC/Startup/startup_ch32v30x_D8C.S:303
TIM10_BRK_IRQHandler:  1:  j 1b
     8c2:	a001                	j	8c2 <TIM10_BRK_IRQHandler>

000008c4 <TIM10_UP_IRQHandler>:
TIM10_UP_IRQHandler():
D:/projects/mechanical_arm/ch32v307/EVT/EXAM/SRC/Startup/startup_ch32v30x_D8C.S:304
TIM10_UP_IRQHandler:  1:  j 1b
     8c4:	a001                	j	8c4 <TIM10_UP_IRQHandler>

000008c6 <TIM10_TRG_COM_IRQHandler>:
TIM10_TRG_COM_IRQHandler():
D:/projects/mechanical_arm/ch32v307/EVT/EXAM/SRC/Startup/startup_ch32v30x_D8C.S:305
TIM10_TRG_COM_IRQHandler:  1:  j 1b
     8c6:	a001                	j	8c6 <TIM10_TRG_COM_IRQHandler>

000008c8 <TIM10_CC_IRQHandler>:
TIM10_CC_IRQHandler():
D:/projects/mechanical_arm/ch32v307/EVT/EXAM/SRC/Startup/startup_ch32v30x_D8C.S:306
TIM10_CC_IRQHandler:  1:  j 1b
     8c8:	a001                	j	8c8 <TIM10_CC_IRQHandler>

000008ca <DMA2_Channel6_IRQHandler>:
DMA2_Channel6_IRQHandler():
D:/projects/mechanical_arm/ch32v307/EVT/EXAM/SRC/Startup/startup_ch32v30x_D8C.S:307
DMA2_Channel6_IRQHandler:  1:  j 1b
     8ca:	a001                	j	8ca <DMA2_Channel6_IRQHandler>

000008cc <DMA2_Channel7_IRQHandler>:
DMA2_Channel7_IRQHandler():
D:/projects/mechanical_arm/ch32v307/EVT/EXAM/SRC/Startup/startup_ch32v30x_D8C.S:308
DMA2_Channel7_IRQHandler:  1:  j 1b
     8cc:	a001                	j	8cc <DMA2_Channel7_IRQHandler>

000008ce <DMA2_Channel8_IRQHandler>:
DMA2_Channel8_IRQHandler():
D:/projects/mechanical_arm/ch32v307/EVT/EXAM/SRC/Startup/startup_ch32v30x_D8C.S:309
DMA2_Channel8_IRQHandler:  1:  j 1b
     8ce:	a001                	j	8ce <DMA2_Channel8_IRQHandler>

000008d0 <DMA2_Channel9_IRQHandler>:
DMA2_Channel9_IRQHandler():
D:/projects/mechanical_arm/ch32v307/EVT/EXAM/SRC/Startup/startup_ch32v30x_D8C.S:310
DMA2_Channel9_IRQHandler:  1:  j 1b
     8d0:	a001                	j	8d0 <DMA2_Channel9_IRQHandler>

000008d2 <DMA2_Channel10_IRQHandler>:
DMA2_Channel10_IRQHandler():
D:/projects/mechanical_arm/ch32v307/EVT/EXAM/SRC/Startup/startup_ch32v30x_D8C.S:311
DMA2_Channel10_IRQHandler:  1:  j 1b
     8d2:	a001                	j	8d2 <DMA2_Channel10_IRQHandler>

000008d4 <DMA2_Channel11_IRQHandler>:
DMA2_Channel11_IRQHandler():
D:/projects/mechanical_arm/ch32v307/EVT/EXAM/SRC/Startup/startup_ch32v30x_D8C.S:312
DMA2_Channel11_IRQHandler:  1:  j 1b
     8d4:	a001                	j	8d4 <DMA2_Channel11_IRQHandler>

000008d6 <handle_reset>:
handle_reset():
D:/projects/mechanical_arm/ch32v307/EVT/EXAM/SRC/Startup/startup_ch32v30x_D8C.S:321
	.weak	handle_reset
	.align	1
handle_reset:
.option push
.option	norelax
	la gp, __global_pointer$
     8d6:	20000197          	auipc	gp,0x20000
     8da:	f3a18193          	addi	gp,gp,-198 # 20000810 <__global_pointer$>
D:/projects/mechanical_arm/ch32v307/EVT/EXAM/SRC/Startup/startup_ch32v30x_D8C.S:324
.option	pop
1:
	la sp, _eusrstack
     8de:	2001f117          	auipc	sp,0x2001f
     8e2:	72210113          	addi	sp,sp,1826 # 20020000 <_eusrstack>
D:/projects/mechanical_arm/ch32v307/EVT/EXAM/SRC/Startup/startup_ch32v30x_D8C.S:327
2:
	/* Load data section from flash to RAM */
	la a0, _data_lma
     8e6:	00008517          	auipc	a0,0x8
     8ea:	cee50513          	addi	a0,a0,-786 # 85d4 <_data_lma>
D:/projects/mechanical_arm/ch32v307/EVT/EXAM/SRC/Startup/startup_ch32v30x_D8C.S:328
	la a1, _data_vma
     8ee:	1ffff597          	auipc	a1,0x1ffff
     8f2:	71258593          	addi	a1,a1,1810 # 20000000 <_data_vma>
D:/projects/mechanical_arm/ch32v307/EVT/EXAM/SRC/Startup/startup_ch32v30x_D8C.S:329
	la a2, _edata
     8f6:	85818613          	addi	a2,gp,-1960 # 20000068 <_edata>
D:/projects/mechanical_arm/ch32v307/EVT/EXAM/SRC/Startup/startup_ch32v30x_D8C.S:330
	bgeu a1, a2, 2f
     8fa:	00c5fa63          	bgeu	a1,a2,90e <handle_reset+0x38>
D:/projects/mechanical_arm/ch32v307/EVT/EXAM/SRC/Startup/startup_ch32v30x_D8C.S:332
1:
	lw t0, (a0)
     8fe:	00052283          	lw	t0,0(a0)
D:/projects/mechanical_arm/ch32v307/EVT/EXAM/SRC/Startup/startup_ch32v30x_D8C.S:333
	sw t0, (a1)
     902:	0055a023          	sw	t0,0(a1)
D:/projects/mechanical_arm/ch32v307/EVT/EXAM/SRC/Startup/startup_ch32v30x_D8C.S:334
	addi a0, a0, 4
     906:	0511                	addi	a0,a0,4
D:/projects/mechanical_arm/ch32v307/EVT/EXAM/SRC/Startup/startup_ch32v30x_D8C.S:335
	addi a1, a1, 4
     908:	0591                	addi	a1,a1,4
D:/projects/mechanical_arm/ch32v307/EVT/EXAM/SRC/Startup/startup_ch32v30x_D8C.S:336
	bltu a1, a2, 1b
     90a:	fec5eae3          	bltu	a1,a2,8fe <handle_reset+0x28>
D:/projects/mechanical_arm/ch32v307/EVT/EXAM/SRC/Startup/startup_ch32v30x_D8C.S:339
2:
	/* Clear bss section */
	la a0, _sbss
     90e:	85818513          	addi	a0,gp,-1960 # 20000068 <_edata>
D:/projects/mechanical_arm/ch32v307/EVT/EXAM/SRC/Startup/startup_ch32v30x_D8C.S:340
	la a1, _ebss
     912:	2000c597          	auipc	a1,0x2000c
     916:	b1e58593          	addi	a1,a1,-1250 # 2000c430 <_ebss>
D:/projects/mechanical_arm/ch32v307/EVT/EXAM/SRC/Startup/startup_ch32v30x_D8C.S:341
	bgeu a0, a1, 2f
     91a:	00b57763          	bgeu	a0,a1,928 <handle_reset+0x52>
D:/projects/mechanical_arm/ch32v307/EVT/EXAM/SRC/Startup/startup_ch32v30x_D8C.S:343
1:
	sw zero, (a0)
     91e:	00052023          	sw	zero,0(a0)
D:/projects/mechanical_arm/ch32v307/EVT/EXAM/SRC/Startup/startup_ch32v30x_D8C.S:344
	addi a0, a0, 4
     922:	0511                	addi	a0,a0,4
D:/projects/mechanical_arm/ch32v307/EVT/EXAM/SRC/Startup/startup_ch32v30x_D8C.S:345
	bltu a0, a1, 1b
     924:	feb56de3          	bltu	a0,a1,91e <handle_reset+0x48>
D:/projects/mechanical_arm/ch32v307/EVT/EXAM/SRC/Startup/startup_ch32v30x_D8C.S:347
2:
    li t0, 0x1f
     928:	42fd                	li	t0,31
D:/projects/mechanical_arm/ch32v307/EVT/EXAM/SRC/Startup/startup_ch32v30x_D8C.S:348
    csrw 0xbc0, t0
     92a:	bc029073          	csrw	0xbc0,t0
D:/projects/mechanical_arm/ch32v307/EVT/EXAM/SRC/Startup/startup_ch32v30x_D8C.S:351

    /* Enable nested and hardware stack */
	li t0, 0x1f
     92e:	42fd                	li	t0,31
D:/projects/mechanical_arm/ch32v307/EVT/EXAM/SRC/Startup/startup_ch32v30x_D8C.S:352
	csrw 0x804, t0
     930:	80429073          	csrw	0x804,t0
D:/projects/mechanical_arm/ch32v307/EVT/EXAM/SRC/Startup/startup_ch32v30x_D8C.S:355

    /* Enable floating point and interrupt */
   	li t0, 0x6088
     934:	000062b7          	lui	t0,0x6
     938:	08828293          	addi	t0,t0,136 # 6088 <tcp_input+0x740>
D:/projects/mechanical_arm/ch32v307/EVT/EXAM/SRC/Startup/startup_ch32v30x_D8C.S:356
   	csrs mstatus, t0
     93c:	3002a073          	csrs	mstatus,t0
D:/projects/mechanical_arm/ch32v307/EVT/EXAM/SRC/Startup/startup_ch32v30x_D8C.S:358

 	la t0, _vector_base
     940:	fffff297          	auipc	t0,0xfffff
     944:	6f828293          	addi	t0,t0,1784 # 38 <_einit>
D:/projects/mechanical_arm/ch32v307/EVT/EXAM/SRC/Startup/startup_ch32v30x_D8C.S:359
    ori t0, t0, 3
     948:	0032e293          	ori	t0,t0,3
D:/projects/mechanical_arm/ch32v307/EVT/EXAM/SRC/Startup/startup_ch32v30x_D8C.S:360
	csrw mtvec, t0
     94c:	30529073          	csrw	mtvec,t0
D:/projects/mechanical_arm/ch32v307/EVT/EXAM/SRC/Startup/startup_ch32v30x_D8C.S:362

    jal  SystemInit
     950:	de5ff0ef          	jal	ra,734 <SystemInit>
D:/projects/mechanical_arm/ch32v307/EVT/EXAM/SRC/Startup/startup_ch32v30x_D8C.S:363
	la t0, main
     954:	00000297          	auipc	t0,0x0
     958:	d6e28293          	addi	t0,t0,-658 # 6c2 <main>
D:/projects/mechanical_arm/ch32v307/EVT/EXAM/SRC/Startup/startup_ch32v30x_D8C.S:364
	csrw mepc, t0
     95c:	34129073          	csrw	mepc,t0
D:/projects/mechanical_arm/ch32v307/EVT/EXAM/SRC/Startup/startup_ch32v30x_D8C.S:365
	mret
     960:	30200073          	mret

00000964 <ETH_DeInit>:
ETH_DeInit():
D:/projects/mechanical_arm/ch32v307/EVT/EXAM/SRC/Peripheral/src/ch32v30x_eth.c:27
 *
 * @return  none
 */
#ifdef CH32V30x_D8C
void ETH_DeInit(void)
{
     964:	1141                	addi	sp,sp,-16
D:/projects/mechanical_arm/ch32v307/EVT/EXAM/SRC/Peripheral/src/ch32v30x_eth.c:28
    RCC_AHBPeriphResetCmd(RCC_AHBPeriph_ETH_MAC, ENABLE);
     966:	4585                	li	a1,1
     968:	6511                	lui	a0,0x4
D:/projects/mechanical_arm/ch32v307/EVT/EXAM/SRC/Peripheral/src/ch32v30x_eth.c:27
{
     96a:	c606                	sw	ra,12(sp)
D:/projects/mechanical_arm/ch32v307/EVT/EXAM/SRC/Peripheral/src/ch32v30x_eth.c:28
    RCC_AHBPeriphResetCmd(RCC_AHBPeriph_ETH_MAC, ENABLE);
     96c:	2df9                	jal	104a <RCC_AHBPeriphResetCmd>
D:/projects/mechanical_arm/ch32v307/EVT/EXAM/SRC/Peripheral/src/ch32v30x_eth.c:30
    RCC_AHBPeriphResetCmd(RCC_AHBPeriph_ETH_MAC, DISABLE);
}
     96e:	40b2                	lw	ra,12(sp)
D:/projects/mechanical_arm/ch32v307/EVT/EXAM/SRC/Peripheral/src/ch32v30x_eth.c:29
    RCC_AHBPeriphResetCmd(RCC_AHBPeriph_ETH_MAC, DISABLE);
     970:	4581                	li	a1,0
     972:	6511                	lui	a0,0x4
D:/projects/mechanical_arm/ch32v307/EVT/EXAM/SRC/Peripheral/src/ch32v30x_eth.c:30
}
     974:	0141                	addi	sp,sp,16
D:/projects/mechanical_arm/ch32v307/EVT/EXAM/SRC/Peripheral/src/ch32v30x_eth.c:29
    RCC_AHBPeriphResetCmd(RCC_AHBPeriph_ETH_MAC, DISABLE);
     976:	add1                	j	104a <RCC_AHBPeriphResetCmd>

00000978 <ETH_StructInit>:
ETH_StructInit():
D:/projects/mechanical_arm/ch32v307/EVT/EXAM/SRC/Peripheral/src/ch32v30x_eth.c:63
    ETH_InitStruct->ETH_AutomaticPadCRCStrip = ETH_AutomaticPadCRCStrip_Disable;
    ETH_InitStruct->ETH_BackOffLimit = ETH_BackOffLimit_10;
    ETH_InitStruct->ETH_DeferralCheck = ETH_DeferralCheck_Disable;
    ETH_InitStruct->ETH_ReceiveAll = ETH_ReceiveAll_Disable;
    ETH_InitStruct->ETH_SourceAddrFilter = ETH_SourceAddrFilter_Disable;
    ETH_InitStruct->ETH_PassControlFrames = ETH_PassControlFrames_BlockAll;
     978:	04000793          	li	a5,64
     97c:	c13c                	sw	a5,64(a0)
D:/projects/mechanical_arm/ch32v307/EVT/EXAM/SRC/Peripheral/src/ch32v30x_eth.c:64
    ETH_InitStruct->ETH_BroadcastFramesReception = ETH_BroadcastFramesReception_Disable;
     97e:	02000793          	li	a5,32
     982:	c17c                	sw	a5,68(a0)
D:/projects/mechanical_arm/ch32v307/EVT/EXAM/SRC/Peripheral/src/ch32v30x_eth.c:72
    ETH_InitStruct->ETH_MulticastFramesFilter = ETH_MulticastFramesFilter_Perfect;
    ETH_InitStruct->ETH_UnicastFramesFilter = ETH_UnicastFramesFilter_Perfect;
    ETH_InitStruct->ETH_HashTableHigh = 0x0;
    ETH_InitStruct->ETH_HashTableLow = 0x0;
    ETH_InitStruct->ETH_PauseTime = 0x0;
    ETH_InitStruct->ETH_ZeroQuantaPause = ETH_ZeroQuantaPause_Disable;
     984:	08000793          	li	a5,128
     988:	d17c                	sw	a5,100(a0)
D:/projects/mechanical_arm/ch32v307/EVT/EXAM/SRC/Peripheral/src/ch32v30x_eth.c:47
    ETH_InitStruct->ETH_AutoNegotiation = ETH_AutoNegotiation_Disable;
     98a:	00052023          	sw	zero,0(a0) # 4000 <netif_add+0x40>
D:/projects/mechanical_arm/ch32v307/EVT/EXAM/SRC/Peripheral/src/ch32v30x_eth.c:80
    ETH_InitStruct->ETH_ReceiveFlowControl = ETH_ReceiveFlowControl_Disable;
    ETH_InitStruct->ETH_TransmitFlowControl = ETH_TransmitFlowControl_Disable;
    ETH_InitStruct->ETH_VLANTagComparison = ETH_VLANTagComparison_16Bit;
    ETH_InitStruct->ETH_VLANTagIdentifier = 0x0;
    /*------------------------   DMA   -----------------------------------*/
    ETH_InitStruct->ETH_DropTCPIPChecksumErrorFrame = ETH_DropTCPIPChecksumErrorFrame_Disable;
     98e:	040007b7          	lui	a5,0x4000
D:/projects/mechanical_arm/ch32v307/EVT/EXAM/SRC/Peripheral/src/ch32v30x_eth.c:48
    ETH_InitStruct->ETH_Watchdog = ETH_Watchdog_Enable;
     992:	00052223          	sw	zero,4(a0)
D:/projects/mechanical_arm/ch32v307/EVT/EXAM/SRC/Peripheral/src/ch32v30x_eth.c:49
    ETH_InitStruct->ETH_Jabber = ETH_Jabber_Enable;
     996:	00052423          	sw	zero,8(a0)
D:/projects/mechanical_arm/ch32v307/EVT/EXAM/SRC/Peripheral/src/ch32v30x_eth.c:50
    ETH_InitStruct->ETH_InterFrameGap = ETH_InterFrameGap_96Bit;
     99a:	00052623          	sw	zero,12(a0)
D:/projects/mechanical_arm/ch32v307/EVT/EXAM/SRC/Peripheral/src/ch32v30x_eth.c:51
    ETH_InitStruct->ETH_CarrierSense = ETH_CarrierSense_Enable;
     99e:	00052823          	sw	zero,16(a0)
D:/projects/mechanical_arm/ch32v307/EVT/EXAM/SRC/Peripheral/src/ch32v30x_eth.c:52
    ETH_InitStruct->ETH_Speed = ETH_Speed_10M;
     9a2:	00052a23          	sw	zero,20(a0)
D:/projects/mechanical_arm/ch32v307/EVT/EXAM/SRC/Peripheral/src/ch32v30x_eth.c:53
    ETH_InitStruct->ETH_ReceiveOwn = ETH_ReceiveOwn_Enable;
     9a6:	00052c23          	sw	zero,24(a0)
D:/projects/mechanical_arm/ch32v307/EVT/EXAM/SRC/Peripheral/src/ch32v30x_eth.c:54
    ETH_InitStruct->ETH_LoopbackMode = ETH_LoopbackMode_Disable;
     9aa:	00052e23          	sw	zero,28(a0)
D:/projects/mechanical_arm/ch32v307/EVT/EXAM/SRC/Peripheral/src/ch32v30x_eth.c:55
    ETH_InitStruct->ETH_Mode = ETH_Mode_HalfDuplex;
     9ae:	02052023          	sw	zero,32(a0)
D:/projects/mechanical_arm/ch32v307/EVT/EXAM/SRC/Peripheral/src/ch32v30x_eth.c:56
    ETH_InitStruct->ETH_ChecksumOffload = ETH_ChecksumOffload_Disable;
     9b2:	02052223          	sw	zero,36(a0)
D:/projects/mechanical_arm/ch32v307/EVT/EXAM/SRC/Peripheral/src/ch32v30x_eth.c:57
    ETH_InitStruct->ETH_RetryTransmission = ETH_RetryTransmission_Enable;
     9b6:	02052423          	sw	zero,40(a0)
D:/projects/mechanical_arm/ch32v307/EVT/EXAM/SRC/Peripheral/src/ch32v30x_eth.c:58
    ETH_InitStruct->ETH_AutomaticPadCRCStrip = ETH_AutomaticPadCRCStrip_Disable;
     9ba:	02052623          	sw	zero,44(a0)
D:/projects/mechanical_arm/ch32v307/EVT/EXAM/SRC/Peripheral/src/ch32v30x_eth.c:59
    ETH_InitStruct->ETH_BackOffLimit = ETH_BackOffLimit_10;
     9be:	02052823          	sw	zero,48(a0)
D:/projects/mechanical_arm/ch32v307/EVT/EXAM/SRC/Peripheral/src/ch32v30x_eth.c:60
    ETH_InitStruct->ETH_DeferralCheck = ETH_DeferralCheck_Disable;
     9c2:	02052a23          	sw	zero,52(a0)
D:/projects/mechanical_arm/ch32v307/EVT/EXAM/SRC/Peripheral/src/ch32v30x_eth.c:61
    ETH_InitStruct->ETH_ReceiveAll = ETH_ReceiveAll_Disable;
     9c6:	02052c23          	sw	zero,56(a0)
D:/projects/mechanical_arm/ch32v307/EVT/EXAM/SRC/Peripheral/src/ch32v30x_eth.c:62
    ETH_InitStruct->ETH_SourceAddrFilter = ETH_SourceAddrFilter_Disable;
     9ca:	02052e23          	sw	zero,60(a0)
D:/projects/mechanical_arm/ch32v307/EVT/EXAM/SRC/Peripheral/src/ch32v30x_eth.c:65
    ETH_InitStruct->ETH_DestinationAddrFilter = ETH_DestinationAddrFilter_Normal;
     9ce:	04052423          	sw	zero,72(a0)
D:/projects/mechanical_arm/ch32v307/EVT/EXAM/SRC/Peripheral/src/ch32v30x_eth.c:66
    ETH_InitStruct->ETH_PromiscuousMode = ETH_PromiscuousMode_Disable;
     9d2:	04052623          	sw	zero,76(a0)
D:/projects/mechanical_arm/ch32v307/EVT/EXAM/SRC/Peripheral/src/ch32v30x_eth.c:67
    ETH_InitStruct->ETH_MulticastFramesFilter = ETH_MulticastFramesFilter_Perfect;
     9d6:	04052823          	sw	zero,80(a0)
D:/projects/mechanical_arm/ch32v307/EVT/EXAM/SRC/Peripheral/src/ch32v30x_eth.c:68
    ETH_InitStruct->ETH_UnicastFramesFilter = ETH_UnicastFramesFilter_Perfect;
     9da:	04052a23          	sw	zero,84(a0)
D:/projects/mechanical_arm/ch32v307/EVT/EXAM/SRC/Peripheral/src/ch32v30x_eth.c:69
    ETH_InitStruct->ETH_HashTableHigh = 0x0;
     9de:	04052c23          	sw	zero,88(a0)
D:/projects/mechanical_arm/ch32v307/EVT/EXAM/SRC/Peripheral/src/ch32v30x_eth.c:70
    ETH_InitStruct->ETH_HashTableLow = 0x0;
     9e2:	04052e23          	sw	zero,92(a0)
D:/projects/mechanical_arm/ch32v307/EVT/EXAM/SRC/Peripheral/src/ch32v30x_eth.c:71
    ETH_InitStruct->ETH_PauseTime = 0x0;
     9e6:	06052023          	sw	zero,96(a0)
D:/projects/mechanical_arm/ch32v307/EVT/EXAM/SRC/Peripheral/src/ch32v30x_eth.c:73
    ETH_InitStruct->ETH_PauseLowThreshold = ETH_PauseLowThreshold_Minus4;
     9ea:	06052423          	sw	zero,104(a0)
D:/projects/mechanical_arm/ch32v307/EVT/EXAM/SRC/Peripheral/src/ch32v30x_eth.c:74
    ETH_InitStruct->ETH_UnicastPauseFrameDetect = ETH_UnicastPauseFrameDetect_Disable;
     9ee:	06052623          	sw	zero,108(a0)
D:/projects/mechanical_arm/ch32v307/EVT/EXAM/SRC/Peripheral/src/ch32v30x_eth.c:75
    ETH_InitStruct->ETH_ReceiveFlowControl = ETH_ReceiveFlowControl_Disable;
     9f2:	06052823          	sw	zero,112(a0)
D:/projects/mechanical_arm/ch32v307/EVT/EXAM/SRC/Peripheral/src/ch32v30x_eth.c:76
    ETH_InitStruct->ETH_TransmitFlowControl = ETH_TransmitFlowControl_Disable;
     9f6:	06052a23          	sw	zero,116(a0)
D:/projects/mechanical_arm/ch32v307/EVT/EXAM/SRC/Peripheral/src/ch32v30x_eth.c:77
    ETH_InitStruct->ETH_VLANTagComparison = ETH_VLANTagComparison_16Bit;
     9fa:	06052c23          	sw	zero,120(a0)
D:/projects/mechanical_arm/ch32v307/EVT/EXAM/SRC/Peripheral/src/ch32v30x_eth.c:78
    ETH_InitStruct->ETH_VLANTagIdentifier = 0x0;
     9fe:	06052e23          	sw	zero,124(a0)
D:/projects/mechanical_arm/ch32v307/EVT/EXAM/SRC/Peripheral/src/ch32v30x_eth.c:80
    ETH_InitStruct->ETH_DropTCPIPChecksumErrorFrame = ETH_DropTCPIPChecksumErrorFrame_Disable;
     a02:	08f52023          	sw	a5,128(a0)
D:/projects/mechanical_arm/ch32v307/EVT/EXAM/SRC/Peripheral/src/ch32v30x_eth.c:81
    ETH_InitStruct->ETH_ReceiveStoreForward = ETH_ReceiveStoreForward_Enable;
     a06:	020007b7          	lui	a5,0x2000
     a0a:	08f52223          	sw	a5,132(a0)
D:/projects/mechanical_arm/ch32v307/EVT/EXAM/SRC/Peripheral/src/ch32v30x_eth.c:89
    ETH_InitStruct->ETH_TransmitThresholdControl = ETH_TransmitThresholdControl_64Bytes;
    ETH_InitStruct->ETH_ForwardErrorFrames = ETH_ForwardErrorFrames_Disable;
    ETH_InitStruct->ETH_ForwardUndersizedGoodFrames = ETH_ForwardUndersizedGoodFrames_Disable;
    ETH_InitStruct->ETH_ReceiveThresholdControl = ETH_ReceiveThresholdControl_64Bytes;
    ETH_InitStruct->ETH_SecondFrameOperate = ETH_SecondFrameOperate_Disable;
    ETH_InitStruct->ETH_AddressAlignedBeats = ETH_AddressAlignedBeats_Enable;
     a0e:	0af52223          	sw	a5,164(a0)
D:/projects/mechanical_arm/ch32v307/EVT/EXAM/SRC/Peripheral/src/ch32v30x_eth.c:91
    ETH_InitStruct->ETH_FixedBurst = ETH_FixedBurst_Disable;
    ETH_InitStruct->ETH_RxDMABurstLength = ETH_RxDMABurstLength_1Beat;
     a12:	000207b7          	lui	a5,0x20
D:/projects/mechanical_arm/ch32v307/EVT/EXAM/SRC/Peripheral/src/ch32v30x_eth.c:83
    ETH_InitStruct->ETH_TransmitStoreForward = ETH_TransmitStoreForward_Enable;
     a16:	00200737          	lui	a4,0x200
D:/projects/mechanical_arm/ch32v307/EVT/EXAM/SRC/Peripheral/src/ch32v30x_eth.c:91
    ETH_InitStruct->ETH_RxDMABurstLength = ETH_RxDMABurstLength_1Beat;
     a1a:	0af52623          	sw	a5,172(a0)
D:/projects/mechanical_arm/ch32v307/EVT/EXAM/SRC/Peripheral/src/ch32v30x_eth.c:92
    ETH_InitStruct->ETH_TxDMABurstLength = ETH_TxDMABurstLength_1Beat;
     a1e:	10000793          	li	a5,256
D:/projects/mechanical_arm/ch32v307/EVT/EXAM/SRC/Peripheral/src/ch32v30x_eth.c:82
    ETH_InitStruct->ETH_FlushReceivedFrame = ETH_FlushReceivedFrame_Enable;
     a22:	08052423          	sw	zero,136(a0)
D:/projects/mechanical_arm/ch32v307/EVT/EXAM/SRC/Peripheral/src/ch32v30x_eth.c:83
    ETH_InitStruct->ETH_TransmitStoreForward = ETH_TransmitStoreForward_Enable;
     a26:	08e52623          	sw	a4,140(a0)
D:/projects/mechanical_arm/ch32v307/EVT/EXAM/SRC/Peripheral/src/ch32v30x_eth.c:84
    ETH_InitStruct->ETH_TransmitThresholdControl = ETH_TransmitThresholdControl_64Bytes;
     a2a:	08052823          	sw	zero,144(a0)
D:/projects/mechanical_arm/ch32v307/EVT/EXAM/SRC/Peripheral/src/ch32v30x_eth.c:85
    ETH_InitStruct->ETH_ForwardErrorFrames = ETH_ForwardErrorFrames_Disable;
     a2e:	08052a23          	sw	zero,148(a0)
D:/projects/mechanical_arm/ch32v307/EVT/EXAM/SRC/Peripheral/src/ch32v30x_eth.c:86
    ETH_InitStruct->ETH_ForwardUndersizedGoodFrames = ETH_ForwardUndersizedGoodFrames_Disable;
     a32:	08052c23          	sw	zero,152(a0)
D:/projects/mechanical_arm/ch32v307/EVT/EXAM/SRC/Peripheral/src/ch32v30x_eth.c:87
    ETH_InitStruct->ETH_ReceiveThresholdControl = ETH_ReceiveThresholdControl_64Bytes;
     a36:	08052e23          	sw	zero,156(a0)
D:/projects/mechanical_arm/ch32v307/EVT/EXAM/SRC/Peripheral/src/ch32v30x_eth.c:88
    ETH_InitStruct->ETH_SecondFrameOperate = ETH_SecondFrameOperate_Disable;
     a3a:	0a052023          	sw	zero,160(a0)
D:/projects/mechanical_arm/ch32v307/EVT/EXAM/SRC/Peripheral/src/ch32v30x_eth.c:90
    ETH_InitStruct->ETH_FixedBurst = ETH_FixedBurst_Disable;
     a3e:	0a052423          	sw	zero,168(a0)
D:/projects/mechanical_arm/ch32v307/EVT/EXAM/SRC/Peripheral/src/ch32v30x_eth.c:92
    ETH_InitStruct->ETH_TxDMABurstLength = ETH_TxDMABurstLength_1Beat;
     a42:	0af52823          	sw	a5,176(a0)
D:/projects/mechanical_arm/ch32v307/EVT/EXAM/SRC/Peripheral/src/ch32v30x_eth.c:93
    ETH_InitStruct->ETH_DescriptorSkipLength = 0x0;
     a46:	0a052a23          	sw	zero,180(a0)
D:/projects/mechanical_arm/ch32v307/EVT/EXAM/SRC/Peripheral/src/ch32v30x_eth.c:94
    ETH_InitStruct->ETH_DMAArbitration = ETH_DMAArbitration_RoundRobin_RxTx_1_1;
     a4a:	0a052c23          	sw	zero,184(a0)
D:/projects/mechanical_arm/ch32v307/EVT/EXAM/SRC/Peripheral/src/ch32v30x_eth.c:95
}
     a4e:	8082                	ret

00000a50 <ETH_ReadPHYRegister>:
ETH_ReadPHYRegister():
D:/projects/mechanical_arm/ch32v307/EVT/EXAM/SRC/Peripheral/src/ch32v30x_eth.c:290
 *
 * @return  ETH_ERROR - in case of timeout.
 *          MAC MIIDR register value - Data read from the selected PHY register.
 */
uint16_t ETH_ReadPHYRegister(uint16_t PHYAddress, uint16_t PHYReg)
{
     a50:	1141                	addi	sp,sp,-16
D:/projects/mechanical_arm/ch32v307/EVT/EXAM/SRC/Peripheral/src/ch32v30x_eth.c:292
    uint32_t      tmpreg = 0;
    __IO uint32_t timeout = 0;
     a52:	c602                	sw	zero,12(sp)
D:/projects/mechanical_arm/ch32v307/EVT/EXAM/SRC/Peripheral/src/ch32v30x_eth.c:294

    tmpreg = ETH->MACMIIAR;
     a54:	400286b7          	lui	a3,0x40028
     a58:	4a9c                	lw	a5,16(a3)
D:/projects/mechanical_arm/ch32v307/EVT/EXAM/SRC/Peripheral/src/ch32v30x_eth.c:296
    tmpreg &= ~MACMIIAR_CR_MASK;
    tmpreg |= (((uint32_t)PHYAddress << 11) & ETH_MACMIIAR_PA);
     a5a:	6741                	lui	a4,0x10
     a5c:	052e                	slli	a0,a0,0xb
     a5e:	177d                	addi	a4,a4,-1
D:/projects/mechanical_arm/ch32v307/EVT/EXAM/SRC/Peripheral/src/ch32v30x_eth.c:295
    tmpreg &= ~MACMIIAR_CR_MASK;
     a60:	8bf1                	andi	a5,a5,28
D:/projects/mechanical_arm/ch32v307/EVT/EXAM/SRC/Peripheral/src/ch32v30x_eth.c:296
    tmpreg |= (((uint32_t)PHYAddress << 11) & ETH_MACMIIAR_PA);
     a62:	8d79                	and	a0,a0,a4
D:/projects/mechanical_arm/ch32v307/EVT/EXAM/SRC/Peripheral/src/ch32v30x_eth.c:297
    tmpreg |= (((uint32_t)PHYReg << 6) & ETH_MACMIIAR_MR);
     a64:	059a                	slli	a1,a1,0x6
D:/projects/mechanical_arm/ch32v307/EVT/EXAM/SRC/Peripheral/src/ch32v30x_eth.c:296
    tmpreg |= (((uint32_t)PHYAddress << 11) & ETH_MACMIIAR_PA);
     a66:	8d5d                	or	a0,a0,a5
D:/projects/mechanical_arm/ch32v307/EVT/EXAM/SRC/Peripheral/src/ch32v30x_eth.c:297
    tmpreg |= (((uint32_t)PHYReg << 6) & ETH_MACMIIAR_MR);
     a68:	7c05f593          	andi	a1,a1,1984
     a6c:	8dc9                	or	a1,a1,a0
D:/projects/mechanical_arm/ch32v307/EVT/EXAM/SRC/Peripheral/src/ch32v30x_eth.c:299
    tmpreg &= ~ETH_MACMIIAR_MW;
    tmpreg |= ETH_MACMIIAR_MB;
     a6e:	0015e593          	ori	a1,a1,1
D:/projects/mechanical_arm/ch32v307/EVT/EXAM/SRC/Peripheral/src/ch32v30x_eth.c:306

    do
    {
        timeout++;
        tmpreg = ETH->MACMIIAR;
    } while((tmpreg & ETH_MACMIIAR_MB) && (timeout < (uint32_t)PHY_READ_TO));
     a72:	005007b7          	lui	a5,0x500
D:/projects/mechanical_arm/ch32v307/EVT/EXAM/SRC/Peripheral/src/ch32v30x_eth.c:300
    ETH->MACMIIAR = tmpreg;
     a76:	ca8c                	sw	a1,16(a3)
D:/projects/mechanical_arm/ch32v307/EVT/EXAM/SRC/Peripheral/src/ch32v30x_eth.c:306
    } while((tmpreg & ETH_MACMIIAR_MB) && (timeout < (uint32_t)PHY_READ_TO));
     a78:	17f9                	addi	a5,a5,-2
D:/projects/mechanical_arm/ch32v307/EVT/EXAM/SRC/Peripheral/src/ch32v30x_eth.c:304 (discriminator 2)
        timeout++;
     a7a:	4732                	lw	a4,12(sp)
     a7c:	0705                	addi	a4,a4,1
     a7e:	c63a                	sw	a4,12(sp)
D:/projects/mechanical_arm/ch32v307/EVT/EXAM/SRC/Peripheral/src/ch32v30x_eth.c:305 (discriminator 2)
        tmpreg = ETH->MACMIIAR;
     a80:	4a98                	lw	a4,16(a3)
D:/projects/mechanical_arm/ch32v307/EVT/EXAM/SRC/Peripheral/src/ch32v30x_eth.c:306 (discriminator 2)
    } while((tmpreg & ETH_MACMIIAR_MB) && (timeout < (uint32_t)PHY_READ_TO));
     a82:	8b05                	andi	a4,a4,1
     a84:	c701                	beqz	a4,a8c <ETH_ReadPHYRegister+0x3c>
D:/projects/mechanical_arm/ch32v307/EVT/EXAM/SRC/Peripheral/src/ch32v30x_eth.c:306 (discriminator 1)
     a86:	4732                	lw	a4,12(sp)
     a88:	fee7f9e3          	bgeu	a5,a4,a7a <ETH_ReadPHYRegister+0x2a>
D:/projects/mechanical_arm/ch32v307/EVT/EXAM/SRC/Peripheral/src/ch32v30x_eth.c:308

    if(timeout == PHY_READ_TO)
     a8c:	4732                	lw	a4,12(sp)
     a8e:	005007b7          	lui	a5,0x500
     a92:	17fd                	addi	a5,a5,-1
D:/projects/mechanical_arm/ch32v307/EVT/EXAM/SRC/Peripheral/src/ch32v30x_eth.c:310
    {
        return (uint16_t)ETH_ERROR;
     a94:	4501                	li	a0,0
D:/projects/mechanical_arm/ch32v307/EVT/EXAM/SRC/Peripheral/src/ch32v30x_eth.c:308
    if(timeout == PHY_READ_TO)
     a96:	00f70763          	beq	a4,a5,aa4 <ETH_ReadPHYRegister+0x54>
D:/projects/mechanical_arm/ch32v307/EVT/EXAM/SRC/Peripheral/src/ch32v30x_eth.c:313
    }

    return (uint16_t)(ETH->MACMIIDR);
     a9a:	400287b7          	lui	a5,0x40028
     a9e:	4bc8                	lw	a0,20(a5)
     aa0:	0542                	slli	a0,a0,0x10
     aa2:	8141                	srli	a0,a0,0x10
D:/projects/mechanical_arm/ch32v307/EVT/EXAM/SRC/Peripheral/src/ch32v30x_eth.c:314
}
     aa4:	0141                	addi	sp,sp,16
     aa6:	8082                	ret

00000aa8 <ETH_WritePHYRegister>:
ETH_WritePHYRegister():
D:/projects/mechanical_arm/ch32v307/EVT/EXAM/SRC/Peripheral/src/ch32v30x_eth.c:329
 *
 * @return  ETH_ERROR - in case of timeout.
 *          ETH_SUCCESS - for correct write
 */
uint32_t ETH_WritePHYRegister(uint16_t PHYAddress, uint16_t PHYReg, uint16_t PHYValue)
{
     aa8:	1141                	addi	sp,sp,-16
D:/projects/mechanical_arm/ch32v307/EVT/EXAM/SRC/Peripheral/src/ch32v30x_eth.c:333
    uint32_t      tmpreg = 0;
    __IO uint32_t timeout = 0;

    tmpreg = ETH->MACMIIAR;
     aaa:	400287b7          	lui	a5,0x40028
D:/projects/mechanical_arm/ch32v307/EVT/EXAM/SRC/Peripheral/src/ch32v30x_eth.c:331
    __IO uint32_t timeout = 0;
     aae:	c602                	sw	zero,12(sp)
D:/projects/mechanical_arm/ch32v307/EVT/EXAM/SRC/Peripheral/src/ch32v30x_eth.c:333
    tmpreg = ETH->MACMIIAR;
     ab0:	4b98                	lw	a4,16(a5)
D:/projects/mechanical_arm/ch32v307/EVT/EXAM/SRC/Peripheral/src/ch32v30x_eth.c:335
    tmpreg &= ~MACMIIAR_CR_MASK;
    tmpreg |= (((uint32_t)PHYAddress << 11) & ETH_MACMIIAR_PA);
     ab2:	66c1                	lui	a3,0x10
     ab4:	16fd                	addi	a3,a3,-1
     ab6:	052e                	slli	a0,a0,0xb
     ab8:	8d75                	and	a0,a0,a3
D:/projects/mechanical_arm/ch32v307/EVT/EXAM/SRC/Peripheral/src/ch32v30x_eth.c:334
    tmpreg &= ~MACMIIAR_CR_MASK;
     aba:	8b71                	andi	a4,a4,28
D:/projects/mechanical_arm/ch32v307/EVT/EXAM/SRC/Peripheral/src/ch32v30x_eth.c:336
    tmpreg |= (((uint32_t)PHYReg << 6) & ETH_MACMIIAR_MR);
     abc:	059a                	slli	a1,a1,0x6
D:/projects/mechanical_arm/ch32v307/EVT/EXAM/SRC/Peripheral/src/ch32v30x_eth.c:335
    tmpreg |= (((uint32_t)PHYAddress << 11) & ETH_MACMIIAR_PA);
     abe:	8d59                	or	a0,a0,a4
D:/projects/mechanical_arm/ch32v307/EVT/EXAM/SRC/Peripheral/src/ch32v30x_eth.c:336
    tmpreg |= (((uint32_t)PHYReg << 6) & ETH_MACMIIAR_MR);
     ac0:	7c05f593          	andi	a1,a1,1984
     ac4:	8dc9                	or	a1,a1,a0
D:/projects/mechanical_arm/ch32v307/EVT/EXAM/SRC/Peripheral/src/ch32v30x_eth.c:339
    tmpreg |= ETH_MACMIIAR_MW;
    tmpreg |= ETH_MACMIIAR_MB;
    ETH->MACMIIDR = PHYValue;
     ac6:	cbd0                	sw	a2,20(a5)
D:/projects/mechanical_arm/ch32v307/EVT/EXAM/SRC/Peripheral/src/ch32v30x_eth.c:338
    tmpreg |= ETH_MACMIIAR_MB;
     ac8:	0035e593          	ori	a1,a1,3
D:/projects/mechanical_arm/ch32v307/EVT/EXAM/SRC/Peripheral/src/ch32v30x_eth.c:340
    ETH->MACMIIAR = tmpreg;
     acc:	cb8c                	sw	a1,16(a5)
D:/projects/mechanical_arm/ch32v307/EVT/EXAM/SRC/Peripheral/src/ch32v30x_eth.c:346

    do
    {
        timeout++;
        tmpreg = ETH->MACMIIAR;
    } while((tmpreg & ETH_MACMIIAR_MB) && (timeout < (uint32_t)PHY_WRITE_TO));
     ace:	000507b7          	lui	a5,0x50
D:/projects/mechanical_arm/ch32v307/EVT/EXAM/SRC/Peripheral/src/ch32v30x_eth.c:345
        tmpreg = ETH->MACMIIAR;
     ad2:	400286b7          	lui	a3,0x40028
D:/projects/mechanical_arm/ch32v307/EVT/EXAM/SRC/Peripheral/src/ch32v30x_eth.c:346
    } while((tmpreg & ETH_MACMIIAR_MB) && (timeout < (uint32_t)PHY_WRITE_TO));
     ad6:	17f9                	addi	a5,a5,-2
D:/projects/mechanical_arm/ch32v307/EVT/EXAM/SRC/Peripheral/src/ch32v30x_eth.c:344 (discriminator 2)
        timeout++;
     ad8:	4732                	lw	a4,12(sp)
     ada:	0705                	addi	a4,a4,1
     adc:	c63a                	sw	a4,12(sp)
D:/projects/mechanical_arm/ch32v307/EVT/EXAM/SRC/Peripheral/src/ch32v30x_eth.c:345 (discriminator 2)
        tmpreg = ETH->MACMIIAR;
     ade:	4a98                	lw	a4,16(a3)
D:/projects/mechanical_arm/ch32v307/EVT/EXAM/SRC/Peripheral/src/ch32v30x_eth.c:346 (discriminator 2)
    } while((tmpreg & ETH_MACMIIAR_MB) && (timeout < (uint32_t)PHY_WRITE_TO));
     ae0:	8b05                	andi	a4,a4,1
     ae2:	c701                	beqz	a4,aea <ETH_WritePHYRegister+0x42>
D:/projects/mechanical_arm/ch32v307/EVT/EXAM/SRC/Peripheral/src/ch32v30x_eth.c:346 (discriminator 1)
     ae4:	4732                	lw	a4,12(sp)
     ae6:	fee7f9e3          	bgeu	a5,a4,ad8 <ETH_WritePHYRegister+0x30>
D:/projects/mechanical_arm/ch32v307/EVT/EXAM/SRC/Peripheral/src/ch32v30x_eth.c:348

    if(timeout >= PHY_WRITE_TO)
     aea:	4532                	lw	a0,12(sp)
D:/projects/mechanical_arm/ch32v307/EVT/EXAM/SRC/Peripheral/src/ch32v30x_eth.c:354
    {
        return ETH_ERROR;
    }

    return ETH_SUCCESS;
}
     aec:	000507b7          	lui	a5,0x50
     af0:	17fd                	addi	a5,a5,-1
     af2:	00f53533          	sltu	a0,a0,a5
     af6:	0141                	addi	sp,sp,16
     af8:	8082                	ret

00000afa <ETH_DMATxDescChainInit>:
ETH_DMATxDescChainInit():
D:/projects/mechanical_arm/ch32v307/EVT/EXAM/SRC/Peripheral/src/ch32v30x_eth.c:710
void ETH_DMATxDescChainInit(ETH_DMADESCTypeDef *DMATxDescTab, uint8_t *TxBuff, uint32_t TxBuffCount)
{
    uint32_t            i = 0;
    ETH_DMADESCTypeDef *DMATxDesc;

    DMATxDescToSet = DMATxDescTab;
     afa:	2000c7b7          	lui	a5,0x2000c
     afe:	42a7a423          	sw	a0,1064(a5) # 2000c428 <DMATxDescToSet>
D:/projects/mechanical_arm/ch32v307/EVT/EXAM/SRC/Peripheral/src/ch32v30x_eth.c:712

    for(i = 0; i < TxBuffCount; i++)
     b02:	4701                	li	a4,0
     b04:	01050793          	addi	a5,a0,16
D:/projects/mechanical_arm/ch32v307/EVT/EXAM/SRC/Peripheral/src/ch32v30x_eth.c:715
    {
        DMATxDesc = DMATxDescTab + i;
        DMATxDesc->Status = ETH_DMATxDesc_TCH | ETH_DMATxDesc_IC;
     b08:	401008b7          	lui	a7,0x40100
D:/projects/mechanical_arm/ch32v307/EVT/EXAM/SRC/Peripheral/src/ch32v30x_eth.c:716
        DMATxDesc->Buffer1Addr = (uint32_t)(&TxBuff[i * ETH_MAX_PACKET_SIZE]);
     b0c:	5f000313          	li	t1,1520
D:/projects/mechanical_arm/ch32v307/EVT/EXAM/SRC/Peripheral/src/ch32v30x_eth.c:718

        if(i < (TxBuffCount - 1))
     b10:	fff60e13          	addi	t3,a2,-1 # 1ffff <_data_lma+0x17a2b>
     b14:	882a                	mv	a6,a0
D:/projects/mechanical_arm/ch32v307/EVT/EXAM/SRC/Peripheral/src/ch32v30x_eth.c:712 (discriminator 1)
    for(i = 0; i < TxBuffCount; i++)
     b16:	00c71663          	bne	a4,a2,b22 <ETH_DMATxDescChainInit+0x28>
D:/projects/mechanical_arm/ch32v307/EVT/EXAM/SRC/Peripheral/src/ch32v30x_eth.c:728
        {
            DMATxDesc->Buffer2NextDescAddr = (uint32_t)DMATxDescTab;
        }
    }

    ETH->DMATDLAR = (uint32_t)DMATxDescTab;
     b1a:	400297b7          	lui	a5,0x40029
     b1e:	cb88                	sw	a0,16(a5)
D:/projects/mechanical_arm/ch32v307/EVT/EXAM/SRC/Peripheral/src/ch32v30x_eth.c:729
}
     b20:	8082                	ret
D:/projects/mechanical_arm/ch32v307/EVT/EXAM/SRC/Peripheral/src/ch32v30x_eth.c:716
        DMATxDesc->Buffer1Addr = (uint32_t)(&TxBuff[i * ETH_MAX_PACKET_SIZE]);
     b22:	026706b3          	mul	a3,a4,t1
D:/projects/mechanical_arm/ch32v307/EVT/EXAM/SRC/Peripheral/src/ch32v30x_eth.c:715
        DMATxDesc->Status = ETH_DMATxDesc_TCH | ETH_DMATxDesc_IC;
     b26:	ff17a823          	sw	a7,-16(a5) # 40028ff0 <_eusrstack+0x20008ff0>
D:/projects/mechanical_arm/ch32v307/EVT/EXAM/SRC/Peripheral/src/ch32v30x_eth.c:716
        DMATxDesc->Buffer1Addr = (uint32_t)(&TxBuff[i * ETH_MAX_PACKET_SIZE]);
     b2a:	96ae                	add	a3,a3,a1
     b2c:	fed7ac23          	sw	a3,-8(a5)
D:/projects/mechanical_arm/ch32v307/EVT/EXAM/SRC/Peripheral/src/ch32v30x_eth.c:718
        if(i < (TxBuffCount - 1))
     b30:	01c77363          	bgeu	a4,t3,b36 <ETH_DMATxDescChainInit+0x3c>
D:/projects/mechanical_arm/ch32v307/EVT/EXAM/SRC/Peripheral/src/ch32v30x_eth.c:720
            DMATxDesc->Buffer2NextDescAddr = (uint32_t)(DMATxDescTab + i + 1);
     b34:	883e                	mv	a6,a5
     b36:	ff07ae23          	sw	a6,-4(a5)
     b3a:	0705                	addi	a4,a4,1
     b3c:	07c1                	addi	a5,a5,16
     b3e:	bfd9                	j	b14 <ETH_DMATxDescChainInit+0x1a>

00000b40 <ETH_DMARxDescChainInit>:
ETH_DMARxDescChainInit():
D:/projects/mechanical_arm/ch32v307/EVT/EXAM/SRC/Peripheral/src/ch32v30x_eth.c:1038
void ETH_DMARxDescChainInit(ETH_DMADESCTypeDef *DMARxDescTab, uint8_t *RxBuff, uint32_t RxBuffCount)
{
    uint32_t            i = 0;
    ETH_DMADESCTypeDef *DMARxDesc;

    DMARxDescToGet = DMARxDescTab;
     b40:	2000c7b7          	lui	a5,0x2000c
D:/projects/mechanical_arm/ch32v307/EVT/EXAM/SRC/Peripheral/src/ch32v30x_eth.c:1044

    for(i = 0; i < RxBuffCount; i++)
    {
        DMARxDesc = DMARxDescTab + i;
        DMARxDesc->Status = ETH_DMARxDesc_OWN;
        DMARxDesc->ControlBufferSize = ETH_DMARxDesc_RCH | (uint32_t)ETH_MAX_PACKET_SIZE;
     b44:	6691                	lui	a3,0x4
D:/projects/mechanical_arm/ch32v307/EVT/EXAM/SRC/Peripheral/src/ch32v30x_eth.c:1038
    DMARxDescToGet = DMARxDescTab;
     b46:	42a7a223          	sw	a0,1060(a5) # 2000c424 <DMARxDescToGet>
D:/projects/mechanical_arm/ch32v307/EVT/EXAM/SRC/Peripheral/src/ch32v30x_eth.c:1040
    for(i = 0; i < RxBuffCount; i++)
     b4a:	4701                	li	a4,0
     b4c:	01050793          	addi	a5,a0,16
D:/projects/mechanical_arm/ch32v307/EVT/EXAM/SRC/Peripheral/src/ch32v30x_eth.c:1043
        DMARxDesc->Status = ETH_DMARxDesc_OWN;
     b50:	80000337          	lui	t1,0x80000
D:/projects/mechanical_arm/ch32v307/EVT/EXAM/SRC/Peripheral/src/ch32v30x_eth.c:1044
        DMARxDesc->ControlBufferSize = ETH_DMARxDesc_RCH | (uint32_t)ETH_MAX_PACKET_SIZE;
     b54:	5f068693          	addi	a3,a3,1520 # 45f0 <tcp_bind+0xcc>
D:/projects/mechanical_arm/ch32v307/EVT/EXAM/SRC/Peripheral/src/ch32v30x_eth.c:1045
        DMARxDesc->Buffer1Addr = (uint32_t)(&RxBuff[i * ETH_MAX_PACKET_SIZE]);
     b58:	5f000e13          	li	t3,1520
D:/projects/mechanical_arm/ch32v307/EVT/EXAM/SRC/Peripheral/src/ch32v30x_eth.c:1047

        if(i < (RxBuffCount - 1))
     b5c:	fff60e93          	addi	t4,a2,-1
     b60:	88aa                	mv	a7,a0
D:/projects/mechanical_arm/ch32v307/EVT/EXAM/SRC/Peripheral/src/ch32v30x_eth.c:1040 (discriminator 1)
    for(i = 0; i < RxBuffCount; i++)
     b62:	00c71663          	bne	a4,a2,b6e <ETH_DMARxDescChainInit+0x2e>
D:/projects/mechanical_arm/ch32v307/EVT/EXAM/SRC/Peripheral/src/ch32v30x_eth.c:1057
        {
            DMARxDesc->Buffer2NextDescAddr = (uint32_t)(DMARxDescTab);
        }
    }

    ETH->DMARDLAR = (uint32_t)DMARxDescTab;
     b66:	400297b7          	lui	a5,0x40029
     b6a:	c7c8                	sw	a0,12(a5)
D:/projects/mechanical_arm/ch32v307/EVT/EXAM/SRC/Peripheral/src/ch32v30x_eth.c:1058
}
     b6c:	8082                	ret
D:/projects/mechanical_arm/ch32v307/EVT/EXAM/SRC/Peripheral/src/ch32v30x_eth.c:1045
        DMARxDesc->Buffer1Addr = (uint32_t)(&RxBuff[i * ETH_MAX_PACKET_SIZE]);
     b6e:	03c70833          	mul	a6,a4,t3
D:/projects/mechanical_arm/ch32v307/EVT/EXAM/SRC/Peripheral/src/ch32v30x_eth.c:1043
        DMARxDesc->Status = ETH_DMARxDesc_OWN;
     b72:	fe67a823          	sw	t1,-16(a5) # 40028ff0 <_eusrstack+0x20008ff0>
D:/projects/mechanical_arm/ch32v307/EVT/EXAM/SRC/Peripheral/src/ch32v30x_eth.c:1044
        DMARxDesc->ControlBufferSize = ETH_DMARxDesc_RCH | (uint32_t)ETH_MAX_PACKET_SIZE;
     b76:	fed7aa23          	sw	a3,-12(a5)
D:/projects/mechanical_arm/ch32v307/EVT/EXAM/SRC/Peripheral/src/ch32v30x_eth.c:1045
        DMARxDesc->Buffer1Addr = (uint32_t)(&RxBuff[i * ETH_MAX_PACKET_SIZE]);
     b7a:	982e                	add	a6,a6,a1
     b7c:	ff07ac23          	sw	a6,-8(a5)
D:/projects/mechanical_arm/ch32v307/EVT/EXAM/SRC/Peripheral/src/ch32v30x_eth.c:1047
        if(i < (RxBuffCount - 1))
     b80:	01d77363          	bgeu	a4,t4,b86 <ETH_DMARxDescChainInit+0x46>
D:/projects/mechanical_arm/ch32v307/EVT/EXAM/SRC/Peripheral/src/ch32v30x_eth.c:1049
            DMARxDesc->Buffer2NextDescAddr = (uint32_t)(DMARxDescTab + i + 1);
     b84:	88be                	mv	a7,a5
     b86:	ff17ae23          	sw	a7,-4(a5)
     b8a:	0705                	addi	a4,a4,1
     b8c:	07c1                	addi	a5,a5,16
     b8e:	bfc9                	j	b60 <ETH_DMARxDescChainInit+0x20>

00000b90 <ETH_SoftwareReset>:
ETH_SoftwareReset():
D:/projects/mechanical_arm/ch32v307/EVT/EXAM/SRC/Peripheral/src/ch32v30x_eth.c:1267
 *
 * @return  none
 */
void ETH_SoftwareReset(void)
{
    ETH->DMABMR |= ETH_DMABMR_SR;
     b90:	40029737          	lui	a4,0x40029
     b94:	431c                	lw	a5,0(a4)
     b96:	0017e793          	ori	a5,a5,1
     b9a:	c31c                	sw	a5,0(a4)
D:/projects/mechanical_arm/ch32v307/EVT/EXAM/SRC/Peripheral/src/ch32v30x_eth.c:1268
}
     b9c:	8082                	ret

00000b9e <ETH_FlushTransmitFIFO>:
ETH_FlushTransmitFIFO():
D:/projects/mechanical_arm/ch32v307/EVT/EXAM/SRC/Peripheral/src/ch32v30x_eth.c:1506
 *
 * @return  none
 */
void ETH_FlushTransmitFIFO(void)
{
    ETH->DMAOMR |= ETH_DMAOMR_FTF;
     b9e:	40029737          	lui	a4,0x40029
     ba2:	4f1c                	lw	a5,24(a4)
     ba4:	001006b7          	lui	a3,0x100
     ba8:	8fd5                	or	a5,a5,a3
     baa:	cf1c                	sw	a5,24(a4)
D:/projects/mechanical_arm/ch32v307/EVT/EXAM/SRC/Peripheral/src/ch32v30x_eth.c:1507
}
     bac:	8082                	ret

00000bae <ETH_Start>:
ETH_Start():
D:/projects/mechanical_arm/ch32v307/EVT/EXAM/SRC/Peripheral/src/ch32v30x_eth.c:105
{
     bae:	1141                	addi	sp,sp,-16
     bb0:	c422                	sw	s0,8(sp)
ETH_MACTransmissionCmd():
D:/projects/mechanical_arm/ch32v307/EVT/EXAM/SRC/Peripheral/src/ch32v30x_eth.c:405
        ETH->MACCR |= ETH_MACCR_TE;
     bb2:	40028437          	lui	s0,0x40028
     bb6:	401c                	lw	a5,0(s0)
ETH_Start():
D:/projects/mechanical_arm/ch32v307/EVT/EXAM/SRC/Peripheral/src/ch32v30x_eth.c:105
{
     bb8:	c606                	sw	ra,12(sp)
ETH_MACTransmissionCmd():
D:/projects/mechanical_arm/ch32v307/EVT/EXAM/SRC/Peripheral/src/ch32v30x_eth.c:405
        ETH->MACCR |= ETH_MACCR_TE;
     bba:	0087e793          	ori	a5,a5,8
     bbe:	c01c                	sw	a5,0(s0)
ETH_Start():
D:/projects/mechanical_arm/ch32v307/EVT/EXAM/SRC/Peripheral/src/ch32v30x_eth.c:107
    ETH_FlushTransmitFIFO();
     bc0:	3ff9                	jal	b9e <ETH_FlushTransmitFIFO>
ETH_MACReceptionCmd():
D:/projects/mechanical_arm/ch32v307/EVT/EXAM/SRC/Peripheral/src/ch32v30x_eth.c:426
        ETH->MACCR |= ETH_MACCR_RE;
     bc2:	401c                	lw	a5,0(s0)
ETH_DMATransmissionCmd():
D:/projects/mechanical_arm/ch32v307/EVT/EXAM/SRC/Peripheral/src/ch32v30x_eth.c:1543
 */
void ETH_DMATransmissionCmd(FunctionalState NewState)
{
    if(NewState != DISABLE)
    {
        ETH->DMAOMR |= ETH_DMAOMR_ST;
     bc4:	6689                	lui	a3,0x2
ETH_Start():
D:/projects/mechanical_arm/ch32v307/EVT/EXAM/SRC/Peripheral/src/ch32v30x_eth.c:111
}
     bc6:	40b2                	lw	ra,12(sp)
ETH_MACReceptionCmd():
D:/projects/mechanical_arm/ch32v307/EVT/EXAM/SRC/Peripheral/src/ch32v30x_eth.c:426
        ETH->MACCR |= ETH_MACCR_RE;
     bc8:	0047e793          	ori	a5,a5,4
     bcc:	c01c                	sw	a5,0(s0)
ETH_DMATransmissionCmd():
D:/projects/mechanical_arm/ch32v307/EVT/EXAM/SRC/Peripheral/src/ch32v30x_eth.c:1543
        ETH->DMAOMR |= ETH_DMAOMR_ST;
     bce:	400297b7          	lui	a5,0x40029
     bd2:	4f98                	lw	a4,24(a5)
ETH_Start():
D:/projects/mechanical_arm/ch32v307/EVT/EXAM/SRC/Peripheral/src/ch32v30x_eth.c:111
}
     bd4:	4422                	lw	s0,8(sp)
ETH_DMATransmissionCmd():
D:/projects/mechanical_arm/ch32v307/EVT/EXAM/SRC/Peripheral/src/ch32v30x_eth.c:1543
        ETH->DMAOMR |= ETH_DMAOMR_ST;
     bd6:	8f55                	or	a4,a4,a3
     bd8:	cf98                	sw	a4,24(a5)
ETH_DMAReceptionCmd():
D:/projects/mechanical_arm/ch32v307/EVT/EXAM/SRC/Peripheral/src/ch32v30x_eth.c:1564
 */
void ETH_DMAReceptionCmd(FunctionalState NewState)
{
    if(NewState != DISABLE)
    {
        ETH->DMAOMR |= ETH_DMAOMR_SR;
     bda:	4f98                	lw	a4,24(a5)
     bdc:	00276713          	ori	a4,a4,2
     be0:	cf98                	sw	a4,24(a5)
ETH_Start():
D:/projects/mechanical_arm/ch32v307/EVT/EXAM/SRC/Peripheral/src/ch32v30x_eth.c:111
}
     be2:	0141                	addi	sp,sp,16
     be4:	8082                	ret

00000be6 <ETH_DMAITConfig>:
ETH_DMAITConfig():
D:/projects/mechanical_arm/ch32v307/EVT/EXAM/SRC/Peripheral/src/ch32v30x_eth.c:1601
 *
 * @return  new state of the specified ETHERNET DMA interrupts.
 */
void ETH_DMAITConfig(uint32_t ETH_DMA_IT, FunctionalState NewState)
{
    if(NewState != DISABLE)
     be6:	c599                	beqz	a1,bf4 <ETH_DMAITConfig+0xe>
D:/projects/mechanical_arm/ch32v307/EVT/EXAM/SRC/Peripheral/src/ch32v30x_eth.c:1603
    {
        ETH->DMAIER |= ETH_DMA_IT;
     be8:	40029737          	lui	a4,0x40029
     bec:	4f5c                	lw	a5,28(a4)
     bee:	8d5d                	or	a0,a0,a5
     bf0:	cf48                	sw	a0,28(a4)
     bf2:	8082                	ret
D:/projects/mechanical_arm/ch32v307/EVT/EXAM/SRC/Peripheral/src/ch32v30x_eth.c:1607
    }
    else
    {
        ETH->DMAIER &= (~(uint32_t)ETH_DMA_IT);
     bf4:	400297b7          	lui	a5,0x40029
     bf8:	4fd8                	lw	a4,28(a5)
     bfa:	fff54513          	not	a0,a0
     bfe:	8d79                	and	a0,a0,a4
     c00:	cfc8                	sw	a0,28(a5)
D:/projects/mechanical_arm/ch32v307/EVT/EXAM/SRC/Peripheral/src/ch32v30x_eth.c:1609
    }
}
     c02:	8082                	ret

00000c04 <ETH_GetCurrentTxBufferAddress>:
ETH_GetCurrentTxBufferAddress():
D:/projects/mechanical_arm/ch32v307/EVT/EXAM/SRC/Peripheral/src/ch32v30x_eth.c:1694
 *
 * @return  The value of the current Tx buffer address.
 */
uint32_t ETH_GetCurrentTxBufferAddress(void)
{
    return (DMATxDescToSet->Buffer1Addr);
     c04:	2000c7b7          	lui	a5,0x2000c
     c08:	4287a783          	lw	a5,1064(a5) # 2000c428 <DMATxDescToSet>
D:/projects/mechanical_arm/ch32v307/EVT/EXAM/SRC/Peripheral/src/ch32v30x_eth.c:1695
}
     c0c:	4788                	lw	a0,8(a5)
     c0e:	8082                	ret

00000c10 <FLASH_Unlock>:
FLASH_Unlock():
D:/projects/mechanical_arm/ch32v307/EVT/EXAM/SRC/Peripheral/src/ch32v30x_flash.c:68
 * @return  none
 */
void FLASH_Unlock(void)
{
    /* Authorize the FPEC of Bank1 Access */
    FLASH->KEYR = FLASH_KEY1;
     c10:	456707b7          	lui	a5,0x45670
     c14:	40022737          	lui	a4,0x40022
     c18:	12378793          	addi	a5,a5,291 # 45670123 <_eusrstack+0x25650123>
     c1c:	c35c                	sw	a5,4(a4)
D:/projects/mechanical_arm/ch32v307/EVT/EXAM/SRC/Peripheral/src/ch32v30x_flash.c:69
    FLASH->KEYR = FLASH_KEY2;
     c1e:	cdef97b7          	lui	a5,0xcdef9
     c22:	9ab78793          	addi	a5,a5,-1621 # cdef89ab <_eusrstack+0xaded89ab>
     c26:	c35c                	sw	a5,4(a4)
D:/projects/mechanical_arm/ch32v307/EVT/EXAM/SRC/Peripheral/src/ch32v30x_flash.c:70
}
     c28:	8082                	ret

00000c2a <FLASH_Lock>:
FLASH_Lock():
D:/projects/mechanical_arm/ch32v307/EVT/EXAM/SRC/Peripheral/src/ch32v30x_flash.c:95
 *
 * @return  none
 */
void FLASH_Lock(void)
{
    FLASH->CTLR |= CR_LOCK_Set;
     c2a:	40022737          	lui	a4,0x40022
     c2e:	4b1c                	lw	a5,16(a4)
     c30:	0807e793          	ori	a5,a5,128
     c34:	cb1c                	sw	a5,16(a4)
D:/projects/mechanical_arm/ch32v307/EVT/EXAM/SRC/Peripheral/src/ch32v30x_flash.c:96
}
     c36:	8082                	ret

00000c38 <FLASH_GetUserOptionByte>:
FLASH_GetUserOptionByte():
D:/projects/mechanical_arm/ch32v307/EVT/EXAM/SRC/Peripheral/src/ch32v30x_flash.c:564
 * @return  The FLASH User Option Bytes values:IWDG_SW(Bit0), RST_STOP(Bit1)
 *        and RST_STDBY(Bit2).
 */
uint32_t FLASH_GetUserOptionByte(void)
{
    return (uint32_t)(FLASH->OBR >> 2);
     c38:	400227b7          	lui	a5,0x40022
     c3c:	4fc8                	lw	a0,28(a5)
D:/projects/mechanical_arm/ch32v307/EVT/EXAM/SRC/Peripheral/src/ch32v30x_flash.c:565
}
     c3e:	8109                	srli	a0,a0,0x2
     c40:	8082                	ret

00000c42 <FLASH_GetBank1Status>:
FLASH_GetBank1Status():
D:/projects/mechanical_arm/ch32v307/EVT/EXAM/SRC/Peripheral/src/ch32v30x_flash.c:733
 */
FLASH_Status FLASH_GetBank1Status(void)
{
    FLASH_Status flashstatus = FLASH_COMPLETE;

    if((FLASH->STATR & FLASH_FLAG_BANK1_BSY) == FLASH_FLAG_BSY)
     c42:	400227b7          	lui	a5,0x40022
     c46:	47d8                	lw	a4,12(a5)
D:/projects/mechanical_arm/ch32v307/EVT/EXAM/SRC/Peripheral/src/ch32v30x_flash.c:735
    {
        flashstatus = FLASH_BUSY;
     c48:	4505                	li	a0,1
D:/projects/mechanical_arm/ch32v307/EVT/EXAM/SRC/Peripheral/src/ch32v30x_flash.c:733
    if((FLASH->STATR & FLASH_FLAG_BANK1_BSY) == FLASH_FLAG_BSY)
     c4a:	8b05                	andi	a4,a4,1
     c4c:	eb11                	bnez	a4,c60 <FLASH_GetBank1Status+0x1e>
D:/projects/mechanical_arm/ch32v307/EVT/EXAM/SRC/Peripheral/src/ch32v30x_flash.c:739
    }
    else
    {
        if((FLASH->STATR & FLASH_FLAG_BANK1_PGERR) != 0)
     c4e:	47d8                	lw	a4,12(a5)
D:/projects/mechanical_arm/ch32v307/EVT/EXAM/SRC/Peripheral/src/ch32v30x_flash.c:741
        {
            flashstatus = FLASH_ERROR_PG;
     c50:	4509                	li	a0,2
D:/projects/mechanical_arm/ch32v307/EVT/EXAM/SRC/Peripheral/src/ch32v30x_flash.c:739
        if((FLASH->STATR & FLASH_FLAG_BANK1_PGERR) != 0)
     c52:	8b11                	andi	a4,a4,4
     c54:	e711                	bnez	a4,c60 <FLASH_GetBank1Status+0x1e>
D:/projects/mechanical_arm/ch32v307/EVT/EXAM/SRC/Peripheral/src/ch32v30x_flash.c:745
        }
        else
        {
            if((FLASH->STATR & FLASH_FLAG_BANK1_WRPRTERR) != 0)
     c56:	47c8                	lw	a0,12(a5)
     c58:	8941                	andi	a0,a0,16
D:/projects/mechanical_arm/ch32v307/EVT/EXAM/SRC/Peripheral/src/ch32v30x_flash.c:751
            {
                flashstatus = FLASH_ERROR_WRP;
            }
            else
            {
                flashstatus = FLASH_COMPLETE;
     c5a:	00153513          	seqz	a0,a0
     c5e:	050d                	addi	a0,a0,3
D:/projects/mechanical_arm/ch32v307/EVT/EXAM/SRC/Peripheral/src/ch32v30x_flash.c:756
            }
        }
    }
    return flashstatus;
}
     c60:	8082                	ret

00000c62 <FLASH_WaitForLastOperation>:
FLASH_WaitForLastOperation():
D:/projects/mechanical_arm/ch32v307/EVT/EXAM/SRC/Peripheral/src/ch32v30x_flash.c:769
 *
 * @return  FLASH Status - The returned value can be: FLASH_BUSY, FLASH_ERROR_PG,
 *        FLASH_ERROR_WRP or FLASH_COMPLETE.
 */
FLASH_Status FLASH_WaitForLastOperation(uint32_t Timeout)
{
     c62:	1141                	addi	sp,sp,-16
     c64:	c422                	sw	s0,8(sp)
     c66:	c226                	sw	s1,4(sp)
     c68:	c606                	sw	ra,12(sp)
     c6a:	842a                	mv	s0,a0
D:/projects/mechanical_arm/ch32v307/EVT/EXAM/SRC/Peripheral/src/ch32v30x_flash.c:773
    FLASH_Status status = FLASH_COMPLETE;

    status = FLASH_GetBank1Status();
    while((status == FLASH_BUSY) && (Timeout != 0x00))
     c6c:	4485                	li	s1,1
D:/projects/mechanical_arm/ch32v307/EVT/EXAM/SRC/Peripheral/src/ch32v30x_flash.c:772
    status = FLASH_GetBank1Status();
     c6e:	3fd1                	jal	c42 <FLASH_GetBank1Status>
D:/projects/mechanical_arm/ch32v307/EVT/EXAM/SRC/Peripheral/src/ch32v30x_flash.c:773
    while((status == FLASH_BUSY) && (Timeout != 0x00))
     c70:	00951863          	bne	a0,s1,c80 <FLASH_WaitForLastOperation+0x1e>
D:/projects/mechanical_arm/ch32v307/EVT/EXAM/SRC/Peripheral/src/ch32v30x_flash.c:773 (discriminator 1)
     c74:	e019                	bnez	s0,c7a <FLASH_WaitForLastOperation+0x18>
D:/projects/mechanical_arm/ch32v307/EVT/EXAM/SRC/Peripheral/src/ch32v30x_flash.c:780
        status = FLASH_GetBank1Status();
        Timeout--;
    }
    if(Timeout == 0x00)
    {
        status = FLASH_TIMEOUT;
     c76:	4515                	li	a0,5
D:/projects/mechanical_arm/ch32v307/EVT/EXAM/SRC/Peripheral/src/ch32v30x_flash.c:782
    }
    return status;
     c78:	a029                	j	c82 <FLASH_WaitForLastOperation+0x20>
D:/projects/mechanical_arm/ch32v307/EVT/EXAM/SRC/Peripheral/src/ch32v30x_flash.c:775
        status = FLASH_GetBank1Status();
     c7a:	37e1                	jal	c42 <FLASH_GetBank1Status>
D:/projects/mechanical_arm/ch32v307/EVT/EXAM/SRC/Peripheral/src/ch32v30x_flash.c:776
        Timeout--;
     c7c:	147d                	addi	s0,s0,-1
     c7e:	bfcd                	j	c70 <FLASH_WaitForLastOperation+0xe>
D:/projects/mechanical_arm/ch32v307/EVT/EXAM/SRC/Peripheral/src/ch32v30x_flash.c:778
    if(Timeout == 0x00)
     c80:	d87d                	beqz	s0,c76 <FLASH_WaitForLastOperation+0x14>
D:/projects/mechanical_arm/ch32v307/EVT/EXAM/SRC/Peripheral/src/ch32v30x_flash.c:783
}
     c82:	40b2                	lw	ra,12(sp)
     c84:	4422                	lw	s0,8(sp)
     c86:	4492                	lw	s1,4(sp)
     c88:	0141                	addi	sp,sp,16
     c8a:	8082                	ret

00000c8c <FLASH_ProgramOptionByteData>:
FLASH_ProgramOptionByteData():
D:/projects/mechanical_arm/ch32v307/EVT/EXAM/SRC/Peripheral/src/ch32v30x_flash.c:336
{
     c8c:	7139                	addi	sp,sp,-64
     c8e:	dc22                	sw	s0,56(sp)
     c90:	842a                	mv	s0,a0
D:/projects/mechanical_arm/ch32v307/EVT/EXAM/SRC/Peripheral/src/ch32v30x_flash.c:342
    status = FLASH_WaitForLastOperation(ProgramTimeout);
     c92:	6515                	lui	a0,0x5
D:/projects/mechanical_arm/ch32v307/EVT/EXAM/SRC/Peripheral/src/ch32v30x_flash.c:336
{
     c94:	c62e                	sw	a1,12(sp)
     c96:	de06                	sw	ra,60(sp)
D:/projects/mechanical_arm/ch32v307/EVT/EXAM/SRC/Peripheral/src/ch32v30x_flash.c:342
    status = FLASH_WaitForLastOperation(ProgramTimeout);
     c98:	37e9                	jal	c62 <FLASH_WaitForLastOperation>
D:/projects/mechanical_arm/ch32v307/EVT/EXAM/SRC/Peripheral/src/ch32v30x_flash.c:343
    if(status == FLASH_COMPLETE)
     c9a:	4791                	li	a5,4
     c9c:	45b2                	lw	a1,12(sp)
     c9e:	08f51c63          	bne	a0,a5,d36 <FLASH_ProgramOptionByteData+0xaa>
D:/projects/mechanical_arm/ch32v307/EVT/EXAM/SRC/Peripheral/src/ch32v30x_flash.c:345
        FLASH->OBKEYR = FLASH_KEY1;
     ca2:	456707b7          	lui	a5,0x45670
     ca6:	40022737          	lui	a4,0x40022
     caa:	12378793          	addi	a5,a5,291 # 45670123 <_eusrstack+0x25650123>
     cae:	c71c                	sw	a5,8(a4)
D:/projects/mechanical_arm/ch32v307/EVT/EXAM/SRC/Peripheral/src/ch32v30x_flash.c:346
        FLASH->OBKEYR = FLASH_KEY2;
     cb0:	cdef97b7          	lui	a5,0xcdef9
     cb4:	9ab78793          	addi	a5,a5,-1621 # cdef89ab <_eusrstack+0xaded89ab>
     cb8:	c71c                	sw	a5,8(a4)
D:/projects/mechanical_arm/ch32v307/EVT/EXAM/SRC/Peripheral/src/ch32v30x_flash.c:349
        for(i = 0; i < 8; i++)
     cba:	00010fa3          	sb	zero,31(sp)
     cbe:	471d                	li	a4,7
D:/projects/mechanical_arm/ch32v307/EVT/EXAM/SRC/Peripheral/src/ch32v30x_flash.c:351
            pbuf[i] = *(uint16_t *)(Addr + 2 * i);
     cc0:	20000637          	lui	a2,0x20000
D:/projects/mechanical_arm/ch32v307/EVT/EXAM/SRC/Peripheral/src/ch32v30x_flash.c:349 (discriminator 1)
        for(i = 0; i < 8; i++)
     cc4:	01f14783          	lbu	a5,31(sp)
     cc8:	06f77b63          	bgeu	a4,a5,d3e <FLASH_ProgramOptionByteData+0xb2>
D:/projects/mechanical_arm/ch32v307/EVT/EXAM/SRC/Peripheral/src/ch32v30x_flash.c:355
        FLASH->CTLR |= CR_OPTER_Set;
     ccc:	400227b7          	lui	a5,0x40022
     cd0:	4b98                	lw	a4,16(a5)
     cd2:	02076713          	ori	a4,a4,32
     cd6:	cb98                	sw	a4,16(a5)
D:/projects/mechanical_arm/ch32v307/EVT/EXAM/SRC/Peripheral/src/ch32v30x_flash.c:356
        FLASH->CTLR |= CR_STRT_Set;
     cd8:	4b98                	lw	a4,16(a5)
     cda:	04076713          	ori	a4,a4,64
     cde:	cb98                	sw	a4,16(a5)
D:/projects/mechanical_arm/ch32v307/EVT/EXAM/SRC/Peripheral/src/ch32v30x_flash.c:357 (discriminator 1)
        while(FLASH->STATR & SR_BSY)
     ce0:	47d8                	lw	a4,12(a5)
     ce2:	8b05                	andi	a4,a4,1
     ce4:	ff75                	bnez	a4,ce0 <FLASH_ProgramOptionByteData+0x54>
D:/projects/mechanical_arm/ch32v307/EVT/EXAM/SRC/Peripheral/src/ch32v30x_flash.c:359
        FLASH->CTLR &= ~CR_OPTER_Set;
     ce6:	4b98                	lw	a4,16(a5)
D:/projects/mechanical_arm/ch32v307/EVT/EXAM/SRC/Peripheral/src/ch32v30x_flash.c:366
        for(i = 0; i < 8; i++)
     ce8:	469d                	li	a3,7
D:/projects/mechanical_arm/ch32v307/EVT/EXAM/SRC/Peripheral/src/ch32v30x_flash.c:368
            *(uint16_t *)(Addr + 2 * i) = pbuf[i];
     cea:	20000637          	lui	a2,0x20000
D:/projects/mechanical_arm/ch32v307/EVT/EXAM/SRC/Peripheral/src/ch32v30x_flash.c:359
        FLASH->CTLR &= ~CR_OPTER_Set;
     cee:	fdf77713          	andi	a4,a4,-33
     cf2:	cb98                	sw	a4,16(a5)
D:/projects/mechanical_arm/ch32v307/EVT/EXAM/SRC/Peripheral/src/ch32v30x_flash.c:362
        pbuf[((Address - 0x1FFFF800) / 2)] = ((((uint16_t) ~(Data)) << 8) | ((uint16_t)Data));
     cf4:	e0001737          	lui	a4,0xe0001
     cf8:	80070713          	addi	a4,a4,-2048 # e0000800 <_eusrstack+0xbffe0800>
     cfc:	943a                	add	s0,s0,a4
     cfe:	9879                	andi	s0,s0,-2
     d00:	1818                	addi	a4,sp,48
     d02:	943a                	add	s0,s0,a4
     d04:	fff5c713          	not	a4,a1
     d08:	0742                	slli	a4,a4,0x10
     d0a:	8341                	srli	a4,a4,0x10
     d0c:	0722                	slli	a4,a4,0x8
     d0e:	8dd9                	or	a1,a1,a4
D:/projects/mechanical_arm/ch32v307/EVT/EXAM/SRC/Peripheral/src/ch32v30x_flash.c:364
        FLASH->CTLR |= CR_OPTPG_Set;
     d10:	4b98                	lw	a4,16(a5)
D:/projects/mechanical_arm/ch32v307/EVT/EXAM/SRC/Peripheral/src/ch32v30x_flash.c:362
        pbuf[((Address - 0x1FFFF800) / 2)] = ((((uint16_t) ~(Data)) << 8) | ((uint16_t)Data));
     d12:	feb41823          	sh	a1,-16(s0) # 40027ff0 <_eusrstack+0x20007ff0>
D:/projects/mechanical_arm/ch32v307/EVT/EXAM/SRC/Peripheral/src/ch32v30x_flash.c:369
            while(FLASH->STATR & SR_BSY)
     d16:	400225b7          	lui	a1,0x40022
D:/projects/mechanical_arm/ch32v307/EVT/EXAM/SRC/Peripheral/src/ch32v30x_flash.c:364
        FLASH->CTLR |= CR_OPTPG_Set;
     d1a:	01076713          	ori	a4,a4,16
     d1e:	cb98                	sw	a4,16(a5)
D:/projects/mechanical_arm/ch32v307/EVT/EXAM/SRC/Peripheral/src/ch32v30x_flash.c:366
        for(i = 0; i < 8; i++)
     d20:	00010fa3          	sb	zero,31(sp)
D:/projects/mechanical_arm/ch32v307/EVT/EXAM/SRC/Peripheral/src/ch32v30x_flash.c:366 (discriminator 1)
     d24:	01f14783          	lbu	a5,31(sp)
     d28:	04f6f163          	bgeu	a3,a5,d6a <FLASH_ProgramOptionByteData+0xde>
D:/projects/mechanical_arm/ch32v307/EVT/EXAM/SRC/Peripheral/src/ch32v30x_flash.c:373
        FLASH->CTLR &= ~CR_OPTPG_Set;
     d2c:	40022737          	lui	a4,0x40022
     d30:	4b1c                	lw	a5,16(a4)
     d32:	9bbd                	andi	a5,a5,-17
     d34:	cb1c                	sw	a5,16(a4)
D:/projects/mechanical_arm/ch32v307/EVT/EXAM/SRC/Peripheral/src/ch32v30x_flash.c:377
}
     d36:	50f2                	lw	ra,60(sp)
     d38:	5462                	lw	s0,56(sp)
     d3a:	6121                	addi	sp,sp,64
     d3c:	8082                	ret
D:/projects/mechanical_arm/ch32v307/EVT/EXAM/SRC/Peripheral/src/ch32v30x_flash.c:351 (discriminator 3)
            pbuf[i] = *(uint16_t *)(Addr + 2 * i);
     d3e:	01f14683          	lbu	a3,31(sp)
     d42:	01f14783          	lbu	a5,31(sp)
     d46:	03010813          	addi	a6,sp,48
     d4a:	0686                	slli	a3,a3,0x1
     d4c:	96b2                	add	a3,a3,a2
     d4e:	8006d683          	lhu	a3,-2048(a3) # 1800 <SocketUdpReceive+0xe6>
     d52:	0786                	slli	a5,a5,0x1
     d54:	97c2                	add	a5,a5,a6
     d56:	fed79823          	sh	a3,-16(a5) # 40021ff0 <_eusrstack+0x20001ff0>
D:/projects/mechanical_arm/ch32v307/EVT/EXAM/SRC/Peripheral/src/ch32v30x_flash.c:349 (discriminator 3)
        for(i = 0; i < 8; i++)
     d5a:	01f14783          	lbu	a5,31(sp)
     d5e:	0785                	addi	a5,a5,1
     d60:	0ff7f793          	andi	a5,a5,255
     d64:	00f10fa3          	sb	a5,31(sp)
     d68:	bfb1                	j	cc4 <FLASH_ProgramOptionByteData+0x38>
D:/projects/mechanical_arm/ch32v307/EVT/EXAM/SRC/Peripheral/src/ch32v30x_flash.c:368
            *(uint16_t *)(Addr + 2 * i) = pbuf[i];
     d6a:	01f14703          	lbu	a4,31(sp)
     d6e:	1800                	addi	s0,sp,48
     d70:	01f14783          	lbu	a5,31(sp)
     d74:	0706                	slli	a4,a4,0x1
     d76:	9722                	add	a4,a4,s0
     d78:	ff075703          	lhu	a4,-16(a4) # 40021ff0 <_eusrstack+0x20001ff0>
     d7c:	0786                	slli	a5,a5,0x1
     d7e:	97b2                	add	a5,a5,a2
     d80:	80e79023          	sh	a4,-2048(a5)
D:/projects/mechanical_arm/ch32v307/EVT/EXAM/SRC/Peripheral/src/ch32v30x_flash.c:369 (discriminator 1)
            while(FLASH->STATR & SR_BSY)
     d84:	45dc                	lw	a5,12(a1)
     d86:	8b85                	andi	a5,a5,1
     d88:	fff5                	bnez	a5,d84 <FLASH_ProgramOptionByteData+0xf8>
D:/projects/mechanical_arm/ch32v307/EVT/EXAM/SRC/Peripheral/src/ch32v30x_flash.c:366 (discriminator 2)
        for(i = 0; i < 8; i++)
     d8a:	01f14783          	lbu	a5,31(sp)
     d8e:	0785                	addi	a5,a5,1
     d90:	0ff7f793          	andi	a5,a5,255
     d94:	00f10fa3          	sb	a5,31(sp)
     d98:	b771                	j	d24 <FLASH_ProgramOptionByteData+0x98>

00000d9a <GPIO_Init>:
GPIO_Init():
D:/projects/mechanical_arm/ch32v307/EVT/EXAM/SRC/Peripheral/src/ch32v30x_gpio.c:89
void GPIO_Init(GPIO_TypeDef *GPIOx, GPIO_InitTypeDef *GPIO_InitStruct)
{
    uint32_t currentmode = 0x00, currentpin = 0x00, pinpos = 0x00, pos = 0x00;
    uint32_t tmpreg = 0x00, pinmask = 0x00;

    currentmode = ((uint32_t)GPIO_InitStruct->GPIO_Mode) & ((uint32_t)0x0F);
     d9a:	459c                	lw	a5,8(a1)
D:/projects/mechanical_arm/ch32v307/EVT/EXAM/SRC/Peripheral/src/ch32v30x_gpio.c:91

    if((((uint32_t)GPIO_InitStruct->GPIO_Mode) & ((uint32_t)0x10)) != 0x00)
     d9c:	0107f713          	andi	a4,a5,16
D:/projects/mechanical_arm/ch32v307/EVT/EXAM/SRC/Peripheral/src/ch32v30x_gpio.c:89
    currentmode = ((uint32_t)GPIO_InitStruct->GPIO_Mode) & ((uint32_t)0x0F);
     da0:	00f7f813          	andi	a6,a5,15
D:/projects/mechanical_arm/ch32v307/EVT/EXAM/SRC/Peripheral/src/ch32v30x_gpio.c:91
    if((((uint32_t)GPIO_InitStruct->GPIO_Mode) & ((uint32_t)0x10)) != 0x00)
     da4:	c701                	beqz	a4,dac <GPIO_Init+0x12>
D:/projects/mechanical_arm/ch32v307/EVT/EXAM/SRC/Peripheral/src/ch32v30x_gpio.c:93
    {
        currentmode |= (uint32_t)GPIO_InitStruct->GPIO_Speed;
     da6:	41d8                	lw	a4,4(a1)
     da8:	00e86833          	or	a6,a6,a4
D:/projects/mechanical_arm/ch32v307/EVT/EXAM/SRC/Peripheral/src/ch32v30x_gpio.c:96
    }

    if(((uint32_t)GPIO_InitStruct->GPIO_Pin & ((uint32_t)0x00FF)) != 0x00)
     dac:	0005d583          	lhu	a1,0(a1) # 40022000 <_eusrstack+0x20002000>
     db0:	0ff5f713          	andi	a4,a1,255
     db4:	c339                	beqz	a4,dfa <GPIO_Init+0x60>
D:/projects/mechanical_arm/ch32v307/EVT/EXAM/SRC/Peripheral/src/ch32v30x_gpio.c:98
    {
        tmpreg = GPIOx->CFGLR;
     db6:	4118                	lw	a4,0(a0)
D:/projects/mechanical_arm/ch32v307/EVT/EXAM/SRC/Peripheral/src/ch32v30x_gpio.c:100

        for(pinpos = 0x00; pinpos < 0x08; pinpos++)
     db8:	4681                	li	a3,0
D:/projects/mechanical_arm/ch32v307/EVT/EXAM/SRC/Peripheral/src/ch32v30x_gpio.c:102
        {
            pos = ((uint32_t)0x01) << pinpos;
     dba:	4e85                	li	t4,1
D:/projects/mechanical_arm/ch32v307/EVT/EXAM/SRC/Peripheral/src/ch32v30x_gpio.c:108
            currentpin = (GPIO_InitStruct->GPIO_Pin) & pos;

            if(currentpin == pos)
            {
                pos = pinpos << 2;
                pinmask = ((uint32_t)0x0F) << pos;
     dbc:	4f3d                	li	t5,15
D:/projects/mechanical_arm/ch32v307/EVT/EXAM/SRC/Peripheral/src/ch32v30x_gpio.c:112
                tmpreg &= ~pinmask;
                tmpreg |= (currentmode << pos);

                if(GPIO_InitStruct->GPIO_Mode == GPIO_Mode_IPD)
     dbe:	02800f93          	li	t6,40
D:/projects/mechanical_arm/ch32v307/EVT/EXAM/SRC/Peripheral/src/ch32v30x_gpio.c:118
                {
                    GPIOx->BCR = (((uint32_t)0x01) << pinpos);
                }
                else
                {
                    if(GPIO_InitStruct->GPIO_Mode == GPIO_Mode_IPU)
     dc2:	04800293          	li	t0,72
D:/projects/mechanical_arm/ch32v307/EVT/EXAM/SRC/Peripheral/src/ch32v30x_gpio.c:100
        for(pinpos = 0x00; pinpos < 0x08; pinpos++)
     dc6:	4e21                	li	t3,8
D:/projects/mechanical_arm/ch32v307/EVT/EXAM/SRC/Peripheral/src/ch32v30x_gpio.c:102
            pos = ((uint32_t)0x01) << pinpos;
     dc8:	00de9633          	sll	a2,t4,a3
D:/projects/mechanical_arm/ch32v307/EVT/EXAM/SRC/Peripheral/src/ch32v30x_gpio.c:103
            currentpin = (GPIO_InitStruct->GPIO_Pin) & pos;
     dcc:	00c5f8b3          	and	a7,a1,a2
D:/projects/mechanical_arm/ch32v307/EVT/EXAM/SRC/Peripheral/src/ch32v30x_gpio.c:105
            if(currentpin == pos)
     dd0:	03161163          	bne	a2,a7,df2 <GPIO_Init+0x58>
D:/projects/mechanical_arm/ch32v307/EVT/EXAM/SRC/Peripheral/src/ch32v30x_gpio.c:107
                pos = pinpos << 2;
     dd4:	00269893          	slli	a7,a3,0x2
D:/projects/mechanical_arm/ch32v307/EVT/EXAM/SRC/Peripheral/src/ch32v30x_gpio.c:108
                pinmask = ((uint32_t)0x0F) << pos;
     dd8:	011f1333          	sll	t1,t5,a7
D:/projects/mechanical_arm/ch32v307/EVT/EXAM/SRC/Peripheral/src/ch32v30x_gpio.c:109
                tmpreg &= ~pinmask;
     ddc:	fff34313          	not	t1,t1
     de0:	00e37733          	and	a4,t1,a4
D:/projects/mechanical_arm/ch32v307/EVT/EXAM/SRC/Peripheral/src/ch32v30x_gpio.c:110
                tmpreg |= (currentmode << pos);
     de4:	011818b3          	sll	a7,a6,a7
     de8:	00e8e733          	or	a4,a7,a4
D:/projects/mechanical_arm/ch32v307/EVT/EXAM/SRC/Peripheral/src/ch32v30x_gpio.c:112
                if(GPIO_InitStruct->GPIO_Mode == GPIO_Mode_IPD)
     dec:	05f79f63          	bne	a5,t6,e4a <GPIO_Init+0xb0>
D:/projects/mechanical_arm/ch32v307/EVT/EXAM/SRC/Peripheral/src/ch32v30x_gpio.c:114
                    GPIOx->BCR = (((uint32_t)0x01) << pinpos);
     df0:	c950                	sw	a2,20(a0)
D:/projects/mechanical_arm/ch32v307/EVT/EXAM/SRC/Peripheral/src/ch32v30x_gpio.c:100 (discriminator 2)
        for(pinpos = 0x00; pinpos < 0x08; pinpos++)
     df2:	0685                	addi	a3,a3,1
     df4:	fdc69ae3          	bne	a3,t3,dc8 <GPIO_Init+0x2e>
D:/projects/mechanical_arm/ch32v307/EVT/EXAM/SRC/Peripheral/src/ch32v30x_gpio.c:125
                        GPIOx->BSHR = (((uint32_t)0x01) << pinpos);
                    }
                }
            }
        }
        GPIOx->CFGLR = tmpreg;
     df8:	c118                	sw	a4,0(a0)
D:/projects/mechanical_arm/ch32v307/EVT/EXAM/SRC/Peripheral/src/ch32v30x_gpio.c:128
    }

    if(GPIO_InitStruct->GPIO_Pin > 0x00FF)
     dfa:	0ff00713          	li	a4,255
     dfe:	04b77563          	bgeu	a4,a1,e48 <GPIO_Init+0xae>
D:/projects/mechanical_arm/ch32v307/EVT/EXAM/SRC/Peripheral/src/ch32v30x_gpio.c:130
    {
        tmpreg = GPIOx->CFGHR;
     e02:	4154                	lw	a3,4(a0)
     e04:	4621                	li	a2,8
D:/projects/mechanical_arm/ch32v307/EVT/EXAM/SRC/Peripheral/src/ch32v30x_gpio.c:134

        for(pinpos = 0x00; pinpos < 0x08; pinpos++)
        {
            pos = (((uint32_t)0x01) << (pinpos + 0x08));
     e06:	4e85                	li	t4,1
D:/projects/mechanical_arm/ch32v307/EVT/EXAM/SRC/Peripheral/src/ch32v30x_gpio.c:140
            currentpin = ((GPIO_InitStruct->GPIO_Pin) & pos);

            if(currentpin == pos)
            {
                pos = pinpos << 2;
                pinmask = ((uint32_t)0x0F) << pos;
     e08:	4f3d                	li	t5,15
D:/projects/mechanical_arm/ch32v307/EVT/EXAM/SRC/Peripheral/src/ch32v30x_gpio.c:144
                tmpreg &= ~pinmask;
                tmpreg |= (currentmode << pos);

                if(GPIO_InitStruct->GPIO_Mode == GPIO_Mode_IPD)
     e0a:	02800f93          	li	t6,40
D:/projects/mechanical_arm/ch32v307/EVT/EXAM/SRC/Peripheral/src/ch32v30x_gpio.c:149
                {
                    GPIOx->BCR = (((uint32_t)0x01) << (pinpos + 0x08));
                }

                if(GPIO_InitStruct->GPIO_Mode == GPIO_Mode_IPU)
     e0e:	04800293          	li	t0,72
D:/projects/mechanical_arm/ch32v307/EVT/EXAM/SRC/Peripheral/src/ch32v30x_gpio.c:132
        for(pinpos = 0x00; pinpos < 0x08; pinpos++)
     e12:	4e41                	li	t3,16
D:/projects/mechanical_arm/ch32v307/EVT/EXAM/SRC/Peripheral/src/ch32v30x_gpio.c:134
            pos = (((uint32_t)0x01) << (pinpos + 0x08));
     e14:	00ce98b3          	sll	a7,t4,a2
D:/projects/mechanical_arm/ch32v307/EVT/EXAM/SRC/Peripheral/src/ch32v30x_gpio.c:135
            currentpin = ((GPIO_InitStruct->GPIO_Pin) & pos);
     e18:	0115f733          	and	a4,a1,a7
D:/projects/mechanical_arm/ch32v307/EVT/EXAM/SRC/Peripheral/src/ch32v30x_gpio.c:137
            if(currentpin == pos)
     e1c:	02e89263          	bne	a7,a4,e40 <GPIO_Init+0xa6>
D:/projects/mechanical_arm/ch32v307/EVT/EXAM/SRC/Peripheral/src/ch32v30x_gpio.c:139
                pos = pinpos << 2;
     e20:	00261713          	slli	a4,a2,0x2
     e24:	1701                	addi	a4,a4,-32
D:/projects/mechanical_arm/ch32v307/EVT/EXAM/SRC/Peripheral/src/ch32v30x_gpio.c:140
                pinmask = ((uint32_t)0x0F) << pos;
     e26:	00ef1333          	sll	t1,t5,a4
D:/projects/mechanical_arm/ch32v307/EVT/EXAM/SRC/Peripheral/src/ch32v30x_gpio.c:141
                tmpreg &= ~pinmask;
     e2a:	fff34313          	not	t1,t1
     e2e:	00d376b3          	and	a3,t1,a3
D:/projects/mechanical_arm/ch32v307/EVT/EXAM/SRC/Peripheral/src/ch32v30x_gpio.c:142
                tmpreg |= (currentmode << pos);
     e32:	00e81733          	sll	a4,a6,a4
     e36:	8ed9                	or	a3,a3,a4
D:/projects/mechanical_arm/ch32v307/EVT/EXAM/SRC/Peripheral/src/ch32v30x_gpio.c:144
                if(GPIO_InitStruct->GPIO_Mode == GPIO_Mode_IPD)
     e38:	01f79d63          	bne	a5,t6,e52 <GPIO_Init+0xb8>
D:/projects/mechanical_arm/ch32v307/EVT/EXAM/SRC/Peripheral/src/ch32v30x_gpio.c:146
                    GPIOx->BCR = (((uint32_t)0x01) << (pinpos + 0x08));
     e3c:	01152a23          	sw	a7,20(a0) # 5014 <tcp_receive+0x36>
D:/projects/mechanical_arm/ch32v307/EVT/EXAM/SRC/Peripheral/src/ch32v30x_gpio.c:149
                if(GPIO_InitStruct->GPIO_Mode == GPIO_Mode_IPU)
     e40:	0605                	addi	a2,a2,1
D:/projects/mechanical_arm/ch32v307/EVT/EXAM/SRC/Peripheral/src/ch32v30x_gpio.c:132 (discriminator 2)
        for(pinpos = 0x00; pinpos < 0x08; pinpos++)
     e42:	fdc619e3          	bne	a2,t3,e14 <GPIO_Init+0x7a>
D:/projects/mechanical_arm/ch32v307/EVT/EXAM/SRC/Peripheral/src/ch32v30x_gpio.c:155
                {
                    GPIOx->BSHR = (((uint32_t)0x01) << (pinpos + 0x08));
                }
            }
        }
        GPIOx->CFGHR = tmpreg;
     e46:	c154                	sw	a3,4(a0)
D:/projects/mechanical_arm/ch32v307/EVT/EXAM/SRC/Peripheral/src/ch32v30x_gpio.c:157
    }
}
     e48:	8082                	ret
D:/projects/mechanical_arm/ch32v307/EVT/EXAM/SRC/Peripheral/src/ch32v30x_gpio.c:118
                    if(GPIO_InitStruct->GPIO_Mode == GPIO_Mode_IPU)
     e4a:	fa5794e3          	bne	a5,t0,df2 <GPIO_Init+0x58>
D:/projects/mechanical_arm/ch32v307/EVT/EXAM/SRC/Peripheral/src/ch32v30x_gpio.c:120
                        GPIOx->BSHR = (((uint32_t)0x01) << pinpos);
     e4e:	c910                	sw	a2,16(a0)
     e50:	b74d                	j	df2 <GPIO_Init+0x58>
D:/projects/mechanical_arm/ch32v307/EVT/EXAM/SRC/Peripheral/src/ch32v30x_gpio.c:149
                if(GPIO_InitStruct->GPIO_Mode == GPIO_Mode_IPU)
     e52:	fe5797e3          	bne	a5,t0,e40 <GPIO_Init+0xa6>
D:/projects/mechanical_arm/ch32v307/EVT/EXAM/SRC/Peripheral/src/ch32v30x_gpio.c:151
                    GPIOx->BSHR = (((uint32_t)0x01) << (pinpos + 0x08));
     e56:	01152823          	sw	a7,16(a0)
     e5a:	b7dd                	j	e40 <GPIO_Init+0xa6>

00000e5c <GPIO_SetBits>:
GPIO_SetBits():
D:/projects/mechanical_arm/ch32v307/EVT/EXAM/SRC/Peripheral/src/ch32v30x_gpio.c:270
 *
 * @return  none
 */
void GPIO_SetBits(GPIO_TypeDef *GPIOx, uint16_t GPIO_Pin)
{
    GPIOx->BSHR = GPIO_Pin;
     e5c:	c90c                	sw	a1,16(a0)
D:/projects/mechanical_arm/ch32v307/EVT/EXAM/SRC/Peripheral/src/ch32v30x_gpio.c:271
}
     e5e:	8082                	ret

00000e60 <GPIO_ResetBits>:
GPIO_ResetBits():
D:/projects/mechanical_arm/ch32v307/EVT/EXAM/SRC/Peripheral/src/ch32v30x_gpio.c:286
 *
 * @return  none
 */
void GPIO_ResetBits(GPIO_TypeDef *GPIOx, uint16_t GPIO_Pin)
{
    GPIOx->BCR = GPIO_Pin;
     e60:	c94c                	sw	a1,20(a0)
D:/projects/mechanical_arm/ch32v307/EVT/EXAM/SRC/Peripheral/src/ch32v30x_gpio.c:287
}
     e62:	8082                	ret

00000e64 <RCC_GetClocksFreq>:
RCC_GetClocksFreq():
D:/projects/mechanical_arm/ch32v307/EVT/EXAM/SRC/Peripheral/src/ch32v30x_rcc.c:570
 */
void RCC_GetClocksFreq(RCC_ClocksTypeDef *RCC_Clocks)
{
    uint32_t tmp = 0, pllmull = 0, pllsource = 0, presc = 0, Pll_6_5 = 0;

    tmp = RCC->CFGR0 & CFGR0_SWS_Mask;
     e64:	40021737          	lui	a4,0x40021
     e68:	435c                	lw	a5,4(a4)
     e6a:	4691                	li	a3,4
     e6c:	8bb1                	andi	a5,a5,12
D:/projects/mechanical_arm/ch32v307/EVT/EXAM/SRC/Peripheral/src/ch32v30x_rcc.c:572

    switch(tmp)
     e6e:	00d78563          	beq	a5,a3,e78 <RCC_GetClocksFreq+0x14>
     e72:	46a1                	li	a3,8
     e74:	06d78663          	beq	a5,a3,ee0 <RCC_GetClocksFreq+0x7c>
D:/projects/mechanical_arm/ch32v307/EVT/EXAM/SRC/Peripheral/src/ch32v30x_rcc.c:575
    {
        case 0x00:
            RCC_Clocks->SYSCLK_Frequency = HSI_VALUE;
     e78:	007a17b7          	lui	a5,0x7a1
     e7c:	20078793          	addi	a5,a5,512 # 7a1200 <_data_lma+0x798c2c>
D:/projects/mechanical_arm/ch32v307/EVT/EXAM/SRC/Peripheral/src/ch32v30x_rcc.c:632
                    RCC_Clocks->SYSCLK_Frequency = HSE_VALUE * pllmull;
                }
            }

            if(Pll_6_5 == 1)
                RCC_Clocks->SYSCLK_Frequency = (RCC_Clocks->SYSCLK_Frequency / 2);
     e80:	c11c                	sw	a5,0(a0)
D:/projects/mechanical_arm/ch32v307/EVT/EXAM/SRC/Peripheral/src/ch32v30x_rcc.c:641
        default:
            RCC_Clocks->SYSCLK_Frequency = HSI_VALUE;
            break;
    }

    tmp = RCC->CFGR0 & CFGR0_HPRE_Set_Mask;
     e82:	40021637          	lui	a2,0x40021
     e86:	425c                	lw	a5,4(a2)
D:/projects/mechanical_arm/ch32v307/EVT/EXAM/SRC/Peripheral/src/ch32v30x_rcc.c:643
    tmp = tmp >> 4;
    presc = APBAHBPrescTable[tmp];
     e88:	20000737          	lui	a4,0x20000
     e8c:	00070713          	mv	a4,a4
D:/projects/mechanical_arm/ch32v307/EVT/EXAM/SRC/Peripheral/src/ch32v30x_rcc.c:642
    tmp = tmp >> 4;
     e90:	8391                	srli	a5,a5,0x4
     e92:	8bbd                	andi	a5,a5,15
D:/projects/mechanical_arm/ch32v307/EVT/EXAM/SRC/Peripheral/src/ch32v30x_rcc.c:643
    presc = APBAHBPrescTable[tmp];
     e94:	97ba                	add	a5,a5,a4
     e96:	0007c683          	lbu	a3,0(a5)
D:/projects/mechanical_arm/ch32v307/EVT/EXAM/SRC/Peripheral/src/ch32v30x_rcc.c:644
    RCC_Clocks->HCLK_Frequency = RCC_Clocks->SYSCLK_Frequency >> presc;
     e9a:	411c                	lw	a5,0(a0)
     e9c:	00d7d7b3          	srl	a5,a5,a3
     ea0:	c15c                	sw	a5,4(a0)
D:/projects/mechanical_arm/ch32v307/EVT/EXAM/SRC/Peripheral/src/ch32v30x_rcc.c:645
    tmp = RCC->CFGR0 & CFGR0_PPRE1_Set_Mask;
     ea2:	4254                	lw	a3,4(a2)
D:/projects/mechanical_arm/ch32v307/EVT/EXAM/SRC/Peripheral/src/ch32v30x_rcc.c:646
    tmp = tmp >> 8;
     ea4:	82a1                	srli	a3,a3,0x8
     ea6:	8a9d                	andi	a3,a3,7
D:/projects/mechanical_arm/ch32v307/EVT/EXAM/SRC/Peripheral/src/ch32v30x_rcc.c:647
    presc = APBAHBPrescTable[tmp];
     ea8:	96ba                	add	a3,a3,a4
     eaa:	0006c683          	lbu	a3,0(a3)
D:/projects/mechanical_arm/ch32v307/EVT/EXAM/SRC/Peripheral/src/ch32v30x_rcc.c:648
    RCC_Clocks->PCLK1_Frequency = RCC_Clocks->HCLK_Frequency >> presc;
     eae:	00d7d6b3          	srl	a3,a5,a3
     eb2:	c514                	sw	a3,8(a0)
D:/projects/mechanical_arm/ch32v307/EVT/EXAM/SRC/Peripheral/src/ch32v30x_rcc.c:649
    tmp = RCC->CFGR0 & CFGR0_PPRE2_Set_Mask;
     eb4:	4254                	lw	a3,4(a2)
D:/projects/mechanical_arm/ch32v307/EVT/EXAM/SRC/Peripheral/src/ch32v30x_rcc.c:650
    tmp = tmp >> 11;
     eb6:	82ad                	srli	a3,a3,0xb
     eb8:	8a9d                	andi	a3,a3,7
D:/projects/mechanical_arm/ch32v307/EVT/EXAM/SRC/Peripheral/src/ch32v30x_rcc.c:651
    presc = APBAHBPrescTable[tmp];
     eba:	9736                	add	a4,a4,a3
     ebc:	00074703          	lbu	a4,0(a4) # 20000000 <_data_vma>
D:/projects/mechanical_arm/ch32v307/EVT/EXAM/SRC/Peripheral/src/ch32v30x_rcc.c:652
    RCC_Clocks->PCLK2_Frequency = RCC_Clocks->HCLK_Frequency >> presc;
     ec0:	00e7d7b3          	srl	a5,a5,a4
     ec4:	c55c                	sw	a5,12(a0)
D:/projects/mechanical_arm/ch32v307/EVT/EXAM/SRC/Peripheral/src/ch32v30x_rcc.c:653
    tmp = RCC->CFGR0 & CFGR0_ADCPRE_Set_Mask;
     ec6:	4258                	lw	a4,4(a2)
D:/projects/mechanical_arm/ch32v307/EVT/EXAM/SRC/Peripheral/src/ch32v30x_rcc.c:654
    tmp = tmp >> 14;
     ec8:	8339                	srli	a4,a4,0xe
     eca:	00377693          	andi	a3,a4,3
D:/projects/mechanical_arm/ch32v307/EVT/EXAM/SRC/Peripheral/src/ch32v30x_rcc.c:655
    presc = ADCPrescTable[tmp];
     ece:	81818713          	addi	a4,gp,-2024 # 20000028 <ADCPrescTable>
     ed2:	9736                	add	a4,a4,a3
     ed4:	00074703          	lbu	a4,0(a4)
D:/projects/mechanical_arm/ch32v307/EVT/EXAM/SRC/Peripheral/src/ch32v30x_rcc.c:656
    RCC_Clocks->ADCCLK_Frequency = RCC_Clocks->PCLK2_Frequency / presc;
     ed8:	02e7d7b3          	divu	a5,a5,a4
     edc:	c91c                	sw	a5,16(a0)
D:/projects/mechanical_arm/ch32v307/EVT/EXAM/SRC/Peripheral/src/ch32v30x_rcc.c:657
}
     ede:	8082                	ret
D:/projects/mechanical_arm/ch32v307/EVT/EXAM/SRC/Peripheral/src/ch32v30x_rcc.c:583
            pllmull = RCC->CFGR0 & CFGR0_PLLMull_Mask;
     ee0:	435c                	lw	a5,4(a4)
D:/projects/mechanical_arm/ch32v307/EVT/EXAM/SRC/Peripheral/src/ch32v30x_rcc.c:584
            pllsource = RCC->CFGR0 & CFGR0_PLLSRC_Mask;
     ee2:	4354                	lw	a3,4(a4)
     ee4:	6741                	lui	a4,0x10
D:/projects/mechanical_arm/ch32v307/EVT/EXAM/SRC/Peripheral/src/ch32v30x_rcc.c:586
            pllmull = (pllmull >> 18) + 2;
     ee6:	83c9                	srli	a5,a5,0x12
D:/projects/mechanical_arm/ch32v307/EVT/EXAM/SRC/Peripheral/src/ch32v30x_rcc.c:584
            pllsource = RCC->CFGR0 & CFGR0_PLLSRC_Mask;
     ee8:	8ef9                	and	a3,a3,a4
D:/projects/mechanical_arm/ch32v307/EVT/EXAM/SRC/Peripheral/src/ch32v30x_rcc.c:588
            if(((*(uint32_t *)0x1FFFF70C) & (1 << 14)) != (1 << 14))
     eea:	1ffff737          	lui	a4,0x1ffff
     eee:	70c72703          	lw	a4,1804(a4) # 1ffff70c <_data_lma+0x1fff7138>
D:/projects/mechanical_arm/ch32v307/EVT/EXAM/SRC/Peripheral/src/ch32v30x_rcc.c:586
            pllmull = (pllmull >> 18) + 2;
     ef2:	8bbd                	andi	a5,a5,15
     ef4:	0789                	addi	a5,a5,2
D:/projects/mechanical_arm/ch32v307/EVT/EXAM/SRC/Peripheral/src/ch32v30x_rcc.c:588
            if(((*(uint32_t *)0x1FFFF70C) & (1 << 14)) != (1 << 14))
     ef6:	01171613          	slli	a2,a4,0x11
     efa:	00064863          	bltz	a2,f0a <RCC_GetClocksFreq+0xa6>
D:/projects/mechanical_arm/ch32v307/EVT/EXAM/SRC/Peripheral/src/ch32v30x_rcc.c:590
                if(pllmull == 17)
     efe:	4645                	li	a2,17
D:/projects/mechanical_arm/ch32v307/EVT/EXAM/SRC/Peripheral/src/ch32v30x_rcc.c:568
    uint32_t tmp = 0, pllmull = 0, pllsource = 0, presc = 0, Pll_6_5 = 0;
     f00:	4701                	li	a4,0
D:/projects/mechanical_arm/ch32v307/EVT/EXAM/SRC/Peripheral/src/ch32v30x_rcc.c:590
                if(pllmull == 17)
     f02:	02c79263          	bne	a5,a2,f26 <RCC_GetClocksFreq+0xc2>
D:/projects/mechanical_arm/ch32v307/EVT/EXAM/SRC/Peripheral/src/ch32v30x_rcc.c:591
                    pllmull = 18;
     f06:	47c9                	li	a5,18
     f08:	a839                	j	f26 <RCC_GetClocksFreq+0xc2>
D:/projects/mechanical_arm/ch32v307/EVT/EXAM/SRC/Peripheral/src/ch32v30x_rcc.c:595
                if(pllmull == 2)
     f0a:	4709                	li	a4,2
     f0c:	02e78963          	beq	a5,a4,f3e <RCC_GetClocksFreq+0xda>
D:/projects/mechanical_arm/ch32v307/EVT/EXAM/SRC/Peripheral/src/ch32v30x_rcc.c:597
                if(pllmull == 15)
     f10:	473d                	li	a4,15
     f12:	02e78863          	beq	a5,a4,f42 <RCC_GetClocksFreq+0xde>
D:/projects/mechanical_arm/ch32v307/EVT/EXAM/SRC/Peripheral/src/ch32v30x_rcc.c:602
                if(pllmull == 16)
     f16:	4741                	li	a4,16
     f18:	02e78863          	beq	a5,a4,f48 <RCC_GetClocksFreq+0xe4>
D:/projects/mechanical_arm/ch32v307/EVT/EXAM/SRC/Peripheral/src/ch32v30x_rcc.c:604
                if(pllmull == 17)
     f1c:	4645                	li	a2,17
     f1e:	4701                	li	a4,0
     f20:	00c79363          	bne	a5,a2,f26 <RCC_GetClocksFreq+0xc2>
D:/projects/mechanical_arm/ch32v307/EVT/EXAM/SRC/Peripheral/src/ch32v30x_rcc.c:605
                    pllmull = 16;
     f24:	47c1                	li	a5,16
D:/projects/mechanical_arm/ch32v307/EVT/EXAM/SRC/Peripheral/src/ch32v30x_rcc.c:608
            if(pllsource == 0x00)
     f26:	e685                	bnez	a3,f4e <RCC_GetClocksFreq+0xea>
D:/projects/mechanical_arm/ch32v307/EVT/EXAM/SRC/Peripheral/src/ch32v30x_rcc.c:610
                if(EXTEN->EXTEN_CTR & EXTEN_PLL_HSI_PRE)
     f28:	400246b7          	lui	a3,0x40024
     f2c:	8006a683          	lw	a3,-2048(a3) # 40023800 <_eusrstack+0x20003800>
     f30:	8ac1                	andi	a3,a3,16
     f32:	c68d                	beqz	a3,f5c <RCC_GetClocksFreq+0xf8>
D:/projects/mechanical_arm/ch32v307/EVT/EXAM/SRC/Peripheral/src/ch32v30x_rcc.c:627
                    RCC_Clocks->SYSCLK_Frequency = HSE_VALUE * pllmull;
     f34:	007a16b7          	lui	a3,0x7a1
     f38:	20068693          	addi	a3,a3,512 # 7a1200 <_data_lma+0x798c2c>
     f3c:	a025                	j	f64 <RCC_GetClocksFreq+0x100>
D:/projects/mechanical_arm/ch32v307/EVT/EXAM/SRC/Peripheral/src/ch32v30x_rcc.c:568
    uint32_t tmp = 0, pllmull = 0, pllsource = 0, presc = 0, Pll_6_5 = 0;
     f3e:	4701                	li	a4,0
     f40:	b7d9                	j	f06 <RCC_GetClocksFreq+0xa2>
D:/projects/mechanical_arm/ch32v307/EVT/EXAM/SRC/Peripheral/src/ch32v30x_rcc.c:600
                    Pll_6_5 = 1;
     f42:	4705                	li	a4,1
D:/projects/mechanical_arm/ch32v307/EVT/EXAM/SRC/Peripheral/src/ch32v30x_rcc.c:599
                    pllmull = 13; /* *6.5 */
     f44:	47b5                	li	a5,13
     f46:	b7c5                	j	f26 <RCC_GetClocksFreq+0xc2>
     f48:	4701                	li	a4,0
D:/projects/mechanical_arm/ch32v307/EVT/EXAM/SRC/Peripheral/src/ch32v30x_rcc.c:603
                    pllmull = 15;
     f4a:	47bd                	li	a5,15
     f4c:	bfe9                	j	f26 <RCC_GetClocksFreq+0xc2>
D:/projects/mechanical_arm/ch32v307/EVT/EXAM/SRC/Peripheral/src/ch32v30x_rcc.c:621
                if((RCC->CFGR0 & CFGR0_PLLXTPRE_Mask) != (uint32_t)RESET)
     f4e:	400216b7          	lui	a3,0x40021
     f52:	42d4                	lw	a3,4(a3)
     f54:	00e69613          	slli	a2,a3,0xe
     f58:	fc065ee3          	bgez	a2,f34 <RCC_GetClocksFreq+0xd0>
D:/projects/mechanical_arm/ch32v307/EVT/EXAM/SRC/Peripheral/src/ch32v30x_rcc.c:623
                    RCC_Clocks->SYSCLK_Frequency = (HSE_VALUE >> 1) * pllmull;
     f5c:	003d16b7          	lui	a3,0x3d1
     f60:	90068693          	addi	a3,a3,-1792 # 3d0900 <_data_lma+0x3c832c>
D:/projects/mechanical_arm/ch32v307/EVT/EXAM/SRC/Peripheral/src/ch32v30x_rcc.c:627
                    RCC_Clocks->SYSCLK_Frequency = HSE_VALUE * pllmull;
     f64:	02d787b3          	mul	a5,a5,a3
     f68:	c11c                	sw	a5,0(a0)
D:/projects/mechanical_arm/ch32v307/EVT/EXAM/SRC/Peripheral/src/ch32v30x_rcc.c:631
            if(Pll_6_5 == 1)
     f6a:	df01                	beqz	a4,e82 <RCC_GetClocksFreq+0x1e>
D:/projects/mechanical_arm/ch32v307/EVT/EXAM/SRC/Peripheral/src/ch32v30x_rcc.c:632
                RCC_Clocks->SYSCLK_Frequency = (RCC_Clocks->SYSCLK_Frequency / 2);
     f6c:	411c                	lw	a5,0(a0)
     f6e:	8385                	srli	a5,a5,0x1
     f70:	bf01                	j	e80 <RCC_GetClocksFreq+0x1c>

00000f72 <RCC_AHBPeriphClockCmd>:
RCC_AHBPeriphClockCmd():
D:/projects/mechanical_arm/ch32v307/EVT/EXAM/SRC/Peripheral/src/ch32v30x_rcc.c:684
 *
 * @return  none
 */
void RCC_AHBPeriphClockCmd(uint32_t RCC_AHBPeriph, FunctionalState NewState)
{
    if(NewState != DISABLE)
     f72:	c599                	beqz	a1,f80 <RCC_AHBPeriphClockCmd+0xe>
D:/projects/mechanical_arm/ch32v307/EVT/EXAM/SRC/Peripheral/src/ch32v30x_rcc.c:686
    {
        RCC->AHBPCENR |= RCC_AHBPeriph;
     f74:	40021737          	lui	a4,0x40021
     f78:	4b5c                	lw	a5,20(a4)
     f7a:	8d5d                	or	a0,a0,a5
     f7c:	cb48                	sw	a0,20(a4)
     f7e:	8082                	ret
D:/projects/mechanical_arm/ch32v307/EVT/EXAM/SRC/Peripheral/src/ch32v30x_rcc.c:690
    }
    else
    {
        RCC->AHBPCENR &= ~RCC_AHBPeriph;
     f80:	400217b7          	lui	a5,0x40021
     f84:	4bd8                	lw	a4,20(a5)
     f86:	fff54513          	not	a0,a0
     f8a:	8d79                	and	a0,a0,a4
     f8c:	cbc8                	sw	a0,20(a5)
D:/projects/mechanical_arm/ch32v307/EVT/EXAM/SRC/Peripheral/src/ch32v30x_rcc.c:692
    }
}
     f8e:	8082                	ret

00000f90 <RCC_APB2PeriphClockCmd>:
RCC_APB2PeriphClockCmd():
D:/projects/mechanical_arm/ch32v307/EVT/EXAM/SRC/Peripheral/src/ch32v30x_rcc.c:720
 *
 * @return  none
 */
void RCC_APB2PeriphClockCmd(uint32_t RCC_APB2Periph, FunctionalState NewState)
{
    if(NewState != DISABLE)
     f90:	c599                	beqz	a1,f9e <RCC_APB2PeriphClockCmd+0xe>
D:/projects/mechanical_arm/ch32v307/EVT/EXAM/SRC/Peripheral/src/ch32v30x_rcc.c:722
    {
        RCC->APB2PCENR |= RCC_APB2Periph;
     f92:	40021737          	lui	a4,0x40021
     f96:	4f1c                	lw	a5,24(a4)
     f98:	8d5d                	or	a0,a0,a5
     f9a:	cf08                	sw	a0,24(a4)
     f9c:	8082                	ret
D:/projects/mechanical_arm/ch32v307/EVT/EXAM/SRC/Peripheral/src/ch32v30x_rcc.c:726
    }
    else
    {
        RCC->APB2PCENR &= ~RCC_APB2Periph;
     f9e:	400217b7          	lui	a5,0x40021
     fa2:	4f98                	lw	a4,24(a5)
     fa4:	fff54513          	not	a0,a0
     fa8:	8d79                	and	a0,a0,a4
     faa:	cf88                	sw	a0,24(a5)
D:/projects/mechanical_arm/ch32v307/EVT/EXAM/SRC/Peripheral/src/ch32v30x_rcc.c:728
    }
}
     fac:	8082                	ret

00000fae <RCC_APB1PeriphClockCmd>:
RCC_APB1PeriphClockCmd():
D:/projects/mechanical_arm/ch32v307/EVT/EXAM/SRC/Peripheral/src/ch32v30x_rcc.c:765
 *
 * @return  none
 */
void RCC_APB1PeriphClockCmd(uint32_t RCC_APB1Periph, FunctionalState NewState)
{
    if(NewState != DISABLE)
     fae:	c599                	beqz	a1,fbc <RCC_APB1PeriphClockCmd+0xe>
D:/projects/mechanical_arm/ch32v307/EVT/EXAM/SRC/Peripheral/src/ch32v30x_rcc.c:767
    {
        RCC->APB1PCENR |= RCC_APB1Periph;
     fb0:	40021737          	lui	a4,0x40021
     fb4:	4f5c                	lw	a5,28(a4)
     fb6:	8d5d                	or	a0,a0,a5
     fb8:	cf48                	sw	a0,28(a4)
     fba:	8082                	ret
D:/projects/mechanical_arm/ch32v307/EVT/EXAM/SRC/Peripheral/src/ch32v30x_rcc.c:771
    }
    else
    {
        RCC->APB1PCENR &= ~RCC_APB1Periph;
     fbc:	400217b7          	lui	a5,0x40021
     fc0:	4fd8                	lw	a4,28(a5)
     fc2:	fff54513          	not	a0,a0
     fc6:	8d79                	and	a0,a0,a4
     fc8:	cfc8                	sw	a0,28(a5)
D:/projects/mechanical_arm/ch32v307/EVT/EXAM/SRC/Peripheral/src/ch32v30x_rcc.c:773
    }
}
     fca:	8082                	ret

00000fcc <RCC_MCOConfig>:
RCC_MCOConfig():
D:/projects/mechanical_arm/ch32v307/EVT/EXAM/SRC/Peripheral/src/ch32v30x_rcc.c:918
 *
 * @return  none
 */
void RCC_MCOConfig(uint8_t RCC_MCO)
{
    *(__IO uint8_t *)CFGR0_BYTE4_ADDRESS = RCC_MCO;
     fcc:	400217b7          	lui	a5,0x40021
     fd0:	00a783a3          	sb	a0,7(a5) # 40021007 <_eusrstack+0x20001007>
D:/projects/mechanical_arm/ch32v307/EVT/EXAM/SRC/Peripheral/src/ch32v30x_rcc.c:919
}
     fd4:	8082                	ret

00000fd6 <RCC_GetFlagStatus>:
RCC_GetFlagStatus():
D:/projects/mechanical_arm/ch32v307/EVT/EXAM/SRC/Peripheral/src/ch32v30x_rcc.c:949
{
    uint32_t tmp = 0;
    uint32_t statusreg = 0;

    FlagStatus bitstatus = RESET;
    tmp = RCC_FLAG >> 5;
     fd6:	00555793          	srli	a5,a0,0x5
D:/projects/mechanical_arm/ch32v307/EVT/EXAM/SRC/Peripheral/src/ch32v30x_rcc.c:951

    if(tmp == 1)
     fda:	4705                	li	a4,1
     fdc:	00e79963          	bne	a5,a4,fee <RCC_GetFlagStatus+0x18>
D:/projects/mechanical_arm/ch32v307/EVT/EXAM/SRC/Peripheral/src/ch32v30x_rcc.c:953
    {
        statusreg = RCC->CTLR;
     fe0:	400217b7          	lui	a5,0x40021
     fe4:	439c                	lw	a5,0(a5)
D:/projects/mechanical_arm/ch32v307/EVT/EXAM/SRC/Peripheral/src/ch32v30x_rcc.c:966
        statusreg = RCC->RSTSCKR;
    }

    tmp = RCC_FLAG & FLAG_Mask;

    if((statusreg & ((uint32_t)1 << tmp)) != (uint32_t)RESET)
     fe6:	00a7d533          	srl	a0,a5,a0
D:/projects/mechanical_arm/ch32v307/EVT/EXAM/SRC/Peripheral/src/ch32v30x_rcc.c:976
    {
        bitstatus = RESET;
    }

    return bitstatus;
}
     fea:	8905                	andi	a0,a0,1
     fec:	8082                	ret
D:/projects/mechanical_arm/ch32v307/EVT/EXAM/SRC/Peripheral/src/ch32v30x_rcc.c:955
    else if(tmp == 2)
     fee:	4709                	li	a4,2
     ff0:	00e79663          	bne	a5,a4,ffc <RCC_GetFlagStatus+0x26>
D:/projects/mechanical_arm/ch32v307/EVT/EXAM/SRC/Peripheral/src/ch32v30x_rcc.c:957
        statusreg = RCC->BDCTLR;
     ff4:	400217b7          	lui	a5,0x40021
     ff8:	539c                	lw	a5,32(a5)
     ffa:	b7f5                	j	fe6 <RCC_GetFlagStatus+0x10>
D:/projects/mechanical_arm/ch32v307/EVT/EXAM/SRC/Peripheral/src/ch32v30x_rcc.c:961
        statusreg = RCC->RSTSCKR;
     ffc:	400217b7          	lui	a5,0x40021
    1000:	53dc                	lw	a5,36(a5)
    1002:	b7d5                	j	fe6 <RCC_GetFlagStatus+0x10>

00001004 <RCC_PREDIV2Config>:
RCC_PREDIV2Config():
D:/projects/mechanical_arm/ch32v307/EVT/EXAM/SRC/Peripheral/src/ch32v30x_rcc.c:1083
 */
void RCC_PREDIV2Config(uint32_t RCC_PREDIV2_Div)
{
    uint32_t tmpreg = 0;

    tmpreg = RCC->CFGR2;
    1004:	40021737          	lui	a4,0x40021
    1008:	575c                	lw	a5,44(a4)
D:/projects/mechanical_arm/ch32v307/EVT/EXAM/SRC/Peripheral/src/ch32v30x_rcc.c:1084
    tmpreg &= ~CFGR2_PREDIV2;
    100a:	f0f7f793          	andi	a5,a5,-241
D:/projects/mechanical_arm/ch32v307/EVT/EXAM/SRC/Peripheral/src/ch32v30x_rcc.c:1085
    tmpreg |= RCC_PREDIV2_Div;
    100e:	8d5d                	or	a0,a0,a5
D:/projects/mechanical_arm/ch32v307/EVT/EXAM/SRC/Peripheral/src/ch32v30x_rcc.c:1086
    RCC->CFGR2 = tmpreg;
    1010:	d748                	sw	a0,44(a4)
D:/projects/mechanical_arm/ch32v307/EVT/EXAM/SRC/Peripheral/src/ch32v30x_rcc.c:1087
}
    1012:	8082                	ret

00001014 <RCC_PLL3Config>:
RCC_PLL3Config():
D:/projects/mechanical_arm/ch32v307/EVT/EXAM/SRC/Peripheral/src/ch32v30x_rcc.c:1145
 */
void RCC_PLL3Config(uint32_t RCC_PLL3Mul)
{
    uint32_t tmpreg = 0;

    tmpreg = RCC->CFGR2;
    1014:	400216b7          	lui	a3,0x40021
    1018:	56dc                	lw	a5,44(a3)
D:/projects/mechanical_arm/ch32v307/EVT/EXAM/SRC/Peripheral/src/ch32v30x_rcc.c:1146
    tmpreg &= ~CFGR2_PLL3MUL;
    101a:	7745                	lui	a4,0xffff1
    101c:	177d                	addi	a4,a4,-1
    101e:	8ff9                	and	a5,a5,a4
D:/projects/mechanical_arm/ch32v307/EVT/EXAM/SRC/Peripheral/src/ch32v30x_rcc.c:1147
    tmpreg |= RCC_PLL3Mul;
    1020:	8d5d                	or	a0,a0,a5
D:/projects/mechanical_arm/ch32v307/EVT/EXAM/SRC/Peripheral/src/ch32v30x_rcc.c:1148
    RCC->CFGR2 = tmpreg;
    1022:	d6c8                	sw	a0,44(a3)
D:/projects/mechanical_arm/ch32v307/EVT/EXAM/SRC/Peripheral/src/ch32v30x_rcc.c:1149
}
    1024:	8082                	ret

00001026 <RCC_PLL3Cmd>:
RCC_PLL3Cmd():
D:/projects/mechanical_arm/ch32v307/EVT/EXAM/SRC/Peripheral/src/ch32v30x_rcc.c:1163
 *
 * @return  none
 */
void RCC_PLL3Cmd(FunctionalState NewState)
{
    if(NewState)
    1026:	c909                	beqz	a0,1038 <RCC_PLL3Cmd+0x12>
D:/projects/mechanical_arm/ch32v307/EVT/EXAM/SRC/Peripheral/src/ch32v30x_rcc.c:1165
    {
        RCC->CTLR |= (1 << 28);
    1028:	40021737          	lui	a4,0x40021
    102c:	431c                	lw	a5,0(a4)
    102e:	100006b7          	lui	a3,0x10000
    1032:	8fd5                	or	a5,a5,a3
    1034:	c31c                	sw	a5,0(a4)
    1036:	8082                	ret
D:/projects/mechanical_arm/ch32v307/EVT/EXAM/SRC/Peripheral/src/ch32v30x_rcc.c:1169
    }
    else
    {
        RCC->CTLR &= ~(1 << 28);
    1038:	400216b7          	lui	a3,0x40021
    103c:	429c                	lw	a5,0(a3)
    103e:	f0000737          	lui	a4,0xf0000
    1042:	177d                	addi	a4,a4,-1
    1044:	8ff9                	and	a5,a5,a4
    1046:	c29c                	sw	a5,0(a3)
D:/projects/mechanical_arm/ch32v307/EVT/EXAM/SRC/Peripheral/src/ch32v30x_rcc.c:1171
    }
}
    1048:	8082                	ret

0000104a <RCC_AHBPeriphResetCmd>:
RCC_AHBPeriphResetCmd():
D:/projects/mechanical_arm/ch32v307/EVT/EXAM/SRC/Peripheral/src/ch32v30x_rcc.c:1242
 *
 * @return  none
 */
void RCC_AHBPeriphResetCmd(uint32_t RCC_AHBPeriph, FunctionalState NewState)
{
    if(NewState != DISABLE)
    104a:	c599                	beqz	a1,1058 <RCC_AHBPeriphResetCmd+0xe>
D:/projects/mechanical_arm/ch32v307/EVT/EXAM/SRC/Peripheral/src/ch32v30x_rcc.c:1244
    {
        RCC->AHBRSTR |= RCC_AHBPeriph;
    104c:	40021737          	lui	a4,0x40021
    1050:	571c                	lw	a5,40(a4)
    1052:	8d5d                	or	a0,a0,a5
    1054:	d708                	sw	a0,40(a4)
    1056:	8082                	ret
D:/projects/mechanical_arm/ch32v307/EVT/EXAM/SRC/Peripheral/src/ch32v30x_rcc.c:1248
    }
    else
    {
        RCC->AHBRSTR &= ~RCC_AHBPeriph;
    1058:	400217b7          	lui	a5,0x40021
    105c:	5798                	lw	a4,40(a5)
    105e:	fff54513          	not	a0,a0
    1062:	8d79                	and	a0,a0,a4
    1064:	d788                	sw	a0,40(a5)
D:/projects/mechanical_arm/ch32v307/EVT/EXAM/SRC/Peripheral/src/ch32v30x_rcc.c:1250
    }
}
    1066:	8082                	ret

00001068 <TIM_TimeBaseInit>:
TIM_TimeBaseInit():
D:/projects/mechanical_arm/ch32v307/EVT/EXAM/SRC/Peripheral/src/ch32v30x_tim.c:108
 */
void TIM_TimeBaseInit(TIM_TypeDef *TIMx, TIM_TimeBaseInitTypeDef *TIM_TimeBaseInitStruct)
{
    uint16_t tmpcr1 = 0;

    tmpcr1 = TIMx->CTLR1;
    1068:	00055783          	lhu	a5,0(a0)
D:/projects/mechanical_arm/ch32v307/EVT/EXAM/SRC/Peripheral/src/ch32v30x_tim.c:110

    if((TIMx == TIM1) || (TIMx == TIM2) || (TIMx == TIM3) || (TIMx == TIM4) ||
    106c:	40013737          	lui	a4,0x40013
    1070:	c0070693          	addi	a3,a4,-1024 # 40012c00 <_eusrstack+0x1fff2c00>
D:/projects/mechanical_arm/ch32v307/EVT/EXAM/SRC/Peripheral/src/ch32v30x_tim.c:108
    tmpcr1 = TIMx->CTLR1;
    1074:	07c2                	slli	a5,a5,0x10
    1076:	83c1                	srli	a5,a5,0x10
D:/projects/mechanical_arm/ch32v307/EVT/EXAM/SRC/Peripheral/src/ch32v30x_tim.c:110
    if((TIMx == TIM1) || (TIMx == TIM2) || (TIMx == TIM3) || (TIMx == TIM4) ||
    1078:	04d50063          	beq	a0,a3,10b8 <TIM_TimeBaseInit+0x50>
D:/projects/mechanical_arm/ch32v307/EVT/EXAM/SRC/Peripheral/src/ch32v30x_tim.c:110 (discriminator 1)
    107c:	400006b7          	lui	a3,0x40000
    1080:	02d50c63          	beq	a0,a3,10b8 <TIM_TimeBaseInit+0x50>
D:/projects/mechanical_arm/ch32v307/EVT/EXAM/SRC/Peripheral/src/ch32v30x_tim.c:110 (discriminator 2)
    1084:	40068693          	addi	a3,a3,1024 # 40000400 <_eusrstack+0x1ffe0400>
    1088:	02d50863          	beq	a0,a3,10b8 <TIM_TimeBaseInit+0x50>
D:/projects/mechanical_arm/ch32v307/EVT/EXAM/SRC/Peripheral/src/ch32v30x_tim.c:110 (discriminator 3)
    108c:	400016b7          	lui	a3,0x40001
    1090:	80068613          	addi	a2,a3,-2048 # 40000800 <_eusrstack+0x1ffe0800>
    1094:	02c50263          	beq	a0,a2,10b8 <TIM_TimeBaseInit+0x50>
D:/projects/mechanical_arm/ch32v307/EVT/EXAM/SRC/Peripheral/src/ch32v30x_tim.c:110 (discriminator 4)
    1098:	c0068693          	addi	a3,a3,-1024
    109c:	00d50e63          	beq	a0,a3,10b8 <TIM_TimeBaseInit+0x50>
D:/projects/mechanical_arm/ch32v307/EVT/EXAM/SRC/Peripheral/src/ch32v30x_tim.c:111
       (TIMx == TIM5) || (TIMx == TIM8) || (TIMx == TIM9) || (TIMx == TIM10))
    10a0:	40070713          	addi	a4,a4,1024
    10a4:	00e50a63          	beq	a0,a4,10b8 <TIM_TimeBaseInit+0x50>
D:/projects/mechanical_arm/ch32v307/EVT/EXAM/SRC/Peripheral/src/ch32v30x_tim.c:111 (discriminator 1)
    10a8:	40015737          	lui	a4,0x40015
    10ac:	c0070693          	addi	a3,a4,-1024 # 40014c00 <_eusrstack+0x1fff4c00>
    10b0:	00d50463          	beq	a0,a3,10b8 <TIM_TimeBaseInit+0x50>
D:/projects/mechanical_arm/ch32v307/EVT/EXAM/SRC/Peripheral/src/ch32v30x_tim.c:111 (discriminator 2)
    10b4:	00e51763          	bne	a0,a4,10c2 <TIM_TimeBaseInit+0x5a>
D:/projects/mechanical_arm/ch32v307/EVT/EXAM/SRC/Peripheral/src/ch32v30x_tim.c:114
    {
        tmpcr1 &= (uint16_t)(~((uint16_t)(TIM_DIR | TIM_CMS)));
        tmpcr1 |= (uint32_t)TIM_TimeBaseInitStruct->TIM_CounterMode;
    10b8:	0025d703          	lhu	a4,2(a1)
D:/projects/mechanical_arm/ch32v307/EVT/EXAM/SRC/Peripheral/src/ch32v30x_tim.c:113
        tmpcr1 &= (uint16_t)(~((uint16_t)(TIM_DIR | TIM_CMS)));
    10bc:	f8f7f793          	andi	a5,a5,-113
D:/projects/mechanical_arm/ch32v307/EVT/EXAM/SRC/Peripheral/src/ch32v30x_tim.c:114
        tmpcr1 |= (uint32_t)TIM_TimeBaseInitStruct->TIM_CounterMode;
    10c0:	8fd9                	or	a5,a5,a4
D:/projects/mechanical_arm/ch32v307/EVT/EXAM/SRC/Peripheral/src/ch32v30x_tim.c:117
    }

    if((TIMx != TIM6) && (TIMx != TIM7))
    10c2:	40001737          	lui	a4,0x40001
    10c6:	00e50d63          	beq	a0,a4,10e0 <TIM_TimeBaseInit+0x78>
D:/projects/mechanical_arm/ch32v307/EVT/EXAM/SRC/Peripheral/src/ch32v30x_tim.c:117 (discriminator 1)
    10ca:	40070713          	addi	a4,a4,1024 # 40001400 <_eusrstack+0x1ffe1400>
    10ce:	00e50963          	beq	a0,a4,10e0 <TIM_TimeBaseInit+0x78>
D:/projects/mechanical_arm/ch32v307/EVT/EXAM/SRC/Peripheral/src/ch32v30x_tim.c:119
    {
        tmpcr1 &= (uint16_t)(~((uint16_t)TIM_CTLR1_CKD));
    10d2:	cff7f793          	andi	a5,a5,-769
D:/projects/mechanical_arm/ch32v307/EVT/EXAM/SRC/Peripheral/src/ch32v30x_tim.c:120
        tmpcr1 |= (uint32_t)TIM_TimeBaseInitStruct->TIM_ClockDivision;
    10d6:	0065d703          	lhu	a4,6(a1)
D:/projects/mechanical_arm/ch32v307/EVT/EXAM/SRC/Peripheral/src/ch32v30x_tim.c:119
        tmpcr1 &= (uint16_t)(~((uint16_t)TIM_CTLR1_CKD));
    10da:	07c2                	slli	a5,a5,0x10
    10dc:	83c1                	srli	a5,a5,0x10
D:/projects/mechanical_arm/ch32v307/EVT/EXAM/SRC/Peripheral/src/ch32v30x_tim.c:120
        tmpcr1 |= (uint32_t)TIM_TimeBaseInitStruct->TIM_ClockDivision;
    10de:	8fd9                	or	a5,a5,a4
D:/projects/mechanical_arm/ch32v307/EVT/EXAM/SRC/Peripheral/src/ch32v30x_tim.c:123
    }

    TIMx->CTLR1 = tmpcr1;
    10e0:	00f51023          	sh	a5,0(a0)
D:/projects/mechanical_arm/ch32v307/EVT/EXAM/SRC/Peripheral/src/ch32v30x_tim.c:124
    TIMx->ATRLR = TIM_TimeBaseInitStruct->TIM_Period;
    10e4:	0045d783          	lhu	a5,4(a1)
    10e8:	02f51623          	sh	a5,44(a0)
D:/projects/mechanical_arm/ch32v307/EVT/EXAM/SRC/Peripheral/src/ch32v30x_tim.c:125
    TIMx->PSC = TIM_TimeBaseInitStruct->TIM_Prescaler;
    10ec:	0005d783          	lhu	a5,0(a1)
    10f0:	02f51423          	sh	a5,40(a0)
D:/projects/mechanical_arm/ch32v307/EVT/EXAM/SRC/Peripheral/src/ch32v30x_tim.c:127

    if((TIMx == TIM1) || (TIMx == TIM8) || (TIMx == TIM9) || (TIMx == TIM10))
    10f4:	400137b7          	lui	a5,0x40013
    10f8:	c0078713          	addi	a4,a5,-1024 # 40012c00 <_eusrstack+0x1fff2c00>
    10fc:	00e50e63          	beq	a0,a4,1118 <TIM_TimeBaseInit+0xb0>
D:/projects/mechanical_arm/ch32v307/EVT/EXAM/SRC/Peripheral/src/ch32v30x_tim.c:127 (discriminator 1)
    1100:	40078793          	addi	a5,a5,1024
    1104:	00f50a63          	beq	a0,a5,1118 <TIM_TimeBaseInit+0xb0>
D:/projects/mechanical_arm/ch32v307/EVT/EXAM/SRC/Peripheral/src/ch32v30x_tim.c:127 (discriminator 2)
    1108:	400157b7          	lui	a5,0x40015
    110c:	c0078713          	addi	a4,a5,-1024 # 40014c00 <_eusrstack+0x1fff4c00>
    1110:	00e50463          	beq	a0,a4,1118 <TIM_TimeBaseInit+0xb0>
D:/projects/mechanical_arm/ch32v307/EVT/EXAM/SRC/Peripheral/src/ch32v30x_tim.c:127 (discriminator 3)
    1114:	00f51663          	bne	a0,a5,1120 <TIM_TimeBaseInit+0xb8>
D:/projects/mechanical_arm/ch32v307/EVT/EXAM/SRC/Peripheral/src/ch32v30x_tim.c:129
    {
        TIMx->RPTCR = TIM_TimeBaseInitStruct->TIM_RepetitionCounter;
    1118:	0085c783          	lbu	a5,8(a1)
    111c:	02f51823          	sh	a5,48(a0)
D:/projects/mechanical_arm/ch32v307/EVT/EXAM/SRC/Peripheral/src/ch32v30x_tim.c:132
    }

    TIMx->SWEVGR = TIM_PSCReloadMode_Immediate;
    1120:	4785                	li	a5,1
    1122:	00f51a23          	sh	a5,20(a0)
D:/projects/mechanical_arm/ch32v307/EVT/EXAM/SRC/Peripheral/src/ch32v30x_tim.c:133
}
    1126:	8082                	ret

00001128 <TIM_Cmd>:
TIM_Cmd():
D:/projects/mechanical_arm/ch32v307/EVT/EXAM/SRC/Peripheral/src/ch32v30x_tim.c:514
 */
void TIM_Cmd(TIM_TypeDef *TIMx, FunctionalState NewState)
{
    if(NewState != DISABLE)
    {
        TIMx->CTLR1 |= TIM_CEN;
    1128:	00055783          	lhu	a5,0(a0)
D:/projects/mechanical_arm/ch32v307/EVT/EXAM/SRC/Peripheral/src/ch32v30x_tim.c:512
    if(NewState != DISABLE)
    112c:	c591                	beqz	a1,1138 <TIM_Cmd+0x10>
D:/projects/mechanical_arm/ch32v307/EVT/EXAM/SRC/Peripheral/src/ch32v30x_tim.c:514
        TIMx->CTLR1 |= TIM_CEN;
    112e:	0017e793          	ori	a5,a5,1
D:/projects/mechanical_arm/ch32v307/EVT/EXAM/SRC/Peripheral/src/ch32v30x_tim.c:518
    }
    else
    {
        TIMx->CTLR1 &= (uint16_t)(~((uint16_t)TIM_CEN));
    1132:	00f51023          	sh	a5,0(a0)
D:/projects/mechanical_arm/ch32v307/EVT/EXAM/SRC/Peripheral/src/ch32v30x_tim.c:520
    }
}
    1136:	8082                	ret
D:/projects/mechanical_arm/ch32v307/EVT/EXAM/SRC/Peripheral/src/ch32v30x_tim.c:518
        TIMx->CTLR1 &= (uint16_t)(~((uint16_t)TIM_CEN));
    1138:	07c2                	slli	a5,a5,0x10
    113a:	83c1                	srli	a5,a5,0x10
    113c:	9bf9                	andi	a5,a5,-2
    113e:	07c2                	slli	a5,a5,0x10
    1140:	83c1                	srli	a5,a5,0x10
    1142:	bfc5                	j	1132 <TIM_Cmd+0xa>

00001144 <TIM_ITConfig>:
TIM_ITConfig():
D:/projects/mechanical_arm/ch32v307/EVT/EXAM/SRC/Peripheral/src/ch32v30x_tim.c:567
 */
void TIM_ITConfig(TIM_TypeDef *TIMx, uint16_t TIM_IT, FunctionalState NewState)
{
    if(NewState != DISABLE)
    {
        TIMx->DMAINTENR |= TIM_IT;
    1144:	00c55783          	lhu	a5,12(a0)
D:/projects/mechanical_arm/ch32v307/EVT/EXAM/SRC/Peripheral/src/ch32v30x_tim.c:565
    if(NewState != DISABLE)
    1148:	c609                	beqz	a2,1152 <TIM_ITConfig+0xe>
D:/projects/mechanical_arm/ch32v307/EVT/EXAM/SRC/Peripheral/src/ch32v30x_tim.c:567
        TIMx->DMAINTENR |= TIM_IT;
    114a:	8ddd                	or	a1,a1,a5
D:/projects/mechanical_arm/ch32v307/EVT/EXAM/SRC/Peripheral/src/ch32v30x_tim.c:571
    }
    else
    {
        TIMx->DMAINTENR &= (uint16_t)~TIM_IT;
    114c:	00b51623          	sh	a1,12(a0)
D:/projects/mechanical_arm/ch32v307/EVT/EXAM/SRC/Peripheral/src/ch32v30x_tim.c:573
    }
}
    1150:	8082                	ret
D:/projects/mechanical_arm/ch32v307/EVT/EXAM/SRC/Peripheral/src/ch32v30x_tim.c:571
        TIMx->DMAINTENR &= (uint16_t)~TIM_IT;
    1152:	fff5c593          	not	a1,a1
    1156:	8dfd                	and	a1,a1,a5
    1158:	bfd5                	j	114c <TIM_ITConfig+0x8>

0000115a <TIM_ClearITPendingBit>:
TIM_ClearITPendingBit():
    115a:	fff5c593          	not	a1,a1
    115e:	05c2                	slli	a1,a1,0x10
    1160:	81c1                	srli	a1,a1,0x10
    1162:	00b51823          	sh	a1,16(a0)
    1166:	8082                	ret

00001168 <USART_Init>:
USART_Init():
D:/projects/mechanical_arm/ch32v307/EVT/EXAM/SRC/Peripheral/src/ch32v30x_usart.c:138
    if(USART_InitStruct->USART_HardwareFlowControl != USART_HardwareFlowControl_None)
    {
    }

    usartxbase = (uint32_t)USARTx;
    tmpreg = USARTx->CTLR2;
    1168:	01055683          	lhu	a3,16(a0)
    116c:	77f5                	lui	a5,0xffffd
    116e:	17fd                	addi	a5,a5,-1
    1170:	8ff5                	and	a5,a5,a3
    1172:	0065d683          	lhu	a3,6(a1)
D:/projects/mechanical_arm/ch32v307/EVT/EXAM/SRC/Peripheral/src/ch32v30x_usart.c:126
{
    1176:	7139                	addi	sp,sp,-64
    1178:	dc22                	sw	s0,56(sp)
    117a:	de06                	sw	ra,60(sp)
    117c:	8fd5                	or	a5,a5,a3
D:/projects/mechanical_arm/ch32v307/EVT/EXAM/SRC/Peripheral/src/ch32v30x_usart.c:133
    if(USART_InitStruct->USART_HardwareFlowControl != USART_HardwareFlowControl_None)
    117e:	00c5d703          	lhu	a4,12(a1)
D:/projects/mechanical_arm/ch32v307/EVT/EXAM/SRC/Peripheral/src/ch32v30x_usart.c:142
    tmpreg &= CTLR2_STOP_CLEAR_Mask;
    tmpreg |= (uint32_t)USART_InitStruct->USART_StopBits;

    USARTx->CTLR2 = (uint16_t)tmpreg;
    1182:	00f51823          	sh	a5,16(a0)
D:/projects/mechanical_arm/ch32v307/EVT/EXAM/SRC/Peripheral/src/ch32v30x_usart.c:143
    tmpreg = USARTx->CTLR1;
    1186:	00c55683          	lhu	a3,12(a0)
D:/projects/mechanical_arm/ch32v307/EVT/EXAM/SRC/Peripheral/src/ch32v30x_usart.c:145
    tmpreg &= CTLR1_CLEAR_Mask;
    tmpreg |= (uint32_t)USART_InitStruct->USART_WordLength | USART_InitStruct->USART_Parity |
    118a:	77fd                	lui	a5,0xfffff
    118c:	9f378793          	addi	a5,a5,-1549 # ffffe9f3 <_eusrstack+0xdffde9f3>
    1190:	8ff5                	and	a5,a5,a3
    1192:	0045d683          	lhu	a3,4(a1)
D:/projects/mechanical_arm/ch32v307/EVT/EXAM/SRC/Peripheral/src/ch32v30x_usart.c:126
{
    1196:	842a                	mv	s0,a0
    1198:	c62e                	sw	a1,12(sp)
    119a:	8fd5                	or	a5,a5,a3
    119c:	0085d683          	lhu	a3,8(a1)
    11a0:	8fd5                	or	a5,a5,a3
    11a2:	00a5d683          	lhu	a3,10(a1)
    11a6:	8fd5                	or	a5,a5,a3
D:/projects/mechanical_arm/ch32v307/EVT/EXAM/SRC/Peripheral/src/ch32v30x_usart.c:147
              USART_InitStruct->USART_Mode;
    USARTx->CTLR1 = (uint16_t)tmpreg;
    11a8:	00f51623          	sh	a5,12(a0)
D:/projects/mechanical_arm/ch32v307/EVT/EXAM/SRC/Peripheral/src/ch32v30x_usart.c:149

    tmpreg = USARTx->CTLR3;
    11ac:	01455783          	lhu	a5,20(a0)
    11b0:	07c2                	slli	a5,a5,0x10
    11b2:	83c1                	srli	a5,a5,0x10
D:/projects/mechanical_arm/ch32v307/EVT/EXAM/SRC/Peripheral/src/ch32v30x_usart.c:151
    tmpreg &= CTLR3_CLEAR_Mask;
    tmpreg |= USART_InitStruct->USART_HardwareFlowControl;
    11b4:	cff7f793          	andi	a5,a5,-769
    11b8:	8fd9                	or	a5,a5,a4
D:/projects/mechanical_arm/ch32v307/EVT/EXAM/SRC/Peripheral/src/ch32v30x_usart.c:152
    USARTx->CTLR3 = (uint16_t)tmpreg;
    11ba:	00f51a23          	sh	a5,20(a0)
D:/projects/mechanical_arm/ch32v307/EVT/EXAM/SRC/Peripheral/src/ch32v30x_usart.c:154

    RCC_GetClocksFreq(&RCC_ClocksStatus);
    11be:	0868                	addi	a0,sp,28
    11c0:	3155                	jal	e64 <RCC_GetClocksFreq>
D:/projects/mechanical_arm/ch32v307/EVT/EXAM/SRC/Peripheral/src/ch32v30x_usart.c:156

    if(usartxbase == USART1_BASE)
    11c2:	400147b7          	lui	a5,0x40014
    11c6:	80078793          	addi	a5,a5,-2048 # 40013800 <_eusrstack+0x1fff3800>
    11ca:	45b2                	lw	a1,12(sp)
    11cc:	04f41e63          	bne	s0,a5,1228 <USART_Init+0xc0>
D:/projects/mechanical_arm/ch32v307/EVT/EXAM/SRC/Peripheral/src/ch32v30x_usart.c:158
    {
        apbclock = RCC_ClocksStatus.PCLK2_Frequency;
    11d0:	57a2                	lw	a5,40(sp)
D:/projects/mechanical_arm/ch32v307/EVT/EXAM/SRC/Peripheral/src/ch32v30x_usart.c:165
    else
    {
        apbclock = RCC_ClocksStatus.PCLK1_Frequency;
    }

    if((USARTx->CTLR1 & CTLR1_OVER8_Set) != 0)
    11d2:	00c45683          	lhu	a3,12(s0)
    11d6:	4765                	li	a4,25
    11d8:	02e787b3          	mul	a5,a5,a4
    11dc:	06c2                	slli	a3,a3,0x10
    11de:	86c1                	srai	a3,a3,0x10
    11e0:	4198                	lw	a4,0(a1)
    11e2:	0406d563          	bgez	a3,122c <USART_Init+0xc4>
D:/projects/mechanical_arm/ch32v307/EVT/EXAM/SRC/Peripheral/src/ch32v30x_usart.c:167
    {
        integerdivider = ((25 * apbclock) / (2 * (USART_InitStruct->USART_BaudRate)));
    11e6:	0706                	slli	a4,a4,0x1
D:/projects/mechanical_arm/ch32v307/EVT/EXAM/SRC/Peripheral/src/ch32v30x_usart.c:177
    }
    tmpreg = (integerdivider / 100) << 4;

    fractionaldivider = integerdivider - (100 * (tmpreg >> 4));

    if((USARTx->CTLR1 & CTLR1_OVER8_Set) != 0)
    11e8:	00c45603          	lhu	a2,12(s0)
    11ec:	0642                	slli	a2,a2,0x10
D:/projects/mechanical_arm/ch32v307/EVT/EXAM/SRC/Peripheral/src/ch32v30x_usart.c:171
        integerdivider = ((25 * apbclock) / (4 * (USART_InitStruct->USART_BaudRate)));
    11ee:	02e7d7b3          	divu	a5,a5,a4
D:/projects/mechanical_arm/ch32v307/EVT/EXAM/SRC/Peripheral/src/ch32v30x_usart.c:173
    tmpreg = (integerdivider / 100) << 4;
    11f2:	06400713          	li	a4,100
D:/projects/mechanical_arm/ch32v307/EVT/EXAM/SRC/Peripheral/src/ch32v30x_usart.c:177
    if((USARTx->CTLR1 & CTLR1_OVER8_Set) != 0)
    11f6:	8641                	srai	a2,a2,0x10
D:/projects/mechanical_arm/ch32v307/EVT/EXAM/SRC/Peripheral/src/ch32v30x_usart.c:173
    tmpreg = (integerdivider / 100) << 4;
    11f8:	02e7d6b3          	divu	a3,a5,a4
    11fc:	02e7f7b3          	remu	a5,a5,a4
    1200:	0692                	slli	a3,a3,0x4
D:/projects/mechanical_arm/ch32v307/EVT/EXAM/SRC/Peripheral/src/ch32v30x_usart.c:177
    if((USARTx->CTLR1 & CTLR1_OVER8_Set) != 0)
    1202:	02065763          	bgez	a2,1230 <USART_Init+0xc8>
D:/projects/mechanical_arm/ch32v307/EVT/EXAM/SRC/Peripheral/src/ch32v30x_usart.c:179
    {
        tmpreg |= ((((fractionaldivider * 8) + 50) / 100)) & ((uint8_t)0x07);
    1206:	078e                	slli	a5,a5,0x3
    1208:	03278793          	addi	a5,a5,50
    120c:	02e7d7b3          	divu	a5,a5,a4
    1210:	0077f713          	andi	a4,a5,7
    1214:	00d767b3          	or	a5,a4,a3
D:/projects/mechanical_arm/ch32v307/EVT/EXAM/SRC/Peripheral/src/ch32v30x_usart.c:186
    else
    {
        tmpreg |= ((((fractionaldivider * 16) + 50) / 100)) & ((uint8_t)0x0F);
    }

    USARTx->BRR = (uint16_t)tmpreg;
    1218:	07c2                	slli	a5,a5,0x10
    121a:	83c1                	srli	a5,a5,0x10
    121c:	00f41423          	sh	a5,8(s0)
D:/projects/mechanical_arm/ch32v307/EVT/EXAM/SRC/Peripheral/src/ch32v30x_usart.c:187
}
    1220:	50f2                	lw	ra,60(sp)
    1222:	5462                	lw	s0,56(sp)
    1224:	6121                	addi	sp,sp,64
    1226:	8082                	ret
D:/projects/mechanical_arm/ch32v307/EVT/EXAM/SRC/Peripheral/src/ch32v30x_usart.c:162
        apbclock = RCC_ClocksStatus.PCLK1_Frequency;
    1228:	5792                	lw	a5,36(sp)
    122a:	b765                	j	11d2 <USART_Init+0x6a>
D:/projects/mechanical_arm/ch32v307/EVT/EXAM/SRC/Peripheral/src/ch32v30x_usart.c:171
        integerdivider = ((25 * apbclock) / (4 * (USART_InitStruct->USART_BaudRate)));
    122c:	070a                	slli	a4,a4,0x2
    122e:	bf6d                	j	11e8 <USART_Init+0x80>
D:/projects/mechanical_arm/ch32v307/EVT/EXAM/SRC/Peripheral/src/ch32v30x_usart.c:183
        tmpreg |= ((((fractionaldivider * 16) + 50) / 100)) & ((uint8_t)0x0F);
    1230:	0792                	slli	a5,a5,0x4
    1232:	03278793          	addi	a5,a5,50
    1236:	02e7d7b3          	divu	a5,a5,a4
    123a:	8bbd                	andi	a5,a5,15
    123c:	8fd5                	or	a5,a5,a3
    123e:	bfe9                	j	1218 <USART_Init+0xb0>

00001240 <USART_Cmd>:
USART_Cmd():
D:/projects/mechanical_arm/ch32v307/EVT/EXAM/SRC/Peripheral/src/ch32v30x_usart.c:263
 *
 * @return  none
 */
void USART_Cmd(USART_TypeDef *USARTx, FunctionalState NewState)
{
    if(NewState != DISABLE)
    1240:	c981                	beqz	a1,1250 <USART_Cmd+0x10>
D:/projects/mechanical_arm/ch32v307/EVT/EXAM/SRC/Peripheral/src/ch32v30x_usart.c:265
    {
        USARTx->CTLR1 |= CTLR1_UE_Set;
    1242:	00c55783          	lhu	a5,12(a0)
    1246:	6709                	lui	a4,0x2
    1248:	8fd9                	or	a5,a5,a4
D:/projects/mechanical_arm/ch32v307/EVT/EXAM/SRC/Peripheral/src/ch32v30x_usart.c:269
    }
    else
    {
        USARTx->CTLR1 &= CTLR1_UE_Reset;
    124a:	00f51623          	sh	a5,12(a0)
D:/projects/mechanical_arm/ch32v307/EVT/EXAM/SRC/Peripheral/src/ch32v30x_usart.c:271
    }
}
    124e:	8082                	ret
D:/projects/mechanical_arm/ch32v307/EVT/EXAM/SRC/Peripheral/src/ch32v30x_usart.c:269
        USARTx->CTLR1 &= CTLR1_UE_Reset;
    1250:	00c55703          	lhu	a4,12(a0)
    1254:	77f9                	lui	a5,0xffffe
    1256:	17fd                	addi	a5,a5,-1
    1258:	8ff9                	and	a5,a5,a4
    125a:	bfc5                	j	124a <USART_Cmd+0xa>

0000125c <USART_SendData>:
USART_SendData():
D:/projects/mechanical_arm/ch32v307/EVT/EXAM/SRC/Peripheral/src/ch32v30x_usart.c:463
 *
 * @return  none
 */
void USART_SendData(USART_TypeDef *USARTx, uint16_t Data)
{
    USARTx->DATAR = (Data & (uint16_t)0x01FF);
    125c:	1ff5f593          	andi	a1,a1,511
    1260:	00b51223          	sh	a1,4(a0)
D:/projects/mechanical_arm/ch32v307/EVT/EXAM/SRC/Peripheral/src/ch32v30x_usart.c:464
}
    1264:	8082                	ret

00001266 <USART_GetFlagStatus>:
USART_GetFlagStatus():
D:/projects/mechanical_arm/ch32v307/EVT/EXAM/SRC/Peripheral/src/ch32v30x_usart.c:704

    if(USART_FLAG == USART_FLAG_CTS)
    {
    }

    if((USARTx->STATR & USART_FLAG) != (uint16_t)RESET)
    1266:	00055503          	lhu	a0,0(a0)
    126a:	8d6d                	and	a0,a0,a1
D:/projects/mechanical_arm/ch32v307/EVT/EXAM/SRC/Peripheral/src/ch32v30x_usart.c:713
    else
    {
        bitstatus = RESET;
    }
    return bitstatus;
}
    126c:	00a03533          	snez	a0,a0
    1270:	8082                	ret

00001272 <Delay_Init>:
Delay_Init():
D:/projects/mechanical_arm/ch32v307/EVT/EXAM/SRC/Debug/debug.c:25
 *
 * @return  none
 */
void Delay_Init(void)
{
    p_us = SystemCoreClock / 8000000;
    1272:	8141a783          	lw	a5,-2028(gp) # 20000024 <SystemCoreClock>
    1276:	007a1737          	lui	a4,0x7a1
    127a:	20070713          	addi	a4,a4,512 # 7a1200 <_data_lma+0x798c2c>
    127e:	02e7d7b3          	divu	a5,a5,a4
    1282:	0ff7f793          	andi	a5,a5,255
    1286:	84f18d23          	sb	a5,-1958(gp) # 2000006a <p_us>
D:/projects/mechanical_arm/ch32v307/EVT/EXAM/SRC/Debug/debug.c:26
    p_ms = (uint16_t)p_us * 1000;
    128a:	3e800713          	li	a4,1000
    128e:	02e787b3          	mul	a5,a5,a4
    1292:	84f19c23          	sh	a5,-1960(gp) # 20000068 <_edata>
D:/projects/mechanical_arm/ch32v307/EVT/EXAM/SRC/Debug/debug.c:27
}
    1296:	8082                	ret

00001298 <Delay_Ms>:
Delay_Ms():
D:/projects/mechanical_arm/ch32v307/EVT/EXAM/SRC/Debug/debug.c:66
 */
void Delay_Ms(uint32_t n)
{
    uint32_t i;

    SysTick->SR &= ~(1 << 0);
    1298:	e000f7b7          	lui	a5,0xe000f
    129c:	43d8                	lw	a4,4(a5)
D:/projects/mechanical_arm/ch32v307/EVT/EXAM/SRC/Debug/debug.c:69
    i = (uint32_t)n * p_ms;

    SysTick->CMP = i;
    129e:	4681                	li	a3,0
D:/projects/mechanical_arm/ch32v307/EVT/EXAM/SRC/Debug/debug.c:66
    SysTick->SR &= ~(1 << 0);
    12a0:	9b79                	andi	a4,a4,-2
    12a2:	c3d8                	sw	a4,4(a5)
D:/projects/mechanical_arm/ch32v307/EVT/EXAM/SRC/Debug/debug.c:67
    i = (uint32_t)n * p_ms;
    12a4:	8581d703          	lhu	a4,-1960(gp) # 20000068 <_edata>
D:/projects/mechanical_arm/ch32v307/EVT/EXAM/SRC/Debug/debug.c:69
    SysTick->CMP = i;
    12a8:	02a70633          	mul	a2,a4,a0
    12ac:	cb90                	sw	a2,16(a5)
    12ae:	cbd4                	sw	a3,20(a5)
D:/projects/mechanical_arm/ch32v307/EVT/EXAM/SRC/Debug/debug.c:70
    SysTick->CTLR |= (1 << 4) | (1 << 5) | (1 << 0);
    12b0:	4398                	lw	a4,0(a5)
    12b2:	03176713          	ori	a4,a4,49
    12b6:	c398                	sw	a4,0(a5)
D:/projects/mechanical_arm/ch32v307/EVT/EXAM/SRC/Debug/debug.c:72 (discriminator 1)

    while((SysTick->SR & (1 << 0)) != (1 << 0))
    12b8:	43d8                	lw	a4,4(a5)
    12ba:	8b05                	andi	a4,a4,1
    12bc:	df75                	beqz	a4,12b8 <Delay_Ms+0x20>
D:/projects/mechanical_arm/ch32v307/EVT/EXAM/SRC/Debug/debug.c:74
        ;
    SysTick->CTLR &= ~(1 << 0);
    12be:	4398                	lw	a4,0(a5)
    12c0:	9b79                	andi	a4,a4,-2
    12c2:	c398                	sw	a4,0(a5)
D:/projects/mechanical_arm/ch32v307/EVT/EXAM/SRC/Debug/debug.c:75
}
    12c4:	8082                	ret

000012c6 <USART_Printf_Init>:
USART_Printf_Init():
D:/projects/mechanical_arm/ch32v307/EVT/EXAM/SRC/Debug/debug.c:87
 * @param   baudrate - USART communication baud rate.
 *
 * @return  None
 */
void USART_Printf_Init(uint32_t baudrate)
{
    12c6:	7179                	addi	sp,sp,-48
    12c8:	d422                	sw	s0,40(sp)
    12ca:	842a                	mv	s0,a0
D:/projects/mechanical_arm/ch32v307/EVT/EXAM/SRC/Debug/debug.c:92
    GPIO_InitTypeDef  GPIO_InitStructure;
    USART_InitTypeDef USART_InitStructure;

#if(DEBUG == DEBUG_UART1)
    RCC_APB2PeriphClockCmd(RCC_APB2Periph_USART1 | RCC_APB2Periph_GPIOA, ENABLE);
    12cc:	6511                	lui	a0,0x4
    12ce:	4585                	li	a1,1
    12d0:	0511                	addi	a0,a0,4
D:/projects/mechanical_arm/ch32v307/EVT/EXAM/SRC/Debug/debug.c:87
{
    12d2:	d606                	sw	ra,44(sp)
D:/projects/mechanical_arm/ch32v307/EVT/EXAM/SRC/Debug/debug.c:92
    RCC_APB2PeriphClockCmd(RCC_APB2Periph_USART1 | RCC_APB2Periph_GPIOA, ENABLE);
    12d4:	3975                	jal	f90 <RCC_APB2PeriphClockCmd>
D:/projects/mechanical_arm/ch32v307/EVT/EXAM/SRC/Debug/debug.c:94

    GPIO_InitStructure.GPIO_Pin = GPIO_Pin_9;
    12d6:	20000793          	li	a5,512
    12da:	00f11223          	sh	a5,4(sp)
D:/projects/mechanical_arm/ch32v307/EVT/EXAM/SRC/Debug/debug.c:97
    GPIO_InitStructure.GPIO_Speed = GPIO_Speed_50MHz;
    GPIO_InitStructure.GPIO_Mode = GPIO_Mode_AF_PP;
    GPIO_Init(GPIOA, &GPIO_InitStructure);
    12de:	40011537          	lui	a0,0x40011
D:/projects/mechanical_arm/ch32v307/EVT/EXAM/SRC/Debug/debug.c:95
    GPIO_InitStructure.GPIO_Speed = GPIO_Speed_50MHz;
    12e2:	478d                	li	a5,3
    12e4:	c43e                	sw	a5,8(sp)
D:/projects/mechanical_arm/ch32v307/EVT/EXAM/SRC/Debug/debug.c:97
    GPIO_Init(GPIOA, &GPIO_InitStructure);
    12e6:	004c                	addi	a1,sp,4
D:/projects/mechanical_arm/ch32v307/EVT/EXAM/SRC/Debug/debug.c:96
    GPIO_InitStructure.GPIO_Mode = GPIO_Mode_AF_PP;
    12e8:	47e1                	li	a5,24
D:/projects/mechanical_arm/ch32v307/EVT/EXAM/SRC/Debug/debug.c:97
    GPIO_Init(GPIOA, &GPIO_InitStructure);
    12ea:	80050513          	addi	a0,a0,-2048 # 40010800 <_eusrstack+0x1fff0800>
D:/projects/mechanical_arm/ch32v307/EVT/EXAM/SRC/Debug/debug.c:96
    GPIO_InitStructure.GPIO_Mode = GPIO_Mode_AF_PP;
    12ee:	c63e                	sw	a5,12(sp)
D:/projects/mechanical_arm/ch32v307/EVT/EXAM/SRC/Debug/debug.c:97
    GPIO_Init(GPIOA, &GPIO_InitStructure);
    12f0:	346d                	jal	d9a <GPIO_Init>
D:/projects/mechanical_arm/ch32v307/EVT/EXAM/SRC/Debug/debug.c:119
    GPIO_InitStructure.GPIO_Mode = GPIO_Mode_AF_PP;
    GPIO_Init(GPIOB, &GPIO_InitStructure);

#endif

    USART_InitStructure.USART_BaudRate = baudrate;
    12f2:	c822                	sw	s0,16(sp)
D:/projects/mechanical_arm/ch32v307/EVT/EXAM/SRC/Debug/debug.c:127
    USART_InitStructure.USART_Parity = USART_Parity_No;
    USART_InitStructure.USART_HardwareFlowControl = USART_HardwareFlowControl_None;
    USART_InitStructure.USART_Mode = USART_Mode_Tx;

#if(DEBUG == DEBUG_UART1)
    USART_Init(USART1, &USART_InitStructure);
    12f4:	40014437          	lui	s0,0x40014
D:/projects/mechanical_arm/ch32v307/EVT/EXAM/SRC/Debug/debug.c:122
    USART_InitStructure.USART_Parity = USART_Parity_No;
    12f8:	000807b7          	lui	a5,0x80
D:/projects/mechanical_arm/ch32v307/EVT/EXAM/SRC/Debug/debug.c:127
    USART_Init(USART1, &USART_InitStructure);
    12fc:	080c                	addi	a1,sp,16
    12fe:	80040513          	addi	a0,s0,-2048 # 40013800 <_eusrstack+0x1fff3800>
D:/projects/mechanical_arm/ch32v307/EVT/EXAM/SRC/Debug/debug.c:122
    USART_InitStructure.USART_Parity = USART_Parity_No;
    1302:	cc3e                	sw	a5,24(sp)
D:/projects/mechanical_arm/ch32v307/EVT/EXAM/SRC/Debug/debug.c:120
    USART_InitStructure.USART_WordLength = USART_WordLength_8b;
    1304:	ca02                	sw	zero,20(sp)
D:/projects/mechanical_arm/ch32v307/EVT/EXAM/SRC/Debug/debug.c:123
    USART_InitStructure.USART_HardwareFlowControl = USART_HardwareFlowControl_None;
    1306:	00011e23          	sh	zero,28(sp)
D:/projects/mechanical_arm/ch32v307/EVT/EXAM/SRC/Debug/debug.c:127
    USART_Init(USART1, &USART_InitStructure);
    130a:	3db9                	jal	1168 <USART_Init>
D:/projects/mechanical_arm/ch32v307/EVT/EXAM/SRC/Debug/debug.c:128
    USART_Cmd(USART1, ENABLE);
    130c:	80040513          	addi	a0,s0,-2048
    1310:	4585                	li	a1,1
    1312:	373d                	jal	1240 <USART_Cmd>
D:/projects/mechanical_arm/ch32v307/EVT/EXAM/SRC/Debug/debug.c:139
#elif(DEBUG == DEBUG_UART3)
    USART_Init(USART3, &USART_InitStructure);
    USART_Cmd(USART3, ENABLE);

#endif
}
    1314:	50b2                	lw	ra,44(sp)
    1316:	5422                	lw	s0,40(sp)
    1318:	6145                	addi	sp,sp,48
    131a:	8082                	ret

0000131c <_write>:
_write():
D:/projects/mechanical_arm/ch32v307/EVT/EXAM/SRC/Debug/debug.c:152
 *          size - Data length
 *
 * @return  size: Data length
 */
__attribute__((used)) int _write(int fd, char *buf, int size)
{
    131c:	1101                	addi	sp,sp,-32
    131e:	ca26                	sw	s1,20(sp)
D:/projects/mechanical_arm/ch32v307/EVT/EXAM/SRC/Debug/debug.c:158
    int i;

    for(i = 0; i < size; i++)
    {
#if(DEBUG == DEBUG_UART1)
        while(USART_GetFlagStatus(USART1, USART_FLAG_TC) == RESET);
    1320:	400144b7          	lui	s1,0x40014
D:/projects/mechanical_arm/ch32v307/EVT/EXAM/SRC/Debug/debug.c:152
{
    1324:	cc22                	sw	s0,24(sp)
    1326:	c84a                	sw	s2,16(sp)
    1328:	c64e                	sw	s3,12(sp)
    132a:	ce06                	sw	ra,28(sp)
    132c:	89ae                	mv	s3,a1
    132e:	8932                	mv	s2,a2
D:/projects/mechanical_arm/ch32v307/EVT/EXAM/SRC/Debug/debug.c:155
    for(i = 0; i < size; i++)
    1330:	4401                	li	s0,0
D:/projects/mechanical_arm/ch32v307/EVT/EXAM/SRC/Debug/debug.c:158
        while(USART_GetFlagStatus(USART1, USART_FLAG_TC) == RESET);
    1332:	80048493          	addi	s1,s1,-2048 # 40013800 <_eusrstack+0x1fff3800>
D:/projects/mechanical_arm/ch32v307/EVT/EXAM/SRC/Debug/debug.c:155 (discriminator 1)
    for(i = 0; i < size; i++)
    1336:	01244a63          	blt	s0,s2,134a <_write+0x2e>
D:/projects/mechanical_arm/ch32v307/EVT/EXAM/SRC/Debug/debug.c:170
        USART_SendData(USART3, *buf++);
#endif
    }

    return size;
}
    133a:	40f2                	lw	ra,28(sp)
    133c:	4462                	lw	s0,24(sp)
    133e:	854a                	mv	a0,s2
    1340:	44d2                	lw	s1,20(sp)
    1342:	4942                	lw	s2,16(sp)
    1344:	49b2                	lw	s3,12(sp)
    1346:	6105                	addi	sp,sp,32
    1348:	8082                	ret
D:/projects/mechanical_arm/ch32v307/EVT/EXAM/SRC/Debug/debug.c:158 (discriminator 1)
        while(USART_GetFlagStatus(USART1, USART_FLAG_TC) == RESET);
    134a:	04000593          	li	a1,64
    134e:	8526                	mv	a0,s1
    1350:	3f19                	jal	1266 <USART_GetFlagStatus>
    1352:	dd65                	beqz	a0,134a <_write+0x2e>
D:/projects/mechanical_arm/ch32v307/EVT/EXAM/SRC/Debug/debug.c:159 (discriminator 2)
        USART_SendData(USART1, *buf++);
    1354:	008987b3          	add	a5,s3,s0
    1358:	00078583          	lb	a1,0(a5) # 80000 <_data_lma+0x77a2c>
    135c:	8526                	mv	a0,s1
D:/projects/mechanical_arm/ch32v307/EVT/EXAM/SRC/Debug/debug.c:155 (discriminator 2)
    for(i = 0; i < size; i++)
    135e:	0405                	addi	s0,s0,1
D:/projects/mechanical_arm/ch32v307/EVT/EXAM/SRC/Debug/debug.c:159 (discriminator 2)
        USART_SendData(USART1, *buf++);
    1360:	05c2                	slli	a1,a1,0x10
    1362:	81c1                	srli	a1,a1,0x10
    1364:	3de5                	jal	125c <USART_SendData>
    1366:	bfc1                	j	1336 <_write+0x1a>

00001368 <__get_MEPC>:
__get_MEPC():
D:/projects/mechanical_arm/ch32v307/EVT/EXAM/SRC/Core/core_riscv.c:275
 */
uint32_t __get_MEPC(void)
{
  uint32_t result;

  __ASM volatile ( "csrr %0," "mepc" : "=r" (result) );
    1368:	34102573          	csrr	a0,mepc
D:/projects/mechanical_arm/ch32v307/EVT/EXAM/SRC/Core/core_riscv.c:277
  return (result);
}
    136c:	8082                	ret

0000136e <__get_MCAUSE>:
__get_MCAUSE():
D:/projects/mechanical_arm/ch32v307/EVT/EXAM/SRC/Core/core_riscv.c:302
 */
uint32_t __get_MCAUSE(void)
{
  uint32_t result;

  __ASM volatile ( "csrr %0," "mcause" : "=r" (result) );
    136e:	34202573          	csrr	a0,mcause
D:/projects/mechanical_arm/ch32v307/EVT/EXAM/SRC/Core/core_riscv.c:304
  return (result);
}
    1372:	8082                	ret

00001374 <__get_MTVAL>:
__get_MTVAL():
D:/projects/mechanical_arm/ch32v307/EVT/EXAM/SRC/Core/core_riscv.c:329
 */
uint32_t __get_MTVAL(void)
{
  uint32_t result;

  __ASM volatile ( "csrr %0," "mtval" : "=r" (result) );
    1374:	34302573          	csrr	a0,mtval
D:/projects/mechanical_arm/ch32v307/EVT/EXAM/SRC/Core/core_riscv.c:331
  return (result);
}
    1378:	8082                	ret

0000137a <WCH_GetMac>:
WCH_GetMac():
    137a:	1ffff737          	lui	a4,0x1ffff
    137e:	4781                	li	a5,0
    1380:	7ed70713          	addi	a4,a4,2029 # 1ffff7ed <_data_lma+0x1fff7219>
    1384:	4699                	li	a3,6
    1386:	40f70633          	sub	a2,a4,a5
    138a:	220c                	fld	fa1,0(a2)
    138c:	00f50633          	add	a2,a0,a5
    1390:	0785                	addi	a5,a5,1
    1392:	a20c                	fsd	fa1,0(a2)
    1394:	fed799e3          	bne	a5,a3,1386 <WCH_GetMac+0xc>
    1398:	8082                	ret

0000139a <ETH_TxPkt_ChainMode>:
ETH_TxPkt_ChainMode():
    139a:	2000c7b7          	lui	a5,0x2000c
    139e:	4287a703          	lw	a4,1064(a5) # 2000c428 <DMATxDescToSet>
    13a2:	4314                	lw	a3,0(a4)
    13a4:	0206c763          	bltz	a3,13d2 <ETH_TxPkt_ChainMode+0x38>
    13a8:	b0000637          	lui	a2,0xb0000
    13ac:	054e                	slli	a0,a0,0x13
    13ae:	8ed1                	or	a3,a3,a2
    13b0:	814d                	srli	a0,a0,0x13
    13b2:	c314                	sw	a3,0(a4)
    13b4:	c348                	sw	a0,4(a4)
    13b6:	400296b7          	lui	a3,0x40029
    13ba:	4ad0                	lw	a2,20(a3)
    13bc:	8a11                	andi	a2,a2,4
    13be:	c609                	beqz	a2,13c8 <ETH_TxPkt_ChainMode+0x2e>
    13c0:	4611                	li	a2,4
    13c2:	cad0                	sw	a2,20(a3)
    13c4:	0006a223          	sw	zero,4(a3) # 40029004 <_eusrstack+0x20009004>
    13c8:	4758                	lw	a4,12(a4)
    13ca:	4505                	li	a0,1
    13cc:	42e7a423          	sw	a4,1064(a5)
    13d0:	8082                	ret
    13d2:	4501                	li	a0,0
    13d4:	8082                	ret

000013d6 <mac_send>:
mac_send():
    13d6:	e5bfe2ef          	jal	t0,230 <__riscv_save_0>
    13da:	892e                	mv	s2,a1
    13dc:	842a                	mv	s0,a0
    13de:	827ff0ef          	jal	ra,c04 <ETH_GetCurrentTxBufferAddress>
    13e2:	85a2                	mv	a1,s0
    13e4:	864a                	mv	a2,s2
    13e6:	767060ef          	jal	ra,834c <memcpy>
    13ea:	e000e437          	lui	s0,0xe000e
    13ee:	6489                	lui	s1,0x2
    13f0:	18942423          	sw	s1,392(s0) # e000e188 <_eusrstack+0xbffee188>
    13f4:	854a                	mv	a0,s2
    13f6:	3755                	jal	139a <ETH_TxPkt_ChainMode>
    13f8:	10942423          	sw	s1,264(s0)
    13fc:	4705                	li	a4,1
    13fe:	88e1a823          	sw	a4,-1904(gp) # 200000a0 <SuccessPackets>
    1402:	e53fe06f          	j	254 <__riscv_restore_0>

00001406 <ETH_Init>:
ETH_Init():
    1406:	e2bfe2ef          	jal	t0,230 <__riscv_save_0>
    140a:	1141                	addi	sp,sp,-16
    140c:	40028737          	lui	a4,0x40028
    1410:	c602                	sw	zero,12(sp)
    1412:	4b1c                	lw	a5,16(a4)
    1414:	84ae                	mv	s1,a1
    1416:	6621                	lui	a2,0x8
    1418:	9b8d                	andi	a5,a5,-29
    141a:	cb1c                	sw	a5,16(a4)
    141c:	4581                	li	a1,0
    141e:	842a                	mv	s0,a0
    1420:	8526                	mv	a0,s1
    1422:	e86ff0ef          	jal	ra,aa8 <ETH_WritePHYRegister>
    1426:	06400513          	li	a0,100
    142a:	35bd                	jal	1298 <Delay_Ms>
    142c:	4581                	li	a1,0
    142e:	8526                	mv	a0,s1
    1430:	e20ff0ef          	jal	ra,a50 <ETH_ReadPHYRegister>
    1434:	10057793          	andi	a5,a0,256
    1438:	4681                	li	a3,0
    143a:	c781                	beqz	a5,1442 <ETH_Init+0x3c>
    143c:	6785                	lui	a5,0x1
    143e:	80078693          	addi	a3,a5,-2048 # 800 <__stack_size>
    1442:	8135                	srli	a0,a0,0xd
    1444:	8905                	andi	a0,a0,1
    1446:	440c                	lw	a1,8(s0)
    1448:	405c                	lw	a5,4(s0)
    144a:	053a                	slli	a0,a0,0xe
    144c:	d014                	sw	a3,32(s0)
    144e:	c848                	sw	a0,20(s0)
    1450:	40028737          	lui	a4,0x40028
    1454:	4310                	lw	a2,0(a4)
    1456:	8fcd                	or	a5,a5,a1
    1458:	ff2085b7          	lui	a1,0xff208
    145c:	10f58593          	addi	a1,a1,271 # ff20810f <_eusrstack+0xdf1e810f>
    1460:	8e6d                	and	a2,a2,a1
    1462:	8fd1                	or	a5,a5,a2
    1464:	4450                	lw	a2,12(s0)
    1466:	8fd1                	or	a5,a5,a2
    1468:	4810                	lw	a2,16(s0)
    146a:	8fd1                	or	a5,a5,a2
    146c:	4c10                	lw	a2,24(s0)
    146e:	8fd1                	or	a5,a5,a2
    1470:	4c50                	lw	a2,28(s0)
    1472:	8fd1                	or	a5,a5,a2
    1474:	5050                	lw	a2,36(s0)
    1476:	8fd1                	or	a5,a5,a2
    1478:	5410                	lw	a2,40(s0)
    147a:	8fd1                	or	a5,a5,a2
    147c:	5450                	lw	a2,44(s0)
    147e:	8fd1                	or	a5,a5,a2
    1480:	5810                	lw	a2,48(s0)
    1482:	8fd1                	or	a5,a5,a2
    1484:	5850                	lw	a2,52(s0)
    1486:	8fd1                	or	a5,a5,a2
    1488:	8fd5                	or	a5,a5,a3
    148a:	8fc9                	or	a5,a5,a0
    148c:	c31c                	sw	a5,0(a4)
    148e:	431c                	lw	a5,0(a4)
    1490:	001006b7          	lui	a3,0x100
    1494:	4505                	li	a0,1
    1496:	8fd5                	or	a5,a5,a3
    1498:	c31c                	sw	a5,0(a4)
    149a:	5c54                	lw	a3,60(s0)
    149c:	5c1c                	lw	a5,56(s0)
    149e:	8fd5                	or	a5,a5,a3
    14a0:	4034                	lw	a3,64(s0)
    14a2:	8fd5                	or	a5,a5,a3
    14a4:	4074                	lw	a3,68(s0)
    14a6:	8fd5                	or	a5,a5,a3
    14a8:	4434                	lw	a3,72(s0)
    14aa:	8fd5                	or	a5,a5,a3
    14ac:	4474                	lw	a3,76(s0)
    14ae:	8fd5                	or	a5,a5,a3
    14b0:	4834                	lw	a3,80(s0)
    14b2:	8fd5                	or	a5,a5,a3
    14b4:	4874                	lw	a3,84(s0)
    14b6:	8fd5                	or	a5,a5,a3
    14b8:	c35c                	sw	a5,4(a4)
    14ba:	4c3c                	lw	a5,88(s0)
    14bc:	c71c                	sw	a5,8(a4)
    14be:	4c7c                	lw	a5,92(s0)
    14c0:	c75c                	sw	a5,12(a4)
    14c2:	4f14                	lw	a3,24(a4)
    14c4:	507c                	lw	a5,100(s0)
    14c6:	5430                	lw	a2,104(s0)
    14c8:	8fd1                	or	a5,a5,a2
    14ca:	6641                	lui	a2,0x10
    14cc:	f4160613          	addi	a2,a2,-191 # ff41 <_data_lma+0x796d>
    14d0:	8ef1                	and	a3,a3,a2
    14d2:	8fd5                	or	a5,a5,a3
    14d4:	5474                	lw	a3,108(s0)
    14d6:	8fd5                	or	a5,a5,a3
    14d8:	5834                	lw	a3,112(s0)
    14da:	8fd5                	or	a5,a5,a3
    14dc:	5874                	lw	a3,116(s0)
    14de:	8fd5                	or	a5,a5,a3
    14e0:	5034                	lw	a3,96(s0)
    14e2:	06c2                	slli	a3,a3,0x10
    14e4:	8fd5                	or	a5,a5,a3
    14e6:	cf1c                	sw	a5,24(a4)
    14e8:	5c74                	lw	a3,124(s0)
    14ea:	5c3c                	lw	a5,120(s0)
    14ec:	8fd5                	or	a5,a5,a3
    14ee:	cf5c                	sw	a5,28(a4)
    14f0:	08442603          	lw	a2,132(s0)
    14f4:	08042783          	lw	a5,128(s0)
    14f8:	40029737          	lui	a4,0x40029
    14fc:	4f14                	lw	a3,24(a4)
    14fe:	8fd1                	or	a5,a5,a2
    1500:	f8de4637          	lui	a2,0xf8de4
    1504:	f2360613          	addi	a2,a2,-221 # f8de3f23 <_eusrstack+0xd8dc3f23>
    1508:	8ef1                	and	a3,a3,a2
    150a:	8fd5                	or	a5,a5,a3
    150c:	08842683          	lw	a3,136(s0)
    1510:	8fd5                	or	a5,a5,a3
    1512:	08c42683          	lw	a3,140(s0)
    1516:	8fd5                	or	a5,a5,a3
    1518:	09042683          	lw	a3,144(s0)
    151c:	8fd5                	or	a5,a5,a3
    151e:	09442683          	lw	a3,148(s0)
    1522:	8fd5                	or	a5,a5,a3
    1524:	09842683          	lw	a3,152(s0)
    1528:	8fd5                	or	a5,a5,a3
    152a:	09c42683          	lw	a3,156(s0)
    152e:	8fd5                	or	a5,a5,a3
    1530:	0a042683          	lw	a3,160(s0)
    1534:	8fd5                	or	a5,a5,a3
    1536:	cf1c                	sw	a5,24(a4)
    1538:	0a842683          	lw	a3,168(s0)
    153c:	0a442783          	lw	a5,164(s0)
    1540:	8fd5                	or	a5,a5,a3
    1542:	0b442683          	lw	a3,180(s0)
    1546:	068a                	slli	a3,a3,0x2
    1548:	8fd5                	or	a5,a5,a3
    154a:	0ac42683          	lw	a3,172(s0)
    154e:	8fd5                	or	a5,a5,a3
    1550:	0b042683          	lw	a3,176(s0)
    1554:	8fd5                	or	a5,a5,a3
    1556:	0b842683          	lw	a3,184(s0)
    155a:	8fd5                	or	a5,a5,a3
    155c:	008006b7          	lui	a3,0x800
    1560:	8fd5                	or	a5,a5,a3
    1562:	c31c                	sw	a5,0(a4)
    1564:	0141                	addi	sp,sp,16
    1566:	ceffe06f          	j	254 <__riscv_restore_0>

0000156a <Ethernet_Configuration>:
Ethernet_Configuration():
    156a:	cc7fe2ef          	jal	t0,230 <__riscv_save_0>
    156e:	7131                	addi	sp,sp,-192
    1570:	4585                	li	a1,1
    1572:	6571                	lui	a0,0x1c
    1574:	3afd                	jal	f72 <RCC_AHBPeriphClockCmd>
    1576:	40024737          	lui	a4,0x40024
    157a:	80072783          	lw	a5,-2048(a4) # 40023800 <_eusrstack+0x20003800>
    157e:	6409                	lui	s0,0x2
    1580:	0047e793          	ori	a5,a5,4
    1584:	80f72023          	sw	a5,-2048(a4)
    1588:	bdcff0ef          	jal	ra,964 <ETH_DeInit>
    158c:	e04ff0ef          	jal	ra,b90 <ETH_SoftwareReset>
    1590:	0048                	addi	a0,sp,4
    1592:	be6ff0ef          	jal	ra,978 <ETH_StructInit>
    1596:	6785                	lui	a5,0x1
    1598:	80078793          	addi	a5,a5,-2048 # 800 <__stack_size>
    159c:	d23e                	sw	a5,36(sp)
    159e:	67a1                	lui	a5,0x8
    15a0:	cc3e                	sw	a5,24(sp)
    15a2:	20000713          	li	a4,512
    15a6:	4785                	li	a5,1
    15a8:	c23e                	sw	a5,4(sp)
    15aa:	d63a                	sw	a4,44(sp)
    15ac:	c8be                	sw	a5,80(sp)
    15ae:	80000737          	lui	a4,0x80000
    15b2:	020007b7          	lui	a5,0x2000
    15b6:	de3a                	sw	a4,60(sp)
    15b8:	c53e                	sw	a5,136(sp)
    15ba:	d53e                	sw	a5,168(sp)
    15bc:	00200737          	lui	a4,0x200
    15c0:	67c1                	lui	a5,0x10
    15c2:	c93a                	sw	a4,144(sp)
    15c4:	d73e                	sw	a5,172(sp)
    15c6:	08000713          	li	a4,128
    15ca:	004007b7          	lui	a5,0x400
    15ce:	cd3a                	sw	a4,152(sp)
    15d0:	d93e                	sw	a5,176(sp)
    15d2:	04000713          	li	a4,64
    15d6:	6791                	lui	a5,0x4
    15d8:	4585                	li	a1,1
    15da:	0048                	addi	a0,sp,4
    15dc:	cf3a                	sw	a4,156(sp)
    15de:	df3e                	sw	a5,188(sp)
    15e0:	db22                	sw	s0,180(sp)
    15e2:	d002                	sw	zero,32(sp)
    15e4:	d802                	sw	zero,48(sp)
    15e6:	c482                	sw	zero,72(sp)
    15e8:	ca82                	sw	zero,84(sp)
    15ea:	cc82                	sw	zero,88(sp)
    15ec:	c302                	sw	zero,132(sp)
    15ee:	d302                	sw	zero,164(sp)
    15f0:	3d19                	jal	1406 <ETH_Init>
    15f2:	80010537          	lui	a0,0x80010
    15f6:	4585                	li	a1,1
    15f8:	04150513          	addi	a0,a0,65 # 80010041 <_eusrstack+0x5fff0041>
    15fc:	deaff0ef          	jal	ra,be6 <ETH_DMAITConfig>
    1600:	e000e7b7          	lui	a5,0xe000e
    1604:	440786a3          	sb	zero,1101(a5) # e000e44d <_eusrstack+0xbffee44d>
    1608:	1087a423          	sw	s0,264(a5)
    160c:	d59fe0ef          	jal	ra,364 <Ethernet_LED_Configuration>
    1610:	6129                	addi	sp,sp,192
    1612:	c43fe06f          	j	254 <__riscv_restore_0>

00001616 <CH563TCPError>:
CH563TCPError():
    1616:	8082                	ret

00001618 <LwipTCPSendCallBack>:
LwipTCPSendCallBack():
    1618:	03852803          	lw	a6,56(a0)
    161c:	02080a63          	beqz	a6,1650 <LwipTCPSendCallBack+0x38>
    1620:	c11fe2ef          	jal	t0,230 <__riscv_save_0>
    1624:	5dbc                	lw	a5,120(a1)
    1626:	4701                	li	a4,0
    1628:	c791                	beqz	a5,1634 <LwipTCPSendCallBack+0x1c>
    162a:	0705                	addi	a4,a4,1
    162c:	0742                	slli	a4,a4,0x10
    162e:	8341                	srli	a4,a4,0x10
    1630:	439c                	lw	a5,0(a5)
    1632:	bfdd                	j	1628 <LwipTCPSendCallBack+0x10>
    1634:	5dfc                	lw	a5,124(a1)
    1636:	c791                	beqz	a5,1642 <LwipTCPSendCallBack+0x2a>
    1638:	0705                	addi	a4,a4,1
    163a:	0742                	slli	a4,a4,0x10
    163c:	8341                	srli	a4,a4,0x10
    163e:	439c                	lw	a5,0(a5)
    1640:	bfdd                	j	1636 <LwipTCPSendCallBack+0x1e>
    1642:	4681                	li	a3,0
    1644:	4601                	li	a2,0
    1646:	4581                	li	a1,0
    1648:	9802                	jalr	a6
    164a:	4501                	li	a0,0
    164c:	c09fe06f          	j	254 <__riscv_restore_0>
    1650:	4501                	li	a0,0
    1652:	8082                	ret

00001654 <LwipTCPPollCallBack>:
LwipTCPPollCallBack():
    1654:	4501                	li	a0,0
    1656:	8082                	ret

00001658 <SocketIPRAWReceive>:
SocketIPRAWReceive():
    1658:	bbffe2ef          	jal	t0,216 <__riscv_save_4>
    165c:	425c                	lw	a5,4(a2)
    165e:	4900                	lw	s0,16(a0)
    1660:	00c52903          	lw	s2,12(a0)
    1664:	84aa                	mv	s1,a0
    1666:	2388                	fld	fa0,0(a5)
    1668:	339c                	fld	fa5,32(a5)
    166a:	8a32                	mv	s4,a2
    166c:	07a2                	slli	a5,a5,0x8
    166e:	8d5d                	or	a0,a0,a5
    1670:	243010ef          	jal	ra,30b2 <ntohs>
    1674:	00655593          	srli	a1,a0,0x6
    1678:	03c5f593          	andi	a1,a1,60
    167c:	40b005b3          	neg	a1,a1
    1680:	8552                	mv	a0,s4
    1682:	1a7020ef          	jal	ra,4028 <pbuf_header>
    1686:	e941                	bnez	a0,1716 <SocketIPRAWReceive+0xbe>
    1688:	c019                	beqz	s0,168e <SocketIPRAWReceive+0x36>
    168a:	44dc                	lw	a5,12(s1)
    168c:	e799                	bnez	a5,169a <SocketIPRAWReceive+0x42>
    168e:	8552                	mv	a0,s4
    1690:	207020ef          	jal	ra,4096 <pbuf_free>
    1694:	4505                	li	a0,1
    1696:	bb5fe06f          	j	24a <__riscv_restore_4>
    169a:	01240733          	add	a4,s0,s2
    169e:	87d2                	mv	a5,s4
    16a0:	4981                	li	s3,0
    16a2:	177d                	addi	a4,a4,-1
    16a4:	27b6                	fld	fa5,328(sp)
    16a6:	43cc                	lw	a1,4(a5)
    16a8:	99b6                	add	s3,s3,a3
    16aa:	09c2                	slli	s3,s3,0x10
    16ac:	96a2                	add	a3,a3,s0
    16ae:	0109d993          	srli	s3,s3,0x10
    16b2:	04d76a63          	bltu	a4,a3,1706 <SocketIPRAWReceive+0xae>
    16b6:	4681                	li	a3,0
    16b8:	00a7d803          	lhu	a6,10(a5)
    16bc:	01069513          	slli	a0,a3,0x10
    16c0:	8141                	srli	a0,a0,0x10
    16c2:	00d40633          	add	a2,s0,a3
    16c6:	05056263          	bltu	a0,a6,170a <SocketIPRAWReceive+0xb2>
    16ca:	8432                	mv	s0,a2
    16cc:	a015                	j	16f0 <SocketIPRAWReceive+0x98>
    16ce:	00d58533          	add	a0,a1,a3
    16d2:	2108                	fld	fa0,0(a0)
    16d4:	00140613          	addi	a2,s0,1 # 2001 <SocketIPRawSend+0x6f>
    16d8:	a008                	fsd	fa0,0(s0)
    16da:	00c77363          	bgeu	a4,a2,16e0 <SocketIPRAWReceive+0x88>
    16de:	4490                	lw	a2,8(s1)
    16e0:	0685                	addi	a3,a3,1
    16e2:	8432                	mv	s0,a2
    16e4:	27aa                	fld	fa5,136(sp)
    16e6:	01069613          	slli	a2,a3,0x10
    16ea:	8241                	srli	a2,a2,0x10
    16ec:	fea661e3          	bltu	a2,a0,16ce <SocketIPRAWReceive+0x76>
    16f0:	439c                	lw	a5,0(a5)
    16f2:	fbcd                	bnez	a5,16a4 <SocketIPRAWReceive+0x4c>
    16f4:	8552                	mv	a0,s4
    16f6:	1a1020ef          	jal	ra,4096 <pbuf_free>
    16fa:	4c9c                	lw	a5,24(s1)
    16fc:	c880                	sw	s0,16(s1)
    16fe:	99be                	add	s3,s3,a5
    1700:	0134ac23          	sw	s3,24(s1) # 2018 <SocketIPRawSend+0x86>
    1704:	bf41                	j	1694 <SocketIPRAWReceive+0x3c>
    1706:	4681                	li	a3,0
    1708:	bff1                	j	16e4 <SocketIPRAWReceive+0x8c>
    170a:	00d58533          	add	a0,a1,a3
    170e:	2108                	fld	fa0,0(a0)
    1710:	0685                	addi	a3,a3,1
    1712:	a208                	fsd	fa0,0(a2)
    1714:	b755                	j	16b8 <SocketIPRAWReceive+0x60>
    1716:	4501                	li	a0,0
    1718:	bfbd                	j	1696 <SocketIPRAWReceive+0x3e>

0000171a <SocketUdpReceive>:
SocketUdpReceive():
    171a:	afdfe2ef          	jal	t0,216 <__riscv_save_4>
    171e:	842a                	mv	s0,a0
    1720:	8532                	mv	a0,a2
    1722:	5c10                	lw	a2,56(s0)
    1724:	1141                	addi	sp,sp,-16
    1726:	4804                	lw	s1,16(s0)
    1728:	00c42803          	lw	a6,12(s0)
    172c:	ee19                	bnez	a2,174a <SocketUdpReceive+0x30>
    172e:	009805b3          	add	a1,a6,s1
    1732:	15fd                	addi	a1,a1,-1
    1734:	c901                	beqz	a0,1744 <SocketUdpReceive+0x2a>
    1736:	863a                	mv	a2,a4
    1738:	8936                	mv	s2,a3
    173a:	c099                	beqz	s1,1740 <SocketUdpReceive+0x26>
    173c:	00081963          	bnez	a6,174e <SocketUdpReceive+0x34>
    1740:	157020ef          	jal	ra,4096 <pbuf_free>
    1744:	0141                	addi	sp,sp,16
    1746:	b05fe06f          	j	24a <__riscv_restore_4>
    174a:	4404                	lw	s1,8(s0)
    174c:	b7cd                	j	172e <SocketUdpReceive+0x14>
    174e:	87aa                	mv	a5,a0
    1750:	4981                	li	s3,0
    1752:	27b6                	fld	fa5,328(sp)
    1754:	0047a803          	lw	a6,4(a5)
    1758:	99b6                	add	s3,s3,a3
    175a:	09c2                	slli	s3,s3,0x10
    175c:	96a6                	add	a3,a3,s1
    175e:	0109d993          	srli	s3,s3,0x10
    1762:	08d5eb63          	bltu	a1,a3,17f8 <SocketUdpReceive+0xde>
    1766:	4681                	li	a3,0
    1768:	00a7d303          	lhu	t1,10(a5)
    176c:	01069893          	slli	a7,a3,0x10
    1770:	0108d893          	srli	a7,a7,0x10
    1774:	00d48733          	add	a4,s1,a3
    1778:	0868e263          	bltu	a7,t1,17fc <SocketUdpReceive+0xe2>
    177c:	84ba                	mv	s1,a4
    177e:	a02d                	j	17a8 <SocketUdpReceive+0x8e>
    1780:	00d808b3          	add	a7,a6,a3
    1784:	0008c883          	lbu	a7,0(a7) # 40100000 <_eusrstack+0x200e0000>
    1788:	00148713          	addi	a4,s1,1
    178c:	01148023          	sb	a7,0(s1)
    1790:	00e5f363          	bgeu	a1,a4,1796 <SocketUdpReceive+0x7c>
    1794:	4418                	lw	a4,8(s0)
    1796:	0685                	addi	a3,a3,1
    1798:	84ba                	mv	s1,a4
    179a:	00a7d883          	lhu	a7,10(a5)
    179e:	01069713          	slli	a4,a3,0x10
    17a2:	8341                	srli	a4,a4,0x10
    17a4:	fd176ee3          	bltu	a4,a7,1780 <SocketUdpReceive+0x66>
    17a8:	439c                	lw	a5,0(a5)
    17aa:	f7c5                	bnez	a5,1752 <SocketUdpReceive+0x38>
    17ac:	c632                	sw	a2,12(sp)
    17ae:	0e9020ef          	jal	ra,4096 <pbuf_free>
    17b2:	6705                	lui	a4,0x1
    17b4:	03842803          	lw	a6,56(s0)
    17b8:	87ce                	mv	a5,s3
    17ba:	4632                	lw	a2,12(sp)
    17bc:	01377363          	bgeu	a4,s3,17c2 <SocketUdpReceive+0xa8>
    17c0:	6785                	lui	a5,0x1
    17c2:	01079713          	slli	a4,a5,0x10
    17c6:	8341                	srli	a4,a4,0x10
    17c8:	04080263          	beqz	a6,180c <SocketUdpReceive+0xf2>
    17cc:	00194583          	lbu	a1,1(s2)
    17d0:	00094783          	lbu	a5,0(s2)
    17d4:	4414                	lw	a3,8(s0)
    17d6:	05a2                	slli	a1,a1,0x8
    17d8:	8ddd                	or	a1,a1,a5
    17da:	00294783          	lbu	a5,2(s2)
    17de:	8522                	mv	a0,s0
    17e0:	07c2                	slli	a5,a5,0x10
    17e2:	8fcd                	or	a5,a5,a1
    17e4:	00394583          	lbu	a1,3(s2)
    17e8:	05e2                	slli	a1,a1,0x18
    17ea:	8ddd                	or	a1,a1,a5
    17ec:	9802                	jalr	a6
    17ee:	441c                	lw	a5,8(s0)
    17f0:	00042c23          	sw	zero,24(s0)
    17f4:	c81c                	sw	a5,16(s0)
    17f6:	b7b9                	j	1744 <SocketUdpReceive+0x2a>
    17f8:	4681                	li	a3,0
    17fa:	b745                	j	179a <SocketUdpReceive+0x80>
    17fc:	00d808b3          	add	a7,a6,a3
    1800:	0008c883          	lbu	a7,0(a7)
    1804:	0685                	addi	a3,a3,1
    1806:	01170023          	sb	a7,0(a4) # 1000 <RCC_GetFlagStatus+0x2a>
    180a:	bfb9                	j	1768 <SocketUdpReceive+0x4e>
    180c:	4c1c                	lw	a5,24(s0)
    180e:	c804                	sw	s1,16(s0)
    1810:	973e                	add	a4,a4,a5
    1812:	cc18                	sw	a4,24(s0)
    1814:	bf05                	j	1744 <SocketUdpReceive+0x2a>

00001816 <WCHSocketTCPReceive>:
WCHSocketTCPReceive():
    1816:	9ebfe2ef          	jal	t0,200 <__riscv_save_12>
    181a:	86418713          	addi	a4,gp,-1948 # 20000074 <tcppackt>
    181e:	00072803          	lw	a6,0(a4)
    1822:	491c                	lw	a5,16(a0)
    1824:	00c52983          	lw	s3,12(a0)
    1828:	0805                	addi	a6,a6,1
    182a:	01072023          	sw	a6,0(a4)
    182e:	10078f63          	beqz	a5,194c <WCHSocketTCPReceive+0x136>
    1832:	8ab2                	mv	s5,a2
    1834:	892e                	mv	s2,a1
    1836:	842a                	mv	s0,a0
    1838:	10060463          	beqz	a2,1940 <WCHSocketTCPReceive+0x12a>
    183c:	0265c703          	lbu	a4,38(a1)
    1840:	99be                	add	s3,s3,a5
    1842:	fff98b93          	addi	s7,s3,-1
    1846:	9b71                	andi	a4,a4,-4
    1848:	09c2                	slli	s3,s3,0x10
    184a:	00865c03          	lhu	s8,8(a2)
    184e:	84b2                	mv	s1,a2
    1850:	02e58323          	sb	a4,38(a1)
    1854:	4c91                	li	s9,4
    1856:	96c18b13          	addi	s6,gp,-1684 # 2000017c <WCHCfg>
    185a:	0109d993          	srli	s3,s3,0x10
    185e:	24b2                	fld	fs1,264(sp)
    1860:	0044ad03          	lw	s10,4(s1)
    1864:	00c78733          	add	a4,a5,a2
    1868:	0aebf163          	bgeu	s7,a4,190a <WCHSocketTCPReceive+0xf4>
    186c:	010b2703          	lw	a4,16(s6)
    1870:	8b09                	andi	a4,a4,2
    1872:	cb51                	beqz	a4,1906 <WCHSocketTCPReceive+0xf0>
    1874:	01079a13          	slli	s4,a5,0x10
    1878:	010a5a13          	srli	s4,s4,0x10
    187c:	41498db3          	sub	s11,s3,s4
    1880:	0dc2                	slli	s11,s11,0x10
    1882:	010ddd93          	srli	s11,s11,0x10
    1886:	853e                	mv	a0,a5
    1888:	866e                	mv	a2,s11
    188a:	85ea                	mv	a1,s10
    188c:	2c1060ef          	jal	ra,834c <memcpy>
    1890:	24ba                	fld	fs1,392(sp)
    1892:	441c                	lw	a5,8(s0)
    1894:	41b706b3          	sub	a3,a4,s11
    1898:	02d05063          	blez	a3,18b8 <WCHSocketTCPReceive+0xa2>
    189c:	41370733          	sub	a4,a4,s3
    18a0:	9a3a                	add	s4,s4,a4
    18a2:	0a42                	slli	s4,s4,0x10
    18a4:	010a5a13          	srli	s4,s4,0x10
    18a8:	853e                	mv	a0,a5
    18aa:	8652                	mv	a2,s4
    18ac:	01bd05b3          	add	a1,s10,s11
    18b0:	29d060ef          	jal	ra,834c <memcpy>
    18b4:	014507b3          	add	a5,a0,s4
    18b8:	4084                	lw	s1,0(s1)
    18ba:	f0d5                	bnez	s1,185e <WCHSocketTCPReceive+0x48>
    18bc:	4c18                	lw	a4,24(s0)
    18be:	c81c                	sw	a5,16(s0)
    18c0:	8556                	mv	a0,s5
    18c2:	9c3a                	add	s8,s8,a4
    18c4:	01842c23          	sw	s8,24(s0)
    18c8:	7ce020ef          	jal	ra,4096 <pbuf_free>
    18cc:	445c                	lw	a5,12(s0)
    18ce:	4c18                	lw	a4,24(s0)
    18d0:	854a                	mv	a0,s2
    18d2:	8f99                	sub	a5,a5,a4
    18d4:	02f91623          	sh	a5,44(s2)
    18d8:	563020ef          	jal	ra,463a <tcp_update_rcv_ann_wnd>
    18dc:	4501                	li	a0,0
    18de:	95ffe06f          	j	23c <__riscv_restore_12>
    18e2:	00ed0633          	add	a2,s10,a4
    18e6:	2210                	fld	fa2,0(a2)
    18e8:	00178693          	addi	a3,a5,1 # 1001 <RCC_GetFlagStatus+0x2b>
    18ec:	a390                	fsd	fa2,0(a5)
    18ee:	00dbf363          	bgeu	s7,a3,18f4 <WCHSocketTCPReceive+0xde>
    18f2:	4414                	lw	a3,8(s0)
    18f4:	0705                	addi	a4,a4,1
    18f6:	87b6                	mv	a5,a3
    18f8:	24b2                	fld	fs1,264(sp)
    18fa:	01071693          	slli	a3,a4,0x10
    18fe:	82c1                	srli	a3,a3,0x10
    1900:	fec6e1e3          	bltu	a3,a2,18e2 <WCHSocketTCPReceive+0xcc>
    1904:	bf55                	j	18b8 <WCHSocketTCPReceive+0xa2>
    1906:	4701                	li	a4,0
    1908:	bfc5                	j	18f8 <WCHSocketTCPReceive+0xe2>
    190a:	02ccf963          	bgeu	s9,a2,193c <WCHSocketTCPReceive+0x126>
    190e:	853e                	mv	a0,a5
    1910:	85ea                	mv	a1,s10
    1912:	23b060ef          	jal	ra,834c <memcpy>
    1916:	24ba                	fld	fs1,392(sp)
    1918:	00e507b3          	add	a5,a0,a4
    191c:	bf71                	j	18b8 <WCHSocketTCPReceive+0xa2>
    191e:	00ed0633          	add	a2,s10,a4
    1922:	2210                	fld	fa2,0(a2)
    1924:	0705                	addi	a4,a4,1
    1926:	a290                	fsd	fa2,0(a3)
    1928:	24ae                	fld	fs1,200(sp)
    192a:	01071613          	slli	a2,a4,0x10
    192e:	8241                	srli	a2,a2,0x10
    1930:	00e786b3          	add	a3,a5,a4
    1934:	feb665e3          	bltu	a2,a1,191e <WCHSocketTCPReceive+0x108>
    1938:	87b6                	mv	a5,a3
    193a:	bfbd                	j	18b8 <WCHSocketTCPReceive+0xa2>
    193c:	4701                	li	a4,0
    193e:	b7ed                	j	1928 <WCHSocketTCPReceive+0x112>
    1940:	4501                	li	a0,0
    1942:	fed1                	bnez	a3,18de <WCHSocketTCPReceive+0xc8>
    1944:	852e                	mv	a0,a1
    1946:	168030ef          	jal	ra,4aae <tcp_close>
    194a:	bf51                	j	18de <WCHSocketTCPReceive+0xc8>
    194c:	557d                	li	a0,-1
    194e:	bf41                	j	18de <WCHSocketTCPReceive+0xc8>

00001950 <LwipTcpConnectedCallBack>:
LwipTcpConnectedCallBack():
    1950:	8e1fe2ef          	jal	t0,230 <__riscv_save_0>
    1954:	842e                	mv	s0,a1
    1956:	000025b7          	lui	a1,0x2
    195a:	84aa                	mv	s1,a0
    195c:	81658593          	addi	a1,a1,-2026 # 1816 <WCHSocketTCPReceive>
    1960:	8522                	mv	a0,s0
    1962:	5d1020ef          	jal	ra,4732 <tcp_recv>
    1966:	000015b7          	lui	a1,0x1
    196a:	8522                	mv	a0,s0
    196c:	61858593          	addi	a1,a1,1560 # 1618 <LwipTCPSendCallBack>
    1970:	5c9020ef          	jal	ra,4738 <tcp_sent>
    1974:	000015b7          	lui	a1,0x1
    1978:	8522                	mv	a0,s0
    197a:	4605                	li	a2,1
    197c:	65458593          	addi	a1,a1,1620 # 1654 <LwipTCPPollCallBack>
    1980:	5c5020ef          	jal	ra,4744 <tcp_poll>
    1984:	209c                	fld	fa5,0(s1)
    1986:	4501                	li	a0,0
    1988:	0087e793          	ori	a5,a5,8
    198c:	c09c                	sw	a5,0(s1)
    198e:	8c7fe06f          	j	254 <__riscv_restore_0>

00001992 <ErrorEncode>:
ErrorEncode():
    1992:	c919                	beqz	a0,19a8 <ErrorEncode+0x16>
    1994:	40a00533          	neg	a0,a0
    1998:	67a1                	lui	a5,0x8
    199a:	54878793          	addi	a5,a5,1352 # 8548 <ErrTable>
    199e:	0ff57513          	andi	a0,a0,255
    19a2:	953e                	add	a0,a0,a5
    19a4:	2108                	fld	fa0,0(a0)
    19a6:	8082                	ret
    19a8:	4501                	li	a0,0
    19aa:	8082                	ret

000019ac <MemShortCopy>:
MemShortCopy():
    19ac:	4781                	li	a5,0
    19ae:	01079713          	slli	a4,a5,0x10
    19b2:	8341                	srli	a4,a4,0x10
    19b4:	00e61363          	bne	a2,a4,19ba <MemShortCopy+0xe>
    19b8:	8082                	ret
    19ba:	00f58733          	add	a4,a1,a5
    19be:	2314                	fld	fa3,0(a4)
    19c0:	00f50733          	add	a4,a0,a5
    19c4:	0785                	addi	a5,a5,1
    19c6:	a314                	fsd	fa3,0(a4)
    19c8:	b7dd                	j	19ae <MemShortCopy+0x2>

000019ca <WCHSocketInit>:
WCHSocketInit():
    19ca:	867fe2ef          	jal	t0,230 <__riscv_save_0>
    19ce:	03c00793          	li	a5,60
    19d2:	02f587b3          	mul	a5,a1,a5
    19d6:	20009437          	lui	s0,0x20009
    19da:	04040713          	addi	a4,s0,64 # 20009040 <SocketInf>
    19de:	892a                	mv	s2,a0
    19e0:	84ae                	mv	s1,a1
    19e2:	03c00613          	li	a2,60
    19e6:	4581                	li	a1,0
    19e8:	04040413          	addi	s0,s0,64
    19ec:	97ba                	add	a5,a5,a4
    19ee:	853e                	mv	a0,a5
    19f0:	871fe0ef          	jal	ra,260 <memset>
    19f4:	00090763          	beqz	s2,1a02 <WCHSocketInit+0x38>
    19f8:	03c00613          	li	a2,60
    19fc:	85ca                	mv	a1,s2
    19fe:	14f060ef          	jal	ra,834c <memcpy>
    1a02:	03c00593          	li	a1,60
    1a06:	02b485b3          	mul	a1,s1,a1
    1a0a:	95a2                	add	a1,a1,s0
    1a0c:	459c                	lw	a5,8(a1)
    1a0e:	c99c                	sw	a5,16(a1)
    1a10:	c9dc                	sw	a5,20(a1)
    1a12:	843fe06f          	j	254 <__riscv_restore_0>

00001a16 <WCHNET_Init>:
WCHNET_Init():
    1a16:	801fe2ef          	jal	t0,216 <__riscv_save_4>
    1a1a:	1141                	addi	sp,sp,-16
    1a1c:	8a2a                	mv	s4,a0
    1a1e:	89ae                	mv	s3,a1
    1a20:	92818513          	addi	a0,gp,-1752 # 20000138 <NetInf>
    1a24:	4581                	li	a1,0
    1a26:	84b2                	mv	s1,a2
    1a28:	04400613          	li	a2,68
    1a2c:	c636                	sw	a3,12(sp)
    1a2e:	833fe0ef          	jal	ra,260 <memset>
    1a32:	4661                	li	a2,24
    1a34:	4581                	li	a1,0
    1a36:	98018513          	addi	a0,gp,-1664 # 20000190 <DHCPCtrl>
    1a3a:	827fe0ef          	jal	ra,260 <memset>
    1a3e:	4611                	li	a2,4
    1a40:	85d2                	mv	a1,s4
    1a42:	92818513          	addi	a0,gp,-1752 # 20000138 <NetInf>
    1a46:	107060ef          	jal	ra,834c <memcpy>
    1a4a:	92818913          	addi	s2,gp,-1752 # 20000138 <NetInf>
    1a4e:	4611                	li	a2,4
    1a50:	85ce                	mv	a1,s3
    1a52:	00490513          	addi	a0,s2,4
    1a56:	0f7060ef          	jal	ra,834c <memcpy>
    1a5a:	46b2                	lw	a3,12(sp)
    1a5c:	4619                	li	a2,6
    1a5e:	00c90513          	addi	a0,s2,12
    1a62:	85b6                	mv	a1,a3
    1a64:	0e9060ef          	jal	ra,834c <memcpy>
    1a68:	92818413          	addi	s0,gp,-1752 # 20000138 <NetInf>
    1a6c:	e4c1                	bnez	s1,1af4 <WCHNET_Init+0xde>
    1a6e:	57fd                	li	a5,-1
    1a70:	b41c                	fsd	fa5,40(s0)
    1a72:	a43c                	fsd	fa5,72(s0)
    1a74:	47d1                	li	a5,20
    1a76:	cc1c                	sw	a5,24(s0)
    1a78:	47a9                	li	a5,10
    1a7a:	cc5c                	sw	a5,28(s0)
    1a7c:	4789                	li	a5,2
    1a7e:	c03c                	sw	a5,64(s0)
    1a80:	4481                	li	s1,0
    1a82:	02000913          	li	s2,32
    1a86:	85a6                	mv	a1,s1
    1a88:	0485                	addi	s1,s1,1
    1a8a:	4501                	li	a0,0
    1a8c:	0ff4f493          	andi	s1,s1,255
    1a90:	3f2d                	jal	19ca <WCHSocketInit>
    1a92:	ff249ae3          	bne	s1,s2,1a86 <WCHNET_Init+0x70>
    1a96:	3cd1                	jal	156a <Ethernet_Configuration>
    1a98:	200085b7          	lui	a1,0x20008
    1a9c:	20008537          	lui	a0,0x20008
    1aa0:	4609                	li	a2,2
    1aa2:	32058593          	addi	a1,a1,800 # 20008320 <MACTxBuf>
    1aa6:	26050513          	addi	a0,a0,608 # 20008260 <DMATxDscrTab>
    1aaa:	850ff0ef          	jal	ra,afa <ETH_DMATxDescChainInit>
    1aae:	200005b7          	lui	a1,0x20000
    1ab2:	20008537          	lui	a0,0x20008
    1ab6:	4629                	li	a2,10
    1ab8:	35458593          	addi	a1,a1,852 # 20000354 <MACRxBuf>
    1abc:	28050513          	addi	a0,a0,640 # 20008280 <DMARxDscrTab>
    1ac0:	880ff0ef          	jal	ra,b40 <ETH_DMARxDescChainInit>
    1ac4:	8eaff0ef          	jal	ra,bae <ETH_Start>
    1ac8:	89dfe0ef          	jal	ra,364 <Ethernet_LED_Configuration>
    1acc:	440010ef          	jal	ra,2f0c <SetupNetif>
    1ad0:	4785                	li	a5,1
    1ad2:	d05c                	sw	a5,36(s0)
    1ad4:	6715                	lui	a4,0x5
    1ad6:	91c18793          	addi	a5,gp,-1764 # 2000012c <KeepLiveCfg>
    1ada:	e2070713          	addi	a4,a4,-480 # 4e20 <tcp_eff_send_mss+0x24>
    1ade:	c398                	sw	a4,0(a5)
    1ae0:	6711                	lui	a4,0x4
    1ae2:	a9870713          	addi	a4,a4,-1384 # 3a98 <ip_frag+0x12>
    1ae6:	c3d8                	sw	a4,4(a5)
    1ae8:	4725                	li	a4,9
    1aea:	c798                	sw	a4,8(a5)
    1aec:	4501                	li	a0,0
    1aee:	0141                	addi	sp,sp,16
    1af0:	f5afe06f          	j	24a <__riscv_restore_4>
    1af4:	4611                	li	a2,4
    1af6:	85a6                	mv	a1,s1
    1af8:	00840513          	addi	a0,s0,8
    1afc:	051060ef          	jal	ra,834c <memcpy>
    1b00:	bf95                	j	1a74 <WCHNET_Init+0x5e>

00001b02 <WCHNET_ConfigLIB>:
WCHNET_ConfigLIB():
    1b02:	4118                	lw	a4,0(a0)
    1b04:	96c18793          	addi	a5,gp,-1684 # 2000017c <WCHCfg>
    1b08:	c398                	sw	a4,0(a5)
    1b0a:	4158                	lw	a4,4(a0)
    1b0c:	c3d8                	sw	a4,4(a5)
    1b0e:	4518                	lw	a4,8(a0)
    1b10:	c798                	sw	a4,8(a5)
    1b12:	4558                	lw	a4,12(a0)
    1b14:	c7d8                	sw	a4,12(a5)
    1b16:	4918                	lw	a4,16(a0)
    1b18:	4501                	li	a0,0
    1b1a:	cb98                	sw	a4,16(a5)
    1b1c:	8082                	ret

00001b1e <PhyDataLed_fun>:
PhyDataLed_fun():
    1b1e:	f12fe2ef          	jal	t0,230 <__riscv_save_0>
    1b22:	85c18493          	addi	s1,gp,-1956 # 2000006c <phydata>
    1b26:	4098                	lw	a4,0(s1)
    1b28:	47a5                	li	a5,9
    1b2a:	86018413          	addi	s0,gp,-1952 # 20000070 <phydatatime>
    1b2e:	02e7f463          	bgeu	a5,a4,1b56 <PhyDataLed_fun+0x38>
    1b32:	4505                	li	a0,1
    1b34:	887fe0ef          	jal	ra,3ba <Ethernet_LED_DATASET>
    1b38:	4018                	lw	a4,0(s0)
    1b3a:	8881a783          	lw	a5,-1912(gp) # 20000098 <LocalTime>
    1b3e:	8f99                	sub	a5,a5,a4
    1b40:	06400713          	li	a4,100
    1b44:	00f77763          	bgeu	a4,a5,1b52 <PhyDataLed_fun+0x34>
    1b48:	4501                	li	a0,0
    1b4a:	0004a023          	sw	zero,0(s1)
    1b4e:	86dfe0ef          	jal	ra,3ba <Ethernet_LED_DATASET>
    1b52:	f02fe06f          	j	254 <__riscv_restore_0>
    1b56:	8881a783          	lw	a5,-1912(gp) # 20000098 <LocalTime>
    1b5a:	c01c                	sw	a5,0(s0)
    1b5c:	bfdd                	j	1b52 <PhyDataLed_fun+0x34>

00001b5e <WCHNET_TimeIsr>:
WCHNET_TimeIsr():
    1b5e:	8881a783          	lw	a5,-1912(gp) # 20000098 <LocalTime>
    1b62:	953e                	add	a0,a0,a5
    1b64:	88a1a423          	sw	a0,-1912(gp) # 20000098 <LocalTime>
    1b68:	8082                	ret

00001b6a <WCHFindCorrectTCBPcb>:
WCHFindCorrectTCBPcb():
    1b6a:	20009737          	lui	a4,0x20009
    1b6e:	04070693          	addi	a3,a4,64 # 20009040 <SocketInf>
    1b72:	4781                	li	a5,0
    1b74:	04070713          	addi	a4,a4,64
    1b78:	02000613          	li	a2,32
    1b7c:	03072803          	lw	a6,48(a4)
    1b80:	00a81763          	bne	a6,a0,1b8e <WCHFindCorrectTCBPcb+0x24>
    1b84:	c509                	beqz	a0,1b8e <WCHFindCorrectTCBPcb+0x24>
    1b86:	4505                	li	a0,1
    1b88:	cd95                	beqz	a1,1bc4 <WCHFindCorrectTCBPcb+0x5a>
    1b8a:	a19c                	fsd	fa5,0(a1)
    1b8c:	8082                	ret
    1b8e:	0785                	addi	a5,a5,1
    1b90:	0ff7f793          	andi	a5,a5,255
    1b94:	03c70713          	addi	a4,a4,60
    1b98:	fec792e3          	bne	a5,a2,1b7c <WCHFindCorrectTCBPcb+0x12>
    1b9c:	4781                	li	a5,0
    1b9e:	02000713          	li	a4,32
    1ba2:	5ad0                	lw	a2,52(a3)
    1ba4:	00c51863          	bne	a0,a2,1bb4 <WCHFindCorrectTCBPcb+0x4a>
    1ba8:	c511                	beqz	a0,1bb4 <WCHFindCorrectTCBPcb+0x4a>
    1baa:	4505                	li	a0,1
    1bac:	cd81                	beqz	a1,1bc4 <WCHFindCorrectTCBPcb+0x5a>
    1bae:	f807e793          	ori	a5,a5,-128
    1bb2:	bfe1                	j	1b8a <WCHFindCorrectTCBPcb+0x20>
    1bb4:	0785                	addi	a5,a5,1
    1bb6:	0ff7f793          	andi	a5,a5,255
    1bba:	03c68693          	addi	a3,a3,60 # 80003c <_data_lma+0x7f7a68>
    1bbe:	fee792e3          	bne	a5,a4,1ba2 <WCHFindCorrectTCBPcb+0x38>
    1bc2:	4501                	li	a0,0
    1bc4:	8082                	ret

00001bc6 <WCHNET_SocketCreat>:
WCHNET_SocketCreat():
    1bc6:	e50fe2ef          	jal	t0,216 <__riscv_save_4>
    1bca:	20009937          	lui	s2,0x20009
    1bce:	04090793          	addi	a5,s2,64 # 20009040 <SocketInf>
    1bd2:	1141                	addi	sp,sp,-16
    1bd4:	00050023          	sb	zero,0(a0)
    1bd8:	4401                	li	s0,0
    1bda:	04090913          	addi	s2,s2,64
    1bde:	02000713          	li	a4,32
    1be2:	5394                	lw	a3,32(a5)
    1be4:	16068a63          	beqz	a3,1d58 <WCHNET_SocketCreat+0x192>
    1be8:	0405                	addi	s0,s0,1
    1bea:	0ff47413          	andi	s0,s0,255
    1bee:	03c78793          	addi	a5,a5,60
    1bf2:	fee418e3          	bne	s0,a4,1be2 <WCHNET_SocketCreat+0x1c>
    1bf6:	8522                	mv	a0,s0
    1bf8:	0141                	addi	sp,sp,16
    1bfa:	e50fe06f          	j	24a <__riscv_restore_4>
    1bfe:	9281a783          	lw	a5,-1752(gp) # 20000138 <NetInf>
    1c02:	006c                	addi	a1,sp,12
    1c04:	c63e                	sw	a5,12(sp)
    1c06:	7c2020ef          	jal	ra,43c8 <raw_bind>
    1c0a:	4611                	li	a2,4
    1c0c:	02c48593          	addi	a1,s1,44
    1c10:	0068                	addi	a0,sp,12
    1c12:	73a060ef          	jal	ra,834c <memcpy>
    1c16:	006c                	addi	a1,sp,12
    1c18:	854e                	mv	a0,s3
    1c1a:	7cc020ef          	jal	ra,43e6 <raw_connect>
    1c1e:	03c00613          	li	a2,60
    1c22:	02c40633          	mul	a2,s0,a2
    1c26:	000015b7          	lui	a1,0x1
    1c2a:	65858593          	addi	a1,a1,1624 # 1658 <SocketIPRAWReceive>
    1c2e:	854e                	mv	a0,s3
    1c30:	964a                	add	a2,a2,s2
    1c32:	7d2020ef          	jal	ra,4404 <raw_recv>
    1c36:	4795                	li	a5,5
    1c38:	006c                	addi	a1,sp,12
    1c3a:	0334a823          	sw	s3,48(s1)
    1c3e:	d09c                	sw	a5,32(s1)
    1c40:	a7c18513          	addi	a0,gp,-1412 # 2000028c <WCHNetIf>
    1c44:	4af000ef          	jal	ra,28f2 <etharp_request>
    1c48:	85a2                	mv	a1,s0
    1c4a:	8526                	mv	a0,s1
    1c4c:	3bbd                	jal	19ca <WCHSocketInit>
    1c4e:	4401                	li	s0,0
    1c50:	b75d                	j	1bf6 <WCHNET_SocketCreat+0x30>
    1c52:	4709                	li	a4,2
    1c54:	08e79c63          	bne	a5,a4,1cec <WCHNET_SocketCreat+0x126>
    1c58:	75e050ef          	jal	ra,73b6 <udp_new>
    1c5c:	89aa                	mv	s3,a0
    1c5e:	10050a63          	beqz	a0,1d72 <WCHNET_SocketCreat+0x1ac>
    1c62:	02c48a93          	addi	s5,s1,44
    1c66:	4611                	li	a2,4
    1c68:	85d6                	mv	a1,s5
    1c6a:	0068                	addi	a0,sp,12
    1c6c:	6e0060ef          	jal	ra,834c <memcpy>
    1c70:	4a32                	lw	s4,12(sp)
    1c72:	f0000537          	lui	a0,0xf0000
    1c76:	46e010ef          	jal	ra,30e4 <ntohl>
    1c7a:	00aa7a33          	and	s4,s4,a0
    1c7e:	e0000537          	lui	a0,0xe0000
    1c82:	462010ef          	jal	ra,30e4 <ntohl>
    1c86:	02aa0c63          	beq	s4,a0,1cbe <WCHNET_SocketCreat+0xf8>
    1c8a:	a7c18593          	addi	a1,gp,-1412 # 2000028c <WCHNetIf>
    1c8e:	0068                	addi	a0,sp,12
    1c90:	0f1010ef          	jal	ra,3580 <ip_addr_isbroadcast>
    1c94:	e50d                	bnez	a0,1cbe <WCHNET_SocketCreat+0xf8>
    1c96:	9281a783          	lw	a5,-1752(gp) # 20000138 <NetInf>
    1c9a:	3492                	fld	fs1,288(sp)
    1c9c:	006c                	addi	a1,sp,12
    1c9e:	854e                	mv	a0,s3
    1ca0:	c63e                	sw	a5,12(sp)
    1ca2:	4de050ef          	jal	ra,7180 <udp_bind>
    1ca6:	e11d                	bnez	a0,1ccc <WCHNET_SocketCreat+0x106>
    1ca8:	85d6                	mv	a1,s5
    1caa:	4611                	li	a2,4
    1cac:	0068                	addi	a0,sp,12
    1cae:	69e060ef          	jal	ra,834c <memcpy>
    1cb2:	30d2                	fld	ft1,304(sp)
    1cb4:	006c                	addi	a1,sp,12
    1cb6:	854e                	mv	a0,s3
    1cb8:	67a050ef          	jal	ra,7332 <udp_connect>
    1cbc:	a039                	j	1cca <WCHNET_SocketCreat+0x104>
    1cbe:	3492                	fld	fs1,288(sp)
    1cc0:	84418593          	addi	a1,gp,-1980 # 20000054 <ip_addr_any>
    1cc4:	854e                	mv	a0,s3
    1cc6:	4ba050ef          	jal	ra,7180 <udp_bind>
    1cca:	c501                	beqz	a0,1cd2 <WCHNET_SocketCreat+0x10c>
    1ccc:	31d9                	jal	1992 <ErrorEncode>
    1cce:	842a                	mv	s0,a0
    1cd0:	b71d                	j	1bf6 <WCHNET_SocketCreat+0x30>
    1cd2:	03c00613          	li	a2,60
    1cd6:	02c40633          	mul	a2,s0,a2
    1cda:	000015b7          	lui	a1,0x1
    1cde:	71a58593          	addi	a1,a1,1818 # 171a <SocketUdpReceive>
    1ce2:	854e                	mv	a0,s3
    1ce4:	964a                	add	a2,a2,s2
    1ce6:	6ca050ef          	jal	ra,73b0 <udp_recv>
    1cea:	b7b1                	j	1c36 <WCHNET_SocketCreat+0x70>
    1cec:	470d                	li	a4,3
    1cee:	06e79263          	bne	a5,a4,1d52 <WCHNET_SocketCreat+0x18c>
    1cf2:	0fa030ef          	jal	ra,4dec <tcp_new>
    1cf6:	89aa                	mv	s3,a0
    1cf8:	cd2d                	beqz	a0,1d72 <WCHNET_SocketCreat+0x1ac>
    1cfa:	9281a783          	lw	a5,-1752(gp) # 20000138 <NetInf>
    1cfe:	3492                	fld	fs1,288(sp)
    1d00:	006c                	addi	a1,sp,12
    1d02:	c63e                	sw	a5,12(sp)
    1d04:	021020ef          	jal	ra,4524 <tcp_bind>
    1d08:	8a2a                	mv	s4,a0
    1d0a:	c511                	beqz	a0,1d16 <WCHNET_SocketCreat+0x150>
    1d0c:	854e                	mv	a0,s3
    1d0e:	5a1020ef          	jal	ra,4aae <tcp_close>
    1d12:	8552                	mv	a0,s4
    1d14:	bf65                	j	1ccc <WCHNET_SocketCreat+0x106>
    1d16:	03c00593          	li	a1,60
    1d1a:	02b405b3          	mul	a1,s0,a1
    1d1e:	854e                	mv	a0,s3
    1d20:	95ca                	add	a1,a1,s2
    1d22:	20d020ef          	jal	ra,472e <tcp_arg>
    1d26:	000015b7          	lui	a1,0x1
    1d2a:	854e                	mv	a0,s3
    1d2c:	61658593          	addi	a1,a1,1558 # 1616 <CH563TCPError>
    1d30:	20f020ef          	jal	ra,473e <tcp_err>
    1d34:	4795                	li	a5,5
    1d36:	85a2                	mv	a1,s0
    1d38:	8526                	mv	a0,s1
    1d3a:	0334a823          	sw	s3,48(s1)
    1d3e:	0334aa23          	sw	s3,52(s1)
    1d42:	d09c                	sw	a5,32(s1)
    1d44:	3159                	jal	19ca <WCHSocketInit>
    1d46:	006c                	addi	a1,sp,12
    1d48:	a7c18513          	addi	a0,gp,-1412 # 2000028c <WCHNetIf>
    1d4c:	3a7000ef          	jal	ra,28f2 <etharp_request>
    1d50:	bdfd                	j	1c4e <WCHNET_SocketCreat+0x88>
    1d52:	02100413          	li	s0,33
    1d56:	b545                	j	1bf6 <WCHNET_SocketCreat+0x30>
    1d58:	a100                	fsd	fs0,0(a0)
    1d5a:	4ddc                	lw	a5,28(a1)
    1d5c:	c1c0                	sw	s0,4(a1)
    1d5e:	84ae                	mv	s1,a1
    1d60:	ee0799e3          	bnez	a5,1c52 <WCHNET_SocketCreat+0x8c>
    1d64:	0284c503          	lbu	a0,40(s1)
    1d68:	730020ef          	jal	ra,4498 <raw_new>
    1d6c:	89aa                	mv	s3,a0
    1d6e:	e80518e3          	bnez	a0,1bfe <WCHNET_SocketCreat+0x38>
    1d72:	4445                	li	s0,17
    1d74:	b549                	j	1bf6 <WCHNET_SocketCreat+0x30>

00001d76 <tcp_recved_socket>:
tcp_recved_socket():
    1d76:	cbafe2ef          	jal	t0,230 <__riscv_save_0>
    1d7a:	b54e                	fsd	fs3,168(sp)
    1d7c:	b56e                	fsd	fs11,168(sp)
    1d7e:	842a                	mv	s0,a0
    1d80:	c199                	beqz	a1,1d86 <tcp_recved_socket+0x10>
    1d82:	0b9020ef          	jal	ra,463a <tcp_update_rcv_ann_wnd>
    1d86:	02644783          	lbu	a5,38(s0)
    1d8a:	8522                	mv	a0,s0
    1d8c:	0027e793          	ori	a5,a5,2
    1d90:	02f40323          	sb	a5,38(s0)
    1d94:	321040ef          	jal	ra,68b4 <tcp_output>
    1d98:	4505                	li	a0,1
    1d9a:	cbafe06f          	j	254 <__riscv_restore_0>

00001d9e <WCHNET_SocketRecv>:
WCHNET_SocketRecv():
    1d9e:	c78fe2ef          	jal	t0,216 <__riscv_save_4>
    1da2:	03c00693          	li	a3,60
    1da6:	02d506b3          	mul	a3,a0,a3
    1daa:	200094b7          	lui	s1,0x20009
    1dae:	89b2                	mv	s3,a2
    1db0:	04048793          	addi	a5,s1,64 # 20009040 <SocketInf>
    1db4:	4210                	lw	a2,0(a2)
    1db6:	0009a023          	sw	zero,0(s3)
    1dba:	96be                	add	a3,a3,a5
    1dbc:	5298                	lw	a4,32(a3)
    1dbe:	4795                	li	a5,5
    1dc0:	1af71463          	bne	a4,a5,1f68 <WCHNET_SocketRecv+0x1ca>
    1dc4:	892a                	mv	s2,a0
    1dc6:	4569                	li	a0,26
    1dc8:	ca5d                	beqz	a2,1e7e <WCHNET_SocketRecv+0xe0>
    1dca:	0086ab03          	lw	s6,8(a3)
    1dce:	46d8                	lw	a4,12(a3)
    1dd0:	8aae                	mv	s5,a1
    1dd2:	0186aa03          	lw	s4,24(a3)
    1dd6:	4acc                	lw	a1,20(a3)
    1dd8:	975a                	add	a4,a4,s6
    1dda:	04048493          	addi	s1,s1,64
    1dde:	87ae                	mv	a5,a1
    1de0:	177d                	addi	a4,a4,-1
    1de2:	01467363          	bgeu	a2,s4,1de8 <WCHNET_SocketRecv+0x4a>
    1de6:	8a32                	mv	s4,a2
    1de8:	01458433          	add	s0,a1,s4
    1dec:	140a8263          	beqz	s5,1f30 <WCHNET_SocketRecv+0x192>
    1df0:	00e47b63          	bgeu	s0,a4,1e06 <WCHNET_SocketRecv+0x68>
    1df4:	4691                	li	a3,4
    1df6:	0146f863          	bgeu	a3,s4,1e06 <WCHNET_SocketRecv+0x68>
    1dfa:	8652                	mv	a2,s4
    1dfc:	8556                	mv	a0,s5
    1dfe:	54e060ef          	jal	ra,834c <memcpy>
    1e02:	87a2                	mv	a5,s0
    1e04:	a099                	j	1e4a <WCHNET_SocketRecv+0xac>
    1e06:	97c1a683          	lw	a3,-1668(gp) # 2000018c <WCHCfg+0x10>
    1e0a:	8a89                	andi	a3,a3,2
    1e0c:	12068063          	beqz	a3,1f2c <WCHNET_SocketRecv+0x18e>
    1e10:	8f0d                	sub	a4,a4,a1
    1e12:	00170413          	addi	s0,a4,1
    1e16:	008a7363          	bgeu	s4,s0,1e1c <WCHNET_SocketRecv+0x7e>
    1e1a:	8452                	mv	s0,s4
    1e1c:	4791                	li	a5,4
    1e1e:	0687f263          	bgeu	a5,s0,1e82 <WCHNET_SocketRecv+0xe4>
    1e22:	8622                	mv	a2,s0
    1e24:	8556                	mv	a0,s5
    1e26:	526060ef          	jal	ra,834c <memcpy>
    1e2a:	87da                	mv	a5,s6
    1e2c:	01447f63          	bgeu	s0,s4,1e4a <WCHNET_SocketRecv+0xac>
    1e30:	008a8533          	add	a0,s5,s0
    1e34:	4791                	li	a5,4
    1e36:	408a0433          	sub	s0,s4,s0
    1e3a:	0487fb63          	bgeu	a5,s0,1e90 <WCHNET_SocketRecv+0xf2>
    1e3e:	8622                	mv	a2,s0
    1e40:	85da                	mv	a1,s6
    1e42:	50a060ef          	jal	ra,834c <memcpy>
    1e46:	008b07b3          	add	a5,s6,s0
    1e4a:	03c00713          	li	a4,60
    1e4e:	02e90733          	mul	a4,s2,a4
    1e52:	0149a023          	sw	s4,0(s3)
    1e56:	9726                	add	a4,a4,s1
    1e58:	4f10                	lw	a2,24(a4)
    1e5a:	cb5c                	sw	a5,20(a4)
    1e5c:	41460633          	sub	a2,a2,s4
    1e60:	cf10                	sw	a2,24(a4)
    1e62:	e601                	bnez	a2,1e6a <WCHNET_SocketRecv+0xcc>
    1e64:	471c                	lw	a5,8(a4)
    1e66:	cb5c                	sw	a5,20(a4)
    1e68:	cb1c                	sw	a5,16(a4)
    1e6a:	03c00793          	li	a5,60
    1e6e:	02f90933          	mul	s2,s2,a5
    1e72:	478d                	li	a5,3
    1e74:	94ca                	add	s1,s1,s2
    1e76:	4cd8                	lw	a4,28(s1)
    1e78:	0cf70d63          	beq	a4,a5,1f52 <WCHNET_SocketRecv+0x1b4>
    1e7c:	4501                	li	a0,0
    1e7e:	bccfe06f          	j	24a <__riscv_restore_4>
    1e82:	01041613          	slli	a2,s0,0x10
    1e86:	8241                	srli	a2,a2,0x10
    1e88:	8556                	mv	a0,s5
    1e8a:	b23ff0ef          	jal	ra,19ac <MemShortCopy>
    1e8e:	bf71                	j	1e2a <WCHNET_SocketRecv+0x8c>
    1e90:	01041613          	slli	a2,s0,0x10
    1e94:	8241                	srli	a2,a2,0x10
    1e96:	85da                	mv	a1,s6
    1e98:	b15ff0ef          	jal	ra,19ac <MemShortCopy>
    1e9c:	b76d                	j	1e46 <WCHNET_SocketRecv+0xa8>
    1e9e:	2390                	fld	fa2,0(a5)
    1ea0:	0785                	addi	a5,a5,1
    1ea2:	00ca8023          	sb	a2,0(s5)
    1ea6:	00f77363          	bgeu	a4,a5,1eac <WCHNET_SocketRecv+0x10e>
    1eaa:	87da                	mv	a5,s6
    1eac:	00168613          	addi	a2,a3,1
    1eb0:	f9467de3          	bgeu	a2,s4,1e4a <WCHNET_SocketRecv+0xac>
    1eb4:	2390                	fld	fa2,0(a5)
    1eb6:	0785                	addi	a5,a5,1
    1eb8:	00ca80a3          	sb	a2,1(s5)
    1ebc:	00f77363          	bgeu	a4,a5,1ec2 <WCHNET_SocketRecv+0x124>
    1ec0:	87da                	mv	a5,s6
    1ec2:	00268613          	addi	a2,a3,2
    1ec6:	f94672e3          	bgeu	a2,s4,1e4a <WCHNET_SocketRecv+0xac>
    1eca:	2390                	fld	fa2,0(a5)
    1ecc:	0785                	addi	a5,a5,1
    1ece:	00ca8123          	sb	a2,2(s5)
    1ed2:	00f77363          	bgeu	a4,a5,1ed8 <WCHNET_SocketRecv+0x13a>
    1ed6:	87da                	mv	a5,s6
    1ed8:	00368613          	addi	a2,a3,3
    1edc:	f74677e3          	bgeu	a2,s4,1e4a <WCHNET_SocketRecv+0xac>
    1ee0:	2390                	fld	fa2,0(a5)
    1ee2:	0785                	addi	a5,a5,1
    1ee4:	00ca81a3          	sb	a2,3(s5)
    1ee8:	00f77363          	bgeu	a4,a5,1eee <WCHNET_SocketRecv+0x150>
    1eec:	87da                	mv	a5,s6
    1eee:	00468613          	addi	a2,a3,4
    1ef2:	f5467ce3          	bgeu	a2,s4,1e4a <WCHNET_SocketRecv+0xac>
    1ef6:	00178613          	addi	a2,a5,1
    1efa:	239c                	fld	fa5,0(a5)
    1efc:	00fa8223          	sb	a5,4(s5)
    1f00:	00c77363          	bgeu	a4,a2,1f06 <WCHNET_SocketRecv+0x168>
    1f04:	865a                	mv	a2,s6
    1f06:	00568793          	addi	a5,a3,5
    1f0a:	0547f263          	bgeu	a5,s4,1f4e <WCHNET_SocketRecv+0x1b0>
    1f0e:	00160793          	addi	a5,a2,1
    1f12:	2210                	fld	fa2,0(a2)
    1f14:	0a99                	addi	s5,s5,6
    1f16:	feca8fa3          	sb	a2,-1(s5)
    1f1a:	00f77363          	bgeu	a4,a5,1f20 <WCHNET_SocketRecv+0x182>
    1f1e:	87da                	mv	a5,s6
    1f20:	0699                	addi	a3,a3,6
    1f22:	f346f4e3          	bgeu	a3,s4,1e4a <WCHNET_SocketRecv+0xac>
    1f26:	f746ece3          	bltu	a3,s4,1e9e <WCHNET_SocketRecv+0x100>
    1f2a:	b705                	j	1e4a <WCHNET_SocketRecv+0xac>
    1f2c:	4681                	li	a3,0
    1f2e:	bfe5                	j	1f26 <WCHNET_SocketRecv+0x188>
    1f30:	00e47563          	bgeu	s0,a4,1f3a <WCHNET_SocketRecv+0x19c>
    1f34:	4691                	li	a3,4
    1f36:	ed46e6e3          	bltu	a3,s4,1e02 <WCHNET_SocketRecv+0x64>
    1f3a:	4681                	li	a3,0
    1f3c:	a031                	j	1f48 <WCHNET_SocketRecv+0x1aa>
    1f3e:	0785                	addi	a5,a5,1
    1f40:	00f77363          	bgeu	a4,a5,1f46 <WCHNET_SocketRecv+0x1a8>
    1f44:	87da                	mv	a5,s6
    1f46:	0685                	addi	a3,a3,1
    1f48:	ff469be3          	bne	a3,s4,1f3e <WCHNET_SocketRecv+0x1a0>
    1f4c:	bdfd                	j	1e4a <WCHNET_SocketRecv+0xac>
    1f4e:	87b2                	mv	a5,a2
    1f50:	bded                	j	1e4a <WCHNET_SocketRecv+0xac>
    1f52:	44cc                	lw	a1,12(s1)
    1f54:	5888                	lw	a0,48(s1)
    1f56:	40c58633          	sub	a2,a1,a2
    1f5a:	0642                	slli	a2,a2,0x10
    1f5c:	8241                	srli	a2,a2,0x10
    1f5e:	b572                	fsd	ft8,168(sp)
    1f60:	f0c59ee3          	bne	a1,a2,1e7c <WCHNET_SocketRecv+0xde>
    1f64:	3d09                	jal	1d76 <tcp_recved_socket>
    1f66:	bf19                	j	1e7c <WCHNET_SocketRecv+0xde>
    1f68:	455d                	li	a0,23
    1f6a:	bf11                	j	1e7e <WCHNET_SocketRecv+0xe0>

00001f6c <WCHNET_SocketRecvLen>:
WCHNET_SocketRecvLen():
    1f6c:	200097b7          	lui	a5,0x20009
    1f70:	04078793          	addi	a5,a5,64 # 20009040 <SocketInf>
    1f74:	c981                	beqz	a1,1f84 <WCHNET_SocketRecvLen+0x18>
    1f76:	03c00713          	li	a4,60
    1f7a:	02e50733          	mul	a4,a0,a4
    1f7e:	973e                	add	a4,a4,a5
    1f80:	4b58                	lw	a4,20(a4)
    1f82:	c198                	sw	a4,0(a1)
    1f84:	03c00713          	li	a4,60
    1f88:	02e50533          	mul	a0,a0,a4
    1f8c:	97aa                	add	a5,a5,a0
    1f8e:	4f88                	lw	a0,24(a5)
    1f90:	8082                	ret

00001f92 <SocketIPRawSend>:
SocketIPRawSend():
    1f92:	a6efe2ef          	jal	t0,200 <__riscv_save_12>
    1f96:	4200                	lw	s0,0(a2)
    1f98:	00062023          	sw	zero,0(a2)
    1f9c:	1141                	addi	sp,sp,-16
    1f9e:	c871                	beqz	s0,2072 <SocketIPRawSend+0xe0>
    1fa0:	8aaa                	mv	s5,a0
    1fa2:	8b2e                	mv	s6,a1
    1fa4:	4569                	li	a0,26
    1fa6:	c5a1                	beqz	a1,1fee <SocketIPRawSend+0x5c>
    1fa8:	03c00793          	li	a5,60
    1fac:	02fa87b3          	mul	a5,s5,a5
    1fb0:	20009537          	lui	a0,0x20009
    1fb4:	04050713          	addi	a4,a0,64 # 20009040 <SocketInf>
    1fb8:	89b2                	mv	s3,a2
    1fba:	04050b93          	addi	s7,a0,64
    1fbe:	4901                	li	s2,0
    1fc0:	97ba                	add	a5,a5,a4
    1fc2:	0307ac03          	lw	s8,48(a5)
    1fc6:	92818793          	addi	a5,gp,-1752 # 20000138 <NetInf>
    1fca:	43bc                	lw	a5,64(a5)
    1fcc:	92818a13          	addi	s4,gp,-1752 # 20000138 <NetInf>
    1fd0:	8b89                	andi	a5,a5,2
    1fd2:	e399                	bnez	a5,1fd8 <SocketIPRawSend+0x46>
    1fd4:	0c700913          	li	s2,199
    1fd8:	0c900c93          	li	s9,201
    1fdc:	5c800d13          	li	s10,1480
    1fe0:	0905                	addi	s2,s2,1
    1fe2:	0942                	slli	s2,s2,0x10
    1fe4:	01095913          	srli	s2,s2,0x10
    1fe8:	01991663          	bne	s2,s9,1ff4 <SocketIPRawSend+0x62>
    1fec:	4501                	li	a0,0
    1fee:	0141                	addi	sp,sp,16
    1ff0:	a4cfe06f          	j	23c <__riscv_restore_12>
    1ff4:	84a2                	mv	s1,s0
    1ff6:	008d7463          	bgeu	s10,s0,1ffe <SocketIPRawSend+0x6c>
    1ffa:	5c800493          	li	s1,1480
    1ffe:	01049593          	slli	a1,s1,0x10
    2002:	4601                	li	a2,0
    2004:	81c1                	srli	a1,a1,0x10
    2006:	4501                	li	a0,0
    2008:	0dc020ef          	jal	ra,40e4 <pbuf_alloc>
    200c:	8daa                	mv	s11,a0
    200e:	c525                	beqz	a0,2076 <SocketIPRawSend+0xe4>
    2010:	4148                	lw	a0,4(a0)
    2012:	8626                	mv	a2,s1
    2014:	85da                	mv	a1,s6
    2016:	336060ef          	jal	ra,834c <memcpy>
    201a:	85ee                	mv	a1,s11
    201c:	8562                	mv	a0,s8
    201e:	020a2e23          	sw	zero,60(s4)
    2022:	466020ef          	jal	ra,4488 <raw_send>
    2026:	c62a                	sw	a0,12(sp)
    2028:	856e                	mv	a0,s11
    202a:	06c020ef          	jal	ra,4096 <pbuf_free>
    202e:	03ca2703          	lw	a4,60(s4)
    2032:	47b2                	lw	a5,12(sp)
    2034:	c705                	beqz	a4,205c <SocketIPRawSend+0xca>
    2036:	03c00513          	li	a0,60
    203a:	02aa8533          	mul	a0,s5,a0
    203e:	0009a023          	sw	zero,0(s3)
    2042:	955e                	add	a0,a0,s7
    2044:	2118                	fld	fa4,0(a0)
    2046:	04076713          	ori	a4,a4,64
    204a:	c118                	sw	a4,0(a0)
    204c:	0fa00513          	li	a0,250
    2050:	f807dfe3          	bgez	a5,1fee <SocketIPRawSend+0x5c>
    2054:	853e                	mv	a0,a5
    2056:	93dff0ef          	jal	ra,1992 <ErrorEncode>
    205a:	bf51                	j	1fee <SocketIPRawSend+0x5c>
    205c:	fc07cde3          	bltz	a5,2036 <SocketIPRawSend+0xa4>
    2060:	0009a783          	lw	a5,0(s3)
    2064:	8c05                	sub	s0,s0,s1
    2066:	9b26                	add	s6,s6,s1
    2068:	97a6                	add	a5,a5,s1
    206a:	00f9a023          	sw	a5,0(s3)
    206e:	f82d                	bnez	s0,1fe0 <SocketIPRawSend+0x4e>
    2070:	bfb5                	j	1fec <SocketIPRawSend+0x5a>
    2072:	4569                	li	a0,26
    2074:	bfad                	j	1fee <SocketIPRawSend+0x5c>
    2076:	4545                	li	a0,17
    2078:	bf9d                	j	1fee <SocketIPRawSend+0x5c>

0000207a <SocketUdpSend>:
SocketUdpSend():
    207a:	98efe2ef          	jal	t0,208 <__riscv_save_10>
    207e:	4200                	lw	s0,0(a2)
    2080:	00062023          	sw	zero,0(a2)
    2084:	cc4d                	beqz	s0,213e <SocketUdpSend+0xc4>
    2086:	87aa                	mv	a5,a0
    2088:	8aae                	mv	s5,a1
    208a:	4569                	li	a0,26
    208c:	c1b1                	beqz	a1,20d0 <SocketUdpSend+0x56>
    208e:	03c00513          	li	a0,60
    2092:	02a787b3          	mul	a5,a5,a0
    2096:	20009537          	lui	a0,0x20009
    209a:	04050513          	addi	a0,a0,64 # 20009040 <SocketInf>
    209e:	89b2                	mv	s3,a2
    20a0:	4901                	li	s2,0
    20a2:	97aa                	add	a5,a5,a0
    20a4:	0307ab83          	lw	s7,48(a5)
    20a8:	92818793          	addi	a5,gp,-1752 # 20000138 <NetInf>
    20ac:	43bc                	lw	a5,64(a5)
    20ae:	92818a13          	addi	s4,gp,-1752 # 20000138 <NetInf>
    20b2:	8b89                	andi	a5,a5,2
    20b4:	e399                	bnez	a5,20ba <SocketUdpSend+0x40>
    20b6:	0c700913          	li	s2,199
    20ba:	0c900c13          	li	s8,201
    20be:	5c000c93          	li	s9,1472
    20c2:	0905                	addi	s2,s2,1
    20c4:	0942                	slli	s2,s2,0x10
    20c6:	01095913          	srli	s2,s2,0x10
    20ca:	01891563          	bne	s2,s8,20d4 <SocketUdpSend+0x5a>
    20ce:	4501                	li	a0,0
    20d0:	970fe06f          	j	240 <__riscv_restore_10>
    20d4:	84a2                	mv	s1,s0
    20d6:	008cf463          	bgeu	s9,s0,20de <SocketUdpSend+0x64>
    20da:	5c000493          	li	s1,1472
    20de:	01049593          	slli	a1,s1,0x10
    20e2:	4601                	li	a2,0
    20e4:	81c1                	srli	a1,a1,0x10
    20e6:	4501                	li	a0,0
    20e8:	7fd010ef          	jal	ra,40e4 <pbuf_alloc>
    20ec:	8b2a                	mv	s6,a0
    20ee:	c931                	beqz	a0,2142 <SocketUdpSend+0xc8>
    20f0:	4148                	lw	a0,4(a0)
    20f2:	8626                	mv	a2,s1
    20f4:	85d6                	mv	a1,s5
    20f6:	256060ef          	jal	ra,834c <memcpy>
    20fa:	85da                	mv	a1,s6
    20fc:	855e                	mv	a0,s7
    20fe:	020a2e23          	sw	zero,60(s4)
    2102:	21e050ef          	jal	ra,7320 <udp_send>
    2106:	8d2a                	mv	s10,a0
    2108:	855a                	mv	a0,s6
    210a:	78d010ef          	jal	ra,4096 <pbuf_free>
    210e:	03ca2783          	lw	a5,60(s4)
    2112:	cb99                	beqz	a5,2128 <SocketUdpSend+0xae>
    2114:	0009a023          	sw	zero,0(s3)
    2118:	0fa00513          	li	a0,250
    211c:	fa0d5ae3          	bgez	s10,20d0 <SocketUdpSend+0x56>
    2120:	856a                	mv	a0,s10
    2122:	871ff0ef          	jal	ra,1992 <ErrorEncode>
    2126:	b76d                	j	20d0 <SocketUdpSend+0x56>
    2128:	fe0d46e3          	bltz	s10,2114 <SocketUdpSend+0x9a>
    212c:	0009a783          	lw	a5,0(s3)
    2130:	8c05                	sub	s0,s0,s1
    2132:	9aa6                	add	s5,s5,s1
    2134:	97a6                	add	a5,a5,s1
    2136:	00f9a023          	sw	a5,0(s3)
    213a:	f441                	bnez	s0,20c2 <SocketUdpSend+0x48>
    213c:	bf49                	j	20ce <SocketUdpSend+0x54>
    213e:	4569                	li	a0,26
    2140:	bf41                	j	20d0 <SocketUdpSend+0x56>
    2142:	4545                	li	a0,17
    2144:	b771                	j	20d0 <SocketUdpSend+0x56>

00002146 <WCHScokedIntHandle>:
WCHScokedIntHandle():
    2146:	8eafe2ef          	jal	t0,230 <__riscv_save_0>
    214a:	4791                	li	a5,4
    214c:	84aa                	mv	s1,a0
    214e:	2100                	fld	fs0,0(a0)
    2150:	02f58f63          	beq	a1,a5,218e <WCHScokedIntHandle+0x48>
    2154:	00b7ec63          	bltu	a5,a1,216c <WCHScokedIntHandle+0x26>
    2158:	4785                	li	a5,1
    215a:	02f58663          	beq	a1,a5,2186 <WCHScokedIntHandle+0x40>
    215e:	4789                	li	a5,2
    2160:	00246413          	ori	s0,s0,2
    2164:	02f58363          	beq	a1,a5,218a <WCHScokedIntHandle+0x44>
    2168:	8ecfe06f          	j	254 <__riscv_restore_0>
    216c:	47c1                	li	a5,16
    216e:	02f58363          	beq	a1,a5,2194 <WCHScokedIntHandle+0x4e>
    2172:	04000793          	li	a5,64
    2176:	02f58663          	beq	a1,a5,21a2 <WCHScokedIntHandle+0x5c>
    217a:	47a1                	li	a5,8
    217c:	fef596e3          	bne	a1,a5,2168 <WCHScokedIntHandle+0x22>
    2180:	00846413          	ori	s0,s0,8
    2184:	a019                	j	218a <WCHScokedIntHandle+0x44>
    2186:	00146413          	ori	s0,s0,1
    218a:	c080                	sw	s0,0(s1)
    218c:	bff1                	j	2168 <WCHScokedIntHandle+0x22>
    218e:	00446413          	ori	s0,s0,4
    2192:	bfe5                	j	218a <WCHScokedIntHandle+0x44>
    2194:	5948                	lw	a0,52(a0)
    2196:	01046413          	ori	s0,s0,16
    219a:	d965                	beqz	a0,218a <WCHScokedIntHandle+0x44>
    219c:	113020ef          	jal	ra,4aae <tcp_close>
    21a0:	b7ed                	j	218a <WCHScokedIntHandle+0x44>
    21a2:	04046413          	ori	s0,s0,64
    21a6:	b7d5                	j	218a <WCHScokedIntHandle+0x44>

000021a8 <LwipRemoveTcpPcb>:
LwipRemoveTcpPcb():
    21a8:	888fe2ef          	jal	t0,230 <__riscv_save_0>
    21ac:	1141                	addi	sp,sp,-16
    21ae:	00f10593          	addi	a1,sp,15
    21b2:	84aa                	mv	s1,a0
    21b4:	000107a3          	sb	zero,15(sp)
    21b8:	9b3ff0ef          	jal	ra,1b6a <WCHFindCorrectTCBPcb>
    21bc:	c515                	beqz	a0,21e8 <LwipRemoveTcpPcb+0x40>
    21be:	8780                	0x8780
    21c0:	01841793          	slli	a5,s0,0x18
    21c4:	87e1                	srai	a5,a5,0x18
    21c6:	0207d463          	bgez	a5,21ee <LwipRemoveTcpPcb+0x46>
    21ca:	07f47413          	andi	s0,s0,127
    21ce:	03c00713          	li	a4,60
    21d2:	02e40433          	mul	s0,s0,a4
    21d6:	200097b7          	lui	a5,0x20009
    21da:	04078793          	addi	a5,a5,64 # 20009040 <SocketInf>
    21de:	943e                	add	s0,s0,a5
    21e0:	02042a23          	sw	zero,52(s0)
    21e4:	02042023          	sw	zero,32(s0)
    21e8:	0141                	addi	sp,sp,16
    21ea:	86afe06f          	j	254 <__riscv_restore_0>
    21ee:	47fd                	li	a5,31
    21f0:	fe87ece3          	bltu	a5,s0,21e8 <LwipRemoveTcpPcb+0x40>
    21f4:	03c00713          	li	a4,60
    21f8:	02e40733          	mul	a4,s0,a4
    21fc:	200096b7          	lui	a3,0x20009
    2200:	04068793          	addi	a5,a3,64 # 20009040 <SocketInf>
    2204:	04068913          	addi	s2,a3,64
    2208:	97ba                	add	a5,a5,a4
    220a:	4fd0                	lw	a2,28(a5)
    220c:	470d                	li	a4,3
    220e:	fce61de3          	bne	a2,a4,21e8 <LwipRemoveTcpPcb+0x40>
    2212:	2884                	fld	fs1,16(s1)
    2214:	03c00613          	li	a2,60
    2218:	4581                	li	a1,0
    221a:	853e                	mv	a0,a5
    221c:	844fe0ef          	jal	ra,260 <memset>
    2220:	14dd                	addi	s1,s1,-9
    2222:	0ff4f493          	andi	s1,s1,255
    2226:	4705                	li	a4,1
    2228:	00976c63          	bltu	a4,s1,2240 <LwipRemoveTcpPcb+0x98>
    222c:	45c1                	li	a1,16
    222e:	3f21                	jal	2146 <WCHScokedIntHandle>
    2230:	03c00793          	li	a5,60
    2234:	02f40433          	mul	s0,s0,a5
    2238:	944a                	add	s0,s0,s2
    223a:	02042823          	sw	zero,48(s0)
    223e:	b75d                	j	21e4 <LwipRemoveTcpPcb+0x3c>
    2240:	2118                	fld	fa4,0(a0)
    2242:	04076713          	ori	a4,a4,64
    2246:	c118                	sw	a4,0(a0)
    2248:	b7e5                	j	2230 <LwipRemoveTcpPcb+0x88>

0000224a <WCHNET_QueryGlobalInt>:
WCHNET_QueryGlobalInt():
    224a:	200097b7          	lui	a5,0x20009
    224e:	04078793          	addi	a5,a5,64 # 20009040 <SocketInf>
    2252:	78078713          	addi	a4,a5,1920
    2256:	4394                	lw	a3,0(a5)
    2258:	ca91                	beqz	a3,226c <WCHNET_QueryGlobalInt+0x22>
    225a:	92818793          	addi	a5,gp,-1752 # 20000138 <NetInf>
    225e:	57d8                	lw	a4,44(a5)
    2260:	01076713          	ori	a4,a4,16
    2264:	d7d8                	sw	a4,44(a5)
    2266:	9541c503          	lbu	a0,-1708(gp) # 20000164 <NetInf+0x2c>
    226a:	8082                	ret
    226c:	03c78793          	addi	a5,a5,60
    2270:	fee793e3          	bne	a5,a4,2256 <WCHNET_QueryGlobalInt+0xc>
    2274:	bfcd                	j	2266 <WCHNET_QueryGlobalInt+0x1c>

00002276 <WCHNET_GetGlobalInt>:
WCHNET_GetGlobalInt():
    2276:	fbbfd2ef          	jal	t0,230 <__riscv_save_0>
    227a:	3fc1                	jal	224a <WCHNET_QueryGlobalInt>
    227c:	9401aa23          	sw	zero,-1708(gp) # 20000164 <NetInf+0x2c>
    2280:	fd5fd06f          	j	254 <__riscv_restore_0>

00002284 <WCHNET_GetSocketInt>:
WCHNET_GetSocketInt():
    2284:	47fd                	li	a5,31
    2286:	00a7ef63          	bltu	a5,a0,22a4 <WCHNET_GetSocketInt+0x20>
    228a:	03c00793          	li	a5,60
    228e:	02f50533          	mul	a0,a0,a5
    2292:	200097b7          	lui	a5,0x20009
    2296:	04078793          	addi	a5,a5,64 # 20009040 <SocketInf>
    229a:	97aa                	add	a5,a5,a0
    229c:	2388                	fld	fa0,0(a5)
    229e:	0007a023          	sw	zero,0(a5)
    22a2:	8082                	ret
    22a4:	4501                	li	a0,0
    22a6:	8082                	ret

000022a8 <CH563IPSetSocketRecvInit>:
CH563IPSetSocketRecvInit():
    22a8:	200097b7          	lui	a5,0x20009
    22ac:	04078793          	addi	a5,a5,64 # 20009040 <SocketInf>
    22b0:	78078693          	addi	a3,a5,1920
    22b4:	4615                	li	a2,5
    22b6:	5398                	lw	a4,32(a5)
    22b8:	00c71863          	bne	a4,a2,22c8 <CH563IPSetSocketRecvInit+0x20>
    22bc:	4f98                	lw	a4,24(a5)
    22be:	c709                	beqz	a4,22c8 <CH563IPSetSocketRecvInit+0x20>
    22c0:	2398                	fld	fa4,0(a5)
    22c2:	00476713          	ori	a4,a4,4
    22c6:	c398                	sw	a4,0(a5)
    22c8:	03c78793          	addi	a5,a5,60
    22cc:	fed795e3          	bne	a5,a3,22b6 <CH563IPSetSocketRecvInit+0xe>
    22d0:	8082                	ret

000022d2 <WCHNET_MainTask>:
WCHNET_MainTask():
    22d2:	94c1a783          	lw	a5,-1716(gp) # 2000015c <NetInf+0x24>
    22d6:	8b85                	andi	a5,a5,1
    22d8:	c385                	beqz	a5,22f8 <WCHNET_MainTask+0x26>
    22da:	f57fd2ef          	jal	t0,230 <__riscv_save_0>
    22de:	841ff0ef          	jal	ra,1b1e <PhyDataLed_fun>
    22e2:	728020ef          	jal	ra,4a0a <RemoveTimeWaiTCP>
    22e6:	a7c18513          	addi	a0,gp,-1412 # 2000028c <WCHNetIf>
    22ea:	29b000ef          	jal	ra,2d84 <ethernetif_input>
    22ee:	4c3000ef          	jal	ra,2fb0 <LwIPPeriodicHandle>
    22f2:	3f5d                	jal	22a8 <CH563IPSetSocketRecvInit>
    22f4:	f61fd06f          	j	254 <__riscv_restore_0>
    22f8:	8082                	ret

000022fa <SocketTcpSend>:
SocketTcpSend():
    22fa:	f07fd2ef          	jal	t0,200 <__riscv_save_12>
    22fe:	00062983          	lw	s3,0(a2)
    2302:	00062023          	sw	zero,0(a2)
    2306:	0e098e63          	beqz	s3,2402 <SocketTcpSend+0x108>
    230a:	87aa                	mv	a5,a0
    230c:	8aae                	mv	s5,a1
    230e:	4569                	li	a0,26
    2310:	c5b9                	beqz	a1,235e <SocketTcpSend+0x64>
    2312:	03c00513          	li	a0,60
    2316:	02a787b3          	mul	a5,a5,a0
    231a:	20009537          	lui	a0,0x20009
    231e:	04050513          	addi	a0,a0,64 # 20009040 <SocketInf>
    2322:	8b32                	mv	s6,a2
    2324:	4a01                	li	s4,0
    2326:	97aa                	add	a5,a5,a0
    2328:	5b80                	lw	s0,48(a5)
    232a:	92818793          	addi	a5,gp,-1752 # 20000138 <NetInf>
    232e:	43bc                	lw	a5,64(a5)
    2330:	92818c13          	addi	s8,gp,-1752 # 20000138 <NetInf>
    2334:	8b89                	andi	a5,a5,2
    2336:	e399                	bnez	a5,233c <SocketTcpSend+0x42>
    2338:	0c700a13          	li	s4,199
    233c:	4481                	li	s1,0
    233e:	0c900c93          	li	s9,201
    2342:	4d11                	li	s10,4
    2344:	96c18913          	addi	s2,gp,-1684 # 2000017c <WCHCfg>
    2348:	5dfd                	li	s11,-1
    234a:	0a05                	addi	s4,s4,1
    234c:	0a42                	slli	s4,s4,0x10
    234e:	010a5a13          	srli	s4,s4,0x10
    2352:	019a1863          	bne	s4,s9,2362 <SocketTcpSend+0x68>
    2356:	000b2783          	lw	a5,0(s6)
    235a:	c3d5                	beqz	a5,23fe <SocketTcpSend+0x104>
    235c:	4501                	li	a0,0
    235e:	edffd06f          	j	23c <__riscv_restore_12>
    2362:	481c                	lw	a5,16(s0)
    2364:	0ba79163          	bne	a5,s10,2406 <SocketTcpSend+0x10c>
    2368:	040c2783          	lw	a5,64(s8)
    236c:	8b89                	andi	a5,a5,2
    236e:	c391                	beqz	a5,2372 <SocketTcpSend+0x78>
    2370:	378d                	jal	22d2 <WCHNET_MainTask>
    2372:	07245703          	lhu	a4,114(s0)
    2376:	e319                	bnez	a4,237c <SocketTcpSend+0x82>
    2378:	4545                	li	a0,17
    237a:	b7d5                	j	235e <SocketTcpSend+0x64>
    237c:	01092783          	lw	a5,16(s2)
    2380:	8b85                	andi	a5,a5,1
    2382:	e399                	bnez	a5,2388 <SocketTcpSend+0x8e>
    2384:	ff376ae3          	bltu	a4,s3,2378 <SocketTcpSend+0x7e>
    2388:	00492783          	lw	a5,4(s2)
    238c:	00f77363          	bgeu	a4,a5,2392 <SocketTcpSend+0x98>
    2390:	87ba                	mv	a5,a4
    2392:	8bce                	mv	s7,s3
    2394:	0137f363          	bgeu	a5,s3,239a <SocketTcpSend+0xa0>
    2398:	8bbe                	mv	s7,a5
    239a:	8522                	mv	a0,s0
    239c:	518040ef          	jal	ra,68b4 <tcp_output>
    23a0:	01092783          	lw	a5,16(s2)
    23a4:	010b9613          	slli	a2,s7,0x10
    23a8:	8241                	srli	a2,a2,0x10
    23aa:	8b85                	andi	a5,a5,1
    23ac:	4685                	li	a3,1
    23ae:	e391                	bnez	a5,23b2 <SocketTcpSend+0xb8>
    23b0:	4681                	li	a3,0
    23b2:	85d6                	mv	a1,s5
    23b4:	8522                	mv	a0,s0
    23b6:	462040ef          	jal	ra,6818 <tcp_write>
    23ba:	84aa                	mv	s1,a0
    23bc:	8522                	mv	a0,s0
    23be:	e48d                	bnez	s1,23e8 <SocketTcpSend+0xee>
    23c0:	4f4040ef          	jal	ra,68b4 <tcp_output>
    23c4:	000b2783          	lw	a5,0(s6)
    23c8:	417989b3          	sub	s3,s3,s7
    23cc:	84aa                	mv	s1,a0
    23ce:	97de                	add	a5,a5,s7
    23d0:	00fb2023          	sw	a5,0(s6)
    23d4:	9ade                	add	s5,s5,s7
    23d6:	f80983e3          	beqz	s3,235c <SocketTcpSend+0x62>
    23da:	01092783          	lw	a5,16(s2)
    23de:	8b85                	andi	a5,a5,1
    23e0:	f7ad                	bnez	a5,234a <SocketTcpSend+0x50>
    23e2:	db0ff0ef          	jal	ra,1992 <ErrorEncode>
    23e6:	bfa5                	j	235e <SocketTcpSend+0x64>
    23e8:	01b49963          	bne	s1,s11,23fa <SocketTcpSend+0x100>
    23ec:	4c8040ef          	jal	ra,68b4 <tcp_output>
    23f0:	01092783          	lw	a5,16(s2)
    23f4:	8b85                	andi	a5,a5,1
    23f6:	fbb1                	bnez	a5,234a <SocketTcpSend+0x50>
    23f8:	b741                	j	2378 <SocketTcpSend+0x7e>
    23fa:	4ba040ef          	jal	ra,68b4 <tcp_output>
    23fe:	8526                	mv	a0,s1
    2400:	b7cd                	j	23e2 <SocketTcpSend+0xe8>
    2402:	4569                	li	a0,26
    2404:	bfa9                	j	235e <SocketTcpSend+0x64>
    2406:	455d                	li	a0,23
    2408:	bf99                	j	235e <SocketTcpSend+0x64>

0000240a <WCHNET_SocketSend>:
WCHNET_SocketSend():
    240a:	03c00793          	li	a5,60
    240e:	02f507b3          	mul	a5,a0,a5
    2412:	20009737          	lui	a4,0x20009
    2416:	04070713          	addi	a4,a4,64 # 20009040 <SocketInf>
    241a:	97ba                	add	a5,a5,a4
    241c:	0207a803          	lw	a6,32(a5)
    2420:	4715                	li	a4,5
    2422:	00e80763          	beq	a6,a4,2430 <WCHNET_SocketSend+0x26>
    2426:	47dd                	li	a5,23
    2428:	00062023          	sw	zero,0(a2)
    242c:	853e                	mv	a0,a5
    242e:	8082                	ret
    2430:	e01fd2ef          	jal	t0,230 <__riscv_save_0>
    2434:	4fd8                	lw	a4,28(a5)
    2436:	e719                	bnez	a4,2444 <WCHNET_SocketSend+0x3a>
    2438:	b5bff0ef          	jal	ra,1f92 <SocketIPRawSend>
    243c:	87aa                	mv	a5,a0
    243e:	853e                	mv	a0,a5
    2440:	e15fd06f          	j	254 <__riscv_restore_0>
    2444:	4789                	li	a5,2
    2446:	00f71563          	bne	a4,a5,2450 <WCHNET_SocketSend+0x46>
    244a:	c31ff0ef          	jal	ra,207a <SocketUdpSend>
    244e:	b7fd                	j	243c <WCHNET_SocketSend+0x32>
    2450:	468d                	li	a3,3
    2452:	0fa00793          	li	a5,250
    2456:	fed714e3          	bne	a4,a3,243e <WCHNET_SocketSend+0x34>
    245a:	3545                	jal	22fa <SocketTcpSend>
    245c:	b7c5                	j	243c <WCHNET_SocketSend+0x32>

0000245e <WCHNET_GetPHYStatus>:
WCHNET_GetPHYStatus():
    245e:	9481c503          	lbu	a0,-1720(gp) # 20000158 <NetInf+0x20>
    2462:	8082                	ret

00002464 <WCHNET_SocketConnect>:
WCHNET_SocketConnect():
    2464:	dcdfd2ef          	jal	t0,230 <__riscv_save_0>
    2468:	03c00413          	li	s0,60
    246c:	02850433          	mul	s0,a0,s0
    2470:	20009537          	lui	a0,0x20009
    2474:	04050513          	addi	a0,a0,64 # 20009040 <SocketInf>
    2478:	1141                	addi	sp,sp,-16
    247a:	942a                	add	s0,s0,a0
    247c:	5804                	lw	s1,48(s0)
    247e:	455d                	li	a0,23
    2480:	cc8d                	beqz	s1,24ba <WCHNET_SocketConnect+0x56>
    2482:	5018                	lw	a4,32(s0)
    2484:	4795                	li	a5,5
    2486:	455d                	li	a0,23
    2488:	02f71963          	bne	a4,a5,24ba <WCHNET_SocketConnect+0x56>
    248c:	545c                	lw	a5,44(s0)
    248e:	02042a23          	sw	zero,52(s0)
    2492:	000026b7          	lui	a3,0x2
    2496:	c63e                	sw	a5,12(sp)
    2498:	3052                	fld	ft0,304(sp)
    249a:	95068693          	addi	a3,a3,-1712 # 1950 <LwipTcpConnectedCallBack>
    249e:	006c                	addi	a1,sp,12
    24a0:	8526                	mv	a0,s1
    24a2:	189020ef          	jal	ra,4e2a <tcp_connect>
    24a6:	892a                	mv	s2,a0
    24a8:	cd01                	beqz	a0,24c0 <WCHNET_SocketConnect+0x5c>
    24aa:	8526                	mv	a0,s1
    24ac:	602020ef          	jal	ra,4aae <tcp_close>
    24b0:	854a                	mv	a0,s2
    24b2:	02042023          	sw	zero,32(s0)
    24b6:	cdcff0ef          	jal	ra,1992 <ErrorEncode>
    24ba:	0141                	addi	sp,sp,16
    24bc:	d99fd06f          	j	254 <__riscv_restore_0>
    24c0:	0264c783          	lbu	a5,38(s1)
    24c4:	4501                	li	a0,0
    24c6:	fbf7f793          	andi	a5,a5,-65
    24ca:	02f48323          	sb	a5,38(s1)
    24ce:	b7f5                	j	24ba <WCHNET_SocketConnect+0x56>

000024d0 <QueryPingEnable>:
QueryPingEnable():
    24d0:	4505                	li	a0,1
    24d2:	8082                	ret

000024d4 <LwipUnreachPort>:
LwipUnreachPort():
    24d4:	92818793          	addi	a5,gp,-1752 # 20000138 <NetInf>
    24d8:	4705                	li	a4,1
    24da:	1141                	addi	sp,sp,-16
    24dc:	cbc8                	sw	a0,20(a5)
    24de:	db94                	sw	a3,48(a5)
    24e0:	dbd0                	sw	a2,52(a5)
    24e2:	df8c                	sw	a1,56(a5)
    24e4:	d7d8                	sw	a4,44(a5)
    24e6:	0141                	addi	sp,sp,16
    24e8:	8082                	ret

000024ea <LwipArpCheck>:
LwipArpCheck():
    24ea:	4705                	li	a4,1
    24ec:	96e1a223          	sw	a4,-1692(gp) # 20000174 <NetInf+0x3c>
    24f0:	8082                	ret

000024f2 <find_entry>:
find_entry():
    24f2:	d3ffd2ef          	jal	t0,230 <__riscv_save_0>
    24f6:	9781a603          	lw	a2,-1672(gp) # 20000188 <WCHCfg+0xc>
    24fa:	81c1a683          	lw	a3,-2020(gp) # 2000002c <arp_table>
    24fe:	01861713          	slli	a4,a2,0x18
    2502:	8761                	srai	a4,a4,0x18
    2504:	14050b63          	beqz	a0,265a <find_entry+0x168>
    2508:	8681c783          	lbu	a5,-1944(gp) # 20000078 <etharp_cached_entry>
    250c:	4861                	li	a6,24
    250e:	4889                	li	a7,2
    2510:	03078833          	mul	a6,a5,a6
    2514:	9836                	add	a6,a6,a3
    2516:	00c82303          	lw	t1,12(a6)
    251a:	15131063          	bne	t1,a7,265a <find_entry+0x168>
    251e:	00154303          	lbu	t1,1(a0)
    2522:	00054883          	lbu	a7,0(a0)
    2526:	00082803          	lw	a6,0(a6)
    252a:	0322                	slli	t1,t1,0x8
    252c:	01136333          	or	t1,t1,a7
    2530:	00254883          	lbu	a7,2(a0)
    2534:	08c2                	slli	a7,a7,0x10
    2536:	0068e333          	or	t1,a7,t1
    253a:	00354883          	lbu	a7,3(a0)
    253e:	08e2                	slli	a7,a7,0x18
    2540:	0068e8b3          	or	a7,a7,t1
    2544:	11089b63          	bne	a7,a6,265a <find_entry+0x168>
    2548:	07e2                	slli	a5,a5,0x18
    254a:	87e1                	srai	a5,a5,0x18
    254c:	853e                	mv	a0,a5
    254e:	d07fd06f          	j	254 <__riscv_restore_0>
    2552:	025788b3          	mul	a7,a5,t0
    2556:	98b6                	add	a7,a7,a3
    2558:	00c8ae03          	lw	t3,12(a7)
    255c:	07061963          	bne	a2,a6,25ce <find_entry+0xdc>
    2560:	060e1763          	bnez	t3,25ce <find_entry+0xdc>
    2564:	01879813          	slli	a6,a5,0x18
    2568:	41885813          	srai	a6,a6,0x18
    256c:	0785                	addi	a5,a5,1
    256e:	0ff7f793          	andi	a5,a5,255
    2572:	fec7e0e3          	bltu	a5,a2,2552 <find_entry+0x60>
    2576:	01061763          	bne	a2,a6,2584 <find_entry+0x92>
    257a:	0015f893          	andi	a7,a1,1
    257e:	57fd                	li	a5,-1
    2580:	fc0886e3          	beqz	a7,254c <find_entry+0x5a>
    2584:	8989                	andi	a1,a1,2
    2586:	57fd                	li	a5,-1
    2588:	f1f1                	bnez	a1,254c <find_entry+0x5a>
    258a:	0ff87793          	andi	a5,a6,255
    258e:	00c86b63          	bltu	a6,a2,25a4 <find_entry+0xb2>
    2592:	0ff37793          	andi	a5,t1,255
    2596:	00c36763          	bltu	t1,a2,25a4 <find_entry+0xb2>
    259a:	57fd                	li	a5,-1
    259c:	fac778e3          	bgeu	a4,a2,254c <find_entry+0x5a>
    25a0:	0ff77793          	andi	a5,a4,255
    25a4:	4761                	li	a4,24
    25a6:	02e78733          	mul	a4,a5,a4
    25aa:	96ba                	add	a3,a3,a4
    25ac:	0006a623          	sw	zero,12(a3)
    25b0:	cd01                	beqz	a0,25c8 <find_entry+0xd6>
    25b2:	3110                	fld	fa2,32(a0)
    25b4:	2118                	fld	fa4,0(a0)
    25b6:	0622                	slli	a2,a2,0x8
    25b8:	8e59                	or	a2,a2,a4
    25ba:	2138                	fld	fa4,64(a0)
    25bc:	0742                	slli	a4,a4,0x10
    25be:	8e59                	or	a2,a2,a4
    25c0:	3138                	fld	fa4,96(a0)
    25c2:	0762                	slli	a4,a4,0x18
    25c4:	8f51                	or	a4,a4,a2
    25c6:	c298                	sw	a4,0(a3)
    25c8:	00068823          	sb	zero,16(a3)
    25cc:	a80d                	j	25fe <find_entry+0x10c>
    25ce:	047e1463          	bne	t3,t2,2616 <find_entry+0x124>
    25d2:	c90d                	beqz	a0,2604 <find_entry+0x112>
    25d4:	00154e83          	lbu	t4,1(a0)
    25d8:	00054e03          	lbu	t3,0(a0)
    25dc:	0ea2                	slli	t4,t4,0x8
    25de:	01ceeeb3          	or	t4,t4,t3
    25e2:	00254e03          	lbu	t3,2(a0)
    25e6:	0e42                	slli	t3,t3,0x10
    25e8:	01de6eb3          	or	t4,t3,t4
    25ec:	00354e03          	lbu	t3,3(a0)
    25f0:	0e62                	slli	t3,t3,0x18
    25f2:	01de6e33          	or	t3,t3,t4
    25f6:	0008ae83          	lw	t4,0(a7)
    25fa:	01de1563          	bne	t3,t4,2604 <find_entry+0x112>
    25fe:	86f18423          	sb	a5,-1944(gp) # 20000078 <etharp_cached_entry>
    2602:	b799                	j	2548 <find_entry+0x56>
    2604:	0108c883          	lbu	a7,16(a7)
    2608:	f7e8e2e3          	bltu	a7,t5,256c <find_entry+0x7a>
    260c:	01879713          	slli	a4,a5,0x18
    2610:	8761                	srai	a4,a4,0x18
    2612:	8f46                	mv	t5,a7
    2614:	bfa1                	j	256c <find_entry+0x7a>
    2616:	f48e1be3          	bne	t3,s0,256c <find_entry+0x7a>
    261a:	c515                	beqz	a0,2646 <find_entry+0x154>
    261c:	00154e83          	lbu	t4,1(a0)
    2620:	00054e03          	lbu	t3,0(a0)
    2624:	0ea2                	slli	t4,t4,0x8
    2626:	01ceeeb3          	or	t4,t4,t3
    262a:	00254e03          	lbu	t3,2(a0)
    262e:	0e42                	slli	t3,t3,0x10
    2630:	01de6eb3          	or	t4,t3,t4
    2634:	00354e03          	lbu	t3,3(a0)
    2638:	0e62                	slli	t3,t3,0x18
    263a:	01de6e33          	or	t3,t3,t4
    263e:	0008ae83          	lw	t4,0(a7)
    2642:	fbde0ee3          	beq	t3,t4,25fe <find_entry+0x10c>
    2646:	0108c883          	lbu	a7,16(a7)
    264a:	f3f8e1e3          	bltu	a7,t6,256c <find_entry+0x7a>
    264e:	01879313          	slli	t1,a5,0x18
    2652:	41835313          	srai	t1,t1,0x18
    2656:	8fc6                	mv	t6,a7
    2658:	bf11                	j	256c <find_entry+0x7a>
    265a:	883a                	mv	a6,a4
    265c:	833a                	mv	t1,a4
    265e:	4f81                	li	t6,0
    2660:	4f01                	li	t5,0
    2662:	4781                	li	a5,0
    2664:	42e1                	li	t0,24
    2666:	4385                	li	t2,1
    2668:	4409                	li	s0,2
    266a:	b721                	j	2572 <find_entry+0x80>

0000266c <update_arp_entry>:
update_arp_entry():
    266c:	babfd2ef          	jal	t0,216 <__riscv_save_4>
    2670:	3198                	fld	fa4,32(a1)
    2672:	219c                	fld	fa5,0(a1)
    2674:	0722                	slli	a4,a4,0x8
    2676:	8f5d                	or	a4,a4,a5
    2678:	21bc                	fld	fa5,64(a1)
    267a:	07c2                	slli	a5,a5,0x10
    267c:	8f5d                	or	a4,a4,a5
    267e:	31bc                	fld	fa5,96(a1)
    2680:	07e2                	slli	a5,a5,0x18
    2682:	8fd9                	or	a5,a5,a4
    2684:	4158                	lw	a4,4(a0)
    2686:	00f71963          	bne	a4,a5,2698 <update_arp_entry+0x2c>
    268a:	4505                	li	a0,1
    268c:	5ff040ef          	jal	ra,748a <IPConflictHandle>
    2690:	57d9                	li	a5,-10
    2692:	853e                	mv	a0,a5
    2694:	bb7fd06f          	j	24a <__riscv_restore_4>
    2698:	dfe5                	beqz	a5,2690 <update_arp_entry+0x24>
    269a:	842e                	mv	s0,a1
    269c:	892a                	mv	s2,a0
    269e:	85aa                	mv	a1,a0
    26a0:	8522                	mv	a0,s0
    26a2:	89b2                	mv	s3,a2
    26a4:	8a36                	mv	s4,a3
    26a6:	6db000ef          	jal	ra,3580 <ip_addr_isbroadcast>
    26aa:	f17d                	bnez	a0,2690 <update_arp_entry+0x24>
    26ac:	301c                	fld	fa5,32(s0)
    26ae:	2004                	fld	fs1,0(s0)
    26b0:	f0000537          	lui	a0,0xf0000
    26b4:	07a2                	slli	a5,a5,0x8
    26b6:	8fc5                	or	a5,a5,s1
    26b8:	2024                	fld	fs1,64(s0)
    26ba:	04c2                	slli	s1,s1,0x10
    26bc:	8fc5                	or	a5,a5,s1
    26be:	3024                	fld	fs1,96(s0)
    26c0:	04e2                	slli	s1,s1,0x18
    26c2:	8cdd                	or	s1,s1,a5
    26c4:	221000ef          	jal	ra,30e4 <ntohl>
    26c8:	8ce9                	and	s1,s1,a0
    26ca:	e0000537          	lui	a0,0xe0000
    26ce:	217000ef          	jal	ra,30e4 <ntohl>
    26d2:	faa48fe3          	beq	s1,a0,2690 <update_arp_entry+0x24>
    26d6:	85d2                	mv	a1,s4
    26d8:	8522                	mv	a0,s0
    26da:	3d21                	jal	24f2 <find_entry>
    26dc:	87aa                	mv	a5,a0
    26de:	fa054ae3          	bltz	a0,2692 <update_arp_entry+0x26>
    26e2:	47e1                	li	a5,24
    26e4:	02f507b3          	mul	a5,a0,a5
    26e8:	81c1a503          	lw	a0,-2020(gp) # 2000002c <arp_table>
    26ec:	953e                	add	a0,a0,a5
    26ee:	4789                	li	a5,2
    26f0:	c55c                	sw	a5,12(a0)
    26f2:	01252a23          	sw	s2,20(a0) # e0000014 <_eusrstack+0xbffe0014>
    26f6:	00598793          	addi	a5,s3,5
    26fa:	00950713          	addi	a4,a0,9
    26fe:	2394                	fld	fa3,0(a5)
    2700:	177d                	addi	a4,a4,-1
    2702:	b314                	fsd	fa3,32(a4)
    2704:	fff78693          	addi	a3,a5,-1
    2708:	00f99663          	bne	s3,a5,2714 <update_arp_entry+0xa8>
    270c:	00050823          	sb	zero,16(a0)
    2710:	4781                	li	a5,0
    2712:	b741                	j	2692 <update_arp_entry+0x26>
    2714:	87b6                	mv	a5,a3
    2716:	b7e5                	j	26fe <update_arp_entry+0x92>

00002718 <etharp_tmr>:
etharp_tmr():
    2718:	9781a503          	lw	a0,-1672(gp) # 20000188 <WCHCfg+0xc>
    271c:	81c1a803          	lw	a6,-2020(gp) # 2000002c <arp_table>
    2720:	4701                	li	a4,0
    2722:	48e1                	li	a7,24
    2724:	4309                	li	t1,2
    2726:	4605                	li	a2,1
    2728:	0ef00e13          	li	t3,239
    272c:	00a76363          	bltu	a4,a0,2732 <etharp_tmr+0x1a>
    2730:	8082                	ret
    2732:	031706b3          	mul	a3,a4,a7
    2736:	96c2                	add	a3,a3,a6
    2738:	2a9c                	fld	fa5,16(a3)
    273a:	46cc                	lw	a1,12(a3)
    273c:	0785                	addi	a5,a5,1
    273e:	0ff7f793          	andi	a5,a5,255
    2742:	aa9c                	fsd	fa5,16(a3)
    2744:	00659863          	bne	a1,t1,2754 <etharp_tmr+0x3c>
    2748:	00fe6a63          	bltu	t3,a5,275c <etharp_tmr+0x44>
    274c:	0705                	addi	a4,a4,1
    274e:	0ff77713          	andi	a4,a4,255
    2752:	bfe9                	j	272c <etharp_tmr+0x14>
    2754:	fec59ce3          	bne	a1,a2,274c <etharp_tmr+0x34>
    2758:	fef67ae3          	bgeu	a2,a5,274c <etharp_tmr+0x34>
    275c:	0006a623          	sw	zero,12(a3)
    2760:	b7f5                	j	274c <etharp_tmr+0x34>

00002762 <etharp_ip_input>:
etharp_ip_input():
    2762:	c915                	beqz	a0,2796 <etharp_ip_input+0x34>
    2764:	41cc                	lw	a1,4(a1)
    2766:	2dd8                	fld	fa4,152(a1)
    2768:	3dbc                	fld	fa5,120(a1)
    276a:	0722                	slli	a4,a4,0x8
    276c:	8f5d                	or	a4,a4,a5
    276e:	3ddc                	fld	fa5,184(a1)
    2770:	07c2                	slli	a5,a5,0x10
    2772:	8f5d                	or	a4,a4,a5
    2774:	2dfc                	fld	fa5,216(a1)
    2776:	07e2                	slli	a5,a5,0x18
    2778:	8fd9                	or	a5,a5,a4
    277a:	4158                	lw	a4,4(a0)
    277c:	8fb9                	xor	a5,a5,a4
    277e:	4518                	lw	a4,8(a0)
    2780:	8ff9                	and	a5,a5,a4
    2782:	eb91                	bnez	a5,2796 <etharp_ip_input+0x34>
    2784:	aadfd2ef          	jal	t0,230 <__riscv_save_0>
    2788:	00758613          	addi	a2,a1,7
    278c:	4681                	li	a3,0
    278e:	05ed                	addi	a1,a1,27
    2790:	3df1                	jal	266c <update_arp_entry>
    2792:	ac3fd06f          	j	254 <__riscv_restore_0>
    2796:	8082                	ret

00002798 <etharp_arp_input>:
etharp_arp_input():
    2798:	14050c63          	beqz	a0,28f0 <etharp_arp_input+0x158>
    279c:	a7bfd2ef          	jal	t0,216 <__riscv_save_4>
    27a0:	263a                	fld	fa2,392(sp)
    27a2:	02a00793          	li	a5,42
    27a6:	1141                	addi	sp,sp,-16
    27a8:	8932                	mv	s2,a2
    27aa:	89ae                	mv	s3,a1
    27ac:	84aa                	mv	s1,a0
    27ae:	00e7e863          	bltu	a5,a4,27be <etharp_arp_input+0x26>
    27b2:	854a                	mv	a0,s2
    27b4:	0e3010ef          	jal	ra,4096 <pbuf_free>
    27b8:	0141                	addi	sp,sp,16
    27ba:	a91fd06f          	j	24a <__riscv_restore_4>
    27be:	4240                	lw	s0,4(a2)
    27c0:	4505                	li	a0,1
    27c2:	01044a03          	lbu	s4,16(s0)
    27c6:	347c                	fld	fa5,232(s0)
    27c8:	0a22                	slli	s4,s4,0x8
    27ca:	00fa6a33          	or	s4,s4,a5
    27ce:	0d7000ef          	jal	ra,30a4 <htons>
    27d2:	feaa10e3          	bne	s4,a0,27b2 <etharp_arp_input+0x1a>
    27d6:	01444a03          	lbu	s4,20(s0)
    27da:	383c                	fld	fa5,112(s0)
    27dc:	60400513          	li	a0,1540
    27e0:	0a22                	slli	s4,s4,0x8
    27e2:	00fa6a33          	or	s4,s4,a5
    27e6:	0bf000ef          	jal	ra,30a4 <htons>
    27ea:	fcaa14e3          	bne	s4,a0,27b2 <etharp_arp_input+0x1a>
    27ee:	01244a03          	lbu	s4,18(s0)
    27f2:	381c                	fld	fa5,48(s0)
    27f4:	6a85                	lui	s5,0x1
    27f6:	0a22                	slli	s4,s4,0x8
    27f8:	800a8513          	addi	a0,s5,-2048 # 800 <__stack_size>
    27fc:	00fa6a33          	or	s4,s4,a5
    2800:	0a5000ef          	jal	ra,30a4 <htons>
    2804:	faaa17e3          	bne	s4,a0,27b2 <etharp_arp_input+0x1a>
    2808:	00e44a03          	lbu	s4,14(s0)
    280c:	345c                	fld	fa5,168(s0)
    280e:	806a8513          	addi	a0,s5,-2042
    2812:	0a22                	slli	s4,s4,0x8
    2814:	00fa6a33          	or	s4,s4,a5
    2818:	08d000ef          	jal	ra,30a4 <htons>
    281c:	f8aa1be3          	bne	s4,a0,27b2 <etharp_arp_input+0x1a>
    2820:	01d40a13          	addi	s4,s0,29
    2824:	4611                	li	a2,4
    2826:	85d2                	mv	a1,s4
    2828:	0068                	addi	a0,sp,12
    282a:	323050ef          	jal	ra,834c <memcpy>
    282e:	40d4                	lw	a3,4(s1)
    2830:	01740613          	addi	a2,s0,23
    2834:	c2a5                	beqz	a3,2894 <etharp_arp_input+0xfc>
    2836:	02844703          	lbu	a4,40(s0)
    283a:	02744783          	lbu	a5,39(s0)
    283e:	0722                	slli	a4,a4,0x8
    2840:	8f5d                	or	a4,a4,a5
    2842:	02944783          	lbu	a5,41(s0)
    2846:	07c2                	slli	a5,a5,0x10
    2848:	8f5d                	or	a4,a4,a5
    284a:	02a44783          	lbu	a5,42(s0)
    284e:	07e2                	slli	a5,a5,0x18
    2850:	8fd9                	or	a5,a5,a4
    2852:	04f69163          	bne	a3,a5,2894 <etharp_arp_input+0xfc>
    2856:	4685                	li	a3,1
    2858:	006c                	addi	a1,sp,12
    285a:	8526                	mv	a0,s1
    285c:	3d01                	jal	266c <update_arp_entry>
    285e:	4a85                	li	s5,1
    2860:	287c                	fld	fa5,208(s0)
    2862:	3848                	fld	fa0,176(s0)
    2864:	07a2                	slli	a5,a5,0x8
    2866:	8d5d                	or	a0,a0,a5
    2868:	03d000ef          	jal	ra,30a4 <htons>
    286c:	4785                	li	a5,1
    286e:	02f50963          	beq	a0,a5,28a0 <etharp_arp_input+0x108>
    2872:	4789                	li	a5,2
    2874:	f2f51fe3          	bne	a0,a5,27b2 <etharp_arp_input+0x1a>
    2878:	006c                	addi	a1,sp,12
    287a:	8526                	mv	a0,s1
    287c:	68f040ef          	jal	ra,770a <dhcp_arp_reply>
    2880:	9801a703          	lw	a4,-1664(gp) # 20000190 <DHCPCtrl>
    2884:	d71d                	beqz	a4,27b2 <etharp_arp_input+0x1a>
    2886:	98018793          	addi	a5,gp,-1664 # 20000190 <DHCPCtrl>
    288a:	47dc                	lw	a5,12(a5)
    288c:	f20783e3          	beqz	a5,27b2 <etharp_arp_input+0x1a>
    2890:	006c                	addi	a1,sp,12
    2892:	a8a1                	j	28ea <etharp_arp_input+0x152>
    2894:	4681                	li	a3,0
    2896:	006c                	addi	a1,sp,12
    2898:	8526                	mv	a0,s1
    289a:	3bc9                	jal	266c <update_arp_entry>
    289c:	4a81                	li	s5,0
    289e:	b7c9                	j	2860 <etharp_arp_input+0xc8>
    28a0:	f00a89e3          	beqz	s5,27b2 <etharp_arp_input+0x1a>
    28a4:	4509                	li	a0,2
    28a6:	7fe000ef          	jal	ra,30a4 <htons>
    28aa:	b848                	fsd	fa0,176(s0)
    28ac:	8121                	srli	a0,a0,0x8
    28ae:	a868                	fsd	fa0,208(s0)
    28b0:	4611                	li	a2,4
    28b2:	85d2                	mv	a1,s4
    28b4:	02740513          	addi	a0,s0,39
    28b8:	295050ef          	jal	ra,834c <memcpy>
    28bc:	00448593          	addi	a1,s1,4
    28c0:	4611                	li	a2,4
    28c2:	8552                	mv	a0,s4
    28c4:	289050ef          	jal	ra,834c <memcpy>
    28c8:	00640793          	addi	a5,s0,6
    28cc:	00598593          	addi	a1,s3,5
    28d0:	2bf8                	fld	fa4,208(a5)
    28d2:	17fd                	addi	a5,a5,-1
    28d4:	15fd                	addi	a1,a1,-1
    28d6:	02e780a3          	sb	a4,33(a5)
    28da:	b398                	fsd	fa4,32(a5)
    28dc:	3198                	fld	fa4,32(a1)
    28de:	bbf8                	fsd	fa4,240(a5)
    28e0:	b3f8                	fsd	fa4,224(a5)
    28e2:	fef417e3          	bne	s0,a5,28d0 <etharp_arp_input+0x138>
    28e6:	4c9c                	lw	a5,24(s1)
    28e8:	85ca                	mv	a1,s2
    28ea:	8526                	mv	a0,s1
    28ec:	9782                	jalr	a5
    28ee:	b5d1                	j	27b2 <etharp_arp_input+0x1a>
    28f0:	8082                	ret

000028f2 <etharp_request>:
etharp_request():
    28f2:	925fd2ef          	jal	t0,216 <__riscv_save_4>
    28f6:	892a                	mv	s2,a0
    28f8:	89ae                	mv	s3,a1
    28fa:	4601                	li	a2,0
    28fc:	02b00593          	li	a1,43
    2900:	450d                	li	a0,3
    2902:	7e2010ef          	jal	ra,40e4 <pbuf_alloc>
    2906:	547d                	li	s0,-1
    2908:	cd55                	beqz	a0,29c4 <etharp_request+0xd2>
    290a:	4140                	lw	s0,4(a0)
    290c:	84aa                	mv	s1,a0
    290e:	4505                	li	a0,1
    2910:	794000ef          	jal	ra,30a4 <htons>
    2914:	b848                	fsd	fa0,176(s0)
    2916:	8121                	srli	a0,a0,0x8
    2918:	a868                	fsd	fa0,208(s0)
    291a:	03090693          	addi	a3,s2,48
    291e:	00640793          	addi	a5,s0,6
    2922:	4715                	li	a4,5
    2924:	83c18593          	addi	a1,gp,-1988 # 2000004c <ethzero>
    2928:	83418613          	addi	a2,gp,-1996 # 20000044 <ethbroadcast>
    292c:	557d                	li	a0,-1
    292e:	0006c803          	lbu	a6,0(a3)
    2932:	17fd                	addi	a5,a5,-1
    2934:	16fd                	addi	a3,a3,-1
    2936:	01078ba3          	sb	a6,23(a5)
    293a:	00e58833          	add	a6,a1,a4
    293e:	00084803          	lbu	a6,0(a6)
    2942:	030780a3          	sb	a6,33(a5)
    2946:	00e60833          	add	a6,a2,a4
    294a:	00084803          	lbu	a6,0(a6)
    294e:	177d                	addi	a4,a4,-1
    2950:	010780a3          	sb	a6,1(a5)
    2954:	0016c803          	lbu	a6,1(a3)
    2958:	010783a3          	sb	a6,7(a5)
    295c:	fca719e3          	bne	a4,a0,292e <etharp_request+0x3c>
    2960:	4611                	li	a2,4
    2962:	00490593          	addi	a1,s2,4
    2966:	01d40513          	addi	a0,s0,29
    296a:	1e3050ef          	jal	ra,834c <memcpy>
    296e:	85ce                	mv	a1,s3
    2970:	4611                	li	a2,4
    2972:	02740513          	addi	a0,s0,39
    2976:	1d7050ef          	jal	ra,834c <memcpy>
    297a:	4505                	li	a0,1
    297c:	728000ef          	jal	ra,30a4 <htons>
    2980:	b468                	fsd	fa0,232(s0)
    2982:	6985                	lui	s3,0x1
    2984:	8121                	srli	a0,a0,0x8
    2986:	a808                	fsd	fa0,16(s0)
    2988:	80098513          	addi	a0,s3,-2048 # 800 <__stack_size>
    298c:	718000ef          	jal	ra,30a4 <htons>
    2990:	b808                	fsd	fa0,48(s0)
    2992:	8121                	srli	a0,a0,0x8
    2994:	a828                	fsd	fa0,80(s0)
    2996:	60400513          	li	a0,1540
    299a:	70a000ef          	jal	ra,30a4 <htons>
    299e:	b828                	fsd	fa0,112(s0)
    29a0:	8121                	srli	a0,a0,0x8
    29a2:	a848                	fsd	fa0,144(s0)
    29a4:	80698513          	addi	a0,s3,-2042
    29a8:	6fc000ef          	jal	ra,30a4 <htons>
    29ac:	01892783          	lw	a5,24(s2)
    29b0:	b448                	fsd	fa0,168(s0)
    29b2:	8121                	srli	a0,a0,0x8
    29b4:	a468                	fsd	fa0,200(s0)
    29b6:	85a6                	mv	a1,s1
    29b8:	854a                	mv	a0,s2
    29ba:	9782                	jalr	a5
    29bc:	842a                	mv	s0,a0
    29be:	8526                	mv	a0,s1
    29c0:	6d6010ef          	jal	ra,4096 <pbuf_free>
    29c4:	8522                	mv	a0,s0
    29c6:	885fd06f          	j	24a <__riscv_restore_4>

000029ca <etharp_query>:
etharp_query():
    29ca:	84dfd2ef          	jal	t0,216 <__riscv_save_4>
    29ce:	842e                	mv	s0,a1
    29d0:	892a                	mv	s2,a0
    29d2:	85aa                	mv	a1,a0
    29d4:	8522                	mv	a0,s0
    29d6:	89b2                	mv	s3,a2
    29d8:	3a9000ef          	jal	ra,3580 <ip_addr_isbroadcast>
    29dc:	c501                	beqz	a0,29e4 <etharp_query+0x1a>
    29de:	5559                	li	a0,-10
    29e0:	86bfd06f          	j	24a <__riscv_restore_4>
    29e4:	301c                	fld	fa5,32(s0)
    29e6:	2004                	fld	fs1,0(s0)
    29e8:	f0000537          	lui	a0,0xf0000
    29ec:	07a2                	slli	a5,a5,0x8
    29ee:	8fc5                	or	a5,a5,s1
    29f0:	2024                	fld	fs1,64(s0)
    29f2:	04c2                	slli	s1,s1,0x10
    29f4:	8fc5                	or	a5,a5,s1
    29f6:	3024                	fld	fs1,96(s0)
    29f8:	04e2                	slli	s1,s1,0x18
    29fa:	8cdd                	or	s1,s1,a5
    29fc:	6e8000ef          	jal	ra,30e4 <ntohl>
    2a00:	8ce9                	and	s1,s1,a0
    2a02:	e0000537          	lui	a0,0xe0000
    2a06:	6de000ef          	jal	ra,30e4 <ntohl>
    2a0a:	fca48ae3          	beq	s1,a0,29de <etharp_query+0x14>
    2a0e:	3018                	fld	fa4,32(s0)
    2a10:	201c                	fld	fa5,0(s0)
    2a12:	0722                	slli	a4,a4,0x8
    2a14:	8f5d                	or	a4,a4,a5
    2a16:	203c                	fld	fa5,64(s0)
    2a18:	07c2                	slli	a5,a5,0x10
    2a1a:	8f5d                	or	a4,a4,a5
    2a1c:	303c                	fld	fa5,96(s0)
    2a1e:	07e2                	slli	a5,a5,0x18
    2a20:	8fd9                	or	a5,a5,a4
    2a22:	dfd5                	beqz	a5,29de <etharp_query+0x14>
    2a24:	4585                	li	a1,1
    2a26:	8522                	mv	a0,s0
    2a28:	acbff0ef          	jal	ra,24f2 <find_entry>
    2a2c:	fa054ae3          	bltz	a0,29e0 <etharp_query+0x16>
    2a30:	47e1                	li	a5,24
    2a32:	02f504b3          	mul	s1,a0,a5
    2a36:	81c1a703          	lw	a4,-2020(gp) # 2000002c <arp_table>
    2a3a:	81c18a13          	addi	s4,gp,-2020 # 2000002c <arp_table>
    2a3e:	4785                	li	a5,1
    2a40:	9726                	add	a4,a4,s1
    2a42:	4754                	lw	a3,12(a4)
    2a44:	ea91                	bnez	a3,2a58 <etharp_query+0x8e>
    2a46:	c75c                	sw	a5,12(a4)
    2a48:	aa3ff0ef          	jal	ra,24ea <LwipArpCheck>
    2a4c:	85a2                	mv	a1,s0
    2a4e:	854a                	mv	a0,s2
    2a50:	354d                	jal	28f2 <etharp_request>
    2a52:	f80987e3          	beqz	s3,29e0 <etharp_query+0x16>
    2a56:	a031                	j	2a62 <etharp_query+0x98>
    2a58:	fef688e3          	beq	a3,a5,2a48 <etharp_query+0x7e>
    2a5c:	557d                	li	a0,-1
    2a5e:	fe0985e3          	beqz	s3,2a48 <etharp_query+0x7e>
    2a62:	000a2783          	lw	a5,0(s4)
    2a66:	4709                	li	a4,2
    2a68:	97a6                	add	a5,a5,s1
    2a6a:	47d4                	lw	a3,12(a5)
    2a6c:	f6e69ae3          	bne	a3,a4,29e0 <etharp_query+0x16>
    2a70:	0049a403          	lw	s0,4(s3)
    2a74:	07a5                	addi	a5,a5,9
    2a76:	03090693          	addi	a3,s2,48
    2a7a:	00640713          	addi	a4,s0,6
    2a7e:	2390                	fld	fa2,0(a5)
    2a80:	177d                	addi	a4,a4,-1
    2a82:	17fd                	addi	a5,a5,-1
    2a84:	b310                	fsd	fa2,32(a4)
    2a86:	2290                	fld	fa2,0(a3)
    2a88:	16fd                	addi	a3,a3,-1
    2a8a:	b370                	fsd	fa2,224(a4)
    2a8c:	fee419e3          	bne	s0,a4,2a7e <etharp_query+0xb4>
    2a90:	6505                	lui	a0,0x1
    2a92:	80050513          	addi	a0,a0,-2048 # 800 <__stack_size>
    2a96:	2539                	jal	30a4 <htons>
    2a98:	01892783          	lw	a5,24(s2)
    2a9c:	b448                	fsd	fa0,168(s0)
    2a9e:	8121                	srli	a0,a0,0x8
    2aa0:	a468                	fsd	fa0,200(s0)
    2aa2:	85ce                	mv	a1,s3
    2aa4:	854a                	mv	a0,s2
    2aa6:	9782                	jalr	a5
    2aa8:	bf25                	j	29e0 <etharp_query+0x16>

00002aaa <etharp_output>:
etharp_output():
    2aaa:	f6cfd2ef          	jal	t0,216 <__riscv_save_4>
    2aae:	84ae                	mv	s1,a1
    2ab0:	1141                	addi	sp,sp,-16
    2ab2:	892a                	mv	s2,a0
    2ab4:	45bd                	li	a1,15
    2ab6:	8526                	mv	a0,s1
    2ab8:	8432                	mv	s0,a2
    2aba:	56e010ef          	jal	ra,4028 <pbuf_header>
    2abe:	12051163          	bnez	a0,2be0 <etharp_output+0x136>
    2ac2:	85ca                	mv	a1,s2
    2ac4:	8522                	mv	a0,s0
    2ac6:	2bb000ef          	jal	ra,3580 <ip_addr_isbroadcast>
    2aca:	10051863          	bnez	a0,2bda <etharp_output+0x130>
    2ace:	301c                	fld	fa5,32(s0)
    2ad0:	00044983          	lbu	s3,0(s0)
    2ad4:	f0000537          	lui	a0,0xf0000
    2ad8:	07a2                	slli	a5,a5,0x8
    2ada:	0137e7b3          	or	a5,a5,s3
    2ade:	00244983          	lbu	s3,2(s0)
    2ae2:	09c2                	slli	s3,s3,0x10
    2ae4:	00f9e7b3          	or	a5,s3,a5
    2ae8:	00344983          	lbu	s3,3(s0)
    2aec:	09e2                	slli	s3,s3,0x18
    2aee:	00f9e9b3          	or	s3,s3,a5
    2af2:	2bcd                	jal	30e4 <ntohl>
    2af4:	00a9f9b3          	and	s3,s3,a0
    2af8:	e0000537          	lui	a0,0xe0000
    2afc:	23e5                	jal	30e4 <ntohl>
    2afe:	2010                	fld	fa2,0(s0)
    2b00:	3014                	fld	fa3,32(s0)
    2b02:	2038                	fld	fa4,64(s0)
    2b04:	303c                	fld	fa5,96(s0)
    2b06:	08a99963          	bne	s3,a0,2b98 <etharp_output+0xee>
    2b0a:	00869513          	slli	a0,a3,0x8
    2b0e:	8d51                	or	a0,a0,a2
    2b10:	0742                	slli	a4,a4,0x10
    2b12:	8d59                	or	a0,a0,a4
    2b14:	07e2                	slli	a5,a5,0x18
    2b16:	4585                	li	a1,1
    2b18:	846c                	0x846c
    2b1a:	8d5d                	or	a0,a0,a5
    2b1c:	05e00593          	li	a1,94
    2b20:	854c                	0x854c
    2b22:	23c9                	jal	30e4 <ntohl>
    2b24:	8141                	srli	a0,a0,0x10
    2b26:	07f57513          	andi	a0,a0,127
    2b2a:	85c8                	0x85c8
    2b2c:	3008                	fld	fa0,32(s0)
    2b2e:	201c                	fld	fa5,0(s0)
    2b30:	0522                	slli	a0,a0,0x8
    2b32:	8d5d                	or	a0,a0,a5
    2b34:	203c                	fld	fa5,64(s0)
    2b36:	07c2                	slli	a5,a5,0x10
    2b38:	8fc9                	or	a5,a5,a0
    2b3a:	3028                	fld	fa0,96(s0)
    2b3c:	0562                	slli	a0,a0,0x18
    2b3e:	8d5d                	or	a0,a0,a5
    2b40:	2355                	jal	30e4 <ntohl>
    2b42:	8121                	srli	a0,a0,0x8
    2b44:	8648                	0x8648
    2b46:	3008                	fld	fa0,32(s0)
    2b48:	201c                	fld	fa5,0(s0)
    2b4a:	0522                	slli	a0,a0,0x8
    2b4c:	8d5d                	or	a0,a0,a5
    2b4e:	203c                	fld	fa5,64(s0)
    2b50:	07c2                	slli	a5,a5,0x10
    2b52:	8fc9                	or	a5,a5,a0
    2b54:	3028                	fld	fa0,96(s0)
    2b56:	0562                	slli	a0,a0,0x18
    2b58:	8d5d                	or	a0,a0,a5
    2b5a:	2369                	jal	30e4 <ntohl>
    2b5c:	86c8                	0x86c8
    2b5e:	003c                	addi	a5,sp,8
    2b60:	40c0                	lw	s0,4(s1)
    2b62:	0795                	addi	a5,a5,5
    2b64:	03090693          	addi	a3,s2,48
    2b68:	00640713          	addi	a4,s0,6
    2b6c:	2390                	fld	fa2,0(a5)
    2b6e:	177d                	addi	a4,a4,-1
    2b70:	17fd                	addi	a5,a5,-1
    2b72:	b310                	fsd	fa2,32(a4)
    2b74:	2290                	fld	fa2,0(a3)
    2b76:	16fd                	addi	a3,a3,-1
    2b78:	b370                	fsd	fa2,224(a4)
    2b7a:	fee419e3          	bne	s0,a4,2b6c <etharp_output+0xc2>
    2b7e:	6505                	lui	a0,0x1
    2b80:	80050513          	addi	a0,a0,-2048 # 800 <__stack_size>
    2b84:	2305                	jal	30a4 <htons>
    2b86:	01892783          	lw	a5,24(s2)
    2b8a:	b448                	fsd	fa0,168(s0)
    2b8c:	8121                	srli	a0,a0,0x8
    2b8e:	a468                	fsd	fa0,200(s0)
    2b90:	85a6                	mv	a1,s1
    2b92:	854a                	mv	a0,s2
    2b94:	9782                	jalr	a5
    2b96:	a83d                	j	2bd4 <etharp_output+0x12a>
    2b98:	06a2                	slli	a3,a3,0x8
    2b9a:	8ed1                	or	a3,a3,a2
    2b9c:	0742                	slli	a4,a4,0x10
    2b9e:	8f55                	or	a4,a4,a3
    2ba0:	07e2                	slli	a5,a5,0x18
    2ba2:	8fd9                	or	a5,a5,a4
    2ba4:	00492703          	lw	a4,4(s2)
    2ba8:	8fb9                	xor	a5,a5,a4
    2baa:	00892703          	lw	a4,8(s2)
    2bae:	8ff9                	and	a5,a5,a4
    2bb0:	c791                	beqz	a5,2bbc <etharp_output+0x112>
    2bb2:	00c92783          	lw	a5,12(s2)
    2bb6:	cb81                	beqz	a5,2bc6 <etharp_output+0x11c>
    2bb8:	00c90413          	addi	s0,s2,12
    2bbc:	8626                	mv	a2,s1
    2bbe:	85a2                	mv	a1,s0
    2bc0:	854a                	mv	a0,s2
    2bc2:	3521                	jal	29ca <etharp_query>
    2bc4:	a801                	j	2bd4 <etharp_output+0x12a>
    2bc6:	00008537          	lui	a0,0x8
    2bca:	55850513          	addi	a0,a0,1368 # 8558 <ErrTable+0x10>
    2bce:	72a050ef          	jal	ra,82f8 <puts>
    2bd2:	5571                	li	a0,-4
    2bd4:	0141                	addi	sp,sp,16
    2bd6:	e74fd06f          	j	24a <__riscv_restore_4>
    2bda:	83418793          	addi	a5,gp,-1996 # 20000044 <ethbroadcast>
    2bde:	b749                	j	2b60 <etharp_output+0xb6>
    2be0:	5579                	li	a0,-2
    2be2:	bfcd                	j	2bd4 <etharp_output+0x12a>

00002be4 <ethernet_input>:
ethernet_input():
    2be4:	e4cfd2ef          	jal	t0,230 <__riscv_save_0>
    2be8:	415c                	lw	a5,4(a0)
    2bea:	842a                	mv	s0,a0
    2bec:	84ae                	mv	s1,a1
    2bee:	37c8                	fld	fa0,168(a5)
    2bf0:	27fc                	fld	fa5,200(a5)
    2bf2:	07a2                	slli	a5,a5,0x8
    2bf4:	8d5d                	or	a0,a0,a5
    2bf6:	217d                	jal	30a4 <htons>
    2bf8:	80050793          	addi	a5,a0,-2048
    2bfc:	cb91                	beqz	a5,2c10 <ethernet_input+0x2c>
    2bfe:	6785                	lui	a5,0x1
    2c00:	80678793          	addi	a5,a5,-2042 # 806 <__stack_size+0x6>
    2c04:	02f50563          	beq	a0,a5,2c2e <ethernet_input+0x4a>
    2c08:	8522                	mv	a0,s0
    2c0a:	48c010ef          	jal	ra,4096 <pbuf_free>
    2c0e:	a829                	j	2c28 <ethernet_input+0x44>
    2c10:	85a2                	mv	a1,s0
    2c12:	8526                	mv	a0,s1
    2c14:	b4fff0ef          	jal	ra,2762 <etharp_ip_input>
    2c18:	55c5                	li	a1,-15
    2c1a:	8522                	mv	a0,s0
    2c1c:	40c010ef          	jal	ra,4028 <pbuf_header>
    2c20:	f565                	bnez	a0,2c08 <ethernet_input+0x24>
    2c22:	85a6                	mv	a1,s1
    2c24:	8522                	mv	a0,s0
    2c26:	2b11                	jal	313a <ip_input>
    2c28:	4501                	li	a0,0
    2c2a:	e2afd06f          	j	254 <__riscv_restore_0>
    2c2e:	8622                	mv	a2,s0
    2c30:	02b48593          	addi	a1,s1,43
    2c34:	8526                	mv	a0,s1
    2c36:	b63ff0ef          	jal	ra,2798 <etharp_arp_input>
    2c3a:	b7fd                	j	2c28 <ethernet_input+0x44>

00002c3c <low_level_output>:
low_level_output():
    2c3c:	ddafd2ef          	jal	t0,216 <__riscv_save_4>
    2c40:	89ae                	mv	s3,a1
    2c42:	854e                	mv	a0,s3
    2c44:	55fd                	li	a1,-1
    2c46:	3e2010ef          	jal	ra,4028 <pbuf_header>
    2c4a:	9481a583          	lw	a1,-1720(gp) # 20000158 <NetInf+0x20>
    2c4e:	67c1                	lui	a5,0x10
    2c50:	4505                	li	a0,1
    2c52:	89018693          	addi	a3,gp,-1904 # 200000a0 <SuccessPackets>
    2c56:	4294                	lw	a3,0(a3)
    2c58:	89018613          	addi	a2,gp,-1904 # 200000a0 <SuccessPackets>
    2c5c:	eab9                	bnez	a3,2cb2 <low_level_output+0x76>
    2c5e:	20008537          	lui	a0,0x20008
    2c62:	84ce                	mv	s1,s3
    2c64:	4401                	li	s0,0
    2c66:	32050793          	addi	a5,a0,800 # 20008320 <MACTxBuf>
    2c6a:	892a                	mv	s2,a0
    2c6c:	eca1                	bnez	s1,2cc4 <low_level_output+0x88>
    2c6e:	a6818793          	addi	a5,gp,-1432 # 20000278 <TXCtrl>
    2c72:	4398                	lw	a4,0(a5)
    2c74:	4685                	li	a3,1
    2c76:	070a                	slli	a4,a4,0x2
    2c78:	973e                	add	a4,a4,a5
    2c7a:	c354                	sw	a3,4(a4)
    2c7c:	4398                	lw	a4,0(a5)
    2c7e:	0705                	addi	a4,a4,1
    2c80:	c398                	sw	a4,0(a5)
    2c82:	4398                	lw	a4,0(a5)
    2c84:	00e6f463          	bgeu	a3,a4,2c8c <low_level_output+0x50>
    2c88:	0007a023          	sw	zero,0(a5) # 10000 <_data_lma+0x7a2c>
    2c8c:	03c00793          	li	a5,60
    2c90:	85a2                	mv	a1,s0
    2c92:	00f47463          	bgeu	s0,a5,2c9a <low_level_output+0x5e>
    2c96:	03c00593          	li	a1,60
    2c9a:	05c2                	slli	a1,a1,0x10
    2c9c:	81c1                	srli	a1,a1,0x10
    2c9e:	32090513          	addi	a0,s2,800
    2ca2:	f34fe0ef          	jal	ra,13d6 <mac_send>
    2ca6:	4585                	li	a1,1
    2ca8:	854e                	mv	a0,s3
    2caa:	37e010ef          	jal	ra,4028 <pbuf_header>
    2cae:	4501                	li	a0,0
    2cb0:	a801                	j	2cc0 <low_level_output+0x84>
    2cb2:	17fd                	addi	a5,a5,-1
    2cb4:	c399                	beqz	a5,2cba <low_level_output+0x7e>
    2cb6:	f8a59ee3          	bne	a1,a0,2c52 <low_level_output+0x16>
    2cba:	00062023          	sw	zero,0(a2)
    2cbe:	5551                	li	a0,-12
    2cc0:	d8afd06f          	j	24a <__riscv_restore_4>
    2cc4:	00a4da03          	lhu	s4,10(s1)
    2cc8:	40cc                	lw	a1,4(s1)
    2cca:	853e                	mv	a0,a5
    2ccc:	9452                	add	s0,s0,s4
    2cce:	8652                	mv	a2,s4
    2cd0:	67c050ef          	jal	ra,834c <memcpy>
    2cd4:	0442                	slli	s0,s0,0x10
    2cd6:	8041                	srli	s0,s0,0x10
    2cd8:	014507b3          	add	a5,a0,s4
    2cdc:	4084                	lw	s1,0(s1)
    2cde:	b779                	j	2c6c <low_level_output+0x30>

00002ce0 <low_level_init>:
low_level_init():
    2ce0:	d50fd2ef          	jal	t0,230 <__riscv_save_0>
    2ce4:	4799                	li	a5,6
    2ce6:	02f50523          	sb	a5,42(a0)
    2cea:	8a41a583          	lw	a1,-1884(gp) # 200000b4 <WCHMACAddr>
    2cee:	842a                	mv	s0,a0
    2cf0:	4781                	li	a5,0
    2cf2:	4719                	li	a4,6
    2cf4:	00f586b3          	add	a3,a1,a5
    2cf8:	2290                	fld	fa2,0(a3)
    2cfa:	00f406b3          	add	a3,s0,a5
    2cfe:	0785                	addi	a5,a5,1
    2d00:	02c685a3          	sb	a2,43(a3)
    2d04:	fee798e3          	bne	a5,a4,2cf4 <low_level_init+0x14>
    2d08:	a6818793          	addi	a5,gp,-1432 # 20000278 <TXCtrl>
    2d0c:	0007a023          	sw	zero,0(a5)
    2d10:	0007a223          	sw	zero,4(a5)
    2d14:	20008737          	lui	a4,0x20008
    2d18:	0007a423          	sw	zero,8(a5)
    2d1c:	32070713          	addi	a4,a4,800 # 20008320 <MACTxBuf>
    2d20:	c7d8                	sw	a4,12(a5)
    2d22:	99818493          	addi	s1,gp,-1640 # 200001a8 <RxCtrl>
    2d26:	0d000613          	li	a2,208
    2d2a:	4581                	li	a1,0
    2d2c:	99818513          	addi	a0,gp,-1640 # 200001a8 <RxCtrl>
    2d30:	cb98                	sw	a4,16(a5)
    2d32:	d2efd0ef          	jal	ra,260 <memset>
    2d36:	4785                	li	a5,1
    2d38:	0cf4a623          	sw	a5,204(s1)
    2d3c:	5dc00793          	li	a5,1500
    2d40:	b41e                	fsd	ft7,40(sp)
    2d42:	03300793          	li	a5,51
    2d46:	02f408a3          	sb	a5,49(s0)
    2d4a:	8801a823          	sw	zero,-1904(gp) # 200000a0 <SuccessPackets>
    2d4e:	d06fd06f          	j	254 <__riscv_restore_0>

00002d52 <ethernetif_init>:
ethernetif_init():
    2d52:	cdefd2ef          	jal	t0,230 <__riscv_save_0>
    2d56:	ab418713          	addi	a4,gp,-1356 # 200002c4 <dhcp_host_name>
    2d5a:	d158                	sw	a4,36(a0)
    2d5c:	671d                	lui	a4,0x7
    2d5e:	e6570713          	addi	a4,a4,-411 # 6e65 <tcp_keepalive+0x4d>
    2d62:	b93a                	fsd	fa4,176(sp)
    2d64:	00003737          	lui	a4,0x3
    2d68:	aaa70713          	addi	a4,a4,-1366 # 2aaa <etharp_output>
    2d6c:	c958                	sw	a4,20(a0)
    2d6e:	00003737          	lui	a4,0x3
    2d72:	c3c70713          	addi	a4,a4,-964 # 2c3c <low_level_output>
    2d76:	cd18                	sw	a4,24(a0)
    2d78:	00052e23          	sw	zero,28(a0)
    2d7c:	3795                	jal	2ce0 <low_level_init>
    2d7e:	4501                	li	a0,0
    2d80:	cd4fd06f          	j	254 <__riscv_restore_0>

00002d84 <ethernetif_input>:
ethernetif_input():
    2d84:	c84fd2ef          	jal	t0,208 <__riscv_save_10>
    2d88:	99818793          	addi	a5,gp,-1640 # 200001a8 <RxCtrl>
    2d8c:	0c87a783          	lw	a5,200(a5)
    2d90:	14078263          	beqz	a5,2ed4 <ethernetif_input+0x150>
    2d94:	88018793          	addi	a5,gp,-1920 # 20000090 <DataLED>
    2d98:	2398                	fld	fa4,0(a5)
    2d9a:	e000e6b7          	lui	a3,0xe000e
    2d9e:	6609                	lui	a2,0x2
    2da0:	0705                	addi	a4,a4,1
    2da2:	a398                	fsd	fa4,0(a5)
    2da4:	18c6a423          	sw	a2,392(a3) # e000e188 <_eusrstack+0xbffee188>
    2da8:	99818413          	addi	s0,gp,-1640 # 200001a8 <RxCtrl>
    2dac:	0c842783          	lw	a5,200(s0)
    2db0:	10c6a423          	sw	a2,264(a3)
    2db4:	0ff7f793          	andi	a5,a5,255
    2db8:	10078e63          	beqz	a5,2ed4 <ethernetif_input+0x150>
    2dbc:	18c6a423          	sw	a2,392(a3)
    2dc0:	0c042783          	lw	a5,192(s0)
    2dc4:	892a                	mv	s2,a0
    2dc6:	07c1                	addi	a5,a5,16
    2dc8:	078a                	slli	a5,a5,0x2
    2dca:	97a2                	add	a5,a5,s0
    2dcc:	4398                	lw	a4,0(a5)
    2dce:	0c042783          	lw	a5,192(s0)
    2dd2:	02078793          	addi	a5,a5,32
    2dd6:	078a                	slli	a5,a5,0x2
    2dd8:	97a2                	add	a5,a5,s0
    2dda:	0007aa03          	lw	s4,0(a5)
    2dde:	0c042783          	lw	a5,192(s0)
    2de2:	078a                	slli	a5,a5,0x2
    2de4:	97a2                	add	a5,a5,s0
    2de6:	0007aa83          	lw	s5,0(a5)
    2dea:	10c6a423          	sw	a2,264(a3)
    2dee:	4789                	li	a5,2
    2df0:	0ffafa93          	andi	s5,s5,255
    2df4:	0efa9263          	bne	s5,a5,2ed8 <ethernetif_input+0x154>
    2df8:	01071793          	slli	a5,a4,0x10
    2dfc:	83c1                	srli	a5,a5,0x10
    2dfe:	4481                	li	s1,0
    2e00:	c7ad                	beqz	a5,2e6a <ethernetif_input+0xe6>
    2e02:	0785                	addi	a5,a5,1
    2e04:	01079593          	slli	a1,a5,0x10
    2e08:	460d                	li	a2,3
    2e0a:	81c1                	srli	a1,a1,0x10
    2e0c:	450d                	li	a0,3
    2e0e:	2d6010ef          	jal	ra,40e4 <pbuf_alloc>
    2e12:	84aa                	mv	s1,a0
    2e14:	c161                	beqz	a0,2ed4 <ethernetif_input+0x150>
    2e16:	55fd                	li	a1,-1
    2e18:	210010ef          	jal	ra,4028 <pbuf_header>
    2e1c:	89a6                	mv	s3,s1
    2e1e:	4b19                	li	s6,6
    2e20:	4ba5                	li	s7,9
    2e22:	1b7d                	addi	s6,s6,-1
    2e24:	0ffb7b13          	andi	s6,s6,255
    2e28:	0a0b0663          	beqz	s6,2ed4 <ethernetif_input+0x150>
    2e2c:	00a9d603          	lhu	a2,10(s3)
    2e30:	0049a503          	lw	a0,4(s3)
    2e34:	85d2                	mv	a1,s4
    2e36:	516050ef          	jal	ra,834c <memcpy>
    2e3a:	0c042783          	lw	a5,192(s0)
    2e3e:	078a                	slli	a5,a5,0x2
    2e40:	97a2                	add	a5,a5,s0
    2e42:	0007a023          	sw	zero,0(a5)
    2e46:	0c042783          	lw	a5,192(s0)
    2e4a:	0785                	addi	a5,a5,1
    2e4c:	0cf42023          	sw	a5,192(s0)
    2e50:	0c042783          	lw	a5,192(s0)
    2e54:	00fbf463          	bgeu	s7,a5,2e5c <ethernetif_input+0xd8>
    2e58:	0c042023          	sw	zero,192(s0)
    2e5c:	00a9d783          	lhu	a5,10(s3)
    2e60:	0009a983          	lw	s3,0(s3)
    2e64:	9a3e                	add	s4,s4,a5
    2e66:	fa099ee3          	bnez	s3,2e22 <ethernetif_input+0x9e>
    2e6a:	e000e7b7          	lui	a5,0xe000e
    2e6e:	6709                	lui	a4,0x2
    2e70:	18e7a423          	sw	a4,392(a5) # e000e188 <_eusrstack+0xbffee188>
    2e74:	0c842703          	lw	a4,200(s0)
    2e78:	88c18793          	addi	a5,gp,-1908 # 2000009c <MacRevcNull>
    2e7c:	c325                	beqz	a4,2edc <ethernetif_input+0x158>
    2e7e:	4709                	li	a4,2
    2e80:	04ea9e63          	bne	s5,a4,2edc <ethernetif_input+0x158>
    2e84:	00078023          	sb	zero,0(a5)
    2e88:	0c842783          	lw	a5,200(s0)
    2e8c:	17fd                	addi	a5,a5,-1
    2e8e:	0cf42423          	sw	a5,200(s0)
    2e92:	e000e7b7          	lui	a5,0xe000e
    2e96:	6709                	lui	a4,0x2
    2e98:	10e7a423          	sw	a4,264(a5) # e000e108 <_eusrstack+0xbffee108>
    2e9c:	cc85                	beqz	s1,2ed4 <ethernetif_input+0x150>
    2e9e:	4585                	li	a1,1
    2ea0:	8526                	mv	a0,s1
    2ea2:	186010ef          	jal	ra,4028 <pbuf_header>
    2ea6:	40dc                	lw	a5,4(s1)
    2ea8:	37c8                	fld	fa0,168(a5)
    2eaa:	27fc                	fld	fa5,200(a5)
    2eac:	07a2                	slli	a5,a5,0x8
    2eae:	8d5d                	or	a0,a0,a5
    2eb0:	2ad5                	jal	30a4 <htons>
    2eb2:	80050793          	addi	a5,a0,-2048
    2eb6:	c791                	beqz	a5,2ec2 <ethernetif_input+0x13e>
    2eb8:	6785                	lui	a5,0x1
    2eba:	80678793          	addi	a5,a5,-2042 # 806 <__stack_size+0x6>
    2ebe:	00f51863          	bne	a0,a5,2ece <ethernetif_input+0x14a>
    2ec2:	01092783          	lw	a5,16(s2)
    2ec6:	85ca                	mv	a1,s2
    2ec8:	8526                	mv	a0,s1
    2eca:	9782                	jalr	a5
    2ecc:	c501                	beqz	a0,2ed4 <ethernetif_input+0x150>
    2ece:	8526                	mv	a0,s1
    2ed0:	1c6010ef          	jal	ra,4096 <pbuf_free>
    2ed4:	b6cfd06f          	j	240 <__riscv_restore_10>
    2ed8:	4481                	li	s1,0
    2eda:	bf41                	j	2e6a <ethernetif_input+0xe6>
    2edc:	2398                	fld	fa4,0(a5)
    2ede:	46a5                	li	a3,9
    2ee0:	0705                	addi	a4,a4,1
    2ee2:	0ff77713          	andi	a4,a4,255
    2ee6:	00e6e463          	bltu	a3,a4,2eee <ethernetif_input+0x16a>
    2eea:	a398                	fsd	fa4,0(a5)
    2eec:	b75d                	j	2e92 <ethernetif_input+0x10e>
    2eee:	00078023          	sb	zero,0(a5)
    2ef2:	0c842783          	lw	a5,200(s0)
    2ef6:	17fd                	addi	a5,a5,-1
    2ef8:	0cf42423          	sw	a5,200(s0)
    2efc:	0c842783          	lw	a5,200(s0)
    2f00:	fbc9                	bnez	a5,2e92 <ethernetif_input+0x10e>
    2f02:	0c442783          	lw	a5,196(s0)
    2f06:	0cf42023          	sw	a5,192(s0)
    2f0a:	b761                	j	2e92 <ethernetif_input+0x10e>

00002f0c <SetupNetif>:
SetupNetif():
    2f0c:	b0afd2ef          	jal	t0,216 <__riscv_save_4>
    2f10:	8a418413          	addi	s0,gp,-1884 # 200000b4 <WCHMACAddr>
    2f14:	93418793          	addi	a5,gp,-1740 # 20000144 <NetInf+0xc>
    2f18:	c01c                	sw	a5,0(s0)
    2f1a:	89c18993          	addi	s3,gp,-1892 # 200000ac <WCHIPAddr>
    2f1e:	92818793          	addi	a5,gp,-1752 # 20000138 <NetInf>
    2f22:	00f9a023          	sw	a5,0(s3)
    2f26:	89818493          	addi	s1,gp,-1896 # 200000a8 <WCHGWIPAddr>
    2f2a:	92c18793          	addi	a5,gp,-1748 # 2000013c <NetInf+0x4>
    2f2e:	c09c                	sw	a5,0(s1)
    2f30:	1141                	addi	sp,sp,-16
    2f32:	93018793          	addi	a5,gp,-1744 # 20000140 <NetInf+0x8>
    2f36:	8a018913          	addi	s2,gp,-1888 # 200000b0 <WCHIPMask>
    2f3a:	00f92023          	sw	a5,0(s2)
    2f3e:	c202                	sw	zero,4(sp)
    2f40:	c402                	sw	zero,8(sp)
    2f42:	c602                	sw	zero,12(sp)
    2f44:	4b9000ef          	jal	ra,3bfc <lwip_init>
    2f48:	0009a583          	lw	a1,0(s3)
    2f4c:	4611                	li	a2,4
    2f4e:	0048                	addi	a0,sp,4
    2f50:	3fc050ef          	jal	ra,834c <memcpy>
    2f54:	00092583          	lw	a1,0(s2)
    2f58:	4611                	li	a2,4
    2f5a:	0028                	addi	a0,sp,8
    2f5c:	3f0050ef          	jal	ra,834c <memcpy>
    2f60:	408c                	lw	a1,0(s1)
    2f62:	4611                	li	a2,4
    2f64:	0068                	addi	a0,sp,12
    2f66:	3e6050ef          	jal	ra,834c <memcpy>
    2f6a:	400c                	lw	a1,0(s0)
    2f6c:	a7c18513          	addi	a0,gp,-1412 # 2000028c <WCHNetIf>
    2f70:	4619                	li	a2,6
    2f72:	02b50513          	addi	a0,a0,43
    2f76:	3d6050ef          	jal	ra,834c <memcpy>
    2f7a:	a7c18513          	addi	a0,gp,-1412 # 2000028c <WCHNetIf>
    2f7e:	8c01a423          	sw	zero,-1848(gp) # 200000d8 <netif_list>
    2f82:	8c01a223          	sw	zero,-1852(gp) # 200000d4 <netif_default>
    2f86:	094010ef          	jal	ra,401a <netif_set_default>
    2f8a:	00003837          	lui	a6,0x3
    2f8e:	000037b7          	lui	a5,0x3
    2f92:	0074                	addi	a3,sp,12
    2f94:	0030                	addi	a2,sp,8
    2f96:	004c                	addi	a1,sp,4
    2f98:	be480813          	addi	a6,a6,-1052 # 2be4 <ethernet_input>
    2f9c:	d5278793          	addi	a5,a5,-686 # 2d52 <ethernetif_init>
    2fa0:	4701                	li	a4,0
    2fa2:	a7c18513          	addi	a0,gp,-1412 # 2000028c <WCHNetIf>
    2fa6:	01a010ef          	jal	ra,3fc0 <netif_add>
    2faa:	0141                	addi	sp,sp,16
    2fac:	a9efd06f          	j	24a <__riscv_restore_4>

00002fb0 <LwIPPeriodicHandle>:
LwIPPeriodicHandle():
    2fb0:	a80fd2ef          	jal	t0,230 <__riscv_save_0>
    2fb4:	8881a783          	lw	a5,-1912(gp) # 20000098 <LocalTime>
    2fb8:	1141                	addi	sp,sp,-16
    2fba:	c63e                	sw	a5,12(sp)
    2fbc:	ca2ff0ef          	jal	ra,245e <WCHNET_GetPHYStatus>
    2fc0:	8911                	andi	a0,a0,4
    2fc2:	0c050e63          	beqz	a0,309e <LwIPPeriodicHandle+0xee>
    2fc6:	89418793          	addi	a5,gp,-1900 # 200000a4 <TCPTimer>
    2fca:	46b2                	lw	a3,12(sp)
    2fcc:	4398                	lw	a4,0(a5)
    2fce:	8e99                	sub	a3,a3,a4
    2fd0:	9441a703          	lw	a4,-1724(gp) # 20000154 <NetInf+0x1c>
    2fd4:	8305                	srli	a4,a4,0x1
    2fd6:	00d77663          	bgeu	a4,a3,2fe2 <LwIPPeriodicHandle+0x32>
    2fda:	4732                	lw	a4,12(sp)
    2fdc:	c398                	sw	a4,0(a5)
    2fde:	415010ef          	jal	ra,4bf2 <tcp_tmr>
    2fe2:	88418413          	addi	s0,gp,-1916 # 20000094 <IPFragTimer>
    2fe6:	47b2                	lw	a5,12(sp)
    2fe8:	4018                	lw	a4,0(s0)
    2fea:	8f99                	sub	a5,a5,a4
    2fec:	3e700713          	li	a4,999
    2ff0:	00f77563          	bgeu	a4,a5,2ffa <LwIPPeriodicHandle+0x4a>
    2ff4:	2bd9                	jal	35ca <ip_reass_tmr>
    2ff6:	47b2                	lw	a5,12(sp)
    2ff8:	c01c                	sw	a5,0(s0)
    2ffa:	86c18793          	addi	a5,gp,-1940 # 2000007c <ARPTimer>
    2ffe:	46b2                	lw	a3,12(sp)
    3000:	4398                	lw	a4,0(a5)
    3002:	8e99                	sub	a3,a3,a4
    3004:	6705                	lui	a4,0x1
    3006:	38770713          	addi	a4,a4,903 # 1387 <WCH_GetMac+0xd>
    300a:	00d77663          	bgeu	a4,a3,3016 <LwIPPeriodicHandle+0x66>
    300e:	4732                	lw	a4,12(sp)
    3010:	c398                	sw	a4,0(a5)
    3012:	f06ff0ef          	jal	ra,2718 <etharp_tmr>
    3016:	b2818793          	addi	a5,gp,-1240 # 20000338 <DNSInf>
    301a:	47d8                	lw	a4,12(a5)
    301c:	cf11                	beqz	a4,3038 <LwIPPeriodicHandle+0x88>
    301e:	87c18713          	addi	a4,gp,-1924 # 2000008c <DNSTimer>
    3022:	46b2                	lw	a3,12(sp)
    3024:	4310                	lw	a2,0(a4)
    3026:	8e91                	sub	a3,a3,a2
    3028:	3e700613          	li	a2,999
    302c:	00d67663          	bgeu	a2,a3,3038 <LwIPPeriodicHandle+0x88>
    3030:	46b2                	lw	a3,12(sp)
    3032:	43dc                	lw	a5,4(a5)
    3034:	c314                	sw	a3,0(a4)
    3036:	9782                	jalr	a5
    3038:	9801a783          	lw	a5,-1664(gp) # 20000190 <DHCPCtrl>
    303c:	98018413          	addi	s0,gp,-1664 # 20000190 <DHCPCtrl>
    3040:	cf95                	beqz	a5,307c <LwIPPeriodicHandle+0xcc>
    3042:	87818793          	addi	a5,gp,-1928 # 20000088 <DHCPfineTimer>
    3046:	4732                	lw	a4,12(sp)
    3048:	4394                	lw	a3,0(a5)
    304a:	8f15                	sub	a4,a4,a3
    304c:	7cf00693          	li	a3,1999
    3050:	00e6f763          	bgeu	a3,a4,305e <LwIPPeriodicHandle+0xae>
    3054:	4732                	lw	a4,12(sp)
    3056:	c398                	sw	a4,0(a5)
    3058:	481c                	lw	a5,16(s0)
    305a:	c391                	beqz	a5,305e <LwIPPeriodicHandle+0xae>
    305c:	9782                	jalr	a5
    305e:	87418793          	addi	a5,gp,-1932 # 20000084 <DHCPcoarseTimer>
    3062:	46b2                	lw	a3,12(sp)
    3064:	4398                	lw	a4,0(a5)
    3066:	8e99                	sub	a3,a3,a4
    3068:	673d                	lui	a4,0xf
    306a:	a5f70713          	addi	a4,a4,-1441 # ea5f <_data_lma+0x648b>
    306e:	00d77763          	bgeu	a4,a3,307c <LwIPPeriodicHandle+0xcc>
    3072:	4732                	lw	a4,12(sp)
    3074:	c398                	sw	a4,0(a5)
    3076:	485c                	lw	a5,20(s0)
    3078:	c391                	beqz	a5,307c <LwIPPeriodicHandle+0xcc>
    307a:	9782                	jalr	a5
    307c:	87018793          	addi	a5,gp,-1936 # 20000080 <DHCPTestTimer>
    3080:	4732                	lw	a4,12(sp)
    3082:	4394                	lw	a3,0(a5)
    3084:	8f15                	sub	a4,a4,a3
    3086:	1f400693          	li	a3,500
    308a:	00e6f463          	bgeu	a3,a4,3092 <LwIPPeriodicHandle+0xe2>
    308e:	4732                	lw	a4,12(sp)
    3090:	c398                	sw	a4,0(a5)
    3092:	4532                	lw	a0,12(sp)
    3094:	394040ef          	jal	ra,7428 <IPCheckTmr>
    3098:	4532                	lw	a0,12(sp)
    309a:	3cc040ef          	jal	ra,7466 <ArpCheck>
    309e:	0141                	addi	sp,sp,16
    30a0:	9b4fd06f          	j	254 <__riscv_restore_0>

000030a4 <htons>:
htons():
    30a4:	00851793          	slli	a5,a0,0x8
    30a8:	8121                	srli	a0,a0,0x8
    30aa:	8d5d                	or	a0,a0,a5
    30ac:	0542                	slli	a0,a0,0x10
    30ae:	8141                	srli	a0,a0,0x10
    30b0:	8082                	ret

000030b2 <ntohs>:
ntohs():
    30b2:	00851793          	slli	a5,a0,0x8
    30b6:	8121                	srli	a0,a0,0x8
    30b8:	8d5d                	or	a0,a0,a5
    30ba:	0542                	slli	a0,a0,0x10
    30bc:	8141                	srli	a0,a0,0x10
    30be:	8082                	ret

000030c0 <htonl>:
htonl():
    30c0:	01855713          	srli	a4,a0,0x18
    30c4:	01851793          	slli	a5,a0,0x18
    30c8:	8fd9                	or	a5,a5,a4
    30ca:	00ff06b7          	lui	a3,0xff0
    30ce:	00851713          	slli	a4,a0,0x8
    30d2:	8f75                	and	a4,a4,a3
    30d4:	8fd9                	or	a5,a5,a4
    30d6:	6741                	lui	a4,0x10
    30d8:	f0070713          	addi	a4,a4,-256 # ff00 <_data_lma+0x792c>
    30dc:	8121                	srli	a0,a0,0x8
    30de:	8d79                	and	a0,a0,a4
    30e0:	8d5d                	or	a0,a0,a5
    30e2:	8082                	ret

000030e4 <ntohl>:
ntohl():
    30e4:	94cfd2ef          	jal	t0,230 <__riscv_save_0>
    30e8:	3fe1                	jal	30c0 <htonl>
    30ea:	96afd06f          	j	254 <__riscv_restore_0>

000030ee <ip_route>:
ip_route():
    30ee:	942fd2ef          	jal	t0,230 <__riscv_save_0>
    30f2:	8c81a403          	lw	s0,-1848(gp) # 200000d8 <netif_list>
    30f6:	84aa                	mv	s1,a0
    30f8:	ec01                	bnez	s0,3110 <ip_route+0x22>
    30fa:	8c41a503          	lw	a0,-1852(gp) # 200000d4 <netif_default>
    30fe:	c511                	beqz	a0,310a <ip_route+0x1c>
    3100:	721000ef          	jal	ra,4020 <netif_is_up>
    3104:	c119                	beqz	a0,310a <ip_route+0x1c>
    3106:	8c41a403          	lw	s0,-1852(gp) # 200000d4 <netif_default>
    310a:	8522                	mv	a0,s0
    310c:	948fd06f          	j	254 <__riscv_restore_0>
    3110:	8522                	mv	a0,s0
    3112:	70f000ef          	jal	ra,4020 <netif_is_up>
    3116:	c105                	beqz	a0,3136 <ip_route+0x48>
    3118:	3098                	fld	fa4,32(s1)
    311a:	209c                	fld	fa5,0(s1)
    311c:	0722                	slli	a4,a4,0x8
    311e:	8f5d                	or	a4,a4,a5
    3120:	20bc                	fld	fa5,64(s1)
    3122:	07c2                	slli	a5,a5,0x10
    3124:	8f5d                	or	a4,a4,a5
    3126:	30bc                	fld	fa5,96(s1)
    3128:	07e2                	slli	a5,a5,0x18
    312a:	8fd9                	or	a5,a5,a4
    312c:	4058                	lw	a4,4(s0)
    312e:	8fb9                	xor	a5,a5,a4
    3130:	4418                	lw	a4,8(s0)
    3132:	8ff9                	and	a5,a5,a4
    3134:	dbf9                	beqz	a5,310a <ip_route+0x1c>
    3136:	4000                	lw	s0,0(s0)
    3138:	b7c1                	j	30f8 <ip_route+0xa>

0000313a <ip_input>:
ip_input():
    313a:	8cefd2ef          	jal	t0,208 <__riscv_save_10>
    313e:	4140                	lw	s0,4(a0)
    3140:	84aa                	mv	s1,a0
    3142:	89ae                	mv	s3,a1
    3144:	301c                	fld	fa5,32(s0)
    3146:	2008                	fld	fa0,0(s0)
    3148:	07a2                	slli	a5,a5,0x8
    314a:	8d5d                	or	a0,a0,a5
    314c:	379d                	jal	30b2 <ntohs>
    314e:	8131                	srli	a0,a0,0xc
    3150:	0542                	slli	a0,a0,0x10
    3152:	8141                	srli	a0,a0,0x10
    3154:	4791                	li	a5,4
    3156:	00f50863          	beq	a0,a5,3166 <ip_input+0x2c>
    315a:	8526                	mv	a0,s1
    315c:	73b000ef          	jal	ra,4096 <pbuf_free>
    3160:	4501                	li	a0,0
    3162:	8defd06f          	j	240 <__riscv_restore_10>
    3166:	301c                	fld	fa5,32(s0)
    3168:	2008                	fld	fa0,0(s0)
    316a:	07a2                	slli	a5,a5,0x8
    316c:	8d5d                	or	a0,a0,a5
    316e:	f45ff0ef          	jal	ra,30b2 <ntohs>
    3172:	8119                	srli	a0,a0,0x6
    3174:	303c                	fld	fa5,96(s0)
    3176:	03c57a13          	andi	s4,a0,60
    317a:	2028                	fld	fa0,64(s0)
    317c:	07a2                	slli	a5,a5,0x8
    317e:	8d5d                	or	a0,a0,a5
    3180:	f33ff0ef          	jal	ra,30b2 <ntohs>
    3184:	24be                	fld	fs1,456(sp)
    3186:	892a                	mv	s2,a0
    3188:	fd47e9e3          	bltu	a5,s4,315a <ip_input+0x20>
    318c:	249e                	fld	fs1,448(sp)
    318e:	fca7e6e3          	bltu	a5,a0,315a <ip_input+0x20>
    3192:	85d2                	mv	a1,s4
    3194:	8522                	mv	a0,s0
    3196:	35d040ef          	jal	ra,7cf2 <inet_chksum>
    319a:	f161                	bnez	a0,315a <ip_input+0x20>
    319c:	85ca                	mv	a1,s2
    319e:	8526                	mv	a0,s1
    31a0:	080010ef          	jal	ra,4220 <pbuf_realloc>
    31a4:	f0000537          	lui	a0,0xf0000
    31a8:	f3dff0ef          	jal	ra,30e4 <ntohl>
    31ac:	e0000537          	lui	a0,0xe0000
    31b0:	f35ff0ef          	jal	ra,30e4 <ntohl>
    31b4:	894e                	mv	s2,s3
    31b6:	4b05                	li	s6,1
    31b8:	01040b93          	addi	s7,s0,16
    31bc:	854a                	mv	a0,s2
    31be:	663000ef          	jal	ra,4020 <netif_is_up>
    31c2:	e511                	bnez	a0,31ce <ip_input+0x94>
    31c4:	120b1c63          	bnez	s6,32fc <ip_input+0x1c2>
    31c8:	00092903          	lw	s2,0(s2)
    31cc:	aa15                	j	3300 <ip_input+0x1c6>
    31ce:	00490793          	addi	a5,s2,4
    31d2:	dbed                	beqz	a5,31c4 <ip_input+0x8a>
    31d4:	00492683          	lw	a3,4(s2)
    31d8:	d6f5                	beqz	a3,31c4 <ip_input+0x8a>
    31da:	3818                	fld	fa4,48(s0)
    31dc:	281c                	fld	fa5,16(s0)
    31de:	0722                	slli	a4,a4,0x8
    31e0:	8f5d                	or	a4,a4,a5
    31e2:	283c                	fld	fa5,80(s0)
    31e4:	07c2                	slli	a5,a5,0x10
    31e6:	8f5d                	or	a4,a4,a5
    31e8:	383c                	fld	fa5,112(s0)
    31ea:	07e2                	slli	a5,a5,0x18
    31ec:	8fd9                	or	a5,a5,a4
    31ee:	04f68263          	beq	a3,a5,3232 <ip_input+0xf8>
    31f2:	85ca                	mv	a1,s2
    31f4:	855e                	mv	a0,s7
    31f6:	2669                	jal	3580 <ip_addr_isbroadcast>
    31f8:	ed0d                	bnez	a0,3232 <ip_input+0xf8>
    31fa:	381c                	fld	fa5,48(s0)
    31fc:	01044a83          	lbu	s5,16(s0)
    3200:	f0000537          	lui	a0,0xf0000
    3204:	07a2                	slli	a5,a5,0x8
    3206:	0157e7b3          	or	a5,a5,s5
    320a:	01244a83          	lbu	s5,18(s0)
    320e:	0ac2                	slli	s5,s5,0x10
    3210:	00fae7b3          	or	a5,s5,a5
    3214:	01344a83          	lbu	s5,19(s0)
    3218:	0ae2                	slli	s5,s5,0x18
    321a:	00faeab3          	or	s5,s5,a5
    321e:	ec7ff0ef          	jal	ra,30e4 <ntohl>
    3222:	00aafab3          	and	s5,s5,a0
    3226:	e0000537          	lui	a0,0xe0000
    322a:	ebbff0ef          	jal	ra,30e4 <ntohl>
    322e:	f8aa9be3          	bne	s5,a0,31c4 <ip_input+0x8a>
    3232:	3458                	fld	fa4,168(s0)
    3234:	245c                	fld	fa5,136(s0)
    3236:	0722                	slli	a4,a4,0x8
    3238:	8f5d                	or	a4,a4,a5
    323a:	247c                	fld	fa5,200(s0)
    323c:	07c2                	slli	a5,a5,0x10
    323e:	8f5d                	or	a4,a4,a5
    3240:	347c                	fld	fa5,232(s0)
    3242:	07e2                	slli	a5,a5,0x18
    3244:	8fd9                	or	a5,a5,a4
    3246:	c3b9                	beqz	a5,328c <ip_input+0x152>
    3248:	85ce                	mv	a1,s3
    324a:	00c40513          	addi	a0,s0,12
    324e:	2e0d                	jal	3580 <ip_addr_isbroadcast>
    3250:	f00515e3          	bnez	a0,315a <ip_input+0x20>
    3254:	345c                	fld	fa5,168(s0)
    3256:	00c44a03          	lbu	s4,12(s0)
    325a:	f0000537          	lui	a0,0xf0000
    325e:	07a2                	slli	a5,a5,0x8
    3260:	0147e7b3          	or	a5,a5,s4
    3264:	00e44a03          	lbu	s4,14(s0)
    3268:	0a42                	slli	s4,s4,0x10
    326a:	00fa67b3          	or	a5,s4,a5
    326e:	00f44a03          	lbu	s4,15(s0)
    3272:	0a62                	slli	s4,s4,0x18
    3274:	00fa6a33          	or	s4,s4,a5
    3278:	e6dff0ef          	jal	ra,30e4 <ntohl>
    327c:	00aa7a33          	and	s4,s4,a0
    3280:	e0000537          	lui	a0,0xe0000
    3284:	e61ff0ef          	jal	ra,30e4 <ntohl>
    3288:	ecaa09e3          	beq	s4,a0,315a <ip_input+0x20>
    328c:	ec0907e3          	beqz	s2,315a <ip_input+0x20>
    3290:	00744903          	lbu	s2,7(s0)
    3294:	2068                	fld	fa0,192(s0)
    3296:	0922                	slli	s2,s2,0x8
    3298:	00a96933          	or	s2,s2,a0
    329c:	6511                	lui	a0,0x4
    329e:	157d                	addi	a0,a0,-1
    32a0:	e05ff0ef          	jal	ra,30a4 <htons>
    32a4:	00a97533          	and	a0,s2,a0
    32a8:	c519                	beqz	a0,32b6 <ip_input+0x17c>
    32aa:	8526                	mv	a0,s1
    32ac:	2111                	jal	36b0 <ip_reass>
    32ae:	84aa                	mv	s1,a0
    32b0:	ea0508e3          	beqz	a0,3160 <ip_input+0x26>
    32b4:	4140                	lw	s0,4(a0)
    32b6:	85ce                	mv	a1,s3
    32b8:	8526                	mv	a0,s1
    32ba:	8b31a623          	sw	s3,-1876(gp) # 200000bc <current_netif>
    32be:	8a81a423          	sw	s0,-1880(gp) # 200000b8 <current_header>
    32c2:	09e010ef          	jal	ra,4360 <raw_input>
    32c6:	8ac18a93          	addi	s5,gp,-1876 # 200000bc <current_netif>
    32ca:	8a818a13          	addi	s4,gp,-1880 # 200000b8 <current_header>
    32ce:	e955                	bnez	a0,3382 <ip_input+0x248>
    32d0:	341c                	fld	fa5,40(s0)
    32d2:	2408                	fld	fa0,8(s0)
    32d4:	07a2                	slli	a5,a5,0x8
    32d6:	8d5d                	or	a0,a0,a5
    32d8:	ddbff0ef          	jal	ra,30b2 <ntohs>
    32dc:	0ff57513          	andi	a0,a0,255
    32e0:	4799                	li	a5,6
    32e2:	0af50563          	beq	a0,a5,338c <ip_input+0x252>
    32e6:	47c5                	li	a5,17
    32e8:	08f50963          	beq	a0,a5,337a <ip_input+0x240>
    32ec:	4785                	li	a5,1
    32ee:	0af51463          	bne	a0,a5,3396 <ip_input+0x25c>
    32f2:	85ce                	mv	a1,s3
    32f4:	8526                	mv	a0,s1
    32f6:	60e040ef          	jal	ra,7904 <icmp_input>
    32fa:	a061                	j	3382 <ip_input+0x248>
    32fc:	8c81a903          	lw	s2,-1848(gp) # 200000d8 <netif_list>
    3300:	01391463          	bne	s2,s3,3308 <ip_input+0x1ce>
    3304:	00092903          	lw	s2,0(s2)
    3308:	4b01                	li	s6,0
    330a:	ea0919e3          	bnez	s2,31bc <ip_input+0x82>
    330e:	341c                	fld	fa5,40(s0)
    3310:	2408                	fld	fa0,8(s0)
    3312:	07a2                	slli	a5,a5,0x8
    3314:	8d5d                	or	a0,a0,a5
    3316:	d9dff0ef          	jal	ra,30b2 <ntohs>
    331a:	0ff57513          	andi	a0,a0,255
    331e:	47c5                	li	a5,17
    3320:	00f51e63          	bne	a0,a5,333c <ip_input+0x202>
    3324:	014407b3          	add	a5,s0,s4
    3328:	23a8                	fld	fa0,64(a5)
    332a:	33bc                	fld	fa5,96(a5)
    332c:	07a2                	slli	a5,a5,0x8
    332e:	8d5d                	or	a0,a0,a5
    3330:	d83ff0ef          	jal	ra,30b2 <ntohs>
    3334:	04400793          	li	a5,68
    3338:	02f50d63          	beq	a0,a5,3372 <ip_input+0x238>
    333c:	4a85                	li	s5,1
    333e:	341c                	fld	fa5,40(s0)
    3340:	2408                	fld	fa0,8(s0)
    3342:	07a2                	slli	a5,a5,0x8
    3344:	8d5d                	or	a0,a0,a5
    3346:	d6dff0ef          	jal	ra,30b2 <ntohs>
    334a:	0ff57513          	andi	a0,a0,255
    334e:	47c5                	li	a5,17
    3350:	08f51d63          	bne	a0,a5,33ea <ip_input+0x2b0>
    3354:	9a22                	add	s4,s4,s0
    3356:	003a4783          	lbu	a5,3(s4)
    335a:	002a4503          	lbu	a0,2(s4)
    335e:	07a2                	slli	a5,a5,0x8
    3360:	8d5d                	or	a0,a0,a5
    3362:	d51ff0ef          	jal	ra,30b2 <ntohs>
    3366:	76c00793          	li	a5,1900
    336a:	08f51063          	bne	a0,a5,33ea <ip_input+0x2b0>
    336e:	894e                	mv	s2,s3
    3370:	bf31                	j	328c <ip_input+0x152>
    3372:	f0099fe3          	bnez	s3,3290 <ip_input+0x156>
    3376:	4a81                	li	s5,0
    3378:	b7d9                	j	333e <ip_input+0x204>
    337a:	85ce                	mv	a1,s3
    337c:	8526                	mv	a0,s1
    337e:	3c9030ef          	jal	ra,6f46 <udp_input>
    3382:	000aa023          	sw	zero,0(s5)
    3386:	000a2023          	sw	zero,0(s4)
    338a:	bbd9                	j	3160 <ip_input+0x26>
    338c:	85ce                	mv	a1,s3
    338e:	8526                	mv	a0,s1
    3390:	5b8020ef          	jal	ra,5948 <tcp_input>
    3394:	b7fd                	j	3382 <ip_input+0x248>
    3396:	85ce                	mv	a1,s3
    3398:	01040513          	addi	a0,s0,16
    339c:	22d5                	jal	3580 <ip_addr_isbroadcast>
    339e:	e131                	bnez	a0,33e2 <ip_input+0x2a8>
    33a0:	381c                	fld	fa5,48(s0)
    33a2:	01044903          	lbu	s2,16(s0)
    33a6:	f0000537          	lui	a0,0xf0000
    33aa:	07a2                	slli	a5,a5,0x8
    33ac:	0127e7b3          	or	a5,a5,s2
    33b0:	01244903          	lbu	s2,18(s0)
    33b4:	0942                	slli	s2,s2,0x10
    33b6:	00f967b3          	or	a5,s2,a5
    33ba:	01344903          	lbu	s2,19(s0)
    33be:	0962                	slli	s2,s2,0x18
    33c0:	00f96933          	or	s2,s2,a5
    33c4:	d21ff0ef          	jal	ra,30e4 <ntohl>
    33c8:	00a97933          	and	s2,s2,a0
    33cc:	e0000537          	lui	a0,0xe0000
    33d0:	d15ff0ef          	jal	ra,30e4 <ntohl>
    33d4:	00a90763          	beq	s2,a0,33e2 <ip_input+0x2a8>
    33d8:	c0c0                	sw	s0,4(s1)
    33da:	4589                	li	a1,2
    33dc:	8526                	mv	a0,s1
    33de:	776040ef          	jal	ra,7b54 <icmp_dest_unreach>
    33e2:	8526                	mv	a0,s1
    33e4:	4b3000ef          	jal	ra,4096 <pbuf_free>
    33e8:	bf69                	j	3382 <ip_input+0x248>
    33ea:	e40a94e3          	bnez	s5,3232 <ip_input+0xf8>
    33ee:	b3b5                	j	315a <ip_input+0x20>

000033f0 <ip_output_if>:
ip_output_if():
    33f0:	e19fc2ef          	jal	t0,208 <__riscv_save_10>
    33f4:	89aa                	mv	s3,a0
    33f6:	8942                	mv	s2,a6
    33f8:	12060f63          	beqz	a2,3536 <ip_output_if+0x146>
    33fc:	8aae                	mv	s5,a1
    33fe:	45d1                	li	a1,20
    3400:	8a3a                	mv	s4,a4
    3402:	84b2                	mv	s1,a2
    3404:	8bb6                	mv	s7,a3
    3406:	8b3e                	mv	s6,a5
    3408:	421000ef          	jal	ra,4028 <pbuf_header>
    340c:	5779                	li	a4,-2
    340e:	12051163          	bnez	a0,3530 <ip_output_if+0x140>
    3412:	0049a403          	lw	s0,4(s3)
    3416:	0ba2                	slli	s7,s7,0x8
    3418:	341c                	fld	fa5,40(s0)
    341a:	2408                	fld	fa0,8(s0)
    341c:	07a2                	slli	a5,a5,0x8
    341e:	8d5d                	or	a0,a0,a5
    3420:	c93ff0ef          	jal	ra,30b2 <ntohs>
    3424:	0ff57513          	andi	a0,a0,255
    3428:	01756533          	or	a0,a0,s7
    342c:	c79ff0ef          	jal	ra,30a4 <htons>
    3430:	00855713          	srli	a4,a0,0x8
    3434:	b418                	fsd	fa4,40(s0)
    3436:	a408                	fsd	fa0,8(s0)
    3438:	c7bff0ef          	jal	ra,30b2 <ntohs>
    343c:	8121                	srli	a0,a0,0x8
    343e:	0542                	slli	a0,a0,0x10
    3440:	8141                	srli	a0,a0,0x10
    3442:	0522                	slli	a0,a0,0x8
    3444:	01656533          	or	a0,a0,s6
    3448:	0542                	slli	a0,a0,0x10
    344a:	8141                	srli	a0,a0,0x10
    344c:	c59ff0ef          	jal	ra,30a4 <htons>
    3450:	3098                	fld	fa4,32(s1)
    3452:	209c                	fld	fa5,0(s1)
    3454:	a408                	fsd	fa0,8(s0)
    3456:	0722                	slli	a4,a4,0x8
    3458:	8f5d                	or	a4,a4,a5
    345a:	20bc                	fld	fa5,64(s1)
    345c:	8121                	srli	a0,a0,0x8
    345e:	b408                	fsd	fa0,40(s0)
    3460:	07c2                	slli	a5,a5,0x10
    3462:	8f5d                	or	a4,a4,a5
    3464:	30bc                	fld	fa5,96(s1)
    3466:	6511                	lui	a0,0x4
    3468:	50050513          	addi	a0,a0,1280 # 4500 <tcp_new_port+0x38>
    346c:	07e2                	slli	a5,a5,0x18
    346e:	8fd9                	or	a5,a5,a4
    3470:	0087d713          	srli	a4,a5,0x8
    3474:	a81c                	fsd	fa5,16(s0)
    3476:	b818                	fsd	fa4,48(s0)
    3478:	0107d713          	srli	a4,a5,0x10
    347c:	83e1                	srli	a5,a5,0x18
    347e:	b83c                	fsd	fa5,112(s0)
    3480:	a838                	fsd	fa4,80(s0)
    3482:	00aa6533          	or	a0,s4,a0
    3486:	c1fff0ef          	jal	ra,30a4 <htons>
    348a:	a008                	fsd	fa0,0(s0)
    348c:	8121                	srli	a0,a0,0x8
    348e:	b008                	fsd	fa0,32(s0)
    3490:	0089d503          	lhu	a0,8(s3)
    3494:	8b018a13          	addi	s4,gp,-1872 # 200000c0 <ip_id.6659>
    3498:	c0dff0ef          	jal	ra,30a4 <htons>
    349c:	a028                	fsd	fa0,64(s0)
    349e:	8121                	srli	a0,a0,0x8
    34a0:	b028                	fsd	fa0,96(s0)
    34a2:	000a5503          	lhu	a0,0(s4)
    34a6:	00040323          	sb	zero,6(s0)
    34aa:	000403a3          	sb	zero,7(s0)
    34ae:	bf7ff0ef          	jal	ra,30a4 <htons>
    34b2:	000a5783          	lhu	a5,0(s4)
    34b6:	a048                	fsd	fa0,128(s0)
    34b8:	8121                	srli	a0,a0,0x8
    34ba:	0785                	addi	a5,a5,1
    34bc:	b048                	fsd	fa0,160(s0)
    34be:	00fa1023          	sh	a5,0(s4)
    34c2:	020a8163          	beqz	s5,34e4 <ip_output_if+0xf4>
    34c6:	001ac703          	lbu	a4,1(s5)
    34ca:	000ac783          	lbu	a5,0(s5)
    34ce:	0722                	slli	a4,a4,0x8
    34d0:	8f5d                	or	a4,a4,a5
    34d2:	002ac783          	lbu	a5,2(s5)
    34d6:	07c2                	slli	a5,a5,0x10
    34d8:	8f5d                	or	a4,a4,a5
    34da:	003ac783          	lbu	a5,3(s5)
    34de:	07e2                	slli	a5,a5,0x18
    34e0:	8fd9                	or	a5,a5,a4
    34e2:	e799                	bnez	a5,34f0 <ip_output_if+0x100>
    34e4:	00490713          	addi	a4,s2,4
    34e8:	4781                	li	a5,0
    34ea:	c319                	beqz	a4,34f0 <ip_output_if+0x100>
    34ec:	00492783          	lw	a5,4(s2)
    34f0:	0087d713          	srli	a4,a5,0x8
    34f4:	a45c                	fsd	fa5,136(s0)
    34f6:	b458                	fsd	fa4,168(s0)
    34f8:	0107d713          	srli	a4,a5,0x10
    34fc:	83e1                	srli	a5,a5,0x18
    34fe:	a478                	fsd	fa4,200(s0)
    3500:	b47c                	fsd	fa5,232(s0)
    3502:	00040523          	sb	zero,10(s0)
    3506:	000405a3          	sb	zero,11(s0)
    350a:	45d1                	li	a1,20
    350c:	8522                	mv	a0,s0
    350e:	7e4040ef          	jal	ra,7cf2 <inet_chksum>
    3512:	a428                	fsd	fa0,72(s0)
    3514:	8121                	srli	a0,a0,0x8
    3516:	b428                	fsd	fa0,104(s0)
    3518:	02895783          	lhu	a5,40(s2)
    351c:	c385                	beqz	a5,353c <ip_output_if+0x14c>
    351e:	0089d703          	lhu	a4,8(s3)
    3522:	00e7fd63          	bgeu	a5,a4,353c <ip_output_if+0x14c>
    3526:	8626                	mv	a2,s1
    3528:	85ca                	mv	a1,s2
    352a:	854e                	mv	a0,s3
    352c:	2ba9                	jal	3a86 <ip_frag>
    352e:	872a                	mv	a4,a0
    3530:	853a                	mv	a0,a4
    3532:	d0ffc06f          	j	240 <__riscv_restore_10>
    3536:	4144                	lw	s1,4(a0)
    3538:	04c1                	addi	s1,s1,16
    353a:	bff9                	j	3518 <ip_output_if+0x128>
    353c:	01492783          	lw	a5,20(s2)
    3540:	8626                	mv	a2,s1
    3542:	85ce                	mv	a1,s3
    3544:	854a                	mv	a0,s2
    3546:	9782                	jalr	a5
    3548:	b7dd                	j	352e <ip_output_if+0x13e>

0000354a <ip_output>:
ip_output():
    354a:	ce7fc2ef          	jal	t0,230 <__riscv_save_0>
    354e:	1101                	addi	sp,sp,-32
    3550:	842a                	mv	s0,a0
    3552:	8532                	mv	a0,a2
    3554:	ce2e                	sw	a1,28(sp)
    3556:	cc36                	sw	a3,24(sp)
    3558:	ca3a                	sw	a4,20(sp)
    355a:	c83e                	sw	a5,16(sp)
    355c:	c632                	sw	a2,12(sp)
    355e:	b91ff0ef          	jal	ra,30ee <ip_route>
    3562:	cd09                	beqz	a0,357c <ip_output+0x32>
    3564:	47c2                	lw	a5,16(sp)
    3566:	4752                	lw	a4,20(sp)
    3568:	46e2                	lw	a3,24(sp)
    356a:	4632                	lw	a2,12(sp)
    356c:	45f2                	lw	a1,28(sp)
    356e:	882a                	mv	a6,a0
    3570:	8522                	mv	a0,s0
    3572:	e7fff0ef          	jal	ra,33f0 <ip_output_if>
    3576:	6105                	addi	sp,sp,32
    3578:	cddfc06f          	j	254 <__riscv_restore_0>
    357c:	5571                	li	a0,-4
    357e:	bfe5                	j	3576 <ip_output+0x2c>

00003580 <ip_addr_isbroadcast>:
ip_addr_isbroadcast():
    3580:	3118                	fld	fa4,32(a0)
    3582:	211c                	fld	fa5,0(a0)
    3584:	0722                	slli	a4,a4,0x8
    3586:	8f5d                	or	a4,a4,a5
    3588:	213c                	fld	fa5,64(a0)
    358a:	07c2                	slli	a5,a5,0x10
    358c:	8f5d                	or	a4,a4,a5
    358e:	313c                	fld	fa5,96(a0)
    3590:	07e2                	slli	a5,a5,0x18
    3592:	8fd9                	or	a5,a5,a4
    3594:	fff78693          	addi	a3,a5,-1
    3598:	5775                	li	a4,-3
    359a:	02d76663          	bltu	a4,a3,35c6 <ip_addr_isbroadcast+0x46>
    359e:	0315c703          	lbu	a4,49(a1)
    35a2:	4501                	li	a0,0
    35a4:	8b09                	andi	a4,a4,2
    35a6:	c30d                	beqz	a4,35c8 <ip_addr_isbroadcast+0x48>
    35a8:	41d8                	lw	a4,4(a1)
    35aa:	00f70f63          	beq	a4,a5,35c8 <ip_addr_isbroadcast+0x48>
    35ae:	4594                	lw	a3,8(a1)
    35b0:	8f3d                	xor	a4,a4,a5
    35b2:	8f75                	and	a4,a4,a3
    35b4:	eb11                	bnez	a4,35c8 <ip_addr_isbroadcast+0x48>
    35b6:	fff6c513          	not	a0,a3
    35ba:	8fe9                	and	a5,a5,a0
    35bc:	40a78533          	sub	a0,a5,a0
    35c0:	00153513          	seqz	a0,a0
    35c4:	8082                	ret
    35c6:	4505                	li	a0,1
    35c8:	8082                	ret

000035ca <ip_reass_tmr>:
ip_reass_tmr():
    35ca:	c3ffc2ef          	jal	t0,208 <__riscv_save_10>
    35ce:	8b41a403          	lw	s0,-1868(gp) # 200000c4 <reassdatagrams>
    35d2:	44c5                	li	s1,17
    35d4:	4b01                	li	s6,0
    35d6:	8b418913          	addi	s2,gp,-1868 # 200000c4 <reassdatagrams>
    35da:	e019                	bnez	s0,35e0 <ip_reass_tmr+0x16>
    35dc:	c65fc06f          	j	240 <__riscv_restore_10>
    35e0:	14fd                	addi	s1,s1,-1
    35e2:	0ff4f493          	andi	s1,s1,255
    35e6:	d8fd                	beqz	s1,35dc <ip_reass_tmr+0x12>
    35e8:	3c7c                	fld	fa5,248(s0)
    35ea:	00042c03          	lw	s8,0(s0)
    35ee:	c791                	beqz	a5,35fa <ip_reass_tmr+0x30>
    35f0:	17fd                	addi	a5,a5,-1
    35f2:	bc7c                	fsd	fa5,248(s0)
    35f4:	8b22                	mv	s6,s0
    35f6:	8462                	mv	s0,s8
    35f8:	b7cd                	j	35da <ip_reass_tmr+0x10>
    35fa:	00442983          	lw	s3,4(s0)
    35fe:	4a81                	li	s5,0
    3600:	0049a503          	lw	a0,4(s3)
    3604:	315c                	fld	fa5,160(a0)
    3606:	2158                	fld	fa4,128(a0)
    3608:	07a2                	slli	a5,a5,0x8
    360a:	8fd9                	or	a5,a5,a4
    360c:	ef85                	bnez	a5,3644 <ip_reass_tmr+0x7a>
    360e:	3118                	fld	fa4,32(a0)
    3610:	211c                	fld	fa5,0(a0)
    3612:	4651                	li	a2,20
    3614:	0722                	slli	a4,a4,0x8
    3616:	8f5d                	or	a4,a4,a5
    3618:	213c                	fld	fa5,64(a0)
    361a:	00840593          	addi	a1,s0,8
    361e:	07c2                	slli	a5,a5,0x10
    3620:	8f5d                	or	a4,a4,a5
    3622:	313c                	fld	fa5,96(a0)
    3624:	07e2                	slli	a5,a5,0x18
    3626:	8fd9                	or	a5,a5,a4
    3628:	c05c                	sw	a5,4(s0)
    362a:	523040ef          	jal	ra,834c <memcpy>
    362e:	4585                	li	a1,1
    3630:	854e                	mv	a0,s3
    3632:	536040ef          	jal	ra,7b68 <icmp_time_exceeded>
    3636:	854e                	mv	a0,s3
    3638:	441000ef          	jal	ra,4278 <pbuf_clen>
    363c:	8aaa                	mv	s5,a0
    363e:	854e                	mv	a0,s3
    3640:	257000ef          	jal	ra,4096 <pbuf_free>
    3644:	00442983          	lw	s3,4(s0)
    3648:	02099663          	bnez	s3,3674 <ip_reass_tmr+0xaa>
    364c:	00092703          	lw	a4,0(s2)
    3650:	401c                	lw	a5,0(s0)
    3652:	04e41c63          	bne	s0,a4,36aa <ip_reass_tmr+0xe0>
    3656:	00f92023          	sw	a5,0(s2)
    365a:	85a2                	mv	a1,s0
    365c:	4515                	li	a0,5
    365e:	06b000ef          	jal	ra,3ec8 <memp_free>
    3662:	8b218713          	addi	a4,gp,-1870 # 200000c2 <ip_reass_pbufcount>
    3666:	231e                	fld	ft6,448(sp)
    3668:	845a                	mv	s0,s6
    366a:	41578ab3          	sub	s5,a5,s5
    366e:	01571023          	sh	s5,0(a4)
    3672:	b749                	j	35f4 <ip_reass_tmr+0x2a>
    3674:	0049a703          	lw	a4,4(s3)
    3678:	854e                	mv	a0,s3
    367a:	331c                	fld	fa5,32(a4)
    367c:	00074a03          	lbu	s4,0(a4)
    3680:	07a2                	slli	a5,a5,0x8
    3682:	0147e7b3          	or	a5,a5,s4
    3686:	00274a03          	lbu	s4,2(a4)
    368a:	0a42                	slli	s4,s4,0x10
    368c:	00fa67b3          	or	a5,s4,a5
    3690:	00374a03          	lbu	s4,3(a4)
    3694:	0a62                	slli	s4,s4,0x18
    3696:	00fa6a33          	or	s4,s4,a5
    369a:	3df000ef          	jal	ra,4278 <pbuf_clen>
    369e:	9aaa                	add	s5,s5,a0
    36a0:	854e                	mv	a0,s3
    36a2:	1f5000ef          	jal	ra,4096 <pbuf_free>
    36a6:	89d2                	mv	s3,s4
    36a8:	b745                	j	3648 <ip_reass_tmr+0x7e>
    36aa:	00fb2023          	sw	a5,0(s6)
    36ae:	b775                	j	365a <ip_reass_tmr+0x90>

000036b0 <ip_reass>:
ip_reass():
    36b0:	b59fc2ef          	jal	t0,208 <__riscv_save_10>
    36b4:	4144                	lw	s1,4(a0)
    36b6:	892a                	mv	s2,a0
    36b8:	309c                	fld	fa5,32(s1)
    36ba:	2088                	fld	fa0,0(s1)
    36bc:	07a2                	slli	a5,a5,0x8
    36be:	8d5d                	or	a0,a0,a5
    36c0:	9f3ff0ef          	jal	ra,30b2 <ntohs>
    36c4:	8119                	srli	a0,a0,0x6
    36c6:	03c57513          	andi	a0,a0,60
    36ca:	47d1                	li	a5,20
    36cc:	26f51063          	bne	a0,a5,392c <ip_reass+0x27c>
    36d0:	30fc                	fld	fa5,224(s1)
    36d2:	20e8                	fld	fa0,192(s1)
    36d4:	07a2                	slli	a5,a5,0x8
    36d6:	8d5d                	or	a0,a0,a5
    36d8:	9dbff0ef          	jal	ra,30b2 <ntohs>
    36dc:	30bc                	fld	fa5,96(s1)
    36de:	8b2a                	mv	s6,a0
    36e0:	20a8                	fld	fa0,64(s1)
    36e2:	07a2                	slli	a5,a5,0x8
    36e4:	8d5d                	or	a0,a0,a5
    36e6:	9cdff0ef          	jal	ra,30b2 <ntohs>
    36ea:	309c                	fld	fa5,32(s1)
    36ec:	8caa                	mv	s9,a0
    36ee:	2088                	fld	fa0,0(s1)
    36f0:	07a2                	slli	a5,a5,0x8
    36f2:	8d5d                	or	a0,a0,a5
    36f4:	9bfff0ef          	jal	ra,30b2 <ntohs>
    36f8:	8c2a                	mv	s8,a0
    36fa:	854a                	mv	a0,s2
    36fc:	37d000ef          	jal	ra,4278 <pbuf_clen>
    3700:	97c1a783          	lw	a5,-1668(gp) # 2000018c <WCHCfg+0x10>
    3704:	8b21d703          	lhu	a4,-1870(gp) # 200000c2 <ip_reass_pbufcount>
    3708:	8d2a                	mv	s10,a0
    370a:	838d                	srli	a5,a5,0x3
    370c:	972a                	add	a4,a4,a0
    370e:	8bbd                	andi	a5,a5,15
    3710:	8b218993          	addi	s3,gp,-1870 # 200000c2 <ip_reass_pbufcount>
    3714:	20e7cc63          	blt	a5,a4,392c <ip_reass+0x27c>
    3718:	8b41a403          	lw	s0,-1868(gp) # 200000c4 <reassdatagrams>
    371c:	4a81                	li	s5,0
    371e:	8b418a13          	addi	s4,gp,-1868 # 200000c4 <reassdatagrams>
    3722:	e81d                	bnez	s0,3758 <ip_reass+0xa8>
    3724:	4515                	li	a0,5
    3726:	786000ef          	jal	ra,3eac <memp_malloc>
    372a:	842a                	mv	s0,a0
    372c:	20050063          	beqz	a0,392c <ip_reass+0x27c>
    3730:	4671                	li	a2,28
    3732:	4581                	li	a1,0
    3734:	00440513          	addi	a0,s0,4
    3738:	b29fc0ef          	jal	ra,260 <memset>
    373c:	478d                	li	a5,3
    373e:	bc7c                	fsd	fa5,248(s0)
    3740:	000a2783          	lw	a5,0(s4)
    3744:	008a2023          	sw	s0,0(s4)
    3748:	c01c                	sw	a5,0(s0)
    374a:	4651                	li	a2,20
    374c:	85a6                	mv	a1,s1
    374e:	00840513          	addi	a0,s0,8
    3752:	3fb040ef          	jal	ra,834c <memcpy>
    3756:	ac8d                	j	39c8 <ip_reass+0x318>
    3758:	34d8                	fld	fa4,168(s1)
    375a:	24dc                	fld	fa5,136(s1)
    375c:	0722                	slli	a4,a4,0x8
    375e:	8f5d                	or	a4,a4,a5
    3760:	24fc                	fld	fa5,200(s1)
    3762:	07c2                	slli	a5,a5,0x10
    3764:	8f5d                	or	a4,a4,a5
    3766:	34fc                	fld	fa5,232(s1)
    3768:	07e2                	slli	a5,a5,0x18
    376a:	8fd9                	or	a5,a5,a4
    376c:	4858                	lw	a4,20(s0)
    376e:	02f71663          	bne	a4,a5,379a <ip_reass+0xea>
    3772:	3898                	fld	fa4,48(s1)
    3774:	289c                	fld	fa5,16(s1)
    3776:	0722                	slli	a4,a4,0x8
    3778:	8f5d                	or	a4,a4,a5
    377a:	28bc                	fld	fa5,80(s1)
    377c:	07c2                	slli	a5,a5,0x10
    377e:	8f5d                	or	a4,a4,a5
    3780:	38bc                	fld	fa5,112(s1)
    3782:	07e2                	slli	a5,a5,0x18
    3784:	8fd9                	or	a5,a5,a4
    3786:	4c18                	lw	a4,24(s0)
    3788:	00f71963          	bne	a4,a5,379a <ip_reass+0xea>
    378c:	30dc                	fld	fa5,160(s1)
    378e:	20d4                	fld	fa3,128(s1)
    3790:	245a                	fld	fs0,400(sp)
    3792:	07a2                	slli	a5,a5,0x8
    3794:	8fd5                	or	a5,a5,a3
    3796:	20f70563          	beq	a4,a5,39a0 <ip_reass+0x2f0>
    379a:	8aa2                	mv	s5,s0
    379c:	4000                	lw	s0,0(s0)
    379e:	b751                	j	3722 <ip_reass+0x72>
    37a0:	42cc                	lw	a1,4(a3)
    37a2:	0055c803          	lbu	a6,5(a1)
    37a6:	0045c303          	lbu	t1,4(a1)
    37aa:	0822                	slli	a6,a6,0x8
    37ac:	00686833          	or	a6,a6,t1
    37b0:	0d067c63          	bgeu	a2,a6,3888 <ip_reass+0x1d8>
    37b4:	0086d593          	srli	a1,a3,0x8
    37b8:	a394                	fsd	fa3,0(a5)
    37ba:	b38c                	fsd	fa1,32(a5)
    37bc:	0106d593          	srli	a1,a3,0x10
    37c0:	82e1                	srli	a3,a3,0x18
    37c2:	a3ac                	fsd	fa1,64(a5)
    37c4:	b3b4                	fsd	fa3,96(a5)
    37c6:	2a070d63          	beqz	a4,3a80 <ip_reass+0x3d0>
    37ca:	3374                	fld	fa3,224(a4)
    37cc:	236c                	fld	fa1,192(a4)
    37ce:	06a2                	slli	a3,a3,0x8
    37d0:	8ecd                	or	a3,a3,a1
    37d2:	14d66463          	bltu	a2,a3,391a <ip_reass+0x26a>
    37d6:	14a86263          	bltu	a6,a0,391a <ip_reass+0x26a>
    37da:	00895693          	srli	a3,s2,0x8
    37de:	01270023          	sb	s2,0(a4)
    37e2:	b314                	fsd	fa3,32(a4)
    37e4:	01095693          	srli	a3,s2,0x10
    37e8:	01895913          	srli	s2,s2,0x18
    37ec:	a334                	fsd	fa3,64(a4)
    37ee:	012701a3          	sb	s2,3(a4)
    37f2:	2c78                	fld	fa4,216(s0)
    37f4:	4b01                	li	s6,0
    37f6:	8b05                	andi	a4,a4,1
    37f8:	18070e63          	beqz	a4,3994 <ip_reass+0x2e4>
    37fc:	18088c63          	beqz	a7,3994 <ip_reass+0x2e4>
    3800:	4058                	lw	a4,4(s0)
    3802:	4344                	lw	s1,4(a4)
    3804:	30d8                	fld	fa4,160(s1)
    3806:	20d4                	fld	fa3,128(s1)
    3808:	0722                	slli	a4,a4,0x8
    380a:	8f55                	or	a4,a4,a3
    380c:	18071463          	bnez	a4,3994 <ip_reass+0x2e4>
    3810:	3394                	fld	fa3,32(a5)
    3812:	2398                	fld	fa4,0(a5)
    3814:	06a2                	slli	a3,a3,0x8
    3816:	8ed9                	or	a3,a3,a4
    3818:	23b8                	fld	fa4,64(a5)
    381a:	0742                	slli	a4,a4,0x10
    381c:	8ed9                	or	a3,a3,a4
    381e:	33b8                	fld	fa4,96(a5)
    3820:	0762                	slli	a4,a4,0x18
    3822:	8f55                	or	a4,a4,a3
    3824:	e761                	bnez	a4,38ec <ip_reass+0x23c>
    3826:	2c5e                	fld	fs8,464(sp)
    3828:	0004c903          	lbu	s2,0(s1)
    382c:	4651                	li	a2,20
    382e:	07d1                	addi	a5,a5,20
    3830:	ac5e                	fsd	fs7,24(sp)
    3832:	309c                	fld	fa5,32(s1)
    3834:	00840593          	addi	a1,s0,8
    3838:	8526                	mv	a0,s1
    383a:	07a2                	slli	a5,a5,0x8
    383c:	0127e7b3          	or	a5,a5,s2
    3840:	0024c903          	lbu	s2,2(s1)
    3844:	0942                	slli	s2,s2,0x10
    3846:	00f967b3          	or	a5,s2,a5
    384a:	0034c903          	lbu	s2,3(s1)
    384e:	0962                	slli	s2,s2,0x18
    3850:	00f96933          	or	s2,s2,a5
    3854:	2f9040ef          	jal	ra,834c <memcpy>
    3858:	2c4a                	fld	fs8,144(sp)
    385a:	84bff0ef          	jal	ra,30a4 <htons>
    385e:	a0a8                	fsd	fa0,64(s1)
    3860:	8121                	srli	a0,a0,0x8
    3862:	b0a8                	fsd	fa0,96(s1)
    3864:	00048323          	sb	zero,6(s1)
    3868:	000483a3          	sb	zero,7(s1)
    386c:	00048523          	sb	zero,10(s1)
    3870:	000485a3          	sb	zero,11(s1)
    3874:	45d1                	li	a1,20
    3876:	8526                	mv	a0,s1
    3878:	47a040ef          	jal	ra,7cf2 <inet_chksum>
    387c:	a4a8                	fsd	fa0,72(s1)
    387e:	8121                	srli	a0,a0,0x8
    3880:	b4a8                	fsd	fa0,104(s1)
    3882:	00442b03          	lw	s6,4(s0)
    3886:	a0d5                	j	396a <ip_reass+0x2ba>
    3888:	09060963          	beq	a2,a6,391a <ip_reass+0x26a>
    388c:	31f4                	fld	fa3,224(a1)
    388e:	0065c303          	lbu	t1,6(a1)
    3892:	06a2                	slli	a3,a3,0x8
    3894:	0066e6b3          	or	a3,a3,t1
    3898:	08d66163          	bltu	a2,a3,391a <ip_reass+0x26a>
    389c:	cb01                	beqz	a4,38ac <ip_reass+0x1fc>
    389e:	2374                	fld	fa3,192(a4)
    38a0:	3378                	fld	fa4,224(a4)
    38a2:	0722                	slli	a4,a4,0x8
    38a4:	8f55                	or	a4,a4,a3
    38a6:	00e80363          	beq	a6,a4,38ac <ip_reass+0x1fc>
    38aa:	4881                	li	a7,0
    38ac:	3198                	fld	fa4,32(a1)
    38ae:	2194                	fld	fa3,0(a1)
    38b0:	0722                	slli	a4,a4,0x8
    38b2:	8f55                	or	a4,a4,a3
    38b4:	21b4                	fld	fa3,64(a1)
    38b6:	06c2                	slli	a3,a3,0x10
    38b8:	8f55                	or	a4,a4,a3
    38ba:	31b4                	fld	fa3,96(a1)
    38bc:	06e2                	slli	a3,a3,0x18
    38be:	8ed9                	or	a3,a3,a4
    38c0:	872e                	mv	a4,a1
    38c2:	aa5d                	j	3a78 <ip_reass+0x3c8>
    38c4:	00895693          	srli	a3,s2,0x8
    38c8:	01270023          	sb	s2,0(a4)
    38cc:	b314                	fsd	fa3,32(a4)
    38ce:	01095693          	srli	a3,s2,0x10
    38d2:	01895913          	srli	s2,s2,0x18
    38d6:	a334                	fsd	fa3,64(a4)
    38d8:	012701a3          	sb	s2,3(a4)
    38dc:	2374                	fld	fa3,192(a4)
    38de:	3378                	fld	fa4,224(a4)
    38e0:	0722                	slli	a4,a4,0x8
    38e2:	8f55                	or	a4,a4,a3
    38e4:	f0e607e3          	beq	a2,a4,37f2 <ip_reass+0x142>
    38e8:	4881                	li	a7,0
    38ea:	b721                	j	37f2 <ip_reass+0x142>
    38ec:	4354                	lw	a3,4(a4)
    38ee:	23ec                	fld	fa1,192(a5)
    38f0:	33f8                	fld	fa4,224(a5)
    38f2:	32dc                	fld	fa5,160(a3)
    38f4:	22d0                	fld	fa2,128(a3)
    38f6:	0722                	slli	a4,a4,0x8
    38f8:	07a2                	slli	a5,a5,0x8
    38fa:	8f4d                	or	a4,a4,a1
    38fc:	8fd1                	or	a5,a5,a2
    38fe:	02f71a63          	bne	a4,a5,3932 <ip_reass+0x282>
    3902:	329c                	fld	fa5,32(a3)
    3904:	2298                	fld	fa4,0(a3)
    3906:	07a2                	slli	a5,a5,0x8
    3908:	8fd9                	or	a5,a5,a4
    390a:	22b8                	fld	fa4,64(a3)
    390c:	0742                	slli	a4,a4,0x10
    390e:	8fd9                	or	a5,a5,a4
    3910:	32b8                	fld	fa4,96(a3)
    3912:	0762                	slli	a4,a4,0x18
    3914:	8f5d                	or	a4,a4,a5
    3916:	87b6                	mv	a5,a3
    3918:	b731                	j	3824 <ip_reass+0x174>
    391a:	854a                	mv	a0,s2
    391c:	15d000ef          	jal	ra,4278 <pbuf_clen>
    3920:	0009d783          	lhu	a5,0(s3)
    3924:	40a78533          	sub	a0,a5,a0
    3928:	00a99023          	sh	a0,0(s3)
    392c:	854a                	mv	a0,s2
    392e:	768000ef          	jal	ra,4096 <pbuf_free>
    3932:	4b01                	li	s6,0
    3934:	a085                	j	3994 <ip_reass+0x2e4>
    3936:	55b1                	li	a1,-20
    3938:	854a                	mv	a0,s2
    393a:	00492483          	lw	s1,4(s2)
    393e:	6ea000ef          	jal	ra,4028 <pbuf_header>
    3942:	85ca                	mv	a1,s2
    3944:	855a                	mv	a0,s6
    3946:	14f000ef          	jal	ra,4294 <pbuf_cat>
    394a:	309c                	fld	fa5,32(s1)
    394c:	0004c903          	lbu	s2,0(s1)
    3950:	07a2                	slli	a5,a5,0x8
    3952:	0127e7b3          	or	a5,a5,s2
    3956:	0024c903          	lbu	s2,2(s1)
    395a:	0942                	slli	s2,s2,0x10
    395c:	00f967b3          	or	a5,s2,a5
    3960:	0034c903          	lbu	s2,3(s1)
    3964:	0962                	slli	s2,s2,0x18
    3966:	00f96933          	or	s2,s2,a5
    396a:	fc0916e3          	bnez	s2,3936 <ip_reass+0x286>
    396e:	000a2703          	lw	a4,0(s4)
    3972:	401c                	lw	a5,0(s0)
    3974:	02e41363          	bne	s0,a4,399a <ip_reass+0x2ea>
    3978:	00fa2023          	sw	a5,0(s4)
    397c:	85a2                	mv	a1,s0
    397e:	4515                	li	a0,5
    3980:	23a1                	jal	3ec8 <memp_free>
    3982:	855a                	mv	a0,s6
    3984:	0f5000ef          	jal	ra,4278 <pbuf_clen>
    3988:	0009d783          	lhu	a5,0(s3)
    398c:	40a78533          	sub	a0,a5,a0
    3990:	00a99023          	sh	a0,0(s3)
    3994:	855a                	mv	a0,s6
    3996:	8abfc06f          	j	240 <__riscv_restore_10>
    399a:	00faa023          	sw	a5,0(s5)
    399e:	bff9                	j	397c <ip_reass+0x2cc>
    39a0:	30fc                	fld	fa5,224(s1)
    39a2:	20e8                	fld	fa0,192(s1)
    39a4:	6b89                	lui	s7,0x2
    39a6:	07a2                	slli	a5,a5,0x8
    39a8:	8d5d                	or	a0,a0,a5
    39aa:	f08ff0ef          	jal	ra,30b2 <ntohs>
    39ae:	1bfd                	addi	s7,s7,-1
    39b0:	01757533          	and	a0,a0,s7
    39b4:	0542                	slli	a0,a0,0x10
    39b6:	8141                	srli	a0,a0,0x10
    39b8:	e901                	bnez	a0,39c8 <ip_reass+0x318>
    39ba:	246a                	fld	fs0,152(sp)
    39bc:	ef6ff0ef          	jal	ra,30b2 <ntohs>
    39c0:	01757533          	and	a0,a0,s7
    39c4:	d80513e3          	bnez	a0,374a <ip_reass+0x9a>
    39c8:	0009d783          	lhu	a5,0(s3)
    39cc:	9d3e                	add	s10,s10,a5
    39ce:	01a99023          	sh	s10,0(s3)
    39d2:	30fc                	fld	fa5,224(s1)
    39d4:	20e8                	fld	fa0,192(s1)
    39d6:	07a2                	slli	a5,a5,0x8
    39d8:	8d5d                	or	a0,a0,a5
    39da:	ed8ff0ef          	jal	ra,30b2 <ntohs>
    39de:	01251793          	slli	a5,a0,0x12
    39e2:	0207c263          	bltz	a5,3a06 <ip_reass+0x356>
    39e6:	013b1513          	slli	a0,s6,0x13
    39ea:	2c7c                	fld	fa5,216(s0)
    39ec:	814d                	srli	a0,a0,0x13
    39ee:	050e                	slli	a0,a0,0x3
    39f0:	006c5c13          	srli	s8,s8,0x6
    39f4:	9566                	add	a0,a0,s9
    39f6:	03cc7c13          	andi	s8,s8,60
    39fa:	0017e793          	ori	a5,a5,1
    39fe:	41850533          	sub	a0,a0,s8
    3a02:	ac7c                	fsd	fa5,216(s0)
    3a04:	ac4a                	fsd	fs2,24(sp)
    3a06:	00492483          	lw	s1,4(s2)
    3a0a:	30bc                	fld	fa5,96(s1)
    3a0c:	20a8                	fld	fa0,64(s1)
    3a0e:	07a2                	slli	a5,a5,0x8
    3a10:	8d5d                	or	a0,a0,a5
    3a12:	ea0ff0ef          	jal	ra,30b2 <ntohs>
    3a16:	309c                	fld	fa5,32(s1)
    3a18:	8b2a                	mv	s6,a0
    3a1a:	2088                	fld	fa0,0(s1)
    3a1c:	07a2                	slli	a5,a5,0x8
    3a1e:	8d5d                	or	a0,a0,a5
    3a20:	e92ff0ef          	jal	ra,30b2 <ntohs>
    3a24:	30fc                	fld	fa5,224(s1)
    3a26:	8baa                	mv	s7,a0
    3a28:	20e8                	fld	fa0,192(s1)
    3a2a:	07a2                	slli	a5,a5,0x8
    3a2c:	006bdb93          	srli	s7,s7,0x6
    3a30:	8d5d                	or	a0,a0,a5
    3a32:	e80ff0ef          	jal	ra,30b2 <ntohs>
    3a36:	054e                	slli	a0,a0,0x13
    3a38:	814d                	srli	a0,a0,0x13
    3a3a:	00351613          	slli	a2,a0,0x3
    3a3e:	00cb0533          	add	a0,s6,a2
    3a42:	03cbfb13          	andi	s6,s7,60
    3a46:	00492783          	lw	a5,4(s2)
    3a4a:	41650533          	sub	a0,a0,s6
    3a4e:	0542                	slli	a0,a0,0x10
    3a50:	00865713          	srli	a4,a2,0x8
    3a54:	8141                	srli	a0,a0,0x10
    3a56:	4054                	lw	a3,4(s0)
    3a58:	b3d8                	fsd	fa4,160(a5)
    3a5a:	00855713          	srli	a4,a0,0x8
    3a5e:	b3f8                	fsd	fa4,224(a5)
    3a60:	00078023          	sb	zero,0(a5)
    3a64:	000780a3          	sb	zero,1(a5)
    3a68:	00078123          	sb	zero,2(a5)
    3a6c:	000781a3          	sb	zero,3(a5)
    3a70:	a3d0                	fsd	fa2,128(a5)
    3a72:	a3e8                	fsd	fa0,192(a5)
    3a74:	4885                	li	a7,1
    3a76:	4701                	li	a4,0
    3a78:	d20694e3          	bnez	a3,37a0 <ip_reass+0xf0>
    3a7c:	e40714e3          	bnez	a4,38c4 <ip_reass+0x214>
    3a80:	01242223          	sw	s2,4(s0)
    3a84:	b3bd                	j	37f2 <ip_reass+0x142>

00003a86 <ip_frag>:
ip_frag():
    3a86:	f7afc2ef          	jal	t0,200 <__riscv_save_12>
    3a8a:	00452c03          	lw	s8,4(a0)
    3a8e:	1101                	addi	sp,sp,-32
    3a90:	ca32                	sw	a2,20(sp)
    3a92:	007c4703          	lbu	a4,7(s8)
    3a96:	8daa                	mv	s11,a0
    3a98:	006c4503          	lbu	a0,6(s8)
    3a9c:	0722                	slli	a4,a4,0x8
    3a9e:	0285db83          	lhu	s7,40(a1)
    3aa2:	8d59                	or	a0,a0,a4
    3aa4:	8cae                	mv	s9,a1
    3aa6:	e0cff0ef          	jal	ra,30b2 <ntohs>
    3aaa:	6689                	lui	a3,0x2
    3aac:	00d577b3          	and	a5,a0,a3
    3ab0:	fecb8a13          	addi	s4,s7,-20 # 1fec <SocketIPRawSend+0x5a>
    3ab4:	46a1                	li	a3,8
    3ab6:	02da4a33          	div	s4,s4,a3
    3aba:	008dd483          	lhu	s1,8(s11)
    3abe:	6709                	lui	a4,0x2
    3ac0:	177d                	addi	a4,a4,-1
    3ac2:	c63e                	sw	a5,12(sp)
    3ac4:	00e57933          	and	s2,a0,a4
    3ac8:	14b1                	addi	s1,s1,-20
    3aca:	0942                	slli	s2,s2,0x10
    3acc:	04c2                	slli	s1,s1,0x10
    3ace:	01095913          	srli	s2,s2,0x10
    3ad2:	80c1                	srli	s1,s1,0x10
    3ad4:	4401                	li	s0,0
    3ad6:	4d51                	li	s10,20
    3ad8:	cc3a                	sw	a4,24(sp)
    3ada:	0a42                	slli	s4,s4,0x10
    3adc:	010a5a13          	srli	s4,s4,0x10
    3ae0:	003a1693          	slli	a3,s4,0x3
    3ae4:	01069793          	slli	a5,a3,0x10
    3ae8:	83c1                	srli	a5,a5,0x10
    3aea:	c83e                	sw	a5,16(sp)
    3aec:	fedb8793          	addi	a5,s7,-19
    3af0:	ce3e                	sw	a5,28(sp)
    3af2:	e489                	bnez	s1,3afc <ip_frag+0x76>
    3af4:	4501                	li	a0,0
    3af6:	6105                	addi	sp,sp,32
    3af8:	f44fc06f          	j	23c <__riscv_restore_12>
    3afc:	47e2                	lw	a5,24(sp)
    3afe:	8aa6                	mv	s5,s1
    3b00:	00f97b33          	and	s6,s2,a5
    3b04:	47b2                	lw	a5,12(sp)
    3b06:	0167eb33          	or	s6,a5,s6
    3b0a:	47f2                	lw	a5,28(sp)
    3b0c:	00f4c663          	blt	s1,a5,3b18 <ip_frag+0x92>
    3b10:	4ac2                	lw	s5,16(sp)
    3b12:	6789                	lui	a5,0x2
    3b14:	00fb6b33          	or	s6,s6,a5
    3b18:	4601                	li	a2,0
    3b1a:	45d1                	li	a1,20
    3b1c:	4509                	li	a0,2
    3b1e:	23d9                	jal	40e4 <pbuf_alloc>
    3b20:	89aa                	mv	s3,a0
    3b22:	c929                	beqz	a0,3b74 <ip_frag+0xee>
    3b24:	4148                	lw	a0,4(a0)
    3b26:	4651                	li	a2,20
    3b28:	85e2                	mv	a1,s8
    3b2a:	023040ef          	jal	ra,834c <memcpy>
    3b2e:	004da603          	lw	a2,4(s11)
    3b32:	0049ab83          	lw	s7,4(s3)
    3b36:	966a                	add	a2,a2,s10
    3b38:	00cda223          	sw	a2,4(s11)
    3b3c:	00add603          	lhu	a2,10(s11)
    3b40:	41a606b3          	sub	a3,a2,s10
    3b44:	00dd9523          	sh	a3,10(s11)
    3b48:	8d56                	mv	s10,s5
    3b4a:	040d0763          	beqz	s10,3b98 <ip_frag+0x112>
    3b4e:	00add403          	lhu	s0,10(s11)
    3b52:	008d7363          	bgeu	s10,s0,3b58 <ip_frag+0xd2>
    3b56:	846a                	mv	s0,s10
    3b58:	0442                	slli	s0,s0,0x10
    3b5a:	8041                	srli	s0,s0,0x10
    3b5c:	e401                	bnez	s0,3b64 <ip_frag+0xde>
    3b5e:	000dad83          	lw	s11,0(s11)
    3b62:	b7e5                	j	3b4a <ip_frag+0xc4>
    3b64:	4581                	li	a1,0
    3b66:	4609                	li	a2,2
    3b68:	450d                	li	a0,3
    3b6a:	2bad                	jal	40e4 <pbuf_alloc>
    3b6c:	85aa                	mv	a1,a0
    3b6e:	e509                	bnez	a0,3b78 <ip_frag+0xf2>
    3b70:	854e                	mv	a0,s3
    3b72:	2315                	jal	4096 <pbuf_free>
    3b74:	557d                	li	a0,-1
    3b76:	b741                	j	3af6 <ip_frag+0x70>
    3b78:	004da603          	lw	a2,4(s11)
    3b7c:	a502                	fsd	ft0,136(sp)
    3b7e:	a522                	fsd	fs0,136(sp)
    3b80:	c150                	sw	a2,4(a0)
    3b82:	854e                	mv	a0,s3
    3b84:	710000ef          	jal	ra,4294 <pbuf_cat>
    3b88:	408d06b3          	sub	a3,s10,s0
    3b8c:	01069d13          	slli	s10,a3,0x10
    3b90:	010d5d13          	srli	s10,s10,0x10
    3b94:	fc0d15e3          	bnez	s10,3b5e <ip_frag+0xd8>
    3b98:	855a                	mv	a0,s6
    3b9a:	d0aff0ef          	jal	ra,30a4 <htons>
    3b9e:	00ab8323          	sb	a0,6(s7)
    3ba2:	8121                	srli	a0,a0,0x8
    3ba4:	00ab83a3          	sb	a0,7(s7)
    3ba8:	014a8513          	addi	a0,s5,20
    3bac:	0542                	slli	a0,a0,0x10
    3bae:	8141                	srli	a0,a0,0x10
    3bb0:	cf4ff0ef          	jal	ra,30a4 <htons>
    3bb4:	00ab8123          	sb	a0,2(s7)
    3bb8:	8121                	srli	a0,a0,0x8
    3bba:	00ab81a3          	sb	a0,3(s7)
    3bbe:	45d1                	li	a1,20
    3bc0:	000b8523          	sb	zero,10(s7)
    3bc4:	000b85a3          	sb	zero,11(s7)
    3bc8:	855e                	mv	a0,s7
    3bca:	128040ef          	jal	ra,7cf2 <inet_chksum>
    3bce:	014ca703          	lw	a4,20(s9)
    3bd2:	4652                	lw	a2,20(sp)
    3bd4:	00ab8523          	sb	a0,10(s7)
    3bd8:	8121                	srli	a0,a0,0x8
    3bda:	00ab85a3          	sb	a0,11(s7)
    3bde:	85ce                	mv	a1,s3
    3be0:	8566                	mv	a0,s9
    3be2:	9702                	jalr	a4
    3be4:	415484b3          	sub	s1,s1,s5
    3be8:	9952                	add	s2,s2,s4
    3bea:	854e                	mv	a0,s3
    3bec:	04c2                	slli	s1,s1,0x10
    3bee:	0942                	slli	s2,s2,0x10
    3bf0:	215d                	jal	4096 <pbuf_free>
    3bf2:	80c1                	srli	s1,s1,0x10
    3bf4:	01095913          	srli	s2,s2,0x10
    3bf8:	8d22                	mv	s10,s0
    3bfa:	bde5                	j	3af2 <ip_frag+0x6c>

00003bfc <lwip_init>:
lwip_init():
    3bfc:	e34fc2ef          	jal	t0,230 <__riscv_save_0>
    3c00:	2801                	jal	3c10 <mem_init>
    3c02:	2cb9                	jal	3e60 <memp_init>
    3c04:	b301a783          	lw	a5,-1232(gp) # 20000340 <DNSInf+0x8>
    3c08:	c391                	beqz	a5,3c0c <lwip_init+0x10>
    3c0a:	9782                	jalr	a5
    3c0c:	e48fc06f          	j	254 <__riscv_restore_0>

00003c10 <mem_init>:
mem_init():
    3c10:	20004737          	lui	a4,0x20004
    3c14:	4fb70713          	addi	a4,a4,1275 # 200044fb <Mem_Heap_Memory+0x3>
    3c18:	9b71                	andi	a4,a4,-4
    3c1a:	8ae1ae23          	sw	a4,-1860(gp) # 200000cc <ram>
    3c1e:	9741a783          	lw	a5,-1676(gp) # 20000184 <WCHCfg+0x8>
    3c22:	00071123          	sh	zero,2(a4)
    3c26:	078d                	addi	a5,a5,3
    3c28:	9bf1                	andi	a5,a5,-4
    3c2a:	01079693          	slli	a3,a5,0x10
    3c2e:	82c1                	srli	a3,a3,0x10
    3c30:	97ba                	add	a5,a5,a4
    3c32:	a316                	fsd	ft5,384(sp)
    3c34:	00070223          	sb	zero,4(a4)
    3c38:	8cf1a023          	sw	a5,-1856(gp) # 200000d0 <ram_end>
    3c3c:	4605                	li	a2,1
    3c3e:	a3d0                	fsd	fa2,128(a5)
    3c40:	a396                	fsd	ft5,448(sp)
    3c42:	a3b6                	fsd	fa3,448(sp)
    3c44:	8ae1ac23          	sw	a4,-1864(gp) # 200000c8 <lfree>
    3c48:	8082                	ret

00003c4a <mem_free>:
mem_free():
    3c4a:	c149                	beqz	a0,3ccc <mem_free+0x82>
    3c4c:	8bc1a783          	lw	a5,-1860(gp) # 200000cc <ram>
    3c50:	06f56e63          	bltu	a0,a5,3ccc <mem_free+0x82>
    3c54:	8c01a583          	lw	a1,-1856(gp) # 200000d0 <ram_end>
    3c58:	06b57a63          	bgeu	a0,a1,3ccc <mem_free+0x82>
    3c5c:	8b81a683          	lw	a3,-1864(gp) # 200000c8 <lfree>
    3c60:	ff850613          	addi	a2,a0,-8
    3c64:	fe050e23          	sb	zero,-4(a0)
    3c68:	8b818713          	addi	a4,gp,-1864 # 200000c8 <lfree>
    3c6c:	00d67363          	bgeu	a2,a3,3c72 <mem_free+0x28>
    3c70:	c310                	sw	a2,0(a4)
    3c72:	ff855683          	lhu	a3,-8(a0)
    3c76:	96be                	add	a3,a3,a5
    3c78:	02d60463          	beq	a2,a3,3ca0 <mem_free+0x56>
    3c7c:	0046c803          	lbu	a6,4(a3) # 2004 <SocketIPRawSend+0x72>
    3c80:	02081063          	bnez	a6,3ca0 <mem_free+0x56>
    3c84:	00d58e63          	beq	a1,a3,3ca0 <mem_free+0x56>
    3c88:	430c                	lw	a1,0(a4)
    3c8a:	00b69363          	bne	a3,a1,3c90 <mem_free+0x46>
    3c8e:	c310                	sw	a2,0(a4)
    3c90:	228e                	fld	ft5,192(sp)
    3c92:	feb51c23          	sh	a1,-8(a0)
    3c96:	2296                	fld	ft5,320(sp)
    3c98:	40f605b3          	sub	a1,a2,a5
    3c9c:	96be                	add	a3,a3,a5
    3c9e:	a2ae                	fsd	fa1,320(sp)
    3ca0:	ffa55583          	lhu	a1,-6(a0)
    3ca4:	00b786b3          	add	a3,a5,a1
    3ca8:	02d60263          	beq	a2,a3,3ccc <mem_free+0x82>
    3cac:	0046c803          	lbu	a6,4(a3)
    3cb0:	00081e63          	bnez	a6,3ccc <mem_free+0x82>
    3cb4:	00072803          	lw	a6,0(a4)
    3cb8:	01061363          	bne	a2,a6,3cbe <mem_free+0x74>
    3cbc:	c314                	sw	a3,0(a4)
    3cbe:	ff855703          	lhu	a4,-8(a0)
    3cc2:	a29a                	fsd	ft6,320(sp)
    3cc4:	ff855703          	lhu	a4,-8(a0)
    3cc8:	97ba                	add	a5,a5,a4
    3cca:	a3ae                	fsd	fa1,448(sp)
    3ccc:	8082                	ret

00003cce <mem_realloc>:
mem_realloc():
    3cce:	058d                	addi	a1,a1,3
    3cd0:	05c2                	slli	a1,a1,0x10
    3cd2:	81c1                	srli	a1,a1,0x10
    3cd4:	99f1                	andi	a1,a1,-4
    3cd6:	05c2                	slli	a1,a1,0x10
    3cd8:	81c1                	srli	a1,a1,0x10
    3cda:	4731                	li	a4,12
    3cdc:	87ae                	mv	a5,a1
    3cde:	00e5f363          	bgeu	a1,a4,3ce4 <mem_realloc+0x16>
    3ce2:	47b1                	li	a5,12
    3ce4:	9741a603          	lw	a2,-1676(gp) # 20000184 <WCHCfg+0x8>
    3ce8:	07c2                	slli	a5,a5,0x10
    3cea:	83c1                	srli	a5,a5,0x10
    3cec:	060d                	addi	a2,a2,3
    3cee:	9a71                	andi	a2,a2,-4
    3cf0:	0af66063          	bltu	a2,a5,3d90 <mem_realloc+0xc2>
    3cf4:	8bc1a703          	lw	a4,-1860(gp) # 200000cc <ram>
    3cf8:	08e56d63          	bltu	a0,a4,3d92 <mem_realloc+0xc4>
    3cfc:	8c01a683          	lw	a3,-1856(gp) # 200000d0 <ram_end>
    3d00:	08d57963          	bgeu	a0,a3,3d92 <mem_realloc+0xc4>
    3d04:	ff850693          	addi	a3,a0,-8
    3d08:	ff855883          	lhu	a7,-8(a0)
    3d0c:	8e99                	sub	a3,a3,a4
    3d0e:	06c2                	slli	a3,a3,0x10
    3d10:	82c1                	srli	a3,a3,0x10
    3d12:	ff888593          	addi	a1,a7,-8
    3d16:	8d95                	sub	a1,a1,a3
    3d18:	05c2                	slli	a1,a1,0x10
    3d1a:	81c1                	srli	a1,a1,0x10
    3d1c:	06f5ea63          	bltu	a1,a5,3d90 <mem_realloc+0xc2>
    3d20:	06f58963          	beq	a1,a5,3d92 <mem_realloc+0xc4>
    3d24:	01170333          	add	t1,a4,a7
    3d28:	00434803          	lbu	a6,4(t1) # 80000004 <_eusrstack+0x5ffe0004>
    3d2c:	02081463          	bnez	a6,3d54 <mem_realloc+0x86>
    3d30:	00868593          	addi	a1,a3,8
    3d34:	8b818813          	addi	a6,gp,-1864 # 200000c8 <lfree>
    3d38:	97ae                	add	a5,a5,a1
    3d3a:	00082e03          	lw	t3,0(a6)
    3d3e:	07c2                	slli	a5,a5,0x10
    3d40:	83c1                	srli	a5,a5,0x10
    3d42:	00035883          	lhu	a7,0(t1)
    3d46:	00f705b3          	add	a1,a4,a5
    3d4a:	026e1663          	bne	t3,t1,3d76 <mem_realloc+0xa8>
    3d4e:	00b82023          	sw	a1,0(a6)
    3d52:	a015                	j	3d76 <mem_realloc+0xa8>
    3d54:	01478813          	addi	a6,a5,20 # 2014 <SocketIPRawSend+0x82>
    3d58:	0305ed63          	bltu	a1,a6,3d92 <mem_realloc+0xc4>
    3d5c:	00868593          	addi	a1,a3,8
    3d60:	97ae                	add	a5,a5,a1
    3d62:	8b818813          	addi	a6,gp,-1864 # 200000c8 <lfree>
    3d66:	07c2                	slli	a5,a5,0x10
    3d68:	00082303          	lw	t1,0(a6)
    3d6c:	83c1                	srli	a5,a5,0x10
    3d6e:	00f705b3          	add	a1,a4,a5
    3d72:	fc65eee3          	bltu	a1,t1,3d4e <mem_realloc+0x80>
    3d76:	01159023          	sh	a7,0(a1)
    3d7a:	a1b6                	fsd	fa3,192(sp)
    3d7c:	00058223          	sb	zero,4(a1)
    3d80:	fef51c23          	sh	a5,-8(a0)
    3d84:	2196                	fld	ft3,320(sp)
    3d86:	00d60663          	beq	a2,a3,3d92 <mem_realloc+0xc4>
    3d8a:	9736                	add	a4,a4,a3
    3d8c:	a33e                	fsd	fa5,384(sp)
    3d8e:	8082                	ret
    3d90:	4501                	li	a0,0
    3d92:	8082                	ret

00003d94 <mem_malloc>:
mem_malloc():
    3d94:	c529                	beqz	a0,3dde <mem_malloc+0x4a>
    3d96:	00350713          	addi	a4,a0,3
    3d9a:	0742                	slli	a4,a4,0x10
    3d9c:	8341                	srli	a4,a4,0x10
    3d9e:	9b71                	andi	a4,a4,-4
    3da0:	0742                	slli	a4,a4,0x10
    3da2:	8341                	srli	a4,a4,0x10
    3da4:	46b1                	li	a3,12
    3da6:	87ba                	mv	a5,a4
    3da8:	00d77363          	bgeu	a4,a3,3dae <mem_malloc+0x1a>
    3dac:	47b1                	li	a5,12
    3dae:	9741a603          	lw	a2,-1676(gp) # 20000184 <WCHCfg+0x8>
    3db2:	07c2                	slli	a5,a5,0x10
    3db4:	83c1                	srli	a5,a5,0x10
    3db6:	060d                	addi	a2,a2,3
    3db8:	9a71                	andi	a2,a2,-4
    3dba:	4501                	li	a0,0
    3dbc:	02f66263          	bltu	a2,a5,3de0 <mem_malloc+0x4c>
    3dc0:	8b81a703          	lw	a4,-1864(gp) # 200000c8 <lfree>
    3dc4:	8bc1ae83          	lw	t4,-1860(gp) # 200000cc <ram>
    3dc8:	8b818593          	addi	a1,gp,-1864 # 200000c8 <lfree>
    3dcc:	40f60333          	sub	t1,a2,a5
    3dd0:	41d706b3          	sub	a3,a4,t4
    3dd4:	06c2                	slli	a3,a3,0x10
    3dd6:	82c1                	srli	a3,a3,0x10
    3dd8:	5e61                	li	t3,-8
    3dda:	0066e463          	bltu	a3,t1,3de2 <mem_malloc+0x4e>
    3dde:	4501                	li	a0,0
    3de0:	8082                	ret
    3de2:	00de8533          	add	a0,t4,a3
    3de6:	00454803          	lbu	a6,4(a0)
    3dea:	00055883          	lhu	a7,0(a0)
    3dee:	06081763          	bnez	a6,3e5c <mem_malloc+0xc8>
    3df2:	40de0833          	sub	a6,t3,a3
    3df6:	9846                	add	a6,a6,a7
    3df8:	06f86263          	bltu	a6,a5,3e5c <mem_malloc+0xc8>
    3dfc:	01478313          	addi	t1,a5,20
    3e00:	04686263          	bltu	a6,t1,3e44 <mem_malloc+0xb0>
    3e04:	07a1                	addi	a5,a5,8
    3e06:	97b6                	add	a5,a5,a3
    3e08:	07c2                	slli	a5,a5,0x10
    3e0a:	83c1                	srli	a5,a5,0x10
    3e0c:	00fe8833          	add	a6,t4,a5
    3e10:	01181023          	sh	a7,0(a6)
    3e14:	00d81123          	sh	a3,2(a6)
    3e18:	00080223          	sb	zero,4(a6)
    3e1c:	4685                	li	a3,1
    3e1e:	a11e                	fsd	ft7,128(sp)
    3e20:	a154                	fsd	fa3,128(a0)
    3e22:	00085683          	lhu	a3,0(a6)
    3e26:	00d60463          	beq	a2,a3,3e2e <mem_malloc+0x9a>
    3e2a:	96f6                	add	a3,a3,t4
    3e2c:	a2be                	fsd	fa5,320(sp)
    3e2e:	00a71963          	bne	a4,a0,3e40 <mem_malloc+0xac>
    3e32:	8c01a683          	lw	a3,-1856(gp) # 200000d0 <ram_end>
    3e36:	4781                	li	a5,0
    3e38:	2350                	fld	fa2,128(a4)
    3e3a:	ee01                	bnez	a2,3e52 <mem_malloc+0xbe>
    3e3c:	c391                	beqz	a5,3e40 <mem_malloc+0xac>
    3e3e:	c198                	sw	a4,0(a1)
    3e40:	0521                	addi	a0,a0,8
    3e42:	8082                	ret
    3e44:	4785                	li	a5,1
    3e46:	a15c                	fsd	fa5,128(a0)
    3e48:	b7dd                	j	3e2e <mem_malloc+0x9a>
    3e4a:	231a                	fld	ft6,384(sp)
    3e4c:	4785                	li	a5,1
    3e4e:	9776                	add	a4,a4,t4
    3e50:	b7e5                	j	3e38 <mem_malloc+0xa4>
    3e52:	fee69ce3          	bne	a3,a4,3e4a <mem_malloc+0xb6>
    3e56:	d7ed                	beqz	a5,3e40 <mem_malloc+0xac>
    3e58:	c194                	sw	a3,0(a1)
    3e5a:	b7dd                	j	3e40 <mem_malloc+0xac>
    3e5c:	86c6                	mv	a3,a7
    3e5e:	bfb5                	j	3dda <mem_malloc+0x46>

00003e60 <memp_init>:
memp_init():
    3e60:	8201a583          	lw	a1,-2016(gp) # 20000030 <memp_num>
    3e64:	8241a683          	lw	a3,-2012(gp) # 20000034 <memp_sizes>
    3e68:	200057b7          	lui	a5,0x20005
    3e6c:	70f78793          	addi	a5,a5,1807 # 2000570f <Memp_Memory+0x3>
    3e70:	9bf1                	andi	a5,a5,-4
    3e72:	ae818713          	addi	a4,gp,-1304 # 200002f8 <memp_tab>
    3e76:	01068513          	addi	a0,a3,16
    3e7a:	0005d803          	lhu	a6,0(a1)
    3e7e:	00072023          	sw	zero,0(a4)
    3e82:	4601                	li	a2,0
    3e84:	00c81863          	bne	a6,a2,3e94 <memp_init+0x34>
    3e88:	0689                	addi	a3,a3,2
    3e8a:	0711                	addi	a4,a4,4
    3e8c:	0589                	addi	a1,a1,2
    3e8e:	fea696e3          	bne	a3,a0,3e7a <memp_init+0x1a>
    3e92:	8082                	ret
    3e94:	00072883          	lw	a7,0(a4)
    3e98:	0605                	addi	a2,a2,1
    3e9a:	0642                	slli	a2,a2,0x10
    3e9c:	0117a023          	sw	a7,0(a5)
    3ea0:	0006d883          	lhu	a7,0(a3)
    3ea4:	c31c                	sw	a5,0(a4)
    3ea6:	8241                	srli	a2,a2,0x10
    3ea8:	97c6                	add	a5,a5,a7
    3eaa:	bfe9                	j	3e84 <memp_init+0x24>

00003eac <memp_malloc>:
memp_malloc():
    3eac:	479d                	li	a5,7
    3eae:	00a7eb63          	bltu	a5,a0,3ec4 <memp_malloc+0x18>
    3eb2:	050a                	slli	a0,a0,0x2
    3eb4:	ae818793          	addi	a5,gp,-1304 # 200002f8 <memp_tab>
    3eb8:	97aa                	add	a5,a5,a0
    3eba:	4388                	lw	a0,0(a5)
    3ebc:	c509                	beqz	a0,3ec6 <memp_malloc+0x1a>
    3ebe:	4118                	lw	a4,0(a0)
    3ec0:	c398                	sw	a4,0(a5)
    3ec2:	8082                	ret
    3ec4:	4501                	li	a0,0
    3ec6:	8082                	ret

00003ec8 <memp_free>:
memp_free():
    3ec8:	c989                	beqz	a1,3eda <memp_free+0x12>
    3eca:	00251793          	slli	a5,a0,0x2
    3ece:	ae818513          	addi	a0,gp,-1304 # 200002f8 <memp_tab>
    3ed2:	953e                	add	a0,a0,a5
    3ed4:	411c                	lw	a5,0(a0)
    3ed6:	c19c                	sw	a5,0(a1)
    3ed8:	c10c                	sw	a1,0(a0)
    3eda:	8082                	ret

00003edc <netif_set_ipaddr>:
netif_set_ipaddr():
    3edc:	b3afc2ef          	jal	t0,216 <__riscv_save_4>
    3ee0:	3198                	fld	fa4,32(a1)
    3ee2:	219c                	fld	fa5,0(a1)
    3ee4:	84aa                	mv	s1,a0
    3ee6:	0722                	slli	a4,a4,0x8
    3ee8:	8f5d                	or	a4,a4,a5
    3eea:	21bc                	fld	fa5,64(a1)
    3eec:	842e                	mv	s0,a1
    3eee:	07c2                	slli	a5,a5,0x10
    3ef0:	8f5d                	or	a4,a4,a5
    3ef2:	31bc                	fld	fa5,96(a1)
    3ef4:	07e2                	slli	a5,a5,0x18
    3ef6:	8fd9                	or	a5,a5,a4
    3ef8:	4158                	lw	a4,4(a0)
    3efa:	00e79f63          	bne	a5,a4,3f18 <netif_set_ipaddr+0x3c>
    3efe:	3018                	fld	fa4,32(s0)
    3f00:	201c                	fld	fa5,0(s0)
    3f02:	0722                	slli	a4,a4,0x8
    3f04:	8f5d                	or	a4,a4,a5
    3f06:	203c                	fld	fa5,64(s0)
    3f08:	07c2                	slli	a5,a5,0x10
    3f0a:	8f5d                	or	a4,a4,a5
    3f0c:	303c                	fld	fa5,96(s0)
    3f0e:	07e2                	slli	a5,a5,0x18
    3f10:	8fd9                	or	a5,a5,a4
    3f12:	c0dc                	sw	a5,4(s1)
    3f14:	b36fc06f          	j	24a <__riscv_restore_4>
    3f18:	8d41a503          	lw	a0,-1836(gp) # 200000e4 <tcp_active_pcbs>
    3f1c:	4901                	li	s2,0
    3f1e:	06400993          	li	s3,100
    3f22:	c105                	beqz	a0,3f42 <netif_set_ipaddr+0x66>
    3f24:	4118                	lw	a4,0(a0)
    3f26:	40dc                	lw	a5,4(s1)
    3f28:	00c52a03          	lw	s4,12(a0)
    3f2c:	04f71163          	bne	a4,a5,3f6e <netif_set_ipaddr+0x92>
    3f30:	4585                	li	a1,1
    3f32:	4e3000ef          	jal	ra,4c14 <tcp_abandon>
    3f36:	00190793          	addi	a5,s2,1
    3f3a:	0ff7f793          	andi	a5,a5,255
    3f3e:	0329f763          	bgeu	s3,s2,3f6c <netif_set_ipaddr+0x90>
    3f42:	8dc1a783          	lw	a5,-1828(gp) # 200000ec <tcp_listen_pcbs>
    3f46:	dfc5                	beqz	a5,3efe <netif_set_ipaddr+0x22>
    3f48:	4398                	lw	a4,0(a5)
    3f4a:	cf19                	beqz	a4,3f68 <netif_set_ipaddr+0x8c>
    3f4c:	40d4                	lw	a3,4(s1)
    3f4e:	00d71d63          	bne	a4,a3,3f68 <netif_set_ipaddr+0x8c>
    3f52:	3014                	fld	fa3,32(s0)
    3f54:	2018                	fld	fa4,0(s0)
    3f56:	06a2                	slli	a3,a3,0x8
    3f58:	8ed9                	or	a3,a3,a4
    3f5a:	2038                	fld	fa4,64(s0)
    3f5c:	0742                	slli	a4,a4,0x10
    3f5e:	8ed9                	or	a3,a3,a4
    3f60:	3038                	fld	fa4,96(s0)
    3f62:	0762                	slli	a4,a4,0x18
    3f64:	8f55                	or	a4,a4,a3
    3f66:	c398                	sw	a4,0(a5)
    3f68:	47dc                	lw	a5,12(a5)
    3f6a:	bff1                	j	3f46 <netif_set_ipaddr+0x6a>
    3f6c:	893e                	mv	s2,a5
    3f6e:	8552                	mv	a0,s4
    3f70:	bf4d                	j	3f22 <netif_set_ipaddr+0x46>

00003f72 <netif_set_addr>:
netif_set_addr():
    3f72:	abefc2ef          	jal	t0,230 <__riscv_save_0>
    3f76:	1141                	addi	sp,sp,-16
    3f78:	c632                	sw	a2,12(sp)
    3f7a:	c436                	sw	a3,8(sp)
    3f7c:	842a                	mv	s0,a0
    3f7e:	f5fff0ef          	jal	ra,3edc <netif_set_ipaddr>
    3f82:	4632                	lw	a2,12(sp)
    3f84:	46a2                	lw	a3,8(sp)
    3f86:	4781                	li	a5,0
    3f88:	ca19                	beqz	a2,3f9e <netif_set_addr+0x2c>
    3f8a:	3218                	fld	fa4,32(a2)
    3f8c:	221c                	fld	fa5,0(a2)
    3f8e:	0722                	slli	a4,a4,0x8
    3f90:	8f5d                	or	a4,a4,a5
    3f92:	223c                	fld	fa5,64(a2)
    3f94:	07c2                	slli	a5,a5,0x10
    3f96:	8f5d                	or	a4,a4,a5
    3f98:	323c                	fld	fa5,96(a2)
    3f9a:	07e2                	slli	a5,a5,0x18
    3f9c:	8fd9                	or	a5,a5,a4
    3f9e:	c41c                	sw	a5,8(s0)
    3fa0:	4781                	li	a5,0
    3fa2:	ca99                	beqz	a3,3fb8 <netif_set_addr+0x46>
    3fa4:	3298                	fld	fa4,32(a3)
    3fa6:	229c                	fld	fa5,0(a3)
    3fa8:	0722                	slli	a4,a4,0x8
    3faa:	8f5d                	or	a4,a4,a5
    3fac:	22bc                	fld	fa5,64(a3)
    3fae:	07c2                	slli	a5,a5,0x10
    3fb0:	8f5d                	or	a4,a4,a5
    3fb2:	32bc                	fld	fa5,96(a3)
    3fb4:	07e2                	slli	a5,a5,0x18
    3fb6:	8fd9                	or	a5,a5,a4
    3fb8:	c45c                	sw	a5,12(s0)
    3fba:	0141                	addi	sp,sp,16
    3fbc:	a98fc06f          	j	254 <__riscv_restore_0>

00003fc0 <netif_add>:
netif_add():
    3fc0:	a70fc2ef          	jal	t0,230 <__riscv_save_0>
    3fc4:	cd58                	sw	a4,28(a0)
    3fc6:	8cc18713          	addi	a4,gp,-1844 # 200000dc <netifnum.6387>
    3fca:	00074883          	lbu	a7,0(a4)
    3fce:	1141                	addi	sp,sp,-16
    3fd0:	00052223          	sw	zero,4(a0)
    3fd4:	00052423          	sw	zero,8(a0)
    3fd8:	00052623          	sw	zero,12(a0)
    3fdc:	020508a3          	sb	zero,49(a0)
    3fe0:	02052023          	sw	zero,32(a0)
    3fe4:	00188313          	addi	t1,a7,1
    3fe8:	03150a23          	sb	a7,52(a0)
    3fec:	01052823          	sw	a6,16(a0)
    3ff0:	842a                	mv	s0,a0
    3ff2:	c63e                	sw	a5,12(sp)
    3ff4:	00670023          	sb	t1,0(a4)
    3ff8:	f7bff0ef          	jal	ra,3f72 <netif_set_addr>
    3ffc:	47b2                	lw	a5,12(sp)
    3ffe:	8522                	mv	a0,s0
    4000:	9782                	jalr	a5
    4002:	e911                	bnez	a0,4016 <netif_add+0x56>
    4004:	8c818793          	addi	a5,gp,-1848 # 200000d8 <netif_list>
    4008:	4398                	lw	a4,0(a5)
    400a:	c018                	sw	a4,0(s0)
    400c:	c380                	sw	s0,0(a5)
    400e:	8522                	mv	a0,s0
    4010:	0141                	addi	sp,sp,16
    4012:	a42fc06f          	j	254 <__riscv_restore_0>
    4016:	4401                	li	s0,0
    4018:	bfdd                	j	400e <netif_add+0x4e>

0000401a <netif_set_default>:
netif_set_default():
    401a:	8ca1a223          	sw	a0,-1852(gp) # 200000d4 <netif_default>
    401e:	8082                	ret

00004020 <netif_is_up>:
netif_is_up():
    4020:	03154503          	lbu	a0,49(a0)
    4024:	8905                	andi	a0,a0,1
    4026:	8082                	ret

00004028 <pbuf_header>:
pbuf_header():
    4028:	87aa                	mv	a5,a0
    402a:	4501                	li	a0,0
    402c:	c5a5                	beqz	a1,4094 <pbuf_header+0x6c>
    402e:	c3bd                	beqz	a5,4094 <pbuf_header+0x6c>
    4030:	01059613          	slli	a2,a1,0x10
    4034:	8241                	srli	a2,a2,0x10
    4036:	8832                	mv	a6,a2
    4038:	0005db63          	bgez	a1,404e <pbuf_header+0x26>
    403c:	40c00833          	neg	a6,a2
    4040:	27ba                	fld	fa5,392(sp)
    4042:	0842                	slli	a6,a6,0x10
    4044:	01085813          	srli	a6,a6,0x10
    4048:	4505                	li	a0,1
    404a:	05076563          	bltu	a4,a6,4094 <pbuf_header+0x6c>
    404e:	27d4                	fld	fa3,136(a5)
    4050:	43d8                	lw	a4,4(a5)
    4052:	c681                	beqz	a3,405a <pbuf_header+0x32>
    4054:	450d                	li	a0,3
    4056:	02a69163          	bne	a3,a0,4078 <pbuf_header+0x50>
    405a:	8f0d                	sub	a4,a4,a1
    405c:	01078693          	addi	a3,a5,16
    4060:	4505                	li	a0,1
    4062:	02d76963          	bltu	a4,a3,4094 <pbuf_header+0x6c>
    4066:	c3d8                	sw	a4,4(a5)
    4068:	27ba                	fld	fa5,392(sp)
    406a:	4501                	li	a0,0
    406c:	9732                	add	a4,a4,a2
    406e:	a7ba                	fsd	fa4,456(sp)
    4070:	279a                	fld	fa5,384(sp)
    4072:	963a                	add	a2,a2,a4
    4074:	a792                	fsd	ft4,456(sp)
    4076:	8082                	ret
    4078:	16fd                	addi	a3,a3,-1
    407a:	06c2                	slli	a3,a3,0x10
    407c:	82c1                	srli	a3,a3,0x10
    407e:	4885                	li	a7,1
    4080:	4505                	li	a0,1
    4082:	00d8e963          	bltu	a7,a3,4094 <pbuf_header+0x6c>
    4086:	0005d763          	bgez	a1,4094 <pbuf_header+0x6c>
    408a:	27b6                	fld	fa5,328(sp)
    408c:	0106e463          	bltu	a3,a6,4094 <pbuf_header+0x6c>
    4090:	8f0d                	sub	a4,a4,a1
    4092:	bfd1                	j	4066 <pbuf_header+0x3e>
    4094:	8082                	ret

00004096 <pbuf_free>:
pbuf_free():
    4096:	980fc2ef          	jal	t0,216 <__riscv_save_4>
    409a:	4401                	li	s0,0
    409c:	cd0d                	beqz	a0,40d6 <pbuf_free+0x40>
    409e:	85aa                	mv	a1,a0
    40a0:	4401                	li	s0,0
    40a2:	490d                	li	s2,3
    40a4:	4985                	li	s3,1
    40a6:	25fe                	fld	fa1,472(sp)
    40a8:	17fd                	addi	a5,a5,-1
    40aa:	07c2                	slli	a5,a5,0x10
    40ac:	83c1                	srli	a5,a5,0x10
    40ae:	a5fe                	fsd	ft11,200(sp)
    40b0:	e39d                	bnez	a5,40d6 <pbuf_free+0x40>
    40b2:	25dc                	fld	fa5,136(a1)
    40b4:	4184                	lw	s1,0(a1)
    40b6:	451d                	li	a0,7
    40b8:	01278863          	beq	a5,s2,40c8 <pbuf_free+0x32>
    40bc:	17fd                	addi	a5,a5,-1
    40be:	07c2                	slli	a5,a5,0x10
    40c0:	83c1                	srli	a5,a5,0x10
    40c2:	00f9ed63          	bltu	s3,a5,40dc <pbuf_free+0x46>
    40c6:	4519                	li	a0,6
    40c8:	e01ff0ef          	jal	ra,3ec8 <memp_free>
    40cc:	0405                	addi	s0,s0,1
    40ce:	0ff47413          	andi	s0,s0,255
    40d2:	85a6                	mv	a1,s1
    40d4:	f8e9                	bnez	s1,40a6 <pbuf_free+0x10>
    40d6:	8522                	mv	a0,s0
    40d8:	972fc06f          	j	24a <__riscv_restore_4>
    40dc:	852e                	mv	a0,a1
    40de:	b6dff0ef          	jal	ra,3c4a <mem_free>
    40e2:	b7ed                	j	40cc <pbuf_free+0x36>

000040e4 <pbuf_alloc>:
pbuf_alloc():
    40e4:	932fc2ef          	jal	t0,216 <__riscv_save_4>
    40e8:	4785                	li	a5,1
    40ea:	00f50d63          	beq	a0,a5,4104 <pbuf_alloc+0x20>
    40ee:	c531                	beqz	a0,413a <pbuf_alloc+0x56>
    40f0:	4789                	li	a5,2
    40f2:	04f50663          	beq	a0,a5,413e <pbuf_alloc+0x5a>
    40f6:	478d                	li	a5,3
    40f8:	04f50563          	beq	a0,a5,4142 <pbuf_alloc+0x5e>
    40fc:	4401                	li	s0,0
    40fe:	8522                	mv	a0,s0
    4100:	94afc06f          	j	24a <__riscv_restore_4>
    4104:	4481                	li	s1,0
    4106:	04d1                	addi	s1,s1,20
    4108:	04b9                	addi	s1,s1,14
    410a:	04c2                	slli	s1,s1,0x10
    410c:	80c1                	srli	s1,s1,0x10
    410e:	4789                	li	a5,2
    4110:	89b2                	mv	s3,a2
    4112:	892e                	mv	s2,a1
    4114:	02c7e963          	bltu	a5,a2,4146 <pbuf_alloc+0x62>
    4118:	ca69                	beqz	a2,41ea <pbuf_alloc+0x106>
    411a:	4519                	li	a0,6
    411c:	d91ff0ef          	jal	ra,3eac <memp_malloc>
    4120:	842a                	mv	s0,a0
    4122:	dd69                	beqz	a0,40fc <pbuf_alloc+0x18>
    4124:	00052223          	sw	zero,4(a0)
    4128:	01251423          	sh	s2,8(a0)
    412c:	01251523          	sh	s2,10(a0)
    4130:	00052023          	sw	zero,0(a0)
    4134:	01350623          	sb	s3,12(a0)
    4138:	a0a5                	j	41a0 <pbuf_alloc+0xbc>
    413a:	44d1                	li	s1,20
    413c:	b7e9                	j	4106 <pbuf_alloc+0x22>
    413e:	4481                	li	s1,0
    4140:	b7e1                	j	4108 <pbuf_alloc+0x24>
    4142:	4481                	li	s1,0
    4144:	b7e9                	j	410e <pbuf_alloc+0x2a>
    4146:	478d                	li	a5,3
    4148:	4401                	li	s0,0
    414a:	faf61ae3          	bne	a2,a5,40fe <pbuf_alloc+0x1a>
    414e:	451d                	li	a0,7
    4150:	d5dff0ef          	jal	ra,3eac <memp_malloc>
    4154:	842a                	mv	s0,a0
    4156:	d15d                	beqz	a0,40fc <pbuf_alloc+0x18>
    4158:	009507b3          	add	a5,a0,s1
    415c:	07cd                	addi	a5,a5,19
    415e:	9bf1                	andi	a5,a5,-4
    4160:	c15c                	sw	a5,4(a0)
    4162:	96c18793          	addi	a5,gp,-1684 # 2000017c <WCHCfg>
    4166:	43dc                	lw	a5,4(a5)
    4168:	048d                	addi	s1,s1,3
    416a:	98f1                	andi	s1,s1,-4
    416c:	03978793          	addi	a5,a5,57
    4170:	9bf1                	andi	a5,a5,-4
    4172:	01350623          	sb	s3,12(a0)
    4176:	00052023          	sw	zero,0(a0)
    417a:	01251423          	sh	s2,8(a0)
    417e:	409784b3          	sub	s1,a5,s1
    4182:	96c18993          	addi	s3,gp,-1684 # 2000017c <WCHCfg>
    4186:	00997363          	bgeu	s2,s1,418c <pbuf_alloc+0xa8>
    418a:	84ca                	mv	s1,s2
    418c:	4785                	li	a5,1
    418e:	a426                	fsd	fs1,8(sp)
    4190:	a47e                	fsd	ft11,8(sp)
    4192:	409904b3          	sub	s1,s2,s1
    4196:	4a0d                	li	s4,3
    4198:	8922                	mv	s2,s0
    419a:	4a85                	li	s5,1
    419c:	00904763          	bgtz	s1,41aa <pbuf_alloc+0xc6>
    41a0:	4785                	li	a5,1
    41a2:	a47e                	fsd	ft11,8(sp)
    41a4:	000406a3          	sb	zero,13(s0)
    41a8:	bf99                	j	40fe <pbuf_alloc+0x1a>
    41aa:	451d                	li	a0,7
    41ac:	d01ff0ef          	jal	ra,3eac <memp_malloc>
    41b0:	e509                	bnez	a0,41ba <pbuf_alloc+0xd6>
    41b2:	8522                	mv	a0,s0
    41b4:	ee3ff0ef          	jal	ra,4096 <pbuf_free>
    41b8:	b791                	j	40fc <pbuf_alloc+0x18>
    41ba:	0049a783          	lw	a5,4(s3)
    41be:	01451623          	sh	s4,12(a0)
    41c2:	00052023          	sw	zero,0(a0)
    41c6:	00a92023          	sw	a0,0(s2)
    41ca:	03978793          	addi	a5,a5,57
    41ce:	a506                	fsd	ft1,136(sp)
    41d0:	9bf1                	andi	a5,a5,-4
    41d2:	00f4f363          	bgeu	s1,a5,41d8 <pbuf_alloc+0xf4>
    41d6:	87a6                	mv	a5,s1
    41d8:	01050713          	addi	a4,a0,16
    41dc:	a53e                	fsd	fa5,136(sp)
    41de:	c158                	sw	a4,4(a0)
    41e0:	01551723          	sh	s5,14(a0)
    41e4:	8c9d                	sub	s1,s1,a5
    41e6:	892a                	mv	s2,a0
    41e8:	bf55                	j	419c <pbuf_alloc+0xb8>
    41ea:	00358793          	addi	a5,a1,3
    41ee:	01348513          	addi	a0,s1,19
    41f2:	9bf1                	andi	a5,a5,-4
    41f4:	9971                	andi	a0,a0,-4
    41f6:	953e                	add	a0,a0,a5
    41f8:	0542                	slli	a0,a0,0x10
    41fa:	8141                	srli	a0,a0,0x10
    41fc:	b99ff0ef          	jal	ra,3d94 <mem_malloc>
    4200:	842a                	mv	s0,a0
    4202:	ee050de3          	beqz	a0,40fc <pbuf_alloc+0x18>
    4206:	94aa                	add	s1,s1,a0
    4208:	04cd                	addi	s1,s1,19
    420a:	98f1                	andi	s1,s1,-4
    420c:	c144                	sw	s1,4(a0)
    420e:	01251423          	sh	s2,8(a0)
    4212:	01251523          	sh	s2,10(a0)
    4216:	00052023          	sw	zero,0(a0)
    421a:	00050623          	sb	zero,12(a0)
    421e:	b749                	j	41a0 <pbuf_alloc+0xbc>

00004220 <pbuf_realloc>:
pbuf_realloc():
    4220:	251e                	fld	fa0,448(sp)
    4222:	04f5fa63          	bgeu	a1,a5,4276 <pbuf_realloc+0x56>
    4226:	80afc2ef          	jal	t0,230 <__riscv_save_0>
    422a:	842a                	mv	s0,a0
    422c:	84ae                	mv	s1,a1
    422e:	40f587b3          	sub	a5,a1,a5
    4232:	242e                	fld	fs0,200(sp)
    4234:	0295e963          	bltu	a1,s1,4266 <pbuf_realloc+0x46>
    4238:	245c                	fld	fa5,136(s0)
    423a:	ef81                	bnez	a5,4252 <pbuf_realloc+0x32>
    423c:	00958b63          	beq	a1,s1,4252 <pbuf_realloc+0x32>
    4240:	404c                	lw	a1,4(s0)
    4242:	8522                	mv	a0,s0
    4244:	8d81                	sub	a1,a1,s0
    4246:	95a6                	add	a1,a1,s1
    4248:	05c2                	slli	a1,a1,0x10
    424a:	81c1                	srli	a1,a1,0x10
    424c:	a83ff0ef          	jal	ra,3cce <mem_realloc>
    4250:	842a                	mv	s0,a0
    4252:	4008                	lw	a0,0(s0)
    4254:	a426                	fsd	fs1,8(sp)
    4256:	a406                	fsd	ft1,8(sp)
    4258:	c119                	beqz	a0,425e <pbuf_realloc+0x3e>
    425a:	e3dff0ef          	jal	ra,4096 <pbuf_free>
    425e:	00042023          	sw	zero,0(s0)
    4262:	ff3fb06f          	j	254 <__riscv_restore_0>
    4266:	241a                	fld	fs0,384(sp)
    4268:	8c8d                	sub	s1,s1,a1
    426a:	04c2                	slli	s1,s1,0x10
    426c:	973e                	add	a4,a4,a5
    426e:	a41a                	fsd	ft6,8(sp)
    4270:	80c1                	srli	s1,s1,0x10
    4272:	4000                	lw	s0,0(s0)
    4274:	bf7d                	j	4232 <pbuf_realloc+0x12>
    4276:	8082                	ret

00004278 <pbuf_clen>:
pbuf_clen():
    4278:	4781                	li	a5,0
    427a:	e119                	bnez	a0,4280 <pbuf_clen+0x8>
    427c:	853e                	mv	a0,a5
    427e:	8082                	ret
    4280:	0785                	addi	a5,a5,1
    4282:	0ff7f793          	andi	a5,a5,255
    4286:	4108                	lw	a0,0(a0)
    4288:	bfcd                	j	427a <pbuf_clen+0x2>

0000428a <pbuf_ref>:
pbuf_ref():
    428a:	c501                	beqz	a0,4292 <pbuf_ref+0x8>
    428c:	257e                	fld	fa0,472(sp)
    428e:	0785                	addi	a5,a5,1
    4290:	a57e                	fsd	ft11,136(sp)
    4292:	8082                	ret

00004294 <pbuf_cat>:
pbuf_cat():
    4294:	cd09                	beqz	a0,42ae <pbuf_cat+0x1a>
    4296:	e199                	bnez	a1,429c <pbuf_cat+0x8>
    4298:	8082                	ret
    429a:	853a                	mv	a0,a4
    429c:	259e                	fld	fa1,448(sp)
    429e:	2516                	fld	fa0,320(sp)
    42a0:	4118                	lw	a4,0(a0)
    42a2:	97b6                	add	a5,a5,a3
    42a4:	07c2                	slli	a5,a5,0x10
    42a6:	83c1                	srli	a5,a5,0x10
    42a8:	a51e                	fsd	ft7,136(sp)
    42aa:	fb65                	bnez	a4,429a <pbuf_cat+0x6>
    42ac:	c10c                	sw	a1,0(a0)
    42ae:	8082                	ret

000042b0 <pbuf_chain>:
pbuf_chain():
    42b0:	f81fb2ef          	jal	t0,230 <__riscv_save_0>
    42b4:	842e                	mv	s0,a1
    42b6:	fdfff0ef          	jal	ra,4294 <pbuf_cat>
    42ba:	8522                	mv	a0,s0
    42bc:	fcfff0ef          	jal	ra,428a <pbuf_ref>
    42c0:	f95fb06f          	j	254 <__riscv_restore_0>

000042c4 <pbuf_copy>:
pbuf_copy():
    42c4:	cd3d                	beqz	a0,4342 <pbuf_copy+0x7e>
    42c6:	f51fb2ef          	jal	t0,216 <__riscv_save_4>
    42ca:	842a                	mv	s0,a0
    42cc:	84ae                	mv	s1,a1
    42ce:	5559                	li	a0,-10
    42d0:	c5ad                	beqz	a1,433a <pbuf_copy+0x76>
    42d2:	241a                	fld	fs0,384(sp)
    42d4:	259e                	fld	fa1,448(sp)
    42d6:	06f76263          	bltu	a4,a5,433a <pbuf_copy+0x76>
    42da:	4901                	li	s2,0
    42dc:	4a01                	li	s4,0
    42de:	00a45983          	lhu	s3,10(s0)
    42e2:	24be                	fld	fs1,456(sp)
    42e4:	414989b3          	sub	s3,s3,s4
    42e8:	412787b3          	sub	a5,a5,s2
    42ec:	04f9c963          	blt	s3,a5,433e <pbuf_copy+0x7a>
    42f0:	01079993          	slli	s3,a5,0x10
    42f4:	4048                	lw	a0,4(s0)
    42f6:	40cc                	lw	a1,4(s1)
    42f8:	0109d993          	srli	s3,s3,0x10
    42fc:	9552                	add	a0,a0,s4
    42fe:	95ca                	add	a1,a1,s2
    4300:	864e                	mv	a2,s3
    4302:	04a040ef          	jal	ra,834c <memcpy>
    4306:	9a4e                	add	s4,s4,s3
    4308:	243e                	fld	fs0,456(sp)
    430a:	0a42                	slli	s4,s4,0x10
    430c:	994e                	add	s2,s2,s3
    430e:	0942                	slli	s2,s2,0x10
    4310:	010a5a13          	srli	s4,s4,0x10
    4314:	01095913          	srli	s2,s2,0x10
    4318:	01479463          	bne	a5,s4,4320 <pbuf_copy+0x5c>
    431c:	4000                	lw	s0,0(s0)
    431e:	4a01                	li	s4,0
    4320:	24be                	fld	fs1,456(sp)
    4322:	00f96563          	bltu	s2,a5,432c <pbuf_copy+0x68>
    4326:	4084                	lw	s1,0(s1)
    4328:	cc99                	beqz	s1,4346 <pbuf_copy+0x82>
    432a:	4901                	li	s2,0
    432c:	24ba                	fld	fs1,392(sp)
    432e:	249e                	fld	fs1,448(sp)
    4330:	02f71663          	bne	a4,a5,435c <pbuf_copy+0x98>
    4334:	409c                	lw	a5,0(s1)
    4336:	c39d                	beqz	a5,435c <pbuf_copy+0x98>
    4338:	555d                	li	a0,-9
    433a:	f11fb06f          	j	24a <__riscv_restore_4>
    433e:	09c2                	slli	s3,s3,0x10
    4340:	bf55                	j	42f4 <pbuf_copy+0x30>
    4342:	5559                	li	a0,-10
    4344:	8082                	ret
    4346:	c809                	beqz	s0,4358 <pbuf_copy+0x94>
    4348:	4901                	li	s2,0
    434a:	243a                	fld	fs0,392(sp)
    434c:	241e                	fld	fs0,448(sp)
    434e:	00f71463          	bne	a4,a5,4356 <pbuf_copy+0x92>
    4352:	401c                	lw	a5,0(s0)
    4354:	f3f5                	bnez	a5,4338 <pbuf_copy+0x74>
    4356:	f4c1                	bnez	s1,42de <pbuf_copy+0x1a>
    4358:	4501                	li	a0,0
    435a:	b7c5                	j	433a <pbuf_copy+0x76>
    435c:	f47d                	bnez	s0,434a <pbuf_copy+0x86>
    435e:	b741                	j	42de <pbuf_copy+0x1a>

00004360 <raw_input>:
raw_input():
    4360:	eb7fb2ef          	jal	t0,216 <__riscv_save_4>
    4364:	00452903          	lw	s2,4(a0)
    4368:	89aa                	mv	s3,a0
    436a:	00994783          	lbu	a5,9(s2)
    436e:	00894503          	lbu	a0,8(s2)
    4372:	4a01                	li	s4,0
    4374:	07a2                	slli	a5,a5,0x8
    4376:	8d5d                	or	a0,a0,a5
    4378:	d3bfe0ef          	jal	ra,30b2 <ntohs>
    437c:	0ff57a93          	andi	s5,a0,255
    4380:	8d01a403          	lw	s0,-1840(gp) # 200000e0 <raw_pcbs>
    4384:	0931                	addi	s2,s2,12
    4386:	8d018493          	addi	s1,gp,-1840 # 200000e0 <raw_pcbs>
    438a:	e401                	bnez	s0,4392 <raw_input+0x32>
    438c:	4501                	li	a0,0
    438e:	ebdfb06f          	j	24a <__riscv_restore_4>
    4392:	281c                	fld	fa5,16(s0)
    4394:	4501                	li	a0,0
    4396:	03579463          	bne	a5,s5,43be <raw_input+0x5e>
    439a:	485c                	lw	a5,20(s0)
    439c:	c38d                	beqz	a5,43be <raw_input+0x5e>
    439e:	4c08                	lw	a0,24(s0)
    43a0:	86ca                	mv	a3,s2
    43a2:	864e                	mv	a2,s3
    43a4:	85a2                	mv	a1,s0
    43a6:	9782                	jalr	a5
    43a8:	c919                	beqz	a0,43be <raw_input+0x5e>
    43aa:	000a0863          	beqz	s4,43ba <raw_input+0x5a>
    43ae:	445c                	lw	a5,12(s0)
    43b0:	00fa2623          	sw	a5,12(s4)
    43b4:	409c                	lw	a5,0(s1)
    43b6:	c080                	sw	s0,0(s1)
    43b8:	c45c                	sw	a5,12(s0)
    43ba:	4505                	li	a0,1
    43bc:	4981                	li	s3,0
    43be:	445c                	lw	a5,12(s0)
    43c0:	8a22                	mv	s4,s0
    43c2:	f571                	bnez	a0,438e <raw_input+0x2e>
    43c4:	843e                	mv	s0,a5
    43c6:	b7d1                	j	438a <raw_input+0x2a>

000043c8 <raw_bind>:
raw_bind():
    43c8:	4781                	li	a5,0
    43ca:	c999                	beqz	a1,43e0 <raw_bind+0x18>
    43cc:	3198                	fld	fa4,32(a1)
    43ce:	219c                	fld	fa5,0(a1)
    43d0:	0722                	slli	a4,a4,0x8
    43d2:	8f5d                	or	a4,a4,a5
    43d4:	21bc                	fld	fa5,64(a1)
    43d6:	07c2                	slli	a5,a5,0x10
    43d8:	8f5d                	or	a4,a4,a5
    43da:	31bc                	fld	fa5,96(a1)
    43dc:	07e2                	slli	a5,a5,0x18
    43de:	8fd9                	or	a5,a5,a4
    43e0:	c11c                	sw	a5,0(a0)
    43e2:	4501                	li	a0,0
    43e4:	8082                	ret

000043e6 <raw_connect>:
raw_connect():
    43e6:	4781                	li	a5,0
    43e8:	c999                	beqz	a1,43fe <raw_connect+0x18>
    43ea:	3198                	fld	fa4,32(a1)
    43ec:	219c                	fld	fa5,0(a1)
    43ee:	0722                	slli	a4,a4,0x8
    43f0:	8f5d                	or	a4,a4,a5
    43f2:	21bc                	fld	fa5,64(a1)
    43f4:	07c2                	slli	a5,a5,0x10
    43f6:	8f5d                	or	a4,a4,a5
    43f8:	31bc                	fld	fa5,96(a1)
    43fa:	07e2                	slli	a5,a5,0x18
    43fc:	8fd9                	or	a5,a5,a4
    43fe:	c15c                	sw	a5,4(a0)
    4400:	4501                	li	a0,0
    4402:	8082                	ret

00004404 <raw_recv>:
raw_recv():
    4404:	c94c                	sw	a1,20(a0)
    4406:	cd10                	sw	a2,24(a0)
    4408:	8082                	ret

0000440a <raw_sendto>:
raw_sendto():
    440a:	e0dfb2ef          	jal	t0,216 <__riscv_save_4>
    440e:	84ae                	mv	s1,a1
    4410:	892a                	mv	s2,a0
    4412:	45d1                	li	a1,20
    4414:	8526                	mv	a0,s1
    4416:	89b2                	mv	s3,a2
    4418:	c11ff0ef          	jal	ra,4028 <pbuf_header>
    441c:	c915                	beqz	a0,4450 <raw_sendto+0x46>
    441e:	4601                	li	a2,0
    4420:	4581                	li	a1,0
    4422:	4505                	li	a0,1
    4424:	cc1ff0ef          	jal	ra,40e4 <pbuf_alloc>
    4428:	842a                	mv	s0,a0
    442a:	e509                	bnez	a0,4434 <raw_sendto+0x2a>
    442c:	597d                	li	s2,-1
    442e:	854a                	mv	a0,s2
    4430:	e1bfb06f          	j	24a <__riscv_restore_4>
    4434:	85a6                	mv	a1,s1
    4436:	e7bff0ef          	jal	ra,42b0 <pbuf_chain>
    443a:	854e                	mv	a0,s3
    443c:	cb3fe0ef          	jal	ra,30ee <ip_route>
    4440:	ed19                	bnez	a0,445e <raw_sendto+0x54>
    4442:	5971                	li	s2,-4
    4444:	fe9405e3          	beq	s0,s1,442e <raw_sendto+0x24>
    4448:	8522                	mv	a0,s0
    444a:	c4dff0ef          	jal	ra,4096 <pbuf_free>
    444e:	b7c5                	j	442e <raw_sendto+0x24>
    4450:	55b1                	li	a1,-20
    4452:	8526                	mv	a0,s1
    4454:	bd5ff0ef          	jal	ra,4028 <pbuf_header>
    4458:	f971                	bnez	a0,442c <raw_sendto+0x22>
    445a:	8426                	mv	s0,s1
    445c:	bff9                	j	443a <raw_sendto+0x30>
    445e:	85ca                	mv	a1,s2
    4460:	00090563          	beqz	s2,446a <raw_sendto+0x60>
    4464:	00092783          	lw	a5,0(s2)
    4468:	e399                	bnez	a5,446e <raw_sendto+0x64>
    446a:	00450593          	addi	a1,a0,4
    446e:	01094783          	lbu	a5,16(s2)
    4472:	00a94703          	lbu	a4,10(s2)
    4476:	00b94683          	lbu	a3,11(s2)
    447a:	882a                	mv	a6,a0
    447c:	864e                	mv	a2,s3
    447e:	8522                	mv	a0,s0
    4480:	f71fe0ef          	jal	ra,33f0 <ip_output_if>
    4484:	892a                	mv	s2,a0
    4486:	bf7d                	j	4444 <raw_sendto+0x3a>

00004488 <raw_send>:
raw_send():
    4488:	da9fb2ef          	jal	t0,230 <__riscv_save_0>
    448c:	00450613          	addi	a2,a0,4
    4490:	f7bff0ef          	jal	ra,440a <raw_sendto>
    4494:	dc1fb06f          	j	254 <__riscv_restore_0>

00004498 <raw_new>:
raw_new():
    4498:	d99fb2ef          	jal	t0,230 <__riscv_save_0>
    449c:	84aa                	mv	s1,a0
    449e:	4501                	li	a0,0
    44a0:	a0dff0ef          	jal	ra,3eac <memp_malloc>
    44a4:	842a                	mv	s0,a0
    44a6:	cd11                	beqz	a0,44c2 <raw_new+0x2a>
    44a8:	4671                	li	a2,28
    44aa:	4581                	li	a1,0
    44ac:	db5fb0ef          	jal	ra,260 <memset>
    44b0:	f8000793          	li	a5,-128
    44b4:	b43c                	fsd	fa5,104(s0)
    44b6:	8d018793          	addi	a5,gp,-1840 # 200000e0 <raw_pcbs>
    44ba:	4398                	lw	a4,0(a5)
    44bc:	a804                	fsd	fs1,16(s0)
    44be:	c380                	sw	s0,0(a5)
    44c0:	c458                	sw	a4,12(s0)
    44c2:	8522                	mv	a0,s0
    44c4:	d91fb06f          	j	254 <__riscv_restore_0>

000044c8 <tcp_new_port>:
tcp_new_port():
    44c8:	8d41a683          	lw	a3,-1836(gp) # 200000e4 <tcp_active_pcbs>
    44cc:	8ec1a603          	lw	a2,-1812(gp) # 200000fc <tcp_tw_pcbs>
    44d0:	8dc1a583          	lw	a1,-1828(gp) # 200000ec <tcp_listen_pcbs>
    44d4:	82c1d503          	lhu	a0,-2004(gp) # 2000003c <port.6623>
    44d8:	82c18793          	addi	a5,gp,-2004 # 2000003c <port.6623>
    44dc:	00150713          	addi	a4,a0,1
    44e0:	01071513          	slli	a0,a4,0x10
    44e4:	01071813          	slli	a6,a4,0x10
    44e8:	8141                	srli	a0,a0,0x10
    44ea:	00085363          	bgez	a6,44f0 <tcp_new_port+0x28>
    44ee:	6505                	lui	a0,0x1
    44f0:	8736                	mv	a4,a3
    44f2:	e719                	bnez	a4,4500 <tcp_new_port+0x38>
    44f4:	8732                	mv	a4,a2
    44f6:	eb19                	bnez	a4,450c <tcp_new_port+0x44>
    44f8:	872e                	mv	a4,a1
    44fa:	ef19                	bnez	a4,4518 <tcp_new_port+0x50>
    44fc:	a38a                	fsd	ft2,448(sp)
    44fe:	8082                	ret
    4500:	01c75803          	lhu	a6,28(a4)
    4504:	fca80ce3          	beq	a6,a0,44dc <tcp_new_port+0x14>
    4508:	4758                	lw	a4,12(a4)
    450a:	b7e5                	j	44f2 <tcp_new_port+0x2a>
    450c:	01c75803          	lhu	a6,28(a4)
    4510:	fca806e3          	beq	a6,a0,44dc <tcp_new_port+0x14>
    4514:	4758                	lw	a4,12(a4)
    4516:	b7c5                	j	44f6 <tcp_new_port+0x2e>
    4518:	01c75803          	lhu	a6,28(a4)
    451c:	fca800e3          	beq	a6,a0,44dc <tcp_new_port+0x14>
    4520:	4758                	lw	a4,12(a4)
    4522:	bfe1                	j	44fa <tcp_new_port+0x32>

00004524 <tcp_bind>:
tcp_bind():
    4524:	491c                	lw	a5,16(a0)
    4526:	10079663          	bnez	a5,4632 <tcp_bind+0x10e>
    452a:	cedfb2ef          	jal	t0,216 <__riscv_save_4>
    452e:	1141                	addi	sp,sp,-16
    4530:	84aa                	mv	s1,a0
    4532:	8432                	mv	s0,a2
    4534:	e611                	bnez	a2,4540 <tcp_bind+0x1c>
    4536:	c62e                	sw	a1,12(sp)
    4538:	f91ff0ef          	jal	ra,44c8 <tcp_new_port>
    453c:	45b2                	lw	a1,12(sp)
    453e:	842a                	mv	s0,a0
    4540:	8dc1a703          	lw	a4,-1828(gp) # 200000ec <tcp_listen_pcbs>
    4544:	e731                	bnez	a4,4590 <tcp_bind+0x6c>
    4546:	8d41a703          	lw	a4,-1836(gp) # 200000e4 <tcp_active_pcbs>
    454a:	eb25                	bnez	a4,45ba <tcp_bind+0x96>
    454c:	8d81a983          	lw	s3,-1832(gp) # 200000e8 <tcp_bound_pcbs>
    4550:	8d818913          	addi	s2,gp,-1832 # 200000e8 <tcp_bound_pcbs>
    4554:	874e                	mv	a4,s3
    4556:	e759                	bnez	a4,45e4 <tcp_bind+0xc0>
    4558:	8ec1a783          	lw	a5,-1812(gp) # 200000fc <tcp_tw_pcbs>
    455c:	ebcd                	bnez	a5,460e <tcp_bind+0xea>
    455e:	c185                	beqz	a1,457e <tcp_bind+0x5a>
    4560:	3198                	fld	fa4,32(a1)
    4562:	219c                	fld	fa5,0(a1)
    4564:	0722                	slli	a4,a4,0x8
    4566:	8f5d                	or	a4,a4,a5
    4568:	21bc                	fld	fa5,64(a1)
    456a:	07c2                	slli	a5,a5,0x10
    456c:	8f5d                	or	a4,a4,a5
    456e:	31bc                	fld	fa5,96(a1)
    4570:	07e2                	slli	a5,a5,0x18
    4572:	8fd9                	or	a5,a5,a4
    4574:	c789                	beqz	a5,457e <tcp_bind+0x5a>
    4576:	4611                	li	a2,4
    4578:	8526                	mv	a0,s1
    457a:	5d3030ef          	jal	ra,834c <memcpy>
    457e:	acc2                	fsd	fa6,88(sp)
    4580:	0134a623          	sw	s3,12(s1)
    4584:	00992023          	sw	s1,0(s2)
    4588:	4501                	li	a0,0
    458a:	0141                	addi	sp,sp,16
    458c:	cbffb06f          	j	24a <__riscv_restore_4>
    4590:	2f5e                	fld	ft10,464(sp)
    4592:	02879263          	bne	a5,s0,45b6 <tcp_bind+0x92>
    4596:	4310                	lw	a2,0(a4)
    4598:	ce59                	beqz	a2,4636 <tcp_bind+0x112>
    459a:	cdd1                	beqz	a1,4636 <tcp_bind+0x112>
    459c:	3194                	fld	fa3,32(a1)
    459e:	219c                	fld	fa5,0(a1)
    45a0:	06a2                	slli	a3,a3,0x8
    45a2:	8edd                	or	a3,a3,a5
    45a4:	21bc                	fld	fa5,64(a1)
    45a6:	07c2                	slli	a5,a5,0x10
    45a8:	8edd                	or	a3,a3,a5
    45aa:	31bc                	fld	fa5,96(a1)
    45ac:	07e2                	slli	a5,a5,0x18
    45ae:	8fd5                	or	a5,a5,a3
    45b0:	c3d9                	beqz	a5,4636 <tcp_bind+0x112>
    45b2:	08f60263          	beq	a2,a5,4636 <tcp_bind+0x112>
    45b6:	4758                	lw	a4,12(a4)
    45b8:	b771                	j	4544 <tcp_bind+0x20>
    45ba:	2f5e                	fld	ft10,464(sp)
    45bc:	02879263          	bne	a5,s0,45e0 <tcp_bind+0xbc>
    45c0:	4310                	lw	a2,0(a4)
    45c2:	ca35                	beqz	a2,4636 <tcp_bind+0x112>
    45c4:	c9ad                	beqz	a1,4636 <tcp_bind+0x112>
    45c6:	3194                	fld	fa3,32(a1)
    45c8:	219c                	fld	fa5,0(a1)
    45ca:	06a2                	slli	a3,a3,0x8
    45cc:	8edd                	or	a3,a3,a5
    45ce:	21bc                	fld	fa5,64(a1)
    45d0:	07c2                	slli	a5,a5,0x10
    45d2:	8edd                	or	a3,a3,a5
    45d4:	31bc                	fld	fa5,96(a1)
    45d6:	07e2                	slli	a5,a5,0x18
    45d8:	8fd5                	or	a5,a5,a3
    45da:	cfb1                	beqz	a5,4636 <tcp_bind+0x112>
    45dc:	04f60d63          	beq	a2,a5,4636 <tcp_bind+0x112>
    45e0:	4758                	lw	a4,12(a4)
    45e2:	b7a5                	j	454a <tcp_bind+0x26>
    45e4:	2f5e                	fld	ft10,464(sp)
    45e6:	02879263          	bne	a5,s0,460a <tcp_bind+0xe6>
    45ea:	4310                	lw	a2,0(a4)
    45ec:	c629                	beqz	a2,4636 <tcp_bind+0x112>
    45ee:	c5a1                	beqz	a1,4636 <tcp_bind+0x112>
    45f0:	3194                	fld	fa3,32(a1)
    45f2:	219c                	fld	fa5,0(a1)
    45f4:	06a2                	slli	a3,a3,0x8
    45f6:	8edd                	or	a3,a3,a5
    45f8:	21bc                	fld	fa5,64(a1)
    45fa:	07c2                	slli	a5,a5,0x10
    45fc:	8edd                	or	a3,a3,a5
    45fe:	31bc                	fld	fa5,96(a1)
    4600:	07e2                	slli	a5,a5,0x18
    4602:	8fd5                	or	a5,a5,a3
    4604:	cb8d                	beqz	a5,4636 <tcp_bind+0x112>
    4606:	02f60863          	beq	a2,a5,4636 <tcp_bind+0x112>
    460a:	4758                	lw	a4,12(a4)
    460c:	b7a9                	j	4556 <tcp_bind+0x32>
    460e:	2fda                	fld	ft11,400(sp)
    4610:	00871f63          	bne	a4,s0,462e <tcp_bind+0x10a>
    4614:	3194                	fld	fa3,32(a1)
    4616:	2198                	fld	fa4,0(a1)
    4618:	06a2                	slli	a3,a3,0x8
    461a:	8ed9                	or	a3,a3,a4
    461c:	21b8                	fld	fa4,64(a1)
    461e:	0742                	slli	a4,a4,0x10
    4620:	8ed9                	or	a3,a3,a4
    4622:	31b8                	fld	fa4,96(a1)
    4624:	0762                	slli	a4,a4,0x18
    4626:	8f55                	or	a4,a4,a3
    4628:	4394                	lw	a3,0(a5)
    462a:	00e68663          	beq	a3,a4,4636 <tcp_bind+0x112>
    462e:	47dc                	lw	a5,12(a5)
    4630:	b735                	j	455c <tcp_bind+0x38>
    4632:	554d                	li	a0,-13
    4634:	8082                	ret
    4636:	5555                	li	a0,-11
    4638:	bf89                	j	458a <tcp_bind+0x66>

0000463a <tcp_update_rcv_ann_wnd>:
tcp_update_rcv_ann_wnd():
    463a:	87aa                	mv	a5,a0
    463c:	354e                	fld	fa0,240(sp)
    463e:	5914                	lw	a3,48(a0)
    4640:	9701a703          	lw	a4,-1680(gp) # 20000180 <WCHCfg+0x4>
    4644:	5510                	lw	a2,40(a0)
    4646:	03c7d803          	lhu	a6,60(a5)
    464a:	40d58533          	sub	a0,a1,a3
    464e:	8305                	srli	a4,a4,0x1
    4650:	9532                	add	a0,a0,a2
    4652:	00e87363          	bgeu	a6,a4,4658 <tcp_update_rcv_ann_wnd+0x1e>
    4656:	8742                	mv	a4,a6
    4658:	40e50733          	sub	a4,a0,a4
    465c:	00074463          	bltz	a4,4664 <tcp_update_rcv_ann_wnd+0x2a>
    4660:	b7ee                	fsd	fs11,488(sp)
    4662:	8082                	ret
    4664:	40d60733          	sub	a4,a2,a3
    4668:	00e05663          	blez	a4,4674 <tcp_update_rcv_ann_wnd+0x3a>
    466c:	02079723          	sh	zero,46(a5)
    4670:	4501                	li	a0,0
    4672:	8082                	ret
    4674:	8e91                	sub	a3,a3,a2
    4676:	b7f6                	fsd	ft9,488(sp)
    4678:	bfe5                	j	4670 <tcp_update_rcv_ann_wnd+0x36>

0000467a <tcp_recved>:
tcp_recved():
    467a:	bb7fb2ef          	jal	t0,230 <__riscv_save_0>
    467e:	355e                	fld	fa0,496(sp)
    4680:	842a                	mv	s0,a0
    4682:	95be                	add	a1,a1,a5
    4684:	96c18713          	addi	a4,gp,-1684 # 2000017c <WCHCfg>
    4688:	05c2                	slli	a1,a1,0x10
    468a:	4358                	lw	a4,4(a4)
    468c:	81c1                	srli	a1,a1,0x10
    468e:	b54e                	fsd	fs3,168(sp)
    4690:	96c18493          	addi	s1,gp,-1684 # 2000017c <WCHCfg>
    4694:	00b77363          	bgeu	a4,a1,469a <tcp_recved+0x20>
    4698:	b55a                	fsd	fs6,168(sp)
    469a:	8522                	mv	a0,s0
    469c:	f9fff0ef          	jal	ra,463a <tcp_update_rcv_ann_wnd>
    46a0:	40dc                	lw	a5,4(s1)
    46a2:	8389                	srli	a5,a5,0x2
    46a4:	00f56b63          	bltu	a0,a5,46ba <tcp_recved+0x40>
    46a8:	02644783          	lbu	a5,38(s0)
    46ac:	8522                	mv	a0,s0
    46ae:	0027e793          	ori	a5,a5,2
    46b2:	02f40323          	sb	a5,38(s0)
    46b6:	1fe020ef          	jal	ra,68b4 <tcp_output>
    46ba:	b9bfb06f          	j	254 <__riscv_restore_0>

000046be <tcp_seg_free>:
tcp_seg_free():
    46be:	b73fb2ef          	jal	t0,230 <__riscv_save_0>
    46c2:	1141                	addi	sp,sp,-16
    46c4:	4401                	li	s0,0
    46c6:	cd09                	beqz	a0,46e0 <tcp_seg_free+0x22>
    46c8:	85aa                	mv	a1,a0
    46ca:	4148                	lw	a0,4(a0)
    46cc:	4401                	li	s0,0
    46ce:	c511                	beqz	a0,46da <tcp_seg_free+0x1c>
    46d0:	c62e                	sw	a1,12(sp)
    46d2:	9c5ff0ef          	jal	ra,4096 <pbuf_free>
    46d6:	45b2                	lw	a1,12(sp)
    46d8:	842a                	mv	s0,a0
    46da:	4511                	li	a0,4
    46dc:	fecff0ef          	jal	ra,3ec8 <memp_free>
    46e0:	8522                	mv	a0,s0
    46e2:	0141                	addi	sp,sp,16
    46e4:	b71fb06f          	j	254 <__riscv_restore_0>

000046e8 <tcp_segs_free>:
tcp_segs_free():
    46e8:	b49fb2ef          	jal	t0,230 <__riscv_save_0>
    46ec:	4401                	li	s0,0
    46ee:	e501                	bnez	a0,46f6 <tcp_segs_free+0xe>
    46f0:	8522                	mv	a0,s0
    46f2:	b63fb06f          	j	254 <__riscv_restore_0>
    46f6:	4104                	lw	s1,0(a0)
    46f8:	fc7ff0ef          	jal	ra,46be <tcp_seg_free>
    46fc:	942a                	add	s0,s0,a0
    46fe:	0ff47413          	andi	s0,s0,255
    4702:	8526                	mv	a0,s1
    4704:	b7ed                	j	46ee <tcp_segs_free+0x6>

00004706 <tcp_seg_copy>:
tcp_seg_copy():
    4706:	b2bfb2ef          	jal	t0,230 <__riscv_save_0>
    470a:	1141                	addi	sp,sp,-16
    470c:	c62a                	sw	a0,12(sp)
    470e:	4511                	li	a0,4
    4710:	f9cff0ef          	jal	ra,3eac <memp_malloc>
    4714:	842a                	mv	s0,a0
    4716:	c901                	beqz	a0,4726 <tcp_seg_copy+0x20>
    4718:	45b2                	lw	a1,12(sp)
    471a:	4651                	li	a2,20
    471c:	431030ef          	jal	ra,834c <memcpy>
    4720:	4048                	lw	a0,4(s0)
    4722:	b69ff0ef          	jal	ra,428a <pbuf_ref>
    4726:	8522                	mv	a0,s0
    4728:	0141                	addi	sp,sp,16
    472a:	b2bfb06f          	j	254 <__riscv_restore_0>

0000472e <tcp_arg>:
tcp_arg():
    472e:	cd0c                	sw	a1,24(a0)
    4730:	8082                	ret

00004732 <tcp_recv>:
tcp_recv():
    4732:	08b52623          	sw	a1,140(a0) # 108c <TIM_TimeBaseInit+0x24>
    4736:	8082                	ret

00004738 <tcp_sent>:
tcp_sent():
    4738:	08b52423          	sw	a1,136(a0)
    473c:	8082                	ret

0000473e <tcp_err>:
tcp_err():
    473e:	08b52c23          	sw	a1,152(a0)
    4742:	8082                	ret

00004744 <tcp_poll>:
tcp_poll():
    4744:	08b52a23          	sw	a1,148(a0)
    4748:	02c50ca3          	sb	a2,57(a0)
    474c:	8082                	ret

0000474e <tcp_pcb_purge>:
tcp_pcb_purge():
    474e:	491c                	lw	a5,16(a0)
    4750:	4705                	li	a4,1
    4752:	04f77363          	bgeu	a4,a5,4798 <tcp_pcb_purge+0x4a>
    4756:	4729                	li	a4,10
    4758:	04e78063          	beq	a5,a4,4798 <tcp_pcb_purge+0x4a>
    475c:	ad5fb2ef          	jal	t0,230 <__riscv_save_0>
    4760:	842a                	mv	s0,a0
    4762:	08452503          	lw	a0,132(a0)
    4766:	c509                	beqz	a0,4770 <tcp_pcb_purge+0x22>
    4768:	92fff0ef          	jal	ra,4096 <pbuf_free>
    476c:	08042223          	sw	zero,132(s0)
    4770:	08042503          	lw	a0,128(s0)
    4774:	57fd                	li	a5,-1
    4776:	bc3e                	fsd	fa5,56(sp)
    4778:	f71ff0ef          	jal	ra,46e8 <tcp_segs_free>
    477c:	5c28                	lw	a0,120(s0)
    477e:	08042023          	sw	zero,128(s0)
    4782:	f67ff0ef          	jal	ra,46e8 <tcp_segs_free>
    4786:	5c68                	lw	a0,124(s0)
    4788:	f61ff0ef          	jal	ra,46e8 <tcp_segs_free>
    478c:	06042c23          	sw	zero,120(s0)
    4790:	06042e23          	sw	zero,124(s0)
    4794:	ac1fb06f          	j	254 <__riscv_restore_0>
    4798:	8082                	ret

0000479a <tcp_slowtmr>:
tcp_slowtmr():
    479a:	a67fb2ef          	jal	t0,200 <__riscv_save_12>
    479e:	8e018713          	addi	a4,gp,-1824 # 200000f0 <tcp_ticks>
    47a2:	9401cc83          	lbu	s9,-1728(gp) # 20000150 <NetInf+0x18>
    47a6:	431c                	lw	a5,0(a4)
    47a8:	6b21                	lui	s6,0x8
    47aa:	0785                	addi	a5,a5,1
    47ac:	8d41a403          	lw	s0,-1836(gp) # 200000e4 <tcp_active_pcbs>
    47b0:	c31c                	sw	a5,0(a4)
    47b2:	06600993          	li	s3,102
    47b6:	4a81                	li	s5,0
    47b8:	8e018913          	addi	s2,gp,-1824 # 200000f0 <tcp_ticks>
    47bc:	8d418a13          	addi	s4,gp,-1836 # 200000e4 <tcp_active_pcbs>
    47c0:	4d09                	li	s10,2
    47c2:	598b0b13          	addi	s6,s6,1432 # 8598 <tcp_backoff>
    47c6:	84c18b93          	addi	s7,gp,-1972 # 2000005c <tcp_persist_backoff>
    47ca:	4c19                	li	s8,6
    47cc:	e809                	bnez	s0,47de <tcp_slowtmr+0x44>
    47ce:	8ec1a403          	lw	s0,-1812(gp) # 200000fc <tcp_tw_pcbs>
    47d2:	8ec18493          	addi	s1,gp,-1812 # 200000fc <tcp_tw_pcbs>
    47d6:	20041a63          	bnez	s0,49ea <tcp_slowtmr+0x250>
    47da:	a63fb06f          	j	23c <__riscv_restore_12>
    47de:	19fd                	addi	s3,s3,-1
    47e0:	0ff9f993          	andi	s3,s3,255
    47e4:	fe098be3          	beqz	s3,47da <tcp_slowtmr+0x40>
    47e8:	04e44703          	lbu	a4,78(s0)
    47ec:	4814                	lw	a3,16(s0)
    47ee:	4485                	li	s1,1
    47f0:	02ec8263          	beq	s9,a4,4814 <tcp_slowtmr+0x7a>
    47f4:	0ac44483          	lbu	s1,172(s0)
    47f8:	10048863          	beqz	s1,4908 <tcp_slowtmr+0x16e>
    47fc:	0a842783          	lw	a5,168(s0)
    4800:	009b8733          	add	a4,s7,s1
    4804:	fff74703          	lbu	a4,-1(a4)
    4808:	0785                	addi	a5,a5,1
    480a:	0af42423          	sw	a5,168(s0)
    480e:	0ee7f263          	bgeu	a5,a4,48f2 <tcp_slowtmr+0x158>
    4812:	4481                	li	s1,0
    4814:	481c                	lw	a5,16(s0)
    4816:	01879c63          	bne	a5,s8,482e <tcp_slowtmr+0x94>
    481a:	5854                	lw	a3,52(s0)
    481c:	00092703          	lw	a4,0(s2)
    4820:	8f15                	sub	a4,a4,a3
    4822:	46d1                	li	a3,20
    4824:	00e6f563          	bgeu	a3,a4,482e <tcp_slowtmr+0x94>
    4828:	0485                	addi	s1,s1,1
    482a:	0ff4f493          	andi	s1,s1,255
    482e:	241a                	fld	fs0,384(sp)
    4830:	4d81                	li	s11,0
    4832:	8b21                	andi	a4,a4,8
    4834:	cf15                	beqz	a4,4870 <tcp_slowtmr+0xd6>
    4836:	4711                	li	a4,4
    4838:	00e78563          	beq	a5,a4,4842 <tcp_slowtmr+0xa8>
    483c:	471d                	li	a4,7
    483e:	02e79963          	bne	a5,a4,4870 <tcp_slowtmr+0xd6>
    4842:	0a042503          	lw	a0,160(s0)
    4846:	0a442703          	lw	a4,164(s0)
    484a:	09c42583          	lw	a1,156(s0)
    484e:	3e800613          	li	a2,1000
    4852:	02e50733          	mul	a4,a0,a4
    4856:	00092683          	lw	a3,0(s2)
    485a:	585c                	lw	a5,52(s0)
    485c:	8e9d                	sub	a3,a3,a5
    485e:	972e                	add	a4,a4,a1
    4860:	02c75733          	divu	a4,a4,a2
    4864:	10d77863          	bgeu	a4,a3,4974 <tcp_slowtmr+0x1da>
    4868:	0485                	addi	s1,s1,1
    486a:	0ff4f493          	andi	s1,s1,255
    486e:	4d85                	li	s11,1
    4870:	08042503          	lw	a0,128(s0)
    4874:	cd19                	beqz	a0,4892 <tcp_slowtmr+0xf8>
    4876:	585c                	lw	a5,52(s0)
    4878:	00092703          	lw	a4,0(s2)
    487c:	8f1d                	sub	a4,a4,a5
    487e:	04c41783          	lh	a5,76(s0)
    4882:	038787b3          	mul	a5,a5,s8
    4886:	00f76663          	bltu	a4,a5,4892 <tcp_slowtmr+0xf8>
    488a:	e5fff0ef          	jal	ra,46e8 <tcp_segs_free>
    488e:	08042023          	sw	zero,128(s0)
    4892:	481c                	lw	a5,16(s0)
    4894:	470d                	li	a4,3
    4896:	10e79263          	bne	a5,a4,499a <tcp_slowtmr+0x200>
    489a:	5858                	lw	a4,52(s0)
    489c:	00092783          	lw	a5,0(s2)
    48a0:	8f99                	sub	a5,a5,a4
    48a2:	4751                	li	a4,20
    48a4:	00f76463          	bltu	a4,a5,48ac <tcp_slowtmr+0x112>
    48a8:	10048663          	beqz	s1,49b4 <tcp_slowtmr+0x21a>
    48ac:	8522                	mv	a0,s0
    48ae:	8fbfd0ef          	jal	ra,21a8 <LwipRemoveTcpPcb>
    48b2:	8522                	mv	a0,s0
    48b4:	e9bff0ef          	jal	ra,474e <tcp_pcb_purge>
    48b8:	445c                	lw	a5,12(s0)
    48ba:	0e0a8a63          	beqz	s5,49ae <tcp_slowtmr+0x214>
    48be:	00faa623          	sw	a5,12(s5)
    48c2:	09842783          	lw	a5,152(s0)
    48c6:	c781                	beqz	a5,48ce <tcp_slowtmr+0x134>
    48c8:	4c08                	lw	a0,24(s0)
    48ca:	55ed                	li	a1,-5
    48cc:	9782                	jalr	a5
    48ce:	000d8b63          	beqz	s11,48e4 <tcp_slowtmr+0x14a>
    48d2:	305e                	fld	ft0,496(sp)
    48d4:	2c5a                	fld	fs8,400(sp)
    48d6:	540c                	lw	a1,40(s0)
    48d8:	4c68                	lw	a0,92(s0)
    48da:	00440693          	addi	a3,s0,4
    48de:	8622                	mv	a2,s0
    48e0:	32a020ef          	jal	ra,6c0a <tcp_rst>
    48e4:	4444                	lw	s1,12(s0)
    48e6:	85a2                	mv	a1,s0
    48e8:	4509                	li	a0,2
    48ea:	ddeff0ef          	jal	ra,3ec8 <memp_free>
    48ee:	8426                	mv	s0,s1
    48f0:	bdf1                	j	47cc <tcp_slowtmr+0x32>
    48f2:	0a042423          	sw	zero,168(s0)
    48f6:	009c6563          	bltu	s8,s1,4900 <tcp_slowtmr+0x166>
    48fa:	0485                	addi	s1,s1,1
    48fc:	0a940623          	sb	s1,172(s0)
    4900:	8522                	mv	a0,s0
    4902:	574020ef          	jal	ra,6e76 <tcp_zero_window_probe>
    4906:	b731                	j	4812 <tcp_slowtmr+0x78>
    4908:	03a41783          	lh	a5,58(s0)
    490c:	0007c463          	bltz	a5,4914 <tcp_slowtmr+0x17a>
    4910:	0785                	addi	a5,a5,1
    4912:	bc3e                	fsd	fa5,56(sp)
    4914:	5c7c                	lw	a5,124(s0)
    4916:	ee078ee3          	beqz	a5,4812 <tcp_slowtmr+0x78>
    491a:	03a41783          	lh	a5,58(s0)
    491e:	eef05ae3          	blez	a5,4812 <tcp_slowtmr+0x78>
    4922:	01a68e63          	beq	a3,s10,493e <tcp_slowtmr+0x1a4>
    4926:	04841783          	lh	a5,72(s0)
    492a:	04a41683          	lh	a3,74(s0)
    492e:	975a                	add	a4,a4,s6
    4930:	2318                	fld	fa4,0(a4)
    4932:	878d                	srai	a5,a5,0x3
    4934:	97b6                	add	a5,a5,a3
    4936:	00e797b3          	sll	a5,a5,a4
    493a:	04f41623          	sh	a5,76(s0)
    493e:	05645703          	lhu	a4,86(s0)
    4942:	06045783          	lhu	a5,96(s0)
    4946:	02041d23          	sh	zero,58(s0)
    494a:	00f77363          	bgeu	a4,a5,4950 <tcp_slowtmr+0x1b6>
    494e:	87ba                	mv	a5,a4
    4950:	07c2                	slli	a5,a5,0x10
    4952:	83c1                	srli	a5,a5,0x10
    4954:	3c5a                	fld	fs8,432(sp)
    4956:	8385                	srli	a5,a5,0x1
    4958:	04f41c23          	sh	a5,88(s0)
    495c:	00e7f663          	bgeu	a5,a4,4968 <tcp_slowtmr+0x1ce>
    4960:	00171793          	slli	a5,a4,0x1
    4964:	04f41c23          	sh	a5,88(s0)
    4968:	04e41b23          	sh	a4,86(s0)
    496c:	8522                	mv	a0,s0
    496e:	3a0020ef          	jal	ra,6d0e <tcp_rexmit_rto>
    4972:	b54d                	j	4814 <tcp_slowtmr+0x7a>
    4974:	0ad44783          	lbu	a5,173(s0)
    4978:	4d81                	li	s11,0
    497a:	02a787b3          	mul	a5,a5,a0
    497e:	97ae                	add	a5,a5,a1
    4980:	02c7d7b3          	divu	a5,a5,a2
    4984:	eed7f6e3          	bgeu	a5,a3,4870 <tcp_slowtmr+0xd6>
    4988:	8522                	mv	a0,s0
    498a:	48e020ef          	jal	ra,6e18 <tcp_keepalive>
    498e:	0ad44783          	lbu	a5,173(s0)
    4992:	0785                	addi	a5,a5,1
    4994:	0af406a3          	sb	a5,173(s0)
    4998:	bde1                	j	4870 <tcp_slowtmr+0xd6>
    499a:	4725                	li	a4,9
    499c:	f0e796e3          	bne	a5,a4,48a8 <tcp_slowtmr+0x10e>
    49a0:	5858                	lw	a4,52(s0)
    49a2:	00092783          	lw	a5,0(s2)
    49a6:	8f99                	sub	a5,a5,a4
    49a8:	07800713          	li	a4,120
    49ac:	bde5                	j	48a4 <tcp_slowtmr+0x10a>
    49ae:	00fa2023          	sw	a5,0(s4)
    49b2:	bf01                	j	48c2 <tcp_slowtmr+0x128>
    49b4:	03844783          	lbu	a5,56(s0)
    49b8:	03944703          	lbu	a4,57(s0)
    49bc:	0785                	addi	a5,a5,1
    49be:	0ff7f793          	andi	a5,a5,255
    49c2:	02f40c23          	sb	a5,56(s0)
    49c6:	00e7ea63          	bltu	a5,a4,49da <tcp_slowtmr+0x240>
    49ca:	09442783          	lw	a5,148(s0)
    49ce:	02040c23          	sb	zero,56(s0)
    49d2:	e799                	bnez	a5,49e0 <tcp_slowtmr+0x246>
    49d4:	8522                	mv	a0,s0
    49d6:	6df010ef          	jal	ra,68b4 <tcp_output>
    49da:	8aa2                	mv	s5,s0
    49dc:	4440                	lw	s0,12(s0)
    49de:	b3fd                	j	47cc <tcp_slowtmr+0x32>
    49e0:	4c08                	lw	a0,24(s0)
    49e2:	85a2                	mv	a1,s0
    49e4:	9782                	jalr	a5
    49e6:	d57d                	beqz	a0,49d4 <tcp_slowtmr+0x23a>
    49e8:	bfcd                	j	49da <tcp_slowtmr+0x240>
    49ea:	8522                	mv	a0,s0
    49ec:	fbcfd0ef          	jal	ra,21a8 <LwipRemoveTcpPcb>
    49f0:	8522                	mv	a0,s0
    49f2:	d5dff0ef          	jal	ra,474e <tcp_pcb_purge>
    49f6:	00c42903          	lw	s2,12(s0)
    49fa:	85a2                	mv	a1,s0
    49fc:	4509                	li	a0,2
    49fe:	0124a023          	sw	s2,0(s1)
    4a02:	844a                	mv	s0,s2
    4a04:	cc4ff0ef          	jal	ra,3ec8 <memp_free>
    4a08:	b3f9                	j	47d6 <tcp_slowtmr+0x3c>

00004a0a <RemoveTimeWaiTCP>:
RemoveTimeWaiTCP():
    4a0a:	827fb2ef          	jal	t0,230 <__riscv_save_0>
    4a0e:	8ec1a403          	lw	s0,-1812(gp) # 200000fc <tcp_tw_pcbs>
    4a12:	8ec18493          	addi	s1,gp,-1812 # 200000fc <tcp_tw_pcbs>
    4a16:	e019                	bnez	s0,4a1c <RemoveTimeWaiTCP+0x12>
    4a18:	83dfb06f          	j	254 <__riscv_restore_0>
    4a1c:	8522                	mv	a0,s0
    4a1e:	f8afd0ef          	jal	ra,21a8 <LwipRemoveTcpPcb>
    4a22:	8522                	mv	a0,s0
    4a24:	d2bff0ef          	jal	ra,474e <tcp_pcb_purge>
    4a28:	00c42903          	lw	s2,12(s0)
    4a2c:	85a2                	mv	a1,s0
    4a2e:	4509                	li	a0,2
    4a30:	0124a023          	sw	s2,0(s1)
    4a34:	844a                	mv	s0,s2
    4a36:	c92ff0ef          	jal	ra,3ec8 <memp_free>
    4a3a:	bff1                	j	4a16 <RemoveTimeWaiTCP+0xc>

00004a3c <tcp_pcb_remove>:
tcp_pcb_remove():
    4a3c:	ff4fb2ef          	jal	t0,230 <__riscv_save_0>
    4a40:	411c                	lw	a5,0(a0)
    4a42:	842e                	mv	s0,a1
    4a44:	04b79063          	bne	a5,a1,4a84 <tcp_pcb_remove+0x48>
    4a48:	45dc                	lw	a5,12(a1)
    4a4a:	c11c                	sw	a5,0(a0)
    4a4c:	00042623          	sw	zero,12(s0)
    4a50:	8522                	mv	a0,s0
    4a52:	cfdff0ef          	jal	ra,474e <tcp_pcb_purge>
    4a56:	481c                	lw	a5,16(s0)
    4a58:	4729                	li	a4,10
    4a5a:	02e78163          	beq	a5,a4,4a7c <tcp_pcb_remove+0x40>
    4a5e:	4705                	li	a4,1
    4a60:	00e78e63          	beq	a5,a4,4a7c <tcp_pcb_remove+0x40>
    4a64:	02644783          	lbu	a5,38(s0)
    4a68:	0017f713          	andi	a4,a5,1
    4a6c:	cb01                	beqz	a4,4a7c <tcp_pcb_remove+0x40>
    4a6e:	0027e793          	ori	a5,a5,2
    4a72:	02f40323          	sb	a5,38(s0)
    4a76:	8522                	mv	a0,s0
    4a78:	63d010ef          	jal	ra,68b4 <tcp_output>
    4a7c:	00042823          	sw	zero,16(s0)
    4a80:	fd4fb06f          	j	254 <__riscv_restore_0>
    4a84:	8ef1a423          	sw	a5,-1816(gp) # 200000f8 <tcp_tmp_pcb>
    4a88:	4681                	li	a3,0
    4a8a:	8e818713          	addi	a4,gp,-1816 # 200000f8 <tcp_tmp_pcb>
    4a8e:	e789                	bnez	a5,4a98 <tcp_pcb_remove+0x5c>
    4a90:	ded5                	beqz	a3,4a4c <tcp_pcb_remove+0x10>
    4a92:	00072023          	sw	zero,0(a4)
    4a96:	bf5d                	j	4a4c <tcp_pcb_remove+0x10>
    4a98:	47d0                	lw	a2,12(a5)
    4a9a:	00861763          	bne	a2,s0,4aa8 <tcp_pcb_remove+0x6c>
    4a9e:	c291                	beqz	a3,4aa2 <tcp_pcb_remove+0x66>
    4aa0:	c31c                	sw	a5,0(a4)
    4aa2:	4458                	lw	a4,12(s0)
    4aa4:	c7d8                	sw	a4,12(a5)
    4aa6:	b75d                	j	4a4c <tcp_pcb_remove+0x10>
    4aa8:	4685                	li	a3,1
    4aaa:	87b2                	mv	a5,a2
    4aac:	b7cd                	j	4a8e <tcp_pcb_remove+0x52>

00004aae <tcp_close>:
tcp_close():
    4aae:	491c                	lw	a5,16(a0)
    4ab0:	471d                	li	a4,7
    4ab2:	0af76563          	bltu	a4,a5,4b5c <tcp_close+0xae>
    4ab6:	f7afb2ef          	jal	t0,230 <__riscv_save_0>
    4aba:	6721                	lui	a4,0x8
    4abc:	078a                	slli	a5,a5,0x2
    4abe:	57870713          	addi	a4,a4,1400 # 8578 <ErrTable+0x30>
    4ac2:	97ba                	add	a5,a5,a4
    4ac4:	439c                	lw	a5,0(a5)
    4ac6:	842a                	mv	s0,a0
    4ac8:	8782                	jr	a5
    4aca:	edefd0ef          	jal	ra,21a8 <LwipRemoveTcpPcb>
    4ace:	8d818713          	addi	a4,gp,-1832 # 200000e8 <tcp_bound_pcbs>
    4ad2:	431c                	lw	a5,0(a4)
    4ad4:	00879963          	bne	a5,s0,4ae6 <tcp_close+0x38>
    4ad8:	445c                	lw	a5,12(s0)
    4ada:	c31c                	sw	a5,0(a4)
    4adc:	00042623          	sw	zero,12(s0)
    4ae0:	85a2                	mv	a1,s0
    4ae2:	4509                	li	a0,2
    4ae4:	a83d                	j	4b22 <tcp_close+0x74>
    4ae6:	8ef1a423          	sw	a5,-1816(gp) # 200000f8 <tcp_tmp_pcb>
    4aea:	4681                	li	a3,0
    4aec:	8e818713          	addi	a4,gp,-1816 # 200000f8 <tcp_tmp_pcb>
    4af0:	e789                	bnez	a5,4afa <tcp_close+0x4c>
    4af2:	d6ed                	beqz	a3,4adc <tcp_close+0x2e>
    4af4:	00072023          	sw	zero,0(a4)
    4af8:	b7d5                	j	4adc <tcp_close+0x2e>
    4afa:	47d0                	lw	a2,12(a5)
    4afc:	00861763          	bne	a2,s0,4b0a <tcp_close+0x5c>
    4b00:	c291                	beqz	a3,4b04 <tcp_close+0x56>
    4b02:	c31c                	sw	a5,0(a4)
    4b04:	4458                	lw	a4,12(s0)
    4b06:	c7d8                	sw	a4,12(a5)
    4b08:	bfd1                	j	4adc <tcp_close+0x2e>
    4b0a:	4685                	li	a3,1
    4b0c:	87b2                	mv	a5,a2
    4b0e:	b7cd                	j	4af0 <tcp_close+0x42>
    4b10:	e98fd0ef          	jal	ra,21a8 <LwipRemoveTcpPcb>
    4b14:	85a2                	mv	a1,s0
    4b16:	8dc18513          	addi	a0,gp,-1828 # 200000ec <tcp_listen_pcbs>
    4b1a:	f23ff0ef          	jal	ra,4a3c <tcp_pcb_remove>
    4b1e:	85a2                	mv	a1,s0
    4b20:	450d                	li	a0,3
    4b22:	ba6ff0ef          	jal	ra,3ec8 <memp_free>
    4b26:	4501                	li	a0,0
    4b28:	a831                	j	4b44 <tcp_close+0x96>
    4b2a:	e7efd0ef          	jal	ra,21a8 <LwipRemoveTcpPcb>
    4b2e:	85a2                	mv	a1,s0
    4b30:	8d418513          	addi	a0,gp,-1836 # 200000e4 <tcp_active_pcbs>
    4b34:	f09ff0ef          	jal	ra,4a3c <tcp_pcb_remove>
    4b38:	b765                	j	4ae0 <tcp_close+0x32>
    4b3a:	4585                	li	a1,1
    4b3c:	4c7010ef          	jal	ra,6802 <tcp_send_ctrl>
    4b40:	4795                	li	a5,5
    4b42:	c901                	beqz	a0,4b52 <tcp_close+0xa4>
    4b44:	f10fb06f          	j	254 <__riscv_restore_0>
    4b48:	4585                	li	a1,1
    4b4a:	4b9010ef          	jal	ra,6802 <tcp_send_ctrl>
    4b4e:	f97d                	bnez	a0,4b44 <tcp_close+0x96>
    4b50:	47a5                	li	a5,9
    4b52:	c81c                	sw	a5,16(s0)
    4b54:	8522                	mv	a0,s0
    4b56:	55f010ef          	jal	ra,68b4 <tcp_output>
    4b5a:	b7f1                	j	4b26 <tcp_close+0x78>
    4b5c:	4501                	li	a0,0
    4b5e:	8082                	ret

00004b60 <tcp_recv_null>:
tcp_recv_null():
    4b60:	ed0fb2ef          	jal	t0,230 <__riscv_save_0>
    4b64:	1141                	addi	sp,sp,-16
    4b66:	852e                	mv	a0,a1
    4b68:	ce11                	beqz	a2,4b84 <tcp_recv_null+0x24>
    4b6a:	260e                	fld	fa2,192(sp)
    4b6c:	c632                	sw	a2,12(sp)
    4b6e:	b0dff0ef          	jal	ra,467a <tcp_recved>
    4b72:	4632                	lw	a2,12(sp)
    4b74:	8532                	mv	a0,a2
    4b76:	d20ff0ef          	jal	ra,4096 <pbuf_free>
    4b7a:	4781                	li	a5,0
    4b7c:	853e                	mv	a0,a5
    4b7e:	0141                	addi	sp,sp,16
    4b80:	ed4fb06f          	j	254 <__riscv_restore_0>
    4b84:	4781                	li	a5,0
    4b86:	fafd                	bnez	a3,4b7c <tcp_recv_null+0x1c>
    4b88:	f27ff0ef          	jal	ra,4aae <tcp_close>
    4b8c:	87aa                	mv	a5,a0
    4b8e:	b7fd                	j	4b7c <tcp_recv_null+0x1c>

00004b90 <tcp_fasttmr>:
tcp_fasttmr():
    4b90:	ea0fb2ef          	jal	t0,230 <__riscv_save_0>
    4b94:	8d41a403          	lw	s0,-1836(gp) # 200000e4 <tcp_active_pcbs>
    4b98:	06500493          	li	s1,101
    4b9c:	e019                	bnez	s0,4ba2 <tcp_fasttmr+0x12>
    4b9e:	eb6fb06f          	j	254 <__riscv_restore_0>
    4ba2:	08442603          	lw	a2,132(s0)
    4ba6:	ca19                	beqz	a2,4bbc <tcp_fasttmr+0x2c>
    4ba8:	08c42783          	lw	a5,140(s0)
    4bac:	4681                	li	a3,0
    4bae:	85a2                	mv	a1,s0
    4bb0:	cf8d                	beqz	a5,4bea <tcp_fasttmr+0x5a>
    4bb2:	4c08                	lw	a0,24(s0)
    4bb4:	9782                	jalr	a5
    4bb6:	e119                	bnez	a0,4bbc <tcp_fasttmr+0x2c>
    4bb8:	08042223          	sw	zero,132(s0)
    4bbc:	14fd                	addi	s1,s1,-1
    4bbe:	0ff4f493          	andi	s1,s1,255
    4bc2:	dcf1                	beqz	s1,4b9e <tcp_fasttmr+0xe>
    4bc4:	02644783          	lbu	a5,38(s0)
    4bc8:	0017f713          	andi	a4,a5,1
    4bcc:	cf09                	beqz	a4,4be6 <tcp_fasttmr+0x56>
    4bce:	0027e793          	ori	a5,a5,2
    4bd2:	02f40323          	sb	a5,38(s0)
    4bd6:	8522                	mv	a0,s0
    4bd8:	4dd010ef          	jal	ra,68b4 <tcp_output>
    4bdc:	02644783          	lbu	a5,38(s0)
    4be0:	9bf1                	andi	a5,a5,-4
    4be2:	02f40323          	sb	a5,38(s0)
    4be6:	4440                	lw	s0,12(s0)
    4be8:	bf55                	j	4b9c <tcp_fasttmr+0xc>
    4bea:	4501                	li	a0,0
    4bec:	f75ff0ef          	jal	ra,4b60 <tcp_recv_null>
    4bf0:	b7d9                	j	4bb6 <tcp_fasttmr+0x26>

00004bf2 <tcp_tmr>:
tcp_tmr():
    4bf2:	e3efb2ef          	jal	t0,230 <__riscv_save_0>
    4bf6:	f9bff0ef          	jal	ra,4b90 <tcp_fasttmr>
    4bfa:	8e418713          	addi	a4,gp,-1820 # 200000f4 <tcp_timer>
    4bfe:	231c                	fld	fa5,0(a4)
    4c00:	0785                	addi	a5,a5,1
    4c02:	0ff7f793          	andi	a5,a5,255
    4c06:	a31c                	fsd	fa5,0(a4)
    4c08:	8b85                	andi	a5,a5,1
    4c0a:	c399                	beqz	a5,4c10 <tcp_tmr+0x1e>
    4c0c:	b8fff0ef          	jal	ra,479a <tcp_slowtmr>
    4c10:	e44fb06f          	j	254 <__riscv_restore_0>

00004c14 <tcp_abandon>:
tcp_abandon():
    4c14:	df4fb2ef          	jal	t0,208 <__riscv_save_10>
    4c18:	4918                	lw	a4,16(a0)
    4c1a:	47a9                	li	a5,10
    4c1c:	1141                	addi	sp,sp,-16
    4c1e:	842a                	mv	s0,a0
    4c20:	00f71e63          	bne	a4,a5,4c3c <tcp_abandon+0x28>
    4c24:	85aa                	mv	a1,a0
    4c26:	8ec18513          	addi	a0,gp,-1812 # 200000fc <tcp_tw_pcbs>
    4c2a:	e13ff0ef          	jal	ra,4a3c <tcp_pcb_remove>
    4c2e:	85a2                	mv	a1,s0
    4c30:	4509                	li	a0,2
    4c32:	a96ff0ef          	jal	ra,3ec8 <memp_free>
    4c36:	0141                	addi	sp,sp,16
    4c38:	e08fb06f          	j	240 <__riscv_restore_10>
    4c3c:	411c                	lw	a5,0(a0)
    4c3e:	8b2e                	mv	s6,a1
    4c40:	05c52903          	lw	s2,92(a0)
    4c44:	c63e                	sw	a5,12(sp)
    4c46:	415c                	lw	a5,4(a0)
    4c48:	02852983          	lw	s3,40(a0)
    4c4c:	01c55a03          	lhu	s4,28(a0)
    4c50:	c43e                	sw	a5,8(sp)
    4c52:	02455a83          	lhu	s5,36(a0)
    4c56:	09852483          	lw	s1,152(a0)
    4c5a:	01852b83          	lw	s7,24(a0)
    4c5e:	d4afd0ef          	jal	ra,21a8 <LwipRemoveTcpPcb>
    4c62:	8d418513          	addi	a0,gp,-1836 # 200000e4 <tcp_active_pcbs>
    4c66:	85a2                	mv	a1,s0
    4c68:	dd5ff0ef          	jal	ra,4a3c <tcp_pcb_remove>
    4c6c:	5c68                	lw	a0,124(s0)
    4c6e:	c119                	beqz	a0,4c74 <tcp_abandon+0x60>
    4c70:	a79ff0ef          	jal	ra,46e8 <tcp_segs_free>
    4c74:	5c28                	lw	a0,120(s0)
    4c76:	c119                	beqz	a0,4c7c <tcp_abandon+0x68>
    4c78:	a71ff0ef          	jal	ra,46e8 <tcp_segs_free>
    4c7c:	08042503          	lw	a0,128(s0)
    4c80:	c119                	beqz	a0,4c86 <tcp_abandon+0x72>
    4c82:	a67ff0ef          	jal	ra,46e8 <tcp_segs_free>
    4c86:	85a2                	mv	a1,s0
    4c88:	4509                	li	a0,2
    4c8a:	a3eff0ef          	jal	ra,3ec8 <memp_free>
    4c8e:	c481                	beqz	s1,4c96 <tcp_abandon+0x82>
    4c90:	55ed                	li	a1,-5
    4c92:	855e                	mv	a0,s7
    4c94:	9482                	jalr	s1
    4c96:	fa0b00e3          	beqz	s6,4c36 <tcp_abandon+0x22>
    4c9a:	87d6                	mv	a5,s5
    4c9c:	8752                	mv	a4,s4
    4c9e:	0034                	addi	a3,sp,8
    4ca0:	0070                	addi	a2,sp,12
    4ca2:	85ce                	mv	a1,s3
    4ca4:	854a                	mv	a0,s2
    4ca6:	765010ef          	jal	ra,6c0a <tcp_rst>
    4caa:	b771                	j	4c36 <tcp_abandon+0x22>

00004cac <tcp_next_iss>:
tcp_next_iss():
    4cac:	82818793          	addi	a5,gp,-2008 # 20000038 <iss.6791>
    4cb0:	4388                	lw	a0,0(a5)
    4cb2:	8e01a703          	lw	a4,-1824(gp) # 200000f0 <tcp_ticks>
    4cb6:	953a                	add	a0,a0,a4
    4cb8:	c388                	sw	a0,0(a5)
    4cba:	8082                	ret

00004cbc <tcp_alloc>:
tcp_alloc():
    4cbc:	d5afb2ef          	jal	t0,216 <__riscv_save_4>
    4cc0:	84aa                	mv	s1,a0
    4cc2:	4509                	li	a0,2
    4cc4:	9e8ff0ef          	jal	ra,3eac <memp_malloc>
    4cc8:	96c18913          	addi	s2,gp,-1684 # 2000017c <WCHCfg>
    4ccc:	842a                	mv	s0,a0
    4cce:	e125                	bnez	a0,4d2e <tcp_alloc+0x72>
    4cd0:	01092783          	lw	a5,16(s2)
    4cd4:	8b91                	andi	a5,a5,4
    4cd6:	e789                	bnez	a5,4ce0 <tcp_alloc+0x24>
    4cd8:	4401                	li	s0,0
    4cda:	8522                	mv	a0,s0
    4cdc:	d6efb06f          	j	24a <__riscv_restore_4>
    4ce0:	8ec1a783          	lw	a5,-1812(gp) # 200000fc <tcp_tw_pcbs>
    4ce4:	8e01a603          	lw	a2,-1824(gp) # 200000f0 <tcp_ticks>
    4ce8:	4501                	li	a0,0
    4cea:	4681                	li	a3,0
    4cec:	8e018993          	addi	s3,gp,-1824 # 200000f0 <tcp_ticks>
    4cf0:	e7f1                	bnez	a5,4dbc <tcp_alloc+0x100>
    4cf2:	c501                	beqz	a0,4cfa <tcp_alloc+0x3e>
    4cf4:	4585                	li	a1,1
    4cf6:	f1fff0ef          	jal	ra,4c14 <tcp_abandon>
    4cfa:	4509                	li	a0,2
    4cfc:	9b0ff0ef          	jal	ra,3eac <memp_malloc>
    4d00:	842a                	mv	s0,a0
    4d02:	e515                	bnez	a0,4d2e <tcp_alloc+0x72>
    4d04:	8d41a783          	lw	a5,-1836(gp) # 200000e4 <tcp_active_pcbs>
    4d08:	0009a503          	lw	a0,0(s3)
    4d0c:	14fd                	addi	s1,s1,-1
    4d0e:	0ff4f493          	andi	s1,s1,255
    4d12:	07f00613          	li	a2,127
    4d16:	4581                	li	a1,0
    4d18:	ebdd                	bnez	a5,4dce <tcp_alloc+0x112>
    4d1a:	c409                	beqz	s0,4d24 <tcp_alloc+0x68>
    4d1c:	4585                	li	a1,1
    4d1e:	8522                	mv	a0,s0
    4d20:	ef5ff0ef          	jal	ra,4c14 <tcp_abandon>
    4d24:	4509                	li	a0,2
    4d26:	986ff0ef          	jal	ra,3eac <memp_malloc>
    4d2a:	842a                	mv	s0,a0
    4d2c:	d555                	beqz	a0,4cd8 <tcp_alloc+0x1c>
    4d2e:	0b000613          	li	a2,176
    4d32:	4581                	li	a1,0
    4d34:	8522                	mv	a0,s0
    4d36:	d2afb0ef          	jal	ra,260 <memset>
    4d3a:	04000793          	li	a5,64
    4d3e:	a85c                	fsd	fa5,144(s0)
    4d40:	6789                	lui	a5,0x2
    4d42:	06f41923          	sh	a5,114(s0)
    4d46:	00492783          	lw	a5,4(s2)
    4d4a:	01079713          	slli	a4,a5,0x10
    4d4e:	8341                	srli	a4,a4,0x10
    4d50:	b45a                	fsd	fs6,40(sp)
    4d52:	b47a                	fsd	ft10,40(sp)
    4d54:	7761                	lui	a4,0xffff8
    4d56:	a43a                	fsd	fa4,8(sp)
    4d58:	21800713          	li	a4,536
    4d5c:	00f77463          	bgeu	a4,a5,4d64 <tcp_alloc+0xa8>
    4d60:	21800793          	li	a5,536
    4d64:	bc5e                	fsd	fs7,56(sp)
    4d66:	000307b7          	lui	a5,0x30
    4d6a:	c43c                	sw	a5,72(s0)
    4d6c:	478d                	li	a5,3
    4d6e:	04f41623          	sh	a5,76(s0)
    4d72:	57fd                	li	a5,-1
    4d74:	bc3e                	fsd	fa5,56(sp)
    4d76:	4785                	li	a5,1
    4d78:	04f41b23          	sh	a5,86(s0)
    4d7c:	f31ff0ef          	jal	ra,4cac <tcp_next_iss>
    4d80:	8e01a783          	lw	a5,-1824(gp) # 200000f0 <tcp_ticks>
    4d84:	d428                	sw	a0,104(s0)
    4d86:	cc68                	sw	a0,92(s0)
    4d88:	d85c                	sw	a5,52(s0)
    4d8a:	000057b7          	lui	a5,0x5
    4d8e:	b6078793          	addi	a5,a5,-1184 # 4b60 <tcp_recv_null>
    4d92:	08f42623          	sw	a5,140(s0)
    4d96:	91c1a703          	lw	a4,-1764(gp) # 2000012c <KeepLiveCfg>
    4d9a:	91c18793          	addi	a5,gp,-1764 # 2000012c <KeepLiveCfg>
    4d9e:	c828                	sw	a0,80(s0)
    4da0:	08e42e23          	sw	a4,156(s0)
    4da4:	43d8                	lw	a4,4(a5)
    4da6:	479c                	lw	a5,8(a5)
    4da8:	d468                	sw	a0,108(s0)
    4daa:	02040c23          	sb	zero,56(s0)
    4dae:	0ae42023          	sw	a4,160(s0)
    4db2:	0af42223          	sw	a5,164(s0)
    4db6:	0a0406a3          	sb	zero,173(s0)
    4dba:	b705                	j	4cda <tcp_alloc+0x1e>
    4dbc:	5bd8                	lw	a4,52(a5)
    4dbe:	40e60733          	sub	a4,a2,a4
    4dc2:	00d76463          	bltu	a4,a3,4dca <tcp_alloc+0x10e>
    4dc6:	86ba                	mv	a3,a4
    4dc8:	853e                	mv	a0,a5
    4dca:	47dc                	lw	a5,12(a5)
    4dcc:	b715                	j	4cf0 <tcp_alloc+0x34>
    4dce:	2bd4                	fld	fa3,144(a5)
    4dd0:	00d4ec63          	bltu	s1,a3,4de8 <tcp_alloc+0x12c>
    4dd4:	00d66a63          	bltu	a2,a3,4de8 <tcp_alloc+0x12c>
    4dd8:	5bd8                	lw	a4,52(a5)
    4dda:	40e50733          	sub	a4,a0,a4
    4dde:	00b76563          	bltu	a4,a1,4de8 <tcp_alloc+0x12c>
    4de2:	8636                	mv	a2,a3
    4de4:	85ba                	mv	a1,a4
    4de6:	843e                	mv	s0,a5
    4de8:	47dc                	lw	a5,12(a5)
    4dea:	b73d                	j	4d18 <tcp_alloc+0x5c>

00004dec <tcp_new>:
tcp_new():
    4dec:	c44fb2ef          	jal	t0,230 <__riscv_save_0>
    4df0:	04000513          	li	a0,64
    4df4:	ec9ff0ef          	jal	ra,4cbc <tcp_alloc>
    4df8:	c5cfb06f          	j	254 <__riscv_restore_0>

00004dfc <tcp_eff_send_mss>:
tcp_eff_send_mss():
    4dfc:	c34fb2ef          	jal	t0,230 <__riscv_save_0>
    4e00:	842a                	mv	s0,a0
    4e02:	852e                	mv	a0,a1
    4e04:	aeafe0ef          	jal	ra,30ee <ip_route>
    4e08:	cd11                	beqz	a0,4e24 <tcp_eff_send_mss+0x28>
    4e0a:	351e                	fld	fa0,480(sp)
    4e0c:	cf81                	beqz	a5,4e24 <tcp_eff_send_mss+0x28>
    4e0e:	fd878793          	addi	a5,a5,-40
    4e12:	873e                	mv	a4,a5
    4e14:	07c2                	slli	a5,a5,0x10
    4e16:	83c1                	srli	a5,a5,0x10
    4e18:	00f47363          	bgeu	s0,a5,4e1e <tcp_eff_send_mss+0x22>
    4e1c:	8722                	mv	a4,s0
    4e1e:	01071413          	slli	s0,a4,0x10
    4e22:	8041                	srli	s0,s0,0x10
    4e24:	8522                	mv	a0,s0
    4e26:	c2efb06f          	j	254 <__riscv_restore_0>

00004e2a <tcp_connect>:
tcp_connect():
    4e2a:	becfb2ef          	jal	t0,216 <__riscv_save_4>
    4e2e:	4918                	lw	a4,16(a0)
    4e30:	54cd                	li	s1,-13
    4e32:	e75d                	bnez	a4,4ee0 <tcp_connect+0xb6>
    4e34:	89ae                	mv	s3,a1
    4e36:	54dd                	li	s1,-9
    4e38:	c5c5                	beqz	a1,4ee0 <tcp_connect+0xb6>
    4e3a:	842a                	mv	s0,a0
    4e3c:	8932                	mv	s2,a2
    4e3e:	0511                	addi	a0,a0,4
    4e40:	4611                	li	a2,4
    4e42:	84b6                	mv	s1,a3
    4e44:	508030ef          	jal	ra,834c <memcpy>
    4e48:	2c5e                	fld	fs8,464(sp)
    4e4a:	03241223          	sh	s2,36(s0)
    4e4e:	e781                	bnez	a5,4e56 <tcp_connect+0x2c>
    4e50:	e78ff0ef          	jal	ra,44c8 <tcp_new_port>
    4e54:	ac4a                	fsd	fs2,24(sp)
    4e56:	e57ff0ef          	jal	ra,4cac <tcp_next_iss>
    4e5a:	cc68                	sw	a0,92(s0)
    4e5c:	157d                	addi	a0,a0,-1
    4e5e:	c828                	sw	a0,80(s0)
    4e60:	d468                	sw	a0,108(s0)
    4e62:	9701a503          	lw	a0,-1680(gp) # 20000180 <WCHCfg+0x4>
    4e66:	02042423          	sw	zero,40(s0)
    4e6a:	02042823          	sw	zero,48(s0)
    4e6e:	01051793          	slli	a5,a0,0x10
    4e72:	83c1                	srli	a5,a5,0x10
    4e74:	b45e                	fsd	fs7,40(sp)
    4e76:	b47e                	fsd	ft11,40(sp)
    4e78:	06f41023          	sh	a5,96(s0)
    4e7c:	21800793          	li	a5,536
    4e80:	00a7f463          	bgeu	a5,a0,4e88 <tcp_connect+0x5e>
    4e84:	21800513          	li	a0,536
    4e88:	0542                	slli	a0,a0,0x10
    4e8a:	8141                	srli	a0,a0,0x10
    4e8c:	bc4a                	fsd	fs2,56(sp)
    4e8e:	85ce                	mv	a1,s3
    4e90:	f6dff0ef          	jal	ra,4dfc <tcp_eff_send_mss>
    4e94:	4785                	li	a5,1
    4e96:	04f41b23          	sh	a5,86(s0)
    4e9a:	47a9                	li	a5,10
    4e9c:	bc4a                	fsd	fs2,56(sp)
    4e9e:	02f50533          	mul	a0,a0,a5
    4ea2:	4789                	li	a5,2
    4ea4:	8d818713          	addi	a4,gp,-1832 # 200000e8 <tcp_bound_pcbs>
    4ea8:	c81c                	sw	a5,16(s0)
    4eaa:	431c                	lw	a5,0(a4)
    4eac:	08942823          	sw	s1,144(s0)
    4eb0:	04a41c23          	sh	a0,88(s0)
    4eb4:	02879963          	bne	a5,s0,4ee6 <tcp_connect+0xbc>
    4eb8:	445c                	lw	a5,12(s0)
    4eba:	c31c                	sw	a5,0(a4)
    4ebc:	8d418793          	addi	a5,gp,-1836 # 200000e4 <tcp_active_pcbs>
    4ec0:	4398                	lw	a4,0(a5)
    4ec2:	4689                	li	a3,2
    4ec4:	c380                	sw	s0,0(a5)
    4ec6:	c458                	sw	a4,12(s0)
    4ec8:	4785                	li	a5,1
    4eca:	4701                	li	a4,0
    4ecc:	4601                	li	a2,0
    4ece:	4581                	li	a1,0
    4ed0:	8522                	mv	a0,s0
    4ed2:	4f4010ef          	jal	ra,63c6 <tcp_enqueue>
    4ed6:	84aa                	mv	s1,a0
    4ed8:	e501                	bnez	a0,4ee0 <tcp_connect+0xb6>
    4eda:	8522                	mv	a0,s0
    4edc:	1d9010ef          	jal	ra,68b4 <tcp_output>
    4ee0:	8526                	mv	a0,s1
    4ee2:	b68fb06f          	j	24a <__riscv_restore_4>
    4ee6:	8ef1a423          	sw	a5,-1816(gp) # 200000f8 <tcp_tmp_pcb>
    4eea:	4681                	li	a3,0
    4eec:	8e818713          	addi	a4,gp,-1816 # 200000f8 <tcp_tmp_pcb>
    4ef0:	e789                	bnez	a5,4efa <tcp_connect+0xd0>
    4ef2:	d6e9                	beqz	a3,4ebc <tcp_connect+0x92>
    4ef4:	00072023          	sw	zero,0(a4) # ffff8000 <_eusrstack+0xdffd8000>
    4ef8:	b7d1                	j	4ebc <tcp_connect+0x92>
    4efa:	47d0                	lw	a2,12(a5)
    4efc:	00861763          	bne	a2,s0,4f0a <tcp_connect+0xe0>
    4f00:	c291                	beqz	a3,4f04 <tcp_connect+0xda>
    4f02:	c31c                	sw	a5,0(a4)
    4f04:	4458                	lw	a4,12(s0)
    4f06:	c7d8                	sw	a4,12(a5)
    4f08:	bf55                	j	4ebc <tcp_connect+0x92>
    4f0a:	4685                	li	a3,1
    4f0c:	87b2                	mv	a5,a2
    4f0e:	b7cd                	j	4ef0 <tcp_connect+0xc6>

00004f10 <tcp_oos_insert_segment>:
tcp_oos_insert_segment():
    4f10:	b06fb2ef          	jal	t0,216 <__riscv_save_4>
    4f14:	491c                	lw	a5,16(a0)
    4f16:	84aa                	mv	s1,a0
    4f18:	8a2e                	mv	s4,a1
    4f1a:	27c8                	fld	fa0,136(a5)
    4f1c:	37dc                	fld	fa5,168(a5)
    4f1e:	07a2                	slli	a5,a5,0x8
    4f20:	8d5d                	or	a0,a0,a5
    4f22:	990fe0ef          	jal	ra,30b2 <ntohs>
    4f26:	8905                	andi	a0,a0,1
    4f28:	e929                	bnez	a0,4f7a <tcp_oos_insert_segment+0x6a>
    4f2a:	6941                	lui	s2,0x10
    4f2c:	fc090913          	addi	s2,s2,-64 # ffc0 <_data_lma+0x79ec>
    4f30:	010a2703          	lw	a4,16(s4)
    4f34:	9041a603          	lw	a2,-1788(gp) # 20000114 <seqno>
    4f38:	24de                	fld	fs1,464(sp)
    4f3a:	3354                	fld	fa3,160(a4)
    4f3c:	234c                	fld	fa1,128(a4)
    4f3e:	97b2                	add	a5,a5,a2
    4f40:	06a2                	slli	a3,a3,0x8
    4f42:	8dd5                	or	a1,a1,a3
    4f44:	2374                	fld	fa3,192(a4)
    4f46:	06c2                	slli	a3,a3,0x10
    4f48:	8ecd                	or	a3,a3,a1
    4f4a:	336c                	fld	fa1,224(a4)
    4f4c:	05e2                	slli	a1,a1,0x18
    4f4e:	8dd5                	or	a1,a1,a3
    4f50:	00ca5683          	lhu	a3,12(s4)
    4f54:	96ae                	add	a3,a3,a1
    4f56:	40d786b3          	sub	a3,a5,a3
    4f5a:	0206d563          	bgez	a3,4f84 <tcp_oos_insert_segment+0x74>
    4f5e:	8f8d                	sub	a5,a5,a1
    4f60:	00f05963          	blez	a5,4f72 <tcp_oos_insert_segment+0x62>
    4f64:	8d91                	sub	a1,a1,a2
    4f66:	05c2                	slli	a1,a1,0x10
    4f68:	40c8                	lw	a0,4(s1)
    4f6a:	81c1                	srli	a1,a1,0x10
    4f6c:	a4ce                	fsd	fs3,72(sp)
    4f6e:	ab2ff0ef          	jal	ra,4220 <pbuf_realloc>
    4f72:	0144a023          	sw	s4,0(s1)
    4f76:	ad4fb06f          	j	24a <__riscv_restore_4>
    4f7a:	8552                	mv	a0,s4
    4f7c:	f6cff0ef          	jal	ra,46e8 <tcp_segs_free>
    4f80:	4a01                	li	s4,0
    4f82:	bfc5                	j	4f72 <tcp_oos_insert_segment+0x62>
    4f84:	375c                	fld	fa5,168(a4)
    4f86:	2748                	fld	fa0,136(a4)
    4f88:	07a2                	slli	a5,a5,0x8
    4f8a:	8d5d                	or	a0,a0,a5
    4f8c:	926fe0ef          	jal	ra,30b2 <ntohs>
    4f90:	8905                	andi	a0,a0,1
    4f92:	cd15                	beqz	a0,4fce <tcp_oos_insert_segment+0xbe>
    4f94:	489c                	lw	a5,16(s1)
    4f96:	37c0                	fld	fs0,168(a5)
    4f98:	27c8                	fld	fa0,136(a5)
    4f9a:	0422                	slli	s0,s0,0x8
    4f9c:	8c49                	or	s0,s0,a0
    4f9e:	854a                	mv	a0,s2
    4fa0:	904fe0ef          	jal	ra,30a4 <htons>
    4fa4:	489c                	lw	a5,16(s1)
    4fa6:	8c69                	and	s0,s0,a0
    4fa8:	27c8                	fld	fa0,136(a5)
    4faa:	37dc                	fld	fa5,168(a5)
    4fac:	07a2                	slli	a5,a5,0x8
    4fae:	8d5d                	or	a0,a0,a5
    4fb0:	902fe0ef          	jal	ra,30b2 <ntohs>
    4fb4:	03e57513          	andi	a0,a0,62
    4fb8:	00156513          	ori	a0,a0,1
    4fbc:	8e8fe0ef          	jal	ra,30a4 <htons>
    4fc0:	489c                	lw	a5,16(s1)
    4fc2:	8d41                	or	a0,a0,s0
    4fc4:	0542                	slli	a0,a0,0x10
    4fc6:	8141                	srli	a0,a0,0x10
    4fc8:	a7c8                	fsd	fa0,136(a5)
    4fca:	8121                	srli	a0,a0,0x8
    4fcc:	b7c8                	fsd	fa0,168(a5)
    4fce:	000a2403          	lw	s0,0(s4)
    4fd2:	8552                	mv	a0,s4
    4fd4:	eeaff0ef          	jal	ra,46be <tcp_seg_free>
    4fd8:	d445                	beqz	s0,4f80 <tcp_oos_insert_segment+0x70>
    4fda:	8a22                	mv	s4,s0
    4fdc:	bf91                	j	4f30 <tcp_oos_insert_segment+0x20>

00004fde <tcp_receive>:
tcp_receive():
    4fde:	a2afb2ef          	jal	t0,208 <__riscv_save_10>
    4fe2:	8f41c783          	lbu	a5,-1804(gp) # 20000104 <flags>
    4fe6:	842a                	mv	s0,a0
    4fe8:	8bc1                	andi	a5,a5,16
    4fea:	90418913          	addi	s2,gp,-1788 # 20000114 <seqno>
    4fee:	c7e9                	beqz	a5,50b8 <tcp_receive+0xda>
    4ff0:	00092583          	lw	a1,0(s2)
    4ff4:	5178                	lw	a4,100(a0)
    4ff6:	06055683          	lhu	a3,96(a0)
    4ffa:	5530                	lw	a2,104(a0)
    4ffc:	40b70533          	sub	a0,a4,a1
    5000:	8f01a783          	lw	a5,-1808(gp) # 20000100 <ackno>
    5004:	8f018493          	addi	s1,gp,-1808 # 20000100 <ackno>
    5008:	02054463          	bltz	a0,5030 <tcp_receive+0x52>
    500c:	00b71663          	bne	a4,a1,5018 <tcp_receive+0x3a>
    5010:	40f60733          	sub	a4,a2,a5
    5014:	00074e63          	bltz	a4,5030 <tcp_receive+0x52>
    5018:	02f61e63          	bne	a2,a5,5054 <tcp_receive+0x76>
    501c:	90c1a503          	lw	a0,-1780(gp) # 2000011c <tcphdr>
    5020:	3578                	fld	fa4,232(a0)
    5022:	00e54803          	lbu	a6,14(a0)
    5026:	0722                	slli	a4,a4,0x8
    5028:	01076733          	or	a4,a4,a6
    502c:	02e6f463          	bgeu	a3,a4,5054 <tcp_receive+0x76>
    5030:	90c1a503          	lw	a0,-1780(gp) # 2000011c <tcphdr>
    5034:	3578                	fld	fa4,232(a0)
    5036:	00e54803          	lbu	a6,14(a0)
    503a:	d06c                	sw	a1,100(s0)
    503c:	0722                	slli	a4,a4,0x8
    503e:	01076733          	or	a4,a4,a6
    5042:	06e41023          	sh	a4,96(s0)
    5046:	d43c                	sw	a5,104(s0)
    5048:	c711                	beqz	a4,5054 <tcp_receive+0x76>
    504a:	0ac44703          	lbu	a4,172(s0)
    504e:	c319                	beqz	a4,5054 <tcp_receive+0x76>
    5050:	0a040623          	sb	zero,172(s0)
    5054:	482c                	lw	a1,80(s0)
    5056:	40b78733          	sub	a4,a5,a1
    505a:	28e04d63          	bgtz	a4,52f4 <tcp_receive+0x316>
    505e:	9101d703          	lhu	a4,-1776(gp) # 20000120 <tcplen>
    5062:	06041823          	sh	zero,112(s0)
    5066:	28071463          	bnez	a4,52ee <tcp_receive+0x310>
    506a:	06045703          	lhu	a4,96(s0)
    506e:	5428                	lw	a0,104(s0)
    5070:	96b2                	add	a3,a3,a2
    5072:	972a                	add	a4,a4,a0
    5074:	26d71d63          	bne	a4,a3,52ee <tcp_receive+0x310>
    5078:	03a41703          	lh	a4,58(s0)
    507c:	26074963          	bltz	a4,52ee <tcp_receive+0x310>
    5080:	26f59763          	bne	a1,a5,52ee <tcp_receive+0x310>
    5084:	05444783          	lbu	a5,84(s0)
    5088:	470d                	li	a4,3
    508a:	0785                	addi	a5,a5,1
    508c:	0ff7f793          	andi	a5,a5,255
    5090:	04f40a23          	sb	a5,84(s0)
    5094:	24f77763          	bgeu	a4,a5,52e2 <tcp_receive+0x304>
    5098:	05645703          	lhu	a4,86(s0)
    509c:	3c5e                	fld	fs8,496(sp)
    509e:	97ba                	add	a5,a5,a4
    50a0:	07c2                	slli	a5,a5,0x10
    50a2:	83c1                	srli	a5,a5,0x10
    50a4:	00f77463          	bgeu	a4,a5,50ac <tcp_receive+0xce>
    50a8:	04f41b23          	sh	a5,86(s0)
    50ac:	5c3c                	lw	a5,120(s0)
    50ae:	36079663          	bnez	a5,541a <tcp_receive+0x43c>
    50b2:	4030                	lw	a2,64(s0)
    50b4:	40061163          	bnez	a2,54b6 <tcp_receive+0x4d8>
    50b8:	9101d603          	lhu	a2,-1776(gp) # 20000120 <tcplen>
    50bc:	00092783          	lw	a5,0(s2)
    50c0:	5414                	lw	a3,40(s0)
    50c2:	91018a13          	addi	s4,gp,-1776 # 20000120 <tcplen>
    50c6:	7c060363          	beqz	a2,588c <tcp_receive+0x8ae>
    50ca:	40f685b3          	sub	a1,a3,a5
    50ce:	fff58713          	addi	a4,a1,-1
    50d2:	46074263          	bltz	a4,5536 <tcp_receive+0x558>
    50d6:	4705                	li	a4,1
    50d8:	8f1d                	sub	a4,a4,a5
    50da:	8f11                	sub	a4,a4,a2
    50dc:	9736                	add	a4,a4,a3
    50de:	44e04c63          	bgtz	a4,5536 <tcp_receive+0x558>
    50e2:	b0818793          	addi	a5,gp,-1272 # 20000318 <inseg>
    50e6:	43c4                	lw	s1,4(a5)
    50e8:	01059713          	slli	a4,a1,0x10
    50ec:	8341                	srli	a4,a4,0x10
    50ee:	24be                	fld	fs1,456(sp)
    50f0:	b0818993          	addi	s3,gp,-1272 # 20000318 <inseg>
    50f4:	42b7dc63          	bge	a5,a1,552c <tcp_receive+0x54e>
    50f8:	249e                	fld	fs1,448(sp)
    50fa:	8f99                	sub	a5,a5,a4
    50fc:	07c2                	slli	a5,a5,0x10
    50fe:	83c1                	srli	a5,a5,0x10
    5100:	24ba                	fld	fs1,392(sp)
    5102:	40b74f63          	blt	a4,a1,5520 <tcp_receive+0x542>
    5106:	40b005b3          	neg	a1,a1
    510a:	05c2                	slli	a1,a1,0x10
    510c:	85c1                	srai	a1,a1,0x10
    510e:	8526                	mv	a0,s1
    5110:	f19fe0ef          	jal	ra,4028 <pbuf_header>
    5114:	40dc                	lw	a5,4(s1)
    5116:	00c9d683          	lhu	a3,12(s3)
    511a:	00092703          	lw	a4,0(s2)
    511e:	00f9a423          	sw	a5,8(s3)
    5122:	541c                	lw	a5,40(s0)
    5124:	9736                	add	a4,a4,a3
    5126:	8f1d                	sub	a4,a4,a5
    5128:	00e99623          	sh	a4,12(s3)
    512c:	0109a703          	lw	a4,16(s3)
    5130:	0087d693          	srli	a3,a5,0x8
    5134:	00f92023          	sw	a5,0(s2)
    5138:	a35c                	fsd	fa5,128(a4)
    513a:	b354                	fsd	fa3,160(a4)
    513c:	0107d693          	srli	a3,a5,0x10
    5140:	83e1                	srli	a5,a5,0x18
    5142:	a374                	fsd	fa3,192(a4)
    5144:	b37c                	fsd	fa5,224(a4)
    5146:	00092683          	lw	a3,0(s2)
    514a:	5418                	lw	a4,40(s0)
    514c:	40e687b3          	sub	a5,a3,a4
    5150:	7207ca63          	bltz	a5,5884 <tcp_receive+0x8a6>
    5154:	3452                	fld	fs0,304(sp)
    5156:	00168793          	addi	a5,a3,1
    515a:	8f99                	sub	a5,a5,a4
    515c:	8f91                	sub	a5,a5,a2
    515e:	72f04363          	bgtz	a5,5884 <tcp_receive+0x8a6>
    5162:	5ae69963          	bne	a3,a4,5714 <tcp_receive+0x736>
    5166:	b0818793          	addi	a5,gp,-1272 # 20000318 <inseg>
    516a:	00c7d983          	lhu	s3,12(a5)
    516e:	4b9c                	lw	a5,16(a5)
    5170:	b0818493          	addi	s1,gp,-1272 # 20000318 <inseg>
    5174:	27c8                	fld	fa0,136(a5)
    5176:	37dc                	fld	fa5,168(a5)
    5178:	07a2                	slli	a5,a5,0x8
    517a:	8d5d                	or	a0,a0,a5
    517c:	f37fd0ef          	jal	ra,30b2 <ntohs>
    5180:	890d                	andi	a0,a0,3
    5182:	00a03533          	snez	a0,a0
    5186:	954e                	add	a0,a0,s3
    5188:	0542                	slli	a0,a0,0x10
    518a:	345e                	fld	fs0,496(sp)
    518c:	8141                	srli	a0,a0,0x10
    518e:	00aa1023          	sh	a0,0(s4)
    5192:	08a7fd63          	bgeu	a5,a0,522c <tcp_receive+0x24e>
    5196:	489c                	lw	a5,16(s1)
    5198:	27c8                	fld	fa0,136(a5)
    519a:	37dc                	fld	fa5,168(a5)
    519c:	07a2                	slli	a5,a5,0x8
    519e:	8d5d                	or	a0,a0,a5
    51a0:	f13fd0ef          	jal	ra,30b2 <ntohs>
    51a4:	8905                	andi	a0,a0,1
    51a6:	c131                	beqz	a0,51ea <tcp_receive+0x20c>
    51a8:	489c                	lw	a5,16(s1)
    51aa:	00d7c983          	lbu	s3,13(a5)
    51ae:	27c8                	fld	fa0,136(a5)
    51b0:	09a2                	slli	s3,s3,0x8
    51b2:	00a9e9b3          	or	s3,s3,a0
    51b6:	6541                	lui	a0,0x10
    51b8:	fc050513          	addi	a0,a0,-64 # ffc0 <_data_lma+0x79ec>
    51bc:	ee9fd0ef          	jal	ra,30a4 <htons>
    51c0:	489c                	lw	a5,16(s1)
    51c2:	00a9f9b3          	and	s3,s3,a0
    51c6:	27c8                	fld	fa0,136(a5)
    51c8:	37dc                	fld	fa5,168(a5)
    51ca:	07a2                	slli	a5,a5,0x8
    51cc:	8d5d                	or	a0,a0,a5
    51ce:	ee5fd0ef          	jal	ra,30b2 <ntohs>
    51d2:	03e57513          	andi	a0,a0,62
    51d6:	ecffd0ef          	jal	ra,30a4 <htons>
    51da:	489c                	lw	a5,16(s1)
    51dc:	00a9e533          	or	a0,s3,a0
    51e0:	0542                	slli	a0,a0,0x10
    51e2:	8141                	srli	a0,a0,0x10
    51e4:	a7c8                	fsd	fa0,136(a5)
    51e6:	8121                	srli	a0,a0,0x8
    51e8:	b7c8                	fsd	fa0,168(a5)
    51ea:	345e                	fld	fs0,496(sp)
    51ec:	a4de                	fsd	fs7,72(sp)
    51ee:	489c                	lw	a5,16(s1)
    51f0:	27c8                	fld	fa0,136(a5)
    51f2:	37dc                	fld	fa5,168(a5)
    51f4:	07a2                	slli	a5,a5,0x8
    51f6:	8d5d                	or	a0,a0,a5
    51f8:	ebbfd0ef          	jal	ra,30b2 <ntohs>
    51fc:	8909                	andi	a0,a0,2
    51fe:	c501                	beqz	a0,5206 <tcp_receive+0x228>
    5200:	24de                	fld	fs1,464(sp)
    5202:	17fd                	addi	a5,a5,-1
    5204:	a4de                	fsd	fs7,72(sp)
    5206:	24ce                	fld	fs1,208(sp)
    5208:	40c8                	lw	a0,4(s1)
    520a:	816ff0ef          	jal	ra,4220 <pbuf_realloc>
    520e:	489c                	lw	a5,16(s1)
    5210:	00c4d983          	lhu	s3,12(s1)
    5214:	27c8                	fld	fa0,136(a5)
    5216:	37dc                	fld	fa5,168(a5)
    5218:	07a2                	slli	a5,a5,0x8
    521a:	8d5d                	or	a0,a0,a5
    521c:	e97fd0ef          	jal	ra,30b2 <ntohs>
    5220:	890d                	andi	a0,a0,3
    5222:	00a03533          	snez	a0,a0
    5226:	99aa                	add	s3,s3,a0
    5228:	013a1023          	sh	s3,0(s4)
    522c:	08042783          	lw	a5,128(s0)
    5230:	32078863          	beqz	a5,5560 <tcp_receive+0x582>
    5234:	489c                	lw	a5,16(s1)
    5236:	27c8                	fld	fa0,136(a5)
    5238:	37dc                	fld	fa5,168(a5)
    523a:	07a2                	slli	a5,a5,0x8
    523c:	8d5d                	or	a0,a0,a5
    523e:	e75fd0ef          	jal	ra,30b2 <ntohs>
    5242:	8905                	andi	a0,a0,1
    5244:	30051b63          	bnez	a0,555a <tcp_receive+0x57c>
    5248:	08042a83          	lw	s5,128(s0)
    524c:	6b41                	lui	s6,0x10
    524e:	fc0b0b13          	addi	s6,s6,-64 # ffc0 <_data_lma+0x79ec>
    5252:	00092503          	lw	a0,0(s2)
    5256:	000a5703          	lhu	a4,0(s4)
    525a:	972a                	add	a4,a4,a0
    525c:	080a8063          	beqz	s5,52dc <tcp_receive+0x2fe>
    5260:	010aa603          	lw	a2,16(s5)
    5264:	324c                	fld	fa1,160(a2)
    5266:	2254                	fld	fa3,128(a2)
    5268:	05a2                	slli	a1,a1,0x8
    526a:	8dd5                	or	a1,a1,a3
    526c:	2274                	fld	fa3,192(a2)
    526e:	06c2                	slli	a3,a3,0x10
    5270:	8dd5                	or	a1,a1,a3
    5272:	3274                	fld	fa3,224(a2)
    5274:	06e2                	slli	a3,a3,0x18
    5276:	8ecd                	or	a3,a3,a1
    5278:	00cad583          	lhu	a1,12(s5)
    527c:	95b6                	add	a1,a1,a3
    527e:	40b705b3          	sub	a1,a4,a1
    5282:	3205d463          	bgez	a1,55aa <tcp_receive+0x5cc>
    5286:	8f15                	sub	a4,a4,a3
    5288:	04e05a63          	blez	a4,52dc <tcp_receive+0x2fe>
    528c:	08042783          	lw	a5,128(s0)
    5290:	4b98                	lw	a4,16(a5)
    5292:	335c                	fld	fa5,160(a4)
    5294:	2354                	fld	fa3,128(a4)
    5296:	07a2                	slli	a5,a5,0x8
    5298:	8fd5                	or	a5,a5,a3
    529a:	8f89                	sub	a5,a5,a0
    529c:	a4de                	fsd	fs7,72(sp)
    529e:	489c                	lw	a5,16(s1)
    52a0:	27c8                	fld	fa0,136(a5)
    52a2:	37dc                	fld	fa5,168(a5)
    52a4:	07a2                	slli	a5,a5,0x8
    52a6:	8d5d                	or	a0,a0,a5
    52a8:	e0bfd0ef          	jal	ra,30b2 <ntohs>
    52ac:	8909                	andi	a0,a0,2
    52ae:	c501                	beqz	a0,52b6 <tcp_receive+0x2d8>
    52b0:	24de                	fld	fs1,464(sp)
    52b2:	17fd                	addi	a5,a5,-1
    52b4:	a4de                	fsd	fs7,72(sp)
    52b6:	24ce                	fld	fs1,208(sp)
    52b8:	40c8                	lw	a0,4(s1)
    52ba:	f67fe0ef          	jal	ra,4220 <pbuf_realloc>
    52be:	489c                	lw	a5,16(s1)
    52c0:	00c4d983          	lhu	s3,12(s1)
    52c4:	27c8                	fld	fa0,136(a5)
    52c6:	37dc                	fld	fa5,168(a5)
    52c8:	07a2                	slli	a5,a5,0x8
    52ca:	8d5d                	or	a0,a0,a5
    52cc:	de7fd0ef          	jal	ra,30b2 <ntohs>
    52d0:	890d                	andi	a0,a0,3
    52d2:	00a03533          	snez	a0,a0
    52d6:	99aa                	add	s3,s3,a0
    52d8:	013a1023          	sh	s3,0(s4)
    52dc:	09542023          	sw	s5,128(s0)
    52e0:	a441                	j	5560 <tcp_receive+0x582>
    52e2:	dce795e3          	bne	a5,a4,50ac <tcp_receive+0xce>
    52e6:	8522                	mv	a0,s0
    52e8:	2d3010ef          	jal	ra,6dba <tcp_rexmit_fast>
    52ec:	b3c1                	j	50ac <tcp_receive+0xce>
    52ee:	04040a23          	sb	zero,84(s0)
    52f2:	bb6d                	j	50ac <tcp_receive+0xce>
    52f4:	4c74                	lw	a3,92(s0)
    52f6:	40d786b3          	sub	a3,a5,a3
    52fa:	10d04d63          	bgtz	a3,5414 <tcp_receive+0x436>
    52fe:	02644683          	lbu	a3,38(s0)
    5302:	0046f613          	andi	a2,a3,4
    5306:	ca01                	beqz	a2,5316 <tcp_receive+0x338>
    5308:	9aed                	andi	a3,a3,-5
    530a:	02d40323          	sb	a3,38(s0)
    530e:	05845683          	lhu	a3,88(s0)
    5312:	04d41b23          	sh	a3,86(s0)
    5316:	04841683          	lh	a3,72(s0)
    531a:	04a45603          	lhu	a2,74(s0)
    531e:	0742                	slli	a4,a4,0x10
    5320:	868d                	srai	a3,a3,0x3
    5322:	96b2                	add	a3,a3,a2
    5324:	04d41623          	sh	a3,76(s0)
    5328:	07245683          	lhu	a3,114(s0)
    532c:	8341                	srli	a4,a4,0x10
    532e:	06e41823          	sh	a4,112(s0)
    5332:	9736                	add	a4,a4,a3
    5334:	06e41923          	sh	a4,114(s0)
    5338:	4818                	lw	a4,16(s0)
    533a:	c83c                	sw	a5,80(s0)
    533c:	04040723          	sb	zero,78(s0)
    5340:	04040a23          	sb	zero,84(s0)
    5344:	478d                	li	a5,3
    5346:	02e7f063          	bgeu	a5,a4,5366 <tcp_receive+0x388>
    534a:	05645703          	lhu	a4,86(s0)
    534e:	05845683          	lhu	a3,88(s0)
    5352:	3c5e                	fld	fs8,496(sp)
    5354:	02d77463          	bgeu	a4,a3,537c <tcp_receive+0x39e>
    5358:	97ba                	add	a5,a5,a4
    535a:	07c2                	slli	a5,a5,0x10
    535c:	83c1                	srli	a5,a5,0x10
    535e:	00f77463          	bgeu	a4,a5,5366 <tcp_receive+0x388>
    5362:	04f41b23          	sh	a5,86(s0)
    5366:	5c7c                	lw	a5,124(s0)
    5368:	ef99                	bnez	a5,5386 <tcp_receive+0x3a8>
    536a:	5c7c                	lw	a5,124(s0)
    536c:	02040c23          	sb	zero,56(s0)
    5370:	0017b793          	seqz	a5,a5
    5374:	40f007b3          	neg	a5,a5
    5378:	bc3e                	fsd	fa5,56(sp)
    537a:	bb0d                	j	50ac <tcp_receive+0xce>
    537c:	02f787b3          	mul	a5,a5,a5
    5380:	02e7c7b3          	div	a5,a5,a4
    5384:	bfd1                	j	5358 <tcp_receive+0x37a>
    5386:	4b98                	lw	a4,16(a5)
    5388:	3348                	fld	fa0,160(a4)
    538a:	235c                	fld	fa5,128(a4)
    538c:	0522                	slli	a0,a0,0x8
    538e:	8d5d                	or	a0,a0,a5
    5390:	237c                	fld	fa5,192(a4)
    5392:	07c2                	slli	a5,a5,0x10
    5394:	8fc9                	or	a5,a5,a0
    5396:	3368                	fld	fa0,224(a4)
    5398:	0562                	slli	a0,a0,0x18
    539a:	8d5d                	or	a0,a0,a5
    539c:	d49fd0ef          	jal	ra,30e4 <ntohl>
    53a0:	5c7c                	lw	a5,124(s0)
    53a2:	89aa                	mv	s3,a0
    53a4:	00c7da03          	lhu	s4,12(a5)
    53a8:	4b9c                	lw	a5,16(a5)
    53aa:	27c8                	fld	fa0,136(a5)
    53ac:	37dc                	fld	fa5,168(a5)
    53ae:	07a2                	slli	a5,a5,0x8
    53b0:	8d5d                	or	a0,a0,a5
    53b2:	d01fd0ef          	jal	ra,30b2 <ntohs>
    53b6:	409c                	lw	a5,0(s1)
    53b8:	890d                	andi	a0,a0,3
    53ba:	00a03533          	snez	a0,a0
    53be:	9552                	add	a0,a0,s4
    53c0:	40f989b3          	sub	s3,s3,a5
    53c4:	954e                	add	a0,a0,s3
    53c6:	faa042e3          	bgtz	a0,536a <tcp_receive+0x38c>
    53ca:	07c42983          	lw	s3,124(s0)
    53ce:	0009a783          	lw	a5,0(s3)
    53d2:	dc7c                	sw	a5,124(s0)
    53d4:	07045783          	lhu	a5,112(s0)
    53d8:	c385                	beqz	a5,53f8 <tcp_receive+0x41a>
    53da:	0109a783          	lw	a5,16(s3)
    53de:	27c8                	fld	fa0,136(a5)
    53e0:	37dc                	fld	fa5,168(a5)
    53e2:	07a2                	slli	a5,a5,0x8
    53e4:	8d5d                	or	a0,a0,a5
    53e6:	ccdfd0ef          	jal	ra,30b2 <ntohs>
    53ea:	8905                	andi	a0,a0,1
    53ec:	c511                	beqz	a0,53f8 <tcp_receive+0x41a>
    53ee:	07045783          	lhu	a5,112(s0)
    53f2:	17fd                	addi	a5,a5,-1
    53f4:	06f41823          	sh	a5,112(s0)
    53f8:	0049a503          	lw	a0,4(s3)
    53fc:	e7dfe0ef          	jal	ra,4278 <pbuf_clen>
    5400:	07445783          	lhu	a5,116(s0)
    5404:	40a78533          	sub	a0,a5,a0
    5408:	06a41a23          	sh	a0,116(s0)
    540c:	854e                	mv	a0,s3
    540e:	ab0ff0ef          	jal	ra,46be <tcp_seg_free>
    5412:	bf91                	j	5366 <tcp_receive+0x388>
    5414:	06041823          	sh	zero,112(s0)
    5418:	b951                	j	50ac <tcp_receive+0xce>
    541a:	4b98                	lw	a4,16(a5)
    541c:	0004a983          	lw	s3,0(s1)
    5420:	3348                	fld	fa0,160(a4)
    5422:	235c                	fld	fa5,128(a4)
    5424:	0522                	slli	a0,a0,0x8
    5426:	8d5d                	or	a0,a0,a5
    5428:	237c                	fld	fa5,192(a4)
    542a:	07c2                	slli	a5,a5,0x10
    542c:	8fc9                	or	a5,a5,a0
    542e:	3368                	fld	fa0,224(a4)
    5430:	0562                	slli	a0,a0,0x18
    5432:	8d5d                	or	a0,a0,a5
    5434:	cb1fd0ef          	jal	ra,30e4 <ntohl>
    5438:	5c3c                	lw	a5,120(s0)
    543a:	8aaa                	mv	s5,a0
    543c:	415989b3          	sub	s3,s3,s5
    5440:	00c7da03          	lhu	s4,12(a5)
    5444:	4b9c                	lw	a5,16(a5)
    5446:	27c8                	fld	fa0,136(a5)
    5448:	37dc                	fld	fa5,168(a5)
    544a:	07a2                	slli	a5,a5,0x8
    544c:	8d5d                	or	a0,a0,a5
    544e:	c65fd0ef          	jal	ra,30b2 <ntohs>
    5452:	890d                	andi	a0,a0,3
    5454:	00a03533          	snez	a0,a0
    5458:	9552                	add	a0,a0,s4
    545a:	40a989b3          	sub	s3,s3,a0
    545e:	c409cae3          	bltz	s3,50b2 <tcp_receive+0xd4>
    5462:	409c                	lw	a5,0(s1)
    5464:	4c78                	lw	a4,92(s0)
    5466:	8f99                	sub	a5,a5,a4
    5468:	c4f045e3          	bgtz	a5,50b2 <tcp_receive+0xd4>
    546c:	07842983          	lw	s3,120(s0)
    5470:	0009a783          	lw	a5,0(s3)
    5474:	dc3c                	sw	a5,120(s0)
    5476:	07045783          	lhu	a5,112(s0)
    547a:	c385                	beqz	a5,549a <tcp_receive+0x4bc>
    547c:	0109a783          	lw	a5,16(s3)
    5480:	27c8                	fld	fa0,136(a5)
    5482:	37dc                	fld	fa5,168(a5)
    5484:	07a2                	slli	a5,a5,0x8
    5486:	8d5d                	or	a0,a0,a5
    5488:	c2bfd0ef          	jal	ra,30b2 <ntohs>
    548c:	8905                	andi	a0,a0,1
    548e:	c511                	beqz	a0,549a <tcp_receive+0x4bc>
    5490:	07045783          	lhu	a5,112(s0)
    5494:	17fd                	addi	a5,a5,-1
    5496:	06f41823          	sh	a5,112(s0)
    549a:	0049a503          	lw	a0,4(s3)
    549e:	ddbfe0ef          	jal	ra,4278 <pbuf_clen>
    54a2:	07445783          	lhu	a5,116(s0)
    54a6:	40a78533          	sub	a0,a5,a0
    54aa:	06a41a23          	sh	a0,116(s0)
    54ae:	854e                	mv	a0,s3
    54b0:	a0eff0ef          	jal	ra,46be <tcp_seg_free>
    54b4:	bee5                	j	50ac <tcp_receive+0xce>
    54b6:	407c                	lw	a5,68(s0)
    54b8:	4098                	lw	a4,0(s1)
    54ba:	8f99                	sub	a5,a5,a4
    54bc:	be07dee3          	bgez	a5,50b8 <tcp_receive+0xda>
    54c0:	04841683          	lh	a3,72(s0)
    54c4:	8e01d703          	lhu	a4,-1824(gp) # 200000f0 <tcp_ticks>
    54c8:	0642                	slli	a2,a2,0x10
    54ca:	4036d593          	srai	a1,a3,0x3
    54ce:	8241                	srli	a2,a2,0x10
    54d0:	05c2                	slli	a1,a1,0x10
    54d2:	81c1                	srli	a1,a1,0x10
    54d4:	40c707b3          	sub	a5,a4,a2
    54d8:	8f8d                	sub	a5,a5,a1
    54da:	07c2                	slli	a5,a5,0x10
    54dc:	83c1                	srli	a5,a5,0x10
    54de:	01079513          	slli	a0,a5,0x10
    54e2:	97b6                	add	a5,a5,a3
    54e4:	07c2                	slli	a5,a5,0x10
    54e6:	87c1                	srai	a5,a5,0x10
    54e8:	8541                	srai	a0,a0,0x10
    54ea:	04f41423          	sh	a5,72(s0)
    54ee:	00055763          	bgez	a0,54fc <tcp_receive+0x51e>
    54f2:	8e19                	sub	a2,a2,a4
    54f4:	962e                	add	a2,a2,a1
    54f6:	01061513          	slli	a0,a2,0x10
    54fa:	8541                	srai	a0,a0,0x10
    54fc:	04a41683          	lh	a3,74(s0)
    5500:	878d                	srai	a5,a5,0x3
    5502:	04042023          	sw	zero,64(s0)
    5506:	4026d713          	srai	a4,a3,0x2
    550a:	40e68733          	sub	a4,a3,a4
    550e:	972a                	add	a4,a4,a0
    5510:	0742                	slli	a4,a4,0x10
    5512:	8341                	srli	a4,a4,0x10
    5514:	97ba                	add	a5,a5,a4
    5516:	04e41523          	sh	a4,74(s0)
    551a:	04f41623          	sh	a5,76(s0)
    551e:	be69                	j	50b8 <tcp_receive+0xda>
    5520:	a49e                	fsd	ft7,72(sp)
    5522:	00049523          	sh	zero,10(s1)
    5526:	8d99                	sub	a1,a1,a4
    5528:	4084                	lw	s1,0(s1)
    552a:	bed9                	j	5100 <tcp_receive+0x122>
    552c:	40e00733          	neg	a4,a4
    5530:	01071593          	slli	a1,a4,0x10
    5534:	bee1                	j	510c <tcp_receive+0x12e>
    5536:	8f95                	sub	a5,a5,a3
    5538:	c007d7e3          	bgez	a5,5146 <tcp_receive+0x168>
    553c:	02644783          	lbu	a5,38(s0)
    5540:	8522                	mv	a0,s0
    5542:	0027e793          	ori	a5,a5,2
    5546:	02f40323          	sb	a5,38(s0)
    554a:	36a010ef          	jal	ra,68b4 <tcp_output>
    554e:	bee5                	j	5146 <tcp_receive+0x168>
    5550:	411c                	lw	a5,0(a0)
    5552:	08f42023          	sw	a5,128(s0)
    5556:	968ff0ef          	jal	ra,46be <tcp_seg_free>
    555a:	08042503          	lw	a0,128(s0)
    555e:	f96d                	bnez	a0,5550 <tcp_receive+0x572>
    5560:	000a5683          	lhu	a3,0(s4)
    5564:	345e                	fld	fs0,496(sp)
    5566:	00092703          	lw	a4,0(s2)
    556a:	8522                	mv	a0,s0
    556c:	8f95                	sub	a5,a5,a3
    556e:	9736                	add	a4,a4,a3
    5570:	d418                	sw	a4,40(s0)
    5572:	b45e                	fsd	fs7,40(sp)
    5574:	8c6ff0ef          	jal	ra,463a <tcp_update_rcv_ann_wnd>
    5578:	40dc                	lw	a5,4(s1)
    557a:	279a                	fld	fa5,384(sp)
    557c:	c709                	beqz	a4,5586 <tcp_receive+0x5a8>
    557e:	8ef1ae23          	sw	a5,-1796(gp) # 2000010c <recv_data>
    5582:	0004a223          	sw	zero,4(s1)
    5586:	489c                	lw	a5,16(s1)
    5588:	27c8                	fld	fa0,136(a5)
    558a:	37dc                	fld	fa5,168(a5)
    558c:	07a2                	slli	a5,a5,0x8
    558e:	8d5d                	or	a0,a0,a5
    5590:	b23fd0ef          	jal	ra,30b2 <ntohs>
    5594:	8905                	andi	a0,a0,1
    5596:	c519                	beqz	a0,55a4 <tcp_receive+0x5c6>
    5598:	90018793          	addi	a5,gp,-1792 # 20000110 <recv_flags>
    559c:	2398                	fld	fa4,0(a5)
    559e:	02076713          	ori	a4,a4,32
    55a2:	a398                	fsd	fa4,0(a5)
    55a4:	4a91                	li	s5,4
    55a6:	4b1d                	li	s6,7
    55a8:	aa39                	j	56c6 <tcp_receive+0x6e8>
    55aa:	365c                	fld	fa5,168(a2)
    55ac:	2648                	fld	fa0,136(a2)
    55ae:	07a2                	slli	a5,a5,0x8
    55b0:	8d5d                	or	a0,a0,a5
    55b2:	b01fd0ef          	jal	ra,30b2 <ntohs>
    55b6:	8905                	andi	a0,a0,1
    55b8:	c535                	beqz	a0,5624 <tcp_receive+0x646>
    55ba:	489c                	lw	a5,16(s1)
    55bc:	27c8                	fld	fa0,136(a5)
    55be:	37dc                	fld	fa5,168(a5)
    55c0:	07a2                	slli	a5,a5,0x8
    55c2:	8d5d                	or	a0,a0,a5
    55c4:	aeffd0ef          	jal	ra,30b2 <ntohs>
    55c8:	8909                	andi	a0,a0,2
    55ca:	ed29                	bnez	a0,5624 <tcp_receive+0x646>
    55cc:	489c                	lw	a5,16(s1)
    55ce:	00d7c983          	lbu	s3,13(a5)
    55d2:	27c8                	fld	fa0,136(a5)
    55d4:	09a2                	slli	s3,s3,0x8
    55d6:	00a9e9b3          	or	s3,s3,a0
    55da:	855a                	mv	a0,s6
    55dc:	ac9fd0ef          	jal	ra,30a4 <htons>
    55e0:	489c                	lw	a5,16(s1)
    55e2:	00a9f9b3          	and	s3,s3,a0
    55e6:	27c8                	fld	fa0,136(a5)
    55e8:	37dc                	fld	fa5,168(a5)
    55ea:	07a2                	slli	a5,a5,0x8
    55ec:	8d5d                	or	a0,a0,a5
    55ee:	ac5fd0ef          	jal	ra,30b2 <ntohs>
    55f2:	03e57513          	andi	a0,a0,62
    55f6:	00156513          	ori	a0,a0,1
    55fa:	aabfd0ef          	jal	ra,30a4 <htons>
    55fe:	00a9e533          	or	a0,s3,a0
    5602:	489c                	lw	a5,16(s1)
    5604:	0542                	slli	a0,a0,0x10
    5606:	8141                	srli	a0,a0,0x10
    5608:	00855713          	srli	a4,a0,0x8
    560c:	a7c8                	fsd	fa0,136(a5)
    560e:	b7d8                	fsd	fa4,168(a5)
    5610:	00c4d983          	lhu	s3,12(s1)
    5614:	a9ffd0ef          	jal	ra,30b2 <ntohs>
    5618:	890d                	andi	a0,a0,3
    561a:	00a03533          	snez	a0,a0
    561e:	99aa                	add	s3,s3,a0
    5620:	013a1023          	sh	s3,0(s4)
    5624:	000aa983          	lw	s3,0(s5)
    5628:	8556                	mv	a0,s5
    562a:	894ff0ef          	jal	ra,46be <tcp_seg_free>
    562e:	8ace                	mv	s5,s3
    5630:	b10d                	j	5252 <tcp_receive+0x274>
    5632:	00f92023          	sw	a5,0(s2)
    5636:	375c                	fld	fa5,168(a4)
    5638:	2748                	fld	fa0,136(a4)
    563a:	00c4db83          	lhu	s7,12(s1)
    563e:	07a2                	slli	a5,a5,0x8
    5640:	8d5d                	or	a0,a0,a5
    5642:	a71fd0ef          	jal	ra,30b2 <ntohs>
    5646:	541c                	lw	a5,40(s0)
    5648:	890d                	andi	a0,a0,3
    564a:	00a03533          	snez	a0,a0
    564e:	955e                	add	a0,a0,s7
    5650:	953e                	add	a0,a0,a5
    5652:	489c                	lw	a5,16(s1)
    5654:	d408                	sw	a0,40(s0)
    5656:	00c4db83          	lhu	s7,12(s1)
    565a:	27c8                	fld	fa0,136(a5)
    565c:	37dc                	fld	fa5,168(a5)
    565e:	07a2                	slli	a5,a5,0x8
    5660:	8d5d                	or	a0,a0,a5
    5662:	a51fd0ef          	jal	ra,30b2 <ntohs>
    5666:	345e                	fld	fs0,496(sp)
    5668:	890d                	andi	a0,a0,3
    566a:	00a03533          	snez	a0,a0
    566e:	955e                	add	a0,a0,s7
    5670:	40a78533          	sub	a0,a5,a0
    5674:	b44a                	fsd	fs2,40(sp)
    5676:	8522                	mv	a0,s0
    5678:	fc3fe0ef          	jal	ra,463a <tcp_update_rcv_ann_wnd>
    567c:	40cc                	lw	a1,4(s1)
    567e:	259e                	fld	fa1,448(sp)
    5680:	cb89                	beqz	a5,5692 <tcp_receive+0x6b4>
    5682:	8fc18793          	addi	a5,gp,-1796 # 2000010c <recv_data>
    5686:	4388                	lw	a0,0(a5)
    5688:	cd35                	beqz	a0,5704 <tcp_receive+0x726>
    568a:	c0bfe0ef          	jal	ra,4294 <pbuf_cat>
    568e:	0004a223          	sw	zero,4(s1)
    5692:	489c                	lw	a5,16(s1)
    5694:	27c8                	fld	fa0,136(a5)
    5696:	37dc                	fld	fa5,168(a5)
    5698:	07a2                	slli	a5,a5,0x8
    569a:	8d5d                	or	a0,a0,a5
    569c:	a17fd0ef          	jal	ra,30b2 <ntohs>
    56a0:	8905                	andi	a0,a0,1
    56a2:	cd01                	beqz	a0,56ba <tcp_receive+0x6dc>
    56a4:	90018713          	addi	a4,gp,-1792 # 20000110 <recv_flags>
    56a8:	231c                	fld	fa5,0(a4)
    56aa:	0207e793          	ori	a5,a5,32
    56ae:	a31c                	fsd	fa5,0(a4)
    56b0:	481c                	lw	a5,16(s0)
    56b2:	01579463          	bne	a5,s5,56ba <tcp_receive+0x6dc>
    56b6:	01642823          	sw	s6,16(s0)
    56ba:	409c                	lw	a5,0(s1)
    56bc:	8526                	mv	a0,s1
    56be:	08f42023          	sw	a5,128(s0)
    56c2:	ffdfe0ef          	jal	ra,46be <tcp_seg_free>
    56c6:	08042483          	lw	s1,128(s0)
    56ca:	cc99                	beqz	s1,56e8 <tcp_receive+0x70a>
    56cc:	4898                	lw	a4,16(s1)
    56ce:	3354                	fld	fa3,160(a4)
    56d0:	235c                	fld	fa5,128(a4)
    56d2:	06a2                	slli	a3,a3,0x8
    56d4:	8edd                	or	a3,a3,a5
    56d6:	237c                	fld	fa5,192(a4)
    56d8:	07c2                	slli	a5,a5,0x10
    56da:	8edd                	or	a3,a3,a5
    56dc:	337c                	fld	fa5,224(a4)
    56de:	07e2                	slli	a5,a5,0x18
    56e0:	8fd5                	or	a5,a5,a3
    56e2:	5414                	lw	a3,40(s0)
    56e4:	f4d787e3          	beq	a5,a3,5632 <tcp_receive+0x654>
    56e8:	02644783          	lbu	a5,38(s0)
    56ec:	0017f713          	andi	a4,a5,1
    56f0:	cf01                	beqz	a4,5708 <tcp_receive+0x72a>
    56f2:	9bf9                	andi	a5,a5,-2
    56f4:	0027e793          	ori	a5,a5,2
    56f8:	02f40323          	sb	a5,38(s0)
    56fc:	8522                	mv	a0,s0
    56fe:	1b6010ef          	jal	ra,68b4 <tcp_output>
    5702:	a039                	j	5710 <tcp_receive+0x732>
    5704:	c38c                	sw	a1,0(a5)
    5706:	b761                	j	568e <tcp_receive+0x6b0>
    5708:	0017e793          	ori	a5,a5,1
    570c:	02f40323          	sb	a5,38(s0)
    5710:	b31fa06f          	j	240 <__riscv_restore_10>
    5714:	8522                	mv	a0,s0
    5716:	132010ef          	jal	ra,6848 <tcp_send_empty_ack>
    571a:	08042483          	lw	s1,128(s0)
    571e:	e881                	bnez	s1,572e <tcp_receive+0x750>
    5720:	b0818513          	addi	a0,gp,-1272 # 20000318 <inseg>
    5724:	fe3fe0ef          	jal	ra,4706 <tcp_seg_copy>
    5728:	08a42023          	sw	a0,128(s0)
    572c:	b7d5                	j	5710 <tcp_receive+0x732>
    572e:	00092703          	lw	a4,0(s2)
    5732:	4981                	li	s3,0
    5734:	fff70813          	addi	a6,a4,-1
    5738:	00170513          	addi	a0,a4,1
    573c:	4890                	lw	a2,16(s1)
    573e:	3254                	fld	fa3,160(a2)
    5740:	225c                	fld	fa5,128(a2)
    5742:	06a2                	slli	a3,a3,0x8
    5744:	8edd                	or	a3,a3,a5
    5746:	227c                	fld	fa5,192(a2)
    5748:	07c2                	slli	a5,a5,0x10
    574a:	8edd                	or	a3,a3,a5
    574c:	327c                	fld	fa5,224(a2)
    574e:	07e2                	slli	a5,a5,0x18
    5750:	8fd5                	or	a5,a5,a3
    5752:	02e79a63          	bne	a5,a4,5786 <tcp_receive+0x7a8>
    5756:	b0818793          	addi	a5,gp,-1272 # 20000318 <inseg>
    575a:	27da                	fld	fa5,400(sp)
    575c:	24de                	fld	fs1,464(sp)
    575e:	fae7f9e3          	bgeu	a5,a4,5710 <tcp_receive+0x732>
    5762:	b0818513          	addi	a0,gp,-1272 # 20000318 <inseg>
    5766:	fa1fe0ef          	jal	ra,4706 <tcp_seg_copy>
    576a:	d15d                	beqz	a0,5710 <tcp_receive+0x732>
    576c:	00098a63          	beqz	s3,5780 <tcp_receive+0x7a2>
    5770:	00a9a023          	sw	a0,0(s3)
    5774:	85a6                	mv	a1,s1
    5776:	f9aff0ef          	jal	ra,4f10 <tcp_oos_insert_segment>
    577a:	bf59                	j	5710 <tcp_receive+0x732>
    577c:	84b6                	mv	s1,a3
    577e:	bf7d                	j	573c <tcp_receive+0x75e>
    5780:	08a42023          	sw	a0,128(s0)
    5784:	bfc5                	j	5774 <tcp_receive+0x796>
    5786:	00099e63          	bnez	s3,57a2 <tcp_receive+0x7c4>
    578a:	40f706b3          	sub	a3,a4,a5
    578e:	0806da63          	bgez	a3,5822 <tcp_receive+0x844>
    5792:	b0818513          	addi	a0,gp,-1272 # 20000318 <inseg>
    5796:	f71fe0ef          	jal	ra,4706 <tcp_seg_copy>
    579a:	d93d                	beqz	a0,5710 <tcp_receive+0x732>
    579c:	08a42023          	sw	a0,128(s0)
    57a0:	bfd1                	j	5774 <tcp_receive+0x796>
    57a2:	0109a883          	lw	a7,16(s3)
    57a6:	0058c583          	lbu	a1,5(a7)
    57aa:	0048c683          	lbu	a3,4(a7)
    57ae:	05a2                	slli	a1,a1,0x8
    57b0:	8dd5                	or	a1,a1,a3
    57b2:	0068c683          	lbu	a3,6(a7)
    57b6:	06c2                	slli	a3,a3,0x10
    57b8:	8dd5                	or	a1,a1,a3
    57ba:	0078c683          	lbu	a3,7(a7)
    57be:	06e2                	slli	a3,a3,0x18
    57c0:	8ecd                	or	a3,a3,a1
    57c2:	40d806b3          	sub	a3,a6,a3
    57c6:	0406ce63          	bltz	a3,5822 <tcp_receive+0x844>
    57ca:	40f506b3          	sub	a3,a0,a5
    57ce:	04d04a63          	bgtz	a3,5822 <tcp_receive+0x844>
    57d2:	b0818513          	addi	a0,gp,-1272 # 20000318 <inseg>
    57d6:	f31fe0ef          	jal	ra,4706 <tcp_seg_copy>
    57da:	842a                	mv	s0,a0
    57dc:	d915                	beqz	a0,5710 <tcp_receive+0x732>
    57de:	0109a703          	lw	a4,16(s3)
    57e2:	335c                	fld	fa5,160(a4)
    57e4:	234c                	fld	fa1,128(a4)
    57e6:	07a2                	slli	a5,a5,0x8
    57e8:	8ddd                	or	a1,a1,a5
    57ea:	237c                	fld	fa5,192(a4)
    57ec:	07c2                	slli	a5,a5,0x10
    57ee:	8fcd                	or	a5,a5,a1
    57f0:	336c                	fld	fa1,224(a4)
    57f2:	00c9d703          	lhu	a4,12(s3)
    57f6:	05e2                	slli	a1,a1,0x18
    57f8:	8fcd                	or	a5,a5,a1
    57fa:	00092583          	lw	a1,0(s2)
    57fe:	973e                	add	a4,a4,a5
    5800:	8f0d                	sub	a4,a4,a1
    5802:	00e05b63          	blez	a4,5818 <tcp_receive+0x83a>
    5806:	8d9d                	sub	a1,a1,a5
    5808:	05c2                	slli	a1,a1,0x10
    580a:	0049a503          	lw	a0,4(s3)
    580e:	81c1                	srli	a1,a1,0x10
    5810:	00b99623          	sh	a1,12(s3)
    5814:	a0dfe0ef          	jal	ra,4220 <pbuf_realloc>
    5818:	0089a023          	sw	s0,0(s3)
    581c:	85a6                	mv	a1,s1
    581e:	8522                	mv	a0,s0
    5820:	bf99                	j	5776 <tcp_receive+0x798>
    5822:	4094                	lw	a3,0(s1)
    5824:	89a6                	mv	s3,s1
    5826:	fab9                	bnez	a3,577c <tcp_receive+0x79e>
    5828:	40f707b3          	sub	a5,a4,a5
    582c:	eef052e3          	blez	a5,5710 <tcp_receive+0x732>
    5830:	365c                	fld	fa5,168(a2)
    5832:	2648                	fld	fa0,136(a2)
    5834:	07a2                	slli	a5,a5,0x8
    5836:	8d5d                	or	a0,a0,a5
    5838:	87bfd0ef          	jal	ra,30b2 <ntohs>
    583c:	8905                	andi	a0,a0,1
    583e:	ec0519e3          	bnez	a0,5710 <tcp_receive+0x732>
    5842:	b0818513          	addi	a0,gp,-1272 # 20000318 <inseg>
    5846:	ec1fe0ef          	jal	ra,4706 <tcp_seg_copy>
    584a:	c088                	sw	a0,0(s1)
    584c:	ec0502e3          	beqz	a0,5710 <tcp_receive+0x732>
    5850:	4898                	lw	a4,16(s1)
    5852:	335c                	fld	fa5,160(a4)
    5854:	234c                	fld	fa1,128(a4)
    5856:	07a2                	slli	a5,a5,0x8
    5858:	8ddd                	or	a1,a1,a5
    585a:	237c                	fld	fa5,192(a4)
    585c:	07c2                	slli	a5,a5,0x10
    585e:	8fcd                	or	a5,a5,a1
    5860:	336c                	fld	fa1,224(a4)
    5862:	24da                	fld	fs1,400(sp)
    5864:	05e2                	slli	a1,a1,0x18
    5866:	8fcd                	or	a5,a5,a1
    5868:	00092583          	lw	a1,0(s2)
    586c:	973e                	add	a4,a4,a5
    586e:	8f0d                	sub	a4,a4,a1
    5870:	eae050e3          	blez	a4,5710 <tcp_receive+0x732>
    5874:	8d9d                	sub	a1,a1,a5
    5876:	05c2                	slli	a1,a1,0x10
    5878:	40c8                	lw	a0,4(s1)
    587a:	81c1                	srli	a1,a1,0x10
    587c:	a4ce                	fsd	fs3,72(sp)
    587e:	9a3fe0ef          	jal	ra,4220 <pbuf_realloc>
    5882:	b579                	j	5710 <tcp_receive+0x732>
    5884:	8522                	mv	a0,s0
    5886:	7c3000ef          	jal	ra,6848 <tcp_send_empty_ack>
    588a:	b559                	j	5710 <tcp_receive+0x732>
    588c:	40d78733          	sub	a4,a5,a3
    5890:	00074863          	bltz	a4,58a0 <tcp_receive+0x8c2>
    5894:	345a                	fld	fs0,432(sp)
    5896:	0785                	addi	a5,a5,1
    5898:	8f95                	sub	a5,a5,a3
    589a:	8f99                	sub	a5,a5,a4
    589c:	e6f05ae3          	blez	a5,5710 <tcp_receive+0x732>
    58a0:	02644783          	lbu	a5,38(s0)
    58a4:	bd81                	j	56f4 <tcp_receive+0x716>

000058a6 <tcp_parseopt.isra.0>:
tcp_parseopt.isra.0():
    58a6:	98bfa2ef          	jal	t0,230 <__riscv_save_0>
    58aa:	90c18493          	addi	s1,gp,-1780 # 2000011c <tcphdr>
    58ae:	0004a903          	lw	s2,0(s1)
    58b2:	842a                	mv	s0,a0
    58b4:	00d94783          	lbu	a5,13(s2)
    58b8:	00c94503          	lbu	a0,12(s2)
    58bc:	07a2                	slli	a5,a5,0x8
    58be:	8d5d                	or	a0,a0,a5
    58c0:	ff2fd0ef          	jal	ra,30b2 <ntohs>
    58c4:	8131                	srli	a0,a0,0xc
    58c6:	0542                	slli	a0,a0,0x10
    58c8:	8141                	srli	a0,a0,0x10
    58ca:	4795                	li	a5,5
    58cc:	02a7fa63          	bgeu	a5,a0,5900 <tcp_parseopt.isra.0+0x5a>
    58d0:	409c                	lw	a5,0(s1)
    58d2:	0951                	addi	s2,s2,20
    58d4:	27c8                	fld	fa0,136(a5)
    58d6:	37dc                	fld	fa5,168(a5)
    58d8:	07a2                	slli	a5,a5,0x8
    58da:	8d5d                	or	a0,a0,a5
    58dc:	fd6fd0ef          	jal	ra,30b2 <ntohs>
    58e0:	9701a603          	lw	a2,-1680(gp) # 20000180 <WCHCfg+0x4>
    58e4:	8131                	srli	a0,a0,0xc
    58e6:	156d                	addi	a0,a0,-5
    58e8:	050a                	slli	a0,a0,0x2
    58ea:	0542                	slli	a0,a0,0x10
    58ec:	01061593          	slli	a1,a2,0x10
    58f0:	8141                	srli	a0,a0,0x10
    58f2:	81c1                	srli	a1,a1,0x10
    58f4:	4781                	li	a5,0
    58f6:	4805                	li	a6,1
    58f8:	4889                	li	a7,2
    58fa:	4311                	li	t1,4
    58fc:	00a7e463          	bltu	a5,a0,5904 <tcp_parseopt.isra.0+0x5e>
    5900:	955fa06f          	j	254 <__riscv_restore_0>
    5904:	00f906b3          	add	a3,s2,a5
    5908:	2298                	fld	fa4,0(a3)
    590a:	01070963          	beq	a4,a6,591c <tcp_parseopt.isra.0+0x76>
    590e:	db6d                	beqz	a4,5900 <tcp_parseopt.isra.0+0x5a>
    5910:	01170a63          	beq	a4,a7,5924 <tcp_parseopt.isra.0+0x7e>
    5914:	3298                	fld	fa4,32(a3)
    5916:	d76d                	beqz	a4,5900 <tcp_parseopt.isra.0+0x5a>
    5918:	97ba                	add	a5,a5,a4
    591a:	a011                	j	591e <tcp_parseopt.isra.0+0x78>
    591c:	0785                	addi	a5,a5,1
    591e:	07c2                	slli	a5,a5,0x10
    5920:	83c1                	srli	a5,a5,0x10
    5922:	bfe9                	j	58fc <tcp_parseopt.isra.0+0x56>
    5924:	3298                	fld	fa4,32(a3)
    5926:	fc671de3          	bne	a4,t1,5900 <tcp_parseopt.isra.0+0x5a>
    592a:	00378713          	addi	a4,a5,3
    592e:	fca759e3          	bge	a4,a0,5900 <tcp_parseopt.isra.0+0x5a>
    5932:	22b8                	fld	fa4,64(a3)
    5934:	32b4                	fld	fa3,96(a3)
    5936:	0722                	slli	a4,a4,0x8
    5938:	8f55                	or	a4,a4,a3
    593a:	00e66363          	bltu	a2,a4,5940 <tcp_parseopt.isra.0+0x9a>
    593e:	e311                	bnez	a4,5942 <tcp_parseopt.isra.0+0x9c>
    5940:	872e                	mv	a4,a1
    5942:	a01a                	fsd	ft6,0(sp)
    5944:	0791                	addi	a5,a5,4
    5946:	bfe1                	j	591e <tcp_parseopt.isra.0+0x78>

00005948 <tcp_input>:
tcp_input():
    5948:	8b9fa2ef          	jal	t0,200 <__riscv_save_12>
    594c:	4140                	lw	s0,4(a0)
    594e:	8baa                	mv	s7,a0
    5950:	301c                	fld	fa5,32(s0)
    5952:	2008                	fld	fa0,0(s0)
    5954:	1141                	addi	sp,sp,-16
    5956:	07a2                	slli	a5,a5,0x8
    5958:	8f818913          	addi	s2,gp,-1800 # 20000108 <iphdr>
    595c:	8d5d                	or	a0,a0,a5
    595e:	89ae                	mv	s3,a1
    5960:	00892023          	sw	s0,0(s2)
    5964:	f4efd0ef          	jal	ra,30b2 <ntohs>
    5968:	00092783          	lw	a5,0(s2)
    596c:	8119                	srli	a0,a0,0x6
    596e:	03c57513          	andi	a0,a0,60
    5972:	942a                	add	s0,s0,a0
    5974:	2388                	fld	fa0,0(a5)
    5976:	339c                	fld	fa5,32(a5)
    5978:	9081a623          	sw	s0,-1780(gp) # 2000011c <tcphdr>
    597c:	07a2                	slli	a5,a5,0x8
    597e:	8d5d                	or	a0,a0,a5
    5980:	f32fd0ef          	jal	ra,30b2 <ntohs>
    5984:	00655593          	srli	a1,a0,0x6
    5988:	03c5f593          	andi	a1,a1,60
    598c:	40b005b3          	neg	a1,a1
    5990:	855e                	mv	a0,s7
    5992:	e96fe0ef          	jal	ra,4028 <pbuf_header>
    5996:	e511                	bnez	a0,59a2 <tcp_input+0x5a>
    5998:	008bd703          	lhu	a4,8(s7)
    599c:	47cd                	li	a5,19
    599e:	00e7e863          	bltu	a5,a4,59ae <tcp_input+0x66>
    59a2:	855e                	mv	a0,s7
    59a4:	ef2fe0ef          	jal	ra,4096 <pbuf_free>
    59a8:	0141                	addi	sp,sp,16
    59aa:	893fa06f          	j	23c <__riscv_restore_12>
    59ae:	8f818b13          	addi	s6,gp,-1800 # 20000108 <iphdr>
    59b2:	000b2503          	lw	a0,0(s6)
    59b6:	85ce                	mv	a1,s3
    59b8:	0541                	addi	a0,a0,16
    59ba:	bc7fd0ef          	jal	ra,3580 <ip_addr_isbroadcast>
    59be:	f175                	bnez	a0,59a2 <tcp_input+0x5a>
    59c0:	000b2703          	lw	a4,0(s6)
    59c4:	f0000537          	lui	a0,0xf0000
    59c8:	3b1c                	fld	fa5,48(a4)
    59ca:	2b00                	fld	fs0,16(a4)
    59cc:	07a2                	slli	a5,a5,0x8
    59ce:	8fc1                	or	a5,a5,s0
    59d0:	2b20                	fld	fs0,80(a4)
    59d2:	0442                	slli	s0,s0,0x10
    59d4:	8fc1                	or	a5,a5,s0
    59d6:	3b20                	fld	fs0,112(a4)
    59d8:	0462                	slli	s0,s0,0x18
    59da:	8c5d                	or	s0,s0,a5
    59dc:	f08fd0ef          	jal	ra,30e4 <ntohl>
    59e0:	8c69                	and	s0,s0,a0
    59e2:	e0000537          	lui	a0,0xe0000
    59e6:	efefd0ef          	jal	ra,30e4 <ntohl>
    59ea:	faa40ce3          	beq	s0,a0,59a2 <tcp_input+0x5a>
    59ee:	000b2583          	lw	a1,0(s6)
    59f2:	008bd703          	lhu	a4,8(s7)
    59f6:	4699                	li	a3,6
    59f8:	01058613          	addi	a2,a1,16
    59fc:	855e                	mv	a0,s7
    59fe:	05b1                	addi	a1,a1,12
    5a00:	1fa020ef          	jal	ra,7bfa <inet_chksum_pseudo>
    5a04:	fd59                	bnez	a0,59a2 <tcp_input+0x5a>
    5a06:	90c18493          	addi	s1,gp,-1780 # 2000011c <tcphdr>
    5a0a:	409c                	lw	a5,0(s1)
    5a0c:	27c8                	fld	fa0,136(a5)
    5a0e:	37dc                	fld	fa5,168(a5)
    5a10:	07a2                	slli	a5,a5,0x8
    5a12:	8d5d                	or	a0,a0,a5
    5a14:	e9efd0ef          	jal	ra,30b2 <ntohs>
    5a18:	8131                	srli	a0,a0,0xc
    5a1a:	55f1                	li	a1,-4
    5a1c:	02b505b3          	mul	a1,a0,a1
    5a20:	855e                	mv	a0,s7
    5a22:	05c2                	slli	a1,a1,0x10
    5a24:	85c1                	srai	a1,a1,0x10
    5a26:	e02fe0ef          	jal	ra,4028 <pbuf_header>
    5a2a:	fd25                	bnez	a0,59a2 <tcp_input+0x5a>
    5a2c:	4080                	lw	s0,0(s1)
    5a2e:	301c                	fld	fa5,32(s0)
    5a30:	2008                	fld	fa0,0(s0)
    5a32:	07a2                	slli	a5,a5,0x8
    5a34:	8d5d                	or	a0,a0,a5
    5a36:	e7cfd0ef          	jal	ra,30b2 <ntohs>
    5a3a:	a008                	fsd	fa0,0(s0)
    5a3c:	8121                	srli	a0,a0,0x8
    5a3e:	b008                	fsd	fa0,32(s0)
    5a40:	4080                	lw	s0,0(s1)
    5a42:	303c                	fld	fa5,96(s0)
    5a44:	2028                	fld	fa0,64(s0)
    5a46:	07a2                	slli	a5,a5,0x8
    5a48:	8d5d                	or	a0,a0,a5
    5a4a:	e68fd0ef          	jal	ra,30b2 <ntohs>
    5a4e:	a028                	fsd	fa0,64(s0)
    5a50:	8121                	srli	a0,a0,0x8
    5a52:	b028                	fsd	fa0,96(s0)
    5a54:	4080                	lw	s0,0(s1)
    5a56:	3048                	fld	fa0,160(s0)
    5a58:	205c                	fld	fa5,128(s0)
    5a5a:	0522                	slli	a0,a0,0x8
    5a5c:	8d5d                	or	a0,a0,a5
    5a5e:	207c                	fld	fa5,192(s0)
    5a60:	07c2                	slli	a5,a5,0x10
    5a62:	8fc9                	or	a5,a5,a0
    5a64:	3068                	fld	fa0,224(s0)
    5a66:	0562                	slli	a0,a0,0x18
    5a68:	8d5d                	or	a0,a0,a5
    5a6a:	e7afd0ef          	jal	ra,30e4 <ntohl>
    5a6e:	00855793          	srli	a5,a0,0x8
    5a72:	b05c                	fsd	fa5,160(s0)
    5a74:	01055793          	srli	a5,a0,0x10
    5a78:	a07c                	fsd	fa5,192(s0)
    5a7a:	01855793          	srli	a5,a0,0x18
    5a7e:	a048                	fsd	fa0,128(s0)
    5a80:	b07c                	fsd	fa5,224(s0)
    5a82:	4080                	lw	s0,0(s1)
    5a84:	90a1a223          	sw	a0,-1788(gp) # 20000114 <seqno>
    5a88:	90418a93          	addi	s5,gp,-1788 # 20000114 <seqno>
    5a8c:	3408                	fld	fa0,40(s0)
    5a8e:	241c                	fld	fa5,8(s0)
    5a90:	0522                	slli	a0,a0,0x8
    5a92:	8d5d                	or	a0,a0,a5
    5a94:	243c                	fld	fa5,72(s0)
    5a96:	07c2                	slli	a5,a5,0x10
    5a98:	8fc9                	or	a5,a5,a0
    5a9a:	3428                	fld	fa0,104(s0)
    5a9c:	0562                	slli	a0,a0,0x18
    5a9e:	8d5d                	or	a0,a0,a5
    5aa0:	e44fd0ef          	jal	ra,30e4 <ntohl>
    5aa4:	00855793          	srli	a5,a0,0x8
    5aa8:	b41c                	fsd	fa5,40(s0)
    5aaa:	01055793          	srli	a5,a0,0x10
    5aae:	a43c                	fsd	fa5,72(s0)
    5ab0:	01855793          	srli	a5,a0,0x18
    5ab4:	a408                	fsd	fa0,8(s0)
    5ab6:	b43c                	fsd	fa5,104(s0)
    5ab8:	4080                	lw	s0,0(s1)
    5aba:	8ea1a823          	sw	a0,-1808(gp) # 20000100 <ackno>
    5abe:	8f018913          	addi	s2,gp,-1808 # 20000100 <ackno>
    5ac2:	347c                	fld	fa5,232(s0)
    5ac4:	2468                	fld	fa0,200(s0)
    5ac6:	07a2                	slli	a5,a5,0x8
    5ac8:	8d5d                	or	a0,a0,a5
    5aca:	de8fd0ef          	jal	ra,30b2 <ntohs>
    5ace:	409c                	lw	a5,0(s1)
    5ad0:	a468                	fsd	fa0,200(s0)
    5ad2:	8121                	srli	a0,a0,0x8
    5ad4:	b468                	fsd	fa0,232(s0)
    5ad6:	27c8                	fld	fa0,136(a5)
    5ad8:	37dc                	fld	fa5,168(a5)
    5ada:	07a2                	slli	a5,a5,0x8
    5adc:	8d5d                	or	a0,a0,a5
    5ade:	dd4fd0ef          	jal	ra,30b2 <ntohs>
    5ae2:	0ff57813          	andi	a6,a0,255
    5ae6:	008bd883          	lhu	a7,8(s7)
    5aea:	00387593          	andi	a1,a6,3
    5aee:	00b035b3          	snez	a1,a1
    5af2:	95c6                	add	a1,a1,a7
    5af4:	8d41a303          	lw	t1,-1836(gp) # 200000e4 <tcp_active_pcbs>
    5af8:	05c2                	slli	a1,a1,0x10
    5afa:	4094                	lw	a3,0(s1)
    5afc:	000b2603          	lw	a2,0(s6)
    5b00:	03f87793          	andi	a5,a6,63
    5b04:	81c1                	srli	a1,a1,0x10
    5b06:	8ef18a23          	sb	a5,-1804(gp) # 20000104 <flags>
    5b0a:	90b19823          	sh	a1,-1776(gp) # 20000120 <tcplen>
    5b0e:	841a                	mv	s0,t1
    5b10:	4501                	li	a0,0
    5b12:	8f418c93          	addi	s9,gp,-1804 # 20000104 <flags>
    5b16:	91018c13          	addi	s8,gp,-1776 # 20000120 <tcplen>
    5b1a:	e401                	bnez	s0,5b22 <tcp_input+0x1da>
    5b1c:	8ec1a503          	lw	a0,-1812(gp) # 200000fc <tcp_tw_pcbs>
    5b20:	a2d9                	j	5ce6 <tcp_input+0x39e>
    5b22:	329c                	fld	fa5,32(a3)
    5b24:	0006ce03          	lbu	t3,0(a3)
    5b28:	305a                	fld	ft0,432(sp)
    5b2a:	07a2                	slli	a5,a5,0x8
    5b2c:	01c7e7b3          	or	a5,a5,t3
    5b30:	0ef71063          	bne	a4,a5,5c10 <tcp_input+0x2c8>
    5b34:	32bc                	fld	fa5,96(a3)
    5b36:	0026ce03          	lbu	t3,2(a3)
    5b3a:	2c5a                	fld	fs8,400(sp)
    5b3c:	07a2                	slli	a5,a5,0x8
    5b3e:	01c7e7b3          	or	a5,a5,t3
    5b42:	0cf71763          	bne	a4,a5,5c10 <tcp_input+0x2c8>
    5b46:	3658                	fld	fa4,168(a2)
    5b48:	265c                	fld	fa5,136(a2)
    5b4a:	0722                	slli	a4,a4,0x8
    5b4c:	8f5d                	or	a4,a4,a5
    5b4e:	267c                	fld	fa5,200(a2)
    5b50:	07c2                	slli	a5,a5,0x10
    5b52:	8f5d                	or	a4,a4,a5
    5b54:	367c                	fld	fa5,232(a2)
    5b56:	07e2                	slli	a5,a5,0x18
    5b58:	8fd9                	or	a5,a5,a4
    5b5a:	4058                	lw	a4,4(s0)
    5b5c:	0af71a63          	bne	a4,a5,5c10 <tcp_input+0x2c8>
    5b60:	3a18                	fld	fa4,48(a2)
    5b62:	2a1c                	fld	fa5,16(a2)
    5b64:	0722                	slli	a4,a4,0x8
    5b66:	8f5d                	or	a4,a4,a5
    5b68:	2a3c                	fld	fa5,80(a2)
    5b6a:	07c2                	slli	a5,a5,0x10
    5b6c:	8f5d                	or	a4,a4,a5
    5b6e:	3a3c                	fld	fa5,112(a2)
    5b70:	07e2                	slli	a5,a5,0x18
    5b72:	8fd9                	or	a5,a5,a4
    5b74:	4018                	lw	a4,0(s0)
    5b76:	08f71d63          	bne	a4,a5,5c10 <tcp_input+0x2c8>
    5b7a:	c519                	beqz	a0,5b88 <tcp_input+0x240>
    5b7c:	445c                	lw	a5,12(s0)
    5b7e:	8c81aa23          	sw	s0,-1836(gp) # 200000e4 <tcp_active_pcbs>
    5b82:	c55c                	sw	a5,12(a0)
    5b84:	00642623          	sw	t1,12(s0)
    5b88:	004ba703          	lw	a4,4(s7)
    5b8c:	08442603          	lw	a2,132(s0)
    5b90:	b0818793          	addi	a5,gp,-1272 # 20000318 <inseg>
    5b94:	8e01ae23          	sw	zero,-1796(gp) # 2000010c <recv_data>
    5b98:	90018023          	sb	zero,-1792(gp) # 20000110 <recv_flags>
    5b9c:	0007a023          	sw	zero,0(a5)
    5ba0:	01179623          	sh	a7,12(a5)
    5ba4:	c798                	sw	a4,8(a5)
    5ba6:	0177a223          	sw	s7,4(a5)
    5baa:	cb94                	sw	a3,16(a5)
    5bac:	90018a13          	addi	s4,gp,-1792 # 20000110 <recv_flags>
    5bb0:	8fc18d13          	addi	s10,gp,-1796 # 2000010c <recv_data>
    5bb4:	b0818d93          	addi	s11,gp,-1272 # 20000318 <inseg>
    5bb8:	ce09                	beqz	a2,5bd2 <tcp_input+0x28a>
    5bba:	08c42783          	lw	a5,140(s0)
    5bbe:	4681                	li	a3,0
    5bc0:	85a2                	mv	a1,s0
    5bc2:	2c078263          	beqz	a5,5e86 <tcp_input+0x53e>
    5bc6:	4c08                	lw	a0,24(s0)
    5bc8:	9782                	jalr	a5
    5bca:	dc051ce3          	bnez	a0,59a2 <tcp_input+0x5a>
    5bce:	08042223          	sw	zero,132(s0)
    5bd2:	000cc783          	lbu	a5,0(s9)
    5bd6:	9081a423          	sw	s0,-1784(gp) # 20000118 <tcp_input_pcb>
    5bda:	0047f713          	andi	a4,a5,4
    5bde:	90818b93          	addi	s7,gp,-1784 # 20000118 <tcp_input_pcb>
    5be2:	30070563          	beqz	a4,5eec <tcp_input+0x5a4>
    5be6:	4818                	lw	a4,16(s0)
    5be8:	4789                	li	a5,2
    5bea:	2af71263          	bne	a4,a5,5e8e <tcp_input+0x546>
    5bee:	4c78                	lw	a4,92(s0)
    5bf0:	00092783          	lw	a5,0(s2)
    5bf4:	2af71763          	bne	a4,a5,5ea2 <tcp_input+0x55a>
    5bf8:	000a4783          	lbu	a5,0(s4)
    5bfc:	0087e793          	ori	a5,a5,8
    5c00:	00fa0023          	sb	a5,0(s4)
    5c04:	02644783          	lbu	a5,38(s0)
    5c08:	9bf9                	andi	a5,a5,-2
    5c0a:	02f40323          	sb	a5,38(s0)
    5c0e:	ac51                	j	5ea2 <tcp_input+0x55a>
    5c10:	8522                	mv	a0,s0
    5c12:	4440                	lw	s0,12(s0)
    5c14:	b719                	j	5b1a <tcp_input+0x1d2>
    5c16:	3298                	fld	fa4,32(a3)
    5c18:	229c                	fld	fa5,0(a3)
    5c1a:	0722                	slli	a4,a4,0x8
    5c1c:	8f5d                	or	a4,a4,a5
    5c1e:	315e                	fld	ft2,496(sp)
    5c20:	0ce79263          	bne	a5,a4,5ce4 <tcp_input+0x39c>
    5c24:	0036c883          	lbu	a7,3(a3)
    5c28:	22b8                	fld	fa4,64(a3)
    5c2a:	08a2                	slli	a7,a7,0x8
    5c2c:	00e8e8b3          	or	a7,a7,a4
    5c30:	2d5a                	fld	fs10,400(sp)
    5c32:	0b171963          	bne	a4,a7,5ce4 <tcp_input+0x39c>
    5c36:	00d64303          	lbu	t1,13(a2) # 200d <SocketIPRawSend+0x7b>
    5c3a:	00c64883          	lbu	a7,12(a2)
    5c3e:	0322                	slli	t1,t1,0x8
    5c40:	01136333          	or	t1,t1,a7
    5c44:	00e64883          	lbu	a7,14(a2)
    5c48:	08c2                	slli	a7,a7,0x10
    5c4a:	0068e333          	or	t1,a7,t1
    5c4e:	00f64883          	lbu	a7,15(a2)
    5c52:	08e2                	slli	a7,a7,0x18
    5c54:	0068e8b3          	or	a7,a7,t1
    5c58:	00452303          	lw	t1,4(a0) # e0000004 <_eusrstack+0xbffe0004>
    5c5c:	09131463          	bne	t1,a7,5ce4 <tcp_input+0x39c>
    5c60:	01164303          	lbu	t1,17(a2)
    5c64:	01064883          	lbu	a7,16(a2)
    5c68:	0322                	slli	t1,t1,0x8
    5c6a:	01136333          	or	t1,t1,a7
    5c6e:	01264883          	lbu	a7,18(a2)
    5c72:	08c2                	slli	a7,a7,0x10
    5c74:	0068e333          	or	t1,a7,t1
    5c78:	01364883          	lbu	a7,19(a2)
    5c7c:	08e2                	slli	a7,a7,0x18
    5c7e:	0068e8b3          	or	a7,a7,t1
    5c82:	00052303          	lw	t1,0(a0)
    5c86:	05131f63          	bne	t1,a7,5ce4 <tcp_input+0x39c>
    5c8a:	00487693          	andi	a3,a6,4
    5c8e:	d0069ae3          	bnez	a3,59a2 <tcp_input+0x5a>
    5c92:	00287693          	andi	a3,a6,2
    5c96:	c68d                	beqz	a3,5cc0 <tcp_input+0x378>
    5c98:	000aa803          	lw	a6,0(s5)
    5c9c:	5514                	lw	a3,40(a0)
    5c9e:	40d806b3          	sub	a3,a6,a3
    5ca2:	0206c663          	bltz	a3,5cce <tcp_input+0x386>
    5ca6:	02c55883          	lhu	a7,44(a0)
    5caa:	411686b3          	sub	a3,a3,a7
    5cae:	02d04063          	bgtz	a3,5cce <tcp_input+0x386>
    5cb2:	00c60693          	addi	a3,a2,12
    5cb6:	95c2                	add	a1,a1,a6
    5cb8:	0641                	addi	a2,a2,16
    5cba:	00092503          	lw	a0,0(s2)
    5cbe:	a8f1                	j	5d9a <tcp_input+0x452>
    5cc0:	00187813          	andi	a6,a6,1
    5cc4:	00080563          	beqz	a6,5cce <tcp_input+0x386>
    5cc8:	8e01a783          	lw	a5,-1824(gp) # 200000f0 <tcp_ticks>
    5ccc:	d95c                	sw	a5,52(a0)
    5cce:	cc058ae3          	beqz	a1,59a2 <tcp_input+0x5a>
    5cd2:	02654783          	lbu	a5,38(a0)
    5cd6:	0027e793          	ori	a5,a5,2
    5cda:	02f50323          	sb	a5,38(a0)
    5cde:	3d7000ef          	jal	ra,68b4 <tcp_output>
    5ce2:	b1c1                	j	59a2 <tcp_input+0x5a>
    5ce4:	4548                	lw	a0,12(a0)
    5ce6:	f905                	bnez	a0,5c16 <tcp_input+0x2ce>
    5ce8:	8dc1a303          	lw	t1,-1828(gp) # 200000ec <tcp_listen_pcbs>
    5cec:	8e3e                	mv	t3,a5
    5cee:	8a1a                	mv	s4,t1
    5cf0:	040a1363          	bnez	s4,5d36 <tcp_input+0x3ee>
    5cf4:	36dc                	fld	fa5,168(a3)
    5cf6:	26c8                	fld	fa0,136(a3)
    5cf8:	07a2                	slli	a5,a5,0x8
    5cfa:	8d5d                	or	a0,a0,a5
    5cfc:	bb6fd0ef          	jal	ra,30b2 <ntohs>
    5d00:	8911                	andi	a0,a0,4
    5d02:	ca0510e3          	bnez	a0,59a2 <tcp_input+0x5a>
    5d06:	4094                	lw	a3,0(s1)
    5d08:	000b2603          	lw	a2,0(s6)
    5d0c:	000c5503          	lhu	a0,0(s8)
    5d10:	329c                	fld	fa5,32(a3)
    5d12:	32b8                	fld	fa4,96(a3)
    5d14:	0006c883          	lbu	a7,0(a3)
    5d18:	0026c803          	lbu	a6,2(a3)
    5d1c:	000aa583          	lw	a1,0(s5)
    5d20:	07a2                	slli	a5,a5,0x8
    5d22:	0722                	slli	a4,a4,0x8
    5d24:	00c60693          	addi	a3,a2,12
    5d28:	0117e7b3          	or	a5,a5,a7
    5d2c:	01076733          	or	a4,a4,a6
    5d30:	0641                	addi	a2,a2,16
    5d32:	95aa                	add	a1,a1,a0
    5d34:	b759                	j	5cba <tcp_input+0x372>
    5d36:	000a2883          	lw	a7,0(s4)
    5d3a:	00088e63          	beqz	a7,5d56 <tcp_input+0x40e>
    5d3e:	3a18                	fld	fa4,48(a2)
    5d40:	2a1c                	fld	fa5,16(a2)
    5d42:	0722                	slli	a4,a4,0x8
    5d44:	8f5d                	or	a4,a4,a5
    5d46:	2a3c                	fld	fa5,80(a2)
    5d48:	07c2                	slli	a5,a5,0x10
    5d4a:	8f5d                	or	a4,a4,a5
    5d4c:	3a3c                	fld	fa5,112(a2)
    5d4e:	07e2                	slli	a5,a5,0x18
    5d50:	8fd9                	or	a5,a5,a4
    5d52:	12f89663          	bne	a7,a5,5e7e <tcp_input+0x536>
    5d56:	32b8                	fld	fa4,96(a3)
    5d58:	22bc                	fld	fa5,64(a3)
    5d5a:	0722                	slli	a4,a4,0x8
    5d5c:	8f5d                	or	a4,a4,a5
    5d5e:	01ca5783          	lhu	a5,28(s4)
    5d62:	10e79e63          	bne	a5,a4,5e7e <tcp_input+0x536>
    5d66:	c901                	beqz	a0,5d76 <tcp_input+0x42e>
    5d68:	00ca2783          	lw	a5,12(s4)
    5d6c:	8d41ae23          	sw	s4,-1828(gp) # 200000ec <tcp_listen_pcbs>
    5d70:	c55c                	sw	a5,12(a0)
    5d72:	006a2623          	sw	t1,12(s4)
    5d76:	01087793          	andi	a5,a6,16
    5d7a:	c39d                	beqz	a5,5da0 <tcp_input+0x458>
    5d7c:	329c                	fld	fa5,32(a3)
    5d7e:	0006c883          	lbu	a7,0(a3)
    5d82:	000aa803          	lw	a6,0(s5)
    5d86:	00092503          	lw	a0,0(s2)
    5d8a:	07a2                	slli	a5,a5,0x8
    5d8c:	00c60693          	addi	a3,a2,12
    5d90:	0117e7b3          	or	a5,a5,a7
    5d94:	0641                	addi	a2,a2,16
    5d96:	95c2                	add	a1,a1,a6
    5d98:	0505                	addi	a0,a0,1
    5d9a:	671000ef          	jal	ra,6c0a <tcp_rst>
    5d9e:	b111                	j	59a2 <tcp_input+0x5a>
    5da0:	00287813          	andi	a6,a6,2
    5da4:	be080fe3          	beqz	a6,59a2 <tcp_input+0x5a>
    5da8:	014a4503          	lbu	a0,20(s4)
    5dac:	f11fe0ef          	jal	ra,4cbc <tcp_alloc>
    5db0:	842a                	mv	s0,a0
    5db2:	be0508e3          	beqz	a0,59a2 <tcp_input+0x5a>
    5db6:	000b2783          	lw	a5,0(s6)
    5dba:	4701                	li	a4,0
    5dbc:	01078693          	addi	a3,a5,16
    5dc0:	ca99                	beqz	a3,5dd6 <tcp_input+0x48e>
    5dc2:	3b94                	fld	fa3,48(a5)
    5dc4:	2b98                	fld	fa4,16(a5)
    5dc6:	06a2                	slli	a3,a3,0x8
    5dc8:	8ed9                	or	a3,a3,a4
    5dca:	2bb8                	fld	fa4,80(a5)
    5dcc:	0742                	slli	a4,a4,0x10
    5dce:	8ed9                	or	a3,a3,a4
    5dd0:	3bb8                	fld	fa4,112(a5)
    5dd2:	0762                	slli	a4,a4,0x18
    5dd4:	8f55                	or	a4,a4,a3
    5dd6:	c018                	sw	a4,0(s0)
    5dd8:	01ca5703          	lhu	a4,28(s4)
    5ddc:	00c78693          	addi	a3,a5,12
    5de0:	ac5a                	fsd	fs6,24(sp)
    5de2:	4701                	li	a4,0
    5de4:	ca99                	beqz	a3,5dfa <tcp_input+0x4b2>
    5de6:	37d4                	fld	fa3,168(a5)
    5de8:	27d8                	fld	fa4,136(a5)
    5dea:	06a2                	slli	a3,a3,0x8
    5dec:	8ed9                	or	a3,a3,a4
    5dee:	27f8                	fld	fa4,200(a5)
    5df0:	0742                	slli	a4,a4,0x10
    5df2:	8ed9                	or	a3,a3,a4
    5df4:	37f8                	fld	fa4,232(a5)
    5df6:	0762                	slli	a4,a4,0x18
    5df8:	8f55                	or	a4,a4,a3
    5dfa:	4094                	lw	a3,0(s1)
    5dfc:	c058                	sw	a4,4(s0)
    5dfe:	03c40513          	addi	a0,s0,60
    5e02:	329c                	fld	fa5,32(a3)
    5e04:	2298                	fld	fa4,0(a3)
    5e06:	07a2                	slli	a5,a5,0x8
    5e08:	8fd9                	or	a5,a5,a4
    5e0a:	000aa703          	lw	a4,0(s5)
    5e0e:	b05e                	fsd	fs7,32(sp)
    5e10:	478d                	li	a5,3
    5e12:	c81c                	sw	a5,16(s0)
    5e14:	00170793          	addi	a5,a4,1
    5e18:	d41c                	sw	a5,40(s0)
    5e1a:	d81c                	sw	a5,48(s0)
    5e1c:	36fc                	fld	fa5,232(a3)
    5e1e:	26f0                	fld	fa2,200(a3)
    5e20:	177d                	addi	a4,a4,-1
    5e22:	07a2                	slli	a5,a5,0x8
    5e24:	8fd1                	or	a5,a5,a2
    5e26:	06f41023          	sh	a5,96(s0)
    5e2a:	04f41c23          	sh	a5,88(s0)
    5e2e:	018a2783          	lw	a5,24(s4)
    5e32:	d078                	sw	a4,100(s0)
    5e34:	cc1c                	sw	a5,24(s0)
    5e36:	020a2783          	lw	a5,32(s4)
    5e3a:	d01c                	sw	a5,32(s0)
    5e3c:	008a5783          	lhu	a5,8(s4)
    5e40:	1997f793          	andi	a5,a5,409
    5e44:	a41e                	fsd	ft7,8(sp)
    5e46:	8d41a783          	lw	a5,-1836(gp) # 200000e4 <tcp_active_pcbs>
    5e4a:	8c81aa23          	sw	s0,-1836(gp) # 200000e4 <tcp_active_pcbs>
    5e4e:	c45c                	sw	a5,12(s0)
    5e50:	a57ff0ef          	jal	ra,58a6 <tcp_parseopt.isra.0>
    5e54:	3c4a                	fld	fs8,176(sp)
    5e56:	00440593          	addi	a1,s0,4
    5e5a:	fa3fe0ef          	jal	ra,4dfc <tcp_eff_send_mss>
    5e5e:	bc4a                	fsd	fs2,56(sp)
    5e60:	4785                	li	a5,1
    5e62:	4701                	li	a4,0
    5e64:	46c9                	li	a3,18
    5e66:	4601                	li	a2,0
    5e68:	4581                	li	a1,0
    5e6a:	8522                	mv	a0,s0
    5e6c:	2ba9                	jal	63c6 <tcp_enqueue>
    5e6e:	c511                	beqz	a0,5e7a <tcp_input+0x532>
    5e70:	4581                	li	a1,0
    5e72:	8522                	mv	a0,s0
    5e74:	da1fe0ef          	jal	ra,4c14 <tcp_abandon>
    5e78:	b62d                	j	59a2 <tcp_input+0x5a>
    5e7a:	8522                	mv	a0,s0
    5e7c:	b58d                	j	5cde <tcp_input+0x396>
    5e7e:	8552                	mv	a0,s4
    5e80:	00ca2a03          	lw	s4,12(s4)
    5e84:	b5b5                	j	5cf0 <tcp_input+0x3a8>
    5e86:	4501                	li	a0,0
    5e88:	cd9fe0ef          	jal	ra,4b60 <tcp_recv_null>
    5e8c:	bb3d                	j	5bca <tcp_input+0x282>
    5e8e:	000aa783          	lw	a5,0(s5)
    5e92:	5418                	lw	a4,40(s0)
    5e94:	8f99                	sub	a5,a5,a4
    5e96:	0007c663          	bltz	a5,5ea2 <tcp_input+0x55a>
    5e9a:	345a                	fld	fs0,432(sp)
    5e9c:	8f99                	sub	a5,a5,a4
    5e9e:	d4f05de3          	blez	a5,5bf8 <tcp_input+0x2b0>
    5ea2:	000a4783          	lbu	a5,0(s4)
    5ea6:	0087f713          	andi	a4,a5,8
    5eaa:	3c070863          	beqz	a4,627a <tcp_input+0x932>
    5eae:	00f10593          	addi	a1,sp,15
    5eb2:	8522                	mv	a0,s0
    5eb4:	cb7fb0ef          	jal	ra,1b6a <WCHFindCorrectTCBPcb>
    5eb8:	4785                	li	a5,1
    5eba:	00f51663          	bne	a0,a5,5ec6 <tcp_input+0x57e>
    5ebe:	4818                	lw	a4,16(s0)
    5ec0:	4789                	li	a5,2
    5ec2:	1af70a63          	beq	a4,a5,6076 <tcp_input+0x72e>
    5ec6:	8522                	mv	a0,s0
    5ec8:	ae0fc0ef          	jal	ra,21a8 <LwipRemoveTcpPcb>
    5ecc:	09842783          	lw	a5,152(s0)
    5ed0:	c781                	beqz	a5,5ed8 <tcp_input+0x590>
    5ed2:	4c08                	lw	a0,24(s0)
    5ed4:	55e9                	li	a1,-6
    5ed6:	9782                	jalr	a5
    5ed8:	85a2                	mv	a1,s0
    5eda:	8d418513          	addi	a0,gp,-1836 # 200000e4 <tcp_active_pcbs>
    5ede:	b5ffe0ef          	jal	ra,4a3c <tcp_pcb_remove>
    5ee2:	85a2                	mv	a1,s0
    5ee4:	4509                	li	a0,2
    5ee6:	fe3fd0ef          	jal	ra,3ec8 <memp_free>
    5eea:	a271                	j	6076 <tcp_input+0x72e>
    5eec:	8b89                	andi	a5,a5,2
    5eee:	c385                	beqz	a5,5f0e <tcp_input+0x5c6>
    5ef0:	481c                	lw	a5,16(s0)
    5ef2:	4705                	li	a4,1
    5ef4:	17f9                	addi	a5,a5,-2
    5ef6:	00f77c63          	bgeu	a4,a5,5f0e <tcp_input+0x5c6>
    5efa:	02644783          	lbu	a5,38(s0)
    5efe:	8522                	mv	a0,s0
    5f00:	0027e793          	ori	a5,a5,2
    5f04:	02f40323          	sb	a5,38(s0)
    5f08:	1ad000ef          	jal	ra,68b4 <tcp_output>
    5f0c:	bf59                	j	5ea2 <tcp_input+0x55a>
    5f0e:	8e01a783          	lw	a5,-1824(gp) # 200000f0 <tcp_ticks>
    5f12:	0a0406a3          	sb	zero,173(s0)
    5f16:	03c40513          	addi	a0,s0,60
    5f1a:	d85c                	sw	a5,52(s0)
    5f1c:	98bff0ef          	jal	ra,58a6 <tcp_parseopt.isra.0>
    5f20:	481c                	lw	a5,16(s0)
    5f22:	471d                	li	a4,7
    5f24:	17f9                	addi	a5,a5,-2
    5f26:	f6f76ee3          	bltu	a4,a5,5ea2 <tcp_input+0x55a>
    5f2a:	6721                	lui	a4,0x8
    5f2c:	078a                	slli	a5,a5,0x2
    5f2e:	5ac70713          	addi	a4,a4,1452 # 85ac <tcp_backoff+0x14>
    5f32:	97ba                	add	a5,a5,a4
    5f34:	439c                	lw	a5,0(a5)
    5f36:	8782                	jr	a5
    5f38:	000cc783          	lbu	a5,0(s9)
    5f3c:	4749                	li	a4,18
    5f3e:	8bc9                	andi	a5,a5,18
    5f40:	0ae79b63          	bne	a5,a4,5ff6 <tcp_input+0x6ae>
    5f44:	5c7c                	lw	a5,124(s0)
    5f46:	4b98                	lw	a4,16(a5)
    5f48:	3348                	fld	fa0,160(a4)
    5f4a:	235c                	fld	fa5,128(a4)
    5f4c:	0522                	slli	a0,a0,0x8
    5f4e:	8d5d                	or	a0,a0,a5
    5f50:	237c                	fld	fa5,192(a4)
    5f52:	07c2                	slli	a5,a5,0x10
    5f54:	8fc9                	or	a5,a5,a0
    5f56:	3368                	fld	fa0,224(a4)
    5f58:	0562                	slli	a0,a0,0x18
    5f5a:	8d5d                	or	a0,a0,a5
    5f5c:	988fd0ef          	jal	ra,30e4 <ntohl>
    5f60:	00092783          	lw	a5,0(s2)
    5f64:	0505                	addi	a0,a0,1
    5f66:	08f51863          	bne	a0,a5,5ff6 <tcp_input+0x6ae>
    5f6a:	07245783          	lhu	a5,114(s0)
    5f6e:	000aa703          	lw	a4,0(s5)
    5f72:	4094                	lw	a3,0(s1)
    5f74:	0785                	addi	a5,a5,1
    5f76:	06f41923          	sh	a5,114(s0)
    5f7a:	00170793          	addi	a5,a4,1
    5f7e:	c828                	sw	a0,80(s0)
    5f80:	d41c                	sw	a5,40(s0)
    5f82:	d81c                	sw	a5,48(s0)
    5f84:	36fc                	fld	fa5,232(a3)
    5f86:	26f0                	fld	fa2,200(a3)
    5f88:	3c4a                	fld	fs8,176(sp)
    5f8a:	07a2                	slli	a5,a5,0x8
    5f8c:	8fd1                	or	a5,a5,a2
    5f8e:	177d                	addi	a4,a4,-1
    5f90:	06f41023          	sh	a5,96(s0)
    5f94:	4791                	li	a5,4
    5f96:	d078                	sw	a4,100(s0)
    5f98:	c81c                	sw	a5,16(s0)
    5f9a:	00440593          	addi	a1,s0,4
    5f9e:	e5ffe0ef          	jal	ra,4dfc <tcp_eff_send_mss>
    5fa2:	47a9                	li	a5,10
    5fa4:	02f507b3          	mul	a5,a0,a5
    5fa8:	05645703          	lhu	a4,86(s0)
    5fac:	bc4a                	fsd	fs2,56(sp)
    5fae:	04f41c23          	sh	a5,88(s0)
    5fb2:	4785                	li	a5,1
    5fb4:	00f71563          	bne	a4,a5,5fbe <tcp_input+0x676>
    5fb8:	0506                	slli	a0,a0,0x1
    5fba:	0542                	slli	a0,a0,0x10
    5fbc:	8141                	srli	a0,a0,0x10
    5fbe:	07445783          	lhu	a5,116(s0)
    5fc2:	04a41b23          	sh	a0,86(s0)
    5fc6:	5c68                	lw	a0,124(s0)
    5fc8:	17fd                	addi	a5,a5,-1
    5fca:	06f41a23          	sh	a5,116(s0)
    5fce:	411c                	lw	a5,0(a0)
    5fd0:	dc7c                	sw	a5,124(s0)
    5fd2:	ef89                	bnez	a5,5fec <tcp_input+0x6a4>
    5fd4:	57fd                	li	a5,-1
    5fd6:	bc3e                	fsd	fa5,56(sp)
    5fd8:	ee6fe0ef          	jal	ra,46be <tcp_seg_free>
    5fdc:	09042783          	lw	a5,144(s0)
    5fe0:	df89                	beqz	a5,5efa <tcp_input+0x5b2>
    5fe2:	4c08                	lw	a0,24(s0)
    5fe4:	4601                	li	a2,0
    5fe6:	85a2                	mv	a1,s0
    5fe8:	9782                	jalr	a5
    5fea:	bf01                	j	5efa <tcp_input+0x5b2>
    5fec:	02041d23          	sh	zero,58(s0)
    5ff0:	04040723          	sb	zero,78(s0)
    5ff4:	b7d5                	j	5fd8 <tcp_input+0x690>
    5ff6:	000cc783          	lbu	a5,0(s9)
    5ffa:	8bc1                	andi	a5,a5,16
    5ffc:	ea0783e3          	beqz	a5,5ea2 <tcp_input+0x55a>
    6000:	4094                	lw	a3,0(s1)
    6002:	000c5503          	lhu	a0,0(s8)
    6006:	000aa583          	lw	a1,0(s5)
    600a:	329c                	fld	fa5,32(a3)
    600c:	32b8                	fld	fa4,96(a3)
    600e:	000b2603          	lw	a2,0(s6)
    6012:	0006c883          	lbu	a7,0(a3)
    6016:	0026c803          	lbu	a6,2(a3)
    601a:	95aa                	add	a1,a1,a0
    601c:	00092503          	lw	a0,0(s2)
    6020:	07a2                	slli	a5,a5,0x8
    6022:	0722                	slli	a4,a4,0x8
    6024:	00c60693          	addi	a3,a2,12
    6028:	0117e7b3          	or	a5,a5,a7
    602c:	01076733          	or	a4,a4,a6
    6030:	0641                	addi	a2,a2,16
    6032:	3d9000ef          	jal	ra,6c0a <tcp_rst>
    6036:	b5b5                	j	5ea2 <tcp_input+0x55a>
    6038:	000cc783          	lbu	a5,0(s9)
    603c:	0107f713          	andi	a4,a5,16
    6040:	c761                	beqz	a4,6108 <tcp_input+0x7c0>
    6042:	00092503          	lw	a0,0(s2)
    6046:	4838                	lw	a4,80(s0)
    6048:	fff50793          	addi	a5,a0,-1
    604c:	8f99                	sub	a5,a5,a4
    604e:	0807c563          	bltz	a5,60d8 <tcp_input+0x790>
    6052:	4c7c                	lw	a5,92(s0)
    6054:	40f507b3          	sub	a5,a0,a5
    6058:	08f04063          	bgtz	a5,60d8 <tcp_input+0x790>
    605c:	4791                	li	a5,4
    605e:	c81c                	sw	a5,16(s0)
    6060:	501c                	lw	a5,32(s0)
    6062:	c78d                	beqz	a5,608c <tcp_input+0x744>
    6064:	4c08                	lw	a0,24(s0)
    6066:	4601                	li	a2,0
    6068:	85a2                	mv	a1,s0
    606a:	9782                	jalr	a5
    606c:	c105                	beqz	a0,608c <tcp_input+0x744>
    606e:	4585                	li	a1,1
    6070:	8522                	mv	a0,s0
    6072:	ba3fe0ef          	jal	ra,4c14 <tcp_abandon>
    6076:	004da503          	lw	a0,4(s11)
    607a:	000ba023          	sw	zero,0(s7)
    607e:	920505e3          	beqz	a0,59a8 <tcp_input+0x60>
    6082:	814fe0ef          	jal	ra,4096 <pbuf_free>
    6086:	000da223          	sw	zero,4(s11)
    608a:	ba39                	j	59a8 <tcp_input+0x60>
    608c:	8522                	mv	a0,s0
    608e:	05645483          	lhu	s1,86(s0)
    6092:	f4dfe0ef          	jal	ra,4fde <tcp_receive>
    6096:	07045783          	lhu	a5,112(s0)
    609a:	c781                	beqz	a5,60a2 <tcp_input+0x75a>
    609c:	17fd                	addi	a5,a5,-1
    609e:	06f41823          	sh	a5,112(s0)
    60a2:	4705                	li	a4,1
    60a4:	3c5e                	fld	fs8,496(sp)
    60a6:	00e49563          	bne	s1,a4,60b0 <tcp_input+0x768>
    60aa:	0786                	slli	a5,a5,0x1
    60ac:	07c2                	slli	a5,a5,0x10
    60ae:	83c1                	srli	a5,a5,0x10
    60b0:	04f41b23          	sh	a5,86(s0)
    60b4:	000a4783          	lbu	a5,0(s4)
    60b8:	0207f793          	andi	a5,a5,32
    60bc:	de0783e3          	beqz	a5,5ea2 <tcp_input+0x55a>
    60c0:	02644783          	lbu	a5,38(s0)
    60c4:	8522                	mv	a0,s0
    60c6:	0027e793          	ori	a5,a5,2
    60ca:	02f40323          	sb	a5,38(s0)
    60ce:	7e6000ef          	jal	ra,68b4 <tcp_output>
    60d2:	479d                	li	a5,7
    60d4:	c81c                	sw	a5,16(s0)
    60d6:	b3f1                	j	5ea2 <tcp_input+0x55a>
    60d8:	4094                	lw	a3,0(s1)
    60da:	000b2603          	lw	a2,0(s6)
    60de:	000c5803          	lhu	a6,0(s8)
    60e2:	329c                	fld	fa5,32(a3)
    60e4:	32b8                	fld	fa4,96(a3)
    60e6:	0006c303          	lbu	t1,0(a3)
    60ea:	0026c883          	lbu	a7,2(a3)
    60ee:	000aa583          	lw	a1,0(s5)
    60f2:	07a2                	slli	a5,a5,0x8
    60f4:	0722                	slli	a4,a4,0x8
    60f6:	00c60693          	addi	a3,a2,12
    60fa:	0067e7b3          	or	a5,a5,t1
    60fe:	01176733          	or	a4,a4,a7
    6102:	0641                	addi	a2,a2,16
    6104:	95c2                	add	a1,a1,a6
    6106:	b735                	j	6032 <tcp_input+0x6ea>
    6108:	8b89                	andi	a5,a5,2
    610a:	d8078ce3          	beqz	a5,5ea2 <tcp_input+0x55a>
    610e:	541c                	lw	a5,40(s0)
    6110:	000aa703          	lw	a4,0(s5)
    6114:	17fd                	addi	a5,a5,-1
    6116:	d8e796e3          	bne	a5,a4,5ea2 <tcp_input+0x55a>
    611a:	8522                	mv	a0,s0
    611c:	427000ef          	jal	ra,6d42 <tcp_rexmit>
    6120:	b349                	j	5ea2 <tcp_input+0x55a>
    6122:	8522                	mv	a0,s0
    6124:	ebbfe0ef          	jal	ra,4fde <tcp_receive>
    6128:	b771                	j	60b4 <tcp_input+0x76c>
    612a:	8522                	mv	a0,s0
    612c:	eb3fe0ef          	jal	ra,4fde <tcp_receive>
    6130:	000a4783          	lbu	a5,0(s4)
    6134:	0207f793          	andi	a5,a5,32
    6138:	c3c1                	beqz	a5,61b8 <tcp_input+0x870>
    613a:	000cc703          	lbu	a4,0(s9)
    613e:	02644783          	lbu	a5,38(s0)
    6142:	8b41                	andi	a4,a4,16
    6144:	0027e793          	ori	a5,a5,2
    6148:	c32d                	beqz	a4,61aa <tcp_input+0x862>
    614a:	4c74                	lw	a3,92(s0)
    614c:	00092703          	lw	a4,0(s2)
    6150:	04e69d63          	bne	a3,a4,61aa <tcp_input+0x862>
    6154:	02f40323          	sb	a5,38(s0)
    6158:	8522                	mv	a0,s0
    615a:	75a000ef          	jal	ra,68b4 <tcp_output>
    615e:	8522                	mv	a0,s0
    6160:	deefe0ef          	jal	ra,474e <tcp_pcb_purge>
    6164:	8d41a783          	lw	a5,-1836(gp) # 200000e4 <tcp_active_pcbs>
    6168:	00f41d63          	bne	s0,a5,6182 <tcp_input+0x83a>
    616c:	445c                	lw	a5,12(s0)
    616e:	8cf1aa23          	sw	a5,-1836(gp) # 200000e4 <tcp_active_pcbs>
    6172:	47a9                	li	a5,10
    6174:	c81c                	sw	a5,16(s0)
    6176:	8ec1a703          	lw	a4,-1812(gp) # 200000fc <tcp_tw_pcbs>
    617a:	8e81a623          	sw	s0,-1812(gp) # 200000fc <tcp_tw_pcbs>
    617e:	c458                	sw	a4,12(s0)
    6180:	b30d                	j	5ea2 <tcp_input+0x55a>
    6182:	8ef1a423          	sw	a5,-1816(gp) # 200000f8 <tcp_tmp_pcb>
    6186:	4681                	li	a3,0
    6188:	e789                	bnez	a5,6192 <tcp_input+0x84a>
    618a:	d6e5                	beqz	a3,6172 <tcp_input+0x82a>
    618c:	8e01a423          	sw	zero,-1816(gp) # 200000f8 <tcp_tmp_pcb>
    6190:	b7cd                	j	6172 <tcp_input+0x82a>
    6192:	47d0                	lw	a2,12(a5)
    6194:	00c41863          	bne	s0,a2,61a4 <tcp_input+0x85c>
    6198:	c299                	beqz	a3,619e <tcp_input+0x856>
    619a:	8ef1a423          	sw	a5,-1816(gp) # 200000f8 <tcp_tmp_pcb>
    619e:	4458                	lw	a4,12(s0)
    61a0:	c7d8                	sw	a4,12(a5)
    61a2:	bfc1                	j	6172 <tcp_input+0x82a>
    61a4:	4685                	li	a3,1
    61a6:	87b2                	mv	a5,a2
    61a8:	b7c5                	j	6188 <tcp_input+0x840>
    61aa:	02f40323          	sb	a5,38(s0)
    61ae:	8522                	mv	a0,s0
    61b0:	704000ef          	jal	ra,68b4 <tcp_output>
    61b4:	47a1                	li	a5,8
    61b6:	bf39                	j	60d4 <tcp_input+0x78c>
    61b8:	000cc783          	lbu	a5,0(s9)
    61bc:	8bc1                	andi	a5,a5,16
    61be:	ce0782e3          	beqz	a5,5ea2 <tcp_input+0x55a>
    61c2:	4c78                	lw	a4,92(s0)
    61c4:	00092783          	lw	a5,0(s2)
    61c8:	ccf71de3          	bne	a4,a5,5ea2 <tcp_input+0x55a>
    61cc:	4799                	li	a5,6
    61ce:	b719                	j	60d4 <tcp_input+0x78c>
    61d0:	8522                	mv	a0,s0
    61d2:	e0dfe0ef          	jal	ra,4fde <tcp_receive>
    61d6:	000a4783          	lbu	a5,0(s4)
    61da:	0207f793          	andi	a5,a5,32
    61de:	cc0782e3          	beqz	a5,5ea2 <tcp_input+0x55a>
    61e2:	02644783          	lbu	a5,38(s0)
    61e6:	8522                	mv	a0,s0
    61e8:	0027e793          	ori	a5,a5,2
    61ec:	02f40323          	sb	a5,38(s0)
    61f0:	6c4000ef          	jal	ra,68b4 <tcp_output>
    61f4:	8522                	mv	a0,s0
    61f6:	d58fe0ef          	jal	ra,474e <tcp_pcb_purge>
    61fa:	8d41a783          	lw	a5,-1836(gp) # 200000e4 <tcp_active_pcbs>
    61fe:	f6f407e3          	beq	s0,a5,616c <tcp_input+0x824>
    6202:	8ef1a423          	sw	a5,-1816(gp) # 200000f8 <tcp_tmp_pcb>
    6206:	4681                	li	a3,0
    6208:	d3c9                	beqz	a5,618a <tcp_input+0x842>
    620a:	47d0                	lw	a2,12(a5)
    620c:	f8c406e3          	beq	s0,a2,6198 <tcp_input+0x850>
    6210:	4685                	li	a3,1
    6212:	87b2                	mv	a5,a2
    6214:	bfd5                	j	6208 <tcp_input+0x8c0>
    6216:	8522                	mv	a0,s0
    6218:	dc7fe0ef          	jal	ra,4fde <tcp_receive>
    621c:	000cc783          	lbu	a5,0(s9)
    6220:	8bc1                	andi	a5,a5,16
    6222:	c80780e3          	beqz	a5,5ea2 <tcp_input+0x55a>
    6226:	4c78                	lw	a4,92(s0)
    6228:	00092783          	lw	a5,0(s2)
    622c:	c6f71be3          	bne	a4,a5,5ea2 <tcp_input+0x55a>
    6230:	8522                	mv	a0,s0
    6232:	d1cfe0ef          	jal	ra,474e <tcp_pcb_purge>
    6236:	8d41a783          	lw	a5,-1836(gp) # 200000e4 <tcp_active_pcbs>
    623a:	f2f409e3          	beq	s0,a5,616c <tcp_input+0x824>
    623e:	8ef1a423          	sw	a5,-1816(gp) # 200000f8 <tcp_tmp_pcb>
    6242:	4681                	li	a3,0
    6244:	d3b9                	beqz	a5,618a <tcp_input+0x842>
    6246:	47d0                	lw	a2,12(a5)
    6248:	f4c408e3          	beq	s0,a2,6198 <tcp_input+0x850>
    624c:	4685                	li	a3,1
    624e:	87b2                	mv	a5,a2
    6250:	bfd5                	j	6244 <tcp_input+0x8fc>
    6252:	8522                	mv	a0,s0
    6254:	d8bfe0ef          	jal	ra,4fde <tcp_receive>
    6258:	000cc783          	lbu	a5,0(s9)
    625c:	8bc1                	andi	a5,a5,16
    625e:	c40782e3          	beqz	a5,5ea2 <tcp_input+0x55a>
    6262:	4c78                	lw	a4,92(s0)
    6264:	00092783          	lw	a5,0(s2)
    6268:	c2f71de3          	bne	a4,a5,5ea2 <tcp_input+0x55a>
    626c:	000a4783          	lbu	a5,0(s4)
    6270:	0107e793          	ori	a5,a5,16
    6274:	00fa0023          	sb	a5,0(s4)
    6278:	b12d                	j	5ea2 <tcp_input+0x55a>
    627a:	8bc1                	andi	a5,a5,16
    627c:	c789                	beqz	a5,6286 <tcp_input+0x93e>
    627e:	8522                	mv	a0,s0
    6280:	f29fb0ef          	jal	ra,21a8 <LwipRemoveTcpPcb>
    6284:	b991                	j	5ed8 <tcp_input+0x590>
    6286:	07045603          	lhu	a2,112(s0)
    628a:	c619                	beqz	a2,6298 <tcp_input+0x950>
    628c:	08842783          	lw	a5,136(s0)
    6290:	c781                	beqz	a5,6298 <tcp_input+0x950>
    6292:	4c08                	lw	a0,24(s0)
    6294:	85a2                	mv	a1,s0
    6296:	9782                	jalr	a5
    6298:	000d2603          	lw	a2,0(s10)
    629c:	c60d                	beqz	a2,62c6 <tcp_input+0x97e>
    629e:	000cc783          	lbu	a5,0(s9)
    62a2:	8ba1                	andi	a5,a5,8
    62a4:	c789                	beqz	a5,62ae <tcp_input+0x966>
    62a6:	365c                	fld	fa5,168(a2)
    62a8:	0017e793          	ori	a5,a5,1
    62ac:	b65c                	fsd	fa5,168(a2)
    62ae:	08c42783          	lw	a5,140(s0)
    62b2:	4681                	li	a3,0
    62b4:	85a2                	mv	a1,s0
    62b6:	cb95                	beqz	a5,62ea <tcp_input+0x9a2>
    62b8:	4c08                	lw	a0,24(s0)
    62ba:	9782                	jalr	a5
    62bc:	c509                	beqz	a0,62c6 <tcp_input+0x97e>
    62be:	000d2783          	lw	a5,0(s10)
    62c2:	08f42223          	sw	a5,132(s0)
    62c6:	000a4783          	lbu	a5,0(s4)
    62ca:	0207f793          	andi	a5,a5,32
    62ce:	cb89                	beqz	a5,62e0 <tcp_input+0x998>
    62d0:	08c42783          	lw	a5,140(s0)
    62d4:	4681                	li	a3,0
    62d6:	4601                	li	a2,0
    62d8:	85a2                	mv	a1,s0
    62da:	cf81                	beqz	a5,62f2 <tcp_input+0x9aa>
    62dc:	4c08                	lw	a0,24(s0)
    62de:	9782                	jalr	a5
    62e0:	8522                	mv	a0,s0
    62e2:	000ba023          	sw	zero,0(s7)
    62e6:	23f9                	jal	68b4 <tcp_output>
    62e8:	b379                	j	6076 <tcp_input+0x72e>
    62ea:	4501                	li	a0,0
    62ec:	875fe0ef          	jal	ra,4b60 <tcp_recv_null>
    62f0:	b7f1                	j	62bc <tcp_input+0x974>
    62f2:	4501                	li	a0,0
    62f4:	86dfe0ef          	jal	ra,4b60 <tcp_recv_null>
    62f8:	b7e5                	j	62e0 <tcp_input+0x998>

000062fa <tcp_output_set_header.isra.0.constprop.1>:
tcp_output_set_header.isra.0.constprop.1():
    62fa:	f37f92ef          	jal	t0,230 <__riscv_save_0>
    62fe:	892a                	mv	s2,a0
    6300:	2d4a                	fld	fs10,144(sp)
    6302:	1141                	addi	sp,sp,-16
    6304:	842e                	mv	s0,a1
    6306:	c632                	sw	a2,12(sp)
    6308:	d9dfc0ef          	jal	ra,30a4 <htons>
    630c:	a008                	fsd	fa0,0(s0)
    630e:	8121                	srli	a0,a0,0x8
    6310:	b008                	fsd	fa0,32(s0)
    6312:	02495503          	lhu	a0,36(s2)
    6316:	d8ffc0ef          	jal	ra,30a4 <htons>
    631a:	4632                	lw	a2,12(sp)
    631c:	a028                	fsd	fa0,64(s0)
    631e:	8121                	srli	a0,a0,0x8
    6320:	b028                	fsd	fa0,96(s0)
    6322:	00865793          	srli	a5,a2,0x8
    6326:	02892503          	lw	a0,40(s2)
    632a:	a050                	fsd	fa2,128(s0)
    632c:	b05c                	fsd	fa5,160(s0)
    632e:	01065793          	srli	a5,a2,0x10
    6332:	8261                	srli	a2,a2,0x18
    6334:	b070                	fsd	fa2,224(s0)
    6336:	a07c                	fsd	fa5,192(s0)
    6338:	d89fc0ef          	jal	ra,30c0 <htonl>
    633c:	00855793          	srli	a5,a0,0x8
    6340:	a408                	fsd	fa0,8(s0)
    6342:	b41c                	fsd	fa5,40(s0)
    6344:	3444                	fld	fs1,168(s0)
    6346:	01055793          	srli	a5,a0,0x10
    634a:	8161                	srli	a0,a0,0x18
    634c:	b428                	fsd	fa0,104(s0)
    634e:	2448                	fld	fa0,136(s0)
    6350:	04a2                	slli	s1,s1,0x8
    6352:	a43c                	fsd	fa5,72(s0)
    6354:	8cc9                	or	s1,s1,a0
    6356:	6541                	lui	a0,0x10
    6358:	fc050513          	addi	a0,a0,-64 # ffc0 <_data_lma+0x79ec>
    635c:	d49fc0ef          	jal	ra,30a4 <htons>
    6360:	8ce9                	and	s1,s1,a0
    6362:	4541                	li	a0,16
    6364:	d41fc0ef          	jal	ra,30a4 <htons>
    6368:	8d45                	or	a0,a0,s1
    636a:	0542                	slli	a0,a0,0x10
    636c:	8141                	srli	a0,a0,0x10
    636e:	a448                	fsd	fa0,136(s0)
    6370:	8121                	srli	a0,a0,0x8
    6372:	b448                	fsd	fa0,168(s0)
    6374:	02e95503          	lhu	a0,46(s2)
    6378:	d2dfc0ef          	jal	ra,30a4 <htons>
    637c:	a468                	fsd	fa0,200(s0)
    637e:	345c                	fld	fa5,168(s0)
    6380:	8121                	srli	a0,a0,0x8
    6382:	b468                	fsd	fa0,232(s0)
    6384:	2448                	fld	fa0,136(s0)
    6386:	07a2                	slli	a5,a5,0x8
    6388:	00040923          	sb	zero,18(s0)
    638c:	000409a3          	sb	zero,19(s0)
    6390:	8d5d                	or	a0,a0,a5
    6392:	d21fc0ef          	jal	ra,30b2 <ntohs>
    6396:	6795                	lui	a5,0x5
    6398:	03f57513          	andi	a0,a0,63
    639c:	8d5d                	or	a0,a0,a5
    639e:	d07fc0ef          	jal	ra,30a4 <htons>
    63a2:	02e95703          	lhu	a4,46(s2)
    63a6:	02892783          	lw	a5,40(s2)
    63aa:	a448                	fsd	fa0,136(s0)
    63ac:	8121                	srli	a0,a0,0x8
    63ae:	b448                	fsd	fa0,168(s0)
    63b0:	00040823          	sb	zero,16(s0)
    63b4:	000408a3          	sb	zero,17(s0)
    63b8:	97ba                	add	a5,a5,a4
    63ba:	02f92823          	sw	a5,48(s2)
    63be:	8522                	mv	a0,s0
    63c0:	0141                	addi	sp,sp,16
    63c2:	e93f906f          	j	254 <__riscv_restore_0>

000063c6 <tcp_enqueue>:
tcp_enqueue():
    63c6:	e3bf92ef          	jal	t0,200 <__riscv_save_12>
    63ca:	7179                	addi	sp,sp,-48
    63cc:	c62e                	sw	a1,12(sp)
    63ce:	ca3a                	sw	a4,20(sp)
    63d0:	892a                	mv	s2,a0
    63d2:	8ab2                	mv	s5,a2
    63d4:	8b36                	mv	s6,a3
    63d6:	8dbe                	mv	s11,a5
    63d8:	ee01                	bnez	a2,63f0 <tcp_enqueue+0x2a>
    63da:	0036f793          	andi	a5,a3,3
    63de:	00fde7b3          	or	a5,s11,a5
    63e2:	5a59                	li	s4,-10
    63e4:	c391                	beqz	a5,63e8 <tcp_enqueue+0x22>
    63e6:	c18d                	beqz	a1,6408 <tcp_enqueue+0x42>
    63e8:	8552                	mv	a0,s4
    63ea:	6145                	addi	sp,sp,48
    63ec:	e51f906f          	j	23c <__riscv_restore_12>
    63f0:	07255783          	lhu	a5,114(a0)
    63f4:	00c7fa63          	bgeu	a5,a2,6408 <tcp_enqueue+0x42>
    63f8:	02694783          	lbu	a5,38(s2)
    63fc:	5a7d                	li	s4,-1
    63fe:	f807e793          	ori	a5,a5,-128
    6402:	02f90323          	sb	a5,38(s2)
    6406:	b7cd                	j	63e8 <tcp_enqueue+0x22>
    6408:	002d9c13          	slli	s8,s11,0x2
    640c:	002df793          	andi	a5,s11,2
    6410:	004c7c13          	andi	s8,s8,4
    6414:	4731                	li	a4,12
    6416:	e391                	bnez	a5,641a <tcp_enqueue+0x54>
    6418:	4701                	li	a4,0
    641a:	06c92783          	lw	a5,108(s2)
    641e:	9c3a                	add	s8,s8,a4
    6420:	c43e                	sw	a5,8(sp)
    6422:	96c18793          	addi	a5,gp,-1684 # 2000017c <WCHCfg>
    6426:	43d4                	lw	a3,4(a5)
    6428:	67a1                	lui	a5,0x8
    642a:	07495483          	lhu	s1,116(s2)
    642e:	02d7d7b3          	divu	a5,a5,a3
    6432:	96c18713          	addi	a4,gp,-1684 # 2000017c <WCHCfg>
    6436:	ce3a                	sw	a4,28(sp)
    6438:	fcf4f0e3          	bgeu	s1,a5,63f8 <tcp_enqueue+0x32>
    643c:	6741                	lui	a4,0x10
    643e:	1771                	addi	a4,a4,-4
    6440:	fa976ce3          	bltu	a4,s1,63f8 <tcp_enqueue+0x32>
    6444:	002c5793          	srli	a5,s8,0x2
    6448:	010c1693          	slli	a3,s8,0x10
    644c:	82c1                	srli	a3,a3,0x10
    644e:	0ff7f793          	andi	a5,a5,255
    6452:	0795                	addi	a5,a5,5
    6454:	c836                	sw	a3,16(sp)
    6456:	46d2                	lw	a3,20(sp)
    6458:	07b2                	slli	a5,a5,0xc
    645a:	07c2                	slli	a5,a5,0x10
    645c:	d23a                	sw	a4,36(sp)
    645e:	4d32                	lw	s10,12(sp)
    6460:	010b1713          	slli	a4,s6,0x10
    6464:	83c1                	srli	a5,a5,0x10
    6466:	8a85                	andi	a3,a3,1
    6468:	8341                	srli	a4,a4,0x10
    646a:	cc3e                	sw	a5,24(sp)
    646c:	8bd6                	mv	s7,s5
    646e:	4981                	li	s3,0
    6470:	4781                	li	a5,0
    6472:	d036                	sw	a3,32(sp)
    6474:	d43a                	sw	a4,40(sp)
    6476:	03c95a03          	lhu	s4,60(s2)
    647a:	418a0a33          	sub	s4,s4,s8
    647e:	014bd363          	bge	s7,s4,6484 <tcp_enqueue+0xbe>
    6482:	8a5e                	mv	s4,s7
    6484:	4511                	li	a0,4
    6486:	d63e                	sw	a5,44(sp)
    6488:	010a1c93          	slli	s9,s4,0x10
    648c:	a21fd0ef          	jal	ra,3eac <memp_malloc>
    6490:	010cdc93          	srli	s9,s9,0x10
    6494:	842a                	mv	s0,a0
    6496:	18050563          	beqz	a0,6620 <tcp_enqueue+0x25a>
    649a:	00052023          	sw	zero,0(a0)
    649e:	00052223          	sw	zero,4(a0)
    64a2:	14098363          	beqz	s3,65e8 <tcp_enqueue+0x222>
    64a6:	57b2                	lw	a5,44(sp)
    64a8:	c388                	sw	a0,0(a5)
    64aa:	5782                	lw	a5,32(sp)
    64ac:	14078063          	beqz	a5,65ec <tcp_enqueue+0x226>
    64b0:	47c2                	lw	a5,16(sp)
    64b2:	4601                	li	a2,0
    64b4:	4501                	li	a0,0
    64b6:	00fc85b3          	add	a1,s9,a5
    64ba:	05c2                	slli	a1,a1,0x10
    64bc:	81c1                	srli	a1,a1,0x10
    64be:	c27fd0ef          	jal	ra,40e4 <pbuf_alloc>
    64c2:	c048                	sw	a0,4(s0)
    64c4:	14050e63          	beqz	a0,6620 <tcp_enqueue+0x25a>
    64c8:	db1fd0ef          	jal	ra,4278 <pbuf_clen>
    64cc:	47b2                	lw	a5,12(sp)
    64ce:	94aa                	add	s1,s1,a0
    64d0:	04c2                	slli	s1,s1,0x10
    64d2:	80c1                	srli	s1,s1,0x10
    64d4:	cb99                	beqz	a5,64ea <tcp_enqueue+0x124>
    64d6:	405c                	lw	a5,4(s0)
    64d8:	85ea                	mv	a1,s10
    64da:	43c8                	lw	a0,4(a5)
    64dc:	67c1                	lui	a5,0x10
    64de:	17fd                	addi	a5,a5,-1
    64e0:	00fa7633          	and	a2,s4,a5
    64e4:	9562                	add	a0,a0,s8
    64e6:	667010ef          	jal	ra,834c <memcpy>
    64ea:	405c                	lw	a5,4(s0)
    64ec:	43dc                	lw	a5,4(a5)
    64ee:	c41c                	sw	a5,8(s0)
    64f0:	47f2                	lw	a5,28(sp)
    64f2:	6721                	lui	a4,0x8
    64f4:	43dc                	lw	a5,4(a5)
    64f6:	02f757b3          	divu	a5,a4,a5
    64fa:	1297e363          	bltu	a5,s1,6620 <tcp_enqueue+0x25a>
    64fe:	5792                	lw	a5,36(sp)
    6500:	1297e063          	bltu	a5,s1,6620 <tcp_enqueue+0x25a>
    6504:	4048                	lw	a0,4(s0)
    6506:	01941623          	sh	s9,12(s0)
    650a:	45d1                	li	a1,20
    650c:	b1dfd0ef          	jal	ra,4028 <pbuf_header>
    6510:	10051863          	bnez	a0,6620 <tcp_enqueue+0x25a>
    6514:	405c                	lw	a5,4(s0)
    6516:	01c95503          	lhu	a0,28(s2)
    651a:	419b8bb3          	sub	s7,s7,s9
    651e:	43dc                	lw	a5,4(a5)
    6520:	0bc2                	slli	s7,s7,0x10
    6522:	010bdb93          	srli	s7,s7,0x10
    6526:	c81c                	sw	a5,16(s0)
    6528:	d63e                	sw	a5,44(sp)
    652a:	b7bfc0ef          	jal	ra,30a4 <htons>
    652e:	57b2                	lw	a5,44(sp)
    6530:	a388                	fsd	fa0,0(a5)
    6532:	8121                	srli	a0,a0,0x8
    6534:	b388                	fsd	fa0,32(a5)
    6536:	481c                	lw	a5,16(s0)
    6538:	02495503          	lhu	a0,36(s2)
    653c:	d63e                	sw	a5,44(sp)
    653e:	b67fc0ef          	jal	ra,30a4 <htons>
    6542:	57b2                	lw	a5,44(sp)
    6544:	a3a8                	fsd	fa0,64(a5)
    6546:	8121                	srli	a0,a0,0x8
    6548:	b3a8                	fsd	fa0,96(a5)
    654a:	481c                	lw	a5,16(s0)
    654c:	4522                	lw	a0,8(sp)
    654e:	d63e                	sw	a5,44(sp)
    6550:	b71fc0ef          	jal	ra,30c0 <htonl>
    6554:	57b2                	lw	a5,44(sp)
    6556:	00855713          	srli	a4,a0,0x8
    655a:	b3d8                	fsd	fa4,160(a5)
    655c:	01055713          	srli	a4,a0,0x10
    6560:	a3f8                	fsd	fa4,192(a5)
    6562:	4818                	lw	a4,16(s0)
    6564:	a3c8                	fsd	fa0,128(a5)
    6566:	8161                	srli	a0,a0,0x18
    6568:	b3e8                	fsd	fa0,224(a5)
    656a:	375c                	fld	fa5,168(a4)
    656c:	2748                	fld	fa0,136(a4)
    656e:	00070923          	sb	zero,18(a4) # 8012 <print+0x7a>
    6572:	07a2                	slli	a5,a5,0x8
    6574:	8fc9                	or	a5,a5,a0
    6576:	d63e                	sw	a5,44(sp)
    6578:	67c1                	lui	a5,0x10
    657a:	000709a3          	sb	zero,19(a4)
    657e:	fc078513          	addi	a0,a5,-64 # ffc0 <_data_lma+0x79ec>
    6582:	b23fc0ef          	jal	ra,30a4 <htons>
    6586:	57b2                	lw	a5,44(sp)
    6588:	8fe9                	and	a5,a5,a0
    658a:	5522                	lw	a0,40(sp)
    658c:	d63e                	sw	a5,44(sp)
    658e:	b17fc0ef          	jal	ra,30a4 <htons>
    6592:	57b2                	lw	a5,44(sp)
    6594:	8d5d                	or	a0,a0,a5
    6596:	0542                	slli	a0,a0,0x10
    6598:	481c                	lw	a5,16(s0)
    659a:	8141                	srli	a0,a0,0x10
    659c:	00855713          	srli	a4,a0,0x8
    65a0:	b7d8                	fsd	fa4,168(a5)
    65a2:	a7c8                	fsd	fa0,136(a5)
    65a4:	01b40723          	sb	s11,14(s0)
    65a8:	b0bfc0ef          	jal	ra,30b2 <ntohs>
    65ac:	4762                	lw	a4,24(sp)
    65ae:	481c                	lw	a5,16(s0)
    65b0:	03f57513          	andi	a0,a0,63
    65b4:	8d59                	or	a0,a0,a4
    65b6:	d63e                	sw	a5,44(sp)
    65b8:	aedfc0ef          	jal	ra,30a4 <htons>
    65bc:	57b2                	lw	a5,44(sp)
    65be:	a7c8                	fsd	fa0,136(a5)
    65c0:	8121                	srli	a0,a0,0x8
    65c2:	b7c8                	fsd	fa0,168(a5)
    65c4:	67c1                	lui	a5,0x10
    65c6:	17fd                	addi	a5,a5,-1
    65c8:	00fa7a33          	and	s4,s4,a5
    65cc:	47a2                	lw	a5,8(sp)
    65ce:	9d52                	add	s10,s10,s4
    65d0:	97d2                	add	a5,a5,s4
    65d2:	c43e                	sw	a5,8(sp)
    65d4:	87a2                	mv	a5,s0
    65d6:	ea0b90e3          	bnez	s7,6476 <tcp_enqueue+0xb0>
    65da:	07892a03          	lw	s4,120(s2)
    65de:	060a1963          	bnez	s4,6650 <tcp_enqueue+0x28a>
    65e2:	07392c23          	sw	s3,120(s2)
    65e6:	a251                	j	676a <tcp_enqueue+0x3a4>
    65e8:	89aa                	mv	s3,a0
    65ea:	b5c1                	j	64aa <tcp_enqueue+0xe4>
    65ec:	45c2                	lw	a1,16(sp)
    65ee:	4601                	li	a2,0
    65f0:	4501                	li	a0,0
    65f2:	af3fd0ef          	jal	ra,40e4 <pbuf_alloc>
    65f6:	c048                	sw	a0,4(s0)
    65f8:	c505                	beqz	a0,6620 <tcp_enqueue+0x25a>
    65fa:	c7ffd0ef          	jal	ra,4278 <pbuf_clen>
    65fe:	94aa                	add	s1,s1,a0
    6600:	04c2                	slli	s1,s1,0x10
    6602:	80c1                	srli	s1,s1,0x10
    6604:	ee0b86e3          	beqz	s7,64f0 <tcp_enqueue+0x12a>
    6608:	85e6                	mv	a1,s9
    660a:	4605                	li	a2,1
    660c:	450d                	li	a0,3
    660e:	ad7fd0ef          	jal	ra,40e4 <pbuf_alloc>
    6612:	85aa                	mv	a1,a0
    6614:	4048                	lw	a0,4(s0)
    6616:	e195                	bnez	a1,663a <tcp_enqueue+0x274>
    6618:	a7ffd0ef          	jal	ra,4096 <pbuf_free>
    661c:	00042223          	sw	zero,4(s0)
    6620:	02694783          	lbu	a5,38(s2)
    6624:	5a7d                	li	s4,-1
    6626:	f807e793          	ori	a5,a5,-128
    662a:	02f90323          	sb	a5,38(s2)
    662e:	da098de3          	beqz	s3,63e8 <tcp_enqueue+0x22>
    6632:	854e                	mv	a0,s3
    6634:	8b4fe0ef          	jal	ra,46e8 <tcp_segs_free>
    6638:	bb45                	j	63e8 <tcp_enqueue+0x22>
    663a:	01a5a223          	sw	s10,4(a1)
    663e:	0485                	addi	s1,s1,1
    6640:	04c2                	slli	s1,s1,0x10
    6642:	01a42423          	sw	s10,8(s0)
    6646:	80c1                	srli	s1,s1,0x10
    6648:	c4dfd0ef          	jal	ra,4294 <pbuf_cat>
    664c:	b555                	j	64f0 <tcp_enqueue+0x12a>
    664e:	8a3e                	mv	s4,a5
    6650:	000a2783          	lw	a5,0(s4)
    6654:	ffed                	bnez	a5,664e <tcp_enqueue+0x288>
    6656:	010a2783          	lw	a5,16(s4)
    665a:	00ca5b83          	lhu	s7,12(s4)
    665e:	27c8                	fld	fa0,136(a5)
    6660:	37dc                	fld	fa5,168(a5)
    6662:	07a2                	slli	a5,a5,0x8
    6664:	8d5d                	or	a0,a0,a5
    6666:	a4dfc0ef          	jal	ra,30b2 <ntohs>
    666a:	890d                	andi	a0,a0,3
    666c:	00a03533          	snez	a0,a0
    6670:	955e                	add	a0,a0,s7
    6672:	18050563          	beqz	a0,67fc <tcp_enqueue+0x436>
    6676:	010a2783          	lw	a5,16(s4)
    667a:	27c8                	fld	fa0,136(a5)
    667c:	37dc                	fld	fa5,168(a5)
    667e:	07a2                	slli	a5,a5,0x8
    6680:	8d5d                	or	a0,a0,a5
    6682:	a31fc0ef          	jal	ra,30b2 <ntohs>
    6686:	890d                	andi	a0,a0,3
    6688:	16051a63          	bnez	a0,67fc <tcp_enqueue+0x436>
    668c:	003b7793          	andi	a5,s6,3
    6690:	c781                	beqz	a5,6698 <tcp_enqueue+0x2d2>
    6692:	4785                	li	a5,1
    6694:	16fb1463          	bne	s6,a5,67fc <tcp_enqueue+0x436>
    6698:	00c9d703          	lhu	a4,12(s3)
    669c:	00ca5783          	lhu	a5,12(s4)
    66a0:	97ba                	add	a5,a5,a4
    66a2:	03c95703          	lhu	a4,60(s2)
    66a6:	14f74b63          	blt	a4,a5,67fc <tcp_enqueue+0x436>
    66aa:	00ea4703          	lbu	a4,14(s4)
    66ae:	00e9c783          	lbu	a5,14(s3)
    66b2:	14f71563          	bne	a4,a5,67fc <tcp_enqueue+0x436>
    66b6:	010a2703          	lw	a4,16(s4)
    66ba:	3348                	fld	fa0,160(a4)
    66bc:	235c                	fld	fa5,128(a4)
    66be:	0522                	slli	a0,a0,0x8
    66c0:	8d5d                	or	a0,a0,a5
    66c2:	237c                	fld	fa5,192(a4)
    66c4:	07c2                	slli	a5,a5,0x10
    66c6:	8fc9                	or	a5,a5,a0
    66c8:	3368                	fld	fa0,224(a4)
    66ca:	0562                	slli	a0,a0,0x18
    66cc:	8d5d                	or	a0,a0,a5
    66ce:	a17fc0ef          	jal	ra,30e4 <ntohl>
    66d2:	0109a703          	lw	a4,16(s3)
    66d6:	00ca5b83          	lhu	s7,12(s4)
    66da:	235c                	fld	fa5,128(a4)
    66dc:	9baa                	add	s7,s7,a0
    66de:	3348                	fld	fa0,160(a4)
    66e0:	0522                	slli	a0,a0,0x8
    66e2:	8d5d                	or	a0,a0,a5
    66e4:	237c                	fld	fa5,192(a4)
    66e6:	07c2                	slli	a5,a5,0x10
    66e8:	8fc9                	or	a5,a5,a0
    66ea:	3368                	fld	fa0,224(a4)
    66ec:	0562                	slli	a0,a0,0x18
    66ee:	8d5d                	or	a0,a0,a5
    66f0:	9f5fc0ef          	jal	ra,30e4 <ntohl>
    66f4:	10ab9463          	bne	s7,a0,67fc <tcp_enqueue+0x436>
    66f8:	47c2                	lw	a5,16(sp)
    66fa:	55b1                	li	a1,-20
    66fc:	0049a503          	lw	a0,4(s3)
    6700:	8d9d                	sub	a1,a1,a5
    6702:	05c2                	slli	a1,a1,0x10
    6704:	85c1                	srai	a1,a1,0x10
    6706:	923fd0ef          	jal	ra,4028 <pbuf_header>
    670a:	f0051be3          	bnez	a0,6620 <tcp_enqueue+0x25a>
    670e:	0049a503          	lw	a0,4(s3)
    6712:	253e                	fld	fa0,456(sp)
    6714:	eb99                	bnez	a5,672a <tcp_enqueue+0x364>
    6716:	411c                	lw	a5,0(a0)
    6718:	14fd                	addi	s1,s1,-1
    671a:	04c2                	slli	s1,s1,0x10
    671c:	00f9a223          	sw	a5,4(s3)
    6720:	00052023          	sw	zero,0(a0)
    6724:	80c1                	srli	s1,s1,0x10
    6726:	971fd0ef          	jal	ra,4096 <pbuf_free>
    672a:	001b7793          	andi	a5,s6,1
    672e:	c7cd                	beqz	a5,67d8 <tcp_enqueue+0x412>
    6730:	010a2783          	lw	a5,16(s4)
    6734:	00d7cb83          	lbu	s7,13(a5) # 1000d <_data_lma+0x7a39>
    6738:	27c8                	fld	fa0,136(a5)
    673a:	0ba2                	slli	s7,s7,0x8
    673c:	00abebb3          	or	s7,s7,a0
    6740:	4505                	li	a0,1
    6742:	963fc0ef          	jal	ra,30a4 <htons>
    6746:	010a2783          	lw	a5,16(s4)
    674a:	00abe533          	or	a0,s7,a0
    674e:	0542                	slli	a0,a0,0x10
    6750:	8141                	srli	a0,a0,0x10
    6752:	a7c8                	fsd	fa0,136(a5)
    6754:	8121                	srli	a0,a0,0x8
    6756:	b7c8                	fsd	fa0,168(a5)
    6758:	00899563          	bne	s3,s0,6762 <tcp_enqueue+0x39c>
    675c:	00ca5c83          	lhu	s9,12(s4)
    6760:	8452                	mv	s0,s4
    6762:	85ce                	mv	a1,s3
    6764:	4511                	li	a0,4
    6766:	f62fd0ef          	jal	ra,3ec8 <memp_free>
    676a:	003b7793          	andi	a5,s6,3
    676e:	c789                	beqz	a5,6778 <tcp_enqueue+0x3b2>
    6770:	0a85                	addi	s5,s5,1
    6772:	0ac2                	slli	s5,s5,0x10
    6774:	010ada93          	srli	s5,s5,0x10
    6778:	001b7b13          	andi	s6,s6,1
    677c:	000b0863          	beqz	s6,678c <tcp_enqueue+0x3c6>
    6780:	02694783          	lbu	a5,38(s2)
    6784:	0207e793          	ori	a5,a5,32
    6788:	02f90323          	sb	a5,38(s2)
    678c:	06c92783          	lw	a5,108(s2)
    6790:	06991a23          	sh	s1,116(s2)
    6794:	4a01                	li	s4,0
    6796:	97d6                	add	a5,a5,s5
    6798:	06f92623          	sw	a5,108(s2)
    679c:	07295783          	lhu	a5,114(s2)
    67a0:	41578ab3          	sub	s5,a5,s5
    67a4:	07591923          	sh	s5,114(s2)
    67a8:	c40c80e3          	beqz	s9,63e8 <tcp_enqueue+0x22>
    67ac:	481c                	lw	a5,16(s0)
    67ae:	c2078de3          	beqz	a5,63e8 <tcp_enqueue+0x22>
    67b2:	4752                	lw	a4,20(sp)
    67b4:	8b09                	andi	a4,a4,2
    67b6:	c20719e3          	bnez	a4,63e8 <tcp_enqueue+0x22>
    67ba:	37c4                	fld	fs1,168(a5)
    67bc:	27c8                	fld	fa0,136(a5)
    67be:	04a2                	slli	s1,s1,0x8
    67c0:	8cc9                	or	s1,s1,a0
    67c2:	4521                	li	a0,8
    67c4:	8e1fc0ef          	jal	ra,30a4 <htons>
    67c8:	481c                	lw	a5,16(s0)
    67ca:	8d45                	or	a0,a0,s1
    67cc:	0542                	slli	a0,a0,0x10
    67ce:	8141                	srli	a0,a0,0x10
    67d0:	a7c8                	fsd	fa0,136(a5)
    67d2:	8121                	srli	a0,a0,0x8
    67d4:	b7c8                	fsd	fa0,168(a5)
    67d6:	b909                	j	63e8 <tcp_enqueue+0x22>
    67d8:	0049a583          	lw	a1,4(s3)
    67dc:	004a2503          	lw	a0,4(s4)
    67e0:	ab5fd0ef          	jal	ra,4294 <pbuf_cat>
    67e4:	00c9d703          	lhu	a4,12(s3)
    67e8:	00ca5783          	lhu	a5,12(s4)
    67ec:	97ba                	add	a5,a5,a4
    67ee:	00fa1623          	sh	a5,12(s4)
    67f2:	0009a783          	lw	a5,0(s3)
    67f6:	00fa2023          	sw	a5,0(s4)
    67fa:	bfb9                	j	6758 <tcp_enqueue+0x392>
    67fc:	013a2023          	sw	s3,0(s4)
    6800:	b7ad                	j	676a <tcp_enqueue+0x3a4>

00006802 <tcp_send_ctrl>:
tcp_send_ctrl():
    6802:	a2ff92ef          	jal	t0,230 <__riscv_save_0>
    6806:	86ae                	mv	a3,a1
    6808:	4781                	li	a5,0
    680a:	4705                	li	a4,1
    680c:	4601                	li	a2,0
    680e:	4581                	li	a1,0
    6810:	bb7ff0ef          	jal	ra,63c6 <tcp_enqueue>
    6814:	a41f906f          	j	254 <__riscv_restore_0>

00006818 <tcp_write>:
tcp_write():
    6818:	87aa                	mv	a5,a0
    681a:	4908                	lw	a0,16(a0)
    681c:	471d                	li	a4,7
    681e:	00e50863          	beq	a0,a4,682e <tcp_write+0x16>
    6822:	ffe50813          	addi	a6,a0,-2
    6826:	4709                	li	a4,2
    6828:	5561                	li	a0,-8
    682a:	01076e63          	bltu	a4,a6,6846 <tcp_write+0x2e>
    682e:	4501                	li	a0,0
    6830:	ca19                	beqz	a2,6846 <tcp_write+0x2e>
    6832:	9fff92ef          	jal	t0,230 <__riscv_save_0>
    6836:	8736                	mv	a4,a3
    6838:	853e                	mv	a0,a5
    683a:	4681                	li	a3,0
    683c:	4781                	li	a5,0
    683e:	b89ff0ef          	jal	ra,63c6 <tcp_enqueue>
    6842:	a13f906f          	j	254 <__riscv_restore_0>
    6846:	8082                	ret

00006848 <tcp_send_empty_ack>:
tcp_send_empty_ack():
    6848:	9cff92ef          	jal	t0,216 <__riscv_save_4>
    684c:	842a                	mv	s0,a0
    684e:	4601                	li	a2,0
    6850:	45d1                	li	a1,20
    6852:	4505                	li	a0,1
    6854:	891fd0ef          	jal	ra,40e4 <pbuf_alloc>
    6858:	cd21                	beqz	a0,68b0 <tcp_send_empty_ack+0x68>
    685a:	02644783          	lbu	a5,38(s0)
    685e:	84aa                	mv	s1,a0
    6860:	4c68                	lw	a0,92(s0)
    6862:	9bf1                	andi	a5,a5,-4
    6864:	02f40323          	sb	a5,38(s0)
    6868:	859fc0ef          	jal	ra,30c0 <htonl>
    686c:	40cc                	lw	a1,4(s1)
    686e:	862a                	mv	a2,a0
    6870:	8522                	mv	a0,s0
    6872:	a89ff0ef          	jal	ra,62fa <tcp_output_set_header.isra.0.constprop.1>
    6876:	249a                	fld	fs1,384(sp)
    6878:	00440913          	addi	s2,s0,4
    687c:	89aa                	mv	s3,a0
    687e:	4699                	li	a3,6
    6880:	864a                	mv	a2,s2
    6882:	85a2                	mv	a1,s0
    6884:	8526                	mv	a0,s1
    6886:	374010ef          	jal	ra,7bfa <inet_chksum_pseudo>
    688a:	00a98823          	sb	a0,16(s3)
    688e:	8121                	srli	a0,a0,0x8
    6890:	00a988a3          	sb	a0,17(s3)
    6894:	2438                	fld	fa4,72(s0)
    6896:	3434                	fld	fa3,104(s0)
    6898:	4799                	li	a5,6
    689a:	864a                	mv	a2,s2
    689c:	85a2                	mv	a1,s0
    689e:	8526                	mv	a0,s1
    68a0:	cabfc0ef          	jal	ra,354a <ip_output>
    68a4:	8526                	mv	a0,s1
    68a6:	ff0fd0ef          	jal	ra,4096 <pbuf_free>
    68aa:	4501                	li	a0,0
    68ac:	99ff906f          	j	24a <__riscv_restore_4>
    68b0:	5579                	li	a0,-2
    68b2:	bfed                	j	68ac <tcp_send_empty_ack+0x64>

000068b4 <tcp_output>:
tcp_output():
    68b4:	9081a783          	lw	a5,-1784(gp) # 20000118 <tcp_input_pcb>
    68b8:	34a78763          	beq	a5,a0,6c06 <tcp_output+0x352>
    68bc:	945f92ef          	jal	t0,200 <__riscv_save_12>
    68c0:	06055783          	lhu	a5,96(a0)
    68c4:	05655a03          	lhu	s4,86(a0)
    68c8:	0147f363          	bgeu	a5,s4,68ce <tcp_output+0x1a>
    68cc:	8a3e                	mv	s4,a5
    68ce:	02654783          	lbu	a5,38(a0)
    68d2:	0a42                	slli	s4,s4,0x10
    68d4:	842a                	mv	s0,a0
    68d6:	8b89                	andi	a5,a5,2
    68d8:	010a5a13          	srli	s4,s4,0x10
    68dc:	5d24                	lw	s1,120(a0)
    68de:	cb95                	beqz	a5,6912 <tcp_output+0x5e>
    68e0:	e491                	bnez	s1,68ec <tcp_output+0x38>
    68e2:	8522                	mv	a0,s0
    68e4:	f65ff0ef          	jal	ra,6848 <tcp_send_empty_ack>
    68e8:	955f906f          	j	23c <__riscv_restore_12>
    68ec:	4898                	lw	a4,16(s1)
    68ee:	3348                	fld	fa0,160(a4)
    68f0:	235c                	fld	fa5,128(a4)
    68f2:	0522                	slli	a0,a0,0x8
    68f4:	8d5d                	or	a0,a0,a5
    68f6:	237c                	fld	fa5,192(a4)
    68f8:	07c2                	slli	a5,a5,0x10
    68fa:	8fc9                	or	a5,a5,a0
    68fc:	3368                	fld	fa0,224(a4)
    68fe:	0562                	slli	a0,a0,0x18
    6900:	8d5d                	or	a0,a0,a5
    6902:	fe2fc0ef          	jal	ra,30e4 <ntohl>
    6906:	24de                	fld	fs1,464(sp)
    6908:	4838                	lw	a4,80(s0)
    690a:	8f99                	sub	a5,a5,a4
    690c:	953e                	add	a0,a0,a5
    690e:	fcaa6ae3          	bltu	s4,a0,68e2 <tcp_output+0x2e>
    6912:	07c42983          	lw	s3,124(s0)
    6916:	08099463          	bnez	s3,699e <tcp_output+0xea>
    691a:	4b89                	li	s7,2
    691c:	96c18a93          	addi	s5,gp,-1684 # 2000017c <WCHCfg>
    6920:	02040c37          	lui	s8,0x2040
    6924:	00440b13          	addi	s6,s0,4
    6928:	5cfd                	li	s9,-1
    692a:	c0ad                	beqz	s1,698c <tcp_output+0xd8>
    692c:	4898                	lw	a4,16(s1)
    692e:	3348                	fld	fa0,160(a4)
    6930:	235c                	fld	fa5,128(a4)
    6932:	0522                	slli	a0,a0,0x8
    6934:	8d5d                	or	a0,a0,a5
    6936:	237c                	fld	fa5,192(a4)
    6938:	07c2                	slli	a5,a5,0x10
    693a:	8fc9                	or	a5,a5,a0
    693c:	3368                	fld	fa0,224(a4)
    693e:	0562                	slli	a0,a0,0x18
    6940:	8d5d                	or	a0,a0,a5
    6942:	fa2fc0ef          	jal	ra,30e4 <ntohl>
    6946:	24de                	fld	fs1,464(sp)
    6948:	4838                	lw	a4,80(s0)
    694a:	8f99                	sub	a5,a5,a4
    694c:	953e                	add	a0,a0,a5
    694e:	04aa7c63          	bgeu	s4,a0,69a6 <tcp_output+0xf2>
    6952:	0ac44783          	lbu	a5,172(s0)
    6956:	eb9d                	bnez	a5,698c <tcp_output+0xd8>
    6958:	4898                	lw	a4,16(s1)
    695a:	3348                	fld	fa0,160(a4)
    695c:	235c                	fld	fa5,128(a4)
    695e:	0522                	slli	a0,a0,0x8
    6960:	8d5d                	or	a0,a0,a5
    6962:	237c                	fld	fa5,192(a4)
    6964:	07c2                	slli	a5,a5,0x10
    6966:	8fc9                	or	a5,a5,a0
    6968:	3368                	fld	fa0,224(a4)
    696a:	0562                	slli	a0,a0,0x18
    696c:	8d5d                	or	a0,a0,a5
    696e:	f76fc0ef          	jal	ra,30e4 <ntohl>
    6972:	24de                	fld	fs1,464(sp)
    6974:	4838                	lw	a4,80(s0)
    6976:	8f99                	sub	a5,a5,a4
    6978:	953e                	add	a0,a0,a5
    697a:	06045783          	lhu	a5,96(s0)
    697e:	00a7f763          	bgeu	a5,a0,698c <tcp_output+0xd8>
    6982:	4785                	li	a5,1
    6984:	0a042423          	sw	zero,168(s0)
    6988:	0af40623          	sb	a5,172(s0)
    698c:	02644783          	lbu	a5,38(s0)
    6990:	4501                	li	a0,0
    6992:	07f7f793          	andi	a5,a5,127
    6996:	02f40323          	sb	a5,38(s0)
    699a:	b7b9                	j	68e8 <tcp_output+0x34>
    699c:	89be                	mv	s3,a5
    699e:	0009a783          	lw	a5,0(s3)
    69a2:	ffed                	bnez	a5,699c <tcp_output+0xe8>
    69a4:	bf9d                	j	691a <tcp_output+0x66>
    69a6:	5c7c                	lw	a5,124(s0)
    69a8:	c38d                	beqz	a5,69ca <tcp_output+0x116>
    69aa:	02644783          	lbu	a5,38(s0)
    69ae:	0447f713          	andi	a4,a5,68
    69b2:	ef01                	bnez	a4,69ca <tcp_output+0x116>
    69b4:	5c38                	lw	a4,120(s0)
    69b6:	c719                	beqz	a4,69c4 <tcp_output+0x110>
    69b8:	4314                	lw	a3,0(a4)
    69ba:	ea81                	bnez	a3,69ca <tcp_output+0x116>
    69bc:	2756                	fld	fa4,336(sp)
    69be:	3c5a                	fld	fs8,432(sp)
    69c0:	00e6f563          	bgeu	a3,a4,69ca <tcp_output+0x116>
    69c4:	0a07f793          	andi	a5,a5,160
    69c8:	d7c9                	beqz	a5,6952 <tcp_output+0x9e>
    69ca:	409c                	lw	a5,0(s1)
    69cc:	dc3c                	sw	a5,120(s0)
    69ce:	481c                	lw	a5,16(s0)
    69d0:	03778963          	beq	a5,s7,6a02 <tcp_output+0x14e>
    69d4:	489c                	lw	a5,16(s1)
    69d6:	00d7c903          	lbu	s2,13(a5)
    69da:	27c8                	fld	fa0,136(a5)
    69dc:	0922                	slli	s2,s2,0x8
    69de:	00a96933          	or	s2,s2,a0
    69e2:	4541                	li	a0,16
    69e4:	ec0fc0ef          	jal	ra,30a4 <htons>
    69e8:	489c                	lw	a5,16(s1)
    69ea:	00a96533          	or	a0,s2,a0
    69ee:	0542                	slli	a0,a0,0x10
    69f0:	8141                	srli	a0,a0,0x10
    69f2:	a7c8                	fsd	fa0,136(a5)
    69f4:	8121                	srli	a0,a0,0x8
    69f6:	b7c8                	fsd	fa0,168(a5)
    69f8:	02644783          	lbu	a5,38(s0)
    69fc:	9bf1                	andi	a5,a5,-4
    69fe:	02f40323          	sb	a5,38(s0)
    6a02:	5408                	lw	a0,40(s0)
    6a04:	0104a903          	lw	s2,16(s1)
    6a08:	eb8fc0ef          	jal	ra,30c0 <htonl>
    6a0c:	00855793          	srli	a5,a0,0x8
    6a10:	00a90423          	sb	a0,8(s2)
    6a14:	00f904a3          	sb	a5,9(s2)
    6a18:	01055793          	srli	a5,a0,0x10
    6a1c:	8161                	srli	a0,a0,0x18
    6a1e:	00a905a3          	sb	a0,11(s2)
    6a22:	346a                	fld	fs0,184(sp)
    6a24:	00f90523          	sb	a5,10(s2)
    6a28:	0104a903          	lw	s2,16(s1)
    6a2c:	e78fc0ef          	jal	ra,30a4 <htons>
    6a30:	347a                	fld	fs0,440(sp)
    6a32:	541c                	lw	a5,40(s0)
    6a34:	00a90723          	sb	a0,14(s2)
    6a38:	8121                	srli	a0,a0,0x8
    6a3a:	00a907a3          	sb	a0,15(s2)
    6a3e:	97ba                	add	a5,a5,a4
    6a40:	d81c                	sw	a5,48(s0)
    6a42:	24fc                	fld	fa5,200(s1)
    6a44:	8b85                	andi	a5,a5,1
    6a46:	cb99                	beqz	a5,6a5c <tcp_output+0x1a8>
    6a48:	004aa503          	lw	a0,4(s5)
    6a4c:	0104a903          	lw	s2,16(s1)
    6a50:	00ac6533          	or	a0,s8,a0
    6a54:	e6cfc0ef          	jal	ra,30c0 <htonl>
    6a58:	00a92a23          	sw	a0,20(s2)
    6a5c:	401c                	lw	a5,0(s0)
    6a5e:	e799                	bnez	a5,6a6c <tcp_output+0x1b8>
    6a60:	855a                	mv	a0,s6
    6a62:	e8cfc0ef          	jal	ra,30ee <ip_route>
    6a66:	c549                	beqz	a0,6af0 <tcp_output+0x23c>
    6a68:	415c                	lw	a5,4(a0)
    6a6a:	c01c                	sw	a5,0(s0)
    6a6c:	03a41783          	lh	a5,58(s0)
    6a70:	01979463          	bne	a5,s9,6a78 <tcp_output+0x1c4>
    6a74:	02041d23          	sh	zero,58(s0)
    6a78:	403c                	lw	a5,64(s0)
    6a7a:	e395                	bnez	a5,6a9e <tcp_output+0x1ea>
    6a7c:	8e01a783          	lw	a5,-1824(gp) # 200000f0 <tcp_ticks>
    6a80:	4898                	lw	a4,16(s1)
    6a82:	c03c                	sw	a5,64(s0)
    6a84:	3348                	fld	fa0,160(a4)
    6a86:	235c                	fld	fa5,128(a4)
    6a88:	0522                	slli	a0,a0,0x8
    6a8a:	8d5d                	or	a0,a0,a5
    6a8c:	237c                	fld	fa5,192(a4)
    6a8e:	07c2                	slli	a5,a5,0x10
    6a90:	8fc9                	or	a5,a5,a0
    6a92:	3368                	fld	fa0,224(a4)
    6a94:	0562                	slli	a0,a0,0x18
    6a96:	8d5d                	or	a0,a0,a5
    6a98:	e4cfc0ef          	jal	ra,30e4 <ntohl>
    6a9c:	c068                	sw	a0,68(s0)
    6a9e:	40c8                	lw	a0,4(s1)
    6aa0:	0104a903          	lw	s2,16(s1)
    6aa4:	4699                	li	a3,6
    6aa6:	4158                	lw	a4,4(a0)
    6aa8:	01252223          	sw	s2,4(a0)
    6aac:	865a                	mv	a2,s6
    6aae:	40e90733          	sub	a4,s2,a4
    6ab2:	01071793          	slli	a5,a4,0x10
    6ab6:	253a                	fld	fa0,392(sp)
    6ab8:	83c1                	srli	a5,a5,0x10
    6aba:	85a2                	mv	a1,s0
    6abc:	8f1d                	sub	a4,a4,a5
    6abe:	a53a                	fsd	fa4,136(sp)
    6ac0:	251a                	fld	fa0,384(sp)
    6ac2:	8f1d                	sub	a4,a4,a5
    6ac4:	0742                	slli	a4,a4,0x10
    6ac6:	8341                	srli	a4,a4,0x10
    6ac8:	a51a                	fsd	ft6,136(sp)
    6aca:	00090823          	sb	zero,16(s2)
    6ace:	000908a3          	sb	zero,17(s2)
    6ad2:	128010ef          	jal	ra,7bfa <inet_chksum_pseudo>
    6ad6:	00a90823          	sb	a0,16(s2)
    6ada:	8121                	srli	a0,a0,0x8
    6adc:	00a908a3          	sb	a0,17(s2)
    6ae0:	2438                	fld	fa4,72(s0)
    6ae2:	3434                	fld	fa3,104(s0)
    6ae4:	40c8                	lw	a0,4(s1)
    6ae6:	4799                	li	a5,6
    6ae8:	865a                	mv	a2,s6
    6aea:	85a2                	mv	a1,s0
    6aec:	a5ffc0ef          	jal	ra,354a <ip_output>
    6af0:	4898                	lw	a4,16(s1)
    6af2:	3348                	fld	fa0,160(a4)
    6af4:	235c                	fld	fa5,128(a4)
    6af6:	0522                	slli	a0,a0,0x8
    6af8:	8d5d                	or	a0,a0,a5
    6afa:	237c                	fld	fa5,192(a4)
    6afc:	07c2                	slli	a5,a5,0x10
    6afe:	8fc9                	or	a5,a5,a0
    6b00:	3368                	fld	fa0,224(a4)
    6b02:	0562                	slli	a0,a0,0x18
    6b04:	8d5d                	or	a0,a0,a5
    6b06:	ddefc0ef          	jal	ra,30e4 <ntohl>
    6b0a:	489c                	lw	a5,16(s1)
    6b0c:	892a                	mv	s2,a0
    6b0e:	00c4dd83          	lhu	s11,12(s1)
    6b12:	27c8                	fld	fa0,136(a5)
    6b14:	37dc                	fld	fa5,168(a5)
    6b16:	07a2                	slli	a5,a5,0x8
    6b18:	8d5d                	or	a0,a0,a5
    6b1a:	d98fc0ef          	jal	ra,30b2 <ntohs>
    6b1e:	890d                	andi	a0,a0,3
    6b20:	00a03533          	snez	a0,a0
    6b24:	4c7c                	lw	a5,92(s0)
    6b26:	956e                	add	a0,a0,s11
    6b28:	954a                	add	a0,a0,s2
    6b2a:	8f89                	sub	a5,a5,a0
    6b2c:	0007d363          	bgez	a5,6b32 <tcp_output+0x27e>
    6b30:	cc68                	sw	a0,92(s0)
    6b32:	489c                	lw	a5,16(s1)
    6b34:	00c4d903          	lhu	s2,12(s1)
    6b38:	27c8                	fld	fa0,136(a5)
    6b3a:	37dc                	fld	fa5,168(a5)
    6b3c:	07a2                	slli	a5,a5,0x8
    6b3e:	8d5d                	or	a0,a0,a5
    6b40:	d72fc0ef          	jal	ra,30b2 <ntohs>
    6b44:	890d                	andi	a0,a0,3
    6b46:	00a03533          	snez	a0,a0
    6b4a:	954a                	add	a0,a0,s2
    6b4c:	c94d                	beqz	a0,6bfe <tcp_output+0x34a>
    6b4e:	5c7c                	lw	a5,124(s0)
    6b50:	0004a023          	sw	zero,0(s1)
    6b54:	e781                	bnez	a5,6b5c <tcp_output+0x2a8>
    6b56:	dc64                	sw	s1,124(s0)
    6b58:	89a6                	mv	s3,s1
    6b5a:	a899                	j	6bb0 <tcp_output+0x2fc>
    6b5c:	4898                	lw	a4,16(s1)
    6b5e:	3348                	fld	fa0,160(a4)
    6b60:	235c                	fld	fa5,128(a4)
    6b62:	0522                	slli	a0,a0,0x8
    6b64:	8d5d                	or	a0,a0,a5
    6b66:	237c                	fld	fa5,192(a4)
    6b68:	07c2                	slli	a5,a5,0x10
    6b6a:	8fc9                	or	a5,a5,a0
    6b6c:	3368                	fld	fa0,224(a4)
    6b6e:	0562                	slli	a0,a0,0x18
    6b70:	8d5d                	or	a0,a0,a5
    6b72:	d72fc0ef          	jal	ra,30e4 <ntohl>
    6b76:	0109a703          	lw	a4,16(s3)
    6b7a:	892a                	mv	s2,a0
    6b7c:	3348                	fld	fa0,160(a4)
    6b7e:	235c                	fld	fa5,128(a4)
    6b80:	0522                	slli	a0,a0,0x8
    6b82:	8d5d                	or	a0,a0,a5
    6b84:	237c                	fld	fa5,192(a4)
    6b86:	07c2                	slli	a5,a5,0x10
    6b88:	8fc9                	or	a5,a5,a0
    6b8a:	3368                	fld	fa0,224(a4)
    6b8c:	0562                	slli	a0,a0,0x18
    6b8e:	8d5d                	or	a0,a0,a5
    6b90:	d54fc0ef          	jal	ra,30e4 <ntohl>
    6b94:	40a90533          	sub	a0,s2,a0
    6b98:	06055063          	bgez	a0,6bf8 <tcp_output+0x344>
    6b9c:	07c40913          	addi	s2,s0,124
    6ba0:	00092783          	lw	a5,0(s2)
    6ba4:	eb81                	bnez	a5,6bb4 <tcp_output+0x300>
    6ba6:	00092783          	lw	a5,0(s2)
    6baa:	c09c                	sw	a5,0(s1)
    6bac:	00992023          	sw	s1,0(s2)
    6bb0:	5c24                	lw	s1,120(s0)
    6bb2:	bba5                	j	692a <tcp_output+0x76>
    6bb4:	4b98                	lw	a4,16(a5)
    6bb6:	3348                	fld	fa0,160(a4)
    6bb8:	235c                	fld	fa5,128(a4)
    6bba:	0522                	slli	a0,a0,0x8
    6bbc:	8d5d                	or	a0,a0,a5
    6bbe:	237c                	fld	fa5,192(a4)
    6bc0:	07c2                	slli	a5,a5,0x10
    6bc2:	8fc9                	or	a5,a5,a0
    6bc4:	3368                	fld	fa0,224(a4)
    6bc6:	0562                	slli	a0,a0,0x18
    6bc8:	8d5d                	or	a0,a0,a5
    6bca:	d1afc0ef          	jal	ra,30e4 <ntohl>
    6bce:	4898                	lw	a4,16(s1)
    6bd0:	8daa                	mv	s11,a0
    6bd2:	3348                	fld	fa0,160(a4)
    6bd4:	235c                	fld	fa5,128(a4)
    6bd6:	0522                	slli	a0,a0,0x8
    6bd8:	8d5d                	or	a0,a0,a5
    6bda:	237c                	fld	fa5,192(a4)
    6bdc:	07c2                	slli	a5,a5,0x10
    6bde:	8fc9                	or	a5,a5,a0
    6be0:	3368                	fld	fa0,224(a4)
    6be2:	0562                	slli	a0,a0,0x18
    6be4:	8d5d                	or	a0,a0,a5
    6be6:	cfefc0ef          	jal	ra,30e4 <ntohl>
    6bea:	40ad8533          	sub	a0,s11,a0
    6bee:	fa055ce3          	bgez	a0,6ba6 <tcp_output+0x2f2>
    6bf2:	00092903          	lw	s2,0(s2)
    6bf6:	b76d                	j	6ba0 <tcp_output+0x2ec>
    6bf8:	0099a023          	sw	s1,0(s3)
    6bfc:	bfb1                	j	6b58 <tcp_output+0x2a4>
    6bfe:	8526                	mv	a0,s1
    6c00:	abffd0ef          	jal	ra,46be <tcp_seg_free>
    6c04:	b775                	j	6bb0 <tcp_output+0x2fc>
    6c06:	4501                	li	a0,0
    6c08:	8082                	ret

00006c0a <tcp_rst>:
tcp_rst():
    6c0a:	e0cf92ef          	jal	t0,216 <__riscv_save_4>
    6c0e:	1141                	addi	sp,sp,-16
    6c10:	8aaa                	mv	s5,a0
    6c12:	84ae                	mv	s1,a1
    6c14:	89b2                	mv	s3,a2
    6c16:	45d1                	li	a1,20
    6c18:	4601                	li	a2,0
    6c1a:	4505                	li	a0,1
    6c1c:	8a36                	mv	s4,a3
    6c1e:	c63a                	sw	a4,12(sp)
    6c20:	8b3e                	mv	s6,a5
    6c22:	cc2fd0ef          	jal	ra,40e4 <pbuf_alloc>
    6c26:	0e050163          	beqz	a0,6d08 <tcp_rst+0xfe>
    6c2a:	4732                	lw	a4,12(sp)
    6c2c:	4140                	lw	s0,4(a0)
    6c2e:	892a                	mv	s2,a0
    6c30:	853a                	mv	a0,a4
    6c32:	c72fc0ef          	jal	ra,30a4 <htons>
    6c36:	a008                	fsd	fa0,0(s0)
    6c38:	8121                	srli	a0,a0,0x8
    6c3a:	b008                	fsd	fa0,32(s0)
    6c3c:	855a                	mv	a0,s6
    6c3e:	c66fc0ef          	jal	ra,30a4 <htons>
    6c42:	a028                	fsd	fa0,64(s0)
    6c44:	8121                	srli	a0,a0,0x8
    6c46:	b028                	fsd	fa0,96(s0)
    6c48:	8556                	mv	a0,s5
    6c4a:	c76fc0ef          	jal	ra,30c0 <htonl>
    6c4e:	00855793          	srli	a5,a0,0x8
    6c52:	a048                	fsd	fa0,128(s0)
    6c54:	b05c                	fsd	fa5,160(s0)
    6c56:	01055793          	srli	a5,a0,0x10
    6c5a:	8161                	srli	a0,a0,0x18
    6c5c:	a07c                	fsd	fa5,192(s0)
    6c5e:	b068                	fsd	fa0,224(s0)
    6c60:	8526                	mv	a0,s1
    6c62:	c5efc0ef          	jal	ra,30c0 <htonl>
    6c66:	00855793          	srli	a5,a0,0x8
    6c6a:	a408                	fsd	fa0,8(s0)
    6c6c:	b41c                	fsd	fa5,40(s0)
    6c6e:	3444                	fld	fs1,168(s0)
    6c70:	01055793          	srli	a5,a0,0x10
    6c74:	8161                	srli	a0,a0,0x18
    6c76:	b428                	fsd	fa0,104(s0)
    6c78:	2448                	fld	fa0,136(s0)
    6c7a:	04a2                	slli	s1,s1,0x8
    6c7c:	a43c                	fsd	fa5,72(s0)
    6c7e:	8cc9                	or	s1,s1,a0
    6c80:	6541                	lui	a0,0x10
    6c82:	fc050513          	addi	a0,a0,-64 # ffc0 <_data_lma+0x79ec>
    6c86:	c1efc0ef          	jal	ra,30a4 <htons>
    6c8a:	8ce9                	and	s1,s1,a0
    6c8c:	4551                	li	a0,20
    6c8e:	c16fc0ef          	jal	ra,30a4 <htons>
    6c92:	8d45                	or	a0,a0,s1
    6c94:	0542                	slli	a0,a0,0x10
    6c96:	8141                	srli	a0,a0,0x10
    6c98:	a448                	fsd	fa0,136(s0)
    6c9a:	8121                	srli	a0,a0,0x8
    6c9c:	b448                	fsd	fa0,168(s0)
    6c9e:	9701d503          	lhu	a0,-1680(gp) # 20000180 <WCHCfg+0x4>
    6ca2:	c02fc0ef          	jal	ra,30a4 <htons>
    6ca6:	a468                	fsd	fa0,200(s0)
    6ca8:	345c                	fld	fa5,168(s0)
    6caa:	8121                	srli	a0,a0,0x8
    6cac:	b468                	fsd	fa0,232(s0)
    6cae:	2448                	fld	fa0,136(s0)
    6cb0:	07a2                	slli	a5,a5,0x8
    6cb2:	00040923          	sb	zero,18(s0)
    6cb6:	8d5d                	or	a0,a0,a5
    6cb8:	000409a3          	sb	zero,19(s0)
    6cbc:	bf6fc0ef          	jal	ra,30b2 <ntohs>
    6cc0:	6795                	lui	a5,0x5
    6cc2:	03f57513          	andi	a0,a0,63
    6cc6:	8d5d                	or	a0,a0,a5
    6cc8:	bdcfc0ef          	jal	ra,30a4 <htons>
    6ccc:	00895703          	lhu	a4,8(s2)
    6cd0:	a448                	fsd	fa0,136(s0)
    6cd2:	8121                	srli	a0,a0,0x8
    6cd4:	b448                	fsd	fa0,168(s0)
    6cd6:	4699                	li	a3,6
    6cd8:	8652                	mv	a2,s4
    6cda:	85ce                	mv	a1,s3
    6cdc:	00040823          	sb	zero,16(s0)
    6ce0:	000408a3          	sb	zero,17(s0)
    6ce4:	854a                	mv	a0,s2
    6ce6:	715000ef          	jal	ra,7bfa <inet_chksum_pseudo>
    6cea:	a808                	fsd	fa0,16(s0)
    6cec:	8121                	srli	a0,a0,0x8
    6cee:	b808                	fsd	fa0,48(s0)
    6cf0:	4799                	li	a5,6
    6cf2:	4701                	li	a4,0
    6cf4:	08000693          	li	a3,128
    6cf8:	8652                	mv	a2,s4
    6cfa:	85ce                	mv	a1,s3
    6cfc:	854a                	mv	a0,s2
    6cfe:	84dfc0ef          	jal	ra,354a <ip_output>
    6d02:	854a                	mv	a0,s2
    6d04:	b92fd0ef          	jal	ra,4096 <pbuf_free>
    6d08:	0141                	addi	sp,sp,16
    6d0a:	d40f906f          	j	24a <__riscv_restore_4>

00006d0e <tcp_rexmit_rto>:
tcp_rexmit_rto():
    6d0e:	5d7c                	lw	a5,124(a0)
    6d10:	cb85                	beqz	a5,6d40 <tcp_rexmit_rto+0x32>
    6d12:	d1ef92ef          	jal	t0,230 <__riscv_save_0>
    6d16:	873e                	mv	a4,a5
    6d18:	4314                	lw	a3,0(a4)
    6d1a:	e28d                	bnez	a3,6d3c <tcp_rexmit_rto+0x2e>
    6d1c:	5d34                	lw	a3,120(a0)
    6d1e:	c314                	sw	a3,0(a4)
    6d20:	dd3c                	sw	a5,120(a0)
    6d22:	04e54783          	lbu	a5,78(a0)
    6d26:	06052e23          	sw	zero,124(a0)
    6d2a:	04052023          	sw	zero,64(a0)
    6d2e:	0785                	addi	a5,a5,1
    6d30:	04f50723          	sb	a5,78(a0)
    6d34:	b81ff0ef          	jal	ra,68b4 <tcp_output>
    6d38:	d1cf906f          	j	254 <__riscv_restore_0>
    6d3c:	8736                	mv	a4,a3
    6d3e:	bfe9                	j	6d18 <tcp_rexmit_rto+0xa>
    6d40:	8082                	ret

00006d42 <tcp_rexmit>:
tcp_rexmit():
    6d42:	cd4f92ef          	jal	t0,216 <__riscv_save_4>
    6d46:	5d64                	lw	s1,124(a0)
    6d48:	c48d                	beqz	s1,6d72 <tcp_rexmit+0x30>
    6d4a:	409c                	lw	a5,0(s1)
    6d4c:	842a                	mv	s0,a0
    6d4e:	07850913          	addi	s2,a0,120
    6d52:	dd7c                	sw	a5,124(a0)
    6d54:	00092783          	lw	a5,0(s2)
    6d58:	ef99                	bnez	a5,6d76 <tcp_rexmit+0x34>
    6d5a:	00092783          	lw	a5,0(s2)
    6d5e:	c09c                	sw	a5,0(s1)
    6d60:	00992023          	sw	s1,0(s2)
    6d64:	04e44783          	lbu	a5,78(s0)
    6d68:	04042023          	sw	zero,64(s0)
    6d6c:	0785                	addi	a5,a5,1
    6d6e:	04f40723          	sb	a5,78(s0)
    6d72:	cd8f906f          	j	24a <__riscv_restore_4>
    6d76:	4b98                	lw	a4,16(a5)
    6d78:	3348                	fld	fa0,160(a4)
    6d7a:	235c                	fld	fa5,128(a4)
    6d7c:	0522                	slli	a0,a0,0x8
    6d7e:	8d5d                	or	a0,a0,a5
    6d80:	237c                	fld	fa5,192(a4)
    6d82:	07c2                	slli	a5,a5,0x10
    6d84:	8fc9                	or	a5,a5,a0
    6d86:	3368                	fld	fa0,224(a4)
    6d88:	0562                	slli	a0,a0,0x18
    6d8a:	8d5d                	or	a0,a0,a5
    6d8c:	b58fc0ef          	jal	ra,30e4 <ntohl>
    6d90:	4898                	lw	a4,16(s1)
    6d92:	89aa                	mv	s3,a0
    6d94:	3348                	fld	fa0,160(a4)
    6d96:	235c                	fld	fa5,128(a4)
    6d98:	0522                	slli	a0,a0,0x8
    6d9a:	8d5d                	or	a0,a0,a5
    6d9c:	237c                	fld	fa5,192(a4)
    6d9e:	07c2                	slli	a5,a5,0x10
    6da0:	8fc9                	or	a5,a5,a0
    6da2:	3368                	fld	fa0,224(a4)
    6da4:	0562                	slli	a0,a0,0x18
    6da6:	8d5d                	or	a0,a0,a5
    6da8:	b3cfc0ef          	jal	ra,30e4 <ntohl>
    6dac:	40a98533          	sub	a0,s3,a0
    6db0:	fa0555e3          	bgez	a0,6d5a <tcp_rexmit+0x18>
    6db4:	00092903          	lw	s2,0(s2)
    6db8:	bf71                	j	6d54 <tcp_rexmit+0x12>

00006dba <tcp_rexmit_fast>:
tcp_rexmit_fast():
    6dba:	5d7c                	lw	a5,124(a0)
    6dbc:	cfa9                	beqz	a5,6e16 <tcp_rexmit_fast+0x5c>
    6dbe:	c72f92ef          	jal	t0,230 <__riscv_save_0>
    6dc2:	02654783          	lbu	a5,38(a0)
    6dc6:	842a                	mv	s0,a0
    6dc8:	8b91                	andi	a5,a5,4
    6dca:	e7a1                	bnez	a5,6e12 <tcp_rexmit_fast+0x58>
    6dcc:	f77ff0ef          	jal	ra,6d42 <tcp_rexmit>
    6dd0:	05645683          	lhu	a3,86(s0)
    6dd4:	06045783          	lhu	a5,96(s0)
    6dd8:	0016d713          	srli	a4,a3,0x1
    6ddc:	00d7f463          	bgeu	a5,a3,6de4 <tcp_rexmit_fast+0x2a>
    6de0:	0017d713          	srli	a4,a5,0x1
    6de4:	3c5e                	fld	fs8,496(sp)
    6de6:	04e41c23          	sh	a4,88(s0)
    6dea:	00179693          	slli	a3,a5,0x1
    6dee:	00d75463          	bge	a4,a3,6df6 <tcp_rexmit_fast+0x3c>
    6df2:	04d41c23          	sh	a3,88(s0)
    6df6:	470d                	li	a4,3
    6df8:	02e787b3          	mul	a5,a5,a4
    6dfc:	05845703          	lhu	a4,88(s0)
    6e00:	97ba                	add	a5,a5,a4
    6e02:	04f41b23          	sh	a5,86(s0)
    6e06:	02644783          	lbu	a5,38(s0)
    6e0a:	0047e793          	ori	a5,a5,4
    6e0e:	02f40323          	sb	a5,38(s0)
    6e12:	c42f906f          	j	254 <__riscv_restore_0>
    6e16:	8082                	ret

00006e18 <tcp_keepalive>:
tcp_keepalive():
    6e18:	bfef92ef          	jal	t0,216 <__riscv_save_4>
    6e1c:	84aa                	mv	s1,a0
    6e1e:	4601                	li	a2,0
    6e20:	45d1                	li	a1,20
    6e22:	4505                	li	a0,1
    6e24:	ac0fd0ef          	jal	ra,40e4 <pbuf_alloc>
    6e28:	c529                	beqz	a0,6e72 <tcp_keepalive+0x5a>
    6e2a:	842a                	mv	s0,a0
    6e2c:	4ce8                	lw	a0,92(s1)
    6e2e:	00448913          	addi	s2,s1,4
    6e32:	157d                	addi	a0,a0,-1
    6e34:	a8cfc0ef          	jal	ra,30c0 <htonl>
    6e38:	404c                	lw	a1,4(s0)
    6e3a:	862a                	mv	a2,a0
    6e3c:	8526                	mv	a0,s1
    6e3e:	cbcff0ef          	jal	ra,62fa <tcp_output_set_header.isra.0.constprop.1>
    6e42:	241a                	fld	fs0,384(sp)
    6e44:	89aa                	mv	s3,a0
    6e46:	4699                	li	a3,6
    6e48:	864a                	mv	a2,s2
    6e4a:	85a6                	mv	a1,s1
    6e4c:	8522                	mv	a0,s0
    6e4e:	5ad000ef          	jal	ra,7bfa <inet_chksum_pseudo>
    6e52:	00a98823          	sb	a0,16(s3)
    6e56:	8121                	srli	a0,a0,0x8
    6e58:	00a988a3          	sb	a0,17(s3)
    6e5c:	34b4                	fld	fa3,104(s1)
    6e5e:	4799                	li	a5,6
    6e60:	4701                	li	a4,0
    6e62:	864a                	mv	a2,s2
    6e64:	85a6                	mv	a1,s1
    6e66:	8522                	mv	a0,s0
    6e68:	ee2fc0ef          	jal	ra,354a <ip_output>
    6e6c:	8522                	mv	a0,s0
    6e6e:	a28fd0ef          	jal	ra,4096 <pbuf_free>
    6e72:	bd8f906f          	j	24a <__riscv_restore_4>

00006e76 <tcp_zero_window_probe>:
tcp_zero_window_probe():
    6e76:	ba0f92ef          	jal	t0,216 <__riscv_save_4>
    6e7a:	5d60                	lw	s0,124(a0)
    6e7c:	e019                	bnez	s0,6e82 <tcp_zero_window_probe+0xc>
    6e7e:	5d20                	lw	s0,120(a0)
    6e80:	c45d                	beqz	s0,6f2e <tcp_zero_window_probe+0xb8>
    6e82:	481c                	lw	a5,16(s0)
    6e84:	84aa                	mv	s1,a0
    6e86:	27c8                	fld	fa0,136(a5)
    6e88:	37dc                	fld	fa5,168(a5)
    6e8a:	07a2                	slli	a5,a5,0x8
    6e8c:	8d5d                	or	a0,a0,a5
    6e8e:	a24fc0ef          	jal	ra,30b2 <ntohs>
    6e92:	8905                	andi	a0,a0,1
    6e94:	cd59                	beqz	a0,6f32 <tcp_zero_window_probe+0xbc>
    6e96:	245e                	fld	fs0,464(sp)
    6e98:	efc9                	bnez	a5,6f32 <tcp_zero_window_probe+0xbc>
    6e9a:	4a05                	li	s4,1
    6e9c:	45d1                	li	a1,20
    6e9e:	4601                	li	a2,0
    6ea0:	4505                	li	a0,1
    6ea2:	a42fd0ef          	jal	ra,40e4 <pbuf_alloc>
    6ea6:	892a                	mv	s2,a0
    6ea8:	c159                	beqz	a0,6f2e <tcp_zero_window_probe+0xb8>
    6eaa:	4818                	lw	a4,16(s0)
    6eac:	414c                	lw	a1,4(a0)
    6eae:	8526                	mv	a0,s1
    6eb0:	3350                	fld	fa2,160(a4)
    6eb2:	235c                	fld	fa5,128(a4)
    6eb4:	0622                	slli	a2,a2,0x8
    6eb6:	8e5d                	or	a2,a2,a5
    6eb8:	237c                	fld	fa5,192(a4)
    6eba:	07c2                	slli	a5,a5,0x10
    6ebc:	8fd1                	or	a5,a5,a2
    6ebe:	3370                	fld	fa2,224(a4)
    6ec0:	0662                	slli	a2,a2,0x18
    6ec2:	8e5d                	or	a2,a2,a5
    6ec4:	c36ff0ef          	jal	ra,62fa <tcp_output_set_header.isra.0.constprop.1>
    6ec8:	89aa                	mv	s3,a0
    6eca:	060a0763          	beqz	s4,6f38 <tcp_zero_window_probe+0xc2>
    6ece:	3540                	fld	fs0,168(a0)
    6ed0:	255c                	fld	fa5,136(a0)
    6ed2:	6541                	lui	a0,0x10
    6ed4:	0422                	slli	s0,s0,0x8
    6ed6:	fc050513          	addi	a0,a0,-64 # ffc0 <_data_lma+0x79ec>
    6eda:	8c5d                	or	s0,s0,a5
    6edc:	9c8fc0ef          	jal	ra,30a4 <htons>
    6ee0:	8c69                	and	s0,s0,a0
    6ee2:	4545                	li	a0,17
    6ee4:	9c0fc0ef          	jal	ra,30a4 <htons>
    6ee8:	8c49                	or	s0,s0,a0
    6eea:	01041793          	slli	a5,s0,0x10
    6eee:	83c1                	srli	a5,a5,0x10
    6ef0:	00f98623          	sb	a5,12(s3)
    6ef4:	83a1                	srli	a5,a5,0x8
    6ef6:	00f986a3          	sb	a5,13(s3)
    6efa:	00895703          	lhu	a4,8(s2)
    6efe:	00448413          	addi	s0,s1,4
    6f02:	4699                	li	a3,6
    6f04:	8622                	mv	a2,s0
    6f06:	85a6                	mv	a1,s1
    6f08:	854a                	mv	a0,s2
    6f0a:	4f1000ef          	jal	ra,7bfa <inet_chksum_pseudo>
    6f0e:	00a98823          	sb	a0,16(s3)
    6f12:	8121                	srli	a0,a0,0x8
    6f14:	00a988a3          	sb	a0,17(s3)
    6f18:	34b4                	fld	fa3,104(s1)
    6f1a:	4799                	li	a5,6
    6f1c:	4701                	li	a4,0
    6f1e:	8622                	mv	a2,s0
    6f20:	85a6                	mv	a1,s1
    6f22:	854a                	mv	a0,s2
    6f24:	e26fc0ef          	jal	ra,354a <ip_output>
    6f28:	854a                	mv	a0,s2
    6f2a:	96cfd0ef          	jal	ra,4096 <pbuf_free>
    6f2e:	b1cf906f          	j	24a <__riscv_restore_4>
    6f32:	4a01                	li	s4,0
    6f34:	45d5                	li	a1,21
    6f36:	b7a5                	j	6e9e <tcp_zero_window_probe+0x28>
    6f38:	4418                	lw	a4,8(s0)
    6f3a:	00492783          	lw	a5,4(s2)
    6f3e:	00070703          	lb	a4,0(a4)
    6f42:	abd8                	fsd	fa4,144(a5)
    6f44:	bf5d                	j	6efa <tcp_zero_window_probe+0x84>

00006f46 <udp_input>:
udp_input():
    6f46:	abaf92ef          	jal	t0,200 <__riscv_save_12>
    6f4a:	4140                	lw	s0,4(a0)
    6f4c:	2506                	fld	fa0,64(sp)
    6f4e:	892a                	mv	s2,a0
    6f50:	301c                	fld	fa5,32(s0)
    6f52:	2008                	fld	fa0,0(s0)
    6f54:	1141                	addi	sp,sp,-16
    6f56:	07a2                	slli	a5,a5,0x8
    6f58:	8d5d                	or	a0,a0,a5
    6f5a:	8a2e                	mv	s4,a1
    6f5c:	956fc0ef          	jal	ra,30b2 <ntohs>
    6f60:	8121                	srli	a0,a0,0x8
    6f62:	893d                	andi	a0,a0,15
    6f64:	0509                	addi	a0,a0,2
    6f66:	050a                	slli	a0,a0,0x2
    6f68:	02a4c263          	blt	s1,a0,6f8c <udp_input+0x46>
    6f6c:	301c                	fld	fa5,32(s0)
    6f6e:	2008                	fld	fa0,0(s0)
    6f70:	07a2                	slli	a5,a5,0x8
    6f72:	8d5d                	or	a0,a0,a5
    6f74:	93efc0ef          	jal	ra,30b2 <ntohs>
    6f78:	00655593          	srli	a1,a0,0x6
    6f7c:	03c5f593          	andi	a1,a1,60
    6f80:	40b005b3          	neg	a1,a1
    6f84:	854a                	mv	a0,s2
    6f86:	8a2fd0ef          	jal	ra,4028 <pbuf_header>
    6f8a:	c519                	beqz	a0,6f98 <udp_input+0x52>
    6f8c:	854a                	mv	a0,s2
    6f8e:	908fd0ef          	jal	ra,4096 <pbuf_free>
    6f92:	0141                	addi	sp,sp,16
    6f94:	aa8f906f          	j	23c <__riscv_restore_12>
    6f98:	00492a83          	lw	s5,4(s2)
    6f9c:	01040c13          	addi	s8,s0,16
    6fa0:	85d2                	mv	a1,s4
    6fa2:	8562                	mv	a0,s8
    6fa4:	ddcfc0ef          	jal	ra,3580 <ip_addr_isbroadcast>
    6fa8:	001ac783          	lbu	a5,1(s5)
    6fac:	8b2a                	mv	s6,a0
    6fae:	000ac503          	lbu	a0,0(s5)
    6fb2:	07a2                	slli	a5,a5,0x8
    6fb4:	8d5d                	or	a0,a0,a5
    6fb6:	8fcfc0ef          	jal	ra,30b2 <ntohs>
    6fba:	003ac783          	lbu	a5,3(s5)
    6fbe:	8baa                	mv	s7,a0
    6fc0:	002ac503          	lbu	a0,2(s5)
    6fc4:	07a2                	slli	a5,a5,0x8
    6fc6:	8d5d                	or	a0,a0,a5
    6fc8:	8eafc0ef          	jal	ra,30b2 <ntohs>
    6fcc:	04400793          	li	a5,68
    6fd0:	86aa                	mv	a3,a0
    6fd2:	06f51d63          	bne	a0,a5,704c <udp_input+0x106>
    6fd6:	04300793          	li	a5,67
    6fda:	12fb9963          	bne	s7,a5,710c <udp_input+0x1c6>
    6fde:	020a2783          	lw	a5,32(s4)
    6fe2:	12078563          	beqz	a5,710c <udp_input+0x1c6>
    6fe6:	43c4                	lw	s1,4(a5)
    6fe8:	12048263          	beqz	s1,710c <udp_input+0x1c6>
    6fec:	40d4                	lw	a3,4(s1)
    6fee:	ce89                	beqz	a3,7008 <udp_input+0xc2>
    6ff0:	3458                	fld	fa4,168(s0)
    6ff2:	245c                	fld	fa5,136(s0)
    6ff4:	0722                	slli	a4,a4,0x8
    6ff6:	8f5d                	or	a4,a4,a5
    6ff8:	247c                	fld	fa5,200(s0)
    6ffa:	07c2                	slli	a5,a5,0x10
    6ffc:	8f5d                	or	a4,a4,a5
    6ffe:	347c                	fld	fa5,232(s0)
    7000:	07e2                	slli	a5,a5,0x18
    7002:	8fd9                	or	a5,a5,a4
    7004:	10f69463          	bne	a3,a5,710c <udp_input+0x1c6>
    7008:	007ac783          	lbu	a5,7(s5)
    700c:	006ac703          	lbu	a4,6(s5)
    7010:	07a2                	slli	a5,a5,0x8
    7012:	8fd9                	or	a5,a5,a4
    7014:	cb99                	beqz	a5,702a <udp_input+0xe4>
    7016:	00895703          	lhu	a4,8(s2)
    701a:	46c5                	li	a3,17
    701c:	8662                	mv	a2,s8
    701e:	00c40593          	addi	a1,s0,12
    7022:	854a                	mv	a0,s2
    7024:	3d7000ef          	jal	ra,7bfa <inet_chksum_pseudo>
    7028:	f135                	bnez	a0,6f8c <udp_input+0x46>
    702a:	55e1                	li	a1,-8
    702c:	854a                	mv	a0,s2
    702e:	ffbfc0ef          	jal	ra,4028 <pbuf_header>
    7032:	fd29                	bnez	a0,6f8c <udp_input+0x46>
    7034:	0e048c63          	beqz	s1,712c <udp_input+0x1e6>
    7038:	4c9c                	lw	a5,24(s1)
    703a:	dba9                	beqz	a5,6f8c <udp_input+0x46>
    703c:	4cc8                	lw	a0,28(s1)
    703e:	875e                	mv	a4,s7
    7040:	00c40693          	addi	a3,s0,12
    7044:	864a                	mv	a2,s2
    7046:	85a6                	mv	a1,s1
    7048:	9782                	jalr	a5
    704a:	b7a1                	j	6f92 <udp_input+0x4c>
    704c:	9141a483          	lw	s1,-1772(gp) # 20000124 <udp_pcbs>
    7050:	4d01                	li	s10,0
    7052:	4d81                	li	s11,0
    7054:	91418c93          	addi	s9,gp,-1772 # 20000124 <udp_pcbs>
    7058:	76c00613          	li	a2,1900
    705c:	e489                	bnez	s1,7066 <udp_input+0x120>
    705e:	0a0d0763          	beqz	s10,710c <udp_input+0x1c6>
    7062:	84ea                	mv	s1,s10
    7064:	b755                	j	7008 <udp_input+0xc2>
    7066:	28be                	fld	fa7,456(sp)
    7068:	08d79c63          	bne	a5,a3,7100 <udp_input+0x1ba>
    706c:	4098                	lw	a4,0(s1)
    706e:	040b1563          	bnez	s6,70b8 <udp_input+0x172>
    7072:	e339                	bnez	a4,70b8 <udp_input+0x172>
    7074:	000d1663          	bnez	s10,7080 <udp_input+0x13a>
    7078:	289c                	fld	fa5,16(s1)
    707a:	8b91                	andi	a5,a5,4
    707c:	e391                	bnez	a5,7080 <udp_input+0x13a>
    707e:	8d26                	mv	s10,s1
    7080:	28de                	fld	fa7,464(sp)
    7082:	09779263          	bne	a5,s7,7106 <udp_input+0x1c0>
    7086:	40cc                	lw	a1,4(s1)
    7088:	cd89                	beqz	a1,70a2 <udp_input+0x15c>
    708a:	3458                	fld	fa4,168(s0)
    708c:	245c                	fld	fa5,136(s0)
    708e:	0722                	slli	a4,a4,0x8
    7090:	8f5d                	or	a4,a4,a5
    7092:	247c                	fld	fa5,200(s0)
    7094:	07c2                	slli	a5,a5,0x10
    7096:	8f5d                	or	a4,a4,a5
    7098:	347c                	fld	fa5,232(s0)
    709a:	07e2                	slli	a5,a5,0x18
    709c:	8fd9                	or	a5,a5,a4
    709e:	06f59463          	bne	a1,a5,7106 <udp_input+0x1c0>
    70a2:	f60d83e3          	beqz	s11,7008 <udp_input+0xc2>
    70a6:	44dc                	lw	a5,12(s1)
    70a8:	00fda623          	sw	a5,12(s11)
    70ac:	000ca783          	lw	a5,0(s9)
    70b0:	009ca023          	sw	s1,0(s9)
    70b4:	c4dc                	sw	a5,12(s1)
    70b6:	bf89                	j	7008 <udp_input+0xc2>
    70b8:	381c                	fld	fa5,48(s0)
    70ba:	01044983          	lbu	s3,16(s0)
    70be:	07a2                	slli	a5,a5,0x8
    70c0:	0137e7b3          	or	a5,a5,s3
    70c4:	01244983          	lbu	s3,18(s0)
    70c8:	09c2                	slli	s3,s3,0x10
    70ca:	00f9e7b3          	or	a5,s3,a5
    70ce:	01344983          	lbu	s3,19(s0)
    70d2:	09e2                	slli	s3,s3,0x18
    70d4:	00f9e9b3          	or	s3,s3,a5
    70d8:	f8e98ee3          	beq	s3,a4,7074 <udp_input+0x12e>
    70dc:	f0000537          	lui	a0,0xf0000
    70e0:	c636                	sw	a3,12(sp)
    70e2:	802fc0ef          	jal	ra,30e4 <ntohl>
    70e6:	00a9f9b3          	and	s3,s3,a0
    70ea:	e0000537          	lui	a0,0xe0000
    70ee:	ff7fb0ef          	jal	ra,30e4 <ntohl>
    70f2:	46b2                	lw	a3,12(sp)
    70f4:	76c00613          	li	a2,1900
    70f8:	f6a98ee3          	beq	s3,a0,7074 <udp_input+0x12e>
    70fc:	f60b1ce3          	bnez	s6,7074 <udp_input+0x12e>
    7100:	8da6                	mv	s11,s1
    7102:	44c4                	lw	s1,12(s1)
    7104:	bfa1                	j	705c <udp_input+0x116>
    7106:	fec69de3          	bne	a3,a2,7100 <udp_input+0x1ba>
    710a:	bdfd                	j	7008 <udp_input+0xc2>
    710c:	3818                	fld	fa4,48(s0)
    710e:	281c                	fld	fa5,16(s0)
    7110:	0722                	slli	a4,a4,0x8
    7112:	8f5d                	or	a4,a4,a5
    7114:	283c                	fld	fa5,80(s0)
    7116:	07c2                	slli	a5,a5,0x10
    7118:	8f5d                	or	a4,a4,a5
    711a:	383c                	fld	fa5,112(s0)
    711c:	07e2                	slli	a5,a5,0x18
    711e:	8fd9                	or	a5,a5,a4
    7120:	004a2703          	lw	a4,4(s4)
    7124:	e6f714e3          	bne	a4,a5,6f8c <udp_input+0x46>
    7128:	4481                	li	s1,0
    712a:	bdf9                	j	7008 <udp_input+0xc2>
    712c:	e60b10e3          	bnez	s6,6f8c <udp_input+0x46>
    7130:	381c                	fld	fa5,48(s0)
    7132:	2804                	fld	fs1,16(s0)
    7134:	f0000537          	lui	a0,0xf0000
    7138:	07a2                	slli	a5,a5,0x8
    713a:	8fc5                	or	a5,a5,s1
    713c:	2824                	fld	fs1,80(s0)
    713e:	04c2                	slli	s1,s1,0x10
    7140:	8fc5                	or	a5,a5,s1
    7142:	3824                	fld	fs1,112(s0)
    7144:	04e2                	slli	s1,s1,0x18
    7146:	8cdd                	or	s1,s1,a5
    7148:	f9dfb0ef          	jal	ra,30e4 <ntohl>
    714c:	8ce9                	and	s1,s1,a0
    714e:	e0000537          	lui	a0,0xe0000
    7152:	f93fb0ef          	jal	ra,30e4 <ntohl>
    7156:	e2a48be3          	beq	s1,a0,6f8c <udp_input+0x46>
    715a:	301c                	fld	fa5,32(s0)
    715c:	2008                	fld	fa0,0(s0)
    715e:	07a2                	slli	a5,a5,0x8
    7160:	8d5d                	or	a0,a0,a5
    7162:	f51fb0ef          	jal	ra,30b2 <ntohs>
    7166:	00855593          	srli	a1,a0,0x8
    716a:	89bd                	andi	a1,a1,15
    716c:	0589                	addi	a1,a1,2
    716e:	058a                	slli	a1,a1,0x2
    7170:	854a                	mv	a0,s2
    7172:	eb7fc0ef          	jal	ra,4028 <pbuf_header>
    7176:	458d                	li	a1,3
    7178:	854a                	mv	a0,s2
    717a:	1db000ef          	jal	ra,7b54 <icmp_dest_unreach>
    717e:	b539                	j	6f8c <udp_input+0x46>

00007180 <udp_bind>:
udp_bind():
    7180:	9141a883          	lw	a7,-1772(gp) # 20000124 <udp_pcbs>
    7184:	86aa                	mv	a3,a0
    7186:	4301                	li	t1,0
    7188:	87c6                	mv	a5,a7
    718a:	91418813          	addi	a6,gp,-1772 # 20000124 <udp_pcbs>
    718e:	e79d                	bnez	a5,71bc <udp_bind+0x3c>
    7190:	c999                	beqz	a1,71a6 <udp_bind+0x26>
    7192:	3198                	fld	fa4,32(a1)
    7194:	219c                	fld	fa5,0(a1)
    7196:	0722                	slli	a4,a4,0x8
    7198:	8f5d                	or	a4,a4,a5
    719a:	21bc                	fld	fa5,64(a1)
    719c:	07c2                	slli	a5,a5,0x10
    719e:	8f5d                	or	a4,a4,a5
    71a0:	31bc                	fld	fa5,96(a1)
    71a2:	07e2                	slli	a5,a5,0x18
    71a4:	8fd9                	or	a5,a5,a4
    71a6:	c29c                	sw	a5,0(a3)
    71a8:	c625                	beqz	a2,7210 <udp_bind+0x90>
    71aa:	aab2                	fsd	fa2,336(sp)
    71ac:	4501                	li	a0,0
    71ae:	00031663          	bnez	t1,71ba <udp_bind+0x3a>
    71b2:	0116a623          	sw	a7,12(a3)
    71b6:	00d82023          	sw	a3,0(a6)
    71ba:	8082                	ret
    71bc:	02d78b63          	beq	a5,a3,71f2 <udp_bind+0x72>
    71c0:	2bba                	fld	fs7,392(sp)
    71c2:	02c71663          	bne	a4,a2,71ee <udp_bind+0x6e>
    71c6:	0007ae03          	lw	t3,0(a5) # 5000 <tcp_receive+0x22>
    71ca:	000e1463          	bnez	t3,71d2 <udp_bind+0x52>
    71ce:	5555                	li	a0,-11
    71d0:	8082                	ret
    71d2:	ddf5                	beqz	a1,71ce <udp_bind+0x4e>
    71d4:	3188                	fld	fa0,32(a1)
    71d6:	2198                	fld	fa4,0(a1)
    71d8:	0522                	slli	a0,a0,0x8
    71da:	8d59                	or	a0,a0,a4
    71dc:	21b8                	fld	fa4,64(a1)
    71de:	0742                	slli	a4,a4,0x10
    71e0:	8d59                	or	a0,a0,a4
    71e2:	31b8                	fld	fa4,96(a1)
    71e4:	0762                	slli	a4,a4,0x18
    71e6:	8f49                	or	a4,a4,a0
    71e8:	d37d                	beqz	a4,71ce <udp_bind+0x4e>
    71ea:	feee02e3          	beq	t3,a4,71ce <udp_bind+0x4e>
    71ee:	47dc                	lw	a5,12(a5)
    71f0:	bf79                	j	718e <udp_bind+0xe>
    71f2:	4305                	li	t1,1
    71f4:	bfed                	j	71ee <udp_bind+0x6e>
    71f6:	2bae                	fld	fs7,200(sp)
    71f8:	00c59a63          	bne	a1,a2,720c <udp_bind+0x8c>
    71fc:	0605                	addi	a2,a2,1
    71fe:	0642                	slli	a2,a2,0x10
    7200:	8241                	srli	a2,a2,0x10
    7202:	87c6                	mv	a5,a7
    7204:	d3dd                	beqz	a5,71aa <udp_bind+0x2a>
    7206:	fee618e3          	bne	a2,a4,71f6 <udp_bind+0x76>
    720a:	b7d1                	j	71ce <udp_bind+0x4e>
    720c:	47dc                	lw	a5,12(a5)
    720e:	bfdd                	j	7204 <udp_bind+0x84>
    7210:	6721                	lui	a4,0x8
    7212:	87c6                	mv	a5,a7
    7214:	6605                	lui	a2,0x1
    7216:	177d                	addi	a4,a4,-1
    7218:	b7f5                	j	7204 <udp_bind+0x84>

0000721a <udp_sendto_if>:
udp_sendto_if():
    721a:	ffdf82ef          	jal	t0,216 <__riscv_save_4>
    721e:	293e                	fld	fs2,456(sp)
    7220:	892a                	mv	s2,a0
    7222:	89ae                	mv	s3,a1
    7224:	8ab2                	mv	s5,a2
    7226:	8b36                	mv	s6,a3
    7228:	8a3a                	mv	s4,a4
    722a:	c7ad                	beqz	a5,7294 <udp_sendto_if+0x7a>
    722c:	45a1                	li	a1,8
    722e:	854e                	mv	a0,s3
    7230:	df9fc0ef          	jal	ra,4028 <pbuf_header>
    7234:	84ce                	mv	s1,s3
    7236:	cd01                	beqz	a0,724e <udp_sendto_if+0x34>
    7238:	4601                	li	a2,0
    723a:	45a1                	li	a1,8
    723c:	4505                	li	a0,1
    723e:	ea7fc0ef          	jal	ra,40e4 <pbuf_alloc>
    7242:	84aa                	mv	s1,a0
    7244:	547d                	li	s0,-1
    7246:	cd29                	beqz	a0,72a0 <udp_sendto_if+0x86>
    7248:	85ce                	mv	a1,s3
    724a:	866fd0ef          	jal	ra,42b0 <pbuf_chain>
    724e:	01295503          	lhu	a0,18(s2)
    7252:	40c0                	lw	s0,4(s1)
    7254:	e51fb0ef          	jal	ra,30a4 <htons>
    7258:	a008                	fsd	fa0,0(s0)
    725a:	8121                	srli	a0,a0,0x8
    725c:	b008                	fsd	fa0,32(s0)
    725e:	855a                	mv	a0,s6
    7260:	e45fb0ef          	jal	ra,30a4 <htons>
    7264:	00092783          	lw	a5,0(s2)
    7268:	a028                	fsd	fa0,64(s0)
    726a:	8121                	srli	a0,a0,0x8
    726c:	b028                	fsd	fa0,96(s0)
    726e:	00040323          	sb	zero,6(s0)
    7272:	000403a3          	sb	zero,7(s0)
    7276:	004a0b13          	addi	s6,s4,4
    727a:	c795                	beqz	a5,72a6 <udp_sendto_if+0x8c>
    727c:	004a2703          	lw	a4,4(s4)
    7280:	8b4a                	mv	s6,s2
    7282:	02e78263          	beq	a5,a4,72a6 <udp_sendto_if+0x8c>
    7286:	545d                	li	s0,-9
    7288:	01348c63          	beq	s1,s3,72a0 <udp_sendto_if+0x86>
    728c:	8526                	mv	a0,s1
    728e:	e09fc0ef          	jal	ra,4096 <pbuf_free>
    7292:	a039                	j	72a0 <udp_sendto_if+0x86>
    7294:	4601                	li	a2,0
    7296:	85aa                	mv	a1,a0
    7298:	ee9ff0ef          	jal	ra,7180 <udp_bind>
    729c:	842a                	mv	s0,a0
    729e:	d559                	beqz	a0,722c <udp_sendto_if+0x12>
    72a0:	8522                	mv	a0,s0
    72a2:	fa9f806f          	j	24a <__riscv_restore_4>
    72a6:	248a                	fld	fs1,128(sp)
    72a8:	dfdfb0ef          	jal	ra,30a4 <htons>
    72ac:	a048                	fsd	fa0,128(s0)
    72ae:	8121                	srli	a0,a0,0x8
    72b0:	b048                	fsd	fa0,160(s0)
    72b2:	01094783          	lbu	a5,16(s2)
    72b6:	8b85                	andi	a5,a5,1
    72b8:	ef81                	bnez	a5,72d0 <udp_sendto_if+0xb6>
    72ba:	249a                	fld	fs1,384(sp)
    72bc:	46c5                	li	a3,17
    72be:	8656                	mv	a2,s5
    72c0:	85da                	mv	a1,s6
    72c2:	8526                	mv	a0,s1
    72c4:	137000ef          	jal	ra,7bfa <inet_chksum_pseudo>
    72c8:	c10d                	beqz	a0,72ea <udp_sendto_if+0xd0>
    72ca:	a068                	fsd	fa0,192(s0)
    72cc:	8121                	srli	a0,a0,0x8
    72ce:	b068                	fsd	fa0,224(s0)
    72d0:	00a94703          	lbu	a4,10(s2)
    72d4:	00b94683          	lbu	a3,11(s2)
    72d8:	8852                	mv	a6,s4
    72da:	47c5                	li	a5,17
    72dc:	8656                	mv	a2,s5
    72de:	85da                	mv	a1,s6
    72e0:	8526                	mv	a0,s1
    72e2:	90efc0ef          	jal	ra,33f0 <ip_output_if>
    72e6:	842a                	mv	s0,a0
    72e8:	b745                	j	7288 <udp_sendto_if+0x6e>
    72ea:	57fd                	li	a5,-1
    72ec:	a07c                	fsd	fa5,192(s0)
    72ee:	b07c                	fsd	fa5,224(s0)
    72f0:	b7c5                	j	72d0 <udp_sendto_if+0xb6>

000072f2 <udp_sendto>:
udp_sendto():
    72f2:	f3ff82ef          	jal	t0,230 <__riscv_save_0>
    72f6:	1141                	addi	sp,sp,-16
    72f8:	842a                	mv	s0,a0
    72fa:	8532                	mv	a0,a2
    72fc:	c62e                	sw	a1,12(sp)
    72fe:	c436                	sw	a3,8(sp)
    7300:	c232                	sw	a2,4(sp)
    7302:	dedfb0ef          	jal	ra,30ee <ip_route>
    7306:	c919                	beqz	a0,731c <udp_sendto+0x2a>
    7308:	46a2                	lw	a3,8(sp)
    730a:	4612                	lw	a2,4(sp)
    730c:	45b2                	lw	a1,12(sp)
    730e:	872a                	mv	a4,a0
    7310:	8522                	mv	a0,s0
    7312:	f09ff0ef          	jal	ra,721a <udp_sendto_if>
    7316:	0141                	addi	sp,sp,16
    7318:	f3df806f          	j	254 <__riscv_restore_0>
    731c:	5571                	li	a0,-4
    731e:	bfe5                	j	7316 <udp_sendto+0x24>

00007320 <udp_send>:
udp_send():
    7320:	f11f82ef          	jal	t0,230 <__riscv_save_0>
    7324:	2956                	fld	fs2,336(sp)
    7326:	00450613          	addi	a2,a0,4 # e0000004 <_eusrstack+0xbffe0004>
    732a:	fc9ff0ef          	jal	ra,72f2 <udp_sendto>
    732e:	f27f806f          	j	254 <__riscv_restore_0>

00007332 <udp_connect>:
udp_connect():
    7332:	efff82ef          	jal	t0,230 <__riscv_save_0>
    7336:	293e                	fld	fs2,456(sp)
    7338:	842a                	mv	s0,a0
    733a:	84ae                	mv	s1,a1
    733c:	8932                	mv	s2,a2
    733e:	cbb1                	beqz	a5,7392 <udp_connect+0x60>
    7340:	4781                	li	a5,0
    7342:	c899                	beqz	s1,7358 <udp_connect+0x26>
    7344:	3098                	fld	fa4,32(s1)
    7346:	209c                	fld	fa5,0(s1)
    7348:	0722                	slli	a4,a4,0x8
    734a:	8f5d                	or	a4,a4,a5
    734c:	20bc                	fld	fa5,64(s1)
    734e:	07c2                	slli	a5,a5,0x10
    7350:	8f5d                	or	a4,a4,a5
    7352:	30bc                	fld	fa5,96(s1)
    7354:	07e2                	slli	a5,a5,0x18
    7356:	8fd9                	or	a5,a5,a4
    7358:	2818                	fld	fa4,16(s0)
    735a:	c05c                	sw	a5,4(s0)
    735c:	01241a23          	sh	s2,20(s0)
    7360:	00476713          	ori	a4,a4,4
    7364:	a818                	fsd	fa4,16(s0)
    7366:	4018                	lw	a4,0(s0)
    7368:	ef05                	bnez	a4,73a0 <udp_connect+0x6e>
    736a:	cf85                	beqz	a5,73a2 <udp_connect+0x70>
    736c:	00440513          	addi	a0,s0,4
    7370:	d7ffb0ef          	jal	ra,30ee <ip_route>
    7374:	87aa                	mv	a5,a0
    7376:	5571                	li	a0,-4
    7378:	c395                	beqz	a5,739c <udp_connect+0x6a>
    737a:	43dc                	lw	a5,4(a5)
    737c:	c01c                	sw	a5,0(s0)
    737e:	9141a683          	lw	a3,-1772(gp) # 20000124 <udp_pcbs>
    7382:	91418793          	addi	a5,gp,-1772 # 20000124 <udp_pcbs>
    7386:	8736                	mv	a4,a3
    7388:	e305                	bnez	a4,73a8 <udp_connect+0x76>
    738a:	c454                	sw	a3,12(s0)
    738c:	c380                	sw	s0,0(a5)
    738e:	4501                	li	a0,0
    7390:	a031                	j	739c <udp_connect+0x6a>
    7392:	4601                	li	a2,0
    7394:	85aa                	mv	a1,a0
    7396:	debff0ef          	jal	ra,7180 <udp_bind>
    739a:	d15d                	beqz	a0,7340 <udp_connect+0xe>
    739c:	eb9f806f          	j	254 <__riscv_restore_0>
    73a0:	fff9                	bnez	a5,737e <udp_connect+0x4c>
    73a2:	00042023          	sw	zero,0(s0)
    73a6:	bfe1                	j	737e <udp_connect+0x4c>
    73a8:	fe8703e3          	beq	a4,s0,738e <udp_connect+0x5c>
    73ac:	4758                	lw	a4,12(a4)
    73ae:	bfe9                	j	7388 <udp_connect+0x56>

000073b0 <udp_recv>:
udp_recv():
    73b0:	cd0c                	sw	a1,24(a0)
    73b2:	cd50                	sw	a2,28(a0)
    73b4:	8082                	ret

000073b6 <udp_new>:
udp_new():
    73b6:	e7bf82ef          	jal	t0,230 <__riscv_save_0>
    73ba:	4505                	li	a0,1
    73bc:	af1fc0ef          	jal	ra,3eac <memp_malloc>
    73c0:	842a                	mv	s0,a0
    73c2:	c909                	beqz	a0,73d4 <udp_new+0x1e>
    73c4:	02000613          	li	a2,32
    73c8:	4581                	li	a1,0
    73ca:	e97f80ef          	jal	ra,260 <memset>
    73ce:	f8000793          	li	a5,-128
    73d2:	b43c                	fsd	fa5,104(s0)
    73d4:	8522                	mv	a0,s0
    73d6:	e7ff806f          	j	254 <__riscv_restore_0>

000073da <IPCheckParaInit>:
IPCheckParaInit():
    73da:	8881a703          	lw	a4,-1912(gp) # 20000098 <LocalTime>
    73de:	b1c18793          	addi	a5,gp,-1252 # 2000032c <SelARP>
    73e2:	a388                	fsd	fa0,0(a5)
    73e4:	00079123          	sh	zero,2(a5)
    73e8:	00079223          	sh	zero,4(a5)
    73ec:	c798                	sw	a4,8(a5)
    73ee:	000780a3          	sb	zero,1(a5)
    73f2:	8082                	ret

000073f4 <SelIPARPSend>:
SelIPARPSend():
    73f4:	e3df82ef          	jal	t0,230 <__riscv_save_0>
    73f8:	a7c18413          	addi	s0,gp,-1412 # 2000028c <WCHNetIf>
    73fc:	405c                	lw	a5,4(s0)
    73fe:	1141                	addi	sp,sp,-16
    7400:	006c                	addi	a1,sp,12
    7402:	a7c18513          	addi	a0,gp,-1412 # 2000028c <WCHNetIf>
    7406:	c63e                	sw	a5,12(sp)
    7408:	00042223          	sw	zero,4(s0)
    740c:	ce6fb0ef          	jal	ra,28f2 <etharp_request>
    7410:	47b2                	lw	a5,12(sp)
    7412:	006c                	addi	a1,sp,12
    7414:	a7c18513          	addi	a0,gp,-1412 # 2000028c <WCHNetIf>
    7418:	c05c                	sw	a5,4(s0)
    741a:	445c                	lw	a5,12(s0)
    741c:	c63e                	sw	a5,12(sp)
    741e:	cd4fb0ef          	jal	ra,28f2 <etharp_request>
    7422:	0141                	addi	sp,sp,16
    7424:	e31f806f          	j	254 <__riscv_restore_0>

00007428 <IPCheckTmr>:
IPCheckTmr():
    7428:	b1c18793          	addi	a5,gp,-1252 # 2000032c <SelARP>
    742c:	2398                	fld	fa4,0(a5)
    742e:	e319                	bnez	a4,7434 <IPCheckTmr+0xc>
    7430:	c788                	sw	a0,8(a5)
    7432:	8082                	ret
    7434:	4798                	lw	a4,8(a5)
    7436:	3e700693          	li	a3,999
    743a:	40e50733          	sub	a4,a0,a4
    743e:	02e6f363          	bgeu	a3,a4,7464 <IPCheckTmr+0x3c>
    7442:	deff82ef          	jal	t0,230 <__riscv_save_0>
    7446:	23ba                	fld	ft7,392(sp)
    7448:	c788                	sw	a0,8(a5)
    744a:	4691                	li	a3,4
    744c:	00e6f763          	bgeu	a3,a4,745a <IPCheckTmr+0x32>
    7450:	4501                	li	a0,0
    7452:	f89ff0ef          	jal	ra,73da <IPCheckParaInit>
    7456:	dfff806f          	j	254 <__riscv_restore_0>
    745a:	0705                	addi	a4,a4,1
    745c:	a3ba                	fsd	fa4,448(sp)
    745e:	f97ff0ef          	jal	ra,73f4 <SelIPARPSend>
    7462:	bfd5                	j	7456 <IPCheckTmr+0x2e>
    7464:	8082                	ret

00007466 <ArpCheck>:
ArpCheck():
    7466:	dcbf82ef          	jal	t0,230 <__riscv_save_0>
    746a:	91818413          	addi	s0,gp,-1768 # 20000128 <ArpCheckTime>
    746e:	4018                	lw	a4,0(s0)
    7470:	67bd                	lui	a5,0xf
    7472:	a5f78793          	addi	a5,a5,-1441 # ea5f <_data_lma+0x648b>
    7476:	40e50733          	sub	a4,a0,a4
    747a:	00e7f663          	bgeu	a5,a4,7486 <ArpCheck+0x20>
    747e:	84aa                	mv	s1,a0
    7480:	f75ff0ef          	jal	ra,73f4 <SelIPARPSend>
    7484:	c004                	sw	s1,0(s0)
    7486:	dcff806f          	j	254 <__riscv_restore_0>

0000748a <IPConflictHandle>:
IPConflictHandle():
    748a:	da7f82ef          	jal	t0,230 <__riscv_save_0>
    748e:	842a                	mv	s0,a0
    7490:	4501                	li	a0,0
    7492:	f49ff0ef          	jal	ra,73da <IPCheckParaInit>
    7496:	b1c18793          	addi	a5,gp,-1252 # 2000032c <SelARP>
    749a:	c801                	beqz	s0,74aa <IPConflictHandle+0x20>
    749c:	4705                	li	a4,1
    749e:	b398                	fsd	fa4,32(a5)
    74a0:	4709                	li	a4,2
    74a2:	94e1aa23          	sw	a4,-1708(gp) # 20000164 <NetInf+0x2c>
    74a6:	daff806f          	j	254 <__riscv_restore_0>
    74aa:	000780a3          	sb	zero,1(a5)
    74ae:	bfe5                	j	74a6 <IPConflictHandle+0x1c>

000074b0 <dhcp_set_state>:
dhcp_set_state():
    74b0:	293c                	fld	fa5,80(a0)
    74b2:	00b78563          	beq	a5,a1,74bc <dhcp_set_state+0xc>
    74b6:	a92c                	fsd	fa1,80(a0)
    74b8:	000509a3          	sb	zero,19(a0)
    74bc:	8082                	ret

000074be <dhcp_option>:
dhcp_option():
    74be:	2d5e                	fld	fs10,464(sp)
    74c0:	4d18                	lw	a4,24(a0)
    74c2:	00f706b3          	add	a3,a4,a5
    74c6:	0eb68823          	sb	a1,240(a3)
    74ca:	00278693          	addi	a3,a5,2
    74ce:	0785                	addi	a5,a5,1
    74d0:	07c2                	slli	a5,a5,0x10
    74d2:	83c1                	srli	a5,a5,0x10
    74d4:	ad56                	fsd	fs5,152(sp)
    74d6:	97ba                	add	a5,a5,a4
    74d8:	0ec78823          	sb	a2,240(a5)
    74dc:	8082                	ret

000074de <dhcp_option_byte>:
dhcp_option_byte():
    74de:	2d5a                	fld	fs10,400(sp)
    74e0:	4d1c                	lw	a5,24(a0)
    74e2:	00170693          	addi	a3,a4,1 # 8001 <print+0x69>
    74e6:	ad56                	fsd	fs5,152(sp)
    74e8:	97ba                	add	a5,a5,a4
    74ea:	0eb78823          	sb	a1,240(a5)
    74ee:	8082                	ret

000074f0 <dhcp_option_long>:
dhcp_option_long():
    74f0:	2d5e                	fld	fs10,464(sp)
    74f2:	4d18                	lw	a4,24(a0)
    74f4:	0185d613          	srli	a2,a1,0x18
    74f8:	00f706b3          	add	a3,a4,a5
    74fc:	0ec68823          	sb	a2,240(a3)
    7500:	00178693          	addi	a3,a5,1
    7504:	06c2                	slli	a3,a3,0x10
    7506:	82c1                	srli	a3,a3,0x10
    7508:	96ba                	add	a3,a3,a4
    750a:	0105d613          	srli	a2,a1,0x10
    750e:	0ec68823          	sb	a2,240(a3)
    7512:	00278693          	addi	a3,a5,2
    7516:	06c2                	slli	a3,a3,0x10
    7518:	82c1                	srli	a3,a3,0x10
    751a:	96ba                	add	a3,a3,a4
    751c:	0085d613          	srli	a2,a1,0x8
    7520:	0ec68823          	sb	a2,240(a3)
    7524:	00478693          	addi	a3,a5,4
    7528:	078d                	addi	a5,a5,3
    752a:	07c2                	slli	a5,a5,0x10
    752c:	83c1                	srli	a5,a5,0x10
    752e:	ad56                	fsd	fs5,152(sp)
    7530:	97ba                	add	a5,a5,a4
    7532:	0eb78823          	sb	a1,240(a5)
    7536:	8082                	ret

00007538 <dhcp_option_trailer>:
dhcp_option_trailer():
    7538:	c115                	beqz	a0,755c <dhcp_option_trailer+0x24>
    753a:	2d5e                	fld	fs10,464(sp)
    753c:	4d18                	lw	a4,24(a0)
    753e:	04300613          	li	a2,67
    7542:	00178693          	addi	a3,a5,1
    7546:	ad56                	fsd	fs5,152(sp)
    7548:	97ba                	add	a5,a5,a4
    754a:	56fd                	li	a3,-1
    754c:	0ed78823          	sb	a3,240(a5)
    7550:	2d5e                	fld	fs10,464(sp)
    7552:	00f67663          	bgeu	a2,a5,755e <dhcp_option_trailer+0x26>
    7556:	0037f693          	andi	a3,a5,3
    755a:	e291                	bnez	a3,755e <dhcp_option_trailer+0x26>
    755c:	8082                	ret
    755e:	00178693          	addi	a3,a5,1
    7562:	ad56                	fsd	fs5,152(sp)
    7564:	97ba                	add	a5,a5,a4
    7566:	0e078823          	sb	zero,240(a5)
    756a:	b7dd                	j	7550 <dhcp_option_trailer+0x18>

0000756c <dhcp_create_request>:
dhcp_create_request():
    756c:	16050c63          	beqz	a0,76e4 <dhcp_create_request+0x178>
    7570:	cc1f82ef          	jal	t0,230 <__riscv_save_0>
    7574:	02052903          	lw	s2,32(a0)
    7578:	57dd                	li	a5,-9
    757a:	16090263          	beqz	s2,76de <dhcp_create_request+0x172>
    757e:	84aa                	mv	s1,a0
    7580:	4601                	li	a2,0
    7582:	13400593          	li	a1,308
    7586:	4501                	li	a0,0
    7588:	b5dfc0ef          	jal	ra,40e4 <pbuf_alloc>
    758c:	00a92a23          	sw	a0,20(s2)
    7590:	872a                	mv	a4,a0
    7592:	57fd                	li	a5,-1
    7594:	14050563          	beqz	a0,76de <dhcp_create_request+0x172>
    7598:	01394683          	lbu	a3,19(s2)
    759c:	83018793          	addi	a5,gp,-2000 # 20000040 <xid.6638>
    75a0:	e681                	bnez	a3,75a8 <dhcp_create_request+0x3c>
    75a2:	4394                	lw	a3,0(a5)
    75a4:	0685                	addi	a3,a3,1
    75a6:	c394                	sw	a3,0(a5)
    75a8:	4340                	lw	s0,4(a4)
    75aa:	4388                	lw	a0,0(a5)
    75ac:	4785                	li	a5,1
    75ae:	00892c23          	sw	s0,24(s2)
    75b2:	00a92023          	sw	a0,0(s2)
    75b6:	a01c                	fsd	fa5,0(s0)
    75b8:	b01c                	fsd	fa5,32(s0)
    75ba:	4799                	li	a5,6
    75bc:	a03c                	fsd	fa5,64(s0)
    75be:	000401a3          	sb	zero,3(s0)
    75c2:	afffb0ef          	jal	ra,30c0 <htonl>
    75c6:	00855793          	srli	a5,a0,0x8
    75ca:	a048                	fsd	fa0,128(s0)
    75cc:	b05c                	fsd	fa5,160(s0)
    75ce:	01055793          	srli	a5,a0,0x10
    75d2:	8161                	srli	a0,a0,0x18
    75d4:	a07c                	fsd	fa5,192(s0)
    75d6:	b068                	fsd	fa0,224(s0)
    75d8:	01892403          	lw	s0,24(s2)
    75dc:	4729                	li	a4,10
    75de:	00040423          	sb	zero,8(s0)
    75e2:	000404a3          	sb	zero,9(s0)
    75e6:	00040523          	sb	zero,10(s0)
    75ea:	000405a3          	sb	zero,11(s0)
    75ee:	00040623          	sb	zero,12(s0)
    75f2:	000406a3          	sb	zero,13(s0)
    75f6:	00040723          	sb	zero,14(s0)
    75fa:	000407a3          	sb	zero,15(s0)
    75fe:	01294783          	lbu	a5,18(s2)
    7602:	00e78863          	beq	a5,a4,7612 <dhcp_create_request+0xa6>
    7606:	17f1                	addi	a5,a5,-4
    7608:	0ff7f793          	andi	a5,a5,255
    760c:	4705                	li	a4,1
    760e:	00f76a63          	bltu	a4,a5,7622 <dhcp_create_request+0xb6>
    7612:	20dc                	fld	fa5,128(s1)
    7614:	a45c                	fsd	fa5,136(s0)
    7616:	30dc                	fld	fa5,160(s1)
    7618:	b45c                	fsd	fa5,168(s0)
    761a:	20fc                	fld	fa5,192(s1)
    761c:	a47c                	fsd	fa5,200(s0)
    761e:	30fc                	fld	fa5,224(s1)
    7620:	b47c                	fsd	fa5,232(s0)
    7622:	00040823          	sb	zero,16(s0)
    7626:	000408a3          	sb	zero,17(s0)
    762a:	00040923          	sb	zero,18(s0)
    762e:	000409a3          	sb	zero,19(s0)
    7632:	00040a23          	sb	zero,20(s0)
    7636:	00040aa3          	sb	zero,21(s0)
    763a:	00040b23          	sb	zero,22(s0)
    763e:	00040ba3          	sb	zero,23(s0)
    7642:	00040c23          	sb	zero,24(s0)
    7646:	00040ca3          	sb	zero,25(s0)
    764a:	00040d23          	sb	zero,26(s0)
    764e:	00040da3          	sb	zero,27(s0)
    7652:	02a4c583          	lbu	a1,42(s1)
    7656:	4781                	li	a5,0
    7658:	4641                	li	a2,16
    765a:	01079713          	slli	a4,a5,0x10
    765e:	8341                	srli	a4,a4,0x10
    7660:	4681                	li	a3,0
    7662:	00b77663          	bgeu	a4,a1,766e <dhcp_create_request+0x102>
    7666:	00f48733          	add	a4,s1,a5
    766a:	02b74683          	lbu	a3,43(a4)
    766e:	00f40733          	add	a4,s0,a5
    7672:	af54                	fsd	fa3,152(a4)
    7674:	0785                	addi	a5,a5,1
    7676:	fec792e3          	bne	a5,a2,765a <dhcp_create_request+0xee>
    767a:	02c40713          	addi	a4,s0,44
    767e:	06c40793          	addi	a5,s0,108
    7682:	00070023          	sb	zero,0(a4)
    7686:	0705                	addi	a4,a4,1
    7688:	fee79de3          	bne	a5,a4,7682 <dhcp_create_request+0x116>
    768c:	0ec40713          	addi	a4,s0,236
    7690:	00078023          	sb	zero,0(a5)
    7694:	0785                	addi	a5,a5,1
    7696:	fee79de3          	bne	a5,a4,7690 <dhcp_create_request+0x124>
    769a:	63825537          	lui	a0,0x63825
    769e:	36350513          	addi	a0,a0,867 # 63825363 <_eusrstack+0x43805363>
    76a2:	a1ffb0ef          	jal	ra,30c0 <htonl>
    76a6:	00855793          	srli	a5,a0,0x8
    76aa:	0ea40623          	sb	a0,236(s0)
    76ae:	0ef406a3          	sb	a5,237(s0)
    76b2:	01892603          	lw	a2,24(s2)
    76b6:	01055793          	srli	a5,a0,0x10
    76ba:	8161                	srli	a0,a0,0x18
    76bc:	0ef40723          	sb	a5,238(s0)
    76c0:	0ea407a3          	sb	a0,239(s0)
    76c4:	00091e23          	sh	zero,28(s2)
    76c8:	4781                	li	a5,0
    76ca:	04400713          	li	a4,68
    76ce:	00f606b3          	add	a3,a2,a5
    76d2:	0ef68823          	sb	a5,240(a3)
    76d6:	0785                	addi	a5,a5,1
    76d8:	fee79be3          	bne	a5,a4,76ce <dhcp_create_request+0x162>
    76dc:	4781                	li	a5,0
    76de:	853e                	mv	a0,a5
    76e0:	b75f806f          	j	254 <__riscv_restore_0>
    76e4:	57d9                	li	a5,-10
    76e6:	853e                	mv	a0,a5
    76e8:	8082                	ret

000076ea <dhcp_delete_request>:
dhcp_delete_request():
    76ea:	cd19                	beqz	a0,7708 <dhcp_delete_request+0x1e>
    76ec:	b45f82ef          	jal	t0,230 <__riscv_save_0>
    76f0:	5100                	lw	s0,32(a0)
    76f2:	c809                	beqz	s0,7704 <dhcp_delete_request+0x1a>
    76f4:	4848                	lw	a0,20(s0)
    76f6:	c119                	beqz	a0,76fc <dhcp_delete_request+0x12>
    76f8:	99ffc0ef          	jal	ra,4096 <pbuf_free>
    76fc:	00042a23          	sw	zero,20(s0)
    7700:	00042c23          	sw	zero,24(s0)
    7704:	b51f806f          	j	254 <__riscv_restore_0>
    7708:	8082                	ret

0000770a <dhcp_arp_reply>:
dhcp_arp_reply():
    770a:	18050163          	beqz	a0,788c <dhcp_arp_reply+0x182>
    770e:	b23f82ef          	jal	t0,230 <__riscv_save_0>
    7712:	5100                	lw	s0,32(a0)
    7714:	16040a63          	beqz	s0,7888 <dhcp_arp_reply+0x17e>
    7718:	2838                	fld	fa4,80(s0)
    771a:	47a1                	li	a5,8
    771c:	16f71663          	bne	a4,a5,7888 <dhcp_arp_reply+0x17e>
    7720:	3198                	fld	fa4,32(a1)
    7722:	219c                	fld	fa5,0(a1)
    7724:	0722                	slli	a4,a4,0x8
    7726:	8f5d                	or	a4,a4,a5
    7728:	21bc                	fld	fa5,64(a1)
    772a:	07c2                	slli	a5,a5,0x10
    772c:	8f5d                	or	a4,a4,a5
    772e:	31bc                	fld	fa5,96(a1)
    7730:	07e2                	slli	a5,a5,0x18
    7732:	8fd9                	or	a5,a5,a4
    7734:	5418                	lw	a4,40(s0)
    7736:	14e79963          	bne	a5,a4,7888 <dhcp_arp_reply+0x17e>
    773a:	84aa                	mv	s1,a0
    773c:	45b1                	li	a1,12
    773e:	8522                	mv	a0,s0
    7740:	d71ff0ef          	jal	ra,74b0 <dhcp_set_state>
    7744:	8526                	mv	a0,s1
    7746:	e27ff0ef          	jal	ra,756c <dhcp_create_request>
    774a:	12051a63          	bnez	a0,787e <dhcp_arp_reply+0x174>
    774e:	4605                	li	a2,1
    7750:	03500593          	li	a1,53
    7754:	8522                	mv	a0,s0
    7756:	d69ff0ef          	jal	ra,74be <dhcp_option>
    775a:	4591                	li	a1,4
    775c:	8522                	mv	a0,s0
    775e:	d81ff0ef          	jal	ra,74de <dhcp_option_byte>
    7762:	4611                	li	a2,4
    7764:	03200593          	li	a1,50
    7768:	8522                	mv	a0,s0
    776a:	d55ff0ef          	jal	ra,74be <dhcp_option>
    776e:	5408                	lw	a0,40(s0)
    7770:	975fb0ef          	jal	ra,30e4 <ntohl>
    7774:	85aa                	mv	a1,a0
    7776:	8522                	mv	a0,s0
    7778:	d79ff0ef          	jal	ra,74f0 <dhcp_option_long>
    777c:	4611                	li	a2,4
    777e:	03600593          	li	a1,54
    7782:	8522                	mv	a0,s0
    7784:	d3bff0ef          	jal	ra,74be <dhcp_option>
    7788:	5048                	lw	a0,36(s0)
    778a:	95bfb0ef          	jal	ra,30e4 <ntohl>
    778e:	85aa                	mv	a1,a0
    7790:	8522                	mv	a0,s0
    7792:	d5fff0ef          	jal	ra,74f0 <dhcp_option_long>
    7796:	461d                	li	a2,7
    7798:	03d00593          	li	a1,61
    779c:	8522                	mv	a0,s0
    779e:	d21ff0ef          	jal	ra,74be <dhcp_option>
    77a2:	2c5e                	fld	fs8,464(sp)
    77a4:	4c18                	lw	a4,24(s0)
    77a6:	4605                	li	a2,1
    77a8:	8522                	mv	a0,s0
    77aa:	00f706b3          	add	a3,a4,a5
    77ae:	0ec68823          	sb	a2,240(a3)
    77b2:	00278613          	addi	a2,a5,2
    77b6:	0642                	slli	a2,a2,0x10
    77b8:	8241                	srli	a2,a2,0x10
    77ba:	ac52                	fsd	fs4,24(sp)
    77bc:	00178693          	addi	a3,a5,1
    77c0:	02b4c583          	lbu	a1,43(s1)
    77c4:	06c2                	slli	a3,a3,0x10
    77c6:	82c1                	srli	a3,a3,0x10
    77c8:	96ba                	add	a3,a3,a4
    77ca:	0eb68823          	sb	a1,240(a3)
    77ce:	00378693          	addi	a3,a5,3
    77d2:	06c2                	slli	a3,a3,0x10
    77d4:	82c1                	srli	a3,a3,0x10
    77d6:	ac56                	fsd	fs5,24(sp)
    77d8:	02c4c583          	lbu	a1,44(s1)
    77dc:	963a                	add	a2,a2,a4
    77de:	96ba                	add	a3,a3,a4
    77e0:	0eb60823          	sb	a1,240(a2) # 10f0 <TIM_TimeBaseInit+0x88>
    77e4:	00478613          	addi	a2,a5,4
    77e8:	0642                	slli	a2,a2,0x10
    77ea:	8241                	srli	a2,a2,0x10
    77ec:	ac52                	fsd	fs4,24(sp)
    77ee:	02d4c583          	lbu	a1,45(s1)
    77f2:	963a                	add	a2,a2,a4
    77f4:	0eb68823          	sb	a1,240(a3)
    77f8:	00578693          	addi	a3,a5,5
    77fc:	06c2                	slli	a3,a3,0x10
    77fe:	82c1                	srli	a3,a3,0x10
    7800:	ac56                	fsd	fs5,24(sp)
    7802:	02e4c583          	lbu	a1,46(s1)
    7806:	96ba                	add	a3,a3,a4
    7808:	0eb60823          	sb	a1,240(a2)
    780c:	00678613          	addi	a2,a5,6
    7810:	0642                	slli	a2,a2,0x10
    7812:	8241                	srli	a2,a2,0x10
    7814:	ac52                	fsd	fs4,24(sp)
    7816:	02f4c583          	lbu	a1,47(s1)
    781a:	079d                	addi	a5,a5,7
    781c:	9732                	add	a4,a4,a2
    781e:	0eb68823          	sb	a1,240(a3)
    7822:	ac5e                	fsd	fs7,24(sp)
    7824:	0304c783          	lbu	a5,48(s1)
    7828:	0ef70823          	sb	a5,240(a4)
    782c:	d0dff0ef          	jal	ra,7538 <dhcp_option_trailer>
    7830:	2c4e                	fld	fs8,208(sp)
    7832:	4848                	lw	a0,20(s0)
    7834:	0f058593          	addi	a1,a1,240
    7838:	05c2                	slli	a1,a1,0x10
    783a:	81c1                	srli	a1,a1,0x10
    783c:	9e5fc0ef          	jal	ra,4220 <pbuf_realloc>
    7840:	02844703          	lbu	a4,40(s0)
    7844:	4c1c                	lw	a5,24(s0)
    7846:	484c                	lw	a1,20(s0)
    7848:	4048                	lw	a0,4(s0)
    784a:	a7d8                	fsd	fa4,136(a5)
    784c:	02944703          	lbu	a4,41(s0)
    7850:	0044a903          	lw	s2,4(s1)
    7854:	b7d8                	fsd	fa4,168(a5)
    7856:	02a44703          	lbu	a4,42(s0)
    785a:	04300693          	li	a3,67
    785e:	84818613          	addi	a2,gp,-1976 # 20000058 <ip_addr_broadcast>
    7862:	a7f8                	fsd	fa4,200(a5)
    7864:	02b44703          	lbu	a4,43(s0)
    7868:	b7f8                	fsd	fa4,232(a5)
    786a:	0004a223          	sw	zero,4(s1)
    786e:	8726                	mv	a4,s1
    7870:	9abff0ef          	jal	ra,721a <udp_sendto_if>
    7874:	8526                	mv	a0,s1
    7876:	0124a223          	sw	s2,4(s1)
    787a:	e71ff0ef          	jal	ra,76ea <dhcp_delete_request>
    787e:	383c                	fld	fa5,112(s0)
    7880:	0785                	addi	a5,a5,1
    7882:	b83c                	fsd	fa5,112(s0)
    7884:	4785                	li	a5,1
    7886:	ac7e                	fsd	ft11,24(sp)
    7888:	9cdf806f          	j	254 <__riscv_restore_0>
    788c:	8082                	ret

0000788e <icmp_send_response.isra.0>:
icmp_send_response.isra.0():
    788e:	989f82ef          	jal	t0,216 <__riscv_save_4>
    7892:	842a                	mv	s0,a0
    7894:	8a2e                	mv	s4,a1
    7896:	89b2                	mv	s3,a2
    7898:	02400593          	li	a1,36
    789c:	4601                	li	a2,0
    789e:	4505                	li	a0,1
    78a0:	845fc0ef          	jal	ra,40e4 <pbuf_alloc>
    78a4:	cd31                	beqz	a0,7900 <icmp_send_response.isra.0+0x72>
    78a6:	00042903          	lw	s2,0(s0)
    78aa:	4140                	lw	s0,4(a0)
    78ac:	84aa                	mv	s1,a0
    78ae:	4671                	li	a2,28
    78b0:	85ca                	mv	a1,s2
    78b2:	01440023          	sb	s4,0(s0)
    78b6:	013400a3          	sb	s3,1(s0)
    78ba:	00040223          	sb	zero,4(s0)
    78be:	000402a3          	sb	zero,5(s0)
    78c2:	00040323          	sb	zero,6(s0)
    78c6:	000403a3          	sb	zero,7(s0)
    78ca:	00840513          	addi	a0,s0,8
    78ce:	27f000ef          	jal	ra,834c <memcpy>
    78d2:	24ae                	fld	fs1,200(sp)
    78d4:	00040123          	sb	zero,2(s0)
    78d8:	000401a3          	sb	zero,3(s0)
    78dc:	8522                	mv	a0,s0
    78de:	2911                	jal	7cf2 <inet_chksum>
    78e0:	a028                	fsd	fa0,64(s0)
    78e2:	8121                	srli	a0,a0,0x8
    78e4:	b028                	fsd	fa0,96(s0)
    78e6:	4785                	li	a5,1
    78e8:	4701                	li	a4,0
    78ea:	08000693          	li	a3,128
    78ee:	00c90613          	addi	a2,s2,12
    78f2:	4581                	li	a1,0
    78f4:	8526                	mv	a0,s1
    78f6:	c55fb0ef          	jal	ra,354a <ip_output>
    78fa:	8526                	mv	a0,s1
    78fc:	f9afc0ef          	jal	ra,4096 <pbuf_free>
    7900:	94bf806f          	j	24a <__riscv_restore_4>

00007904 <icmp_input>:
icmp_input():
    7904:	905f82ef          	jal	t0,208 <__riscv_save_10>
    7908:	4140                	lw	s0,4(a0)
    790a:	84aa                	mv	s1,a0
    790c:	1141                	addi	sp,sp,-16
    790e:	301c                	fld	fa5,32(s0)
    7910:	2008                	fld	fa0,0(s0)
    7912:	89ae                	mv	s3,a1
    7914:	07a2                	slli	a5,a5,0x8
    7916:	8d5d                	or	a0,a0,a5
    7918:	f9afb0ef          	jal	ra,30b2 <ntohs>
    791c:	00655913          	srli	s2,a0,0x6
    7920:	03c97913          	andi	s2,s2,60
    7924:	41200ab3          	neg	s5,s2
    7928:	0ac2                	slli	s5,s5,0x10
    792a:	410ada93          	srai	s5,s5,0x10
    792e:	85d6                	mv	a1,s5
    7930:	8526                	mv	a0,s1
    7932:	ef6fc0ef          	jal	ra,4028 <pbuf_header>
    7936:	e139                	bnez	a0,797c <icmp_input+0x78>
    7938:	249e                	fld	fs1,448(sp)
    793a:	468d                	li	a3,3
    793c:	04f6f063          	bgeu	a3,a5,797c <icmp_input+0x78>
    7940:	40dc                	lw	a5,4(s1)
    7942:	2398                	fld	fa4,0(a5)
    7944:	04d71263          	bne	a4,a3,7988 <icmp_input+0x84>
    7948:	2798                	fld	fa4,8(a5)
    794a:	00878693          	addi	a3,a5,8
    794e:	3f88                	fld	fa0,56(a5)
    7950:	8b3d                	andi	a4,a4,15
    7952:	070a                	slli	a4,a4,0x2
    7954:	9736                	add	a4,a4,a3
    7956:	232c                	fld	fa1,64(a4)
    7958:	00374803          	lbu	a6,3(a4)
    795c:	2f98                	fld	fa4,24(a5)
    795e:	0522                	slli	a0,a0,0x8
    7960:	3394                	fld	fa3,32(a5)
    7962:	8d59                	or	a0,a0,a4
    7964:	2fb8                	fld	fa4,88(a5)
    7966:	3b90                	fld	fa2,48(a5)
    7968:	05a2                	slli	a1,a1,0x8
    796a:	0742                	slli	a4,a4,0x10
    796c:	8f49                	or	a4,a4,a0
    796e:	3fa8                	fld	fa0,120(a5)
    7970:	0105e5b3          	or	a1,a1,a6
    7974:	0562                	slli	a0,a0,0x18
    7976:	8d59                	or	a0,a0,a4
    7978:	b5dfa0ef          	jal	ra,24d4 <LwipUnreachPort>
    797c:	8526                	mv	a0,s1
    797e:	f18fc0ef          	jal	ra,4096 <pbuf_free>
    7982:	0141                	addi	sp,sp,16
    7984:	8bdf806f          	j	240 <__riscv_restore_10>
    7988:	47a1                	li	a5,8
    798a:	fef719e3          	bne	a4,a5,797c <icmp_input+0x78>
    798e:	381c                	fld	fa5,48(s0)
    7990:	01044a03          	lbu	s4,16(s0)
    7994:	f0000537          	lui	a0,0xf0000
    7998:	07a2                	slli	a5,a5,0x8
    799a:	0147e7b3          	or	a5,a5,s4
    799e:	01244a03          	lbu	s4,18(s0)
    79a2:	4b01                	li	s6,0
    79a4:	0a42                	slli	s4,s4,0x10
    79a6:	00fa67b3          	or	a5,s4,a5
    79aa:	01344a03          	lbu	s4,19(s0)
    79ae:	0a62                	slli	s4,s4,0x18
    79b0:	00fa6a33          	or	s4,s4,a5
    79b4:	f30fb0ef          	jal	ra,30e4 <ntohl>
    79b8:	8c2a                	mv	s8,a0
    79ba:	e0000537          	lui	a0,0xe0000
    79be:	f26fb0ef          	jal	ra,30e4 <ntohl>
    79c2:	8baa                	mv	s7,a0
    79c4:	85ce                	mv	a1,s3
    79c6:	01040513          	addi	a0,s0,16
    79ca:	bb7fb0ef          	jal	ra,3580 <ip_addr_isbroadcast>
    79ce:	e519                	bnez	a0,79dc <icmp_input+0xd8>
    79d0:	018a7533          	and	a0,s4,s8
    79d4:	41750533          	sub	a0,a0,s7
    79d8:	00a03b33          	snez	s6,a0
    79dc:	af5fa0ef          	jal	ra,24d0 <QueryPingEnable>
    79e0:	dd51                	beqz	a0,797c <icmp_input+0x78>
    79e2:	f80b0de3          	beqz	s6,797c <icmp_input+0x78>
    79e6:	249a                	fld	fs1,384(sp)
    79e8:	479d                	li	a5,7
    79ea:	f8e7f9e3          	bgeu	a5,a4,797c <icmp_input+0x78>
    79ee:	8526                	mv	a0,s1
    79f0:	2e19                	jal	7d06 <inet_chksum_pbuf>
    79f2:	f549                	bnez	a0,797c <icmp_input+0x78>
    79f4:	0942                	slli	s2,s2,0x10
    79f6:	02200593          	li	a1,34
    79fa:	8526                	mv	a0,s1
    79fc:	41095913          	srai	s2,s2,0x10
    7a00:	e28fc0ef          	jal	ra,4028 <pbuf_header>
    7a04:	12050463          	beqz	a0,7b2c <icmp_input+0x228>
    7a08:	85ca                	mv	a1,s2
    7a0a:	8526                	mv	a0,s1
    7a0c:	e1cfc0ef          	jal	ra,4028 <pbuf_header>
    7a10:	f535                	bnez	a0,797c <icmp_input+0x78>
    7a12:	248e                	fld	fs1,192(sp)
    7a14:	4601                	li	a2,0
    7a16:	4509                	li	a0,2
    7a18:	eccfc0ef          	jal	ra,40e4 <pbuf_alloc>
    7a1c:	8a2a                	mv	s4,a0
    7a1e:	dd39                	beqz	a0,797c <icmp_input+0x78>
    7a20:	85a6                	mv	a1,s1
    7a22:	8a3fc0ef          	jal	ra,42c4 <pbuf_copy>
    7a26:	f939                	bnez	a0,797c <icmp_input+0x78>
    7a28:	85d6                	mv	a1,s5
    7a2a:	8552                	mv	a0,s4
    7a2c:	004a2403          	lw	s0,4(s4)
    7a30:	df8fc0ef          	jal	ra,4028 <pbuf_header>
    7a34:	f521                	bnez	a0,797c <icmp_input+0x78>
    7a36:	8526                	mv	a0,s1
    7a38:	e5efc0ef          	jal	ra,4096 <pbuf_free>
    7a3c:	84d2                	mv	s1,s4
    7a3e:	3458                	fld	fa4,168(s0)
    7a40:	245c                	fld	fa5,136(s0)
    7a42:	3814                	fld	fa3,48(s0)
    7a44:	0722                	slli	a4,a4,0x8
    7a46:	8f5d                	or	a4,a4,a5
    7a48:	247c                	fld	fa5,200(s0)
    7a4a:	06a2                	slli	a3,a3,0x8
    7a4c:	0044aa03          	lw	s4,4(s1)
    7a50:	07c2                	slli	a5,a5,0x10
    7a52:	8f5d                	or	a4,a4,a5
    7a54:	347c                	fld	fa5,232(s0)
    7a56:	653d                	lui	a0,0xf
    7a58:	7ff50513          	addi	a0,a0,2047 # f7ff <_data_lma+0x722b>
    7a5c:	07e2                	slli	a5,a5,0x18
    7a5e:	8fd9                	or	a5,a5,a4
    7a60:	2818                	fld	fa4,16(s0)
    7a62:	a81c                	fsd	fa5,16(s0)
    7a64:	8ed9                	or	a3,a3,a4
    7a66:	2838                	fld	fa4,80(s0)
    7a68:	0742                	slli	a4,a4,0x10
    7a6a:	8ed9                	or	a3,a3,a4
    7a6c:	3838                	fld	fa4,112(s0)
    7a6e:	0762                	slli	a4,a4,0x18
    7a70:	8f55                	or	a4,a4,a3
    7a72:	00875693          	srli	a3,a4,0x8
    7a76:	a458                	fsd	fa4,136(s0)
    7a78:	b454                	fsd	fa3,168(s0)
    7a7a:	01075693          	srli	a3,a4,0x10
    7a7e:	8361                	srli	a4,a4,0x18
    7a80:	b478                	fsd	fa4,232(s0)
    7a82:	0087d713          	srli	a4,a5,0x8
    7a86:	b818                	fsd	fa4,48(s0)
    7a88:	0107d713          	srli	a4,a5,0x10
    7a8c:	83e1                	srli	a5,a5,0x18
    7a8e:	a474                	fsd	fa3,200(s0)
    7a90:	a838                	fsd	fa4,80(s0)
    7a92:	b83c                	fsd	fa5,112(s0)
    7a94:	003a4a83          	lbu	s5,3(s4)
    7a98:	002a4783          	lbu	a5,2(s4)
    7a9c:	000a0023          	sb	zero,0(s4)
    7aa0:	0aa2                	slli	s5,s5,0x8
    7aa2:	00faeab3          	or	s5,s5,a5
    7aa6:	dfefb0ef          	jal	ra,30a4 <htons>
    7aaa:	08aae963          	bltu	s5,a0,7b3c <icmp_input+0x238>
    7aae:	6505                	lui	a0,0x1
    7ab0:	80050513          	addi	a0,a0,-2048 # 800 <__stack_size>
    7ab4:	df0fb0ef          	jal	ra,30a4 <htons>
    7ab8:	003a4783          	lbu	a5,3(s4)
    7abc:	002a4703          	lbu	a4,2(s4)
    7ac0:	07a2                	slli	a5,a5,0x8
    7ac2:	8fd9                	or	a5,a5,a4
    7ac4:	0785                	addi	a5,a5,1
    7ac6:	953e                	add	a0,a0,a5
    7ac8:	0542                	slli	a0,a0,0x10
    7aca:	8141                	srli	a0,a0,0x10
    7acc:	00aa0123          	sb	a0,2(s4)
    7ad0:	8121                	srli	a0,a0,0x8
    7ad2:	00aa01a3          	sb	a0,3(s4)
    7ad6:	341c                	fld	fa5,40(s0)
    7ad8:	2408                	fld	fa0,8(s0)
    7ada:	07a2                	slli	a5,a5,0x8
    7adc:	8d5d                	or	a0,a0,a5
    7ade:	dd4fb0ef          	jal	ra,30b2 <ntohs>
    7ae2:	67a1                	lui	a5,0x8
    7ae4:	0ff57513          	andi	a0,a0,255
    7ae8:	8d5d                	or	a0,a0,a5
    7aea:	dbafb0ef          	jal	ra,30a4 <htons>
    7aee:	a408                	fsd	fa0,8(s0)
    7af0:	8121                	srli	a0,a0,0x8
    7af2:	b408                	fsd	fa0,40(s0)
    7af4:	45d1                	li	a1,20
    7af6:	00040523          	sb	zero,10(s0)
    7afa:	000405a3          	sb	zero,11(s0)
    7afe:	8522                	mv	a0,s0
    7b00:	2acd                	jal	7cf2 <inet_chksum>
    7b02:	a428                	fsd	fa0,72(s0)
    7b04:	8121                	srli	a0,a0,0x8
    7b06:	b428                	fsd	fa0,104(s0)
    7b08:	85ca                	mv	a1,s2
    7b0a:	8526                	mv	a0,s1
    7b0c:	d1cfc0ef          	jal	ra,4028 <pbuf_header>
    7b10:	e60516e3          	bnez	a0,797c <icmp_input+0x78>
    7b14:	884e                	mv	a6,s3
    7b16:	4785                	li	a5,1
    7b18:	4701                	li	a4,0
    7b1a:	08000693          	li	a3,128
    7b1e:	4601                	li	a2,0
    7b20:	00c40593          	addi	a1,s0,12
    7b24:	8526                	mv	a0,s1
    7b26:	8cbfb0ef          	jal	ra,33f0 <ip_output_if>
    7b2a:	bd89                	j	797c <icmp_input+0x78>
    7b2c:	fde00593          	li	a1,-34
    7b30:	8526                	mv	a0,s1
    7b32:	cf6fc0ef          	jal	ra,4028 <pbuf_header>
    7b36:	f00504e3          	beqz	a0,7a3e <icmp_input+0x13a>
    7b3a:	b589                	j	797c <icmp_input+0x78>
    7b3c:	6505                	lui	a0,0x1
    7b3e:	80050513          	addi	a0,a0,-2048 # 800 <__stack_size>
    7b42:	d62fb0ef          	jal	ra,30a4 <htons>
    7b46:	003a4783          	lbu	a5,3(s4)
    7b4a:	002a4703          	lbu	a4,2(s4)
    7b4e:	07a2                	slli	a5,a5,0x8
    7b50:	8fd9                	or	a5,a5,a4
    7b52:	bf95                	j	7ac6 <icmp_input+0x1c2>

00007b54 <icmp_dest_unreach>:
icmp_dest_unreach():
    7b54:	edcf82ef          	jal	t0,230 <__riscv_save_0>
    7b58:	0ff5f613          	andi	a2,a1,255
    7b5c:	0511                	addi	a0,a0,4
    7b5e:	458d                	li	a1,3
    7b60:	d2fff0ef          	jal	ra,788e <icmp_send_response.isra.0>
    7b64:	ef0f806f          	j	254 <__riscv_restore_0>

00007b68 <icmp_time_exceeded>:
icmp_time_exceeded():
    7b68:	ec8f82ef          	jal	t0,230 <__riscv_save_0>
    7b6c:	0ff5f613          	andi	a2,a1,255
    7b70:	0511                	addi	a0,a0,4
    7b72:	45ad                	li	a1,11
    7b74:	d1bff0ef          	jal	ra,788e <icmp_send_response.isra.0>
    7b78:	edcf806f          	j	254 <__riscv_restore_0>

00007b7c <lwip_standard_chksum>:
lwip_standard_chksum():
    7b7c:	eb4f82ef          	jal	t0,230 <__riscv_save_0>
    7b80:	00b50833          	add	a6,a0,a1
    7b84:	0842                	slli	a6,a6,0x10
    7b86:	86aa                	mv	a3,a0
    7b88:	4701                	li	a4,0
    7b8a:	01085813          	srli	a6,a6,0x10
    7b8e:	4885                	li	a7,1
    7b90:	40d807b3          	sub	a5,a6,a3
    7b94:	07c2                	slli	a5,a5,0x10
    7b96:	83c1                	srli	a5,a5,0x10
    7b98:	04f8e463          	bltu	a7,a5,7be0 <lwip_standard_chksum+0x64>
    7b9c:	0015d793          	srli	a5,a1,0x1
    7ba0:	00179693          	slli	a3,a5,0x1
    7ba4:	9536                	add	a0,a0,a3
    7ba6:	56f9                	li	a3,-2
    7ba8:	02d787b3          	mul	a5,a5,a3
    7bac:	95be                	add	a1,a1,a5
    7bae:	05c2                	slli	a1,a1,0x10
    7bb0:	81c1                	srli	a1,a1,0x10
    7bb2:	c581                	beqz	a1,7bba <lwip_standard_chksum+0x3e>
    7bb4:	211c                	fld	fa5,0(a0)
    7bb6:	07a2                	slli	a5,a5,0x8
    7bb8:	973e                	add	a4,a4,a5
    7bba:	6541                	lui	a0,0x10
    7bbc:	fff50693          	addi	a3,a0,-1 # ffff <_data_lma+0x7a2b>
    7bc0:	01075793          	srli	a5,a4,0x10
    7bc4:	8f75                	and	a4,a4,a3
    7bc6:	00e78533          	add	a0,a5,a4
    7bca:	77c1                	lui	a5,0xffff0
    7bcc:	8fe9                	and	a5,a5,a0
    7bce:	c399                	beqz	a5,7bd4 <lwip_standard_chksum+0x58>
    7bd0:	8d75                	and	a0,a0,a3
    7bd2:	0505                	addi	a0,a0,1
    7bd4:	0542                	slli	a0,a0,0x10
    7bd6:	8141                	srli	a0,a0,0x10
    7bd8:	cccfb0ef          	jal	ra,30a4 <htons>
    7bdc:	e78f806f          	j	254 <__riscv_restore_0>
    7be0:	329c                	fld	fa5,32(a3)
    7be2:	2290                	fld	fa2,0(a3)
    7be4:	0689                	addi	a3,a3,2
    7be6:	07a2                	slli	a5,a5,0x8
    7be8:	8fd1                	or	a5,a5,a2
    7bea:	00879613          	slli	a2,a5,0x8
    7bee:	83a1                	srli	a5,a5,0x8
    7bf0:	8fd1                	or	a5,a5,a2
    7bf2:	07c2                	slli	a5,a5,0x10
    7bf4:	83c1                	srli	a5,a5,0x10
    7bf6:	973e                	add	a4,a4,a5
    7bf8:	bf61                	j	7b90 <lwip_standard_chksum+0x14>

00007bfa <inet_chksum_pseudo>:
inet_chksum_pseudo():
    7bfa:	e0ef82ef          	jal	t0,208 <__riscv_save_10>
    7bfe:	6b41                	lui	s6,0x10
    7c00:	1141                	addi	sp,sp,-16
    7c02:	892a                	mv	s2,a0
    7c04:	8aae                	mv	s5,a1
    7c06:	8a32                	mv	s4,a2
    7c08:	84ba                	mv	s1,a4
    7c0a:	4981                	li	s3,0
    7c0c:	4401                	li	s0,0
    7c0e:	1b7d                	addi	s6,s6,-1
    7c10:	4b85                	li	s7,1
    7c12:	08091f63          	bnez	s2,7cb0 <inet_chksum_pseudo+0xb6>
    7c16:	00098b63          	beqz	s3,7c2c <inet_chksum_pseudo+0x32>
    7c1a:	6741                	lui	a4,0x10
    7c1c:	00841793          	slli	a5,s0,0x8
    7c20:	177d                	addi	a4,a4,-1
    7c22:	8021                	srli	s0,s0,0x8
    7c24:	8ff9                	and	a5,a5,a4
    7c26:	0ff47413          	andi	s0,s0,255
    7c2a:	8c5d                	or	s0,s0,a5
    7c2c:	001ac503          	lbu	a0,1(s5)
    7c30:	000ac783          	lbu	a5,0(s5)
    7c34:	000a4703          	lbu	a4,0(s4)
    7c38:	0522                	slli	a0,a0,0x8
    7c3a:	8d5d                	or	a0,a0,a5
    7c3c:	002ac783          	lbu	a5,2(s5)
    7c40:	003a4603          	lbu	a2,3(s4)
    7c44:	07c2                	slli	a5,a5,0x10
    7c46:	8d5d                	or	a0,a0,a5
    7c48:	003ac783          	lbu	a5,3(s5)
    7c4c:	0662                	slli	a2,a2,0x18
    7c4e:	07e2                	slli	a5,a5,0x18
    7c50:	8fc9                	or	a5,a5,a0
    7c52:	001a4503          	lbu	a0,1(s4)
    7c56:	0522                	slli	a0,a0,0x8
    7c58:	8f49                	or	a4,a4,a0
    7c5a:	002a4503          	lbu	a0,2(s4)
    7c5e:	0542                	slli	a0,a0,0x10
    7c60:	8d59                	or	a0,a0,a4
    7c62:	8e49                	or	a2,a2,a0
    7c64:	6541                	lui	a0,0x10
    7c66:	fff50913          	addi	s2,a0,-1 # ffff <_data_lma+0x7a2b>
    7c6a:	01267533          	and	a0,a2,s2
    7c6e:	8241                	srli	a2,a2,0x10
    7c70:	0127f733          	and	a4,a5,s2
    7c74:	9532                	add	a0,a0,a2
    7c76:	953a                	add	a0,a0,a4
    7c78:	83c1                	srli	a5,a5,0x10
    7c7a:	953e                	add	a0,a0,a5
    7c7c:	942a                	add	s0,s0,a0
    7c7e:	8536                	mv	a0,a3
    7c80:	c24fb0ef          	jal	ra,30a4 <htons>
    7c84:	942a                	add	s0,s0,a0
    7c86:	8526                	mv	a0,s1
    7c88:	c1cfb0ef          	jal	ra,30a4 <htons>
    7c8c:	9522                	add	a0,a0,s0
    7c8e:	01055793          	srli	a5,a0,0x10
    7c92:	01257533          	and	a0,a0,s2
    7c96:	953e                	add	a0,a0,a5
    7c98:	01055793          	srli	a5,a0,0x10
    7c9c:	01257533          	and	a0,a0,s2
    7ca0:	953e                	add	a0,a0,a5
    7ca2:	fff54513          	not	a0,a0
    7ca6:	0542                	slli	a0,a0,0x10
    7ca8:	8141                	srli	a0,a0,0x10
    7caa:	0141                	addi	sp,sp,16
    7cac:	d94f806f          	j	240 <__riscv_restore_10>
    7cb0:	00a95583          	lhu	a1,10(s2)
    7cb4:	00492503          	lw	a0,4(s2)
    7cb8:	c636                	sw	a3,12(sp)
    7cba:	ec3ff0ef          	jal	ra,7b7c <lwip_standard_chksum>
    7cbe:	942a                	add	s0,s0,a0
    7cc0:	01045793          	srli	a5,s0,0x10
    7cc4:	01647433          	and	s0,s0,s6
    7cc8:	943e                	add	s0,s0,a5
    7cca:	00a95783          	lhu	a5,10(s2)
    7cce:	46b2                	lw	a3,12(sp)
    7cd0:	8b85                	andi	a5,a5,1
    7cd2:	cf89                	beqz	a5,7cec <inet_chksum_pseudo+0xf2>
    7cd4:	00841793          	slli	a5,s0,0x8
    7cd8:	8021                	srli	s0,s0,0x8
    7cda:	413b89b3          	sub	s3,s7,s3
    7cde:	0167f7b3          	and	a5,a5,s6
    7ce2:	0ff47413          	andi	s0,s0,255
    7ce6:	0ff9f993          	andi	s3,s3,255
    7cea:	8c5d                	or	s0,s0,a5
    7cec:	00092903          	lw	s2,0(s2)
    7cf0:	b70d                	j	7c12 <inet_chksum_pseudo+0x18>

00007cf2 <inet_chksum>:
inet_chksum():
    7cf2:	d3ef82ef          	jal	t0,230 <__riscv_save_0>
    7cf6:	e87ff0ef          	jal	ra,7b7c <lwip_standard_chksum>
    7cfa:	fff54513          	not	a0,a0
    7cfe:	0542                	slli	a0,a0,0x10
    7d00:	8141                	srli	a0,a0,0x10
    7d02:	d52f806f          	j	254 <__riscv_restore_0>

00007d06 <inet_chksum_pbuf>:
inet_chksum_pbuf():
    7d06:	d10f82ef          	jal	t0,216 <__riscv_save_4>
    7d0a:	69c1                	lui	s3,0x10
    7d0c:	84aa                	mv	s1,a0
    7d0e:	4901                	li	s2,0
    7d10:	4401                	li	s0,0
    7d12:	19fd                	addi	s3,s3,-1
    7d14:	4a05                	li	s4,1
    7d16:	e095                	bnez	s1,7d3a <inet_chksum_pbuf+0x34>
    7d18:	00090b63          	beqz	s2,7d2e <inet_chksum_pbuf+0x28>
    7d1c:	6741                	lui	a4,0x10
    7d1e:	00841793          	slli	a5,s0,0x8
    7d22:	177d                	addi	a4,a4,-1
    7d24:	8021                	srli	s0,s0,0x8
    7d26:	8ff9                	and	a5,a5,a4
    7d28:	0ff47413          	andi	s0,s0,255
    7d2c:	8c5d                	or	s0,s0,a5
    7d2e:	fff44513          	not	a0,s0
    7d32:	0542                	slli	a0,a0,0x10
    7d34:	8141                	srli	a0,a0,0x10
    7d36:	d14f806f          	j	24a <__riscv_restore_4>
    7d3a:	24ae                	fld	fs1,200(sp)
    7d3c:	40c8                	lw	a0,4(s1)
    7d3e:	e3fff0ef          	jal	ra,7b7c <lwip_standard_chksum>
    7d42:	942a                	add	s0,s0,a0
    7d44:	01045793          	srli	a5,s0,0x10
    7d48:	01347433          	and	s0,s0,s3
    7d4c:	943e                	add	s0,s0,a5
    7d4e:	24be                	fld	fs1,456(sp)
    7d50:	8b85                	andi	a5,a5,1
    7d52:	cf89                	beqz	a5,7d6c <inet_chksum_pbuf+0x66>
    7d54:	00841793          	slli	a5,s0,0x8
    7d58:	8021                	srli	s0,s0,0x8
    7d5a:	412a0933          	sub	s2,s4,s2
    7d5e:	0137f7b3          	and	a5,a5,s3
    7d62:	0ff47413          	andi	s0,s0,255
    7d66:	0ff97913          	andi	s2,s2,255
    7d6a:	8c5d                	or	s0,s0,a5
    7d6c:	4084                	lw	s1,0(s1)
    7d6e:	b765                	j	7d16 <inet_chksum_pbuf+0x10>

00007d70 <printchar>:
printchar():
    7d70:	1101                	addi	sp,sp,-32
    7d72:	ce06                	sw	ra,28(sp)
    7d74:	c62e                	sw	a1,12(sp)
    7d76:	cd15                	beqz	a0,7db2 <printchar+0x42>
    7d78:	4118                	lw	a4,0(a0)
    7d7a:	87aa                	mv	a5,a0
    7d7c:	c305                	beqz	a4,7d9c <printchar+0x2c>
    7d7e:	4158                	lw	a4,4(a0)
    7d80:	557d                	li	a0,-1
    7d82:	cb11                	beqz	a4,7d96 <printchar+0x26>
    7d84:	4685                	li	a3,1
    7d86:	00d71b63          	bne	a4,a3,7d9c <printchar+0x2c>
    7d8a:	4798                	lw	a4,8(a5)
    7d8c:	00070023          	sb	zero,0(a4) # 10000 <_data_lma+0x7a2c>
    7d90:	0007a223          	sw	zero,4(a5) # ffff0004 <_eusrstack+0xdffd0004>
    7d94:	4505                	li	a0,1
    7d96:	40f2                	lw	ra,28(sp)
    7d98:	6105                	addi	sp,sp,32
    7d9a:	8082                	ret
    7d9c:	4798                	lw	a4,8(a5)
    7d9e:	46b2                	lw	a3,12(sp)
    7da0:	00d70023          	sb	a3,0(a4)
    7da4:	4798                	lw	a4,8(a5)
    7da6:	0705                	addi	a4,a4,1
    7da8:	c798                	sw	a4,8(a5)
    7daa:	43d8                	lw	a4,4(a5)
    7dac:	177d                	addi	a4,a4,-1
    7dae:	c3d8                	sw	a4,4(a5)
    7db0:	b7d5                	j	7d94 <printchar+0x24>
    7db2:	4605                	li	a2,1
    7db4:	006c                	addi	a1,sp,12
    7db6:	d66f90ef          	jal	ra,131c <_write>
    7dba:	bfe9                	j	7d94 <printchar+0x24>

00007dbc <prints>:
prints():
    7dbc:	7179                	addi	sp,sp,-48
    7dbe:	d422                	sw	s0,40(sp)
    7dc0:	d226                	sw	s1,36(sp)
    7dc2:	ce4e                	sw	s3,28(sp)
    7dc4:	cc52                	sw	s4,24(sp)
    7dc6:	ca56                	sw	s5,20(sp)
    7dc8:	d606                	sw	ra,44(sp)
    7dca:	d04a                	sw	s2,32(sp)
    7dcc:	c85a                	sw	s6,16(sp)
    7dce:	8a2a                	mv	s4,a0
    7dd0:	8aae                	mv	s5,a1
    7dd2:	8432                	mv	s0,a2
    7dd4:	4481                	li	s1,0
    7dd6:	02000993          	li	s3,32
    7dda:	02064463          	bltz	a2,7e02 <prints+0x46>
    7dde:	009a87b3          	add	a5,s5,s1
    7de2:	00078783          	lb	a5,0(a5)
    7de6:	e39d                	bnez	a5,7e0c <prints+0x50>
    7de8:	0284d663          	bge	s1,s0,7e14 <prints+0x58>
    7dec:	02e4d263          	bge	s1,a4,7e10 <prints+0x54>
    7df0:	8c19                	sub	s0,s0,a4
    7df2:	0026f793          	andi	a5,a3,2
    7df6:	02000993          	li	s3,32
    7dfa:	c781                	beqz	a5,7e02 <prints+0x46>
    7dfc:	e319                	bnez	a4,7e02 <prints+0x46>
    7dfe:	03000993          	li	s3,48
    7e02:	8a85                	andi	a3,a3,1
    7e04:	4901                	li	s2,0
    7e06:	ea85                	bnez	a3,7e36 <prints+0x7a>
    7e08:	8922                	mv	s2,s0
    7e0a:	a831                	j	7e26 <prints+0x6a>
    7e0c:	0485                	addi	s1,s1,1
    7e0e:	bfc1                	j	7dde <prints+0x22>
    7e10:	8c05                	sub	s0,s0,s1
    7e12:	b7c5                	j	7df2 <prints+0x36>
    7e14:	4401                	li	s0,0
    7e16:	bff1                	j	7df2 <prints+0x36>
    7e18:	85ce                	mv	a1,s3
    7e1a:	8552                	mv	a0,s4
    7e1c:	c63a                	sw	a4,12(sp)
    7e1e:	f53ff0ef          	jal	ra,7d70 <printchar>
    7e22:	4732                	lw	a4,12(sp)
    7e24:	197d                	addi	s2,s2,-1
    7e26:	ff2049e3          	bgtz	s2,7e18 <prints+0x5c>
    7e2a:	8922                	mv	s2,s0
    7e2c:	00045363          	bgez	s0,7e32 <prints+0x76>
    7e30:	4901                	li	s2,0
    7e32:	41240433          	sub	s0,s0,s2
    7e36:	02e4cb63          	blt	s1,a4,7e6c <prints+0xb0>
    7e3a:	84ca                	mv	s1,s2
    7e3c:	412487b3          	sub	a5,s1,s2
    7e40:	97d6                	add	a5,a5,s5
    7e42:	00078583          	lb	a1,0(a5)
    7e46:	e1a1                	bnez	a1,7e86 <prints+0xca>
    7e48:	8922                	mv	s2,s0
    7e4a:	05204363          	bgtz	s2,7e90 <prints+0xd4>
    7e4e:	00045363          	bgez	s0,7e54 <prints+0x98>
    7e52:	4401                	li	s0,0
    7e54:	00940533          	add	a0,s0,s1
    7e58:	50b2                	lw	ra,44(sp)
    7e5a:	5422                	lw	s0,40(sp)
    7e5c:	5492                	lw	s1,36(sp)
    7e5e:	5902                	lw	s2,32(sp)
    7e60:	49f2                	lw	s3,28(sp)
    7e62:	4a62                	lw	s4,24(sp)
    7e64:	4ad2                	lw	s5,20(sp)
    7e66:	4b42                	lw	s6,16(sp)
    7e68:	6145                	addi	sp,sp,48
    7e6a:	8082                	ret
    7e6c:	409704b3          	sub	s1,a4,s1
    7e70:	8b26                	mv	s6,s1
    7e72:	03000593          	li	a1,48
    7e76:	8552                	mv	a0,s4
    7e78:	1b7d                	addi	s6,s6,-1
    7e7a:	ef7ff0ef          	jal	ra,7d70 <printchar>
    7e7e:	fe0b1ae3          	bnez	s6,7e72 <prints+0xb6>
    7e82:	9926                	add	s2,s2,s1
    7e84:	bf5d                	j	7e3a <prints+0x7e>
    7e86:	8552                	mv	a0,s4
    7e88:	ee9ff0ef          	jal	ra,7d70 <printchar>
    7e8c:	0485                	addi	s1,s1,1
    7e8e:	b77d                	j	7e3c <prints+0x80>
    7e90:	85ce                	mv	a1,s3
    7e92:	8552                	mv	a0,s4
    7e94:	eddff0ef          	jal	ra,7d70 <printchar>
    7e98:	197d                	addi	s2,s2,-1
    7e9a:	bf45                	j	7e4a <prints+0x8e>

00007e9c <printInt>:
printInt():
    7e9c:	715d                	addi	sp,sp,-80
    7e9e:	c2a6                	sw	s1,68(sp)
    7ea0:	dc52                	sw	s4,56(sp)
    7ea2:	c686                	sw	ra,76(sp)
    7ea4:	c4a2                	sw	s0,72(sp)
    7ea6:	c0ca                	sw	s2,64(sp)
    7ea8:	de4e                	sw	s3,60(sp)
    7eaa:	da56                	sw	s5,52(sp)
    7eac:	84ba                	mv	s1,a4
    7eae:	8a3e                	mv	s4,a5
    7eb0:	e585                	bnez	a1,7ed8 <printInt+0x3c>
    7eb2:	03000793          	li	a5,48
    7eb6:	4701                	li	a4,0
    7eb8:	86d2                	mv	a3,s4
    7eba:	8626                	mv	a2,s1
    7ebc:	082c                	addi	a1,sp,24
    7ebe:	00f11c23          	sh	a5,24(sp)
    7ec2:	efbff0ef          	jal	ra,7dbc <prints>
    7ec6:	40b6                	lw	ra,76(sp)
    7ec8:	4426                	lw	s0,72(sp)
    7eca:	4496                	lw	s1,68(sp)
    7ecc:	4906                	lw	s2,64(sp)
    7ece:	59f2                	lw	s3,60(sp)
    7ed0:	5a62                	lw	s4,56(sp)
    7ed2:	5ad2                	lw	s5,52(sp)
    7ed4:	6161                	addi	sp,sp,80
    7ed6:	8082                	ret
    7ed8:	892a                	mv	s2,a0
    7eda:	8436                	mv	s0,a3
    7edc:	8ac6                	mv	s5,a7
    7ede:	ca91                	beqz	a3,7ef2 <printInt+0x56>
    7ee0:	47a9                	li	a5,10
    7ee2:	4401                	li	s0,0
    7ee4:	00f61763          	bne	a2,a5,7ef2 <printInt+0x56>
    7ee8:	0005d563          	bgez	a1,7ef2 <printInt+0x56>
    7eec:	40b005b3          	neg	a1,a1
    7ef0:	4405                	li	s0,1
    7ef2:	020107a3          	sb	zero,47(sp)
    7ef6:	02f10793          	addi	a5,sp,47
    7efa:	46a5                	li	a3,9
    7efc:	fc680513          	addi	a0,a6,-58
    7f00:	02c5f733          	remu	a4,a1,a2
    7f04:	00e6d363          	bge	a3,a4,7f0a <printInt+0x6e>
    7f08:	972a                	add	a4,a4,a0
    7f0a:	03070713          	addi	a4,a4,48
    7f0e:	fee78fa3          	sb	a4,-1(a5)
    7f12:	fff78993          	addi	s3,a5,-1
    7f16:	02c5d733          	divu	a4,a1,a2
    7f1a:	04c5fb63          	bgeu	a1,a2,7f70 <printInt+0xd4>
    7f1e:	cc09                	beqz	s0,7f38 <printInt+0x9c>
    7f20:	c8b9                	beqz	s1,7f76 <printInt+0xda>
    7f22:	002a7713          	andi	a4,s4,2
    7f26:	cb21                	beqz	a4,7f76 <printInt+0xda>
    7f28:	02d00593          	li	a1,45
    7f2c:	854a                	mv	a0,s2
    7f2e:	c642                	sw	a6,12(sp)
    7f30:	e41ff0ef          	jal	ra,7d70 <printchar>
    7f34:	4832                	lw	a6,12(sp)
    7f36:	14fd                	addi	s1,s1,-1
    7f38:	004a7793          	andi	a5,s4,4
    7f3c:	c38d                	beqz	a5,7f5e <printInt+0xc2>
    7f3e:	06100793          	li	a5,97
    7f42:	03000593          	li	a1,48
    7f46:	854a                	mv	a0,s2
    7f48:	02f81f63          	bne	a6,a5,7f86 <printInt+0xea>
    7f4c:	e25ff0ef          	jal	ra,7d70 <printchar>
    7f50:	07800593          	li	a1,120
    7f54:	854a                	mv	a0,s2
    7f56:	e1bff0ef          	jal	ra,7d70 <printchar>
    7f5a:	0409                	addi	s0,s0,2
    7f5c:	14f9                	addi	s1,s1,-2
    7f5e:	8756                	mv	a4,s5
    7f60:	86d2                	mv	a3,s4
    7f62:	8626                	mv	a2,s1
    7f64:	85ce                	mv	a1,s3
    7f66:	854a                	mv	a0,s2
    7f68:	e55ff0ef          	jal	ra,7dbc <prints>
    7f6c:	9522                	add	a0,a0,s0
    7f6e:	bfa1                	j	7ec6 <printInt+0x2a>
    7f70:	85ba                	mv	a1,a4
    7f72:	87ce                	mv	a5,s3
    7f74:	b771                	j	7f00 <printInt+0x64>
    7f76:	02d00713          	li	a4,45
    7f7a:	fee98fa3          	sb	a4,-1(s3) # ffff <_data_lma+0x7a2b>
    7f7e:	4401                	li	s0,0
    7f80:	ffe78993          	addi	s3,a5,-2
    7f84:	bf55                	j	7f38 <printInt+0x9c>
    7f86:	debff0ef          	jal	ra,7d70 <printchar>
    7f8a:	05800593          	li	a1,88
    7f8e:	b7d9                	j	7f54 <printInt+0xb8>

00007f90 <printLongLongInt>:
printLongLongInt():
    7f90:	4501                	li	a0,0
    7f92:	8082                	ret

00007f94 <printDouble>:
printDouble():
    7f94:	4501                	li	a0,0
    7f96:	8082                	ret

00007f98 <print>:
print():
    7f98:	7139                	addi	sp,sp,-64
    7f9a:	d05a                	sw	s6,32(sp)
    7f9c:	00008b37          	lui	s6,0x8
    7fa0:	dc22                	sw	s0,56(sp)
    7fa2:	da26                	sw	s1,52(sp)
    7fa4:	d84a                	sw	s2,48(sp)
    7fa6:	d64e                	sw	s3,44(sp)
    7fa8:	d452                	sw	s4,40(sp)
    7faa:	d256                	sw	s5,36(sp)
    7fac:	ce5e                	sw	s7,28(sp)
    7fae:	cc62                	sw	s8,24(sp)
    7fb0:	de06                	sw	ra,60(sp)
    7fb2:	ca66                	sw	s9,20(sp)
    7fb4:	89aa                	mv	s3,a0
    7fb6:	892e                	mv	s2,a1
    7fb8:	8432                	mv	s0,a2
    7fba:	4a01                	li	s4,0
    7fbc:	4481                	li	s1,0
    7fbe:	02500b93          	li	s7,37
    7fc2:	02b00a93          	li	s5,43
    7fc6:	4c29                	li	s8,10
    7fc8:	5ccb0b13          	addi	s6,s6,1484 # 85cc <tcp_backoff+0x34>
    7fcc:	00090583          	lb	a1,0(s2)
    7fd0:	e58d                	bnez	a1,7ffa <print+0x62>
    7fd2:	00098663          	beqz	s3,7fde <print+0x46>
    7fd6:	4581                	li	a1,0
    7fd8:	854e                	mv	a0,s3
    7fda:	d97ff0ef          	jal	ra,7d70 <printchar>
    7fde:	50f2                	lw	ra,60(sp)
    7fe0:	5462                	lw	s0,56(sp)
    7fe2:	8526                	mv	a0,s1
    7fe4:	5942                	lw	s2,48(sp)
    7fe6:	54d2                	lw	s1,52(sp)
    7fe8:	59b2                	lw	s3,44(sp)
    7fea:	5a22                	lw	s4,40(sp)
    7fec:	5a92                	lw	s5,36(sp)
    7fee:	5b02                	lw	s6,32(sp)
    7ff0:	4bf2                	lw	s7,28(sp)
    7ff2:	4c62                	lw	s8,24(sp)
    7ff4:	4cd2                	lw	s9,20(sp)
    7ff6:	6121                	addi	sp,sp,64
    7ff8:	8082                	ret
    7ffa:	01758863          	beq	a1,s7,800a <print+0x72>
    7ffe:	854e                	mv	a0,s3
    8000:	d71ff0ef          	jal	ra,7d70 <printchar>
    8004:	0485                	addi	s1,s1,1
    8006:	0905                	addi	s2,s2,1
    8008:	b7d1                	j	7fcc <print+0x34>
    800a:	00190783          	lb	a5,1(s2)
    800e:	00190c93          	addi	s9,s2,1
    8012:	01779a63          	bne	a5,s7,8026 <print+0x8e>
    8016:	02500593          	li	a1,37
    801a:	854e                	mv	a0,s3
    801c:	d55ff0ef          	jal	ra,7d70 <printchar>
    8020:	0485                	addi	s1,s1,1
    8022:	8966                	mv	s2,s9
    8024:	b7cd                	j	8006 <print+0x6e>
    8026:	d7d5                	beqz	a5,7fd2 <print+0x3a>
    8028:	05578763          	beq	a5,s5,8076 <print+0xde>
    802c:	00fac863          	blt	s5,a5,803c <print+0xa4>
    8030:	02300713          	li	a4,35
    8034:	04e78463          	beq	a5,a4,807c <print+0xe4>
    8038:	4781                	li	a5,0
    803a:	a005                	j	805a <print+0xc2>
    803c:	02d00713          	li	a4,45
    8040:	00e78a63          	beq	a5,a4,8054 <print+0xbc>
    8044:	03000713          	li	a4,48
    8048:	fee798e3          	bne	a5,a4,8038 <print+0xa0>
    804c:	00290c93          	addi	s9,s2,2
    8050:	4789                	li	a5,2
    8052:	a021                	j	805a <print+0xc2>
    8054:	00290c93          	addi	s9,s2,2
    8058:	4785                	li	a5,1
    805a:	000c8703          	lb	a4,0(s9)
    805e:	05570363          	beq	a4,s5,80a4 <print+0x10c>
    8062:	02eac163          	blt	s5,a4,8084 <print+0xec>
    8066:	02300693          	li	a3,35
    806a:	02d70b63          	beq	a4,a3,80a0 <print+0x108>
    806e:	8966                	mv	s2,s9
    8070:	4601                	li	a2,0
    8072:	45a5                	li	a1,9
    8074:	a835                	j	80b0 <print+0x118>
    8076:	00290c93          	addi	s9,s2,2
    807a:	bf7d                	j	8038 <print+0xa0>
    807c:	00290c93          	addi	s9,s2,2
    8080:	4791                	li	a5,4
    8082:	bfe1                	j	805a <print+0xc2>
    8084:	02d00693          	li	a3,45
    8088:	00d70963          	beq	a4,a3,809a <print+0x102>
    808c:	03000693          	li	a3,48
    8090:	fcd71fe3          	bne	a4,a3,806e <print+0xd6>
    8094:	0027e793          	ori	a5,a5,2
    8098:	a031                	j	80a4 <print+0x10c>
    809a:	0c85                	addi	s9,s9,1
    809c:	4785                	li	a5,1
    809e:	bfc1                	j	806e <print+0xd6>
    80a0:	0047e793          	ori	a5,a5,4
    80a4:	0c85                	addi	s9,s9,1
    80a6:	b7e1                	j	806e <print+0xd6>
    80a8:	03860633          	mul	a2,a2,s8
    80ac:	0905                	addi	s2,s2,1
    80ae:	9636                	add	a2,a2,a3
    80b0:	00090703          	lb	a4,0(s2)
    80b4:	fd070693          	addi	a3,a4,-48
    80b8:	0ff6f513          	andi	a0,a3,255
    80bc:	fea5f6e3          	bgeu	a1,a0,80a8 <print+0x110>
    80c0:	02e00593          	li	a1,46
    80c4:	4699                	li	a3,6
    80c6:	00b71e63          	bne	a4,a1,80e2 <print+0x14a>
    80ca:	0905                	addi	s2,s2,1
    80cc:	4681                	li	a3,0
    80ce:	45a5                	li	a1,9
    80d0:	00090703          	lb	a4,0(s2)
    80d4:	fd070713          	addi	a4,a4,-48
    80d8:	0ff77513          	andi	a0,a4,255
    80dc:	02a5f563          	bgeu	a1,a0,8106 <print+0x16e>
    80e0:	8a36                	mv	s4,a3
    80e2:	00090703          	lb	a4,0(s2)
    80e6:	06a00593          	li	a1,106
    80ea:	0ab70863          	beq	a4,a1,819a <print+0x202>
    80ee:	02e5c163          	blt	a1,a4,8110 <print+0x178>
    80f2:	04c00593          	li	a1,76
    80f6:	0ab70263          	beq	a4,a1,819a <print+0x202>
    80fa:	06800593          	li	a1,104
    80fe:	08b70763          	beq	a4,a1,818c <print+0x1f4>
    8102:	4581                	li	a1,0
    8104:	a81d                	j	813a <print+0x1a2>
    8106:	038686b3          	mul	a3,a3,s8
    810a:	0905                	addi	s2,s2,1
    810c:	96ba                	add	a3,a3,a4
    810e:	b7c9                	j	80d0 <print+0x138>
    8110:	07400593          	li	a1,116
    8114:	08b70363          	beq	a4,a1,819a <print+0x202>
    8118:	07a00593          	li	a1,122
    811c:	06b70f63          	beq	a4,a1,819a <print+0x202>
    8120:	06c00513          	li	a0,108
    8124:	4581                	li	a1,0
    8126:	00a71a63          	bne	a4,a0,813a <print+0x1a2>
    812a:	00190503          	lb	a0,1(s2)
    812e:	458d                	li	a1,3
    8130:	00e51463          	bne	a0,a4,8138 <print+0x1a0>
    8134:	0905                	addi	s2,s2,1
    8136:	4591                	li	a1,4
    8138:	0905                	addi	s2,s2,1
    813a:	00090703          	lb	a4,0(s2)
    813e:	06000513          	li	a0,96
    8142:	06100813          	li	a6,97
    8146:	00e54463          	blt	a0,a4,814e <print+0x1b6>
    814a:	04100813          	li	a6,65
    814e:	06700513          	li	a0,103
    8152:	06e54163          	blt	a0,a4,81b4 <print+0x21c>
    8156:	06500513          	li	a0,101
    815a:	14a75d63          	bge	a4,a0,82b4 <print+0x31c>
    815e:	04700513          	li	a0,71
    8162:	02e54e63          	blt	a0,a4,819e <print+0x206>
    8166:	04500593          	li	a1,69
    816a:	14b75563          	bge	a4,a1,82b4 <print+0x31c>
    816e:	04300693          	li	a3,67
    8172:	e8d71ae3          	bne	a4,a3,8006 <print+0x6e>
    8176:	4018                	lw	a4,0(s0)
    8178:	00440c93          	addi	s9,s0,4
    817c:	000106a3          	sb	zero,13(sp)
    8180:	00e10623          	sb	a4,12(sp)
    8184:	86be                	mv	a3,a5
    8186:	4701                	li	a4,0
    8188:	006c                	addi	a1,sp,12
    818a:	a051                	j	820e <print+0x276>
    818c:	00190503          	lb	a0,1(s2)
    8190:	4581                	li	a1,0
    8192:	fae514e3          	bne	a0,a4,813a <print+0x1a2>
    8196:	0909                	addi	s2,s2,2
    8198:	b74d                	j	813a <print+0x1a2>
    819a:	0905                	addi	s2,s2,1
    819c:	b79d                	j	8102 <print+0x16a>
    819e:	06300693          	li	a3,99
    81a2:	fcd70ae3          	beq	a4,a3,8176 <print+0x1de>
    81a6:	06e6ca63          	blt	a3,a4,821a <print+0x282>
    81aa:	05800693          	li	a3,88
    81ae:	02d70363          	beq	a4,a3,81d4 <print+0x23c>
    81b2:	bd91                	j	8006 <print+0x6e>
    81b4:	07300693          	li	a3,115
    81b8:	04d70363          	beq	a4,a3,81fe <print+0x266>
    81bc:	02e6ca63          	blt	a3,a4,81f0 <print+0x258>
    81c0:	06f00693          	li	a3,111
    81c4:	0cd70363          	beq	a4,a3,828a <print+0x2f2>
    81c8:	07000693          	li	a3,112
    81cc:	0047e793          	ori	a5,a5,4
    81d0:	e2d71be3          	bne	a4,a3,8006 <print+0x6e>
    81d4:	4711                	li	a4,4
    81d6:	0ae59363          	bne	a1,a4,827c <print+0x2e4>
    81da:	041d                	addi	s0,s0,7
    81dc:	ff847593          	andi	a1,s0,-8
    81e0:	88c2                	mv	a7,a6
    81e2:	00858413          	addi	s0,a1,8
    81e6:	883e                	mv	a6,a5
    81e8:	4701                	li	a4,0
    81ea:	87b2                	mv	a5,a2
    81ec:	46c1                	li	a3,16
    81ee:	a099                	j	8234 <print+0x29c>
    81f0:	07500693          	li	a3,117
    81f4:	06d70163          	beq	a4,a3,8256 <print+0x2be>
    81f8:	07800693          	li	a3,120
    81fc:	bf4d                	j	81ae <print+0x216>
    81fe:	4018                	lw	a4,0(s0)
    8200:	00440c93          	addi	s9,s0,4
    8204:	85da                	mv	a1,s6
    8206:	c311                	beqz	a4,820a <print+0x272>
    8208:	85ba                	mv	a1,a4
    820a:	8752                	mv	a4,s4
    820c:	86be                	mv	a3,a5
    820e:	854e                	mv	a0,s3
    8210:	badff0ef          	jal	ra,7dbc <prints>
    8214:	94aa                	add	s1,s1,a0
    8216:	8466                	mv	s0,s9
    8218:	b3fd                	j	8006 <print+0x6e>
    821a:	4711                	li	a4,4
    821c:	02e59363          	bne	a1,a4,8242 <print+0x2aa>
    8220:	041d                	addi	s0,s0,7
    8222:	ff847593          	andi	a1,s0,-8
    8226:	88c2                	mv	a7,a6
    8228:	00858413          	addi	s0,a1,8
    822c:	883e                	mv	a6,a5
    822e:	4705                	li	a4,1
    8230:	87b2                	mv	a5,a2
    8232:	46a9                	li	a3,10
    8234:	41d0                	lw	a2,4(a1)
    8236:	418c                	lw	a1,0(a1)
    8238:	854e                	mv	a0,s3
    823a:	d57ff0ef          	jal	ra,7f90 <printLongLongInt>
    823e:	94aa                	add	s1,s1,a0
    8240:	b3d9                	j	8006 <print+0x6e>
    8242:	400c                	lw	a1,0(s0)
    8244:	88d2                	mv	a7,s4
    8246:	0411                	addi	s0,s0,4
    8248:	8732                	mv	a4,a2
    824a:	4685                	li	a3,1
    824c:	4629                	li	a2,10
    824e:	854e                	mv	a0,s3
    8250:	c4dff0ef          	jal	ra,7e9c <printInt>
    8254:	b7ed                	j	823e <print+0x2a6>
    8256:	4711                	li	a4,4
    8258:	00e59c63          	bne	a1,a4,8270 <print+0x2d8>
    825c:	041d                	addi	s0,s0,7
    825e:	ff847593          	andi	a1,s0,-8
    8262:	88c2                	mv	a7,a6
    8264:	00858413          	addi	s0,a1,8
    8268:	883e                	mv	a6,a5
    826a:	4701                	li	a4,0
    826c:	87b2                	mv	a5,a2
    826e:	b7d1                	j	8232 <print+0x29a>
    8270:	400c                	lw	a1,0(s0)
    8272:	88d2                	mv	a7,s4
    8274:	0411                	addi	s0,s0,4
    8276:	8732                	mv	a4,a2
    8278:	4681                	li	a3,0
    827a:	bfc9                	j	824c <print+0x2b4>
    827c:	400c                	lw	a1,0(s0)
    827e:	8732                	mv	a4,a2
    8280:	0411                	addi	s0,s0,4
    8282:	88d2                	mv	a7,s4
    8284:	4681                	li	a3,0
    8286:	4641                	li	a2,16
    8288:	b7d9                	j	824e <print+0x2b6>
    828a:	4711                	li	a4,4
    828c:	00e59d63          	bne	a1,a4,82a6 <print+0x30e>
    8290:	041d                	addi	s0,s0,7
    8292:	ff847593          	andi	a1,s0,-8
    8296:	88c2                	mv	a7,a6
    8298:	00858413          	addi	s0,a1,8
    829c:	883e                	mv	a6,a5
    829e:	4701                	li	a4,0
    82a0:	87b2                	mv	a5,a2
    82a2:	46a1                	li	a3,8
    82a4:	bf41                	j	8234 <print+0x29c>
    82a6:	400c                	lw	a1,0(s0)
    82a8:	8732                	mv	a4,a2
    82aa:	0411                	addi	s0,s0,4
    82ac:	88d2                	mv	a7,s4
    82ae:	4681                	li	a3,0
    82b0:	4621                	li	a2,8
    82b2:	bf71                	j	824e <print+0x2b6>
    82b4:	041d                	addi	s0,s0,7
    82b6:	ff847593          	andi	a1,s0,-8
    82ba:	00858413          	addi	s0,a1,8
    82be:	8732                	mv	a4,a2
    82c0:	41d0                	lw	a2,4(a1)
    82c2:	418c                	lw	a1,0(a1)
    82c4:	88c2                	mv	a7,a6
    82c6:	854e                	mv	a0,s3
    82c8:	883e                	mv	a6,a5
    82ca:	87b6                	mv	a5,a3
    82cc:	46a9                	li	a3,10
    82ce:	cc7ff0ef          	jal	ra,7f94 <printDouble>
    82d2:	b7b5                	j	823e <print+0x2a6>

000082d4 <printf>:
printf():
    82d4:	7139                	addi	sp,sp,-64
    82d6:	d22e                	sw	a1,36(sp)
    82d8:	d432                	sw	a2,40(sp)
    82da:	85aa                	mv	a1,a0
    82dc:	1050                	addi	a2,sp,36
    82de:	4501                	li	a0,0
    82e0:	ce06                	sw	ra,28(sp)
    82e2:	d636                	sw	a3,44(sp)
    82e4:	d83a                	sw	a4,48(sp)
    82e6:	da3e                	sw	a5,52(sp)
    82e8:	dc42                	sw	a6,56(sp)
    82ea:	de46                	sw	a7,60(sp)
    82ec:	c632                	sw	a2,12(sp)
    82ee:	cabff0ef          	jal	ra,7f98 <print>
    82f2:	40f2                	lw	ra,28(sp)
    82f4:	6121                	addi	sp,sp,64
    82f6:	8082                	ret

000082f8 <puts>:
puts():
    82f8:	1101                	addi	sp,sp,-32
    82fa:	cc22                	sw	s0,24(sp)
    82fc:	ca26                	sw	s1,20(sp)
    82fe:	ce06                	sw	ra,28(sp)
    8300:	00054783          	lbu	a5,0(a0)
    8304:	84aa                	mv	s1,a0
    8306:	4401                	li	s0,0
    8308:	00f107a3          	sb	a5,15(sp)
    830c:	00f10783          	lb	a5,15(sp)
    8310:	0405                	addi	s0,s0,1
    8312:	e385                	bnez	a5,8332 <puts+0x3a>
    8314:	47a9                	li	a5,10
    8316:	00f10593          	addi	a1,sp,15
    831a:	4605                	li	a2,1
    831c:	4501                	li	a0,0
    831e:	00f107a3          	sb	a5,15(sp)
    8322:	ffbf80ef          	jal	ra,131c <_write>
    8326:	8522                	mv	a0,s0
    8328:	40f2                	lw	ra,28(sp)
    832a:	4462                	lw	s0,24(sp)
    832c:	44d2                	lw	s1,20(sp)
    832e:	6105                	addi	sp,sp,32
    8330:	8082                	ret
    8332:	4605                	li	a2,1
    8334:	00f10593          	addi	a1,sp,15
    8338:	4501                	li	a0,0
    833a:	fe3f80ef          	jal	ra,131c <_write>
    833e:	008487b3          	add	a5,s1,s0
    8342:	0007c783          	lbu	a5,0(a5)
    8346:	00f107a3          	sb	a5,15(sp)
    834a:	b7c9                	j	830c <puts+0x14>

0000834c <memcpy>:
memcpy():
    834c:	00a5c7b3          	xor	a5,a1,a0
    8350:	8b8d                	andi	a5,a5,3
    8352:	00c50733          	add	a4,a0,a2
    8356:	e781                	bnez	a5,835e <memcpy+0x12>
    8358:	478d                	li	a5,3
    835a:	00c7ee63          	bltu	a5,a2,8376 <memcpy+0x2a>
    835e:	87aa                	mv	a5,a0
    8360:	0ae57063          	bgeu	a0,a4,8400 <memcpy+0xb4>
    8364:	0005c683          	lbu	a3,0(a1)
    8368:	0785                	addi	a5,a5,1
    836a:	0585                	addi	a1,a1,1
    836c:	fed78fa3          	sb	a3,-1(a5)
    8370:	fee7eae3          	bltu	a5,a4,8364 <memcpy+0x18>
    8374:	8082                	ret
    8376:	00357693          	andi	a3,a0,3
    837a:	87aa                	mv	a5,a0
    837c:	ca91                	beqz	a3,8390 <memcpy+0x44>
    837e:	0005c683          	lbu	a3,0(a1)
    8382:	0785                	addi	a5,a5,1
    8384:	0585                	addi	a1,a1,1
    8386:	fed78fa3          	sb	a3,-1(a5)
    838a:	0037f693          	andi	a3,a5,3
    838e:	b7fd                	j	837c <memcpy+0x30>
    8390:	ffc77693          	andi	a3,a4,-4
    8394:	fe068613          	addi	a2,a3,-32
    8398:	06c7f063          	bgeu	a5,a2,83f8 <memcpy+0xac>
    839c:	0005a383          	lw	t2,0(a1)
    83a0:	0045a283          	lw	t0,4(a1)
    83a4:	0085af83          	lw	t6,8(a1)
    83a8:	00c5af03          	lw	t5,12(a1)
    83ac:	0105ae83          	lw	t4,16(a1)
    83b0:	0145ae03          	lw	t3,20(a1)
    83b4:	0185a303          	lw	t1,24(a1)
    83b8:	01c5a883          	lw	a7,28(a1)
    83bc:	02458593          	addi	a1,a1,36
    83c0:	0077a023          	sw	t2,0(a5)
    83c4:	ffc5a803          	lw	a6,-4(a1)
    83c8:	0057a223          	sw	t0,4(a5)
    83cc:	01f7a423          	sw	t6,8(a5)
    83d0:	01e7a623          	sw	t5,12(a5)
    83d4:	01d7a823          	sw	t4,16(a5)
    83d8:	01c7aa23          	sw	t3,20(a5)
    83dc:	0067ac23          	sw	t1,24(a5)
    83e0:	0117ae23          	sw	a7,28(a5)
    83e4:	02478793          	addi	a5,a5,36
    83e8:	ff07ae23          	sw	a6,-4(a5)
    83ec:	b775                	j	8398 <memcpy+0x4c>
    83ee:	4190                	lw	a2,0(a1)
    83f0:	0791                	addi	a5,a5,4
    83f2:	0591                	addi	a1,a1,4
    83f4:	fec7ae23          	sw	a2,-4(a5)
    83f8:	fed7ebe3          	bltu	a5,a3,83ee <memcpy+0xa2>
    83fc:	f6e7e4e3          	bltu	a5,a4,8364 <memcpy+0x18>
    8400:	8082                	ret
    8402:	0000                	unimp
    8404:	6148                	flw	fa0,4(a0)
    8406:	6472                	flw	fs0,28(sp)
    8408:	6146                	flw	ft2,80(sp)
    840a:	6c75                	lui	s8,0x1d
    840c:	5f74                	lw	a3,124(a4)
    840e:	6148                	flw	fa0,4(a0)
    8410:	646e                	flw	fs0,216(sp)
    8412:	656c                	flw	fa1,76(a0)
    8414:	0d72                	slli	s10,s10,0x1c
    8416:	0000                	unimp
    8418:	656d                	lui	a0,0x1b
    841a:	6370                	flw	fa2,68(a4)
    841c:	2020                	fld	fs0,64(s0)
    841e:	253a                	fld	fa0,392(sp)
    8420:	3830                	fld	fa2,112(s0)
    8422:	0d78                	addi	a4,sp,668
    8424:	000a                	c.slli	zero,0x2
    8426:	0000                	unimp
    8428:	636d                	lui	t1,0x1b
    842a:	7561                	lui	a0,0xffff8
    842c:	253a6573          	csrrsi	a0,0x253,20
    8430:	3830                	fld	fa2,112(s0)
    8432:	0d78                	addi	a4,sp,668
    8434:	000a                	c.slli	zero,0x2
    8436:	0000                	unimp
    8438:	746d                	lui	s0,0xffffb
    843a:	6176                	flw	ft2,92(sp)
    843c:	206c                	fld	fa1,192(s0)
    843e:	253a                	fld	fa0,392(sp)
    8440:	3830                	fld	fa2,112(s0)
    8442:	0d78                	addi	a4,sp,668
    8444:	000a                	c.slli	zero,0x2
	...

00008448 <MemNum>:
    8448:	0004 0008 0008 0008 000a 0005 0005 0006     ................

00008458 <MemSize>:
    8458:	0100 0030 0100 0040 0060 0040 0040 0398     ..0...@.`.@.@...
    8468:	4357 4e48 5445 535f 636f 656b 4374 6572     WCHNET_SocketCre
    8478:	7461 2520 0d64 000a 4947 544e 535f 4154     at %d...GINT_STA
    8488:	5f54 4e55 4552 4341 0d48 0000 4947 544e     T_UNREACH...GINT
    8498:	535f 4154 5f54 5049 435f 4e4f 4c46 0d49     _STAT_IP_CONFLI.
    84a8:	0000 0000 4850 2059 694c 6b6e 5320 6375     ....PHY Link Suc
    84b8:	6563 7373 000d 0000 4357 4e48 5445 535f     cess....WCHNET_S
    84c8:	636f 656b 5274 6365 4c76 6e65 2520 2064     ocketRecvLen %d 
    84d8:	0a0d 0000 4354 2050 6f43 6e6e 6365 2074     ....TCP Connect 
    84e8:	7553 6363 7365 0d73 0000 0000 4354 2050     Success.....TCP 
    84f8:	6944 6373 6e6f 656e 7463 000d 4354 2050     Disconnect..TCP 
    8508:	6954 6f6d 7475 000d 7245 6f72 3a72 2520     Timout..Error: %
    8518:	3230 0d58 000a 0000 6354 4370 696c 6e65     02X.....TcpClien
    8528:	2074 6554 7473 000d 4357 4e48 5445 4c5f     t Test..WCHNET_L
    8538:	6269 6e49 7469 5320 6375 6563 7373 000d     ibInit Success..

00008548 <ErrTable>:
    8548:	1100 1312 1514 1716 1918 1b1a 1d1c 1f1e     ................
    8558:	6f6e 7220 756f 6574 7420 206f 6564 7473     no route to dest
    8568:	6e69 7461 6f69 206e 7265 6f72 0d72 0000     ination error...
    8578:	4aca 0000 4b10 0000 4b2a 0000 4b3a 0000     .J...K..*K..:K..
    8588:	4b3a 0000 4b26 0000 4b26 0000 4b48 0000     :K..&K..&K..HK..

00008598 <tcp_backoff>:
    8598:	0101 0101 0101 0101 0101 0101 0101 0101     ................
    85a8:	0101 0101 5f38 0000 6038 0000 6122 0000     ....8_..8`.."a..
    85b8:	612a 0000 61d0 0000 6122 0000 6216 0000     *a...a.."a...b..
    85c8:	6252 0000 6e28 6c75 296c 0000               Rb..(null)..
